(lp0
(lp1
(lp2
S'func_0'
p3
aS'('
p4
aS'const'
p5
aS'size_t'
p6
aS'variable_0'
p7
aS')'
p8
aS'size_t'
p9
aS'variable_1'
p10
aS','
p11
aS'variable_2'
p12
aS';'
p13
aS'variable_1'
p14
aS'='
p15
aS'func_1'
p16
ag4
aS'variable_0'
p17
ag8
aS'+'
p18
aS'variable_3'
p19
ag13
aS'if'
p20
ag4
aS'func_2'
p21
ag4
aS'variable_4'
p22
ag8
aS'<'
p23
aS'variable_1'
p24
ag18
aS'sizeof'
p25
ag4
aS'variable_5'
p26
ag8
ag8
aS'variable_2'
p27
ag15
aS'variable_4'
p28
aS'->'
p29
aS'variable_6'
p30
aS'-'
p31
aS'variable_1'
p32
ag13
aS'variable_7'
p33
aS'->'
p34
aS'variable_6'
p35
ag15
ag4
aS'variable_8'
p36
ag8
aS'variable_2'
p37
ag13
aS'variable_7'
p38
aS'->'
p39
aS'variable_9'
p40
ag15
aS'variable_9'
p41
ag13
aS'variable_7'
p42
aS'->'
p43
aS'variable_10'
p44
ag15
aS'variable_4'
p45
aS'->'
p46
aS'variable_6'
p47
ag13
aS'variable_7'
p48
aS'->'
p49
aS'variable_11'
p50
ag15
aS'variable_12'
p51
ag13
aS'variable_7'
p52
aS'->'
p53
aS'variable_13'
p54
ag15
aS'variable_12'
p55
ag13
aS'func_3'
p56
ag4
aS'variable_7'
p57
ag8
aS'->'
p58
aS'variable_10'
p59
ag15
aS'variable_7'
p60
aS'->'
p61
aS'variable_6'
p62
ag13
aaa(lp63
I0
aa(lp64
I40
aa(lp65
(lp66
S'main'
p67
aaa(lp68
S'718 /home/SySeVR/data/CVE_2015_6242_VULN_wmem_block_split_free_chunk.c available = chunk -> len - aligned_size 29'
p69
aa.