(lp0
(lp1
(lp2
S'static'
p3
aS'int'
p4
aS'func_0'
p5
aS'('
p6
aS'struct'
p7
aS'variable_0'
p8
aS'*'
p9
aS'variable_1'
p10
aS','
p11
aS'struct'
p12
aS'variable_2'
p13
ag9
aS'variable_3'
p14
aS')'
p15
aS'char'
p16
ag9
aS'variable_4'
p17
aS'='
p18
aS'NULL'
p19
aS';'
p20
aS'struct'
p21
aS'variable_5'
p22
ag9
aS'variable_6'
p23
ag11
ag9
aS'variable_7'
p24
ag20
aS'int'
p25
aS'variable_8'
p26
ag11
aS'variable_9'
p27
ag20
aS'unsigned'
p28
aS'int'
p29
aS'variable_10'
p30
ag20
aS'struct'
p31
aS'{'
p32
aS'struct'
p33
aS'elfhdr'
p34
aS'variable_11'
p35
ag20
aS'struct'
p36
aS'elfhdr'
p37
aS'variable_12'
p38
ag20
aS'}'
p39
ag9
aS'variable_13'
p40
ag20
aS'variable_13'
p41
ag18
aS'kmalloc'
p42
ag6
aS'sizeof'
p43
ag6
ag9
aS'variable_13'
p44
ag15
ag11
aS'variable_14'
p45
ag15
ag20
aS'if'
p46
ag6
aS'!'
p47
aS'variable_13'
p48
ag15
aS'variable_13'
p49
aS'->'
p50
aS'variable_11'
p51
ag18
ag9
ag6
ag6
aS'struct'
p52
aS'elfhdr'
p53
ag9
ag15
aS'variable_1'
p54
aS'->'
p55
aS'variable_15'
p56
ag15
ag20
aS'variable_8'
p57
ag18
aS'-'
p58
aS'variable_16'
p59
ag20
aS'if'
p60
ag6
aS'memcmp'
p61
ag6
aS'variable_13'
p62
aS'->'
p63
aS'variable_11'
p64
aS'.'
p65
aS'variable_17'
p66
ag11
aS'variable_18'
p67
ag11
aS'variable_19'
p68
ag15
aS'!='
p69
aS'0'
p70
ag15
aS'if'
p71
ag6
aS'variable_13'
p72
aS'->'
p73
aS'variable_11'
p74
ag65
aS'variable_20'
p75
aS'!='
p76
aS'variable_21'
p77
aS'&&'
p78
aS'variable_13'
p79
aS'->'
p80
aS'variable_11'
p81
ag65
aS'variable_20'
p82
aS'!='
p83
aS'variable_22'
p84
ag15
aS'if'
p85
ag6
ag47
aS'func_1'
p86
ag6
aS'&'
p87
aS'variable_13'
p88
aS'->'
p89
aS'variable_11'
p90
ag15
ag15
aS'if'
p91
ag6
ag47
aS'variable_1'
p92
aS'->'
p93
aS'variable_23'
p94
aS'->'
p95
aS'variable_24'
p96
aS'||'
p97
ag47
aS'variable_1'
p98
aS'->'
p99
aS'variable_23'
p100
aS'->'
p101
aS'variable_24'
p102
aS'->'
p103
aS'variable_25'
p104
ag15
aS'if'
p105
ag6
aS'variable_13'
p106
aS'->'
p107
aS'variable_11'
p108
ag65
aS'variable_26'
p109
aS'!='
p110
aS'sizeof'
p111
ag6
aS'struct'
p112
aS'variable_5'
p113
ag15
ag15
aS'if'
p114
ag6
aS'variable_13'
p115
aS'->'
p116
aS'variable_11'
p117
ag65
aS'variable_27'
p118
aS'<'
p119
aS'1'
p120
aS'||'
p121
aS'variable_13'
p122
aS'->'
p123
aS'variable_11'
p124
ag65
aS'variable_27'
p125
aS'>'
p126
aS'65536U'
p127
aS'/'
p128
aS'sizeof'
p129
ag6
aS'struct'
p130
aS'variable_5'
p131
ag15
ag15
aS'variable_10'
p132
ag18
aS'variable_13'
p133
aS'->'
p134
aS'variable_11'
p135
ag65
aS'variable_27'
p136
ag9
aS'sizeof'
p137
ag6
aS'struct'
p138
aS'variable_5'
p139
ag15
ag20
aS'variable_8'
p140
ag18
ag58
aS'variable_28'
p141
ag20
aS'variable_7'
p142
ag18
aS'kmalloc'
p143
ag6
aS'variable_10'
p144
ag11
aS'variable_14'
p145
ag15
ag20
aS'if'
p146
ag6
ag47
aS'variable_7'
p147
ag15
aS'variable_8'
p148
ag18
aS'func_2'
p149
ag6
aS'variable_1'
p150
aS'->'
p151
aS'variable_23'
p152
ag11
aS'variable_13'
p153
aS'->'
p154
aS'variable_11'
p155
ag65
aS'variable_29'
p156
ag11
ag6
aS'char'
p157
ag9
ag15
aS'variable_7'
p158
ag11
aS'variable_10'
p159
ag15
ag20
aS'if'
p160
ag6
aS'variable_8'
p161
aS'!='
p162
aS'variable_10'
p163
ag15
aS'variable_6'
p164
ag18
aS'variable_7'
p165
ag20
aS'for'
p166
ag6
aS'variable_9'
p167
ag18
ag70
ag20
aS'variable_9'
p168
ag119
aS'variable_13'
p169
aS'->'
p170
aS'variable_11'
p171
ag65
aS'variable_27'
p172
ag20
aS'variable_9'
p173
aS'++'
p174
ag15
aS'if'
p175
ag6
aS'variable_6'
p176
aS'->'
p177
aS'variable_30'
p178
aS'=='
p179
aS'variable_31'
p180
ag15
aS'variable_8'
p181
ag18
ag58
aS'variable_16'
p182
ag20
aS'if'
p183
ag6
aS'variable_6'
p184
aS'->'
p185
aS'variable_32'
p186
ag126
aS'variable_33'
p187
aS'||'
p188
aS'variable_6'
p189
aS'->'
p190
aS'variable_32'
p191
ag119
aS'2'
p192
ag15
aS'variable_8'
p193
ag18
ag58
aS'variable_28'
p194
ag20
aS'variable_4'
p195
ag18
aS'kmalloc'
p196
ag6
aS'variable_6'
p197
aS'->'
p198
aS'variable_32'
p199
ag11
aS'variable_14'
p200
ag15
ag20
aS'if'
p201
ag6
ag47
aS'variable_4'
p202
ag15
aS'variable_8'
p203
ag18
aS'func_3'
p204
ag6
aS'variable_1'
p205
aS'->'
p206
aS'variable_23'
p207
ag11
aS'variable_6'
p208
aS'->'
p209
aS'variable_34'
p210
ag11
aS'variable_4'
p211
ag11
aS'variable_6'
p212
aS'->'
p213
aS'variable_32'
p214
ag15
ag20
aS'if'
p215
ag6
aS'variable_8'
p216
aS'!='
p217
aS'variable_6'
p218
aS'->'
p219
aS'variable_32'
p220
ag15
aS'variable_8'
p221
ag18
ag58
aS'variable_16'
p222
ag20
aS'if'
p223
ag6
aS'variable_4'
p224
aS'['
p225
aS'variable_6'
p226
aS'->'
p227
aS'variable_32'
p228
ag58
ag120
aS']'
p229
aS'!='
p230
aS"'"
p231
aS'\\'
p232
ag70
ag231
ag15
aS'variable_35'
p233
ag18
aS'func_4'
p234
ag6
aS'variable_4'
p235
ag15
ag20
aS'variable_8'
p236
ag18
aS'func_5'
p237
ag6
aS'variable_35'
p238
ag15
ag20
aS'if'
p239
ag6
aS'func_6'
p240
ag6
aS'variable_35'
p241
ag15
ag15
aS'if'
p242
ag6
aS'func_7'
p243
ag6
aS'variable_35'
p244
ag11
aS'variable_36'
p245
ag15
ag119
ag70
ag15
aS'variable_1'
p246
aS'->'
p247
aS'variable_37'
p248
aS'|'
p249
ag18
aS'variable_38'
p250
ag20
aS'variable_8'
p251
ag18
aS'func_8'
p252
ag6
aS'variable_35'
p253
ag11
ag70
ag11
aS'variable_1'
p254
aS'->'
p255
aS'variable_15'
p256
ag11
aS'variable_39'
p257
ag15
ag20
aS'if'
p258
ag6
aS'variable_8'
p259
aS'!='
p260
aS'variable_39'
p261
ag15
aS'variable_13'
p262
aS'->'
p263
aS'variable_12'
p264
ag18
ag9
ag6
ag6
aS'struct'
p265
aS'elfhdr'
p266
ag9
ag15
aS'variable_1'
p267
aS'->'
p268
aS'variable_15'
p269
ag15
ag20
aS'variable_6'
p270
aS'++'
p271
ag20
aS'if'
p272
ag6
aS'variable_4'
p273
ag15
aS'if'
p274
ag6
aS'memcmp'
p275
ag6
aS'variable_13'
p276
aS'->'
p277
aS'variable_12'
p278
ag65
aS'variable_17'
p279
ag11
aS'variable_18'
p280
ag11
aS'variable_19'
p281
ag15
aS'!='
p282
ag70
ag15
aa(lp283
S'static'
p284
aS'int'
p285
aS'func_0'
p286
ag6
aS'struct'
p287
aS'variable_0'
p288
ag9
aS'variable_1'
p289
ag11
aS'struct'
p290
aS'variable_2'
p291
ag9
aS'variable_3'
p292
ag15
aS'struct'
p293
ag32
aS'struct'
p294
aS'elfhdr'
p295
aS'variable_4'
p296
ag20
aS'struct'
p297
aS'elfhdr'
p298
aS'variable_5'
p299
ag20
ag39
ag9
aS'variable_6'
p300
ag20
aS'variable_6'
p301
ag18
aS'kmalloc'
p302
ag6
aS'sizeof'
p303
ag6
ag9
aS'variable_6'
p304
ag15
ag11
aS'variable_7'
p305
ag15
ag20
aS'if'
p306
ag6
ag47
aS'variable_6'
p307
ag15
aS'variable_6'
p308
aS'->'
p309
aS'variable_4'
p310
ag18
ag9
ag6
ag6
aS'struct'
p311
aS'elfhdr'
p312
ag9
ag15
aS'variable_1'
p313
aS'->'
p314
aS'variable_8'
p315
ag15
ag20
aS'if'
p316
ag6
aS'memcmp'
p317
ag6
aS'variable_6'
p318
aS'->'
p319
aS'variable_4'
p320
ag65
aS'variable_9'
p321
ag11
aS'variable_10'
p322
ag11
aS'variable_11'
p323
ag15
aS'!='
p324
ag70
ag15
aaa(lp325
I0
aI0
aa(lp326
I456
aI64
aa(lp327
(lp328
S'main'
p329
aa(lp330
g329
aaa(lp331
S'371 /home/SySeVR/data/CVE_2010_0307_PATCHED_load_elf_binary.c memcmp 145'
p332
aS'372 /home/SySeVR/data/CVE_2010_0307_PATCHED_load_elf_binary.c memcmp 34'
p333
aa.