(lp0
(lp1
(lp2
S'static'
p3
aS'int'
p4
aS'func_0'
p5
aS'('
p6
aS'struct'
p7
aS'variable_0'
p8
aS'*'
p9
aS'variable_1'
p10
aS','
p11
aS'struct'
p12
aS'variable_2'
p13
ag9
aS'variable_3'
p14
aS')'
p15
aS'unsigned'
p16
aS'long'
p17
aS'variable_4'
p18
aS'='
p19
aS'0'
p20
ag11
aS'variable_5'
p21
ag19
ag20
aS';'
p22
aS'int'
p23
aS'variable_6'
p24
ag19
ag20
ag22
aS'char'
p25
ag9
aS'variable_7'
p26
ag19
aS'NULL'
p27
ag22
aS'unsigned'
p28
aS'long'
p29
aS'variable_8'
p30
ag22
aS'struct'
p31
aS'variable_9'
p32
ag9
aS'variable_10'
p33
ag11
ag9
aS'variable_11'
p34
ag22
aS'unsigned'
p35
aS'long'
p36
aS'variable_12'
p37
ag11
aS'variable_13'
p38
ag22
aS'int'
p39
aS'variable_14'
p40
ag11
aS'variable_15'
p41
ag22
aS'unsigned'
p42
aS'int'
p43
aS'variable_16'
p44
ag22
aS'int'
p45
aS'variable_17'
p46
ag19
aS'variable_18'
p47
ag22
aS'struct'
p48
aS'{'
p49
aS'struct'
p50
aS'elfhdr'
p51
aS'variable_19'
p52
ag22
aS'struct'
p53
aS'elfhdr'
p54
aS'variable_20'
p55
ag22
aS'}'
p56
ag9
aS'variable_21'
p57
ag22
aS'variable_21'
p58
ag19
aS'kmalloc'
p59
ag6
aS'sizeof'
p60
ag6
ag9
aS'variable_21'
p61
ag15
ag11
aS'variable_22'
p62
ag15
ag22
aS'if'
p63
ag6
aS'!'
p64
aS'variable_21'
p65
ag15
aS'variable_21'
p66
aS'->'
p67
aS'variable_19'
p68
ag19
ag9
ag6
ag6
aS'struct'
p69
aS'elfhdr'
p70
ag9
ag15
aS'variable_1'
p71
aS'->'
p72
aS'variable_23'
p73
ag15
ag22
aS'variable_14'
p74
ag19
aS'-'
p75
aS'variable_24'
p76
ag22
aS'if'
p77
ag6
aS'memcmp'
p78
ag6
aS'variable_21'
p79
aS'->'
p80
aS'variable_19'
p81
aS'.'
p82
aS'variable_25'
p83
ag11
aS'variable_26'
p84
ag11
aS'variable_27'
p85
ag15
aS'!='
p86
ag20
ag15
aS'if'
p87
ag6
aS'variable_21'
p88
aS'->'
p89
aS'variable_19'
p90
ag82
aS'variable_28'
p91
aS'!='
p92
aS'variable_29'
p93
aS'&&'
p94
aS'variable_21'
p95
aS'->'
p96
aS'variable_19'
p97
ag82
aS'variable_28'
p98
aS'!='
p99
aS'variable_30'
p100
ag15
aS'if'
p101
ag6
ag64
aS'func_1'
p102
ag6
aS'&'
p103
aS'variable_21'
p104
aS'->'
p105
aS'variable_19'
p106
ag15
ag15
aS'if'
p107
ag6
ag64
aS'variable_1'
p108
aS'->'
p109
aS'variable_31'
p110
aS'->'
p111
aS'variable_32'
p112
aS'||'
p113
ag64
aS'variable_1'
p114
aS'->'
p115
aS'variable_31'
p116
aS'->'
p117
aS'variable_32'
p118
aS'->'
p119
aS'variable_33'
p120
ag15
aS'if'
p121
ag6
aS'variable_21'
p122
aS'->'
p123
aS'variable_19'
p124
ag82
aS'variable_34'
p125
aS'!='
p126
aS'sizeof'
p127
ag6
aS'struct'
p128
aS'variable_9'
p129
ag15
ag15
aS'if'
p130
ag6
aS'variable_21'
p131
aS'->'
p132
aS'variable_19'
p133
ag82
aS'variable_35'
p134
aS'<'
p135
aS'1'
p136
aS'||'
p137
aS'variable_21'
p138
aS'->'
p139
aS'variable_19'
p140
ag82
aS'variable_35'
p141
aS'>'
p142
aS'65536U'
p143
aS'/'
p144
aS'sizeof'
p145
ag6
aS'struct'
p146
aS'variable_9'
p147
ag15
ag15
aS'variable_16'
p148
ag19
aS'variable_21'
p149
aS'->'
p150
aS'variable_19'
p151
ag82
aS'variable_35'
p152
ag9
aS'sizeof'
p153
ag6
aS'struct'
p154
aS'variable_9'
p155
ag15
ag22
aS'variable_14'
p156
ag19
ag75
aS'variable_36'
p157
ag22
aS'variable_11'
p158
ag19
aS'kmalloc'
p159
ag6
aS'variable_16'
p160
ag11
aS'variable_22'
p161
ag15
ag22
aS'if'
p162
ag6
ag64
aS'variable_11'
p163
ag15
aS'variable_14'
p164
ag19
aS'func_2'
p165
ag6
aS'variable_1'
p166
aS'->'
p167
aS'variable_31'
p168
ag11
aS'variable_21'
p169
aS'->'
p170
aS'variable_19'
p171
ag82
aS'variable_37'
p172
ag11
ag6
aS'char'
p173
ag9
ag15
aS'variable_11'
p174
ag11
aS'variable_16'
p175
ag15
ag22
aS'if'
p176
ag6
aS'variable_14'
p177
aS'!='
p178
aS'variable_16'
p179
ag15
aS'variable_10'
p180
ag19
aS'variable_11'
p181
ag22
aS'variable_12'
p182
ag19
ag20
ag22
aS'variable_13'
p183
ag19
ag20
ag22
aS'for'
p184
ag6
aS'variable_15'
p185
ag19
ag20
ag22
aS'variable_15'
p186
ag135
aS'variable_21'
p187
aS'->'
p188
aS'variable_19'
p189
ag82
aS'variable_35'
p190
ag22
aS'variable_15'
p191
aS'++'
p192
ag15
aS'if'
p193
ag6
aS'variable_10'
p194
aS'->'
p195
aS'variable_38'
p196
aS'=='
p197
aS'variable_39'
p198
ag15
aS'variable_14'
p199
ag19
ag75
aS'variable_24'
p200
ag22
aS'if'
p201
ag6
aS'variable_10'
p202
aS'->'
p203
aS'variable_40'
p204
ag142
aS'variable_41'
p205
aS'||'
p206
aS'variable_10'
p207
aS'->'
p208
aS'variable_40'
p209
ag135
aS'2'
p210
ag15
aS'variable_14'
p211
ag19
ag75
aS'variable_36'
p212
ag22
aS'variable_7'
p213
ag19
aS'kmalloc'
p214
ag6
aS'variable_10'
p215
aS'->'
p216
aS'variable_40'
p217
ag11
aS'variable_22'
p218
ag15
ag22
aS'if'
p219
ag6
ag64
aS'variable_7'
p220
ag15
aS'variable_14'
p221
ag19
aS'func_3'
p222
ag6
aS'variable_1'
p223
aS'->'
p224
aS'variable_31'
p225
ag11
aS'variable_10'
p226
aS'->'
p227
aS'variable_42'
p228
ag11
aS'variable_7'
p229
ag11
aS'variable_10'
p230
aS'->'
p231
aS'variable_40'
p232
ag15
ag22
aS'if'
p233
ag6
aS'variable_14'
p234
aS'!='
p235
aS'variable_10'
p236
aS'->'
p237
aS'variable_40'
p238
ag15
aS'variable_14'
p239
ag19
ag75
aS'variable_24'
p240
ag22
aS'if'
p241
ag6
aS'variable_7'
p242
aS'['
p243
aS'variable_10'
p244
aS'->'
p245
aS'variable_40'
p246
ag75
ag136
aS']'
p247
aS'!='
p248
aS"'"
p249
aS'\\'
p250
ag20
ag249
ag15
aS'variable_43'
p251
ag19
aS'func_4'
p252
ag6
aS'variable_7'
p253
ag15
ag22
aS'variable_14'
p254
ag19
aS'func_5'
p255
ag6
aS'variable_43'
p256
ag15
ag22
aS'if'
p257
ag6
aS'func_6'
p258
ag6
aS'variable_43'
p259
ag15
ag15
aS'if'
p260
ag6
aS'func_7'
p261
ag6
aS'variable_43'
p262
ag11
aS'variable_44'
p263
ag15
ag135
ag20
ag15
aS'variable_1'
p264
aS'->'
p265
aS'variable_45'
p266
aS'|'
p267
ag19
aS'variable_46'
p268
ag22
aS'variable_14'
p269
ag19
aS'func_8'
p270
ag6
aS'variable_43'
p271
ag11
ag20
ag11
aS'variable_1'
p272
aS'->'
p273
aS'variable_23'
p274
ag11
aS'variable_47'
p275
ag15
ag22
aS'if'
p276
ag6
aS'variable_14'
p277
aS'!='
p278
aS'variable_47'
p279
ag15
aS'variable_21'
p280
aS'->'
p281
aS'variable_20'
p282
ag19
ag9
ag6
ag6
aS'struct'
p283
aS'elfhdr'
p284
ag9
ag15
aS'variable_1'
p285
aS'->'
p286
aS'variable_23'
p287
ag15
ag22
aS'variable_10'
p288
aS'++'
p289
ag22
aS'variable_10'
p290
ag19
aS'variable_11'
p291
ag22
aS'for'
p292
ag6
aS'variable_15'
p293
ag19
ag20
ag22
aS'variable_15'
p294
ag135
aS'variable_21'
p295
aS'->'
p296
aS'variable_19'
p297
ag82
aS'variable_35'
p298
ag22
aS'variable_15'
p299
aS'++'
p300
ag11
aS'variable_10'
p301
aS'++'
p302
ag15
aS'if'
p303
ag6
aS'variable_10'
p304
aS'->'
p305
aS'variable_38'
p306
aS'=='
p307
aS'variable_48'
p308
ag15
aS'if'
p309
ag6
aS'variable_10'
p310
aS'->'
p311
aS'variable_49'
p312
ag103
aS'variable_50'
p313
ag15
aS'variable_17'
p314
ag19
aS'variable_51'
p315
ag22
aS'variable_17'
p316
ag19
aS'variable_52'
p317
ag22
aS'if'
p318
ag6
aS'variable_7'
p319
ag15
aS'variable_14'
p320
ag19
ag75
aS'variable_53'
p321
ag22
aS'if'
p322
ag6
aS'memcmp'
p323
ag6
aS'variable_21'
p324
aS'->'
p325
aS'variable_20'
p326
ag82
aS'variable_25'
p327
ag11
aS'variable_26'
p328
ag11
aS'variable_27'
p329
ag15
aS'!='
p330
ag20
ag15
aS'if'
p331
ag6
ag64
aS'func_9'
p332
ag6
ag103
aS'variable_21'
p333
aS'->'
p334
aS'variable_20'
p335
ag15
ag15
aS'variable_14'
p336
ag19
aS'func_10'
p337
ag6
aS'variable_1'
p338
ag15
ag22
aS'if'
p339
ag6
aS'variable_14'
p340
ag15
aS'variable_14'
p341
ag19
aS'func_11'
p342
ag6
aS'variable_1'
p343
ag11
aS'func_12'
p344
ag6
aS'variable_54'
p345
ag15
ag11
aS'variable_17'
p346
ag15
ag22
aS'if'
p347
ag6
aS'variable_14'
p348
ag135
ag20
ag15
aS'for'
p349
ag6
aS'variable_15'
p350
ag19
ag20
ag11
aS'variable_10'
p351
ag19
aS'variable_15'
p352
ag135
aS'variable_21'
p353
aS'->'
p354
aS'variable_19'
p355
ag82
aS'variable_35'
p356
ag22
aS'variable_15'
p357
aS'++'
p358
ag11
aS'variable_10'
p359
aS'++'
p360
ag15
aS'int'
p361
aS'variable_55'
p362
ag19
ag20
ag11
aS'variable_56'
p363
ag22
aS'unsigned'
p364
aS'long'
p365
aS'variable_57'
p366
ag11
aS'variable_58'
p367
ag22
aS'if'
p368
ag6
aS'variable_10'
p369
aS'->'
p370
aS'variable_38'
p371
aS'!='
p372
aS'variable_59'
p373
ag15
aS'if'
p374
ag6
aS'func_13'
p375
ag6
aS'variable_13'
p376
ag142
aS'variable_12'
p377
ag15
ag15
aS'variable_14'
p378
ag19
aS'func_14'
p379
ag6
aS'variable_12'
p380
aS'+'
p381
aS'variable_5'
p382
ag11
aS'variable_13'
p383
ag381
aS'variable_5'
p384
ag15
ag22
aS'if'
p385
ag6
aS'variable_14'
p386
ag15
aS'if'
p387
ag6
aS'variable_60'
p388
ag142
aS'variable_13'
p389
ag75
aS'variable_12'
p390
ag15
aS'variable_60'
p391
ag19
aS'variable_13'
p392
ag75
aS'variable_12'
p393
ag22
aS'if'
p394
ag6
aS'func_15'
p395
ag6
ag6
aS'void'
p396
aS'__user'
p397
ag9
ag15
aS'variable_12'
p398
ag381
aS'variable_5'
p399
ag11
aS'variable_60'
p400
ag15
ag15
aS'if'
p401
ag6
aS'variable_10'
p402
aS'->'
p403
aS'variable_49'
p404
ag103
aS'variable_61'
p405
ag15
aS'variable_55'
p406
ag267
ag19
aS'variable_62'
p407
ag22
aS'if'
p408
ag6
aS'variable_10'
p409
aS'->'
p410
aS'variable_49'
p411
ag103
aS'variable_63'
p412
ag15
aS'variable_55'
p413
ag267
ag19
aS'variable_64'
p414
ag22
aS'if'
p415
ag6
aS'variable_10'
p416
aS'->'
p417
aS'variable_49'
p418
ag103
aS'variable_50'
p419
ag15
aS'variable_55'
p420
ag267
ag19
aS'variable_65'
p421
ag22
aS'variable_56'
p422
ag19
aS'variable_66'
p423
ag267
aS'variable_67'
p424
ag267
aS'variable_68'
p425
ag22
aS'variable_58'
p426
ag19
aS'variable_10'
p427
aS'->'
p428
aS'variable_69'
p429
ag22
aS'if'
p430
ag6
aS'variable_21'
p431
aS'->'
p432
aS'variable_19'
p433
ag82
aS'variable_28'
p434
aS'=='
p435
aS'variable_29'
p436
aS'||'
p437
aS'variable_6'
p438
ag15
aS'variable_56'
p439
ag267
ag19
aS'variable_70'
p440
ag22
aS'if'
p441
ag6
aS'variable_21'
p442
aS'->'
p443
aS'variable_19'
p444
ag82
aS'variable_28'
p445
aS'=='
p446
aS'variable_30'
p447
ag15
aS'variable_5'
p448
ag19
ag20
ag22
aS'variable_8'
p449
ag19
aS'func_16'
p450
ag6
aS'variable_1'
p451
aS'->'
p452
aS'variable_31'
p453
ag11
aS'variable_5'
p454
ag381
aS'variable_58'
p455
ag11
aS'variable_10'
p456
ag11
aS'variable_55'
p457
ag11
aS'variable_56'
p458
ag11
ag20
ag15
ag22
aS'if'
p459
ag6
aS'func_17'
p460
ag6
aS'variable_8'
p461
ag15
ag15
aS'if'
p462
ag6
ag64
aS'variable_6'
p463
ag15
aS'variable_6'
p464
ag19
ag136
ag22
aS'if'
p465
ag6
aS'variable_21'
p466
aS'->'
p467
aS'variable_19'
p468
ag82
aS'variable_28'
p469
aS'=='
p470
aS'variable_30'
p471
ag15
aS'variable_5'
p472
aS'+='
p473
aS'variable_8'
p474
ag75
aS'func_18'
p475
ag6
aS'variable_5'
p476
ag381
aS'variable_58'
p477
ag15
ag22
aS'variable_57'
p478
ag19
aS'variable_10'
p479
aS'->'
p480
aS'variable_69'
p481
ag22
aS'if'
p482
ag6
aS'func_19'
p483
ag6
aS'variable_57'
p484
ag15
aS'||'
p485
aS'variable_10'
p486
aS'->'
p487
aS'variable_40'
p488
ag142
aS'variable_10'
p489
aS'->'
p490
aS'variable_71'
p491
aS'||'
p492
aS'variable_10'
p493
aS'->'
p494
aS'variable_71'
p495
ag142
aS'variable_72'
p496
aS'||'
p497
aS'variable_72'
p498
ag75
aS'variable_10'
p499
aS'->'
p500
aS'variable_71'
p501
ag135
aS'variable_57'
p502
ag15
aS'variable_57'
p503
ag19
aS'variable_10'
p504
aS'->'
p505
aS'variable_69'
p506
ag381
aS'variable_10'
p507
aS'->'
p508
aS'variable_40'
p509
ag22
aS'if'
p510
ag6
aS'variable_57'
p511
ag142
aS'variable_12'
p512
ag15
aS'variable_12'
p513
ag19
aS'variable_57'
p514
ag22
aS'variable_57'
p515
ag19
aS'variable_10'
p516
aS'->'
p517
aS'variable_69'
p518
ag381
aS'variable_10'
p519
aS'->'
p520
aS'variable_71'
p521
ag22
aS'if'
p522
ag6
aS'variable_57'
p523
ag142
aS'variable_13'
p524
ag15
aS'variable_13'
p525
ag19
aS'variable_57'
p526
ag22
aS'variable_13'
p527
aS'+='
p528
aS'variable_5'
p529
ag22
aS'variable_14'
p530
ag19
aS'func_20'
p531
ag6
aS'variable_12'
p532
ag11
aS'variable_13'
p533
ag15
ag22
aS'if'
p534
ag6
aS'variable_14'
p535
ag15
aS'if'
p536
ag6
aS'func_21'
p537
ag6
aS'variable_12'
p538
aS'!='
p539
aS'variable_13'
p540
ag15
aS'&&'
p541
aS'func_22'
p542
ag6
aS'func_23'
p543
ag6
aS'variable_12'
p544
ag15
ag15
ag15
aS'if'
p545
ag6
aS'variable_14'
p546
ag135
ag20
ag15
aS'if'
p547
ag6
aS'variable_14'
p548
ag135
ag20
ag15
aS'return'
p549
aS'variable_14'
p550
ag22
aa(lp551
S'static'
p552
aS'int'
p553
aS'func_0'
p554
ag6
aS'struct'
p555
aS'variable_0'
p556
ag9
aS'variable_1'
p557
ag11
aS'struct'
p558
aS'variable_2'
p559
ag9
aS'variable_3'
p560
ag15
aS'unsigned'
p561
aS'long'
p562
aS'variable_4'
p563
ag19
ag20
ag11
aS'variable_5'
p564
ag19
ag20
ag22
aS'int'
p565
aS'variable_6'
p566
ag19
ag20
ag22
aS'char'
p567
ag9
aS'variable_7'
p568
ag19
aS'NULL'
p569
ag22
aS'unsigned'
p570
aS'long'
p571
aS'variable_8'
p572
ag22
aS'struct'
p573
aS'variable_9'
p574
ag9
aS'variable_10'
p575
ag11
ag9
aS'variable_11'
p576
ag22
aS'unsigned'
p577
aS'long'
p578
aS'variable_12'
p579
ag11
aS'variable_13'
p580
ag22
aS'int'
p581
aS'variable_14'
p582
ag11
aS'variable_15'
p583
ag22
aS'unsigned'
p584
aS'int'
p585
aS'variable_16'
p586
ag22
aS'int'
p587
aS'variable_17'
p588
ag19
aS'variable_18'
p589
ag22
aS'struct'
p590
ag49
aS'struct'
p591
aS'elfhdr'
p592
aS'variable_19'
p593
ag22
aS'struct'
p594
aS'elfhdr'
p595
aS'variable_20'
p596
ag22
ag56
ag9
aS'variable_21'
p597
ag22
aS'variable_21'
p598
ag19
aS'kmalloc'
p599
ag6
aS'sizeof'
p600
ag6
ag9
aS'variable_21'
p601
ag15
ag11
aS'variable_22'
p602
ag15
ag22
aS'if'
p603
ag6
ag64
aS'variable_21'
p604
ag15
aS'variable_21'
p605
aS'->'
p606
aS'variable_19'
p607
ag19
ag9
ag6
ag6
aS'struct'
p608
aS'elfhdr'
p609
ag9
ag15
aS'variable_1'
p610
aS'->'
p611
aS'variable_23'
p612
ag15
ag22
aS'variable_14'
p613
ag19
ag75
aS'variable_24'
p614
ag22
aS'if'
p615
ag6
aS'memcmp'
p616
ag6
aS'variable_21'
p617
aS'->'
p618
aS'variable_19'
p619
ag82
aS'variable_25'
p620
ag11
aS'variable_26'
p621
ag11
aS'variable_27'
p622
ag15
aS'!='
p623
ag20
ag15
aS'if'
p624
ag6
aS'variable_21'
p625
aS'->'
p626
aS'variable_19'
p627
ag82
aS'variable_28'
p628
aS'!='
p629
aS'variable_29'
p630
aS'&&'
p631
aS'variable_21'
p632
aS'->'
p633
aS'variable_19'
p634
ag82
aS'variable_28'
p635
aS'!='
p636
aS'variable_30'
p637
ag15
aS'if'
p638
ag6
ag64
aS'func_1'
p639
ag6
ag103
aS'variable_21'
p640
aS'->'
p641
aS'variable_19'
p642
ag15
ag15
aS'if'
p643
ag6
ag64
aS'variable_1'
p644
aS'->'
p645
aS'variable_31'
p646
aS'->'
p647
aS'variable_32'
p648
aS'||'
p649
ag64
aS'variable_1'
p650
aS'->'
p651
aS'variable_31'
p652
aS'->'
p653
aS'variable_32'
p654
aS'->'
p655
aS'variable_33'
p656
ag15
aS'if'
p657
ag6
aS'variable_21'
p658
aS'->'
p659
aS'variable_19'
p660
ag82
aS'variable_34'
p661
aS'!='
p662
aS'sizeof'
p663
ag6
aS'struct'
p664
aS'variable_9'
p665
ag15
ag15
aS'if'
p666
ag6
aS'variable_21'
p667
aS'->'
p668
aS'variable_19'
p669
ag82
aS'variable_35'
p670
ag135
ag136
aS'||'
p671
aS'variable_21'
p672
aS'->'
p673
aS'variable_19'
p674
ag82
aS'variable_35'
p675
ag142
aS'65536U'
p676
ag144
aS'sizeof'
p677
ag6
aS'struct'
p678
aS'variable_9'
p679
ag15
ag15
aS'variable_16'
p680
ag19
aS'variable_21'
p681
aS'->'
p682
aS'variable_19'
p683
ag82
aS'variable_35'
p684
ag9
aS'sizeof'
p685
ag6
aS'struct'
p686
aS'variable_9'
p687
ag15
ag22
aS'variable_14'
p688
ag19
ag75
aS'variable_36'
p689
ag22
aS'variable_11'
p690
ag19
aS'kmalloc'
p691
ag6
aS'variable_16'
p692
ag11
aS'variable_22'
p693
ag15
ag22
aS'if'
p694
ag6
ag64
aS'variable_11'
p695
ag15
aS'variable_14'
p696
ag19
aS'func_2'
p697
ag6
aS'variable_1'
p698
aS'->'
p699
aS'variable_31'
p700
ag11
aS'variable_21'
p701
aS'->'
p702
aS'variable_19'
p703
ag82
aS'variable_37'
p704
ag11
ag6
aS'char'
p705
ag9
ag15
aS'variable_11'
p706
ag11
aS'variable_16'
p707
ag15
ag22
aS'if'
p708
ag6
aS'variable_14'
p709
aS'!='
p710
aS'variable_16'
p711
ag15
aS'variable_10'
p712
ag19
aS'variable_11'
p713
ag22
aS'variable_12'
p714
ag19
ag20
ag22
aS'variable_13'
p715
ag19
ag20
ag22
aS'for'
p716
ag6
aS'variable_15'
p717
ag19
ag20
ag22
aS'variable_15'
p718
ag135
aS'variable_21'
p719
aS'->'
p720
aS'variable_19'
p721
ag82
aS'variable_35'
p722
ag22
aS'variable_15'
p723
aS'++'
p724
ag15
aS'if'
p725
ag6
aS'variable_10'
p726
aS'->'
p727
aS'variable_38'
p728
aS'=='
p729
aS'variable_39'
p730
ag15
aS'variable_14'
p731
ag19
ag75
aS'variable_24'
p732
ag22
aS'if'
p733
ag6
aS'variable_10'
p734
aS'->'
p735
aS'variable_40'
p736
ag142
aS'variable_41'
p737
aS'||'
p738
aS'variable_10'
p739
aS'->'
p740
aS'variable_40'
p741
ag135
ag210
ag15
aS'variable_14'
p742
ag19
ag75
aS'variable_36'
p743
ag22
aS'variable_7'
p744
ag19
aS'kmalloc'
p745
ag6
aS'variable_10'
p746
aS'->'
p747
aS'variable_40'
p748
ag11
aS'variable_22'
p749
ag15
ag22
aS'if'
p750
ag6
ag64
aS'variable_7'
p751
ag15
aS'variable_14'
p752
ag19
aS'func_3'
p753
ag6
aS'variable_1'
p754
aS'->'
p755
aS'variable_31'
p756
ag11
aS'variable_10'
p757
aS'->'
p758
aS'variable_42'
p759
ag11
aS'variable_7'
p760
ag11
aS'variable_10'
p761
aS'->'
p762
aS'variable_40'
p763
ag15
ag22
aS'if'
p764
ag6
aS'variable_14'
p765
aS'!='
p766
aS'variable_10'
p767
aS'->'
p768
aS'variable_40'
p769
ag15
aS'variable_14'
p770
ag19
ag75
aS'variable_24'
p771
ag22
aS'if'
p772
ag6
aS'variable_7'
p773
ag243
aS'variable_10'
p774
aS'->'
p775
aS'variable_40'
p776
ag75
ag136
ag247
aS'!='
p777
ag249
ag250
ag20
ag249
ag15
aS'variable_43'
p778
ag19
aS'func_4'
p779
ag6
aS'variable_7'
p780
ag15
ag22
aS'variable_14'
p781
ag19
aS'func_5'
p782
ag6
aS'variable_43'
p783
ag15
ag22
aS'if'
p784
ag6
aS'func_6'
p785
ag6
aS'variable_43'
p786
ag15
ag15
aS'if'
p787
ag6
aS'func_7'
p788
ag6
aS'variable_43'
p789
ag11
aS'variable_44'
p790
ag15
ag135
ag20
ag15
aS'variable_1'
p791
aS'->'
p792
aS'variable_45'
p793
ag267
ag19
aS'variable_46'
p794
ag22
aS'variable_14'
p795
ag19
aS'func_8'
p796
ag6
aS'variable_43'
p797
ag11
ag20
ag11
aS'variable_1'
p798
aS'->'
p799
aS'variable_23'
p800
ag11
aS'variable_47'
p801
ag15
ag22
aS'if'
p802
ag6
aS'variable_14'
p803
aS'!='
p804
aS'variable_47'
p805
ag15
aS'variable_21'
p806
aS'->'
p807
aS'variable_20'
p808
ag19
ag9
ag6
ag6
aS'struct'
p809
aS'elfhdr'
p810
ag9
ag15
aS'variable_1'
p811
aS'->'
p812
aS'variable_23'
p813
ag15
ag22
aS'variable_10'
p814
aS'++'
p815
ag22
aS'variable_10'
p816
ag19
aS'variable_11'
p817
ag22
aS'for'
p818
ag6
aS'variable_15'
p819
ag19
ag20
ag22
aS'variable_15'
p820
ag135
aS'variable_21'
p821
aS'->'
p822
aS'variable_19'
p823
ag82
aS'variable_35'
p824
ag22
aS'variable_15'
p825
aS'++'
p826
ag11
aS'variable_10'
p827
aS'++'
p828
ag15
aS'if'
p829
ag6
aS'variable_10'
p830
aS'->'
p831
aS'variable_38'
p832
aS'=='
p833
aS'variable_48'
p834
ag15
aS'if'
p835
ag6
aS'variable_10'
p836
aS'->'
p837
aS'variable_49'
p838
ag103
aS'variable_50'
p839
ag15
aS'variable_17'
p840
ag19
aS'variable_51'
p841
ag22
aS'variable_17'
p842
ag19
aS'variable_52'
p843
ag22
aS'if'
p844
ag6
aS'variable_7'
p845
ag15
aS'variable_14'
p846
ag19
ag75
aS'variable_53'
p847
ag22
aS'if'
p848
ag6
aS'memcmp'
p849
ag6
aS'variable_21'
p850
aS'->'
p851
aS'variable_20'
p852
ag82
aS'variable_25'
p853
ag11
aS'variable_26'
p854
ag11
aS'variable_27'
p855
ag15
aS'!='
p856
ag20
ag15
aS'if'
p857
ag6
ag64
aS'func_9'
p858
ag6
ag103
aS'variable_21'
p859
aS'->'
p860
aS'variable_20'
p861
ag15
ag15
aS'variable_14'
p862
ag19
aS'func_10'
p863
ag6
aS'variable_1'
p864
ag15
ag22
aS'if'
p865
ag6
aS'variable_14'
p866
ag15
aS'variable_14'
p867
ag19
aS'func_11'
p868
ag6
aS'variable_1'
p869
ag11
aS'func_12'
p870
ag6
aS'variable_54'
p871
ag15
ag11
aS'variable_17'
p872
ag15
ag22
aS'if'
p873
ag6
aS'variable_14'
p874
ag135
ag20
ag15
aS'for'
p875
ag6
aS'variable_15'
p876
ag19
ag20
ag11
aS'variable_10'
p877
ag19
aS'variable_15'
p878
ag135
aS'variable_21'
p879
aS'->'
p880
aS'variable_19'
p881
ag82
aS'variable_35'
p882
ag22
aS'variable_15'
p883
aS'++'
p884
ag11
aS'variable_10'
p885
aS'++'
p886
ag15
aS'int'
p887
aS'variable_55'
p888
ag19
ag20
ag11
aS'variable_56'
p889
ag22
aS'unsigned'
p890
aS'long'
p891
aS'variable_57'
p892
ag11
aS'variable_58'
p893
ag22
aS'if'
p894
ag6
aS'variable_10'
p895
aS'->'
p896
aS'variable_38'
p897
aS'!='
p898
aS'variable_59'
p899
ag15
aS'if'
p900
ag6
aS'func_13'
p901
ag6
aS'variable_13'
p902
ag142
aS'variable_12'
p903
ag15
ag15
aS'variable_14'
p904
ag19
aS'func_14'
p905
ag6
aS'variable_12'
p906
ag381
aS'variable_5'
p907
ag11
aS'variable_13'
p908
ag381
aS'variable_5'
p909
ag15
ag22
aS'if'
p910
ag6
aS'variable_14'
p911
ag15
aS'variable_60'
p912
ag19
aS'func_15'
p913
ag6
aS'variable_12'
p914
ag15
ag22
aS'if'
p915
ag6
aS'variable_60'
p916
ag15
aS'variable_60'
p917
ag19
aS'variable_61'
p918
ag75
aS'variable_60'
p919
ag22
aS'if'
p920
ag6
aS'variable_60'
p921
ag142
aS'variable_13'
p922
ag75
aS'variable_12'
p923
ag15
aS'variable_60'
p924
ag19
aS'variable_13'
p925
ag75
aS'variable_12'
p926
ag22
aS'if'
p927
ag6
aS'func_16'
p928
ag6
ag6
aS'void'
p929
aS'__user'
p930
ag9
ag15
aS'variable_12'
p931
ag381
aS'variable_5'
p932
ag11
aS'variable_60'
p933
ag15
ag15
aS'if'
p934
ag6
aS'variable_10'
p935
aS'->'
p936
aS'variable_49'
p937
ag103
aS'variable_62'
p938
ag15
aS'variable_55'
p939
ag267
ag19
aS'variable_63'
p940
ag22
aS'if'
p941
ag6
aS'variable_10'
p942
aS'->'
p943
aS'variable_49'
p944
ag103
aS'variable_64'
p945
ag15
aS'variable_55'
p946
ag267
ag19
aS'variable_65'
p947
ag22
aS'if'
p948
ag6
aS'variable_10'
p949
aS'->'
p950
aS'variable_49'
p951
ag103
aS'variable_50'
p952
ag15
aS'variable_55'
p953
ag267
ag19
aS'variable_66'
p954
ag22
aS'variable_56'
p955
ag19
aS'variable_67'
p956
ag267
aS'variable_68'
p957
ag267
aS'variable_69'
p958
ag22
aS'variable_58'
p959
ag19
aS'variable_10'
p960
aS'->'
p961
aS'variable_70'
p962
ag22
aS'if'
p963
ag6
aS'variable_21'
p964
aS'->'
p965
aS'variable_19'
p966
ag82
aS'variable_28'
p967
aS'=='
p968
aS'variable_29'
p969
aS'||'
p970
aS'variable_6'
p971
ag15
aS'variable_56'
p972
ag267
ag19
aS'variable_71'
p973
ag22
aS'if'
p974
ag6
aS'variable_21'
p975
aS'->'
p976
aS'variable_19'
p977
ag82
aS'variable_28'
p978
aS'=='
p979
aS'variable_30'
p980
ag15
aS'variable_5'
p981
ag19
ag20
ag22
aS'variable_8'
p982
ag19
aS'func_17'
p983
ag6
aS'variable_1'
p984
aS'->'
p985
aS'variable_31'
p986
ag11
aS'variable_5'
p987
ag381
aS'variable_58'
p988
ag11
aS'variable_10'
p989
ag11
aS'variable_55'
p990
ag11
aS'variable_56'
p991
ag11
ag20
ag15
ag22
aS'if'
p992
ag6
aS'func_18'
p993
ag6
aS'variable_8'
p994
ag15
ag15
aS'if'
p995
ag6
ag64
aS'variable_6'
p996
ag15
aS'variable_6'
p997
ag19
ag136
ag22
aS'if'
p998
ag6
aS'variable_21'
p999
aS'->'
p1000
aS'variable_19'
p1001
ag82
aS'variable_28'
p1002
aS'=='
p1003
aS'variable_30'
p1004
ag15
aS'variable_5'
p1005
aS'+='
p1006
aS'variable_8'
p1007
ag75
aS'func_19'
p1008
ag6
aS'variable_5'
p1009
ag381
aS'variable_58'
p1010
ag15
ag22
aS'variable_57'
p1011
ag19
aS'variable_10'
p1012
aS'->'
p1013
aS'variable_70'
p1014
ag22
aS'if'
p1015
ag6
aS'func_20'
p1016
ag6
aS'variable_57'
p1017
ag15
aS'||'
p1018
aS'variable_10'
p1019
aS'->'
p1020
aS'variable_40'
p1021
ag142
aS'variable_10'
p1022
aS'->'
p1023
aS'variable_72'
p1024
aS'||'
p1025
aS'variable_10'
p1026
aS'->'
p1027
aS'variable_72'
p1028
ag142
aS'variable_73'
p1029
aS'||'
p1030
aS'variable_73'
p1031
ag75
aS'variable_10'
p1032
aS'->'
p1033
aS'variable_72'
p1034
ag135
aS'variable_57'
p1035
ag15
aS'variable_57'
p1036
ag19
aS'variable_10'
p1037
aS'->'
p1038
aS'variable_70'
p1039
ag381
aS'variable_10'
p1040
aS'->'
p1041
aS'variable_40'
p1042
ag22
aS'if'
p1043
ag6
aS'variable_57'
p1044
ag142
aS'variable_12'
p1045
ag15
aS'variable_12'
p1046
ag19
aS'variable_57'
p1047
ag22
aS'if'
p1048
ag6
ag6
aS'variable_10'
p1049
aS'->'
p1050
aS'variable_49'
p1051
ag103
aS'variable_50'
p1052
ag15
aS'&&'
p1053
aS'variable_74'
p1054
ag135
aS'variable_57'
p1055
ag15
aS'variable_74'
p1056
ag19
aS'variable_57'
p1057
ag22
aS'if'
p1058
ag6
aS'variable_75'
p1059
ag135
aS'variable_57'
p1060
ag15
aS'variable_75'
p1061
ag19
aS'variable_57'
p1062
ag22
aS'variable_57'
p1063
ag19
aS'variable_10'
p1064
aS'->'
p1065
aS'variable_70'
p1066
ag381
aS'variable_10'
p1067
aS'->'
p1068
aS'variable_72'
p1069
ag22
aS'if'
p1070
ag6
aS'variable_57'
p1071
ag142
aS'variable_13'
p1072
ag15
aS'variable_13'
p1073
ag19
aS'variable_57'
p1074
ag22
aS'variable_12'
p1075
aS'+='
p1076
aS'variable_5'
p1077
ag22
aS'variable_13'
p1078
aS'+='
p1079
aS'variable_5'
p1080
ag22
aS'variable_74'
p1081
aS'+='
p1082
aS'variable_5'
p1083
ag22
aS'variable_75'
p1084
aS'+='
p1085
aS'variable_5'
p1086
ag22
aS'variable_14'
p1087
ag19
aS'func_21'
p1088
ag6
aS'variable_12'
p1089
ag11
aS'variable_13'
p1090
ag15
ag22
aS'if'
p1091
ag6
aS'variable_14'
p1092
ag15
aS'if'
p1093
ag6
aS'func_22'
p1094
ag6
aS'variable_12'
p1095
aS'!='
p1096
aS'variable_13'
p1097
ag15
aS'&&'
p1098
aS'func_23'
p1099
ag6
aS'func_24'
p1100
ag6
aS'variable_12'
p1101
ag15
ag15
ag15
aS'if'
p1102
ag6
aS'variable_14'
p1103
ag135
ag20
ag15
aS'if'
p1104
ag6
aS'variable_14'
p1105
ag135
ag20
ag15
aS'variable_76'
p1106
aS'->'
p1107
aS'variable_77'
p1108
aS'->'
p1109
aS'variable_74'
p1110
ag19
aS'variable_74'
p1111
ag22
aS'variable_76'
p1112
aS'->'
p1113
aS'variable_77'
p1114
aS'->'
p1115
aS'variable_78'
p1116
ag19
aS'variable_78'
p1117
ag22
aS'variable_76'
p1118
aS'->'
p1119
aS'variable_77'
p1120
aS'->'
p1121
aS'variable_79'
p1122
ag19
aS'variable_79'
p1123
ag22
aS'variable_76'
p1124
aS'->'
p1125
aS'variable_77'
p1126
aS'->'
p1127
aS'variable_75'
p1128
ag19
aS'variable_75'
p1129
ag22
aS'variable_76'
p1130
aS'->'
p1131
aS'variable_77'
p1132
aS'->'
p1133
aS'variable_80'
p1134
ag19
aS'variable_1'
p1135
aS'->'
p1136
aS'variable_81'
p1137
ag22
aS'if'
p1138
ag6
ag6
aS'variable_76'
p1139
aS'->'
p1140
aS'variable_82'
p1141
ag103
aS'variable_83'
p1142
ag15
aS'&&'
p1143
ag6
aS'variable_84'
p1144
ag142
ag136
ag15
ag15
aS'variable_76'
p1145
aS'->'
p1146
aS'variable_77'
p1147
aS'->'
p1148
aS'variable_85'
p1149
ag19
aS'variable_76'
p1150
aS'->'
p1151
aS'variable_77'
p1152
aS'->'
p1153
aS'variable_86'
p1154
ag19
aS'func_25'
p1155
ag6
aS'variable_76'
p1156
aS'->'
p1157
aS'variable_77'
p1158
ag15
ag22
aS'if'
p1159
ag6
aS'variable_76'
p1160
aS'->'
p1161
aS'variable_87'
p1162
ag103
aS'variable_88'
p1163
ag15
aS'func_26'
p1164
ag6
ag103
aS'variable_76'
p1165
aS'->'
p1166
aS'variable_77'
p1167
aS'->'
p1168
aS'variable_89'
p1169
ag15
ag22
aS'func_27'
p1170
ag6
ag103
aS'variable_76'
p1171
aS'->'
p1172
aS'variable_77'
p1173
aS'->'
p1174
aS'variable_89'
p1175
ag15
ag22
aS'return'
p1176
aS'variable_14'
p1177
ag22
aa(lp1178
S'static'
p1179
aS'int'
p1180
aS'func_0'
p1181
ag6
aS'struct'
p1182
aS'variable_0'
p1183
ag9
aS'variable_1'
p1184
ag11
aS'struct'
p1185
aS'variable_2'
p1186
ag9
aS'variable_3'
p1187
ag15
aS'unsigned'
p1188
aS'long'
p1189
aS'variable_4'
p1190
ag19
ag20
ag11
aS'variable_5'
p1191
ag19
ag20
ag22
aS'int'
p1192
aS'variable_6'
p1193
ag19
ag20
ag22
aS'char'
p1194
ag9
aS'variable_7'
p1195
ag19
aS'NULL'
p1196
ag22
aS'unsigned'
p1197
aS'long'
p1198
aS'variable_8'
p1199
ag22
aS'struct'
p1200
aS'variable_9'
p1201
ag9
aS'variable_10'
p1202
ag11
ag9
aS'variable_11'
p1203
ag22
aS'unsigned'
p1204
aS'long'
p1205
aS'variable_12'
p1206
ag11
aS'variable_13'
p1207
ag22
aS'int'
p1208
aS'variable_14'
p1209
ag11
aS'variable_15'
p1210
ag22
aS'unsigned'
p1211
aS'int'
p1212
aS'variable_16'
p1213
ag22
aS'int'
p1214
aS'variable_17'
p1215
ag19
aS'variable_18'
p1216
ag22
aS'struct'
p1217
ag49
aS'struct'
p1218
aS'elfhdr'
p1219
aS'variable_19'
p1220
ag22
aS'struct'
p1221
aS'elfhdr'
p1222
aS'variable_20'
p1223
ag22
ag56
ag9
aS'variable_21'
p1224
ag22
aS'variable_21'
p1225
ag19
aS'kmalloc'
p1226
ag6
aS'sizeof'
p1227
ag6
ag9
aS'variable_21'
p1228
ag15
ag11
aS'variable_22'
p1229
ag15
ag22
aS'if'
p1230
ag6
ag64
aS'variable_21'
p1231
ag15
aS'variable_21'
p1232
aS'->'
p1233
aS'variable_19'
p1234
ag19
ag9
ag6
ag6
aS'struct'
p1235
aS'elfhdr'
p1236
ag9
ag15
aS'variable_1'
p1237
aS'->'
p1238
aS'variable_23'
p1239
ag15
ag22
aS'variable_14'
p1240
ag19
ag75
aS'variable_24'
p1241
ag22
aS'if'
p1242
ag6
aS'memcmp'
p1243
ag6
aS'variable_21'
p1244
aS'->'
p1245
aS'variable_19'
p1246
ag82
aS'variable_25'
p1247
ag11
aS'variable_26'
p1248
ag11
aS'variable_27'
p1249
ag15
aS'!='
p1250
ag20
ag15
aS'if'
p1251
ag6
aS'variable_21'
p1252
aS'->'
p1253
aS'variable_19'
p1254
ag82
aS'variable_28'
p1255
aS'!='
p1256
aS'variable_29'
p1257
aS'&&'
p1258
aS'variable_21'
p1259
aS'->'
p1260
aS'variable_19'
p1261
ag82
aS'variable_28'
p1262
aS'!='
p1263
aS'variable_30'
p1264
ag15
aS'if'
p1265
ag6
ag64
aS'func_1'
p1266
ag6
ag103
aS'variable_21'
p1267
aS'->'
p1268
aS'variable_19'
p1269
ag15
ag15
aS'if'
p1270
ag6
ag64
aS'variable_1'
p1271
aS'->'
p1272
aS'variable_31'
p1273
aS'->'
p1274
aS'variable_32'
p1275
aS'||'
p1276
ag64
aS'variable_1'
p1277
aS'->'
p1278
aS'variable_31'
p1279
aS'->'
p1280
aS'variable_32'
p1281
aS'->'
p1282
aS'variable_33'
p1283
ag15
aS'if'
p1284
ag6
aS'variable_21'
p1285
aS'->'
p1286
aS'variable_19'
p1287
ag82
aS'variable_34'
p1288
aS'!='
p1289
aS'sizeof'
p1290
ag6
aS'struct'
p1291
aS'variable_9'
p1292
ag15
ag15
aS'if'
p1293
ag6
aS'variable_21'
p1294
aS'->'
p1295
aS'variable_19'
p1296
ag82
aS'variable_35'
p1297
ag135
ag136
aS'||'
p1298
aS'variable_21'
p1299
aS'->'
p1300
aS'variable_19'
p1301
ag82
aS'variable_35'
p1302
ag142
aS'65536U'
p1303
ag144
aS'sizeof'
p1304
ag6
aS'struct'
p1305
aS'variable_9'
p1306
ag15
ag15
aS'variable_16'
p1307
ag19
aS'variable_21'
p1308
aS'->'
p1309
aS'variable_19'
p1310
ag82
aS'variable_35'
p1311
ag9
aS'sizeof'
p1312
ag6
aS'struct'
p1313
aS'variable_9'
p1314
ag15
ag22
aS'variable_14'
p1315
ag19
ag75
aS'variable_36'
p1316
ag22
aS'variable_11'
p1317
ag19
aS'kmalloc'
p1318
ag6
aS'variable_16'
p1319
ag11
aS'variable_22'
p1320
ag15
ag22
aS'if'
p1321
ag6
ag64
aS'variable_11'
p1322
ag15
aS'variable_14'
p1323
ag19
aS'func_2'
p1324
ag6
aS'variable_1'
p1325
aS'->'
p1326
aS'variable_31'
p1327
ag11
aS'variable_21'
p1328
aS'->'
p1329
aS'variable_19'
p1330
ag82
aS'variable_37'
p1331
ag11
ag6
aS'char'
p1332
ag9
ag15
aS'variable_11'
p1333
ag11
aS'variable_16'
p1334
ag15
ag22
aS'if'
p1335
ag6
aS'variable_14'
p1336
aS'!='
p1337
aS'variable_16'
p1338
ag15
aS'variable_10'
p1339
ag19
aS'variable_11'
p1340
ag22
aS'variable_12'
p1341
ag19
ag20
ag22
aS'variable_13'
p1342
ag19
ag20
ag22
aS'for'
p1343
ag6
aS'variable_15'
p1344
ag19
ag20
ag22
aS'variable_15'
p1345
ag135
aS'variable_21'
p1346
aS'->'
p1347
aS'variable_19'
p1348
ag82
aS'variable_35'
p1349
ag22
aS'variable_15'
p1350
aS'++'
p1351
ag15
aS'if'
p1352
ag6
aS'variable_10'
p1353
aS'->'
p1354
aS'variable_38'
p1355
aS'=='
p1356
aS'variable_39'
p1357
ag15
aS'variable_14'
p1358
ag19
ag75
aS'variable_24'
p1359
ag22
aS'if'
p1360
ag6
aS'variable_10'
p1361
aS'->'
p1362
aS'variable_40'
p1363
ag142
aS'variable_41'
p1364
aS'||'
p1365
aS'variable_10'
p1366
aS'->'
p1367
aS'variable_40'
p1368
ag135
ag210
ag15
aS'variable_14'
p1369
ag19
ag75
aS'variable_36'
p1370
ag22
aS'variable_7'
p1371
ag19
aS'kmalloc'
p1372
ag6
aS'variable_10'
p1373
aS'->'
p1374
aS'variable_40'
p1375
ag11
aS'variable_22'
p1376
ag15
ag22
aS'if'
p1377
ag6
ag64
aS'variable_7'
p1378
ag15
aS'variable_14'
p1379
ag19
aS'func_3'
p1380
ag6
aS'variable_1'
p1381
aS'->'
p1382
aS'variable_31'
p1383
ag11
aS'variable_10'
p1384
aS'->'
p1385
aS'variable_42'
p1386
ag11
aS'variable_7'
p1387
ag11
aS'variable_10'
p1388
aS'->'
p1389
aS'variable_40'
p1390
ag15
ag22
aS'if'
p1391
ag6
aS'variable_14'
p1392
aS'!='
p1393
aS'variable_10'
p1394
aS'->'
p1395
aS'variable_40'
p1396
ag15
aS'variable_14'
p1397
ag19
ag75
aS'variable_24'
p1398
ag22
aS'if'
p1399
ag6
aS'variable_7'
p1400
ag243
aS'variable_10'
p1401
aS'->'
p1402
aS'variable_40'
p1403
ag75
ag136
ag247
aS'!='
p1404
ag249
ag250
ag20
ag249
ag15
aS'variable_43'
p1405
ag19
aS'func_4'
p1406
ag6
aS'variable_7'
p1407
ag15
ag22
aS'variable_14'
p1408
ag19
aS'func_5'
p1409
ag6
aS'variable_43'
p1410
ag15
ag22
aS'if'
p1411
ag6
aS'func_6'
p1412
ag6
aS'variable_43'
p1413
ag15
ag15
aS'if'
p1414
ag6
aS'func_7'
p1415
ag6
aS'variable_43'
p1416
ag11
aS'variable_44'
p1417
ag15
ag135
ag20
ag15
aS'variable_1'
p1418
aS'->'
p1419
aS'variable_45'
p1420
ag267
ag19
aS'variable_46'
p1421
ag22
aS'variable_14'
p1422
ag19
aS'func_8'
p1423
ag6
aS'variable_43'
p1424
ag11
ag20
ag11
aS'variable_1'
p1425
aS'->'
p1426
aS'variable_23'
p1427
ag11
aS'variable_47'
p1428
ag15
ag22
aS'if'
p1429
ag6
aS'variable_14'
p1430
aS'!='
p1431
aS'variable_47'
p1432
ag15
aS'variable_21'
p1433
aS'->'
p1434
aS'variable_20'
p1435
ag19
ag9
ag6
ag6
aS'struct'
p1436
aS'elfhdr'
p1437
ag9
ag15
aS'variable_1'
p1438
aS'->'
p1439
aS'variable_23'
p1440
ag15
ag22
aS'variable_10'
p1441
aS'++'
p1442
ag22
aS'variable_10'
p1443
ag19
aS'variable_11'
p1444
ag22
aS'for'
p1445
ag6
aS'variable_15'
p1446
ag19
ag20
ag22
aS'variable_15'
p1447
ag135
aS'variable_21'
p1448
aS'->'
p1449
aS'variable_19'
p1450
ag82
aS'variable_35'
p1451
ag22
aS'variable_15'
p1452
aS'++'
p1453
ag11
aS'variable_10'
p1454
aS'++'
p1455
ag15
aS'if'
p1456
ag6
aS'variable_10'
p1457
aS'->'
p1458
aS'variable_38'
p1459
aS'=='
p1460
aS'variable_48'
p1461
ag15
aS'if'
p1462
ag6
aS'variable_10'
p1463
aS'->'
p1464
aS'variable_49'
p1465
ag103
aS'variable_50'
p1466
ag15
aS'variable_17'
p1467
ag19
aS'variable_51'
p1468
ag22
aS'variable_17'
p1469
ag19
aS'variable_52'
p1470
ag22
aS'if'
p1471
ag6
aS'variable_7'
p1472
ag15
aS'variable_14'
p1473
ag19
ag75
aS'variable_53'
p1474
ag22
aS'if'
p1475
ag6
aS'memcmp'
p1476
ag6
aS'variable_21'
p1477
aS'->'
p1478
aS'variable_20'
p1479
ag82
aS'variable_25'
p1480
ag11
aS'variable_26'
p1481
ag11
aS'variable_27'
p1482
ag15
aS'!='
p1483
ag20
ag15
aS'if'
p1484
ag6
ag64
aS'func_9'
p1485
ag6
ag103
aS'variable_21'
p1486
aS'->'
p1487
aS'variable_20'
p1488
ag15
ag15
aS'variable_14'
p1489
ag19
aS'func_10'
p1490
ag6
aS'variable_1'
p1491
ag15
ag22
aS'if'
p1492
ag6
aS'variable_14'
p1493
ag15
aS'variable_14'
p1494
ag19
aS'func_11'
p1495
ag6
aS'variable_1'
p1496
ag11
aS'func_12'
p1497
ag6
aS'variable_54'
p1498
ag15
ag11
aS'variable_17'
p1499
ag15
ag22
aS'if'
p1500
ag6
aS'variable_14'
p1501
ag135
ag20
ag15
aS'for'
p1502
ag6
aS'variable_15'
p1503
ag19
ag20
ag11
aS'variable_10'
p1504
ag19
aS'variable_15'
p1505
ag135
aS'variable_21'
p1506
aS'->'
p1507
aS'variable_19'
p1508
ag82
aS'variable_35'
p1509
ag22
aS'variable_15'
p1510
aS'++'
p1511
ag11
aS'variable_10'
p1512
aS'++'
p1513
ag15
aS'int'
p1514
aS'variable_55'
p1515
ag19
ag20
ag11
aS'variable_56'
p1516
ag22
aS'unsigned'
p1517
aS'long'
p1518
aS'variable_57'
p1519
ag11
aS'variable_58'
p1520
ag22
aS'if'
p1521
ag6
aS'variable_10'
p1522
aS'->'
p1523
aS'variable_38'
p1524
aS'!='
p1525
aS'variable_59'
p1526
ag15
aS'if'
p1527
ag6
aS'func_13'
p1528
ag6
aS'variable_13'
p1529
ag142
aS'variable_12'
p1530
ag15
ag15
aS'variable_14'
p1531
ag19
aS'func_14'
p1532
ag6
aS'variable_12'
p1533
ag381
aS'variable_5'
p1534
ag11
aS'variable_13'
p1535
ag381
aS'variable_5'
p1536
ag15
ag22
aS'if'
p1537
ag6
aS'variable_14'
p1538
ag15
aS'if'
p1539
ag6
aS'variable_10'
p1540
aS'->'
p1541
aS'variable_49'
p1542
ag103
aS'variable_60'
p1543
ag15
aS'variable_55'
p1544
ag267
ag19
aS'variable_61'
p1545
ag22
aS'if'
p1546
ag6
aS'variable_10'
p1547
aS'->'
p1548
aS'variable_49'
p1549
ag103
aS'variable_62'
p1550
ag15
aS'variable_55'
p1551
ag267
ag19
aS'variable_63'
p1552
ag22
aS'if'
p1553
ag6
aS'variable_10'
p1554
aS'->'
p1555
aS'variable_49'
p1556
ag103
aS'variable_50'
p1557
ag15
aS'variable_55'
p1558
ag267
ag19
aS'variable_64'
p1559
ag22
aS'variable_56'
p1560
ag19
aS'variable_65'
p1561
ag267
aS'variable_66'
p1562
ag267
aS'variable_67'
p1563
ag22
aS'variable_58'
p1564
ag19
aS'variable_10'
p1565
aS'->'
p1566
aS'variable_68'
p1567
ag22
aS'if'
p1568
ag6
aS'variable_21'
p1569
aS'->'
p1570
aS'variable_19'
p1571
ag82
aS'variable_28'
p1572
aS'=='
p1573
aS'variable_29'
p1574
aS'||'
p1575
aS'variable_6'
p1576
ag15
aS'variable_56'
p1577
ag267
ag19
aS'variable_69'
p1578
ag22
aS'if'
p1579
ag6
aS'variable_21'
p1580
aS'->'
p1581
aS'variable_19'
p1582
ag82
aS'variable_28'
p1583
aS'=='
p1584
aS'variable_30'
p1585
ag15
aS'variable_5'
p1586
ag19
ag20
ag22
aS'variable_8'
p1587
ag19
aS'func_15'
p1588
ag6
aS'variable_1'
p1589
aS'->'
p1590
aS'variable_31'
p1591
ag11
aS'variable_5'
p1592
ag381
aS'variable_58'
p1593
ag11
aS'variable_10'
p1594
ag11
aS'variable_55'
p1595
ag11
aS'variable_56'
p1596
ag11
ag20
ag15
ag22
aS'if'
p1597
ag6
aS'func_16'
p1598
ag6
aS'variable_8'
p1599
ag15
ag15
aS'if'
p1600
ag6
ag64
aS'variable_6'
p1601
ag15
aS'variable_6'
p1602
ag19
ag136
ag22
aS'variable_4'
p1603
ag19
ag6
aS'variable_10'
p1604
aS'->'
p1605
aS'variable_68'
p1606
ag75
aS'variable_10'
p1607
aS'->'
p1608
aS'variable_42'
p1609
ag15
ag22
aS'if'
p1610
ag6
aS'variable_21'
p1611
aS'->'
p1612
aS'variable_19'
p1613
ag82
aS'variable_28'
p1614
aS'=='
p1615
aS'variable_30'
p1616
ag15
aS'variable_5'
p1617
aS'+='
p1618
aS'variable_8'
p1619
ag75
aS'func_17'
p1620
ag6
aS'variable_5'
p1621
ag381
aS'variable_58'
p1622
ag15
ag22
aS'variable_4'
p1623
aS'+='
p1624
aS'variable_5'
p1625
ag22
aS'variable_57'
p1626
ag19
aS'variable_10'
p1627
aS'->'
p1628
aS'variable_68'
p1629
ag22
aS'if'
p1630
ag6
aS'func_18'
p1631
ag6
aS'variable_57'
p1632
ag15
aS'||'
p1633
aS'variable_10'
p1634
aS'->'
p1635
aS'variable_40'
p1636
ag142
aS'variable_10'
p1637
aS'->'
p1638
aS'variable_70'
p1639
aS'||'
p1640
aS'variable_10'
p1641
aS'->'
p1642
aS'variable_70'
p1643
ag142
aS'variable_71'
p1644
aS'||'
p1645
aS'variable_71'
p1646
ag75
aS'variable_10'
p1647
aS'->'
p1648
aS'variable_70'
p1649
ag135
aS'variable_57'
p1650
ag15
aS'variable_57'
p1651
ag19
aS'variable_10'
p1652
aS'->'
p1653
aS'variable_68'
p1654
ag381
aS'variable_10'
p1655
aS'->'
p1656
aS'variable_40'
p1657
ag22
aS'if'
p1658
ag6
aS'variable_57'
p1659
ag142
aS'variable_12'
p1660
ag15
aS'variable_12'
p1661
ag19
aS'variable_57'
p1662
ag22
aS'variable_57'
p1663
ag19
aS'variable_10'
p1664
aS'->'
p1665
aS'variable_68'
p1666
ag381
aS'variable_10'
p1667
aS'->'
p1668
aS'variable_70'
p1669
ag22
aS'if'
p1670
ag6
aS'variable_57'
p1671
ag142
aS'variable_13'
p1672
ag15
aS'variable_13'
p1673
ag19
aS'variable_57'
p1674
ag22
aS'variable_14'
p1675
ag19
aS'func_19'
p1676
ag6
aS'variable_1'
p1677
ag11
ag103
aS'variable_21'
p1678
aS'->'
p1679
aS'variable_19'
p1680
ag11
aS'variable_4'
p1681
ag11
aS'variable_72'
p1682
ag15
ag22
aS'if'
p1683
ag6
aS'variable_14'
p1684
ag135
ag20
ag15
aS'return'
p1685
aS'variable_14'
p1686
ag22
aa(lp1687
S'static'
p1688
aS'int'
p1689
aS'func_0'
p1690
ag6
aS'struct'
p1691
aS'variable_0'
p1692
ag9
aS'variable_1'
p1693
ag11
aS'struct'
p1694
aS'variable_2'
p1695
ag9
aS'variable_3'
p1696
ag15
aS'unsigned'
p1697
aS'long'
p1698
aS'variable_4'
p1699
ag19
ag20
ag11
aS'variable_5'
p1700
ag19
ag20
ag22
aS'int'
p1701
aS'variable_6'
p1702
ag19
ag20
ag22
aS'char'
p1703
ag9
aS'variable_7'
p1704
ag19
aS'NULL'
p1705
ag22
aS'unsigned'
p1706
aS'long'
p1707
aS'variable_8'
p1708
ag22
aS'struct'
p1709
aS'variable_9'
p1710
ag9
aS'variable_10'
p1711
ag11
ag9
aS'variable_11'
p1712
ag22
aS'unsigned'
p1713
aS'long'
p1714
aS'variable_12'
p1715
ag11
aS'variable_13'
p1716
ag22
aS'int'
p1717
aS'variable_14'
p1718
ag11
aS'variable_15'
p1719
ag22
aS'unsigned'
p1720
aS'int'
p1721
aS'variable_16'
p1722
ag22
aS'int'
p1723
aS'variable_17'
p1724
ag19
aS'variable_18'
p1725
ag22
aS'struct'
p1726
ag49
aS'struct'
p1727
aS'elfhdr'
p1728
aS'variable_19'
p1729
ag22
aS'struct'
p1730
aS'elfhdr'
p1731
aS'variable_20'
p1732
ag22
ag56
ag9
aS'variable_21'
p1733
ag22
aS'variable_21'
p1734
ag19
aS'kmalloc'
p1735
ag6
aS'sizeof'
p1736
ag6
ag9
aS'variable_21'
p1737
ag15
ag11
aS'variable_22'
p1738
ag15
ag22
aS'if'
p1739
ag6
ag64
aS'variable_21'
p1740
ag15
aS'variable_21'
p1741
aS'->'
p1742
aS'variable_19'
p1743
ag19
ag9
ag6
ag6
aS'struct'
p1744
aS'elfhdr'
p1745
ag9
ag15
aS'variable_1'
p1746
aS'->'
p1747
aS'variable_23'
p1748
ag15
ag22
aS'variable_14'
p1749
ag19
ag75
aS'variable_24'
p1750
ag22
aS'if'
p1751
ag6
aS'memcmp'
p1752
ag6
aS'variable_21'
p1753
aS'->'
p1754
aS'variable_19'
p1755
ag82
aS'variable_25'
p1756
ag11
aS'variable_26'
p1757
ag11
aS'variable_27'
p1758
ag15
aS'!='
p1759
ag20
ag15
aS'if'
p1760
ag6
aS'variable_21'
p1761
aS'->'
p1762
aS'variable_19'
p1763
ag82
aS'variable_28'
p1764
aS'!='
p1765
aS'variable_29'
p1766
aS'&&'
p1767
aS'variable_21'
p1768
aS'->'
p1769
aS'variable_19'
p1770
ag82
aS'variable_28'
p1771
aS'!='
p1772
aS'variable_30'
p1773
ag15
aS'if'
p1774
ag6
ag64
aS'func_1'
p1775
ag6
ag103
aS'variable_21'
p1776
aS'->'
p1777
aS'variable_19'
p1778
ag15
ag15
aS'if'
p1779
ag6
ag64
aS'variable_1'
p1780
aS'->'
p1781
aS'variable_31'
p1782
aS'->'
p1783
aS'variable_32'
p1784
aS'||'
p1785
ag64
aS'variable_1'
p1786
aS'->'
p1787
aS'variable_31'
p1788
aS'->'
p1789
aS'variable_32'
p1790
aS'->'
p1791
aS'variable_33'
p1792
ag15
aS'if'
p1793
ag6
aS'variable_21'
p1794
aS'->'
p1795
aS'variable_19'
p1796
ag82
aS'variable_34'
p1797
aS'!='
p1798
aS'sizeof'
p1799
ag6
aS'struct'
p1800
aS'variable_9'
p1801
ag15
ag15
aS'if'
p1802
ag6
aS'variable_21'
p1803
aS'->'
p1804
aS'variable_19'
p1805
ag82
aS'variable_35'
p1806
ag135
ag136
aS'||'
p1807
aS'variable_21'
p1808
aS'->'
p1809
aS'variable_19'
p1810
ag82
aS'variable_35'
p1811
ag142
aS'65536U'
p1812
ag144
aS'sizeof'
p1813
ag6
aS'struct'
p1814
aS'variable_9'
p1815
ag15
ag15
aS'variable_16'
p1816
ag19
aS'variable_21'
p1817
aS'->'
p1818
aS'variable_19'
p1819
ag82
aS'variable_35'
p1820
ag9
aS'sizeof'
p1821
ag6
aS'struct'
p1822
aS'variable_9'
p1823
ag15
ag22
aS'variable_14'
p1824
ag19
ag75
aS'variable_36'
p1825
ag22
aS'variable_11'
p1826
ag19
aS'kmalloc'
p1827
ag6
aS'variable_16'
p1828
ag11
aS'variable_22'
p1829
ag15
ag22
aS'if'
p1830
ag6
ag64
aS'variable_11'
p1831
ag15
aS'variable_14'
p1832
ag19
aS'func_2'
p1833
ag6
aS'variable_1'
p1834
aS'->'
p1835
aS'variable_31'
p1836
ag11
aS'variable_21'
p1837
aS'->'
p1838
aS'variable_19'
p1839
ag82
aS'variable_37'
p1840
ag11
ag6
aS'char'
p1841
ag9
ag15
aS'variable_11'
p1842
ag11
aS'variable_16'
p1843
ag15
ag22
aS'if'
p1844
ag6
aS'variable_14'
p1845
aS'!='
p1846
aS'variable_16'
p1847
ag15
aS'variable_10'
p1848
ag19
aS'variable_11'
p1849
ag22
aS'variable_12'
p1850
ag19
ag20
ag22
aS'variable_13'
p1851
ag19
ag20
ag22
aS'for'
p1852
ag6
aS'variable_15'
p1853
ag19
ag20
ag22
aS'variable_15'
p1854
ag135
aS'variable_21'
p1855
aS'->'
p1856
aS'variable_19'
p1857
ag82
aS'variable_35'
p1858
ag22
aS'variable_15'
p1859
aS'++'
p1860
ag15
aS'if'
p1861
ag6
aS'variable_10'
p1862
aS'->'
p1863
aS'variable_38'
p1864
aS'=='
p1865
aS'variable_39'
p1866
ag15
aS'variable_14'
p1867
ag19
ag75
aS'variable_24'
p1868
ag22
aS'if'
p1869
ag6
aS'variable_10'
p1870
aS'->'
p1871
aS'variable_40'
p1872
ag142
aS'variable_41'
p1873
aS'||'
p1874
aS'variable_10'
p1875
aS'->'
p1876
aS'variable_40'
p1877
ag135
ag210
ag15
aS'variable_14'
p1878
ag19
ag75
aS'variable_36'
p1879
ag22
aS'variable_7'
p1880
ag19
aS'kmalloc'
p1881
ag6
aS'variable_10'
p1882
aS'->'
p1883
aS'variable_40'
p1884
ag11
aS'variable_22'
p1885
ag15
ag22
aS'if'
p1886
ag6
ag64
aS'variable_7'
p1887
ag15
aS'variable_14'
p1888
ag19
aS'func_3'
p1889
ag6
aS'variable_1'
p1890
aS'->'
p1891
aS'variable_31'
p1892
ag11
aS'variable_10'
p1893
aS'->'
p1894
aS'variable_42'
p1895
ag11
aS'variable_7'
p1896
ag11
aS'variable_10'
p1897
aS'->'
p1898
aS'variable_40'
p1899
ag15
ag22
aS'if'
p1900
ag6
aS'variable_14'
p1901
aS'!='
p1902
aS'variable_10'
p1903
aS'->'
p1904
aS'variable_40'
p1905
ag15
aS'variable_14'
p1906
ag19
ag75
aS'variable_24'
p1907
ag22
aS'if'
p1908
ag6
aS'variable_7'
p1909
ag243
aS'variable_10'
p1910
aS'->'
p1911
aS'variable_40'
p1912
ag75
ag136
ag247
aS'!='
p1913
ag249
ag250
ag20
ag249
ag15
aS'variable_43'
p1914
ag19
aS'func_4'
p1915
ag6
aS'variable_7'
p1916
ag15
ag22
aS'variable_14'
p1917
ag19
aS'func_5'
p1918
ag6
aS'variable_43'
p1919
ag15
ag22
aS'if'
p1920
ag6
aS'func_6'
p1921
ag6
aS'variable_43'
p1922
ag15
ag15
aS'if'
p1923
ag6
aS'func_7'
p1924
ag6
aS'variable_43'
p1925
ag11
aS'variable_44'
p1926
ag15
ag135
ag20
ag15
aS'variable_1'
p1927
aS'->'
p1928
aS'variable_45'
p1929
ag267
ag19
aS'variable_46'
p1930
ag22
aS'variable_14'
p1931
ag19
aS'func_8'
p1932
ag6
aS'variable_43'
p1933
ag11
ag20
ag11
aS'variable_1'
p1934
aS'->'
p1935
aS'variable_23'
p1936
ag11
aS'variable_47'
p1937
ag15
ag22
aS'if'
p1938
ag6
aS'variable_14'
p1939
aS'!='
p1940
aS'variable_47'
p1941
ag15
aS'variable_21'
p1942
aS'->'
p1943
aS'variable_20'
p1944
ag19
ag9
ag6
ag6
aS'struct'
p1945
aS'elfhdr'
p1946
ag9
ag15
aS'variable_1'
p1947
aS'->'
p1948
aS'variable_23'
p1949
ag15
ag22
aS'variable_10'
p1950
aS'++'
p1951
ag22
aS'variable_10'
p1952
ag19
aS'variable_11'
p1953
ag22
aS'for'
p1954
ag6
aS'variable_15'
p1955
ag19
ag20
ag22
aS'variable_15'
p1956
ag135
aS'variable_21'
p1957
aS'->'
p1958
aS'variable_19'
p1959
ag82
aS'variable_35'
p1960
ag22
aS'variable_15'
p1961
aS'++'
p1962
ag11
aS'variable_10'
p1963
aS'++'
p1964
ag15
aS'if'
p1965
ag6
aS'variable_10'
p1966
aS'->'
p1967
aS'variable_38'
p1968
aS'=='
p1969
aS'variable_48'
p1970
ag15
aS'if'
p1971
ag6
aS'variable_10'
p1972
aS'->'
p1973
aS'variable_49'
p1974
ag103
aS'variable_50'
p1975
ag15
aS'variable_17'
p1976
ag19
aS'variable_51'
p1977
ag22
aS'variable_17'
p1978
ag19
aS'variable_52'
p1979
ag22
aS'if'
p1980
ag6
aS'variable_7'
p1981
ag15
aS'variable_14'
p1982
ag19
ag75
aS'variable_53'
p1983
ag22
aS'if'
p1984
ag6
aS'memcmp'
p1985
ag6
aS'variable_21'
p1986
aS'->'
p1987
aS'variable_20'
p1988
ag82
aS'variable_25'
p1989
ag11
aS'variable_26'
p1990
ag11
aS'variable_27'
p1991
ag15
aS'!='
p1992
ag20
ag15
aS'if'
p1993
ag6
ag64
aS'func_9'
p1994
ag6
ag103
aS'variable_21'
p1995
aS'->'
p1996
aS'variable_20'
p1997
ag15
ag15
aS'variable_14'
p1998
ag19
aS'func_10'
p1999
ag6
aS'variable_1'
p2000
ag15
ag22
aS'if'
p2001
ag6
aS'variable_14'
p2002
ag15
aS'variable_14'
p2003
ag19
aS'func_11'
p2004
ag6
aS'variable_1'
p2005
ag11
aS'func_12'
p2006
ag6
aS'variable_54'
p2007
ag15
ag11
aS'variable_17'
p2008
ag15
ag22
aS'if'
p2009
ag6
aS'variable_14'
p2010
ag135
ag20
ag15
aS'for'
p2011
ag6
aS'variable_15'
p2012
ag19
ag20
ag11
aS'variable_10'
p2013
ag19
aS'variable_15'
p2014
ag135
aS'variable_21'
p2015
aS'->'
p2016
aS'variable_19'
p2017
ag82
aS'variable_35'
p2018
ag22
aS'variable_15'
p2019
aS'++'
p2020
ag11
aS'variable_10'
p2021
aS'++'
p2022
ag15
aS'int'
p2023
aS'variable_55'
p2024
ag19
ag20
ag11
aS'variable_56'
p2025
ag22
aS'unsigned'
p2026
aS'long'
p2027
aS'variable_57'
p2028
ag11
aS'variable_58'
p2029
ag22
aS'if'
p2030
ag6
aS'variable_10'
p2031
aS'->'
p2032
aS'variable_38'
p2033
aS'!='
p2034
aS'variable_59'
p2035
ag15
aS'if'
p2036
ag6
aS'func_13'
p2037
ag6
aS'variable_13'
p2038
ag142
aS'variable_12'
p2039
ag15
ag15
aS'variable_14'
p2040
ag19
aS'func_14'
p2041
ag6
aS'variable_12'
p2042
ag381
aS'variable_5'
p2043
ag11
aS'variable_13'
p2044
ag381
aS'variable_5'
p2045
ag15
ag22
aS'if'
p2046
ag6
aS'variable_14'
p2047
ag15
aS'if'
p2048
ag6
aS'func_15'
p2049
ag6
ag6
aS'void'
p2050
aS'__user'
p2051
ag9
ag15
aS'variable_12'
p2052
ag381
aS'variable_5'
p2053
ag11
aS'variable_60'
p2054
ag15
ag15
aS'if'
p2055
ag6
aS'variable_10'
p2056
aS'->'
p2057
aS'variable_49'
p2058
ag103
aS'variable_61'
p2059
ag15
aS'variable_55'
p2060
ag267
ag19
aS'variable_62'
p2061
ag22
aS'if'
p2062
ag6
aS'variable_10'
p2063
aS'->'
p2064
aS'variable_49'
p2065
ag103
aS'variable_63'
p2066
ag15
aS'variable_55'
p2067
ag267
ag19
aS'variable_64'
p2068
ag22
aS'if'
p2069
ag6
aS'variable_10'
p2070
aS'->'
p2071
aS'variable_49'
p2072
ag103
aS'variable_50'
p2073
ag15
aS'variable_55'
p2074
ag267
ag19
aS'variable_65'
p2075
ag22
aS'variable_56'
p2076
ag19
aS'variable_66'
p2077
ag267
aS'variable_67'
p2078
ag267
aS'variable_68'
p2079
ag22
aS'variable_58'
p2080
ag19
aS'variable_10'
p2081
aS'->'
p2082
aS'variable_69'
p2083
ag22
aS'if'
p2084
ag6
aS'variable_21'
p2085
aS'->'
p2086
aS'variable_19'
p2087
ag82
aS'variable_28'
p2088
aS'=='
p2089
aS'variable_29'
p2090
aS'||'
p2091
aS'variable_6'
p2092
ag15
aS'variable_56'
p2093
ag267
ag19
aS'variable_70'
p2094
ag22
aS'if'
p2095
ag6
aS'variable_21'
p2096
aS'->'
p2097
aS'variable_19'
p2098
ag82
aS'variable_28'
p2099
aS'=='
p2100
aS'variable_30'
p2101
ag15
aS'variable_5'
p2102
ag19
ag20
ag22
aS'variable_8'
p2103
ag19
aS'func_16'
p2104
ag6
aS'variable_1'
p2105
aS'->'
p2106
aS'variable_31'
p2107
ag11
aS'variable_5'
p2108
ag381
aS'variable_58'
p2109
ag11
aS'variable_10'
p2110
ag11
aS'variable_55'
p2111
ag11
aS'variable_56'
p2112
ag11
ag20
ag15
ag22
aS'if'
p2113
ag6
aS'func_17'
p2114
ag6
aS'variable_8'
p2115
ag15
ag15
aS'variable_14'
p2116
ag19
aS'func_18'
p2117
ag6
ag6
aS'void'
p2118
ag9
ag15
aS'variable_8'
p2119
ag15
aS'?'
p2120
aS'func_19'
p2121
ag6
ag6
aS'void'
p2122
ag9
ag15
aS'variable_8'
p2123
ag15
aS':'
p2124
ag75
aS'variable_71'
p2125
ag22
aS'if'
p2126
ag6
ag64
aS'variable_6'
p2127
ag15
aS'variable_6'
p2128
ag19
ag136
ag22
aS'if'
p2129
ag6
aS'variable_21'
p2130
aS'->'
p2131
aS'variable_19'
p2132
ag82
aS'variable_28'
p2133
aS'=='
p2134
aS'variable_30'
p2135
ag15
aS'variable_5'
p2136
aS'+='
p2137
aS'variable_8'
p2138
ag75
aS'func_20'
p2139
ag6
aS'variable_5'
p2140
ag381
aS'variable_58'
p2141
ag15
ag22
aS'variable_4'
p2142
aS'+='
p2143
aS'variable_5'
p2144
ag22
aS'variable_72'
p2145
ag19
aS'variable_5'
p2146
ag22
aS'variable_57'
p2147
ag19
aS'variable_10'
p2148
aS'->'
p2149
aS'variable_69'
p2150
ag22
aS'if'
p2151
ag6
aS'func_21'
p2152
ag6
aS'variable_57'
p2153
ag15
aS'||'
p2154
aS'variable_10'
p2155
aS'->'
p2156
aS'variable_40'
p2157
ag142
aS'variable_10'
p2158
aS'->'
p2159
aS'variable_73'
p2160
aS'||'
p2161
aS'variable_10'
p2162
aS'->'
p2163
aS'variable_73'
p2164
ag142
aS'variable_74'
p2165
aS'||'
p2166
aS'variable_74'
p2167
ag75
aS'variable_10'
p2168
aS'->'
p2169
aS'variable_73'
p2170
ag135
aS'variable_57'
p2171
ag15
aS'variable_57'
p2172
ag19
aS'variable_10'
p2173
aS'->'
p2174
aS'variable_69'
p2175
ag381
aS'variable_10'
p2176
aS'->'
p2177
aS'variable_40'
p2178
ag22
aS'if'
p2179
ag6
aS'variable_57'
p2180
ag142
aS'variable_12'
p2181
ag15
aS'variable_12'
p2182
ag19
aS'variable_57'
p2183
ag22
aS'variable_57'
p2184
ag19
aS'variable_10'
p2185
aS'->'
p2186
aS'variable_69'
p2187
ag381
aS'variable_10'
p2188
aS'->'
p2189
aS'variable_73'
p2190
ag22
aS'if'
p2191
ag6
aS'variable_57'
p2192
ag142
aS'variable_13'
p2193
ag15
aS'variable_13'
p2194
ag19
aS'variable_57'
p2195
ag22
aS'variable_21'
p2196
aS'->'
p2197
aS'variable_19'
p2198
ag82
aS'variable_75'
p2199
aS'+='
p2200
aS'variable_5'
p2201
ag22
aS'variable_12'
p2202
aS'+='
p2203
aS'variable_5'
p2204
ag22
aS'variable_13'
p2205
aS'+='
p2206
aS'variable_5'
p2207
ag22
aS'variable_76'
p2208
aS'+='
p2209
aS'variable_5'
p2210
ag22
aS'variable_77'
p2211
aS'+='
p2212
aS'variable_5'
p2213
ag22
aS'variable_78'
p2214
aS'+='
p2215
aS'variable_5'
p2216
ag22
aS'variable_79'
p2217
aS'+='
p2218
aS'variable_5'
p2219
ag22
aS'variable_14'
p2220
ag19
aS'func_22'
p2221
ag6
aS'variable_12'
p2222
ag11
aS'variable_13'
p2223
ag15
ag22
aS'if'
p2224
ag6
aS'variable_14'
p2225
ag15
aS'if'
p2226
ag6
aS'func_23'
p2227
ag6
aS'variable_12'
p2228
aS'!='
p2229
aS'variable_13'
p2230
ag15
aS'&&'
p2231
aS'func_24'
p2232
ag6
aS'func_25'
p2233
ag6
aS'variable_12'
p2234
ag15
ag15
ag15
aS'variable_80'
p2235
ag19
aS'func_26'
p2236
ag6
ag103
aS'variable_21'
p2237
aS'->'
p2238
aS'variable_20'
p2239
ag11
aS'variable_43'
p2240
ag11
ag103
aS'variable_81'
p2241
ag11
aS'variable_5'
p2242
ag15
ag22
aS'if'
p2243
ag6
ag64
aS'func_27'
p2244
ag6
ag6
aS'void'
p2245
ag9
ag15
aS'variable_80'
p2246
ag15
ag15
aS'variable_82'
p2247
ag19
aS'variable_80'
p2248
ag22
aS'variable_80'
p2249
aS'+='
p2250
aS'variable_21'
p2251
aS'->'
p2252
aS'variable_20'
p2253
ag82
aS'variable_75'
p2254
ag22
aS'if'
p2255
ag6
aS'func_28'
p2256
ag6
aS'variable_80'
p2257
ag15
ag15
aS'variable_14'
p2258
ag19
aS'func_29'
p2259
ag6
ag6
aS'void'
p2260
ag9
ag15
aS'variable_80'
p2261
ag15
ag2120
ag6
aS'int'
p2262
ag15
aS'variable_80'
p2263
ag2124
ag75
aS'variable_71'
p2264
ag22
aS'variable_72'
p2265
ag19
aS'variable_82'
p2266
ag22
aS'variable_80'
p2267
ag19
aS'variable_21'
p2268
aS'->'
p2269
aS'variable_19'
p2270
ag82
aS'variable_75'
p2271
ag22
aS'if'
p2272
ag6
aS'func_30'
p2273
ag6
aS'variable_80'
p2274
ag15
ag15
aS'if'
p2275
ag6
aS'variable_14'
p2276
ag135
ag20
ag15
aS'variable_14'
p2277
ag19
aS'func_31'
p2278
ag6
aS'variable_1'
p2279
ag11
ag103
aS'variable_21'
p2280
aS'->'
p2281
aS'variable_19'
p2282
ag11
aS'variable_4'
p2283
ag11
aS'variable_82'
p2284
ag15
ag22
aS'if'
p2285
ag6
aS'variable_14'
p2286
ag135
ag20
ag15
aS'variable_83'
p2287
aS'->'
p2288
aS'variable_84'
p2289
aS'->'
p2290
aS'variable_77'
p2291
ag19
aS'variable_77'
p2292
ag22
aS'variable_83'
p2293
aS'->'
p2294
aS'variable_84'
p2295
aS'->'
p2296
aS'variable_76'
p2297
ag19
aS'variable_76'
p2298
ag22
aS'variable_83'
p2299
aS'->'
p2300
aS'variable_84'
p2301
aS'->'
p2302
aS'variable_78'
p2303
ag19
aS'variable_78'
p2304
ag22
aS'variable_83'
p2305
aS'->'
p2306
aS'variable_84'
p2307
aS'->'
p2308
aS'variable_79'
p2309
ag19
aS'variable_79'
p2310
ag22
aS'variable_83'
p2311
aS'->'
p2312
aS'variable_84'
p2313
aS'->'
p2314
aS'variable_85'
p2315
ag19
aS'variable_1'
p2316
aS'->'
p2317
aS'variable_86'
p2318
ag22
aS'if'
p2319
ag6
ag6
aS'variable_83'
p2320
aS'->'
p2321
aS'variable_87'
p2322
ag103
aS'variable_88'
p2323
ag15
aS'&&'
p2324
ag6
aS'variable_89'
p2325
ag142
ag136
ag15
ag15
aS'variable_83'
p2326
aS'->'
p2327
aS'variable_84'
p2328
aS'->'
p2329
aS'variable_90'
p2330
ag19
aS'variable_83'
p2331
aS'->'
p2332
aS'variable_84'
p2333
aS'->'
p2334
aS'variable_91'
p2335
ag19
aS'func_32'
p2336
ag6
aS'variable_83'
p2337
aS'->'
p2338
aS'variable_84'
p2339
ag15
ag22
aS'if'
p2340
ag6
aS'variable_83'
p2341
aS'->'
p2342
aS'variable_92'
p2343
ag103
aS'variable_93'
p2344
ag15
aS'func_33'
p2345
ag6
ag103
aS'variable_83'
p2346
aS'->'
p2347
aS'variable_84'
p2348
aS'->'
p2349
aS'variable_94'
p2350
ag15
ag22
aS'func_34'
p2351
ag6
ag103
aS'variable_83'
p2352
aS'->'
p2353
aS'variable_84'
p2354
aS'->'
p2355
aS'variable_94'
p2356
ag15
ag22
aS'func_35'
p2357
ag6
aS'variable_3'
p2358
ag11
aS'variable_72'
p2359
ag15
ag22
aS'func_36'
p2360
ag6
aS'variable_3'
p2361
ag11
aS'variable_80'
p2362
ag11
aS'variable_1'
p2363
aS'->'
p2364
aS'variable_86'
p2365
ag15
ag22
aS'kfree'
p2366
ag6
aS'variable_21'
p2367
ag15
ag22
aS'return'
p2368
aS'variable_14'
p2369
ag22
aa(lp2370
S'static'
p2371
aS'int'
p2372
aS'func_0'
p2373
ag6
aS'struct'
p2374
aS'variable_0'
p2375
ag9
aS'variable_1'
p2376
ag11
aS'struct'
p2377
aS'variable_2'
p2378
ag9
aS'variable_3'
p2379
ag15
aS'unsigned'
p2380
aS'long'
p2381
aS'variable_4'
p2382
ag19
ag20
ag11
aS'variable_5'
p2383
ag19
ag20
ag22
aS'int'
p2384
aS'variable_6'
p2385
ag19
ag20
ag22
aS'char'
p2386
ag9
aS'variable_7'
p2387
ag19
aS'NULL'
p2388
ag22
aS'unsigned'
p2389
aS'long'
p2390
aS'variable_8'
p2391
ag22
aS'struct'
p2392
aS'variable_9'
p2393
ag9
aS'variable_10'
p2394
ag11
ag9
aS'variable_11'
p2395
ag22
aS'unsigned'
p2396
aS'long'
p2397
aS'variable_12'
p2398
ag11
aS'variable_13'
p2399
ag22
aS'int'
p2400
aS'variable_14'
p2401
ag11
aS'variable_15'
p2402
ag22
aS'unsigned'
p2403
aS'int'
p2404
aS'variable_16'
p2405
ag22
aS'int'
p2406
aS'variable_17'
p2407
ag19
aS'variable_18'
p2408
ag22
aS'struct'
p2409
ag49
aS'struct'
p2410
aS'elfhdr'
p2411
aS'variable_19'
p2412
ag22
aS'struct'
p2413
aS'elfhdr'
p2414
aS'variable_20'
p2415
ag22
ag56
ag9
aS'variable_21'
p2416
ag22
aS'variable_21'
p2417
ag19
aS'kmalloc'
p2418
ag6
aS'sizeof'
p2419
ag6
ag9
aS'variable_21'
p2420
ag15
ag11
aS'variable_22'
p2421
ag15
ag22
aS'if'
p2422
ag6
ag64
aS'variable_21'
p2423
ag15
aS'variable_21'
p2424
aS'->'
p2425
aS'variable_19'
p2426
ag19
ag9
ag6
ag6
aS'struct'
p2427
aS'elfhdr'
p2428
ag9
ag15
aS'variable_1'
p2429
aS'->'
p2430
aS'variable_23'
p2431
ag15
ag22
aS'variable_14'
p2432
ag19
ag75
aS'variable_24'
p2433
ag22
aS'if'
p2434
ag6
aS'memcmp'
p2435
ag6
aS'variable_21'
p2436
aS'->'
p2437
aS'variable_19'
p2438
ag82
aS'variable_25'
p2439
ag11
aS'variable_26'
p2440
ag11
aS'variable_27'
p2441
ag15
aS'!='
p2442
ag20
ag15
aS'if'
p2443
ag6
aS'variable_21'
p2444
aS'->'
p2445
aS'variable_19'
p2446
ag82
aS'variable_28'
p2447
aS'!='
p2448
aS'variable_29'
p2449
aS'&&'
p2450
aS'variable_21'
p2451
aS'->'
p2452
aS'variable_19'
p2453
ag82
aS'variable_28'
p2454
aS'!='
p2455
aS'variable_30'
p2456
ag15
aS'if'
p2457
ag6
ag64
aS'func_1'
p2458
ag6
ag103
aS'variable_21'
p2459
aS'->'
p2460
aS'variable_19'
p2461
ag15
ag15
aS'if'
p2462
ag6
ag64
aS'variable_1'
p2463
aS'->'
p2464
aS'variable_31'
p2465
aS'->'
p2466
aS'variable_32'
p2467
aS'||'
p2468
ag64
aS'variable_1'
p2469
aS'->'
p2470
aS'variable_31'
p2471
aS'->'
p2472
aS'variable_32'
p2473
aS'->'
p2474
aS'variable_33'
p2475
ag15
aS'if'
p2476
ag6
aS'variable_21'
p2477
aS'->'
p2478
aS'variable_19'
p2479
ag82
aS'variable_34'
p2480
aS'!='
p2481
aS'sizeof'
p2482
ag6
aS'struct'
p2483
aS'variable_9'
p2484
ag15
ag15
aS'if'
p2485
ag6
aS'variable_21'
p2486
aS'->'
p2487
aS'variable_19'
p2488
ag82
aS'variable_35'
p2489
ag135
ag136
aS'||'
p2490
aS'variable_21'
p2491
aS'->'
p2492
aS'variable_19'
p2493
ag82
aS'variable_35'
p2494
ag142
aS'65536U'
p2495
ag144
aS'sizeof'
p2496
ag6
aS'struct'
p2497
aS'variable_9'
p2498
ag15
ag15
aS'variable_16'
p2499
ag19
aS'variable_21'
p2500
aS'->'
p2501
aS'variable_19'
p2502
ag82
aS'variable_35'
p2503
ag9
aS'sizeof'
p2504
ag6
aS'struct'
p2505
aS'variable_9'
p2506
ag15
ag22
aS'variable_14'
p2507
ag19
ag75
aS'variable_36'
p2508
ag22
aS'variable_11'
p2509
ag19
aS'kmalloc'
p2510
ag6
aS'variable_16'
p2511
ag11
aS'variable_22'
p2512
ag15
ag22
aS'if'
p2513
ag6
ag64
aS'variable_11'
p2514
ag15
aS'variable_14'
p2515
ag19
aS'func_2'
p2516
ag6
aS'variable_1'
p2517
aS'->'
p2518
aS'variable_31'
p2519
ag11
aS'variable_21'
p2520
aS'->'
p2521
aS'variable_19'
p2522
ag82
aS'variable_37'
p2523
ag11
ag6
aS'char'
p2524
ag9
ag15
aS'variable_11'
p2525
ag11
aS'variable_16'
p2526
ag15
ag22
aS'if'
p2527
ag6
aS'variable_14'
p2528
aS'!='
p2529
aS'variable_16'
p2530
ag15
aS'variable_10'
p2531
ag19
aS'variable_11'
p2532
ag22
aS'variable_12'
p2533
ag19
ag20
ag22
aS'variable_13'
p2534
ag19
ag20
ag22
aS'for'
p2535
ag6
aS'variable_15'
p2536
ag19
ag20
ag22
aS'variable_15'
p2537
ag135
aS'variable_21'
p2538
aS'->'
p2539
aS'variable_19'
p2540
ag82
aS'variable_35'
p2541
ag22
aS'variable_15'
p2542
aS'++'
p2543
ag15
aS'if'
p2544
ag6
aS'variable_10'
p2545
aS'->'
p2546
aS'variable_38'
p2547
aS'=='
p2548
aS'variable_39'
p2549
ag15
aS'variable_14'
p2550
ag19
ag75
aS'variable_24'
p2551
ag22
aS'if'
p2552
ag6
aS'variable_10'
p2553
aS'->'
p2554
aS'variable_40'
p2555
ag142
aS'variable_41'
p2556
aS'||'
p2557
aS'variable_10'
p2558
aS'->'
p2559
aS'variable_40'
p2560
ag135
ag210
ag15
aS'variable_14'
p2561
ag19
ag75
aS'variable_36'
p2562
ag22
aS'variable_7'
p2563
ag19
aS'kmalloc'
p2564
ag6
aS'variable_10'
p2565
aS'->'
p2566
aS'variable_40'
p2567
ag11
aS'variable_22'
p2568
ag15
ag22
aS'if'
p2569
ag6
ag64
aS'variable_7'
p2570
ag15
aS'variable_14'
p2571
ag19
aS'func_3'
p2572
ag6
aS'variable_1'
p2573
aS'->'
p2574
aS'variable_31'
p2575
ag11
aS'variable_10'
p2576
aS'->'
p2577
aS'variable_42'
p2578
ag11
aS'variable_7'
p2579
ag11
aS'variable_10'
p2580
aS'->'
p2581
aS'variable_40'
p2582
ag15
ag22
aS'if'
p2583
ag6
aS'variable_14'
p2584
aS'!='
p2585
aS'variable_10'
p2586
aS'->'
p2587
aS'variable_40'
p2588
ag15
aS'variable_14'
p2589
ag19
ag75
aS'variable_24'
p2590
ag22
aS'if'
p2591
ag6
aS'variable_7'
p2592
ag243
aS'variable_10'
p2593
aS'->'
p2594
aS'variable_40'
p2595
ag75
ag136
ag247
aS'!='
p2596
ag249
ag250
ag20
ag249
ag15
aS'variable_43'
p2597
ag19
aS'func_4'
p2598
ag6
aS'variable_7'
p2599
ag15
ag22
aS'variable_14'
p2600
ag19
aS'func_5'
p2601
ag6
aS'variable_43'
p2602
ag15
ag22
aS'if'
p2603
ag6
aS'func_6'
p2604
ag6
aS'variable_43'
p2605
ag15
ag15
aS'if'
p2606
ag6
aS'func_7'
p2607
ag6
aS'variable_43'
p2608
ag11
aS'variable_44'
p2609
ag15
ag135
ag20
ag15
aS'variable_1'
p2610
aS'->'
p2611
aS'variable_45'
p2612
ag267
ag19
aS'variable_46'
p2613
ag22
aS'variable_14'
p2614
ag19
aS'func_8'
p2615
ag6
aS'variable_43'
p2616
ag11
ag20
ag11
aS'variable_1'
p2617
aS'->'
p2618
aS'variable_23'
p2619
ag11
aS'variable_47'
p2620
ag15
ag22
aS'if'
p2621
ag6
aS'variable_14'
p2622
aS'!='
p2623
aS'variable_47'
p2624
ag15
aS'variable_21'
p2625
aS'->'
p2626
aS'variable_20'
p2627
ag19
ag9
ag6
ag6
aS'struct'
p2628
aS'elfhdr'
p2629
ag9
ag15
aS'variable_1'
p2630
aS'->'
p2631
aS'variable_23'
p2632
ag15
ag22
aS'variable_10'
p2633
aS'++'
p2634
ag22
aS'variable_10'
p2635
ag19
aS'variable_11'
p2636
ag22
aS'for'
p2637
ag6
aS'variable_15'
p2638
ag19
ag20
ag22
aS'variable_15'
p2639
ag135
aS'variable_21'
p2640
aS'->'
p2641
aS'variable_19'
p2642
ag82
aS'variable_35'
p2643
ag22
aS'variable_15'
p2644
aS'++'
p2645
ag11
aS'variable_10'
p2646
aS'++'
p2647
ag15
aS'if'
p2648
ag6
aS'variable_10'
p2649
aS'->'
p2650
aS'variable_38'
p2651
aS'=='
p2652
aS'variable_48'
p2653
ag15
aS'if'
p2654
ag6
aS'variable_10'
p2655
aS'->'
p2656
aS'variable_49'
p2657
ag103
aS'variable_50'
p2658
ag15
aS'variable_17'
p2659
ag19
aS'variable_51'
p2660
ag22
aS'variable_17'
p2661
ag19
aS'variable_52'
p2662
ag22
aS'if'
p2663
ag6
aS'variable_7'
p2664
ag15
aS'variable_14'
p2665
ag19
ag75
aS'variable_53'
p2666
ag22
aS'if'
p2667
ag6
aS'memcmp'
p2668
ag6
aS'variable_21'
p2669
aS'->'
p2670
aS'variable_20'
p2671
ag82
aS'variable_25'
p2672
ag11
aS'variable_26'
p2673
ag11
aS'variable_27'
p2674
ag15
aS'!='
p2675
ag20
ag15
aS'if'
p2676
ag6
ag64
aS'func_9'
p2677
ag6
ag103
aS'variable_21'
p2678
aS'->'
p2679
aS'variable_20'
p2680
ag15
ag15
aS'variable_14'
p2681
ag19
aS'func_10'
p2682
ag6
aS'variable_1'
p2683
ag15
ag22
aS'if'
p2684
ag6
aS'variable_14'
p2685
ag15
aS'variable_14'
p2686
ag19
aS'func_11'
p2687
ag6
aS'variable_1'
p2688
ag11
aS'func_12'
p2689
ag6
aS'variable_54'
p2690
ag15
ag11
aS'variable_17'
p2691
ag15
ag22
aS'if'
p2692
ag6
aS'variable_14'
p2693
ag135
ag20
ag15
aS'for'
p2694
ag6
aS'variable_15'
p2695
ag19
ag20
ag11
aS'variable_10'
p2696
ag19
aS'variable_15'
p2697
ag135
aS'variable_21'
p2698
aS'->'
p2699
aS'variable_19'
p2700
ag82
aS'variable_35'
p2701
ag22
aS'variable_15'
p2702
aS'++'
p2703
ag11
aS'variable_10'
p2704
aS'++'
p2705
ag15
aS'int'
p2706
aS'variable_55'
p2707
ag19
ag20
ag11
aS'variable_56'
p2708
ag22
aS'unsigned'
p2709
aS'long'
p2710
aS'variable_57'
p2711
ag11
aS'variable_58'
p2712
ag22
aS'if'
p2713
ag6
aS'variable_10'
p2714
aS'->'
p2715
aS'variable_38'
p2716
aS'!='
p2717
aS'variable_59'
p2718
ag15
aS'if'
p2719
ag6
aS'func_13'
p2720
ag6
aS'variable_13'
p2721
ag142
aS'variable_12'
p2722
ag15
ag15
aS'unsigned'
p2723
aS'long'
p2724
aS'variable_60'
p2725
ag22
aS'variable_14'
p2726
ag19
aS'func_14'
p2727
ag6
aS'variable_12'
p2728
ag381
aS'variable_5'
p2729
ag11
aS'variable_13'
p2730
ag381
aS'variable_5'
p2731
ag15
ag22
aS'if'
p2732
ag6
aS'variable_14'
p2733
ag15
aS'variable_60'
p2734
ag19
aS'func_15'
p2735
ag6
aS'variable_12'
p2736
ag15
ag22
aS'if'
p2737
ag6
aS'variable_60'
p2738
ag15
aS'variable_60'
p2739
ag19
aS'variable_61'
p2740
ag75
aS'variable_60'
p2741
ag22
aS'if'
p2742
ag6
aS'variable_60'
p2743
ag142
aS'variable_13'
p2744
ag75
aS'variable_12'
p2745
ag15
aS'variable_60'
p2746
ag19
aS'variable_13'
p2747
ag75
aS'variable_12'
p2748
ag22
aS'if'
p2749
ag6
aS'func_16'
p2750
ag6
ag6
aS'void'
p2751
aS'__user'
p2752
ag9
ag15
aS'variable_12'
p2753
ag381
aS'variable_5'
p2754
ag11
aS'variable_60'
p2755
ag15
ag15
aS'if'
p2756
ag6
aS'variable_10'
p2757
aS'->'
p2758
aS'variable_49'
p2759
ag103
aS'variable_62'
p2760
ag15
aS'variable_55'
p2761
ag267
ag19
aS'variable_63'
p2762
ag22
aS'if'
p2763
ag6
aS'variable_10'
p2764
aS'->'
p2765
aS'variable_49'
p2766
ag103
aS'variable_64'
p2767
ag15
aS'variable_55'
p2768
ag267
ag19
aS'variable_65'
p2769
ag22
aS'if'
p2770
ag6
aS'variable_10'
p2771
aS'->'
p2772
aS'variable_49'
p2773
ag103
aS'variable_50'
p2774
ag15
aS'variable_55'
p2775
ag267
ag19
aS'variable_66'
p2776
ag22
aS'variable_56'
p2777
ag19
aS'variable_67'
p2778
ag267
aS'variable_68'
p2779
ag267
aS'variable_69'
p2780
ag22
aS'variable_58'
p2781
ag19
aS'variable_10'
p2782
aS'->'
p2783
aS'variable_70'
p2784
ag22
aS'if'
p2785
ag6
aS'variable_21'
p2786
aS'->'
p2787
aS'variable_19'
p2788
ag82
aS'variable_28'
p2789
aS'=='
p2790
aS'variable_29'
p2791
aS'||'
p2792
aS'variable_6'
p2793
ag15
aS'variable_56'
p2794
ag267
ag19
aS'variable_71'
p2795
ag22
aS'if'
p2796
ag6
aS'variable_21'
p2797
aS'->'
p2798
aS'variable_19'
p2799
ag82
aS'variable_28'
p2800
aS'=='
p2801
aS'variable_30'
p2802
ag15
aS'variable_5'
p2803
ag19
ag20
ag22
aS'variable_8'
p2804
ag19
aS'func_17'
p2805
ag6
aS'variable_1'
p2806
aS'->'
p2807
aS'variable_31'
p2808
ag11
aS'variable_5'
p2809
ag381
aS'variable_58'
p2810
ag11
aS'variable_10'
p2811
ag11
aS'variable_55'
p2812
ag11
aS'variable_56'
p2813
ag11
ag20
ag15
ag22
aS'if'
p2814
ag6
aS'func_18'
p2815
ag6
aS'variable_8'
p2816
ag15
ag15
aS'if'
p2817
ag6
ag64
aS'variable_6'
p2818
ag15
aS'variable_6'
p2819
ag19
ag136
ag22
aS'if'
p2820
ag6
aS'variable_21'
p2821
aS'->'
p2822
aS'variable_19'
p2823
ag82
aS'variable_28'
p2824
aS'=='
p2825
aS'variable_30'
p2826
ag15
aS'variable_5'
p2827
aS'+='
p2828
aS'variable_8'
p2829
ag75
aS'func_19'
p2830
ag6
aS'variable_5'
p2831
ag381
aS'variable_58'
p2832
ag15
ag22
aS'variable_57'
p2833
ag19
aS'variable_10'
p2834
aS'->'
p2835
aS'variable_70'
p2836
ag22
aS'if'
p2837
ag6
aS'func_20'
p2838
ag6
aS'variable_57'
p2839
ag15
aS'||'
p2840
aS'variable_10'
p2841
aS'->'
p2842
aS'variable_40'
p2843
ag142
aS'variable_10'
p2844
aS'->'
p2845
aS'variable_72'
p2846
aS'||'
p2847
aS'variable_10'
p2848
aS'->'
p2849
aS'variable_72'
p2850
ag142
aS'variable_73'
p2851
aS'||'
p2852
aS'variable_73'
p2853
ag75
aS'variable_10'
p2854
aS'->'
p2855
aS'variable_72'
p2856
ag135
aS'variable_57'
p2857
ag15
aS'variable_57'
p2858
ag19
aS'variable_10'
p2859
aS'->'
p2860
aS'variable_70'
p2861
ag381
aS'variable_10'
p2862
aS'->'
p2863
aS'variable_40'
p2864
ag22
aS'if'
p2865
ag6
aS'variable_57'
p2866
ag142
aS'variable_12'
p2867
ag15
aS'variable_12'
p2868
ag19
aS'variable_57'
p2869
ag22
aS'variable_57'
p2870
ag19
aS'variable_10'
p2871
aS'->'
p2872
aS'variable_70'
p2873
ag381
aS'variable_10'
p2874
aS'->'
p2875
aS'variable_72'
p2876
ag22
aS'if'
p2877
ag6
aS'variable_57'
p2878
ag142
aS'variable_13'
p2879
ag15
aS'variable_13'
p2880
ag19
aS'variable_57'
p2881
ag22
aa(lp2882
S'static'
p2883
aS'int'
p2884
aS'func_0'
p2885
ag6
aS'struct'
p2886
aS'variable_0'
p2887
ag9
aS'variable_1'
p2888
ag11
aS'struct'
p2889
aS'variable_2'
p2890
ag9
aS'variable_3'
p2891
ag15
aS'unsigned'
p2892
aS'long'
p2893
aS'variable_4'
p2894
ag19
ag20
ag11
aS'variable_5'
p2895
ag19
ag20
ag22
aS'int'
p2896
aS'variable_6'
p2897
ag19
ag20
ag22
aS'char'
p2898
ag9
aS'variable_7'
p2899
ag19
aS'NULL'
p2900
ag22
aS'unsigned'
p2901
aS'long'
p2902
aS'variable_8'
p2903
ag22
aS'struct'
p2904
aS'variable_9'
p2905
ag9
aS'variable_10'
p2906
ag11
ag9
aS'variable_11'
p2907
ag22
aS'unsigned'
p2908
aS'long'
p2909
aS'variable_12'
p2910
ag11
aS'variable_13'
p2911
ag22
aS'int'
p2912
aS'variable_14'
p2913
ag11
aS'variable_15'
p2914
ag22
aS'unsigned'
p2915
aS'int'
p2916
aS'variable_16'
p2917
ag22
aS'int'
p2918
aS'variable_17'
p2919
ag19
aS'variable_18'
p2920
ag22
aS'struct'
p2921
ag49
aS'struct'
p2922
aS'elfhdr'
p2923
aS'variable_19'
p2924
ag22
aS'struct'
p2925
aS'elfhdr'
p2926
aS'variable_20'
p2927
ag22
ag56
ag9
aS'variable_21'
p2928
ag22
aS'variable_21'
p2929
ag19
aS'kmalloc'
p2930
ag6
aS'sizeof'
p2931
ag6
ag9
aS'variable_21'
p2932
ag15
ag11
aS'variable_22'
p2933
ag15
ag22
aS'if'
p2934
ag6
ag64
aS'variable_21'
p2935
ag15
aS'variable_21'
p2936
aS'->'
p2937
aS'variable_19'
p2938
ag19
ag9
ag6
ag6
aS'struct'
p2939
aS'elfhdr'
p2940
ag9
ag15
aS'variable_1'
p2941
aS'->'
p2942
aS'variable_23'
p2943
ag15
ag22
aS'variable_14'
p2944
ag19
ag75
aS'variable_24'
p2945
ag22
aS'if'
p2946
ag6
aS'memcmp'
p2947
ag6
aS'variable_21'
p2948
aS'->'
p2949
aS'variable_19'
p2950
ag82
aS'variable_25'
p2951
ag11
aS'variable_26'
p2952
ag11
aS'variable_27'
p2953
ag15
aS'!='
p2954
ag20
ag15
aS'if'
p2955
ag6
aS'variable_21'
p2956
aS'->'
p2957
aS'variable_19'
p2958
ag82
aS'variable_28'
p2959
aS'!='
p2960
aS'variable_29'
p2961
aS'&&'
p2962
aS'variable_21'
p2963
aS'->'
p2964
aS'variable_19'
p2965
ag82
aS'variable_28'
p2966
aS'!='
p2967
aS'variable_30'
p2968
ag15
aS'if'
p2969
ag6
ag64
aS'func_1'
p2970
ag6
ag103
aS'variable_21'
p2971
aS'->'
p2972
aS'variable_19'
p2973
ag15
ag15
aS'if'
p2974
ag6
ag64
aS'variable_1'
p2975
aS'->'
p2976
aS'variable_31'
p2977
aS'->'
p2978
aS'variable_32'
p2979
aS'||'
p2980
ag64
aS'variable_1'
p2981
aS'->'
p2982
aS'variable_31'
p2983
aS'->'
p2984
aS'variable_32'
p2985
aS'->'
p2986
aS'variable_33'
p2987
ag15
aS'if'
p2988
ag6
aS'variable_21'
p2989
aS'->'
p2990
aS'variable_19'
p2991
ag82
aS'variable_34'
p2992
aS'!='
p2993
aS'sizeof'
p2994
ag6
aS'struct'
p2995
aS'variable_9'
p2996
ag15
ag15
aS'if'
p2997
ag6
aS'variable_21'
p2998
aS'->'
p2999
aS'variable_19'
p3000
ag82
aS'variable_35'
p3001
ag135
ag136
aS'||'
p3002
aS'variable_21'
p3003
aS'->'
p3004
aS'variable_19'
p3005
ag82
aS'variable_35'
p3006
ag142
aS'65536U'
p3007
ag144
aS'sizeof'
p3008
ag6
aS'struct'
p3009
aS'variable_9'
p3010
ag15
ag15
aS'variable_16'
p3011
ag19
aS'variable_21'
p3012
aS'->'
p3013
aS'variable_19'
p3014
ag82
aS'variable_35'
p3015
ag9
aS'sizeof'
p3016
ag6
aS'struct'
p3017
aS'variable_9'
p3018
ag15
ag22
aS'variable_14'
p3019
ag19
ag75
aS'variable_36'
p3020
ag22
aS'variable_11'
p3021
ag19
aS'kmalloc'
p3022
ag6
aS'variable_16'
p3023
ag11
aS'variable_22'
p3024
ag15
ag22
aS'if'
p3025
ag6
ag64
aS'variable_11'
p3026
ag15
aS'variable_14'
p3027
ag19
aS'func_2'
p3028
ag6
aS'variable_1'
p3029
aS'->'
p3030
aS'variable_31'
p3031
ag11
aS'variable_21'
p3032
aS'->'
p3033
aS'variable_19'
p3034
ag82
aS'variable_37'
p3035
ag11
ag6
aS'char'
p3036
ag9
ag15
aS'variable_11'
p3037
ag11
aS'variable_16'
p3038
ag15
ag22
aS'if'
p3039
ag6
aS'variable_14'
p3040
aS'!='
p3041
aS'variable_16'
p3042
ag15
aS'variable_10'
p3043
ag19
aS'variable_11'
p3044
ag22
aS'variable_12'
p3045
ag19
ag20
ag22
aS'variable_13'
p3046
ag19
ag20
ag22
aS'for'
p3047
ag6
aS'variable_15'
p3048
ag19
ag20
ag22
aS'variable_15'
p3049
ag135
aS'variable_21'
p3050
aS'->'
p3051
aS'variable_19'
p3052
ag82
aS'variable_35'
p3053
ag22
aS'variable_15'
p3054
aS'++'
p3055
ag15
aS'if'
p3056
ag6
aS'variable_10'
p3057
aS'->'
p3058
aS'variable_38'
p3059
aS'=='
p3060
aS'variable_39'
p3061
ag15
aS'variable_14'
p3062
ag19
ag75
aS'variable_24'
p3063
ag22
aS'if'
p3064
ag6
aS'variable_10'
p3065
aS'->'
p3066
aS'variable_40'
p3067
ag142
aS'variable_41'
p3068
aS'||'
p3069
aS'variable_10'
p3070
aS'->'
p3071
aS'variable_40'
p3072
ag135
ag210
ag15
aS'variable_14'
p3073
ag19
ag75
aS'variable_36'
p3074
ag22
aS'variable_7'
p3075
ag19
aS'kmalloc'
p3076
ag6
aS'variable_10'
p3077
aS'->'
p3078
aS'variable_40'
p3079
ag11
aS'variable_22'
p3080
ag15
ag22
aS'if'
p3081
ag6
ag64
aS'variable_7'
p3082
ag15
aS'variable_14'
p3083
ag19
aS'func_3'
p3084
ag6
aS'variable_1'
p3085
aS'->'
p3086
aS'variable_31'
p3087
ag11
aS'variable_10'
p3088
aS'->'
p3089
aS'variable_42'
p3090
ag11
aS'variable_7'
p3091
ag11
aS'variable_10'
p3092
aS'->'
p3093
aS'variable_40'
p3094
ag15
ag22
aS'if'
p3095
ag6
aS'variable_14'
p3096
aS'!='
p3097
aS'variable_10'
p3098
aS'->'
p3099
aS'variable_40'
p3100
ag15
aS'variable_14'
p3101
ag19
ag75
aS'variable_24'
p3102
ag22
aS'if'
p3103
ag6
aS'variable_7'
p3104
ag243
aS'variable_10'
p3105
aS'->'
p3106
aS'variable_40'
p3107
ag75
ag136
ag247
aS'!='
p3108
ag249
ag250
ag20
ag249
ag15
aS'variable_43'
p3109
ag19
aS'func_4'
p3110
ag6
aS'variable_7'
p3111
ag15
ag22
aS'variable_14'
p3112
ag19
aS'func_5'
p3113
ag6
aS'variable_43'
p3114
ag15
ag22
aS'if'
p3115
ag6
aS'func_6'
p3116
ag6
aS'variable_43'
p3117
ag15
ag15
aS'if'
p3118
ag6
aS'func_7'
p3119
ag6
aS'variable_43'
p3120
ag11
aS'variable_44'
p3121
ag15
ag135
ag20
ag15
aS'variable_1'
p3122
aS'->'
p3123
aS'variable_45'
p3124
ag267
ag19
aS'variable_46'
p3125
ag22
aS'variable_14'
p3126
ag19
aS'func_8'
p3127
ag6
aS'variable_43'
p3128
ag11
ag20
ag11
aS'variable_1'
p3129
aS'->'
p3130
aS'variable_23'
p3131
ag11
aS'variable_47'
p3132
ag15
ag22
aS'if'
p3133
ag6
aS'variable_14'
p3134
aS'!='
p3135
aS'variable_47'
p3136
ag15
aS'variable_21'
p3137
aS'->'
p3138
aS'variable_20'
p3139
ag19
ag9
ag6
ag6
aS'struct'
p3140
aS'elfhdr'
p3141
ag9
ag15
aS'variable_1'
p3142
aS'->'
p3143
aS'variable_23'
p3144
ag15
ag22
aS'variable_10'
p3145
aS'++'
p3146
ag22
aS'variable_10'
p3147
ag19
aS'variable_11'
p3148
ag22
aS'for'
p3149
ag6
aS'variable_15'
p3150
ag19
ag20
ag22
aS'variable_15'
p3151
ag135
aS'variable_21'
p3152
aS'->'
p3153
aS'variable_19'
p3154
ag82
aS'variable_35'
p3155
ag22
aS'variable_15'
p3156
aS'++'
p3157
ag11
aS'variable_10'
p3158
aS'++'
p3159
ag15
aS'if'
p3160
ag6
aS'variable_10'
p3161
aS'->'
p3162
aS'variable_38'
p3163
aS'=='
p3164
aS'variable_48'
p3165
ag15
aS'if'
p3166
ag6
aS'variable_10'
p3167
aS'->'
p3168
aS'variable_49'
p3169
ag103
aS'variable_50'
p3170
ag15
aS'variable_17'
p3171
ag19
aS'variable_51'
p3172
ag22
aS'variable_17'
p3173
ag19
aS'variable_52'
p3174
ag22
aS'if'
p3175
ag6
aS'variable_7'
p3176
ag15
aS'variable_14'
p3177
ag19
ag75
aS'variable_53'
p3178
ag22
aS'if'
p3179
ag6
aS'memcmp'
p3180
ag6
aS'variable_21'
p3181
aS'->'
p3182
aS'variable_20'
p3183
ag82
aS'variable_25'
p3184
ag11
aS'variable_26'
p3185
ag11
aS'variable_27'
p3186
ag15
aS'!='
p3187
ag20
ag15
aS'if'
p3188
ag6
ag64
aS'func_9'
p3189
ag6
ag103
aS'variable_21'
p3190
aS'->'
p3191
aS'variable_20'
p3192
ag15
ag15
aS'variable_14'
p3193
ag19
aS'func_10'
p3194
ag6
aS'variable_1'
p3195
ag15
ag22
aS'if'
p3196
ag6
aS'variable_14'
p3197
ag15
aS'variable_14'
p3198
ag19
aS'func_11'
p3199
ag6
aS'variable_1'
p3200
ag11
aS'func_12'
p3201
ag6
aS'variable_54'
p3202
ag15
ag11
aS'variable_17'
p3203
ag15
ag22
aS'if'
p3204
ag6
aS'variable_14'
p3205
ag135
ag20
ag15
aS'for'
p3206
ag6
aS'variable_15'
p3207
ag19
ag20
ag11
aS'variable_10'
p3208
ag19
aS'variable_15'
p3209
ag135
aS'variable_21'
p3210
aS'->'
p3211
aS'variable_19'
p3212
ag82
aS'variable_35'
p3213
ag22
aS'variable_15'
p3214
aS'++'
p3215
ag11
aS'variable_10'
p3216
aS'++'
p3217
ag15
aS'int'
p3218
aS'variable_55'
p3219
ag19
ag20
ag11
aS'variable_56'
p3220
ag22
aS'unsigned'
p3221
aS'long'
p3222
aS'variable_57'
p3223
ag11
aS'variable_58'
p3224
ag22
aS'if'
p3225
ag6
aS'variable_10'
p3226
aS'->'
p3227
aS'variable_38'
p3228
aS'!='
p3229
aS'variable_59'
p3230
ag15
aS'if'
p3231
ag6
aS'func_13'
p3232
ag6
aS'variable_13'
p3233
ag142
aS'variable_12'
p3234
ag15
ag15
aS'unsigned'
p3235
aS'long'
p3236
aS'variable_60'
p3237
ag22
aS'variable_14'
p3238
ag19
aS'func_14'
p3239
ag6
aS'variable_12'
p3240
ag381
aS'variable_5'
p3241
ag11
aS'variable_13'
p3242
ag381
aS'variable_5'
p3243
ag15
ag22
aS'if'
p3244
ag6
aS'variable_14'
p3245
ag15
aS'variable_60'
p3246
ag19
aS'func_15'
p3247
ag6
aS'variable_12'
p3248
ag15
ag22
aS'if'
p3249
ag6
aS'variable_60'
p3250
ag15
aS'variable_60'
p3251
ag19
aS'variable_61'
p3252
ag75
aS'variable_60'
p3253
ag22
aS'if'
p3254
ag6
aS'variable_60'
p3255
ag142
aS'variable_13'
p3256
ag75
aS'variable_12'
p3257
ag15
aS'if'
p3258
ag6
aS'func_16'
p3259
ag6
ag6
aS'void'
p3260
aS'__user'
p3261
ag9
ag15
aS'variable_12'
p3262
ag381
aS'variable_5'
p3263
ag11
aS'variable_60'
p3264
ag15
ag15
aS'if'
p3265
ag6
aS'variable_10'
p3266
aS'->'
p3267
aS'variable_49'
p3268
ag103
aS'variable_62'
p3269
ag15
aS'variable_55'
p3270
ag267
ag19
aS'variable_63'
p3271
ag22
aS'if'
p3272
ag6
aS'variable_10'
p3273
aS'->'
p3274
aS'variable_49'
p3275
ag103
aS'variable_64'
p3276
ag15
aS'variable_55'
p3277
ag267
ag19
aS'variable_65'
p3278
ag22
aS'if'
p3279
ag6
aS'variable_10'
p3280
aS'->'
p3281
aS'variable_49'
p3282
ag103
aS'variable_50'
p3283
ag15
aS'variable_55'
p3284
ag267
ag19
aS'variable_66'
p3285
ag22
aS'variable_56'
p3286
ag19
aS'variable_67'
p3287
ag267
aS'variable_68'
p3288
ag267
aS'variable_69'
p3289
ag22
aS'variable_58'
p3290
ag19
aS'variable_10'
p3291
aS'->'
p3292
aS'variable_70'
p3293
ag22
aS'if'
p3294
ag6
aS'variable_21'
p3295
aS'->'
p3296
aS'variable_19'
p3297
ag82
aS'variable_28'
p3298
aS'=='
p3299
aS'variable_29'
p3300
aS'||'
p3301
aS'variable_6'
p3302
ag15
aS'variable_56'
p3303
ag267
ag19
aS'variable_71'
p3304
ag22
aS'if'
p3305
ag6
aS'variable_21'
p3306
aS'->'
p3307
aS'variable_19'
p3308
ag82
aS'variable_28'
p3309
aS'=='
p3310
aS'variable_30'
p3311
ag15
aS'variable_5'
p3312
ag19
ag20
ag22
aS'variable_8'
p3313
ag19
aS'func_17'
p3314
ag6
aS'variable_1'
p3315
aS'->'
p3316
aS'variable_31'
p3317
ag11
aS'variable_5'
p3318
ag381
aS'variable_58'
p3319
ag11
aS'variable_10'
p3320
ag11
aS'variable_55'
p3321
ag11
aS'variable_56'
p3322
ag11
ag20
ag15
ag22
aS'if'
p3323
ag6
aS'func_18'
p3324
ag6
aS'variable_8'
p3325
ag15
ag15
aS'if'
p3326
ag6
ag64
aS'variable_6'
p3327
ag15
aS'variable_6'
p3328
ag19
ag136
ag22
aS'if'
p3329
ag6
aS'variable_21'
p3330
aS'->'
p3331
aS'variable_19'
p3332
ag82
aS'variable_28'
p3333
aS'=='
p3334
aS'variable_30'
p3335
ag15
aS'variable_5'
p3336
aS'+='
p3337
aS'variable_8'
p3338
ag75
aS'func_19'
p3339
ag6
aS'variable_5'
p3340
ag381
aS'variable_58'
p3341
ag15
ag22
aS'variable_57'
p3342
ag19
aS'variable_10'
p3343
aS'->'
p3344
aS'variable_70'
p3345
ag22
aS'if'
p3346
ag6
aS'func_20'
p3347
ag6
aS'variable_57'
p3348
ag15
aS'||'
p3349
aS'variable_10'
p3350
aS'->'
p3351
aS'variable_40'
p3352
ag142
aS'variable_10'
p3353
aS'->'
p3354
aS'variable_72'
p3355
aS'||'
p3356
aS'variable_10'
p3357
aS'->'
p3358
aS'variable_72'
p3359
ag142
aS'variable_73'
p3360
aS'||'
p3361
aS'variable_73'
p3362
ag75
aS'variable_10'
p3363
aS'->'
p3364
aS'variable_72'
p3365
ag135
aS'variable_57'
p3366
ag15
aS'variable_57'
p3367
ag19
aS'variable_10'
p3368
aS'->'
p3369
aS'variable_70'
p3370
ag381
aS'variable_10'
p3371
aS'->'
p3372
aS'variable_40'
p3373
ag22
aS'if'
p3374
ag6
aS'variable_57'
p3375
ag142
aS'variable_12'
p3376
ag15
aS'variable_12'
p3377
ag19
aS'variable_57'
p3378
ag22
aS'variable_57'
p3379
ag19
aS'variable_10'
p3380
aS'->'
p3381
aS'variable_70'
p3382
ag381
aS'variable_10'
p3383
aS'->'
p3384
aS'variable_72'
p3385
ag22
aS'if'
p3386
ag6
aS'variable_57'
p3387
ag142
aS'variable_13'
p3388
ag15
aS'variable_13'
p3389
ag19
aS'variable_57'
p3390
ag22
aa(lp3391
S'static'
p3392
aS'int'
p3393
aS'func_0'
p3394
ag6
aS'struct'
p3395
aS'variable_0'
p3396
ag9
aS'variable_1'
p3397
ag11
aS'struct'
p3398
aS'variable_2'
p3399
ag9
aS'variable_3'
p3400
ag15
aS'unsigned'
p3401
aS'long'
p3402
aS'variable_4'
p3403
ag19
ag20
ag11
aS'variable_5'
p3404
ag19
ag20
ag22
aS'int'
p3405
aS'variable_6'
p3406
ag19
ag20
ag22
aS'char'
p3407
ag9
aS'variable_7'
p3408
ag19
aS'NULL'
p3409
ag22
aS'unsigned'
p3410
aS'long'
p3411
aS'variable_8'
p3412
ag22
aS'struct'
p3413
aS'variable_9'
p3414
ag9
aS'variable_10'
p3415
ag11
ag9
aS'variable_11'
p3416
ag22
aS'unsigned'
p3417
aS'long'
p3418
aS'variable_12'
p3419
ag11
aS'variable_13'
p3420
ag22
aS'int'
p3421
aS'variable_14'
p3422
ag11
aS'variable_15'
p3423
ag22
aS'unsigned'
p3424
aS'int'
p3425
aS'variable_16'
p3426
ag22
aS'int'
p3427
aS'variable_17'
p3428
ag19
aS'variable_18'
p3429
ag22
aS'struct'
p3430
ag49
aS'struct'
p3431
aS'elfhdr'
p3432
aS'variable_19'
p3433
ag22
aS'struct'
p3434
aS'elfhdr'
p3435
aS'variable_20'
p3436
ag22
ag56
ag9
aS'variable_21'
p3437
ag22
aS'variable_21'
p3438
ag19
aS'kmalloc'
p3439
ag6
aS'sizeof'
p3440
ag6
ag9
aS'variable_21'
p3441
ag15
ag11
aS'variable_22'
p3442
ag15
ag22
aS'if'
p3443
ag6
ag64
aS'variable_21'
p3444
ag15
aS'variable_21'
p3445
aS'->'
p3446
aS'variable_19'
p3447
ag19
ag9
ag6
ag6
aS'struct'
p3448
aS'elfhdr'
p3449
ag9
ag15
aS'variable_1'
p3450
aS'->'
p3451
aS'variable_23'
p3452
ag15
ag22
aS'variable_14'
p3453
ag19
ag75
aS'variable_24'
p3454
ag22
aS'if'
p3455
ag6
aS'memcmp'
p3456
ag6
aS'variable_21'
p3457
aS'->'
p3458
aS'variable_19'
p3459
ag82
aS'variable_25'
p3460
ag11
aS'variable_26'
p3461
ag11
aS'variable_27'
p3462
ag15
aS'!='
p3463
ag20
ag15
aS'if'
p3464
ag6
aS'variable_21'
p3465
aS'->'
p3466
aS'variable_19'
p3467
ag82
aS'variable_28'
p3468
aS'!='
p3469
aS'variable_29'
p3470
aS'&&'
p3471
aS'variable_21'
p3472
aS'->'
p3473
aS'variable_19'
p3474
ag82
aS'variable_28'
p3475
aS'!='
p3476
aS'variable_30'
p3477
ag15
aS'if'
p3478
ag6
ag64
aS'func_1'
p3479
ag6
ag103
aS'variable_21'
p3480
aS'->'
p3481
aS'variable_19'
p3482
ag15
ag15
aS'if'
p3483
ag6
ag64
aS'variable_1'
p3484
aS'->'
p3485
aS'variable_31'
p3486
aS'->'
p3487
aS'variable_32'
p3488
aS'||'
p3489
ag64
aS'variable_1'
p3490
aS'->'
p3491
aS'variable_31'
p3492
aS'->'
p3493
aS'variable_32'
p3494
aS'->'
p3495
aS'variable_33'
p3496
ag15
aS'if'
p3497
ag6
aS'variable_21'
p3498
aS'->'
p3499
aS'variable_19'
p3500
ag82
aS'variable_34'
p3501
aS'!='
p3502
aS'sizeof'
p3503
ag6
aS'struct'
p3504
aS'variable_9'
p3505
ag15
ag15
aS'if'
p3506
ag6
aS'variable_21'
p3507
aS'->'
p3508
aS'variable_19'
p3509
ag82
aS'variable_35'
p3510
ag135
ag136
aS'||'
p3511
aS'variable_21'
p3512
aS'->'
p3513
aS'variable_19'
p3514
ag82
aS'variable_35'
p3515
ag142
aS'65536U'
p3516
ag144
aS'sizeof'
p3517
ag6
aS'struct'
p3518
aS'variable_9'
p3519
ag15
ag15
aS'variable_16'
p3520
ag19
aS'variable_21'
p3521
aS'->'
p3522
aS'variable_19'
p3523
ag82
aS'variable_35'
p3524
ag9
aS'sizeof'
p3525
ag6
aS'struct'
p3526
aS'variable_9'
p3527
ag15
ag22
aS'variable_14'
p3528
ag19
ag75
aS'variable_36'
p3529
ag22
aS'variable_11'
p3530
ag19
aS'kmalloc'
p3531
ag6
aS'variable_16'
p3532
ag11
aS'variable_22'
p3533
ag15
ag22
aS'if'
p3534
ag6
ag64
aS'variable_11'
p3535
ag15
aS'variable_14'
p3536
ag19
aS'func_2'
p3537
ag6
aS'variable_1'
p3538
aS'->'
p3539
aS'variable_31'
p3540
ag11
aS'variable_21'
p3541
aS'->'
p3542
aS'variable_19'
p3543
ag82
aS'variable_37'
p3544
ag11
ag6
aS'char'
p3545
ag9
ag15
aS'variable_11'
p3546
ag11
aS'variable_16'
p3547
ag15
ag22
aS'if'
p3548
ag6
aS'variable_14'
p3549
aS'!='
p3550
aS'variable_16'
p3551
ag15
aS'variable_10'
p3552
ag19
aS'variable_11'
p3553
ag22
aS'variable_12'
p3554
ag19
ag20
ag22
aS'variable_13'
p3555
ag19
ag20
ag22
aS'for'
p3556
ag6
aS'variable_15'
p3557
ag19
ag20
ag22
aS'variable_15'
p3558
ag135
aS'variable_21'
p3559
aS'->'
p3560
aS'variable_19'
p3561
ag82
aS'variable_35'
p3562
ag22
aS'variable_15'
p3563
aS'++'
p3564
ag15
aS'if'
p3565
ag6
aS'variable_10'
p3566
aS'->'
p3567
aS'variable_38'
p3568
aS'=='
p3569
aS'variable_39'
p3570
ag15
aS'variable_14'
p3571
ag19
ag75
aS'variable_24'
p3572
ag22
aS'if'
p3573
ag6
aS'variable_10'
p3574
aS'->'
p3575
aS'variable_40'
p3576
ag142
aS'variable_41'
p3577
aS'||'
p3578
aS'variable_10'
p3579
aS'->'
p3580
aS'variable_40'
p3581
ag135
ag210
ag15
aS'variable_14'
p3582
ag19
ag75
aS'variable_36'
p3583
ag22
aS'variable_7'
p3584
ag19
aS'kmalloc'
p3585
ag6
aS'variable_10'
p3586
aS'->'
p3587
aS'variable_40'
p3588
ag11
aS'variable_22'
p3589
ag15
ag22
aS'if'
p3590
ag6
ag64
aS'variable_7'
p3591
ag15
aS'variable_14'
p3592
ag19
aS'func_3'
p3593
ag6
aS'variable_1'
p3594
aS'->'
p3595
aS'variable_31'
p3596
ag11
aS'variable_10'
p3597
aS'->'
p3598
aS'variable_42'
p3599
ag11
aS'variable_7'
p3600
ag11
aS'variable_10'
p3601
aS'->'
p3602
aS'variable_40'
p3603
ag15
ag22
aS'if'
p3604
ag6
aS'variable_14'
p3605
aS'!='
p3606
aS'variable_10'
p3607
aS'->'
p3608
aS'variable_40'
p3609
ag15
aS'variable_14'
p3610
ag19
ag75
aS'variable_24'
p3611
ag22
aS'if'
p3612
ag6
aS'variable_7'
p3613
ag243
aS'variable_10'
p3614
aS'->'
p3615
aS'variable_40'
p3616
ag75
ag136
ag247
aS'!='
p3617
ag249
ag250
ag20
ag249
ag15
aS'variable_43'
p3618
ag19
aS'func_4'
p3619
ag6
aS'variable_7'
p3620
ag15
ag22
aS'variable_14'
p3621
ag19
aS'func_5'
p3622
ag6
aS'variable_43'
p3623
ag15
ag22
aS'if'
p3624
ag6
aS'func_6'
p3625
ag6
aS'variable_43'
p3626
ag15
ag15
aS'if'
p3627
ag6
aS'func_7'
p3628
ag6
aS'variable_43'
p3629
ag11
aS'variable_44'
p3630
ag15
ag135
ag20
ag15
aS'variable_1'
p3631
aS'->'
p3632
aS'variable_45'
p3633
ag267
ag19
aS'variable_46'
p3634
ag22
aS'variable_14'
p3635
ag19
aS'func_8'
p3636
ag6
aS'variable_43'
p3637
ag11
ag20
ag11
aS'variable_1'
p3638
aS'->'
p3639
aS'variable_23'
p3640
ag11
aS'variable_47'
p3641
ag15
ag22
aS'if'
p3642
ag6
aS'variable_14'
p3643
aS'!='
p3644
aS'variable_47'
p3645
ag15
aS'variable_21'
p3646
aS'->'
p3647
aS'variable_20'
p3648
ag19
ag9
ag6
ag6
aS'struct'
p3649
aS'elfhdr'
p3650
ag9
ag15
aS'variable_1'
p3651
aS'->'
p3652
aS'variable_23'
p3653
ag15
ag22
aS'variable_10'
p3654
aS'++'
p3655
ag22
aS'variable_10'
p3656
ag19
aS'variable_11'
p3657
ag22
aS'for'
p3658
ag6
aS'variable_15'
p3659
ag19
ag20
ag22
aS'variable_15'
p3660
ag135
aS'variable_21'
p3661
aS'->'
p3662
aS'variable_19'
p3663
ag82
aS'variable_35'
p3664
ag22
aS'variable_15'
p3665
aS'++'
p3666
ag11
aS'variable_10'
p3667
aS'++'
p3668
ag15
aS'if'
p3669
ag6
aS'variable_10'
p3670
aS'->'
p3671
aS'variable_38'
p3672
aS'=='
p3673
aS'variable_48'
p3674
ag15
aS'if'
p3675
ag6
aS'variable_10'
p3676
aS'->'
p3677
aS'variable_49'
p3678
ag103
aS'variable_50'
p3679
ag15
aS'variable_17'
p3680
ag19
aS'variable_51'
p3681
ag22
aS'variable_17'
p3682
ag19
aS'variable_52'
p3683
ag22
aS'if'
p3684
ag6
aS'variable_7'
p3685
ag15
aS'variable_14'
p3686
ag19
ag75
aS'variable_53'
p3687
ag22
aS'if'
p3688
ag6
aS'memcmp'
p3689
ag6
aS'variable_21'
p3690
aS'->'
p3691
aS'variable_20'
p3692
ag82
aS'variable_25'
p3693
ag11
aS'variable_26'
p3694
ag11
aS'variable_27'
p3695
ag15
aS'!='
p3696
ag20
ag15
aS'if'
p3697
ag6
ag64
aS'func_9'
p3698
ag6
ag103
aS'variable_21'
p3699
aS'->'
p3700
aS'variable_20'
p3701
ag15
ag15
aS'variable_14'
p3702
ag19
aS'func_10'
p3703
ag6
aS'variable_1'
p3704
ag15
ag22
aS'if'
p3705
ag6
aS'variable_14'
p3706
ag15
aS'variable_14'
p3707
ag19
aS'func_11'
p3708
ag6
aS'variable_1'
p3709
ag11
aS'func_12'
p3710
ag6
aS'variable_54'
p3711
ag15
ag11
aS'variable_17'
p3712
ag15
ag22
aS'if'
p3713
ag6
aS'variable_14'
p3714
ag135
ag20
ag15
aS'for'
p3715
ag6
aS'variable_15'
p3716
ag19
ag20
ag11
aS'variable_10'
p3717
ag19
aS'variable_15'
p3718
ag135
aS'variable_21'
p3719
aS'->'
p3720
aS'variable_19'
p3721
ag82
aS'variable_35'
p3722
ag22
aS'variable_15'
p3723
aS'++'
p3724
ag11
aS'variable_10'
p3725
aS'++'
p3726
ag15
aS'int'
p3727
aS'variable_55'
p3728
ag19
ag20
ag11
aS'variable_56'
p3729
ag22
aS'unsigned'
p3730
aS'long'
p3731
aS'variable_57'
p3732
ag11
aS'variable_58'
p3733
ag22
aS'if'
p3734
ag6
aS'variable_10'
p3735
aS'->'
p3736
aS'variable_38'
p3737
aS'!='
p3738
aS'variable_59'
p3739
ag15
aS'if'
p3740
ag6
aS'func_13'
p3741
ag6
aS'variable_13'
p3742
ag142
aS'variable_12'
p3743
ag15
ag15
aS'variable_14'
p3744
ag19
aS'func_14'
p3745
ag6
aS'variable_12'
p3746
ag381
aS'variable_5'
p3747
ag11
aS'variable_13'
p3748
ag381
aS'variable_5'
p3749
ag15
ag22
aS'if'
p3750
ag6
aS'variable_14'
p3751
ag15
aS'if'
p3752
ag6
aS'variable_10'
p3753
aS'->'
p3754
aS'variable_49'
p3755
ag103
aS'variable_60'
p3756
ag15
aS'variable_55'
p3757
ag267
ag19
aS'variable_61'
p3758
ag22
aS'if'
p3759
ag6
aS'variable_10'
p3760
aS'->'
p3761
aS'variable_49'
p3762
ag103
aS'variable_62'
p3763
ag15
aS'variable_55'
p3764
ag267
ag19
aS'variable_63'
p3765
ag22
aS'if'
p3766
ag6
aS'variable_10'
p3767
aS'->'
p3768
aS'variable_49'
p3769
ag103
aS'variable_50'
p3770
ag15
aS'variable_55'
p3771
ag267
ag19
aS'variable_64'
p3772
ag22
aS'variable_56'
p3773
ag19
aS'variable_65'
p3774
ag267
aS'variable_66'
p3775
ag267
aS'variable_67'
p3776
ag22
aS'variable_58'
p3777
ag19
aS'variable_10'
p3778
aS'->'
p3779
aS'variable_68'
p3780
ag22
aS'if'
p3781
ag6
aS'variable_21'
p3782
aS'->'
p3783
aS'variable_19'
p3784
ag82
aS'variable_28'
p3785
aS'=='
p3786
aS'variable_29'
p3787
aS'||'
p3788
aS'variable_6'
p3789
ag15
aS'variable_56'
p3790
ag267
ag19
aS'variable_69'
p3791
ag22
aS'if'
p3792
ag6
aS'variable_21'
p3793
aS'->'
p3794
aS'variable_19'
p3795
ag82
aS'variable_28'
p3796
aS'=='
p3797
aS'variable_30'
p3798
ag15
aS'variable_5'
p3799
ag19
ag20
ag22
aS'variable_8'
p3800
ag19
aS'func_15'
p3801
ag6
aS'variable_1'
p3802
aS'->'
p3803
aS'variable_31'
p3804
ag11
aS'variable_5'
p3805
ag381
aS'variable_58'
p3806
ag11
aS'variable_10'
p3807
ag11
aS'variable_55'
p3808
ag11
aS'variable_56'
p3809
ag11
ag20
ag15
ag22
aS'if'
p3810
ag6
aS'func_16'
p3811
ag6
aS'variable_8'
p3812
ag15
ag15
aS'if'
p3813
ag6
ag64
aS'variable_6'
p3814
ag15
aS'variable_6'
p3815
ag19
ag136
ag22
aS'if'
p3816
ag6
aS'variable_21'
p3817
aS'->'
p3818
aS'variable_19'
p3819
ag82
aS'variable_28'
p3820
aS'=='
p3821
aS'variable_30'
p3822
ag15
aS'variable_5'
p3823
aS'+='
p3824
aS'variable_8'
p3825
ag75
aS'func_17'
p3826
ag6
aS'variable_5'
p3827
ag381
aS'variable_58'
p3828
ag15
ag22
aS'variable_57'
p3829
ag19
aS'variable_10'
p3830
aS'->'
p3831
aS'variable_68'
p3832
ag22
aS'if'
p3833
ag6
aS'func_18'
p3834
ag6
aS'variable_57'
p3835
ag15
aS'||'
p3836
aS'variable_10'
p3837
aS'->'
p3838
aS'variable_40'
p3839
ag142
aS'variable_10'
p3840
aS'->'
p3841
aS'variable_70'
p3842
aS'||'
p3843
aS'variable_10'
p3844
aS'->'
p3845
aS'variable_70'
p3846
ag142
aS'variable_71'
p3847
aS'||'
p3848
aS'variable_71'
p3849
ag75
aS'variable_10'
p3850
aS'->'
p3851
aS'variable_70'
p3852
ag135
aS'variable_57'
p3853
ag15
aS'variable_57'
p3854
ag19
aS'variable_10'
p3855
aS'->'
p3856
aS'variable_68'
p3857
ag381
aS'variable_10'
p3858
aS'->'
p3859
aS'variable_40'
p3860
ag22
aS'if'
p3861
ag6
aS'variable_57'
p3862
ag142
aS'variable_12'
p3863
ag15
aS'variable_12'
p3864
ag19
aS'variable_57'
p3865
ag22
aS'variable_57'
p3866
ag19
aS'variable_10'
p3867
aS'->'
p3868
aS'variable_68'
p3869
ag381
aS'variable_10'
p3870
aS'->'
p3871
aS'variable_70'
p3872
ag22
aS'if'
p3873
ag6
aS'variable_57'
p3874
ag142
aS'variable_13'
p3875
ag15
aS'variable_13'
p3876
ag19
aS'variable_57'
p3877
ag22
aS'if'
p3878
ag6
aS'variable_14'
p3879
ag15
aS'if'
p3880
ag6
aS'variable_14'
p3881
ag135
ag20
ag15
aS'if'
p3882
ag6
aS'variable_14'
p3883
ag135
ag20
ag15
aS'return'
p3884
aS'variable_14'
p3885
ag22
aa(lp3886
S'static'
p3887
aS'int'
p3888
aS'func_0'
p3889
ag6
aS'struct'
p3890
aS'variable_0'
p3891
ag9
aS'variable_1'
p3892
ag11
aS'struct'
p3893
aS'variable_2'
p3894
ag9
aS'variable_3'
p3895
ag15
aS'unsigned'
p3896
aS'int'
p3897
aS'variable_4'
p3898
ag22
aS'struct'
p3899
ag49
aS'struct'
p3900
aS'elfhdr'
p3901
aS'variable_5'
p3902
ag22
aS'struct'
p3903
aS'elfhdr'
p3904
aS'variable_6'
p3905
ag22
ag56
ag9
aS'variable_7'
p3906
ag22
aS'variable_7'
p3907
ag19
aS'kmalloc'
p3908
ag6
aS'sizeof'
p3909
ag6
ag9
aS'variable_7'
p3910
ag15
ag11
aS'variable_8'
p3911
ag15
ag22
aS'if'
p3912
ag6
ag64
aS'variable_7'
p3913
ag15
aS'variable_7'
p3914
aS'->'
p3915
aS'variable_5'
p3916
ag19
ag9
ag6
ag6
aS'struct'
p3917
aS'elfhdr'
p3918
ag9
ag15
aS'variable_1'
p3919
aS'->'
p3920
aS'variable_9'
p3921
ag15
ag22
aS'if'
p3922
ag6
aS'memcmp'
p3923
ag6
aS'variable_7'
p3924
aS'->'
p3925
aS'variable_5'
p3926
ag82
aS'variable_10'
p3927
ag11
aS'variable_11'
p3928
ag11
aS'variable_12'
p3929
ag15
aS'!='
p3930
ag20
ag15
aS'if'
p3931
ag6
aS'variable_7'
p3932
aS'->'
p3933
aS'variable_5'
p3934
ag82
aS'variable_13'
p3935
aS'!='
p3936
aS'variable_14'
p3937
aS'&&'
p3938
aS'variable_7'
p3939
aS'->'
p3940
aS'variable_5'
p3941
ag82
aS'variable_13'
p3942
aS'!='
p3943
aS'variable_15'
p3944
ag15
aS'if'
p3945
ag6
ag64
aS'func_1'
p3946
ag6
ag103
aS'variable_7'
p3947
aS'->'
p3948
aS'variable_5'
p3949
ag15
ag15
aS'if'
p3950
ag6
ag64
aS'variable_1'
p3951
aS'->'
p3952
aS'variable_16'
p3953
aS'->'
p3954
aS'variable_17'
p3955
aS'||'
p3956
ag64
aS'variable_1'
p3957
aS'->'
p3958
aS'variable_16'
p3959
aS'->'
p3960
aS'variable_17'
p3961
aS'->'
p3962
aS'variable_18'
p3963
ag15
aS'if'
p3964
ag6
aS'variable_7'
p3965
aS'->'
p3966
aS'variable_5'
p3967
ag82
aS'variable_19'
p3968
aS'!='
p3969
aS'sizeof'
p3970
ag6
aS'struct'
p3971
aS'variable_20'
p3972
ag15
ag15
aS'if'
p3973
ag6
aS'variable_7'
p3974
aS'->'
p3975
aS'variable_5'
p3976
ag82
aS'variable_21'
p3977
ag135
ag136
aS'||'
p3978
aS'variable_7'
p3979
aS'->'
p3980
aS'variable_5'
p3981
ag82
aS'variable_21'
p3982
ag142
aS'65536U'
p3983
ag144
aS'sizeof'
p3984
ag6
aS'struct'
p3985
aS'variable_20'
p3986
ag15
ag15
aS'variable_4'
p3987
ag19
aS'variable_7'
p3988
aS'->'
p3989
aS'variable_5'
p3990
ag82
aS'variable_21'
p3991
ag9
aS'sizeof'
p3992
ag6
aS'struct'
p3993
aS'variable_20'
p3994
ag15
ag22
aS'variable_22'
p3995
ag19
aS'kmalloc'
p3996
ag6
aS'variable_4'
p3997
ag11
aS'variable_8'
p3998
ag15
ag22
aS'if'
p3999
ag6
ag64
aS'variable_22'
p4000
ag15
aS'variable_23'
p4001
ag19
aS'func_2'
p4002
ag6
aS'variable_1'
p4003
aS'->'
p4004
aS'variable_16'
p4005
ag11
aS'variable_7'
p4006
aS'->'
p4007
aS'variable_5'
p4008
ag82
aS'variable_24'
p4009
ag11
ag6
aS'char'
p4010
ag9
ag15
aS'variable_22'
p4011
ag11
aS'variable_4'
p4012
ag15
ag22
aS'if'
p4013
ag6
aS'variable_23'
p4014
aS'!='
p4015
aS'variable_4'
p4016
ag15
aS'if'
p4017
ag6
aS'variable_23'
p4018
ag142
ag19
ag20
ag15
aS'variable_25'
p4019
ag19
aS'variable_22'
p4020
ag22
aS'if'
p4021
ag6
aS'variable_25'
p4022
aS'->'
p4023
aS'variable_26'
p4024
aS'=='
p4025
aS'variable_27'
p4026
ag15
aS'if'
p4027
ag6
aS'variable_25'
p4028
aS'->'
p4029
aS'variable_28'
p4030
ag142
aS'variable_29'
p4031
aS'||'
p4032
aS'variable_25'
p4033
aS'->'
p4034
aS'variable_28'
p4035
ag135
ag210
ag15
aS'variable_30'
p4036
ag19
aS'kmalloc'
p4037
ag6
aS'variable_25'
p4038
aS'->'
p4039
aS'variable_28'
p4040
ag11
aS'variable_8'
p4041
ag15
ag22
aS'if'
p4042
ag6
ag64
aS'variable_30'
p4043
ag15
aS'variable_23'
p4044
ag19
aS'func_3'
p4045
ag6
aS'variable_1'
p4046
aS'->'
p4047
aS'variable_16'
p4048
ag11
aS'variable_25'
p4049
aS'->'
p4050
aS'variable_31'
p4051
ag11
aS'variable_30'
p4052
ag11
aS'variable_25'
p4053
aS'->'
p4054
aS'variable_28'
p4055
ag15
ag22
aS'if'
p4056
ag6
aS'variable_23'
p4057
aS'!='
p4058
aS'variable_25'
p4059
aS'->'
p4060
aS'variable_28'
p4061
ag15
aS'if'
p4062
ag6
aS'variable_23'
p4063
ag142
ag19
ag20
ag15
aS'if'
p4064
ag6
aS'variable_30'
p4065
ag243
aS'variable_25'
p4066
aS'->'
p4067
aS'variable_28'
p4068
ag75
ag136
ag247
aS'!='
p4069
ag249
ag250
ag20
ag249
ag15
aS'variable_32'
p4070
ag19
aS'func_4'
p4071
ag6
aS'variable_30'
p4072
ag15
ag22
aS'variable_23'
p4073
ag19
aS'func_5'
p4074
ag6
aS'variable_32'
p4075
ag15
ag22
aS'if'
p4076
ag6
aS'func_6'
p4077
ag6
aS'variable_32'
p4078
ag15
ag15
aS'if'
p4079
ag6
aS'func_7'
p4080
ag6
aS'variable_32'
p4081
ag11
aS'variable_33'
p4082
ag15
ag135
ag20
ag15
aS'variable_23'
p4083
ag19
aS'func_8'
p4084
ag6
aS'variable_32'
p4085
ag11
ag20
ag11
aS'variable_1'
p4086
aS'->'
p4087
aS'variable_9'
p4088
ag11
aS'variable_34'
p4089
ag15
ag22
aS'if'
p4090
ag6
aS'variable_23'
p4091
aS'!='
p4092
aS'variable_34'
p4093
ag15
aS'if'
p4094
ag6
aS'variable_23'
p4095
ag142
ag19
ag20
ag15
aS'variable_25'
p4096
aS'++'
p4097
ag22
aS'variable_25'
p4098
ag19
aS'variable_22'
p4099
ag22
aS'for'
p4100
ag6
aS'variable_35'
p4101
ag19
ag20
ag22
aS'variable_35'
p4102
ag135
aS'variable_7'
p4103
aS'->'
p4104
aS'variable_5'
p4105
ag82
aS'variable_21'
p4106
ag22
aS'variable_35'
p4107
aS'++'
p4108
ag11
aS'variable_25'
p4109
aS'++'
p4110
ag15
aS'if'
p4111
ag6
aS'variable_25'
p4112
aS'->'
p4113
aS'variable_26'
p4114
aS'=='
p4115
aS'variable_36'
p4116
ag15
aS'if'
p4117
ag6
aS'variable_25'
p4118
aS'->'
p4119
aS'variable_37'
p4120
ag103
aS'variable_38'
p4121
ag15
aS'if'
p4122
ag6
aS'variable_30'
p4123
ag15
aS'if'
p4124
ag6
aS'variable_23'
p4125
ag15
aS'if'
p4126
ag6
aS'variable_23'
p4127
ag135
ag20
ag15
aS'for'
p4128
ag6
aS'variable_35'
p4129
ag19
ag20
ag11
aS'variable_25'
p4130
ag19
aS'variable_35'
p4131
ag135
aS'variable_7'
p4132
aS'->'
p4133
aS'variable_5'
p4134
ag82
aS'variable_21'
p4135
ag22
aS'variable_35'
p4136
aS'++'
p4137
ag11
aS'variable_25'
p4138
aS'++'
p4139
ag15
aS'if'
p4140
ag6
aS'variable_25'
p4141
aS'->'
p4142
aS'variable_26'
p4143
aS'!='
p4144
aS'variable_39'
p4145
ag15
aS'if'
p4146
ag6
aS'func_9'
p4147
ag6
aS'variable_40'
p4148
ag142
aS'variable_41'
p4149
ag15
ag15
aS'variable_23'
p4150
ag19
aS'func_10'
p4151
ag6
aS'variable_41'
p4152
ag381
aS'variable_42'
p4153
ag11
aS'variable_40'
p4154
ag381
aS'variable_42'
p4155
ag15
ag22
aS'if'
p4156
ag6
aS'variable_23'
p4157
ag15
aS'variable_43'
p4158
ag19
aS'func_11'
p4159
ag6
aS'variable_41'
p4160
ag15
ag22
aS'if'
p4161
ag6
aS'variable_43'
p4162
ag15
aS'variable_43'
p4163
ag19
aS'variable_44'
p4164
ag75
aS'variable_43'
p4165
ag22
aS'if'
p4166
ag6
aS'variable_43'
p4167
ag142
aS'variable_40'
p4168
ag75
aS'variable_41'
p4169
ag15
aS'variable_43'
p4170
ag19
aS'variable_40'
p4171
ag75
aS'variable_41'
p4172
ag22
aS'if'
p4173
ag6
aS'func_12'
p4174
ag6
ag6
aS'void'
p4175
aS'__user'
p4176
ag9
ag15
aS'variable_41'
p4177
ag381
aS'variable_42'
p4178
ag11
aS'variable_43'
p4179
ag15
ag15
aS'if'
p4180
ag6
aS'variable_25'
p4181
aS'->'
p4182
aS'variable_37'
p4183
ag103
aS'variable_45'
p4184
ag15
aS'if'
p4185
ag6
aS'variable_25'
p4186
aS'->'
p4187
aS'variable_37'
p4188
ag103
aS'variable_46'
p4189
ag15
aS'if'
p4190
ag6
aS'variable_25'
p4191
aS'->'
p4192
aS'variable_37'
p4193
ag103
aS'variable_38'
p4194
ag15
aS'variable_47'
p4195
ag19
aS'variable_25'
p4196
aS'->'
p4197
aS'variable_48'
p4198
ag22
aS'variable_49'
p4199
ag19
aS'func_13'
p4200
ag6
aS'variable_1'
p4201
aS'->'
p4202
aS'variable_16'
p4203
ag11
aS'variable_42'
p4204
ag381
aS'variable_47'
p4205
ag11
aS'variable_25'
p4206
ag11
aS'variable_50'
p4207
ag11
aS'variable_51'
p4208
ag11
ag20
ag15
ag22
aS'if'
p4209
ag6
aS'func_14'
p4210
ag6
aS'variable_49'
p4211
ag15
ag15
aS'variable_23'
p4212
ag19
aS'func_15'
p4213
ag6
ag6
aS'void'
p4214
ag9
ag15
aS'variable_49'
p4215
ag15
ag2120
aS'func_16'
p4216
ag6
ag6
aS'void'
p4217
ag9
ag15
aS'variable_49'
p4218
ag15
ag2124
ag75
aS'variable_52'
p4219
ag22
aS'variable_53'
p4220
ag19
ag6
aS'variable_25'
p4221
aS'->'
p4222
aS'variable_48'
p4223
ag75
aS'variable_25'
p4224
aS'->'
p4225
aS'variable_31'
p4226
ag15
ag22
aS'variable_42'
p4227
aS'+='
p4228
aS'variable_49'
p4229
ag75
aS'func_17'
p4230
ag6
aS'variable_42'
p4231
ag381
aS'variable_47'
p4232
ag15
ag22
aS'variable_53'
p4233
aS'+='
p4234
aS'variable_42'
p4235
ag22
aS'variable_54'
p4236
ag19
aS'variable_42'
p4237
ag22
aS'variable_55'
p4238
ag19
aS'variable_25'
p4239
aS'->'
p4240
aS'variable_48'
p4241
ag22
aS'if'
p4242
ag6
aS'variable_55'
p4243
ag135
aS'variable_56'
p4244
ag15
aS'variable_56'
p4245
ag19
aS'variable_55'
p4246
ag22
aS'if'
p4247
ag6
aS'variable_57'
p4248
ag135
aS'variable_55'
p4249
ag15
aS'variable_57'
p4250
ag19
aS'variable_55'
p4251
ag22
aS'if'
p4252
ag6
aS'func_18'
p4253
ag6
aS'variable_55'
p4254
ag15
aS'||'
p4255
aS'variable_25'
p4256
aS'->'
p4257
aS'variable_28'
p4258
ag142
aS'variable_25'
p4259
aS'->'
p4260
aS'variable_58'
p4261
aS'||'
p4262
aS'variable_25'
p4263
aS'->'
p4264
aS'variable_58'
p4265
ag142
aS'variable_59'
p4266
aS'||'
p4267
aS'variable_59'
p4268
ag75
aS'variable_25'
p4269
aS'->'
p4270
aS'variable_58'
p4271
ag135
aS'variable_55'
p4272
ag15
aS'variable_55'
p4273
ag19
aS'variable_25'
p4274
aS'->'
p4275
aS'variable_48'
p4276
ag381
aS'variable_25'
p4277
aS'->'
p4278
aS'variable_28'
p4279
ag22
aS'if'
p4280
ag6
aS'variable_55'
p4281
ag142
aS'variable_41'
p4282
ag15
aS'variable_41'
p4283
ag19
aS'variable_55'
p4284
ag22
aS'if'
p4285
ag6
ag6
aS'variable_25'
p4286
aS'->'
p4287
aS'variable_37'
p4288
ag103
aS'variable_38'
p4289
ag15
aS'&&'
p4290
aS'variable_60'
p4291
ag135
aS'variable_55'
p4292
ag15
aS'variable_60'
p4293
ag19
aS'variable_55'
p4294
ag22
aS'if'
p4295
ag6
aS'variable_61'
p4296
ag135
aS'variable_55'
p4297
ag15
aS'variable_61'
p4298
ag19
aS'variable_55'
p4299
ag22
aS'variable_55'
p4300
ag19
aS'variable_25'
p4301
aS'->'
p4302
aS'variable_48'
p4303
ag381
aS'variable_25'
p4304
aS'->'
p4305
aS'variable_58'
p4306
ag22
aS'if'
p4307
ag6
aS'variable_55'
p4308
ag142
aS'variable_40'
p4309
ag15
aS'variable_40'
p4310
ag19
aS'variable_55'
p4311
ag22
aS'variable_7'
p4312
aS'->'
p4313
aS'variable_5'
p4314
ag82
aS'variable_62'
p4315
aS'+='
p4316
aS'variable_42'
p4317
ag22
aS'variable_41'
p4318
aS'+='
p4319
aS'variable_42'
p4320
ag22
aS'variable_40'
p4321
aS'+='
p4322
aS'variable_42'
p4323
ag22
aS'variable_56'
p4324
aS'+='
p4325
aS'variable_42'
p4326
ag22
aS'variable_60'
p4327
aS'+='
p4328
aS'variable_42'
p4329
ag22
aS'variable_57'
p4330
aS'+='
p4331
aS'variable_42'
p4332
ag22
aS'variable_61'
p4333
aS'+='
p4334
aS'variable_42'
p4335
ag22
aS'variable_23'
p4336
ag19
aS'func_19'
p4337
ag6
aS'variable_41'
p4338
ag11
aS'variable_40'
p4339
ag15
ag22
aS'if'
p4340
ag6
aS'variable_23'
p4341
ag15
aS'if'
p4342
ag6
aS'func_20'
p4343
ag6
aS'variable_41'
p4344
aS'!='
p4345
aS'variable_40'
p4346
ag15
aS'&&'
p4347
aS'func_21'
p4348
ag6
aS'func_22'
p4349
ag6
aS'variable_41'
p4350
ag15
ag15
ag15
aS'if'
p4351
ag6
aS'variable_30'
p4352
ag15
aS'variable_63'
p4353
ag19
aS'func_23'
p4354
ag6
ag103
aS'variable_7'
p4355
aS'->'
p4356
aS'variable_6'
p4357
ag11
aS'variable_32'
p4358
ag11
ag103
aS'variable_64'
p4359
ag11
aS'variable_42'
p4360
ag15
ag22
aS'if'
p4361
ag6
ag64
aS'func_24'
p4362
ag6
ag6
aS'void'
p4363
ag9
ag15
aS'variable_63'
p4364
ag15
ag15
aS'variable_65'
p4365
ag19
aS'variable_63'
p4366
ag22
aS'variable_63'
p4367
aS'+='
p4368
aS'variable_7'
p4369
aS'->'
p4370
aS'variable_6'
p4371
ag82
aS'variable_62'
p4372
ag22
aS'if'
p4373
ag6
aS'func_25'
p4374
ag6
aS'variable_63'
p4375
ag15
ag15
aS'variable_23'
p4376
ag19
aS'func_26'
p4377
ag6
ag6
aS'void'
p4378
ag9
ag15
aS'variable_63'
p4379
ag15
ag2120
ag6
aS'int'
p4380
ag15
aS'variable_63'
p4381
ag2124
ag75
aS'variable_52'
p4382
ag22
aS'variable_54'
p4383
ag19
aS'variable_65'
p4384
ag22
aS'func_27'
p4385
ag6
aS'variable_32'
p4386
ag15
ag22
aS'func_28'
p4387
ag6
aS'variable_32'
p4388
ag15
ag22
aS'kfree'
p4389
ag6
aS'variable_30'
p4390
ag15
ag22
aS'variable_63'
p4391
ag19
aS'variable_7'
p4392
aS'->'
p4393
aS'variable_5'
p4394
ag82
aS'variable_62'
p4395
ag22
aS'if'
p4396
ag6
aS'func_29'
p4397
ag6
aS'variable_63'
p4398
ag15
ag15
aS'kfree'
p4399
ag6
aS'variable_22'
p4400
ag15
ag22
aS'variable_23'
p4401
ag19
aS'func_30'
p4402
ag6
aS'variable_1'
p4403
ag11
ag64
ag64
aS'variable_30'
p4404
ag15
ag22
aS'if'
p4405
ag6
aS'variable_23'
p4406
ag135
ag20
ag15
aS'variable_23'
p4407
ag19
aS'func_31'
p4408
ag6
aS'variable_1'
p4409
ag11
ag103
aS'variable_7'
p4410
aS'->'
p4411
aS'variable_5'
p4412
ag11
aS'variable_53'
p4413
ag11
aS'variable_65'
p4414
ag15
ag22
aS'if'
p4415
ag6
aS'variable_23'
p4416
ag135
ag20
ag15
aS'variable_66'
p4417
aS'->'
p4418
aS'variable_67'
p4419
aS'->'
p4420
aS'variable_60'
p4421
ag19
aS'variable_60'
p4422
ag22
aS'variable_66'
p4423
aS'->'
p4424
aS'variable_67'
p4425
aS'->'
p4426
aS'variable_56'
p4427
ag19
aS'variable_56'
p4428
ag22
aS'variable_66'
p4429
aS'->'
p4430
aS'variable_67'
p4431
aS'->'
p4432
aS'variable_57'
p4433
ag19
aS'variable_57'
p4434
ag22
aS'variable_66'
p4435
aS'->'
p4436
aS'variable_67'
p4437
aS'->'
p4438
aS'variable_61'
p4439
ag19
aS'variable_61'
p4440
ag22
aS'variable_66'
p4441
aS'->'
p4442
aS'variable_67'
p4443
aS'->'
p4444
aS'variable_68'
p4445
ag19
aS'variable_1'
p4446
aS'->'
p4447
aS'variable_69'
p4448
ag22
aS'if'
p4449
ag6
ag6
aS'variable_66'
p4450
aS'->'
p4451
aS'variable_70'
p4452
ag103
aS'variable_71'
p4453
ag15
aS'&&'
p4454
ag6
aS'variable_72'
p4455
ag142
ag136
ag15
ag15
aS'variable_66'
p4456
aS'->'
p4457
aS'variable_67'
p4458
aS'->'
p4459
aS'variable_73'
p4460
ag19
aS'variable_66'
p4461
aS'->'
p4462
aS'variable_67'
p4463
aS'->'
p4464
aS'variable_74'
p4465
ag19
aS'func_32'
p4466
ag6
aS'variable_66'
p4467
aS'->'
p4468
aS'variable_67'
p4469
ag15
ag22
aS'if'
p4470
ag6
aS'variable_66'
p4471
aS'->'
p4472
aS'variable_75'
p4473
ag103
aS'variable_76'
p4474
ag15
aS'func_33'
p4475
ag6
ag103
aS'variable_66'
p4476
aS'->'
p4477
aS'variable_67'
p4478
aS'->'
p4479
aS'variable_77'
p4480
ag15
ag22
aS'func_34'
p4481
ag6
ag103
aS'variable_66'
p4482
aS'->'
p4483
aS'variable_67'
p4484
aS'->'
p4485
aS'variable_77'
p4486
ag15
ag22
aS'func_35'
p4487
ag6
aS'variable_3'
p4488
ag11
aS'variable_54'
p4489
ag15
ag22
aS'func_36'
p4490
ag6
aS'variable_3'
p4491
ag11
aS'variable_63'
p4492
ag11
aS'variable_1'
p4493
aS'->'
p4494
aS'variable_69'
p4495
ag15
ag22
aS'kfree'
p4496
ag6
aS'variable_7'
p4497
ag15
ag22
aS'return'
p4498
aS'variable_23'
p4499
ag22
aS'func_37'
p4500
ag6
aS'variable_32'
p4501
ag15
ag22
aS'if'
p4502
ag6
aS'variable_32'
p4503
ag15
aS'func_38'
p4504
ag6
aS'variable_32'
p4505
ag15
ag22
aS'kfree'
p4506
ag6
aS'variable_30'
p4507
ag15
ag22
aS'kfree'
p4508
ag6
aS'variable_22'
p4509
ag15
ag22
aaa(lp4510
I0
aI0
aI0
aI0
aI0
aI0
aI0
aI0
aa(lp4511
I908
aI905
aI804
aI792
aI706
aI688
aI667
aI180
aa(lp4512
(lp4513
S'main'
p4514
aa(lp4515
g4514
aa(lp4516
g4514
aa(lp4517
g4514
aa(lp4518
g4514
aa(lp4519
g4514
aa(lp4520
g4514
aa(lp4521
g4514
aaa(lp4522
S'111 /home/SySeVR/data/CVE_2010_0307_PATCHED_load_elf_binary.c k = elf_ppnt -> p_vaddr + elf_ppnt -> p_memsz 294'
p4523
aS'112 /home/SySeVR/data/CVE_2010_0307_PATCHED_load_elf_binary.c k = elf_ppnt -> p_vaddr + elf_ppnt -> p_filesz 286'
p4524
aS'113 /home/SySeVR/data/CVE_2010_0307_PATCHED_load_elf_binary.c load_addr = ( elf_ppnt -> p_vaddr - elf_ppnt -> p_offset ) 258'
p4525
aS'114 /home/SySeVR/data/CVE_2010_0307_PATCHED_load_elf_binary.c error = elf_map ( bprm -> file , load_bias + vaddr , elf_ppnt , elf_prot , elf_flags , 0 ) 247'
p4526
aS'115 /home/SySeVR/data/CVE_2010_0307_PATCHED_load_elf_binary.c nbyte = elf_brk - elf_bss 211'
p4527
aS'116 /home/SySeVR/data/CVE_2010_0307_PATCHED_load_elf_binary.c nbyte = ELF_MIN_ALIGN - nbyte 209'
p4528
aS'117 /home/SySeVR/data/CVE_2010_0307_PATCHED_load_elf_binary.c retval = set_brk ( elf_bss + load_bias , elf_brk + load_bias ) 201'
p4529
aS'118 /home/SySeVR/data/CVE_2010_0307_PATCHED_load_elf_binary.c size = loc -> elf_ex . e_phnum * sizeof ( struct elf_phdr ) 50'
p4530
aa.