(lp0
(lp1
(lp2
S'static'
p3
aS'int'
p4
aS'func_0'
p5
aS'('
p6
aS'struct'
p7
aS'variable_0'
p8
aS'*'
p9
ag9
aS'variable_1'
p10
aS','
p11
aS'struct'
p12
aS'variable_2'
p13
ag9
aS'variable_3'
p14
aS')'
p15
aS'int'
p16
aS'variable_4'
p17
aS';'
p18
aS'struct'
p19
aS'variable_5'
p20
ag9
aS'variable_5'
p21
aS'='
p22
aS'func_1'
p23
ag6
aS'variable_6'
p24
ag15
ag18
aS'if'
p25
ag6
ag9
aS'variable_1'
p26
aS'=='
p27
aS'NULL'
p28
ag15
ag9
aS'variable_1'
p29
ag22
aS'func_2'
p30
ag6
aS'variable_5'
p31
ag11
aS'variable_6'
p32
ag11
aS'variable_3'
p33
ag15
ag18
aS'if'
p34
ag6
aS'variable_4'
p35
ag22
ag6
ag9
aS'variable_1'
p36
ag15
aS'->'
p37
aS'variable_7'
p38
ag15
aS'if'
p39
ag6
aS'func_3'
p40
ag6
aS'&'
p41
aS'variable_3'
p42
aS'->'
p43
aS'variable_8'
p44
ag15
ag15
aS'variable_4'
p45
ag22
aS'func_4'
p46
ag6
aS'func_5'
p47
ag6
ag9
aS'variable_1'
p48
ag15
aS'->'
p49
aS'variable_9'
p50
ag11
ag41
aS'variable_3'
p51
aS'->'
p52
aS'variable_10'
p53
ag11
aS'variable_6'
p54
aS'?'
p55
aS'func_6'
p56
ag6
aS'variable_6'
p57
ag15
aS'->'
p58
aS'variable_11'
p59
aS':'
p60
aS'0'
p61
ag11
ag41
aS'variable_3'
p62
aS'->'
p63
aS'variable_8'
p64
ag15
ag18
aS'if'
p65
ag6
aS'variable_4'
p66
ag15
aS'if'
p67
ag6
aS'!'
p68
ag6
ag6
ag9
aS'variable_1'
p69
ag15
aS'->'
p70
aS'variable_12'
p71
aS'->'
p72
aS'variable_13'
p73
ag41
aS'variable_14'
p74
ag15
ag15
aS'struct'
p75
aS'variable_15'
p76
ag9
aS'variable_16'
p77
ag18
aS'struct'
p78
aS'flowi'
p79
aS'variable_17'
p80
ag18
aS'int'
p81
aS'variable_18'
p82
ag18
aS'variable_16'
p83
ag22
aS'func_7'
p84
ag6
aS'variable_5'
p85
ag11
ag41
aS'variable_3'
p86
aS'->'
p87
aS'variable_8'
p88
ag11
ag6
ag9
aS'variable_1'
p89
ag15
aS'->'
p90
aS'variable_9'
p91
ag11
aS'1'
p92
ag15
ag18
aS'variable_18'
p93
ag22
ag6
aS'variable_16'
p94
aS'&&'
p95
aS'variable_16'
p96
aS'->'
p97
aS'variable_19'
p98
ag41
aS'variable_20'
p99
ag15
ag18
aS'if'
p100
ag6
aS'variable_18'
p101
ag15
aS'memcpy'
p102
ag6
ag41
aS'variable_17'
p103
ag11
aS'variable_3'
p104
ag11
aS'sizeof'
p105
ag6
aS'struct'
p106
aS'variable_2'
p107
ag15
ag15
ag18
aS'memset'
p108
ag6
ag41
aS'variable_17'
p109
aS'.'
p110
aS'variable_10'
p111
ag11
ag61
ag11
aS'sizeof'
p112
ag6
aS'struct'
p113
aS'variable_21'
p114
ag15
ag15
ag18
ag9
aS'variable_1'
p115
ag22
aS'func_8'
p116
ag6
aS'variable_5'
p117
ag11
aS'variable_6'
p118
ag11
ag41
aS'variable_17'
p119
ag15
ag18
aS'if'
p120
ag6
aS'variable_4'
p121
ag22
ag6
ag9
aS'variable_1'
p122
ag15
aS'->'
p123
aS'variable_7'
p124
ag15
aS'if'
p125
ag6
aS'variable_4'
p126
aS'=='
p127
aS'-'
p128
aS'variable_22'
p129
ag15
aS'func_9'
p130
ag6
ag9
aS'variable_1'
p131
ag15
ag18
aS'return'
p132
aS'variable_4'
p133
ag18
aaa(lp134
I1
aa(lp135
I186
aa(lp136
(lp137
S'main'
p138
aaa(lp139
S'47 /home/SySeVR/data/CVE_2010_0437_VULN_ip6_dst_lookup_tail.c memset 50'
p140
aa.