(lp0
(lp1
(lp2
S'static'
p3
aS'int'
p4
aS'func_0'
p5
aS'('
p6
aS'variable_0'
p7
aS'*'
p8
aS'variable_1'
p9
aS','
p10
aS'const'
p11
aS'uint8_t'
p12
ag8
aS'variable_2'
p13
ag10
aS'int'
p14
aS'variable_3'
p15
aS')'
p16
aS'int'
p17
aS'variable_4'
p18
aS';'
p19
aS'int'
p20
aS'variable_5'
p21
ag19
aS'int'
p22
aS'variable_6'
p23
ag10
aS'variable_7'
p24
ag19
aS'switch'
p25
ag6
ag6
aS'variable_2'
p26
aS'['
p27
aS'1'
p28
aS']'
p29
aS'>>'
p30
aS'4'
p31
ag16
aS'&'
p32
aS'0x3'
p33
ag16
aS'variable_4'
p34
aS'='
p35
aS'6'
p36
ag19
aS'variable_4'
p37
ag35
aS'-'
p38
ag36
ag19
aS'variable_4'
p39
ag35
aS'0'
p40
ag19
aS'switch'
p41
ag6
ag6
aS'variable_2'
p42
ag27
aS'2'
p43
ag29
aS'>>'
p44
ag31
ag16
ag32
aS'0x3'
p45
ag16
aS'variable_5'
p46
ag35
aS'12'
p47
ag19
aS'variable_5'
p48
ag35
ag38
aS'12'
p49
ag19
aS'variable_5'
p50
ag35
ag40
ag19
aS'if'
p51
ag6
aS'variable_4'
p52
aS'=='
p53
ag40
aS'&&'
p54
aS'variable_5'
p55
aS'=='
p56
ag40
ag16
aS'for'
p57
ag6
aS'variable_7'
p58
ag35
ag40
ag19
aS'variable_7'
p59
aS'<'
p60
aS'variable_8'
p61
ag19
aS'variable_7'
p62
aS'++'
p63
ag16
aS'int'
p64
aS'variable_9'
p65
ag35
aS'variable_5'
p66
aS'+'
p67
aS'variable_7'
p68
ag19
aS'for'
p69
ag6
aS'variable_6'
p70
ag35
ag40
ag19
aS'variable_6'
p71
ag60
aS'variable_10'
p72
ag19
aS'variable_6'
p73
aS'++'
p74
ag16
aS'int'
p75
aS'variable_11'
p76
ag35
aS'variable_4'
p77
ag67
aS'variable_6'
p78
ag19
aS'if'
p79
ag6
aS'variable_3'
p80
ag16
aS'variable_9'
p81
aS'%'
p82
ag35
aS'variable_8'
p83
ag19
aS'variable_11'
p84
ag82
ag35
aS'variable_10'
p85
ag19
aS'if'
p86
ag6
aS'variable_9'
p87
ag60
ag40
aS'||'
p88
aS'variable_9'
p89
aS'>'
p90
ag35
aS'variable_8'
p91
aS'||'
p92
aS'variable_11'
p93
ag60
ag40
aS'||'
p94
aS'variable_11'
p95
ag90
ag35
aS'variable_10'
p96
ag16
aS'variable_1'
p97
aS'->'
p98
aS'variable_12'
p99
ag27
aS'variable_9'
p100
ag8
aS'variable_13'
p101
ag67
aS'variable_11'
p102
ag29
ag35
aS'variable_14'
p103
ag27
aS'variable_7'
p104
ag8
aS'variable_13'
p105
ag67
aS'variable_6'
p106
ag29
ag19
aa(lp107
S'static'
p108
aS'int'
p109
aS'func_0'
p110
ag6
aS'variable_0'
p111
ag8
aS'variable_1'
p112
ag10
aS'const'
p113
aS'uint8_t'
p114
ag8
aS'variable_2'
p115
ag10
aS'int'
p116
aS'variable_3'
p117
ag16
aS'int'
p118
aS'variable_4'
p119
ag19
aS'int'
p120
aS'variable_5'
p121
ag19
aS'int'
p122
aS'variable_6'
p123
ag10
aS'variable_7'
p124
ag19
aS'switch'
p125
ag6
ag6
aS'variable_2'
p126
ag27
ag28
ag29
aS'>>'
p127
ag31
ag16
ag32
aS'0x3'
p128
ag16
aS'variable_4'
p129
ag35
ag36
ag19
aS'variable_4'
p130
ag35
ag38
ag36
ag19
aS'variable_4'
p131
ag35
ag40
ag19
aS'switch'
p132
ag6
ag6
aS'variable_2'
p133
ag27
ag43
ag29
aS'>>'
p134
ag31
ag16
ag32
aS'0x3'
p135
ag16
aS'variable_5'
p136
ag35
aS'12'
p137
ag19
aS'variable_5'
p138
ag35
ag38
aS'12'
p139
ag19
aS'variable_5'
p140
ag35
ag40
ag19
aS'if'
p141
ag6
aS'variable_4'
p142
aS'=='
p143
ag40
aS'&&'
p144
aS'variable_5'
p145
aS'=='
p146
ag40
ag16
aS'for'
p147
ag6
aS'variable_7'
p148
ag35
ag40
ag19
aS'variable_7'
p149
ag60
aS'variable_8'
p150
ag19
aS'variable_7'
p151
aS'++'
p152
ag16
aS'int'
p153
aS'variable_9'
p154
ag35
aS'variable_5'
p155
ag67
aS'variable_7'
p156
ag19
aS'variable_9'
p157
ag82
ag35
aS'variable_8'
p158
ag19
aS'if'
p159
ag6
aS'variable_9'
p160
ag60
ag40
aS'||'
p161
aS'variable_9'
p162
ag90
ag35
aS'variable_8'
p163
aS'||'
p164
aS'variable_10'
p165
ag60
ag40
aS'||'
p166
aS'variable_10'
p167
ag90
ag35
aS'variable_11'
p168
ag16
aS'variable_1'
p169
aS'->'
p170
aS'variable_12'
p171
ag27
aS'variable_9'
p172
ag8
aS'variable_13'
p173
ag67
aS'variable_10'
p174
ag29
ag35
aS'variable_14'
p175
ag27
aS'variable_7'
p176
ag8
aS'variable_13'
p177
ag67
aS'variable_6'
p178
ag29
ag19
aaa(lp179
I0
aI0
aa(lp180
I128
aI108
aa(lp181
(lp182
S'main'
p183
aa(lp184
g183
aaa(lp185
S'756 /home/SySeVR/data/CVE_2011_0021_PATCHED_DecodeScroll.c int dx = i_shifth + x ; 52'
p186
aS'757 /home/SySeVR/data/CVE_2011_0021_PATCHED_DecodeScroll.c int dy = i_shiftv + y ; 49'
p187
aa.