(lp0
(lp1
(lp2
S'static'
p3
aS'void'
p4
aS'func_0'
p5
aS'('
p6
aS'char'
p7
aS'*'
p8
aS'variable_0'
p9
aS','
p10
aS'.'
p11
ag11
ag11
aS')'
p12
aS'va_list'
p13
aS'variable_1'
p14
aS';'
p15
aS'vsprintf'
p16
ag6
aS'variable_2'
p17
ag10
aS'variable_0'
p18
ag10
aS'variable_1'
p19
ag12
ag15
aS'variable_2'
p20
aS'+='
p21
aS'strlen'
p22
ag6
aS'variable_2'
p23
ag12
ag15
aaa(lp24
I1
aa(lp25
I26
aa(lp26
(lp27
S'main'
p28
aaa(lp29
S'232 /home/SySeVR/data/CVE_2007_1217_VULN_bufprint.c strlen 7'
p30
aa.