(lp0
(lp1
(lp2
S'static'
p3
aS'void'
p4
aS'func_0'
p5
aS'('
p6
aS'struct'
p7
aS'variable_0'
p8
aS'*'
p9
aS'variable_1'
p10
aS','
p11
aS'struct'
p12
aS'variable_2'
p13
ag9
aS'variable_3'
p14
aS')'
p15
aS'struct'
p16
aS'variable_4'
p17
ag9
aS'variable_5'
p18
aS'='
p19
aS'&'
p20
aS'variable_1'
p21
aS'->'
p22
aS'variable_5'
p23
aS';'
p24
aS'__u16'
p25
aS'variable_6'
p26
ag11
aS'variable_7'
p27
ag11
aS'variable_8'
p28
ag11
aS'variable_9'
p29
ag24
aS'switch'
p30
ag6
aS'func_1'
p31
ag6
aS'variable_3'
p32
aS'->'
p33
aS'variable_10'
p34
ag15
ag15
aS'variable_8'
p35
ag19
aS'func_2'
p36
ag6
aS'variable_3'
p37
aS'->'
p38
aS'variable_10'
p39
ag11
aS'variable_11'
p40
aS'+'
p41
aS'5'
p42
ag15
ag24
aS'variable_9'
p43
ag19
aS'func_3'
p44
ag6
aS'variable_3'
p45
aS'->'
p46
aS'variable_10'
p47
ag11
aS'variable_11'
p48
ag41
aS'8'
p49
ag15
ag24
aS'switch'
p50
ag6
aS'variable_8'
p51
ag15
aS'variable_7'
p52
ag19
aS'func_4'
p53
ag6
aS'variable_3'
p54
aS'->'
p55
aS'variable_10'
p56
ag15
ag24
aS'variable_7'
p57
ag19
aS'func_5'
p58
ag6
aS'variable_3'
p59
aS'->'
p60
aS'variable_10'
p61
ag15
ag24
aS'if'
p62
ag6
aS'!'
p63
aS'variable_9'
p64
aS'&&'
p65
ag6
aS'variable_7'
p66
aS'=='
p67
aS'variable_12'
p68
ag15
ag15
aS'if'
p69
ag6
ag63
aS'variable_9'
p70
aS'&&'
p71
aS'variable_5'
p72
ag15
aS'memcpy'
p73
ag6
ag20
aS'variable_5'
p74
aS'->'
p75
aS'variable_13'
p76
ag11
aS'variable_3'
p77
aS'->'
p78
aS'variable_10'
p79
ag41
aS'variable_11'
p80
ag41
aS'11'
p81
ag11
aS'sizeof'
p82
ag6
aS'variable_14'
p83
ag15
ag15
ag24
aS'func_6'
p84
ag6
aS'variable_5'
p85
ag15
ag24
aaa(lp86
I0
aa(lp87
I108
aa(lp88
(lp89
S'main'
p90
aaa(lp91
S'402 /home/SySeVR/data/CVE_2006_6106_VULN_cmtp_recv_interopmsg.c memcpy 52'
p92
aa.