(lp0
(lp1
(lp2
S'static'
p3
aS'func_0'
p4
aS'('
p5
aS'variable_2'
p6
aS'*'
p7
aS'variable_3'
p8
aS','
p9
aS'variable_4'
p10
ag7
aS'variable_5'
p11
aS')'
p12
aS'variable_4'
p13
ag7
aS'variable_6'
p14
aS'='
p15
aS'NULL'
p16
aS';'
p17
aS'variable_7'
p18
ag7
aS'variable_8'
p19
ag17
aS'variable_9'
p20
ag7
aS'variable_10'
p21
ag9
ag7
aS'variable_11'
p22
ag17
aS'REOp'
p23
aS'variable_12'
p24
ag17
aS'variable_13'
p25
ag7
aS'variable_14'
p26
ag17
aS'const'
p27
aS'jschar'
p28
ag7
aS'variable_15'
p29
ag17
aS'size_t'
p30
aS'variable_16'
p31
ag9
aS'variable_17'
p32
ag17
aS'size_t'
p33
aS'variable_18'
p34
ag15
aS'0'
p35
ag17
aS'jschar'
p36
aS'variable_19'
p37
ag9
aS'variable_20'
p38
ag17
aS'variable_21'
p39
ag7
aS'variable_22'
p40
ag17
aS'JSBool'
p41
aS'variable_23'
p42
ag17
aS'variable_9'
p43
ag7
aS'variable_24'
p44
ag15
aS'variable_3'
p45
aS'->'
p46
aS'variable_25'
p47
aS'->'
p48
aS'variable_26'
p49
ag17
aS'REOp'
p50
aS'variable_27'
p51
ag15
ag5
aS'variable_28'
p52
ag12
ag7
aS'variable_24'
p53
aS'++'
p54
ag17
aS'if'
p55
ag5
aS'func_1'
p56
ag5
aS'variable_27'
p57
ag12
aS'&&'
p58
aS'!'
p59
ag5
aS'variable_3'
p60
aS'->'
p61
aS'variable_25'
p62
aS'->'
p63
aS'variable_29'
p64
aS'&'
p65
aS'variable_30'
p66
ag12
ag12
aS'variable_23'
p67
ag15
aS'variable_31'
p68
ag17
aS'while'
p69
ag5
aS'variable_5'
p70
aS'->'
p71
aS'variable_32'
p72
aS'<'
p73
ag15
aS'variable_3'
p74
aS'->'
p75
aS'variable_33'
p76
ag12
aS'variable_10'
p77
ag15
aS'variable_24'
p78
ag17
aS'variable_6'
p79
ag15
aS'func_2'
p80
ag5
aS'variable_3'
p81
ag9
aS'variable_5'
p82
ag9
aS'variable_27'
p83
ag9
ag65
aS'variable_10'
p84
ag9
aS'variable_34'
p85
ag12
ag17
aS'if'
p86
ag5
aS'variable_6'
p87
ag12
aS'variable_23'
p88
ag15
aS'variable_34'
p89
ag17
aS'variable_5'
p90
ag15
aS'variable_6'
p91
ag17
aS'variable_24'
p92
ag15
aS'variable_10'
p93
ag17
aS'variable_27'
p94
ag15
ag5
aS'variable_28'
p95
ag12
ag7
aS'variable_24'
p96
aS'++'
p97
ag17
aS'variable_3'
p98
aS'->'
p99
aS'variable_35'
p100
aS'++'
p101
ag17
aS'variable_5'
p102
aS'->'
p103
aS'variable_32'
p104
aS'++'
p105
ag17
aS'if'
p106
ag5
ag59
aS'variable_23'
p107
ag12
aS'if'
p108
ag5
aS'func_3'
p109
ag5
aS'variable_27'
p110
ag12
ag12
aS'variable_6'
p111
ag15
aS'func_4'
p112
ag5
aS'variable_3'
p113
ag9
aS'variable_5'
p114
ag9
aS'variable_27'
p115
ag9
ag65
aS'variable_24'
p116
ag9
aS'variable_34'
p117
ag12
ag17
aS'variable_14'
p118
ag15
ag65
aS'variable_3'
p119
aS'->'
p120
aS'variable_36'
p121
aS'['
p122
aS'variable_3'
p123
aS'->'
p124
aS'variable_37'
p125
aS']'
p126
ag17
aS'switch'
p127
ag5
aS'variable_27'
p128
ag12
aS'variable_10'
p129
ag15
aS'variable_24'
p130
aS'+'
p131
aS'func_5'
p132
ag5
aS'variable_24'
p133
ag12
ag17
aS'variable_24'
p134
aS'+='
p135
aS'variable_38'
p136
ag17
aS'variable_20'
p137
ag15
aS'func_6'
p138
ag5
aS'variable_24'
p139
ag12
ag17
aS'variable_24'
p140
aS'+='
p141
aS'variable_38'
p142
ag17
aS'variable_17'
p143
ag15
aS'func_7'
p144
ag5
aS'variable_24'
p145
ag12
ag17
aS'variable_24'
p146
aS'+='
p147
aS'variable_38'
p148
ag17
aS'if'
p149
ag5
aS'variable_5'
p150
aS'->'
p151
aS'variable_32'
p152
aS'!='
p153
aS'variable_3'
p154
aS'->'
p155
aS'variable_33'
p156
ag12
aS'if'
p157
ag5
ag7
aS'variable_5'
p158
aS'->'
p159
aS'variable_32'
p160
aS'=='
p161
aS'variable_20'
p162
ag12
aS'variable_22'
p163
ag15
ag65
aS'variable_3'
p164
aS'->'
p165
aS'variable_25'
p166
aS'->'
p167
aS'variable_39'
p168
ag122
aS'variable_17'
p169
ag126
ag17
aS'if'
p170
ag5
ag59
aS'variable_22'
p171
aS'->'
p172
aS'variable_40'
p173
aS'&&'
p174
ag59
aS'func_8'
p175
ag5
aS'variable_3'
p176
ag9
aS'variable_22'
p177
ag12
ag12
aS'variable_19'
p178
ag15
ag7
aS'variable_5'
p179
aS'->'
p180
aS'variable_32'
p181
ag17
aS'variable_17'
p182
ag15
aS'variable_19'
p183
aS'>>'
p184
aS'3'
p185
ag17
aS'if'
p186
ag5
ag5
aS'variable_19'
p187
aS'>'
p188
aS'variable_22'
p189
aS'->'
p190
aS'variable_41'
p191
aS'||'
p192
ag59
ag5
aS'variable_22'
p193
aS'->'
p194
aS'variable_42'
p195
aS'.'
p196
aS'variable_43'
p197
ag122
aS'variable_17'
p198
ag126
ag65
ag5
aS'1'
p199
aS'<<'
p200
ag5
aS'variable_19'
p201
ag65
aS'0x7'
p202
ag12
ag12
ag12
ag12
aS'^'
p203
aS'variable_22'
p204
aS'->'
p205
aS'variable_44'
p206
ag12
aS'variable_6'
p207
ag15
aS'NULL'
p208
ag17
aS'variable_10'
p209
ag15
aS'variable_24'
p210
ag131
aS'func_9'
p211
ag5
aS'variable_24'
p212
ag12
ag17
aS'variable_24'
p213
aS'+='
p214
aS'variable_38'
p215
ag17
aS'variable_19'
p216
ag15
aS'func_10'
p217
ag5
aS'variable_24'
p218
ag12
ag17
aS'variable_24'
p219
aS'+='
p220
aS'variable_38'
p221
ag17
aS'variable_20'
p222
ag15
aS'func_11'
p223
ag5
aS'variable_24'
p224
ag12
ag17
aS'variable_24'
p225
aS'+='
p226
aS'variable_38'
p227
ag17
aS'if'
p228
ag5
aS'variable_5'
p229
aS'->'
p230
aS'variable_32'
p231
aS'=='
p232
aS'variable_3'
p233
aS'->'
p234
aS'variable_33'
p235
aS'||'
p236
ag5
ag7
aS'variable_5'
p237
aS'->'
p238
aS'variable_32'
p239
aS'!='
p240
aS'variable_19'
p241
aS'&&'
p242
ag7
aS'variable_5'
p243
aS'->'
p244
aS'variable_32'
p245
aS'!='
p246
aS'variable_20'
p247
ag12
ag12
aS'variable_6'
p248
ag15
aS'NULL'
p249
ag17
aS'variable_10'
p250
ag15
aS'variable_24'
p251
ag131
aS'func_12'
p252
ag5
aS'variable_24'
p253
ag12
ag17
aS'variable_24'
p254
aS'+='
p255
aS'variable_38'
p256
ag17
aS'variable_14'
p257
aS'->'
p258
aS'variable_18'
p259
ag15
aS'variable_18'
p260
ag17
aS'variable_27'
p261
ag15
ag5
aS'variable_28'
p262
ag12
ag7
aS'variable_24'
p263
aS'++'
p264
ag17
aS'variable_15'
p265
ag15
aS'variable_5'
p266
aS'->'
p267
aS'variable_32'
p268
ag17
aS'if'
p269
ag5
aS'func_13'
p270
ag5
aS'variable_27'
p271
ag12
ag12
aS'if'
p272
ag5
ag59
aS'func_14'
p273
ag5
aS'variable_3'
p274
ag9
aS'variable_5'
p275
ag9
aS'variable_27'
p276
ag9
ag65
aS'variable_24'
p277
ag9
aS'variable_34'
p278
ag12
ag12
aS'variable_27'
p279
ag15
ag5
aS'variable_28'
p280
ag12
ag7
aS'variable_10'
p281
aS'++'
p282
ag17
aS'variable_24'
p283
ag15
aS'variable_10'
p284
ag17
aS'variable_6'
p285
ag15
aS'variable_5'
p286
ag17
aS'variable_27'
p287
ag15
ag5
aS'variable_28'
p288
ag12
ag7
aS'variable_24'
p289
aS'++'
p290
ag17
aS'variable_12'
p291
ag15
ag5
aS'variable_28'
p292
ag12
ag7
aS'variable_10'
p293
aS'++'
p294
ag17
aS'if'
p295
ag5
ag59
aS'func_15'
p296
ag5
aS'variable_3'
p297
ag9
aS'variable_12'
p298
ag9
aS'variable_10'
p299
ag9
aS'variable_5'
p300
ag9
aS'variable_15'
p301
ag9
ag35
ag9
ag35
ag12
ag12
aS'if'
p302
ag5
ag59
aS'variable_6'
p303
ag12
aS'variable_6'
p304
ag15
aS'variable_5'
p305
ag17
aS'variable_24'
p306
aS'+='
p307
aS'func_16'
p308
ag5
aS'variable_24'
p309
ag12
ag17
aS'variable_27'
p310
ag15
ag5
aS'variable_28'
p311
ag12
ag7
aS'variable_24'
p312
aS'++'
p313
ag17
aS'if'
p314
ag5
ag59
aS'variable_6'
p315
ag12
aS'variable_6'
p316
ag15
aS'variable_5'
p317
ag17
aS'variable_27'
p318
ag15
ag5
aS'variable_28'
p319
ag12
ag7
aS'variable_24'
p320
aS'++'
p321
ag17
aS'variable_24'
p322
ag15
aS'func_17'
p323
ag5
aS'variable_24'
p324
ag9
ag65
aS'variable_16'
p325
ag12
ag17
aS'if'
p326
ag5
aS'variable_16'
p327
ag131
ag199
ag188
aS'variable_18'
p328
ag12
aS'variable_18'
p329
ag15
aS'variable_16'
p330
ag131
ag199
ag17
aS'variable_5'
p331
aS'->'
p332
aS'variable_45'
p333
ag122
aS'variable_16'
p334
ag126
ag196
aS'variable_46'
p335
ag15
aS'variable_5'
p336
aS'->'
p337
aS'variable_32'
p338
aS'-'
p339
aS'variable_3'
p340
aS'->'
p341
aS'variable_47'
p342
ag17
aS'variable_5'
p343
aS'->'
p344
aS'variable_45'
p345
ag122
aS'variable_16'
p346
ag126
ag196
aS'variable_41'
p347
ag15
ag35
ag17
aS'variable_27'
p348
ag15
ag5
aS'variable_28'
p349
ag12
ag7
aS'variable_24'
p350
aS'++'
p351
ag17
aS'variable_24'
p352
ag15
aS'func_18'
p353
ag5
aS'variable_24'
p354
ag9
ag65
aS'variable_16'
p355
ag12
ag17
aS'variable_27'
p356
ag15
ag5
aS'variable_28'
p357
ag12
ag7
aS'variable_24'
p358
aS'++'
p359
ag17
aS'if'
p360
ag5
ag59
aS'variable_6'
p361
ag12
aS'variable_6'
p362
ag15
aS'variable_5'
p363
ag17
aS'variable_10'
p364
ag15
aS'variable_24'
p365
ag131
aS'func_19'
p366
ag5
aS'variable_24'
p367
ag12
ag17
aS'variable_24'
p368
aS'+='
p369
aS'variable_38'
p370
ag17
aS'variable_27'
p371
ag15
ag5
aS'variable_28'
p372
ag12
ag7
aS'variable_24'
p373
aS'++'
p374
ag17
aS'variable_11'
p375
ag15
aS'variable_24'
p376
ag17
aS'if'
p377
ag5
aS'func_20'
p378
ag5
aS'variable_27'
p379
ag12
aS'&&'
p380
ag59
aS'func_21'
p381
ag5
aS'variable_3'
p382
ag9
aS'variable_5'
p383
ag9
aS'variable_27'
p384
ag9
ag65
aS'variable_11'
p385
ag9
aS'variable_31'
p386
ag12
ag12
aS'variable_6'
p387
ag15
aS'NULL'
p388
ag17
aS'variable_14'
p389
aS'->'
p390
aS'variable_42'
p391
ag196
aS'variable_48'
p392
ag196
aS'variable_49'
p393
ag15
ag5
aS'char'
p394
ag7
ag12
aS'variable_3'
p395
aS'->'
p396
aS'variable_50'
p397
ag339
ag5
aS'char'
p398
ag7
ag12
aS'variable_3'
p399
aS'->'
p400
aS'variable_51'
p401
ag17
aS'variable_14'
p402
aS'->'
p403
aS'variable_42'
p404
ag196
aS'variable_48'
p405
ag196
aS'variable_52'
p406
ag15
aS'variable_3'
p407
aS'->'
p408
aS'variable_53'
p409
ag17
aS'variable_14'
p410
aS'->'
p411
aS'variable_46'
p412
ag15
aS'variable_5'
p413
aS'->'
p414
aS'variable_32'
p415
ag339
aS'variable_3'
p416
aS'->'
p417
aS'variable_47'
p418
ag17
aS'variable_14'
p419
aS'->'
p420
aS'variable_18'
p421
ag15
aS'variable_18'
p422
ag17
aS'if'
p423
ag5
ag59
aS'func_22'
p424
ag5
aS'variable_3'
p425
ag9
aS'variable_54'
p426
ag9
aS'variable_10'
p427
ag9
aS'variable_5'
p428
ag9
aS'variable_5'
p429
aS'->'
p430
aS'variable_32'
p431
ag9
ag35
ag9
ag35
ag12
ag12
aS'variable_10'
p432
ag15
aS'variable_24'
p433
ag131
aS'func_23'
p434
ag5
aS'variable_24'
p435
ag12
ag17
aS'variable_24'
p436
aS'+='
p437
aS'variable_38'
p438
ag17
aS'variable_27'
p439
ag15
ag5
aS'variable_28'
p440
ag12
ag7
aS'variable_24'
p441
aS'++'
p442
ag17
aS'variable_11'
p443
ag15
aS'variable_24'
p444
ag17
aS'if'
p445
ag5
aS'func_24'
p446
ag5
aS'variable_27'
p447
ag12
aS'&&'
p448
aS'func_25'
p449
ag5
aS'variable_3'
p450
ag9
aS'variable_5'
p451
ag9
aS'variable_27'
p452
ag9
ag65
aS'variable_11'
p453
ag9
aS'variable_31'
p454
ag12
aS'&&'
p455
ag7
aS'variable_11'
p456
aS'=='
p457
aS'variable_55'
p458
ag12
aS'variable_6'
p459
ag15
aS'NULL'
p460
ag17
aS'variable_14'
p461
aS'->'
p462
aS'variable_42'
p463
ag196
aS'variable_48'
p464
ag196
aS'variable_49'
p465
ag15
ag5
aS'char'
p466
ag7
ag12
aS'variable_3'
p467
aS'->'
p468
aS'variable_50'
p469
ag339
ag5
aS'char'
p470
ag7
ag12
aS'variable_3'
p471
aS'->'
p472
aS'variable_51'
p473
ag17
aS'variable_14'
p474
aS'->'
p475
aS'variable_42'
p476
ag196
aS'variable_48'
p477
ag196
aS'variable_52'
p478
ag15
aS'variable_3'
p479
aS'->'
p480
aS'variable_53'
p481
ag17
aS'variable_14'
p482
aS'->'
p483
aS'variable_46'
p484
ag15
aS'variable_5'
p485
aS'->'
p486
aS'variable_32'
p487
ag339
aS'variable_3'
p488
aS'->'
p489
aS'variable_47'
p490
ag17
aS'variable_14'
p491
aS'->'
p492
aS'variable_18'
p493
ag15
aS'variable_18'
p494
ag17
aS'if'
p495
ag5
ag59
aS'func_26'
p496
ag5
aS'variable_3'
p497
ag9
aS'variable_55'
p498
ag9
aS'variable_10'
p499
ag9
aS'variable_5'
p500
ag9
aS'variable_5'
p501
aS'->'
p502
aS'variable_32'
p503
ag9
ag35
ag9
ag35
ag12
ag12
aS'variable_5'
p504
aS'->'
p505
aS'variable_32'
p506
ag15
aS'variable_3'
p507
aS'->'
p508
aS'variable_47'
p509
ag131
aS'variable_14'
p510
aS'->'
p511
aS'variable_46'
p512
ag17
aS'variable_3'
p513
aS'->'
p514
aS'variable_50'
p515
ag15
ag5
aS'REBackTrackData'
p516
ag7
ag12
ag5
ag5
aS'char'
p517
ag7
ag12
aS'variable_3'
p518
aS'->'
p519
aS'variable_51'
p520
ag131
aS'variable_14'
p521
aS'->'
p522
aS'variable_42'
p523
ag196
aS'variable_48'
p524
ag196
aS'variable_49'
p525
ag12
ag17
aS'variable_3'
p526
aS'->'
p527
aS'variable_53'
p528
ag15
aS'variable_14'
p529
aS'->'
p530
aS'variable_42'
p531
ag196
aS'variable_48'
p532
ag196
aS'variable_52'
p533
ag17
aS'if'
p534
ag5
aS'variable_6'
p535
ag12
aS'variable_6'
p536
ag15
aS'variable_5'
p537
ag17
aS'variable_5'
p538
aS'->'
p539
aS'variable_32'
p540
ag15
aS'variable_3'
p541
aS'->'
p542
aS'variable_47'
p543
ag131
aS'variable_14'
p544
aS'->'
p545
aS'variable_46'
p546
ag17
aS'variable_3'
p547
aS'->'
p548
aS'variable_50'
p549
ag15
ag5
aS'REBackTrackData'
p550
ag7
ag12
ag5
ag5
aS'char'
p551
ag7
ag12
aS'variable_3'
p552
aS'->'
p553
aS'variable_51'
p554
ag131
aS'variable_14'
p555
aS'->'
p556
aS'variable_42'
p557
ag196
aS'variable_48'
p558
ag196
aS'variable_49'
p559
ag12
ag17
aS'variable_3'
p560
aS'->'
p561
aS'variable_53'
p562
ag15
aS'variable_14'
p563
aS'->'
p564
aS'variable_42'
p565
ag196
aS'variable_48'
p566
ag196
aS'variable_52'
p567
ag17
aS'variable_6'
p568
ag15
ag5
ag59
aS'variable_6'
p569
ag12
aS'?'
p570
aS'variable_5'
p571
aS':'
p572
aS'NULL'
p573
ag17
aS'variable_14'
p574
aS'->'
p575
aS'variable_42'
p576
ag196
aS'variable_56'
p577
ag196
aS'variable_57'
p578
ag15
ag35
ag17
aS'variable_14'
p579
aS'->'
p580
aS'variable_42'
p581
ag196
aS'variable_56'
p582
ag196
aS'variable_58'
p583
ag15
ag5
aS'variable_59'
p584
ag12
ag339
ag199
ag17
aS'variable_14'
p585
aS'->'
p586
aS'variable_42'
p587
ag196
aS'variable_56'
p588
ag196
aS'variable_57'
p589
ag15
ag199
ag17
aS'variable_14'
p590
aS'->'
p591
aS'variable_42'
p592
ag196
aS'variable_56'
p593
ag196
aS'variable_58'
p594
ag15
ag5
aS'variable_59'
p595
ag12
ag339
ag199
ag17
aS'variable_14'
p596
aS'->'
p597
aS'variable_42'
p598
ag196
aS'variable_56'
p599
ag196
aS'variable_57'
p600
ag15
ag35
ag17
aS'variable_14'
p601
aS'->'
p602
aS'variable_42'
p603
ag196
aS'variable_56'
p604
ag196
aS'variable_58'
p605
ag15
ag199
ag17
aS'variable_24'
p606
ag15
aS'func_27'
p607
ag5
aS'variable_24'
p608
ag9
ag65
aS'variable_17'
p609
ag12
ag17
aS'variable_14'
p610
aS'->'
p611
aS'variable_42'
p612
ag196
aS'variable_56'
p613
ag196
aS'variable_57'
p614
ag15
aS'variable_17'
p615
ag17
aS'variable_24'
p616
ag15
aS'func_28'
p617
ag5
aS'variable_24'
p618
ag9
ag65
aS'variable_17'
p619
ag12
ag17
aS'variable_14'
p620
aS'->'
p621
aS'variable_42'
p622
ag196
aS'variable_56'
p623
ag196
aS'variable_58'
p624
ag15
aS'variable_17'
p625
ag339
ag199
ag17
aS'if'
p626
ag5
aS'variable_14'
p627
aS'->'
p628
aS'variable_42'
p629
ag196
aS'variable_56'
p630
ag196
aS'variable_58'
p631
aS'=='
p632
ag35
ag12
aS'variable_24'
p633
ag15
aS'variable_24'
p634
ag131
aS'func_29'
p635
ag5
aS'variable_24'
p636
ag12
ag17
aS'variable_27'
p637
ag15
ag5
aS'variable_28'
p638
ag12
ag7
aS'variable_24'
p639
aS'++'
p640
ag17
aS'variable_6'
p641
ag15
aS'variable_5'
p642
ag17
aS'variable_10'
p643
ag15
aS'variable_24'
p644
ag131
aS'variable_38'
p645
ag17
aS'variable_27'
p646
ag15
ag5
aS'variable_28'
p647
ag12
ag7
aS'variable_10'
p648
aS'++'
p649
ag17
aS'variable_15'
p650
ag15
aS'variable_5'
p651
aS'->'
p652
aS'variable_32'
p653
ag17
aS'if'
p654
ag5
aS'func_30'
p655
ag5
aS'variable_27'
p656
ag12
ag12
aS'if'
p657
ag5
ag59
aS'func_31'
p658
ag5
aS'variable_3'
p659
ag9
aS'variable_5'
p660
ag9
aS'variable_27'
p661
ag9
ag65
aS'variable_10'
p662
ag9
aS'variable_34'
p663
ag12
ag12
aS'if'
p664
ag5
aS'variable_14'
p665
aS'->'
p666
aS'variable_42'
p667
ag196
aS'variable_56'
p668
ag196
aS'variable_57'
p669
aS'=='
p670
ag35
ag12
aS'variable_6'
p671
ag15
aS'variable_5'
p672
ag17
aS'variable_6'
p673
ag15
aS'NULL'
p674
ag17
aS'variable_24'
p675
ag15
aS'variable_24'
p676
ag131
aS'func_32'
p677
ag5
aS'variable_24'
p678
ag12
ag17
aS'variable_27'
p679
ag15
ag5
aS'variable_28'
p680
ag12
ag7
aS'variable_10'
p681
aS'++'
p682
ag17
aS'variable_6'
p683
ag15
aS'variable_5'
p684
ag17
aS'variable_14'
p685
aS'->'
p686
aS'variable_46'
p687
ag15
aS'variable_15'
p688
ag339
aS'variable_3'
p689
aS'->'
p690
aS'variable_47'
p691
ag17
aS'variable_14'
p692
aS'->'
p693
aS'variable_60'
p694
ag15
aS'variable_61'
p695
ag17
aS'variable_14'
p696
aS'->'
p697
aS'variable_62'
p698
ag15
aS'variable_24'
p699
ag17
aS'variable_14'
p700
aS'->'
p701
aS'variable_18'
p702
ag15
aS'variable_18'
p703
ag17
aS'if'
p704
ag5
aS'variable_14'
p705
aS'->'
p706
aS'variable_42'
p707
ag196
aS'variable_56'
p708
ag196
aS'variable_57'
p709
aS'=='
p710
ag35
aS'&&'
p711
ag59
aS'func_33'
p712
ag5
aS'variable_3'
p713
ag9
aS'variable_61'
p714
ag9
aS'variable_24'
p715
ag9
aS'variable_5'
p716
ag9
aS'variable_15'
p717
ag9
ag35
ag9
ag35
ag12
ag12
aS'variable_24'
p718
ag15
aS'variable_10'
p719
ag17
aS'variable_24'
p720
ag15
aS'variable_14'
p721
ag122
ag339
ag199
ag126
ag196
aS'variable_62'
p722
ag17
aS'variable_27'
p723
ag15
ag5
aS'variable_28'
p724
ag12
aS'variable_14'
p725
ag122
ag339
ag199
ag126
ag196
aS'variable_60'
p726
ag17
aS'if'
p727
ag5
ag59
aS'variable_6'
p728
ag12
aS'variable_6'
p729
ag15
aS'variable_5'
p730
ag17
aS'if'
p731
ag5
ag59
aS'variable_6'
p732
ag12
aS'if'
p733
ag5
aS'variable_14'
p734
aS'->'
p735
aS'variable_42'
p736
ag196
aS'variable_56'
p737
ag196
aS'variable_57'
p738
aS'=='
p739
ag35
ag12
aS'if'
p740
ag5
aS'variable_14'
p741
aS'->'
p742
aS'variable_42'
p743
ag196
aS'variable_56'
p744
ag196
aS'variable_57'
p745
aS'=='
p746
ag35
aS'&&'
p747
aS'variable_5'
p748
aS'->'
p749
aS'variable_32'
p750
aS'=='
p751
aS'variable_3'
p752
aS'->'
p753
aS'variable_47'
p754
ag131
aS'variable_14'
p755
aS'->'
p756
aS'variable_46'
p757
ag12
aS'variable_6'
p758
ag15
aS'NULL'
p759
ag17
aS'if'
p760
ag5
aS'variable_14'
p761
aS'->'
p762
aS'variable_42'
p763
ag196
aS'variable_56'
p764
ag196
aS'variable_57'
p765
aS'!='
p766
ag35
ag12
aS'variable_14'
p767
aS'->'
p768
aS'variable_42'
p769
ag196
aS'variable_56'
p770
ag196
aS'variable_57'
p771
aS'--'
p772
ag17
aS'if'
p773
ag5
aS'variable_14'
p774
aS'->'
p775
aS'variable_42'
p776
ag196
aS'variable_56'
p777
ag196
aS'variable_58'
p778
aS'!='
p779
ag5
aS'variable_59'
p780
ag12
ag339
ag199
ag12
aS'variable_14'
p781
aS'->'
p782
aS'variable_42'
p783
ag196
aS'variable_56'
p784
ag196
aS'variable_58'
p785
aS'--'
p786
ag17
aS'if'
p787
ag5
aS'variable_14'
p788
aS'->'
p789
aS'variable_42'
p790
ag196
aS'variable_56'
p791
ag196
aS'variable_58'
p792
aS'=='
p793
ag35
ag12
aS'variable_10'
p794
ag15
aS'variable_24'
p795
ag131
aS'variable_38'
p796
ag17
aS'variable_12'
p797
ag15
ag5
aS'variable_28'
p798
ag12
ag7
aS'variable_10'
p799
ag17
aS'variable_15'
p800
ag15
aS'variable_5'
p801
aS'->'
p802
aS'variable_32'
p803
ag17
aS'if'
p804
ag5
aS'func_34'
p805
ag5
aS'variable_12'
p806
ag12
ag12
aS'variable_10'
p807
aS'++'
p808
ag17
aS'if'
p809
ag5
ag59
aS'func_35'
p810
ag5
aS'variable_3'
p811
ag9
aS'variable_5'
p812
ag9
aS'variable_12'
p813
ag9
ag65
aS'variable_10'
p814
ag9
aS'variable_34'
p815
ag12
ag12
aS'if'
p816
ag5
aS'variable_14'
p817
aS'->'
p818
aS'variable_42'
p819
ag196
aS'variable_56'
p820
ag196
aS'variable_57'
p821
aS'=='
p822
ag35
ag12
aS'variable_6'
p823
ag15
aS'NULL'
p824
ag17
aS'variable_6'
p825
ag15
aS'variable_5'
p826
ag17
aS'variable_14'
p827
aS'->'
p828
aS'variable_46'
p829
ag15
aS'variable_15'
p830
ag339
aS'variable_3'
p831
aS'->'
p832
aS'variable_47'
p833
ag17
aS'if'
p834
ag5
aS'variable_14'
p835
aS'->'
p836
aS'variable_42'
p837
ag196
aS'variable_56'
p838
ag196
aS'variable_57'
p839
aS'=='
p840
ag35
aS'&&'
p841
ag59
aS'func_36'
p842
ag5
aS'variable_3'
p843
ag9
aS'variable_61'
p844
ag9
aS'variable_24'
p845
ag9
aS'variable_5'
p846
ag9
aS'variable_15'
p847
ag9
aS'variable_14'
p848
aS'->'
p849
aS'variable_18'
p850
ag9
aS'variable_18'
p851
ag339
aS'variable_14'
p852
aS'->'
p853
aS'variable_18'
p854
ag12
ag12
aS'while'
p855
ag5
ag7
aS'variable_10'
p856
aS'=='
p857
aS'variable_63'
p858
ag12
aS'variable_24'
p859
ag15
aS'variable_10'
p860
ag17
aS'variable_27'
p861
ag15
ag5
aS'variable_28'
p862
ag12
ag7
aS'variable_24'
p863
aS'++'
p864
ag17
aS'variable_18'
p865
ag15
aS'variable_14'
p866
aS'->'
p867
aS'variable_18'
p868
ag17
aS'variable_6'
p869
ag15
aS'variable_5'
p870
ag17
aS'variable_24'
p871
aS'+='
p872
aS'func_37'
p873
ag5
aS'variable_24'
p874
ag12
ag17
aS'variable_14'
p875
aS'->'
p876
aS'variable_42'
p877
ag196
aS'variable_56'
p878
ag196
aS'variable_57'
p879
ag15
ag35
ag17
aS'variable_14'
p880
aS'->'
p881
aS'variable_42'
p882
ag196
aS'variable_56'
p883
ag196
aS'variable_58'
p884
ag15
ag5
aS'variable_59'
p885
ag12
ag339
ag199
ag17
aS'variable_14'
p886
aS'->'
p887
aS'variable_42'
p888
ag196
aS'variable_56'
p889
ag196
aS'variable_57'
p890
ag15
ag199
ag17
aS'variable_14'
p891
aS'->'
p892
aS'variable_42'
p893
ag196
aS'variable_56'
p894
ag196
aS'variable_58'
p895
ag15
ag5
aS'variable_59'
p896
ag12
ag339
ag199
ag17
aS'variable_14'
p897
aS'->'
p898
aS'variable_42'
p899
ag196
aS'variable_56'
p900
ag196
aS'variable_57'
p901
ag15
ag35
ag17
aS'variable_14'
p902
aS'->'
p903
aS'variable_42'
p904
ag196
aS'variable_56'
p905
ag196
aS'variable_58'
p906
ag15
ag199
ag17
aS'variable_24'
p907
ag15
aS'func_38'
p908
ag5
aS'variable_24'
p909
ag9
ag65
aS'variable_17'
p910
ag12
ag17
aS'variable_14'
p911
aS'->'
p912
aS'variable_42'
p913
ag196
aS'variable_56'
p914
ag196
aS'variable_57'
p915
ag15
aS'variable_17'
p916
ag17
aS'variable_24'
p917
ag15
aS'func_39'
p918
ag5
aS'variable_24'
p919
ag9
ag65
aS'variable_17'
p920
ag12
ag17
aS'variable_14'
p921
aS'->'
p922
aS'variable_42'
p923
ag196
aS'variable_56'
p924
ag196
aS'variable_58'
p925
ag15
aS'variable_17'
p926
ag339
ag199
ag17
aS'variable_14'
p927
aS'->'
p928
aS'variable_46'
p929
ag15
aS'variable_5'
p930
aS'->'
p931
aS'variable_32'
p932
ag339
aS'variable_3'
p933
aS'->'
p934
aS'variable_47'
p935
ag17
aS'variable_14'
p936
aS'->'
p937
aS'variable_18'
p938
ag15
aS'variable_18'
p939
ag17
aS'if'
p940
ag5
aS'variable_14'
p941
aS'->'
p942
aS'variable_42'
p943
ag196
aS'variable_56'
p944
ag196
aS'variable_57'
p945
aS'!='
p946
ag35
ag12
aS'variable_14'
p947
aS'->'
p948
aS'variable_60'
p949
ag15
aS'variable_64'
p950
ag17
aS'variable_14'
p951
aS'->'
p952
aS'variable_62'
p953
ag15
aS'variable_24'
p954
ag17
aS'variable_24'
p955
aS'+='
p956
aS'variable_65'
p957
ag17
aS'variable_27'
p958
ag15
ag5
aS'variable_28'
p959
ag12
ag7
aS'variable_24'
p960
aS'++'
p961
ag17
aS'if'
p962
ag5
ag59
aS'func_40'
p963
ag5
aS'variable_3'
p964
ag9
aS'variable_64'
p965
ag9
aS'variable_24'
p966
ag9
aS'variable_5'
p967
ag9
aS'variable_5'
p968
aS'->'
p969
aS'variable_32'
p970
ag9
ag35
ag9
ag35
ag12
ag12
aS'variable_24'
p971
ag15
aS'variable_24'
p972
ag131
aS'func_41'
p973
ag5
aS'variable_24'
p974
ag12
ag17
aS'variable_27'
p975
ag15
ag5
aS'variable_28'
p976
ag12
ag7
aS'variable_24'
p977
aS'++'
p978
ag17
aS'variable_14'
p979
aS'->'
p980
aS'variable_46'
p981
ag15
aS'variable_5'
p982
aS'->'
p983
aS'variable_32'
p984
ag339
aS'variable_3'
p985
aS'->'
p986
aS'variable_47'
p987
ag17
aS'variable_14'
p988
aS'->'
p989
aS'variable_60'
p990
ag15
aS'variable_64'
p991
ag17
aS'variable_14'
p992
aS'->'
p993
aS'variable_62'
p994
ag15
aS'variable_24'
p995
ag17
aS'variable_24'
p996
aS'+='
p997
aS'variable_38'
p998
ag17
aS'for'
p999
ag5
aS'variable_17'
p1000
ag15
aS'variable_14'
p1001
aS'->'
p1002
aS'variable_18'
p1003
ag17
aS'variable_17'
p1004
ag73
aS'variable_18'
p1005
ag17
aS'variable_17'
p1006
aS'++'
p1007
ag12
aS'variable_5'
p1008
aS'->'
p1009
aS'variable_45'
p1010
ag122
aS'variable_17'
p1011
ag126
ag196
aS'variable_46'
p1012
ag15
ag339
ag199
ag17
aS'func_42'
p1013
ag5
aS'variable_3'
p1014
ag12
ag17
aS'variable_27'
p1015
ag15
ag5
aS'variable_28'
p1016
ag12
ag7
aS'variable_24'
p1017
aS'++'
p1018
ag17
aS'func_43'
p1019
ag5
aS'variable_27'
p1020
ag73
aS'variable_66'
p1021
ag12
ag17
aS'if'
p1022
ag5
ag59
aS'variable_6'
p1023
ag12
aS'if'
p1024
ag5
aS'variable_14'
p1025
aS'->'
p1026
aS'variable_42'
p1027
ag196
aS'variable_56'
p1028
ag196
aS'variable_58'
p1029
aS'=='
p1030
ag5
aS'variable_59'
p1031
ag12
ag339
ag199
aS'||'
p1032
aS'variable_14'
p1033
aS'->'
p1034
aS'variable_42'
p1035
ag196
aS'variable_56'
p1036
ag196
aS'variable_58'
p1037
ag188
ag35
ag12
aS'if'
p1038
ag5
aS'variable_14'
p1039
aS'->'
p1040
aS'variable_42'
p1041
ag196
aS'variable_56'
p1042
ag196
aS'variable_57'
p1043
aS'=='
p1044
ag35
aS'&&'
p1045
aS'variable_5'
p1046
aS'->'
p1047
aS'variable_32'
p1048
aS'=='
p1049
aS'variable_3'
p1050
aS'->'
p1051
aS'variable_47'
p1052
ag131
aS'variable_14'
p1053
aS'->'
p1054
aS'variable_46'
p1055
ag12
aS'variable_6'
p1056
ag15
aS'NULL'
p1057
ag17
aS'if'
p1058
ag5
aS'variable_14'
p1059
aS'->'
p1060
aS'variable_42'
p1061
ag196
aS'variable_56'
p1062
ag196
aS'variable_57'
p1063
aS'!='
p1064
ag35
ag12
aS'variable_14'
p1065
aS'->'
p1066
aS'variable_42'
p1067
ag196
aS'variable_56'
p1068
ag196
aS'variable_57'
p1069
aS'--'
p1070
ag17
aS'if'
p1071
ag5
aS'variable_14'
p1072
aS'->'
p1073
aS'variable_42'
p1074
ag196
aS'variable_56'
p1075
ag196
aS'variable_58'
p1076
aS'!='
p1077
ag5
aS'variable_59'
p1078
ag12
ag339
ag199
ag12
aS'variable_14'
p1079
aS'->'
p1080
aS'variable_42'
p1081
ag196
aS'variable_56'
p1082
ag196
aS'variable_58'
p1083
aS'--'
p1084
ag17
aS'if'
p1085
ag5
aS'variable_14'
p1086
aS'->'
p1087
aS'variable_42'
p1088
ag196
aS'variable_56'
p1089
ag196
aS'variable_57'
p1090
aS'!='
p1091
ag35
ag12
aS'variable_14'
p1092
aS'->'
p1093
aS'variable_46'
p1094
ag15
aS'variable_5'
p1095
aS'->'
p1096
aS'variable_32'
p1097
ag339
aS'variable_3'
p1098
aS'->'
p1099
aS'variable_47'
p1100
ag17
aS'variable_14'
p1101
aS'->'
p1102
aS'variable_18'
p1103
ag15
aS'variable_18'
p1104
ag17
aS'if'
p1105
ag5
ag59
aS'func_44'
p1106
ag5
aS'variable_3'
p1107
ag9
aS'variable_64'
p1108
ag9
aS'variable_24'
p1109
ag9
aS'variable_5'
p1110
ag9
aS'variable_5'
p1111
aS'->'
p1112
aS'variable_32'
p1113
ag9
aS'variable_14'
p1114
aS'->'
p1115
aS'variable_18'
p1116
ag9
aS'variable_18'
p1117
ag339
aS'variable_14'
p1118
aS'->'
p1119
aS'variable_18'
p1120
ag12
ag12
aS'variable_24'
p1121
ag15
aS'variable_24'
p1122
ag131
aS'func_45'
p1123
ag5
aS'variable_24'
p1124
ag12
ag17
aS'variable_27'
p1125
ag15
ag5
aS'variable_28'
p1126
ag12
ag7
aS'variable_24'
p1127
aS'++'
p1128
ag17
aS'variable_6'
p1129
ag15
aS'NULL'
p1130
ag17
aS'if'
p1131
ag5
ag59
aS'variable_6'
p1132
ag12
aS'if'
p1133
ag5
aS'variable_3'
p1134
aS'->'
p1135
aS'variable_53'
p1136
aS'=='
p1137
ag35
ag12
aS'if'
p1138
ag5
ag59
aS'func_46'
p1139
ag5
aS'variable_3'
p1140
aS'->'
p1141
aS'variable_67'
p1142
ag12
ag12
aS'variable_3'
p1143
aS'->'
p1144
aS'variable_68'
p1145
ag15
aS'variable_31'
p1146
ag17
aS'variable_3'
p1147
aS'->'
p1148
aS'variable_69'
p1149
aS'++'
p1150
ag17
aS'if'
p1151
ag5
aS'variable_3'
p1152
aS'->'
p1153
aS'variable_70'
p1154
aS'&&'
p1155
aS'variable_3'
p1156
aS'->'
p1157
aS'variable_69'
p1158
ag188
ag15
aS'variable_3'
p1159
aS'->'
p1160
aS'variable_70'
p1161
ag12
aS'variable_3'
p1162
aS'->'
p1163
aS'variable_68'
p1164
ag15
aS'variable_31'
p1165
ag17
aS'variable_8'
p1166
ag15
aS'variable_3'
p1167
aS'->'
p1168
aS'variable_50'
p1169
ag17
aS'variable_3'
p1170
aS'->'
p1171
aS'variable_53'
p1172
ag15
aS'variable_8'
p1173
aS'->'
p1174
aS'variable_52'
p1175
ag17
aS'variable_3'
p1176
aS'->'
p1177
aS'variable_50'
p1178
ag15
ag5
aS'REBackTrackData'
p1179
ag7
ag12
ag5
ag5
aS'char'
p1180
ag7
ag12
aS'variable_8'
p1181
ag339
aS'variable_8'
p1182
aS'->'
p1183
aS'variable_52'
p1184
ag12
ag17
aS'variable_5'
p1185
aS'->'
p1186
aS'variable_32'
p1187
ag15
aS'variable_8'
p1188
aS'->'
p1189
aS'variable_32'
p1190
ag17
aS'variable_24'
p1191
ag15
aS'variable_8'
p1192
aS'->'
p1193
aS'variable_71'
p1194
ag17
aS'variable_27'
p1195
ag15
ag5
aS'variable_28'
p1196
ag12
aS'variable_8'
p1197
aS'->'
p1198
aS'variable_72'
p1199
ag17
aS'variable_3'
p1200
aS'->'
p1201
aS'variable_37'
p1202
ag15
aS'variable_8'
p1203
aS'->'
p1204
aS'variable_73'
p1205
ag17
aS'memcpy'
p1206
ag5
aS'variable_3'
p1207
aS'->'
p1208
aS'variable_36'
p1209
ag9
aS'variable_8'
p1210
ag131
ag199
ag9
aS'sizeof'
p1211
ag5
aS'variable_13'
p1212
ag12
ag7
aS'variable_8'
p1213
aS'->'
p1214
aS'variable_73'
p1215
ag12
ag17
aS'variable_14'
p1216
ag15
ag65
aS'variable_3'
p1217
aS'->'
p1218
aS'variable_36'
p1219
ag122
aS'variable_3'
p1220
aS'->'
p1221
aS'variable_37'
p1222
ag339
ag199
ag126
ag17
aS'if'
p1223
ag5
aS'variable_8'
p1224
aS'->'
p1225
aS'variable_74'
p1226
ag12
aS'memcpy'
p1227
ag5
ag65
aS'variable_5'
p1228
aS'->'
p1229
aS'variable_45'
p1230
ag122
aS'variable_8'
p1231
aS'->'
p1232
aS'variable_16'
p1233
ag126
ag9
ag5
aS'char'
p1234
ag7
ag12
ag5
aS'variable_8'
p1235
ag131
ag199
ag12
ag131
aS'sizeof'
p1236
ag5
aS'variable_13'
p1237
ag12
ag7
aS'variable_8'
p1238
aS'->'
p1239
aS'variable_73'
p1240
ag9
aS'sizeof'
p1241
ag5
aS'variable_75'
p1242
ag12
ag7
aS'variable_8'
p1243
aS'->'
p1244
aS'variable_74'
p1245
ag12
ag17
aS'variable_18'
p1246
ag15
aS'variable_8'
p1247
aS'->'
p1248
aS'variable_16'
p1249
ag131
aS'variable_8'
p1250
aS'->'
p1251
aS'variable_74'
p1252
ag17
aS'for'
p1253
ag5
aS'variable_17'
p1254
ag15
aS'variable_14'
p1255
aS'->'
p1256
aS'variable_18'
p1257
ag17
aS'variable_17'
p1258
ag73
aS'variable_18'
p1259
ag17
aS'variable_17'
p1260
aS'++'
p1261
ag12
aS'variable_5'
p1262
aS'->'
p1263
aS'variable_45'
p1264
ag122
aS'variable_17'
p1265
ag126
ag196
aS'variable_46'
p1266
ag15
ag339
ag199
ag17
aS'variable_18'
p1267
ag15
aS'variable_14'
p1268
aS'->'
p1269
aS'variable_18'
p1270
ag17
aS'variable_5'
p1271
ag15
aS'variable_6'
p1272
ag17
aS'variable_27'
p1273
ag15
ag5
aS'variable_28'
p1274
ag12
ag7
aS'variable_24'
p1275
aS'++'
p1276
ag17
aa(lp1277
S'static'
p1278
aS'func_0'
p1279
ag5
aS'variable_2'
p1280
ag7
aS'variable_3'
p1281
ag9
aS'variable_4'
p1282
ag7
aS'variable_5'
p1283
ag12
aS'variable_4'
p1284
ag7
aS'variable_6'
p1285
ag15
aS'NULL'
p1286
ag17
aS'variable_7'
p1287
ag7
aS'variable_8'
p1288
ag17
aS'variable_9'
p1289
ag7
aS'variable_10'
p1290
ag9
ag7
aS'variable_11'
p1291
ag17
aS'REOp'
p1292
aS'variable_12'
p1293
ag17
aS'variable_13'
p1294
ag7
aS'variable_14'
p1295
ag17
aS'const'
p1296
aS'jschar'
p1297
ag7
aS'variable_15'
p1298
ag17
aS'size_t'
p1299
aS'variable_16'
p1300
ag9
aS'variable_17'
p1301
ag17
aS'size_t'
p1302
aS'variable_18'
p1303
ag15
ag35
ag17
aS'jschar'
p1304
aS'variable_19'
p1305
ag9
aS'variable_20'
p1306
ag17
aS'variable_21'
p1307
ag7
aS'variable_22'
p1308
ag17
aS'JSBool'
p1309
aS'variable_23'
p1310
ag17
aS'variable_9'
p1311
ag7
aS'variable_24'
p1312
ag15
aS'variable_3'
p1313
aS'->'
p1314
aS'variable_25'
p1315
aS'->'
p1316
aS'variable_26'
p1317
ag17
aS'REOp'
p1318
aS'variable_27'
p1319
ag15
ag5
aS'variable_28'
p1320
ag12
ag7
aS'variable_24'
p1321
aS'++'
p1322
ag17
aS'if'
p1323
ag5
aS'func_1'
p1324
ag5
aS'variable_27'
p1325
ag12
aS'&&'
p1326
ag59
ag5
aS'variable_3'
p1327
aS'->'
p1328
aS'variable_25'
p1329
aS'->'
p1330
aS'variable_29'
p1331
ag65
aS'variable_30'
p1332
ag12
ag12
aS'variable_23'
p1333
ag15
aS'variable_31'
p1334
ag17
aS'while'
p1335
ag5
aS'variable_5'
p1336
aS'->'
p1337
aS'variable_32'
p1338
ag73
ag15
aS'variable_3'
p1339
aS'->'
p1340
aS'variable_33'
p1341
ag12
aS'variable_10'
p1342
ag15
aS'variable_24'
p1343
ag17
aS'variable_6'
p1344
ag15
aS'func_2'
p1345
ag5
aS'variable_3'
p1346
ag9
aS'variable_5'
p1347
ag9
aS'variable_27'
p1348
ag9
ag65
aS'variable_10'
p1349
ag9
aS'variable_34'
p1350
ag12
ag17
aS'if'
p1351
ag5
aS'variable_6'
p1352
ag12
aS'variable_23'
p1353
ag15
aS'variable_34'
p1354
ag17
aS'variable_5'
p1355
ag15
aS'variable_6'
p1356
ag17
aS'variable_24'
p1357
ag15
aS'variable_10'
p1358
ag17
aS'variable_27'
p1359
ag15
ag5
aS'variable_28'
p1360
ag12
ag7
aS'variable_24'
p1361
aS'++'
p1362
ag17
aS'variable_3'
p1363
aS'->'
p1364
aS'variable_35'
p1365
aS'++'
p1366
ag17
aS'variable_5'
p1367
aS'->'
p1368
aS'variable_32'
p1369
aS'++'
p1370
ag17
aS'if'
p1371
ag5
ag59
aS'variable_23'
p1372
ag12
aS'const'
p1373
aS'char'
p1374
ag7
aS'variable_36'
p1375
ag15
aS'variable_37'
p1376
ag122
aS'variable_27'
p1377
ag126
ag17
aS'func_3'
p1378
ag5
aS'"'
p1379
aS'\\'
p1380
aS'n'
p1381
aS'%'
p1382
aS'06d'
p1383
ag572
ag1382
ag7
aS's'
p1384
ag1382
ag1384
ag1379
ag9
aS'variable_24'
p1385
ag339
aS'variable_3'
p1386
aS'->'
p1387
aS'variable_25'
p1388
aS'->'
p1389
aS'variable_26'
p1390
ag9
aS'variable_3'
p1391
aS'->'
p1392
aS'variable_38'
p1393
ag7
aS'2'
p1394
ag9
ag1379
ag1379
ag9
aS'variable_36'
p1395
ag12
ag17
aS'if'
p1396
ag5
aS'func_4'
p1397
ag5
aS'variable_27'
p1398
ag12
ag12
aS'variable_6'
p1399
ag15
aS'func_5'
p1400
ag5
aS'variable_3'
p1401
ag9
aS'variable_5'
p1402
ag9
aS'variable_27'
p1403
ag9
ag65
aS'variable_24'
p1404
ag9
aS'variable_34'
p1405
ag12
ag17
aS'variable_14'
p1406
ag15
ag65
aS'variable_3'
p1407
aS'->'
p1408
aS'variable_39'
p1409
ag122
aS'variable_3'
p1410
aS'->'
p1411
aS'variable_38'
p1412
ag126
ag17
aS'switch'
p1413
ag5
aS'variable_27'
p1414
ag12
aS'variable_10'
p1415
ag15
aS'variable_24'
p1416
ag131
aS'func_6'
p1417
ag5
aS'variable_24'
p1418
ag12
ag17
aS'variable_24'
p1419
aS'+='
p1420
aS'variable_40'
p1421
ag17
aS'variable_20'
p1422
ag15
aS'func_7'
p1423
ag5
aS'variable_24'
p1424
ag12
ag17
aS'variable_24'
p1425
aS'+='
p1426
aS'variable_40'
p1427
ag17
aS'variable_17'
p1428
ag15
aS'func_8'
p1429
ag5
aS'variable_24'
p1430
ag12
ag17
aS'variable_24'
p1431
aS'+='
p1432
aS'variable_40'
p1433
ag17
aS'if'
p1434
ag5
aS'variable_5'
p1435
aS'->'
p1436
aS'variable_32'
p1437
aS'!='
p1438
aS'variable_3'
p1439
aS'->'
p1440
aS'variable_33'
p1441
ag12
aS'if'
p1442
ag5
ag7
aS'variable_5'
p1443
aS'->'
p1444
aS'variable_32'
p1445
aS'=='
p1446
aS'variable_20'
p1447
ag12
aS'variable_22'
p1448
ag15
ag65
aS'variable_3'
p1449
aS'->'
p1450
aS'variable_25'
p1451
aS'->'
p1452
aS'variable_41'
p1453
ag122
aS'variable_17'
p1454
ag126
ag17
aS'if'
p1455
ag5
ag59
aS'variable_22'
p1456
aS'->'
p1457
aS'variable_42'
p1458
aS'&&'
p1459
ag59
aS'func_9'
p1460
ag5
aS'variable_3'
p1461
ag9
aS'variable_22'
p1462
ag12
ag12
aS'variable_19'
p1463
ag15
ag7
aS'variable_5'
p1464
aS'->'
p1465
aS'variable_32'
p1466
ag17
aS'variable_17'
p1467
ag15
aS'variable_19'
p1468
aS'>>'
p1469
ag185
ag17
aS'if'
p1470
ag5
ag5
aS'variable_19'
p1471
ag188
aS'variable_22'
p1472
aS'->'
p1473
aS'variable_43'
p1474
aS'||'
p1475
ag59
ag5
aS'variable_22'
p1476
aS'->'
p1477
aS'variable_44'
p1478
ag196
aS'variable_45'
p1479
ag122
aS'variable_17'
p1480
ag126
ag65
ag5
ag199
aS'<<'
p1481
ag5
aS'variable_19'
p1482
ag65
aS'0x7'
p1483
ag12
ag12
ag12
ag12
ag203
aS'variable_22'
p1484
aS'->'
p1485
aS'variable_46'
p1486
ag12
aS'variable_6'
p1487
ag15
aS'NULL'
p1488
ag17
aS'variable_10'
p1489
ag15
aS'variable_24'
p1490
ag131
aS'func_10'
p1491
ag5
aS'variable_24'
p1492
ag12
ag17
aS'variable_24'
p1493
aS'+='
p1494
aS'variable_40'
p1495
ag17
aS'variable_19'
p1496
ag15
aS'func_11'
p1497
ag5
aS'variable_24'
p1498
ag12
ag17
aS'variable_24'
p1499
aS'+='
p1500
aS'variable_40'
p1501
ag17
aS'variable_20'
p1502
ag15
aS'func_12'
p1503
ag5
aS'variable_24'
p1504
ag12
ag17
aS'variable_24'
p1505
aS'+='
p1506
aS'variable_40'
p1507
ag17
aS'if'
p1508
ag5
aS'variable_5'
p1509
aS'->'
p1510
aS'variable_32'
p1511
aS'=='
p1512
aS'variable_3'
p1513
aS'->'
p1514
aS'variable_33'
p1515
aS'||'
p1516
ag5
ag7
aS'variable_5'
p1517
aS'->'
p1518
aS'variable_32'
p1519
aS'!='
p1520
aS'variable_19'
p1521
aS'&&'
p1522
ag7
aS'variable_5'
p1523
aS'->'
p1524
aS'variable_32'
p1525
aS'!='
p1526
aS'variable_20'
p1527
ag12
ag12
aS'variable_6'
p1528
ag15
aS'NULL'
p1529
ag17
aS'variable_10'
p1530
ag15
aS'variable_24'
p1531
ag131
aS'func_13'
p1532
ag5
aS'variable_24'
p1533
ag12
ag17
aS'variable_24'
p1534
aS'+='
p1535
aS'variable_40'
p1536
ag17
aS'variable_14'
p1537
aS'->'
p1538
aS'variable_18'
p1539
ag15
aS'variable_18'
p1540
ag17
aS'variable_27'
p1541
ag15
ag5
aS'variable_28'
p1542
ag12
ag7
aS'variable_24'
p1543
aS'++'
p1544
ag17
aS'variable_15'
p1545
ag15
aS'variable_5'
p1546
aS'->'
p1547
aS'variable_32'
p1548
ag17
aS'if'
p1549
ag5
aS'func_14'
p1550
ag5
aS'variable_27'
p1551
ag12
ag12
aS'if'
p1552
ag5
ag59
aS'func_15'
p1553
ag5
aS'variable_3'
p1554
ag9
aS'variable_5'
p1555
ag9
aS'variable_27'
p1556
ag9
ag65
aS'variable_24'
p1557
ag9
aS'variable_34'
p1558
ag12
ag12
aS'variable_27'
p1559
ag15
ag5
aS'variable_28'
p1560
ag12
ag7
aS'variable_10'
p1561
aS'++'
p1562
ag17
aS'variable_24'
p1563
ag15
aS'variable_10'
p1564
ag17
aS'variable_6'
p1565
ag15
aS'variable_5'
p1566
ag17
aS'variable_27'
p1567
ag15
ag5
aS'variable_28'
p1568
ag12
ag7
aS'variable_24'
p1569
aS'++'
p1570
ag17
aS'variable_12'
p1571
ag15
ag5
aS'variable_28'
p1572
ag12
ag7
aS'variable_10'
p1573
aS'++'
p1574
ag17
aS'if'
p1575
ag5
ag59
aS'func_16'
p1576
ag5
aS'variable_3'
p1577
ag9
aS'variable_12'
p1578
ag9
aS'variable_10'
p1579
ag9
aS'variable_5'
p1580
ag9
aS'variable_15'
p1581
ag9
ag35
ag9
ag35
ag12
ag12
aS'if'
p1582
ag5
ag59
aS'variable_6'
p1583
ag12
aS'variable_6'
p1584
ag15
aS'variable_5'
p1585
ag17
aS'variable_24'
p1586
aS'+='
p1587
aS'func_17'
p1588
ag5
aS'variable_24'
p1589
ag12
ag17
aS'variable_27'
p1590
ag15
ag5
aS'variable_28'
p1591
ag12
ag7
aS'variable_24'
p1592
aS'++'
p1593
ag17
aS'if'
p1594
ag5
ag59
aS'variable_6'
p1595
ag12
aS'variable_6'
p1596
ag15
aS'variable_5'
p1597
ag17
aS'variable_27'
p1598
ag15
ag5
aS'variable_28'
p1599
ag12
ag7
aS'variable_24'
p1600
aS'++'
p1601
ag17
aS'variable_24'
p1602
ag15
aS'func_18'
p1603
ag5
aS'variable_24'
p1604
ag9
ag65
aS'variable_16'
p1605
ag12
ag17
aS'func_19'
p1606
ag5
aS'variable_16'
p1607
ag73
aS'variable_3'
p1608
aS'->'
p1609
aS'variable_25'
p1610
aS'->'
p1611
aS'variable_47'
p1612
ag12
ag17
aS'if'
p1613
ag5
aS'variable_16'
p1614
ag131
ag199
ag188
aS'variable_18'
p1615
ag12
aS'variable_18'
p1616
ag15
aS'variable_16'
p1617
ag131
ag199
ag17
aS'variable_5'
p1618
aS'->'
p1619
aS'variable_48'
p1620
ag122
aS'variable_16'
p1621
ag126
ag196
aS'variable_49'
p1622
ag15
aS'variable_5'
p1623
aS'->'
p1624
aS'variable_32'
p1625
ag339
aS'variable_3'
p1626
aS'->'
p1627
aS'variable_50'
p1628
ag17
aS'variable_5'
p1629
aS'->'
p1630
aS'variable_48'
p1631
ag122
aS'variable_16'
p1632
ag126
ag196
aS'variable_43'
p1633
ag15
ag35
ag17
aS'variable_27'
p1634
ag15
ag5
aS'variable_28'
p1635
ag12
ag7
aS'variable_24'
p1636
aS'++'
p1637
ag17
aS'variable_24'
p1638
ag15
aS'func_20'
p1639
ag5
aS'variable_24'
p1640
ag9
ag65
aS'variable_16'
p1641
ag12
ag17
aS'func_21'
p1642
ag5
aS'variable_16'
p1643
ag73
aS'variable_3'
p1644
aS'->'
p1645
aS'variable_25'
p1646
aS'->'
p1647
aS'variable_47'
p1648
ag12
ag17
aS'variable_51'
p1649
ag15
ag65
aS'variable_5'
p1650
aS'->'
p1651
aS'variable_48'
p1652
ag122
aS'variable_16'
p1653
ag126
ag17
aS'variable_52'
p1654
ag15
aS'variable_5'
p1655
aS'->'
p1656
aS'variable_32'
p1657
ag339
ag5
aS'variable_3'
p1658
aS'->'
p1659
aS'variable_50'
p1660
ag131
aS'variable_51'
p1661
aS'->'
p1662
aS'variable_49'
p1663
ag12
ag17
aS'variable_51'
p1664
aS'->'
p1665
aS'variable_43'
p1666
ag15
ag5
aS'variable_52'
p1667
ag73
ag35
ag12
ag570
ag35
ag572
ag5
aS'size_t'
p1668
ag12
aS'variable_52'
p1669
ag17
aS'variable_27'
p1670
ag15
ag5
aS'variable_28'
p1671
ag12
ag7
aS'variable_24'
p1672
aS'++'
p1673
ag17
aS'if'
p1674
ag5
ag59
aS'variable_6'
p1675
ag12
aS'variable_6'
p1676
ag15
aS'variable_5'
p1677
ag17
aS'variable_10'
p1678
ag15
aS'variable_24'
p1679
ag131
aS'func_22'
p1680
ag5
aS'variable_24'
p1681
ag12
ag17
aS'variable_24'
p1682
aS'+='
p1683
aS'variable_40'
p1684
ag17
aS'variable_27'
p1685
ag15
ag5
aS'variable_28'
p1686
ag12
ag7
aS'variable_24'
p1687
aS'++'
p1688
ag17
aS'variable_11'
p1689
ag15
aS'variable_24'
p1690
ag17
aS'if'
p1691
ag5
aS'func_23'
p1692
ag5
aS'variable_27'
p1693
ag12
aS'&&'
p1694
ag59
aS'func_24'
p1695
ag5
aS'variable_3'
p1696
ag9
aS'variable_5'
p1697
ag9
aS'variable_27'
p1698
ag9
ag65
aS'variable_11'
p1699
ag9
aS'variable_31'
p1700
ag12
ag12
aS'variable_6'
p1701
ag15
aS'NULL'
p1702
ag17
aS'variable_14'
p1703
aS'->'
p1704
aS'variable_44'
p1705
ag196
aS'variable_53'
p1706
ag196
aS'variable_54'
p1707
ag15
ag5
aS'char'
p1708
ag7
ag12
aS'variable_3'
p1709
aS'->'
p1710
aS'variable_55'
p1711
ag339
ag5
aS'char'
p1712
ag7
ag12
aS'variable_3'
p1713
aS'->'
p1714
aS'variable_56'
p1715
ag17
aS'variable_14'
p1716
aS'->'
p1717
aS'variable_44'
p1718
ag196
aS'variable_53'
p1719
ag196
aS'variable_57'
p1720
ag15
aS'variable_3'
p1721
aS'->'
p1722
aS'variable_58'
p1723
ag17
aS'variable_14'
p1724
aS'->'
p1725
aS'variable_49'
p1726
ag15
aS'variable_5'
p1727
aS'->'
p1728
aS'variable_32'
p1729
ag339
aS'variable_3'
p1730
aS'->'
p1731
aS'variable_50'
p1732
ag17
aS'variable_14'
p1733
aS'->'
p1734
aS'variable_18'
p1735
ag15
aS'variable_18'
p1736
ag17
aS'if'
p1737
ag5
ag59
aS'func_25'
p1738
ag5
aS'variable_3'
p1739
ag9
aS'variable_59'
p1740
ag9
aS'variable_10'
p1741
ag9
aS'variable_5'
p1742
ag9
aS'variable_5'
p1743
aS'->'
p1744
aS'variable_32'
p1745
ag9
ag35
ag9
ag35
ag12
ag12
aS'variable_10'
p1746
ag15
aS'variable_24'
p1747
ag131
aS'func_26'
p1748
ag5
aS'variable_24'
p1749
ag12
ag17
aS'variable_24'
p1750
aS'+='
p1751
aS'variable_40'
p1752
ag17
aS'variable_27'
p1753
ag15
ag5
aS'variable_28'
p1754
ag12
ag7
aS'variable_24'
p1755
aS'++'
p1756
ag17
aS'variable_11'
p1757
ag15
aS'variable_24'
p1758
ag17
aS'if'
p1759
ag5
aS'func_27'
p1760
ag5
aS'variable_27'
p1761
ag12
aS'&&'
p1762
aS'func_28'
p1763
ag5
aS'variable_3'
p1764
ag9
aS'variable_5'
p1765
ag9
aS'variable_27'
p1766
ag9
ag65
aS'variable_11'
p1767
ag9
aS'variable_31'
p1768
ag12
aS'&&'
p1769
ag7
aS'variable_11'
p1770
aS'=='
p1771
aS'variable_60'
p1772
ag12
aS'variable_6'
p1773
ag15
aS'NULL'
p1774
ag17
aS'variable_14'
p1775
aS'->'
p1776
aS'variable_44'
p1777
ag196
aS'variable_53'
p1778
ag196
aS'variable_54'
p1779
ag15
ag5
aS'char'
p1780
ag7
ag12
aS'variable_3'
p1781
aS'->'
p1782
aS'variable_55'
p1783
ag339
ag5
aS'char'
p1784
ag7
ag12
aS'variable_3'
p1785
aS'->'
p1786
aS'variable_56'
p1787
ag17
aS'variable_14'
p1788
aS'->'
p1789
aS'variable_44'
p1790
ag196
aS'variable_53'
p1791
ag196
aS'variable_57'
p1792
ag15
aS'variable_3'
p1793
aS'->'
p1794
aS'variable_58'
p1795
ag17
aS'variable_14'
p1796
aS'->'
p1797
aS'variable_49'
p1798
ag15
aS'variable_5'
p1799
aS'->'
p1800
aS'variable_32'
p1801
ag339
aS'variable_3'
p1802
aS'->'
p1803
aS'variable_50'
p1804
ag17
aS'variable_14'
p1805
aS'->'
p1806
aS'variable_18'
p1807
ag15
aS'variable_18'
p1808
ag17
aS'if'
p1809
ag5
ag59
aS'func_29'
p1810
ag5
aS'variable_3'
p1811
ag9
aS'variable_60'
p1812
ag9
aS'variable_10'
p1813
ag9
aS'variable_5'
p1814
ag9
aS'variable_5'
p1815
aS'->'
p1816
aS'variable_32'
p1817
ag9
ag35
ag9
ag35
ag12
ag12
aS'variable_5'
p1818
aS'->'
p1819
aS'variable_32'
p1820
ag15
aS'variable_3'
p1821
aS'->'
p1822
aS'variable_50'
p1823
ag131
aS'variable_14'
p1824
aS'->'
p1825
aS'variable_49'
p1826
ag17
aS'variable_3'
p1827
aS'->'
p1828
aS'variable_55'
p1829
ag15
ag5
aS'REBackTrackData'
p1830
ag7
ag12
ag5
ag5
aS'char'
p1831
ag7
ag12
aS'variable_3'
p1832
aS'->'
p1833
aS'variable_56'
p1834
ag131
aS'variable_14'
p1835
aS'->'
p1836
aS'variable_44'
p1837
ag196
aS'variable_53'
p1838
ag196
aS'variable_54'
p1839
ag12
ag17
aS'variable_3'
p1840
aS'->'
p1841
aS'variable_58'
p1842
ag15
aS'variable_14'
p1843
aS'->'
p1844
aS'variable_44'
p1845
ag196
aS'variable_53'
p1846
ag196
aS'variable_57'
p1847
ag17
aS'if'
p1848
ag5
aS'variable_6'
p1849
ag12
aS'variable_6'
p1850
ag15
aS'variable_5'
p1851
ag17
aS'--'
p1852
aS'variable_3'
p1853
aS'->'
p1854
aS'variable_38'
p1855
ag17
aS'variable_5'
p1856
aS'->'
p1857
aS'variable_32'
p1858
ag15
aS'variable_3'
p1859
aS'->'
p1860
aS'variable_50'
p1861
ag131
aS'variable_14'
p1862
aS'->'
p1863
aS'variable_49'
p1864
ag17
aS'variable_3'
p1865
aS'->'
p1866
aS'variable_55'
p1867
ag15
ag5
aS'REBackTrackData'
p1868
ag7
ag12
ag5
ag5
aS'char'
p1869
ag7
ag12
aS'variable_3'
p1870
aS'->'
p1871
aS'variable_56'
p1872
ag131
aS'variable_14'
p1873
aS'->'
p1874
aS'variable_44'
p1875
ag196
aS'variable_53'
p1876
ag196
aS'variable_54'
p1877
ag12
ag17
aS'variable_3'
p1878
aS'->'
p1879
aS'variable_58'
p1880
ag15
aS'variable_14'
p1881
aS'->'
p1882
aS'variable_44'
p1883
ag196
aS'variable_53'
p1884
ag196
aS'variable_57'
p1885
ag17
aS'variable_6'
p1886
ag15
ag5
ag59
aS'variable_6'
p1887
ag12
ag570
aS'variable_5'
p1888
ag572
aS'NULL'
p1889
ag17
aS'variable_14'
p1890
aS'->'
p1891
aS'variable_44'
p1892
ag196
aS'variable_61'
p1893
ag196
aS'variable_62'
p1894
ag15
ag35
ag17
aS'variable_14'
p1895
aS'->'
p1896
aS'variable_44'
p1897
ag196
aS'variable_61'
p1898
ag196
aS'variable_63'
p1899
ag15
ag5
aS'variable_64'
p1900
ag12
ag339
ag199
ag17
aS'variable_14'
p1901
aS'->'
p1902
aS'variable_44'
p1903
ag196
aS'variable_61'
p1904
ag196
aS'variable_62'
p1905
ag15
ag199
ag17
aS'variable_14'
p1906
aS'->'
p1907
aS'variable_44'
p1908
ag196
aS'variable_61'
p1909
ag196
aS'variable_63'
p1910
ag15
ag5
aS'variable_64'
p1911
ag12
ag339
ag199
ag17
aS'variable_14'
p1912
aS'->'
p1913
aS'variable_44'
p1914
ag196
aS'variable_61'
p1915
ag196
aS'variable_62'
p1916
ag15
ag35
ag17
aS'variable_14'
p1917
aS'->'
p1918
aS'variable_44'
p1919
ag196
aS'variable_61'
p1920
ag196
aS'variable_63'
p1921
ag15
ag199
ag17
aS'variable_24'
p1922
ag15
aS'func_30'
p1923
ag5
aS'variable_24'
p1924
ag9
ag65
aS'variable_17'
p1925
ag12
ag17
aS'variable_14'
p1926
aS'->'
p1927
aS'variable_44'
p1928
ag196
aS'variable_61'
p1929
ag196
aS'variable_62'
p1930
ag15
aS'variable_17'
p1931
ag17
aS'variable_24'
p1932
ag15
aS'func_31'
p1933
ag5
aS'variable_24'
p1934
ag9
ag65
aS'variable_17'
p1935
ag12
ag17
aS'variable_14'
p1936
aS'->'
p1937
aS'variable_44'
p1938
ag196
aS'variable_61'
p1939
ag196
aS'variable_63'
p1940
ag15
aS'variable_17'
p1941
ag339
ag199
ag17
aS'func_32'
p1942
ag5
aS'variable_14'
p1943
aS'->'
p1944
aS'variable_44'
p1945
ag196
aS'variable_61'
p1946
ag196
aS'variable_62'
p1947
ag73
ag15
aS'variable_14'
p1948
aS'->'
p1949
aS'variable_44'
p1950
ag196
aS'variable_61'
p1951
ag196
aS'variable_63'
p1952
ag12
ag17
aS'if'
p1953
ag5
aS'variable_14'
p1954
aS'->'
p1955
aS'variable_44'
p1956
ag196
aS'variable_61'
p1957
ag196
aS'variable_63'
p1958
aS'=='
p1959
ag35
ag12
aS'variable_24'
p1960
ag15
aS'variable_24'
p1961
ag131
aS'func_33'
p1962
ag5
aS'variable_24'
p1963
ag12
ag17
aS'variable_27'
p1964
ag15
ag5
aS'variable_28'
p1965
ag12
ag7
aS'variable_24'
p1966
aS'++'
p1967
ag17
aS'variable_6'
p1968
ag15
aS'variable_5'
p1969
ag17
aS'variable_10'
p1970
ag15
aS'variable_24'
p1971
ag131
aS'variable_40'
p1972
ag17
aS'variable_27'
p1973
ag15
ag5
aS'variable_28'
p1974
ag12
ag7
aS'variable_10'
p1975
aS'++'
p1976
ag17
aS'variable_15'
p1977
ag15
aS'variable_5'
p1978
aS'->'
p1979
aS'variable_32'
p1980
ag17
aS'if'
p1981
ag5
aS'func_34'
p1982
ag5
aS'variable_27'
p1983
ag12
ag12
aS'if'
p1984
ag5
ag59
aS'func_35'
p1985
ag5
aS'variable_3'
p1986
ag9
aS'variable_5'
p1987
ag9
aS'variable_27'
p1988
ag9
ag65
aS'variable_10'
p1989
ag9
aS'variable_34'
p1990
ag12
ag12
aS'if'
p1991
ag5
aS'variable_14'
p1992
aS'->'
p1993
aS'variable_44'
p1994
ag196
aS'variable_61'
p1995
ag196
aS'variable_62'
p1996
aS'=='
p1997
ag35
ag12
aS'variable_6'
p1998
ag15
aS'variable_5'
p1999
ag17
aS'variable_6'
p2000
ag15
aS'NULL'
p2001
ag17
aS'variable_24'
p2002
ag15
aS'variable_24'
p2003
ag131
aS'func_36'
p2004
ag5
aS'variable_24'
p2005
ag12
ag17
aS'variable_27'
p2006
ag15
ag5
aS'variable_28'
p2007
ag12
ag7
aS'variable_10'
p2008
aS'++'
p2009
ag17
aS'variable_6'
p2010
ag15
aS'variable_5'
p2011
ag17
aS'variable_14'
p2012
aS'->'
p2013
aS'variable_49'
p2014
ag15
aS'variable_15'
p2015
ag339
aS'variable_3'
p2016
aS'->'
p2017
aS'variable_50'
p2018
ag17
aS'variable_14'
p2019
aS'->'
p2020
aS'variable_65'
p2021
ag15
aS'variable_66'
p2022
ag17
aS'variable_14'
p2023
aS'->'
p2024
aS'variable_67'
p2025
ag15
aS'variable_24'
p2026
ag17
aS'variable_14'
p2027
aS'->'
p2028
aS'variable_18'
p2029
ag15
aS'variable_18'
p2030
ag17
aS'func_37'
p2031
ag5
aS'variable_3'
p2032
ag12
ag17
aS'if'
p2033
ag5
aS'variable_14'
p2034
aS'->'
p2035
aS'variable_44'
p2036
ag196
aS'variable_61'
p2037
ag196
aS'variable_62'
p2038
aS'=='
p2039
ag35
aS'&&'
p2040
ag59
aS'func_38'
p2041
ag5
aS'variable_3'
p2042
ag9
aS'variable_66'
p2043
ag9
aS'variable_24'
p2044
ag9
aS'variable_5'
p2045
ag9
aS'variable_15'
p2046
ag9
ag35
ag9
ag35
ag12
ag12
aS'variable_24'
p2047
ag15
aS'variable_10'
p2048
ag17
aS'variable_24'
p2049
ag15
aS'variable_14'
p2050
ag122
ag339
ag199
ag126
ag196
aS'variable_67'
p2051
ag17
aS'variable_27'
p2052
ag15
ag5
aS'variable_28'
p2053
ag12
aS'variable_14'
p2054
ag122
ag339
ag199
ag126
ag196
aS'variable_65'
p2055
ag17
aS'if'
p2056
ag5
ag59
aS'variable_6'
p2057
ag12
aS'variable_6'
p2058
ag15
aS'variable_5'
p2059
ag17
aS'--'
p2060
aS'variable_3'
p2061
aS'->'
p2062
aS'variable_38'
p2063
ag17
aS'if'
p2064
ag5
ag59
aS'variable_6'
p2065
ag12
aS'if'
p2066
ag5
aS'variable_14'
p2067
aS'->'
p2068
aS'variable_44'
p2069
ag196
aS'variable_61'
p2070
ag196
aS'variable_62'
p2071
aS'=='
p2072
ag35
ag12
aS'if'
p2073
ag5
aS'variable_14'
p2074
aS'->'
p2075
aS'variable_44'
p2076
ag196
aS'variable_61'
p2077
ag196
aS'variable_62'
p2078
aS'=='
p2079
ag35
aS'&&'
p2080
aS'variable_5'
p2081
aS'->'
p2082
aS'variable_32'
p2083
aS'=='
p2084
aS'variable_3'
p2085
aS'->'
p2086
aS'variable_50'
p2087
ag131
aS'variable_14'
p2088
aS'->'
p2089
aS'variable_49'
p2090
ag12
aS'variable_6'
p2091
ag15
aS'NULL'
p2092
ag17
aS'if'
p2093
ag5
aS'variable_14'
p2094
aS'->'
p2095
aS'variable_44'
p2096
ag196
aS'variable_61'
p2097
ag196
aS'variable_62'
p2098
aS'!='
p2099
ag35
ag12
aS'variable_14'
p2100
aS'->'
p2101
aS'variable_44'
p2102
ag196
aS'variable_61'
p2103
ag196
aS'variable_62'
p2104
aS'--'
p2105
ag17
aS'if'
p2106
ag5
aS'variable_14'
p2107
aS'->'
p2108
aS'variable_44'
p2109
ag196
aS'variable_61'
p2110
ag196
aS'variable_63'
p2111
aS'!='
p2112
ag5
aS'variable_64'
p2113
ag12
ag339
ag199
ag12
aS'variable_14'
p2114
aS'->'
p2115
aS'variable_44'
p2116
ag196
aS'variable_61'
p2117
ag196
aS'variable_63'
p2118
aS'--'
p2119
ag17
aS'if'
p2120
ag5
aS'variable_14'
p2121
aS'->'
p2122
aS'variable_44'
p2123
ag196
aS'variable_61'
p2124
ag196
aS'variable_63'
p2125
aS'=='
p2126
ag35
ag12
aS'variable_10'
p2127
ag15
aS'variable_24'
p2128
ag131
aS'variable_40'
p2129
ag17
aS'variable_12'
p2130
ag15
ag5
aS'variable_28'
p2131
ag12
ag7
aS'variable_10'
p2132
ag17
aS'variable_15'
p2133
ag15
aS'variable_5'
p2134
aS'->'
p2135
aS'variable_32'
p2136
ag17
aS'if'
p2137
ag5
aS'func_39'
p2138
ag5
aS'variable_12'
p2139
ag12
ag12
aS'variable_10'
p2140
aS'++'
p2141
ag17
aS'if'
p2142
ag5
ag59
aS'func_40'
p2143
ag5
aS'variable_3'
p2144
ag9
aS'variable_5'
p2145
ag9
aS'variable_12'
p2146
ag9
ag65
aS'variable_10'
p2147
ag9
aS'variable_34'
p2148
ag12
ag12
aS'if'
p2149
ag5
aS'variable_14'
p2150
aS'->'
p2151
aS'variable_44'
p2152
ag196
aS'variable_61'
p2153
ag196
aS'variable_62'
p2154
aS'=='
p2155
ag35
ag12
aS'variable_6'
p2156
ag15
aS'NULL'
p2157
ag17
aS'variable_6'
p2158
ag15
aS'variable_5'
p2159
ag17
aS'variable_14'
p2160
aS'->'
p2161
aS'variable_49'
p2162
ag15
aS'variable_15'
p2163
ag339
aS'variable_3'
p2164
aS'->'
p2165
aS'variable_50'
p2166
ag17
aS'func_41'
p2167
ag5
aS'variable_3'
p2168
ag12
ag17
aS'if'
p2169
ag5
aS'variable_14'
p2170
aS'->'
p2171
aS'variable_44'
p2172
ag196
aS'variable_61'
p2173
ag196
aS'variable_62'
p2174
aS'=='
p2175
ag35
aS'&&'
p2176
ag59
aS'func_42'
p2177
ag5
aS'variable_3'
p2178
ag9
aS'variable_66'
p2179
ag9
aS'variable_24'
p2180
ag9
aS'variable_5'
p2181
ag9
aS'variable_15'
p2182
ag9
aS'variable_14'
p2183
aS'->'
p2184
aS'variable_18'
p2185
ag9
aS'variable_18'
p2186
ag339
aS'variable_14'
p2187
aS'->'
p2188
aS'variable_18'
p2189
ag12
ag12
aS'while'
p2190
ag5
ag7
aS'variable_10'
p2191
aS'=='
p2192
aS'variable_68'
p2193
ag12
aS'variable_24'
p2194
ag15
aS'variable_10'
p2195
ag17
aS'variable_27'
p2196
ag15
ag5
aS'variable_28'
p2197
ag12
ag7
aS'variable_24'
p2198
aS'++'
p2199
ag17
aS'variable_18'
p2200
ag15
aS'variable_14'
p2201
aS'->'
p2202
aS'variable_18'
p2203
ag17
aS'variable_6'
p2204
ag15
aS'variable_5'
p2205
ag17
aS'variable_24'
p2206
aS'+='
p2207
aS'func_43'
p2208
ag5
aS'variable_24'
p2209
ag12
ag17
aS'variable_14'
p2210
aS'->'
p2211
aS'variable_44'
p2212
ag196
aS'variable_61'
p2213
ag196
aS'variable_62'
p2214
ag15
ag35
ag17
aS'variable_14'
p2215
aS'->'
p2216
aS'variable_44'
p2217
ag196
aS'variable_61'
p2218
ag196
aS'variable_63'
p2219
ag15
ag5
aS'variable_64'
p2220
ag12
ag339
ag199
ag17
aS'variable_14'
p2221
aS'->'
p2222
aS'variable_44'
p2223
ag196
aS'variable_61'
p2224
ag196
aS'variable_62'
p2225
ag15
ag199
ag17
aS'variable_14'
p2226
aS'->'
p2227
aS'variable_44'
p2228
ag196
aS'variable_61'
p2229
ag196
aS'variable_63'
p2230
ag15
ag5
aS'variable_64'
p2231
ag12
ag339
ag199
ag17
aS'variable_14'
p2232
aS'->'
p2233
aS'variable_44'
p2234
ag196
aS'variable_61'
p2235
ag196
aS'variable_62'
p2236
ag15
ag35
ag17
aS'variable_14'
p2237
aS'->'
p2238
aS'variable_44'
p2239
ag196
aS'variable_61'
p2240
ag196
aS'variable_63'
p2241
ag15
ag199
ag17
aS'variable_24'
p2242
ag15
aS'func_44'
p2243
ag5
aS'variable_24'
p2244
ag9
ag65
aS'variable_17'
p2245
ag12
ag17
aS'variable_14'
p2246
aS'->'
p2247
aS'variable_44'
p2248
ag196
aS'variable_61'
p2249
ag196
aS'variable_62'
p2250
ag15
aS'variable_17'
p2251
ag17
aS'variable_24'
p2252
ag15
aS'func_45'
p2253
ag5
aS'variable_24'
p2254
ag9
ag65
aS'variable_17'
p2255
ag12
ag17
aS'variable_14'
p2256
aS'->'
p2257
aS'variable_44'
p2258
ag196
aS'variable_61'
p2259
ag196
aS'variable_63'
p2260
ag15
aS'variable_17'
p2261
ag339
ag199
ag17
aS'func_46'
p2262
ag5
aS'variable_14'
p2263
aS'->'
p2264
aS'variable_44'
p2265
ag196
aS'variable_61'
p2266
ag196
aS'variable_62'
p2267
ag73
ag15
aS'variable_14'
p2268
aS'->'
p2269
aS'variable_44'
p2270
ag196
aS'variable_61'
p2271
ag196
aS'variable_63'
p2272
ag12
ag17
aS'variable_14'
p2273
aS'->'
p2274
aS'variable_49'
p2275
ag15
aS'variable_5'
p2276
aS'->'
p2277
aS'variable_32'
p2278
ag339
aS'variable_3'
p2279
aS'->'
p2280
aS'variable_50'
p2281
ag17
aS'variable_14'
p2282
aS'->'
p2283
aS'variable_18'
p2284
ag15
aS'variable_18'
p2285
ag17
aS'if'
p2286
ag5
aS'variable_14'
p2287
aS'->'
p2288
aS'variable_44'
p2289
ag196
aS'variable_61'
p2290
ag196
aS'variable_62'
p2291
aS'!='
p2292
ag35
ag12
aS'variable_14'
p2293
aS'->'
p2294
aS'variable_65'
p2295
ag15
aS'variable_69'
p2296
ag17
aS'variable_14'
p2297
aS'->'
p2298
aS'variable_67'
p2299
ag15
aS'variable_24'
p2300
ag17
aS'variable_24'
p2301
aS'+='
p2302
aS'variable_70'
p2303
ag17
aS'variable_27'
p2304
ag15
ag5
aS'variable_28'
p2305
ag12
ag7
aS'variable_24'
p2306
aS'++'
p2307
ag17
aS'if'
p2308
ag5
ag59
aS'func_47'
p2309
ag5
aS'variable_3'
p2310
ag9
aS'variable_69'
p2311
ag9
aS'variable_24'
p2312
ag9
aS'variable_5'
p2313
ag9
aS'variable_5'
p2314
aS'->'
p2315
aS'variable_32'
p2316
ag9
ag35
ag9
ag35
ag12
ag12
aS'variable_24'
p2317
ag15
aS'variable_24'
p2318
ag131
aS'func_48'
p2319
ag5
aS'variable_24'
p2320
ag12
ag17
aS'variable_27'
p2321
ag15
ag5
aS'variable_28'
p2322
ag12
ag7
aS'variable_24'
p2323
aS'++'
p2324
ag17
aS'func_49'
p2325
ag5
ag1379
aS'{'
p2326
ag1382
aS'd'
p2327
ag9
ag1382
ag2327
aS'}'
p2328
ag1379
ag9
aS'variable_14'
p2329
aS'->'
p2330
aS'variable_44'
p2331
ag196
aS'variable_61'
p2332
ag196
aS'variable_62'
p2333
ag9
aS'variable_14'
p2334
aS'->'
p2335
aS'variable_44'
p2336
ag196
aS'variable_61'
p2337
ag196
aS'variable_63'
p2338
ag12
ag17
aS'variable_14'
p2339
aS'->'
p2340
aS'variable_49'
p2341
ag15
aS'variable_5'
p2342
aS'->'
p2343
aS'variable_32'
p2344
ag339
aS'variable_3'
p2345
aS'->'
p2346
aS'variable_50'
p2347
ag17
aS'variable_14'
p2348
aS'->'
p2349
aS'variable_65'
p2350
ag15
aS'variable_69'
p2351
ag17
aS'variable_14'
p2352
aS'->'
p2353
aS'variable_67'
p2354
ag15
aS'variable_24'
p2355
ag17
aS'variable_24'
p2356
aS'+='
p2357
aS'variable_40'
p2358
ag17
aS'for'
p2359
ag5
aS'variable_17'
p2360
ag15
aS'variable_14'
p2361
aS'->'
p2362
aS'variable_18'
p2363
ag17
aS'variable_17'
p2364
ag73
aS'variable_18'
p2365
ag17
aS'variable_17'
p2366
aS'++'
p2367
ag12
aS'variable_5'
p2368
aS'->'
p2369
aS'variable_48'
p2370
ag122
aS'variable_17'
p2371
ag126
ag196
aS'variable_49'
p2372
ag15
ag339
ag199
ag17
aS'func_50'
p2373
ag5
aS'variable_3'
p2374
ag12
ag17
aS'variable_27'
p2375
ag15
ag5
aS'variable_28'
p2376
ag12
ag7
aS'variable_24'
p2377
aS'++'
p2378
ag17
aS'func_51'
p2379
ag5
aS'variable_27'
p2380
ag73
aS'variable_71'
p2381
ag12
ag17
aS'if'
p2382
ag5
ag59
aS'variable_6'
p2383
ag12
aS'if'
p2384
ag5
aS'variable_14'
p2385
aS'->'
p2386
aS'variable_44'
p2387
ag196
aS'variable_61'
p2388
ag196
aS'variable_63'
p2389
aS'=='
p2390
ag5
aS'variable_64'
p2391
ag12
ag339
ag199
aS'||'
p2392
aS'variable_14'
p2393
aS'->'
p2394
aS'variable_44'
p2395
ag196
aS'variable_61'
p2396
ag196
aS'variable_63'
p2397
ag188
ag35
ag12
aS'if'
p2398
ag5
aS'variable_14'
p2399
aS'->'
p2400
aS'variable_44'
p2401
ag196
aS'variable_61'
p2402
ag196
aS'variable_62'
p2403
aS'=='
p2404
ag35
aS'&&'
p2405
aS'variable_5'
p2406
aS'->'
p2407
aS'variable_32'
p2408
aS'=='
p2409
aS'variable_3'
p2410
aS'->'
p2411
aS'variable_50'
p2412
ag131
aS'variable_14'
p2413
aS'->'
p2414
aS'variable_49'
p2415
ag12
aS'variable_6'
p2416
ag15
aS'NULL'
p2417
ag17
aS'if'
p2418
ag5
aS'variable_14'
p2419
aS'->'
p2420
aS'variable_44'
p2421
ag196
aS'variable_61'
p2422
ag196
aS'variable_62'
p2423
aS'!='
p2424
ag35
ag12
aS'variable_14'
p2425
aS'->'
p2426
aS'variable_44'
p2427
ag196
aS'variable_61'
p2428
ag196
aS'variable_62'
p2429
aS'--'
p2430
ag17
aS'if'
p2431
ag5
aS'variable_14'
p2432
aS'->'
p2433
aS'variable_44'
p2434
ag196
aS'variable_61'
p2435
ag196
aS'variable_63'
p2436
aS'!='
p2437
ag5
aS'variable_64'
p2438
ag12
ag339
ag199
ag12
aS'variable_14'
p2439
aS'->'
p2440
aS'variable_44'
p2441
ag196
aS'variable_61'
p2442
ag196
aS'variable_63'
p2443
aS'--'
p2444
ag17
aS'if'
p2445
ag5
aS'variable_14'
p2446
aS'->'
p2447
aS'variable_44'
p2448
ag196
aS'variable_61'
p2449
ag196
aS'variable_62'
p2450
aS'!='
p2451
ag35
ag12
aS'variable_14'
p2452
aS'->'
p2453
aS'variable_49'
p2454
ag15
aS'variable_5'
p2455
aS'->'
p2456
aS'variable_32'
p2457
ag339
aS'variable_3'
p2458
aS'->'
p2459
aS'variable_50'
p2460
ag17
aS'variable_14'
p2461
aS'->'
p2462
aS'variable_18'
p2463
ag15
aS'variable_18'
p2464
ag17
aS'if'
p2465
ag5
ag59
aS'func_52'
p2466
ag5
aS'variable_3'
p2467
ag9
aS'variable_69'
p2468
ag9
aS'variable_24'
p2469
ag9
aS'variable_5'
p2470
ag9
aS'variable_5'
p2471
aS'->'
p2472
aS'variable_32'
p2473
ag9
aS'variable_14'
p2474
aS'->'
p2475
aS'variable_18'
p2476
ag9
aS'variable_18'
p2477
ag339
aS'variable_14'
p2478
aS'->'
p2479
aS'variable_18'
p2480
ag12
ag12
aS'variable_24'
p2481
ag15
aS'variable_24'
p2482
ag131
aS'func_53'
p2483
ag5
aS'variable_24'
p2484
ag12
ag17
aS'variable_27'
p2485
ag15
ag5
aS'variable_28'
p2486
ag12
ag7
aS'variable_24'
p2487
aS'++'
p2488
ag17
aS'func_54'
p2489
ag5
aS'variable_27'
p2490
ag73
aS'variable_71'
p2491
ag12
ag17
aS'variable_6'
p2492
ag15
aS'NULL'
p2493
ag17
aS'if'
p2494
ag5
ag59
aS'variable_6'
p2495
ag12
aS'if'
p2496
ag5
aS'variable_3'
p2497
aS'->'
p2498
aS'variable_58'
p2499
aS'=='
p2500
ag35
ag12
aS'if'
p2501
ag5
ag59
aS'func_55'
p2502
ag5
aS'variable_3'
p2503
aS'->'
p2504
aS'variable_72'
p2505
ag12
ag12
aS'variable_3'
p2506
aS'->'
p2507
aS'variable_73'
p2508
ag15
aS'variable_31'
p2509
ag17
aS'variable_3'
p2510
aS'->'
p2511
aS'variable_74'
p2512
aS'++'
p2513
ag17
aS'if'
p2514
ag5
aS'variable_3'
p2515
aS'->'
p2516
aS'variable_75'
p2517
aS'&&'
p2518
aS'variable_3'
p2519
aS'->'
p2520
aS'variable_74'
p2521
ag188
ag15
aS'variable_3'
p2522
aS'->'
p2523
aS'variable_75'
p2524
ag12
aS'func_56'
p2525
ag5
aS'variable_3'
p2526
aS'->'
p2527
aS'variable_72'
p2528
ag9
aS'variable_76'
p2529
ag9
aS'NULL'
p2530
ag9
aS'variable_77'
p2531
ag12
ag17
aS'variable_3'
p2532
aS'->'
p2533
aS'variable_73'
p2534
ag15
aS'variable_31'
p2535
ag17
aS'variable_8'
p2536
ag15
aS'variable_3'
p2537
aS'->'
p2538
aS'variable_55'
p2539
ag17
aS'variable_3'
p2540
aS'->'
p2541
aS'variable_58'
p2542
ag15
aS'variable_8'
p2543
aS'->'
p2544
aS'variable_57'
p2545
ag17
aS'variable_3'
p2546
aS'->'
p2547
aS'variable_55'
p2548
ag15
ag5
aS'REBackTrackData'
p2549
ag7
ag12
ag5
ag5
aS'char'
p2550
ag7
ag12
aS'variable_8'
p2551
ag339
aS'variable_8'
p2552
aS'->'
p2553
aS'variable_57'
p2554
ag12
ag17
aS'variable_5'
p2555
aS'->'
p2556
aS'variable_32'
p2557
ag15
aS'variable_8'
p2558
aS'->'
p2559
aS'variable_32'
p2560
ag17
aS'variable_24'
p2561
ag15
aS'variable_8'
p2562
aS'->'
p2563
aS'variable_78'
p2564
ag17
aS'variable_27'
p2565
ag15
ag5
aS'variable_28'
p2566
ag12
aS'variable_8'
p2567
aS'->'
p2568
aS'variable_79'
p2569
ag17
aS'func_57'
p2570
ag5
aS'variable_27'
p2571
ag73
aS'variable_71'
p2572
ag12
ag17
aS'variable_3'
p2573
aS'->'
p2574
aS'variable_38'
p2575
ag15
aS'variable_8'
p2576
aS'->'
p2577
aS'variable_80'
p2578
ag17
aS'func_58'
p2579
ag5
aS'variable_3'
p2580
aS'->'
p2581
aS'variable_38'
p2582
ag12
ag17
aS'memcpy'
p2583
ag5
aS'variable_3'
p2584
aS'->'
p2585
aS'variable_39'
p2586
ag9
aS'variable_8'
p2587
ag131
ag199
ag9
aS'sizeof'
p2588
ag5
aS'variable_13'
p2589
ag12
ag7
aS'variable_8'
p2590
aS'->'
p2591
aS'variable_80'
p2592
ag12
ag17
aS'variable_14'
p2593
ag15
ag65
aS'variable_3'
p2594
aS'->'
p2595
aS'variable_39'
p2596
ag122
aS'variable_3'
p2597
aS'->'
p2598
aS'variable_38'
p2599
ag339
ag199
ag126
ag17
aS'if'
p2600
ag5
aS'variable_8'
p2601
aS'->'
p2602
aS'variable_47'
p2603
ag12
aS'memcpy'
p2604
ag5
ag65
aS'variable_5'
p2605
aS'->'
p2606
aS'variable_48'
p2607
ag122
aS'variable_8'
p2608
aS'->'
p2609
aS'variable_16'
p2610
ag126
ag9
ag5
aS'char'
p2611
ag7
ag12
ag5
aS'variable_8'
p2612
ag131
ag199
ag12
ag131
aS'sizeof'
p2613
ag5
aS'variable_13'
p2614
ag12
ag7
aS'variable_8'
p2615
aS'->'
p2616
aS'variable_80'
p2617
ag9
aS'sizeof'
p2618
ag5
aS'variable_81'
p2619
ag12
ag7
aS'variable_8'
p2620
aS'->'
p2621
aS'variable_47'
p2622
ag12
ag17
aS'variable_18'
p2623
ag15
aS'variable_8'
p2624
aS'->'
p2625
aS'variable_16'
p2626
ag131
aS'variable_8'
p2627
aS'->'
p2628
aS'variable_47'
p2629
ag17
aS'for'
p2630
ag5
aS'variable_17'
p2631
ag15
aS'variable_14'
p2632
aS'->'
p2633
aS'variable_18'
p2634
ag17
aS'variable_17'
p2635
ag73
aS'variable_18'
p2636
ag17
aS'variable_17'
p2637
aS'++'
p2638
ag12
aS'variable_5'
p2639
aS'->'
p2640
aS'variable_48'
p2641
ag122
aS'variable_17'
p2642
ag126
ag196
aS'variable_49'
p2643
ag15
ag339
ag199
ag17
aS'variable_18'
p2644
ag15
aS'variable_14'
p2645
aS'->'
p2646
aS'variable_18'
p2647
ag17
aS'func_59'
p2648
ag5
ag1379
ag1380
aS'tBT_Pop'
p2649
ag572
ag1382
aS'ld'
p2650
ag9
ag1382
aS'ld'
p2651
ag1379
ag9
ag5
aS'unsigned'
p2652
aS'long'
p2653
ag12
aS'variable_8'
p2654
aS'->'
p2655
aS'variable_16'
p2656
ag9
ag5
aS'unsigned'
p2657
aS'long'
p2658
ag12
aS'variable_8'
p2659
aS'->'
p2660
aS'variable_47'
p2661
ag12
ag17
aS'variable_5'
p2662
ag15
aS'variable_6'
p2663
ag17
aS'variable_27'
p2664
ag15
ag5
aS'variable_28'
p2665
ag12
ag7
aS'variable_24'
p2666
aS'++'
p2667
ag17
aS'func_60'
p2668
ag5
aS'variable_27'
p2669
ag73
aS'variable_71'
p2670
ag12
ag17
aS'return'
p2671
aS'variable_5'
p2672
ag17
aaa(lp2673
I0
aI0
aa(lp2674
I2240
aI2431
aa(lp2675
(lp2676
S'main'
p2677
aa(lp2678
g2677
aaa(lp2679
S'477 /home/SySeVR/data/CVE_2011_2998_VULN_ExecuteREBytecode.c memcpy 511'
p2680
aS'478 /home/SySeVR/data/CVE_2011_2998_VULN_ExecuteREBytecode.c memcpy 506'
p2681
aa.