(lp0
(lp1
(lp2
S'static'
p3
aS'func_0'
p4
aS'('
p5
aS'variable_2'
p6
aS'*'
p7
aS'variable_3'
p8
aS','
p9
aS'variable_4'
p10
ag7
aS'variable_5'
p11
aS')'
p12
aS'variable_4'
p13
ag7
aS'variable_6'
p14
aS'='
p15
aS'NULL'
p16
aS';'
p17
aS'variable_7'
p18
ag7
aS'variable_8'
p19
ag17
aS'variable_9'
p20
ag7
aS'variable_10'
p21
ag9
ag7
aS'variable_11'
p22
ag17
aS'REOp'
p23
aS'variable_12'
p24
ag17
aS'variable_13'
p25
ag7
aS'variable_14'
p26
ag17
aS'const'
p27
aS'jschar'
p28
ag7
aS'variable_15'
p29
ag17
aS'size_t'
p30
aS'variable_16'
p31
ag9
aS'variable_17'
p32
ag17
aS'size_t'
p33
aS'variable_18'
p34
ag15
aS'0'
p35
ag17
aS'jschar'
p36
aS'variable_19'
p37
ag9
aS'variable_20'
p38
ag17
aS'variable_21'
p39
ag7
aS'variable_22'
p40
ag17
aS'JSBool'
p41
aS'variable_23'
p42
ag17
aS'variable_9'
p43
ag7
aS'variable_24'
p44
ag15
aS'variable_3'
p45
aS'->'
p46
aS'variable_25'
p47
aS'->'
p48
aS'variable_26'
p49
ag17
aS'REOp'
p50
aS'variable_27'
p51
ag15
ag5
aS'variable_28'
p52
ag12
ag7
aS'variable_24'
p53
aS'++'
p54
ag17
aS'if'
p55
ag5
aS'func_1'
p56
ag5
aS'variable_27'
p57
ag12
aS'&&'
p58
aS'!'
p59
ag5
aS'variable_3'
p60
aS'->'
p61
aS'variable_25'
p62
aS'->'
p63
aS'variable_29'
p64
aS'&'
p65
aS'variable_30'
p66
ag12
ag12
aS'variable_23'
p67
ag15
aS'variable_31'
p68
ag17
aS'while'
p69
ag5
aS'variable_5'
p70
aS'->'
p71
aS'variable_32'
p72
aS'<'
p73
ag15
aS'variable_3'
p74
aS'->'
p75
aS'variable_33'
p76
ag12
aS'variable_10'
p77
ag15
aS'variable_24'
p78
ag17
aS'variable_6'
p79
ag15
aS'func_2'
p80
ag5
aS'variable_3'
p81
ag9
aS'variable_5'
p82
ag9
aS'variable_27'
p83
ag9
ag65
aS'variable_10'
p84
ag9
aS'variable_34'
p85
ag12
ag17
aS'if'
p86
ag5
aS'variable_6'
p87
ag12
aS'variable_23'
p88
ag15
aS'variable_34'
p89
ag17
aS'variable_5'
p90
ag15
aS'variable_6'
p91
ag17
aS'variable_24'
p92
ag15
aS'variable_10'
p93
ag17
aS'variable_27'
p94
ag15
ag5
aS'variable_28'
p95
ag12
ag7
aS'variable_24'
p96
aS'++'
p97
ag17
aS'variable_3'
p98
aS'->'
p99
aS'variable_35'
p100
aS'++'
p101
ag17
aS'variable_5'
p102
aS'->'
p103
aS'variable_32'
p104
aS'++'
p105
ag17
aS'if'
p106
ag5
ag59
aS'variable_23'
p107
ag12
aS'const'
p108
aS'char'
p109
ag7
aS'variable_36'
p110
ag15
aS'variable_37'
p111
aS'['
p112
aS'variable_27'
p113
aS']'
p114
ag17
aS'func_3'
p115
ag5
aS'"'
p116
aS'\\'
p117
aS'n'
p118
aS'%'
p119
aS'06d'
p120
aS':'
p121
ag119
ag7
aS's'
p122
ag119
ag122
ag116
ag9
aS'variable_24'
p123
aS'-'
p124
aS'variable_3'
p125
aS'->'
p126
aS'variable_25'
p127
aS'->'
p128
aS'variable_26'
p129
ag9
aS'variable_3'
p130
aS'->'
p131
aS'variable_38'
p132
ag7
aS'2'
p133
ag9
ag116
ag116
ag9
aS'variable_36'
p134
ag12
ag17
aS'if'
p135
ag5
aS'func_4'
p136
ag5
aS'variable_27'
p137
ag12
ag12
aS'variable_6'
p138
ag15
aS'func_5'
p139
ag5
aS'variable_3'
p140
ag9
aS'variable_5'
p141
ag9
aS'variable_27'
p142
ag9
ag65
aS'variable_24'
p143
ag9
aS'variable_34'
p144
ag12
ag17
aS'variable_14'
p145
ag15
ag65
aS'variable_3'
p146
aS'->'
p147
aS'variable_39'
p148
ag112
aS'variable_3'
p149
aS'->'
p150
aS'variable_38'
p151
ag114
ag17
aS'switch'
p152
ag5
aS'variable_27'
p153
ag12
aS'variable_10'
p154
ag15
aS'variable_24'
p155
aS'+'
p156
aS'func_6'
p157
ag5
aS'variable_24'
p158
ag12
ag17
aS'variable_24'
p159
aS'+='
p160
aS'variable_40'
p161
ag17
aS'variable_20'
p162
ag15
aS'func_7'
p163
ag5
aS'variable_24'
p164
ag12
ag17
aS'variable_24'
p165
aS'+='
p166
aS'variable_40'
p167
ag17
aS'variable_17'
p168
ag15
aS'func_8'
p169
ag5
aS'variable_24'
p170
ag12
ag17
aS'variable_24'
p171
aS'+='
p172
aS'variable_40'
p173
ag17
aS'if'
p174
ag5
aS'variable_5'
p175
aS'->'
p176
aS'variable_32'
p177
aS'!='
p178
aS'variable_3'
p179
aS'->'
p180
aS'variable_33'
p181
ag12
aS'if'
p182
ag5
ag7
aS'variable_5'
p183
aS'->'
p184
aS'variable_32'
p185
aS'=='
p186
aS'variable_20'
p187
ag12
aS'variable_22'
p188
ag15
ag65
aS'variable_3'
p189
aS'->'
p190
aS'variable_25'
p191
aS'->'
p192
aS'variable_41'
p193
ag112
aS'variable_17'
p194
ag114
ag17
aS'if'
p195
ag5
ag59
aS'variable_22'
p196
aS'->'
p197
aS'variable_42'
p198
aS'&&'
p199
ag59
aS'func_9'
p200
ag5
aS'variable_3'
p201
ag9
aS'variable_22'
p202
ag12
ag12
aS'variable_19'
p203
ag15
ag7
aS'variable_5'
p204
aS'->'
p205
aS'variable_32'
p206
ag17
aS'variable_17'
p207
ag15
aS'variable_19'
p208
aS'>>'
p209
aS'3'
p210
ag17
aS'if'
p211
ag5
ag5
aS'variable_19'
p212
aS'>'
p213
aS'variable_22'
p214
aS'->'
p215
aS'variable_43'
p216
aS'||'
p217
ag59
ag5
aS'variable_22'
p218
aS'->'
p219
aS'variable_44'
p220
aS'.'
p221
aS'variable_45'
p222
ag112
aS'variable_17'
p223
ag114
ag65
ag5
aS'1'
p224
aS'<<'
p225
ag5
aS'variable_19'
p226
ag65
aS'0x7'
p227
ag12
ag12
ag12
ag12
aS'^'
p228
aS'variable_22'
p229
aS'->'
p230
aS'variable_46'
p231
ag12
aS'variable_6'
p232
ag15
aS'NULL'
p233
ag17
aS'variable_10'
p234
ag15
aS'variable_24'
p235
ag156
aS'func_10'
p236
ag5
aS'variable_24'
p237
ag12
ag17
aS'variable_24'
p238
aS'+='
p239
aS'variable_40'
p240
ag17
aS'variable_19'
p241
ag15
aS'func_11'
p242
ag5
aS'variable_24'
p243
ag12
ag17
aS'variable_24'
p244
aS'+='
p245
aS'variable_40'
p246
ag17
aS'variable_20'
p247
ag15
aS'func_12'
p248
ag5
aS'variable_24'
p249
ag12
ag17
aS'variable_24'
p250
aS'+='
p251
aS'variable_40'
p252
ag17
aS'if'
p253
ag5
aS'variable_5'
p254
aS'->'
p255
aS'variable_32'
p256
aS'=='
p257
aS'variable_3'
p258
aS'->'
p259
aS'variable_33'
p260
aS'||'
p261
ag5
ag7
aS'variable_5'
p262
aS'->'
p263
aS'variable_32'
p264
aS'!='
p265
aS'variable_19'
p266
aS'&&'
p267
ag7
aS'variable_5'
p268
aS'->'
p269
aS'variable_32'
p270
aS'!='
p271
aS'variable_20'
p272
ag12
ag12
aS'variable_6'
p273
ag15
aS'NULL'
p274
ag17
aS'variable_10'
p275
ag15
aS'variable_24'
p276
ag156
aS'func_13'
p277
ag5
aS'variable_24'
p278
ag12
ag17
aS'variable_24'
p279
aS'+='
p280
aS'variable_40'
p281
ag17
aS'variable_14'
p282
aS'->'
p283
aS'variable_18'
p284
ag15
aS'variable_18'
p285
ag17
aS'variable_27'
p286
ag15
ag5
aS'variable_28'
p287
ag12
ag7
aS'variable_24'
p288
aS'++'
p289
ag17
aS'variable_15'
p290
ag15
aS'variable_5'
p291
aS'->'
p292
aS'variable_32'
p293
ag17
aS'if'
p294
ag5
aS'func_14'
p295
ag5
aS'variable_27'
p296
ag12
ag12
aS'if'
p297
ag5
ag59
aS'func_15'
p298
ag5
aS'variable_3'
p299
ag9
aS'variable_5'
p300
ag9
aS'variable_27'
p301
ag9
ag65
aS'variable_24'
p302
ag9
aS'variable_34'
p303
ag12
ag12
aS'variable_27'
p304
ag15
ag5
aS'variable_28'
p305
ag12
ag7
aS'variable_10'
p306
aS'++'
p307
ag17
aS'variable_24'
p308
ag15
aS'variable_10'
p309
ag17
aS'variable_6'
p310
ag15
aS'variable_5'
p311
ag17
aS'variable_27'
p312
ag15
ag5
aS'variable_28'
p313
ag12
ag7
aS'variable_24'
p314
aS'++'
p315
ag17
aS'variable_12'
p316
ag15
ag5
aS'variable_28'
p317
ag12
ag7
aS'variable_10'
p318
aS'++'
p319
ag17
aS'if'
p320
ag5
ag59
aS'func_16'
p321
ag5
aS'variable_3'
p322
ag9
aS'variable_12'
p323
ag9
aS'variable_10'
p324
ag9
aS'variable_5'
p325
ag9
aS'variable_15'
p326
ag9
ag35
ag9
ag35
ag12
ag12
aS'if'
p327
ag5
ag59
aS'variable_6'
p328
ag12
aS'variable_6'
p329
ag15
aS'variable_5'
p330
ag17
aS'variable_24'
p331
aS'+='
p332
aS'func_17'
p333
ag5
aS'variable_24'
p334
ag12
ag17
aS'variable_27'
p335
ag15
ag5
aS'variable_28'
p336
ag12
ag7
aS'variable_24'
p337
aS'++'
p338
ag17
aS'if'
p339
ag5
ag59
aS'variable_6'
p340
ag12
aS'variable_6'
p341
ag15
aS'variable_5'
p342
ag17
aS'variable_27'
p343
ag15
ag5
aS'variable_28'
p344
ag12
ag7
aS'variable_24'
p345
aS'++'
p346
ag17
aS'variable_24'
p347
ag15
aS'func_18'
p348
ag5
aS'variable_24'
p349
ag9
ag65
aS'variable_16'
p350
ag12
ag17
aS'func_19'
p351
ag5
aS'variable_16'
p352
ag73
aS'variable_3'
p353
aS'->'
p354
aS'variable_25'
p355
aS'->'
p356
aS'variable_47'
p357
ag12
ag17
aS'if'
p358
ag5
aS'variable_16'
p359
ag156
ag224
ag213
aS'variable_18'
p360
ag12
aS'variable_18'
p361
ag15
aS'variable_16'
p362
ag156
ag224
ag17
aS'variable_5'
p363
aS'->'
p364
aS'variable_48'
p365
ag112
aS'variable_16'
p366
ag114
ag221
aS'variable_49'
p367
ag15
aS'variable_5'
p368
aS'->'
p369
aS'variable_32'
p370
ag124
aS'variable_3'
p371
aS'->'
p372
aS'variable_50'
p373
ag17
aS'variable_5'
p374
aS'->'
p375
aS'variable_48'
p376
ag112
aS'variable_16'
p377
ag114
ag221
aS'variable_43'
p378
ag15
ag35
ag17
aS'variable_27'
p379
ag15
ag5
aS'variable_28'
p380
ag12
ag7
aS'variable_24'
p381
aS'++'
p382
ag17
aS'variable_24'
p383
ag15
aS'func_20'
p384
ag5
aS'variable_24'
p385
ag9
ag65
aS'variable_16'
p386
ag12
ag17
aS'func_21'
p387
ag5
aS'variable_16'
p388
ag73
aS'variable_3'
p389
aS'->'
p390
aS'variable_25'
p391
aS'->'
p392
aS'variable_47'
p393
ag12
ag17
aS'variable_51'
p394
ag15
ag65
aS'variable_5'
p395
aS'->'
p396
aS'variable_48'
p397
ag112
aS'variable_16'
p398
ag114
ag17
aS'variable_52'
p399
ag15
aS'variable_5'
p400
aS'->'
p401
aS'variable_32'
p402
ag124
ag5
aS'variable_3'
p403
aS'->'
p404
aS'variable_50'
p405
ag156
aS'variable_51'
p406
aS'->'
p407
aS'variable_49'
p408
ag12
ag17
aS'variable_51'
p409
aS'->'
p410
aS'variable_43'
p411
ag15
ag5
aS'variable_52'
p412
ag73
ag35
ag12
aS'?'
p413
ag35
ag121
ag5
aS'size_t'
p414
ag12
aS'variable_52'
p415
ag17
aS'variable_27'
p416
ag15
ag5
aS'variable_28'
p417
ag12
ag7
aS'variable_24'
p418
aS'++'
p419
ag17
aS'if'
p420
ag5
ag59
aS'variable_6'
p421
ag12
aS'variable_6'
p422
ag15
aS'variable_5'
p423
ag17
aS'variable_10'
p424
ag15
aS'variable_24'
p425
ag156
aS'func_22'
p426
ag5
aS'variable_24'
p427
ag12
ag17
aS'variable_24'
p428
aS'+='
p429
aS'variable_40'
p430
ag17
aS'variable_27'
p431
ag15
ag5
aS'variable_28'
p432
ag12
ag7
aS'variable_24'
p433
aS'++'
p434
ag17
aS'variable_11'
p435
ag15
aS'variable_24'
p436
ag17
aS'if'
p437
ag5
aS'func_23'
p438
ag5
aS'variable_27'
p439
ag12
aS'&&'
p440
ag59
aS'func_24'
p441
ag5
aS'variable_3'
p442
ag9
aS'variable_5'
p443
ag9
aS'variable_27'
p444
ag9
ag65
aS'variable_11'
p445
ag9
aS'variable_31'
p446
ag12
ag12
aS'variable_6'
p447
ag15
aS'NULL'
p448
ag17
aS'variable_14'
p449
aS'->'
p450
aS'variable_44'
p451
ag221
aS'variable_53'
p452
ag221
aS'variable_54'
p453
ag15
ag5
aS'char'
p454
ag7
ag12
aS'variable_3'
p455
aS'->'
p456
aS'variable_55'
p457
ag124
ag5
aS'char'
p458
ag7
ag12
aS'variable_3'
p459
aS'->'
p460
aS'variable_56'
p461
ag17
aS'variable_14'
p462
aS'->'
p463
aS'variable_44'
p464
ag221
aS'variable_53'
p465
ag221
aS'variable_57'
p466
ag15
aS'variable_3'
p467
aS'->'
p468
aS'variable_58'
p469
ag17
aS'variable_14'
p470
aS'->'
p471
aS'variable_49'
p472
ag15
aS'variable_5'
p473
aS'->'
p474
aS'variable_32'
p475
ag124
aS'variable_3'
p476
aS'->'
p477
aS'variable_50'
p478
ag17
aS'variable_14'
p479
aS'->'
p480
aS'variable_18'
p481
ag15
aS'variable_18'
p482
ag17
aS'if'
p483
ag5
ag59
aS'func_25'
p484
ag5
aS'variable_3'
p485
ag9
aS'variable_59'
p486
ag9
aS'variable_10'
p487
ag9
aS'variable_5'
p488
ag9
aS'variable_5'
p489
aS'->'
p490
aS'variable_32'
p491
ag9
ag35
ag9
ag35
ag12
ag12
aS'variable_10'
p492
ag15
aS'variable_24'
p493
ag156
aS'func_26'
p494
ag5
aS'variable_24'
p495
ag12
ag17
aS'variable_24'
p496
aS'+='
p497
aS'variable_40'
p498
ag17
aS'variable_27'
p499
ag15
ag5
aS'variable_28'
p500
ag12
ag7
aS'variable_24'
p501
aS'++'
p502
ag17
aS'variable_11'
p503
ag15
aS'variable_24'
p504
ag17
aS'if'
p505
ag5
aS'func_27'
p506
ag5
aS'variable_27'
p507
ag12
aS'&&'
p508
aS'func_28'
p509
ag5
aS'variable_3'
p510
ag9
aS'variable_5'
p511
ag9
aS'variable_27'
p512
ag9
ag65
aS'variable_11'
p513
ag9
aS'variable_31'
p514
ag12
aS'&&'
p515
ag7
aS'variable_11'
p516
aS'=='
p517
aS'variable_60'
p518
ag12
aS'variable_6'
p519
ag15
aS'NULL'
p520
ag17
aS'variable_14'
p521
aS'->'
p522
aS'variable_44'
p523
ag221
aS'variable_53'
p524
ag221
aS'variable_54'
p525
ag15
ag5
aS'char'
p526
ag7
ag12
aS'variable_3'
p527
aS'->'
p528
aS'variable_55'
p529
ag124
ag5
aS'char'
p530
ag7
ag12
aS'variable_3'
p531
aS'->'
p532
aS'variable_56'
p533
ag17
aS'variable_14'
p534
aS'->'
p535
aS'variable_44'
p536
ag221
aS'variable_53'
p537
ag221
aS'variable_57'
p538
ag15
aS'variable_3'
p539
aS'->'
p540
aS'variable_58'
p541
ag17
aS'variable_14'
p542
aS'->'
p543
aS'variable_49'
p544
ag15
aS'variable_5'
p545
aS'->'
p546
aS'variable_32'
p547
ag124
aS'variable_3'
p548
aS'->'
p549
aS'variable_50'
p550
ag17
aS'variable_14'
p551
aS'->'
p552
aS'variable_18'
p553
ag15
aS'variable_18'
p554
ag17
aS'if'
p555
ag5
ag59
aS'func_29'
p556
ag5
aS'variable_3'
p557
ag9
aS'variable_60'
p558
ag9
aS'variable_10'
p559
ag9
aS'variable_5'
p560
ag9
aS'variable_5'
p561
aS'->'
p562
aS'variable_32'
p563
ag9
ag35
ag9
ag35
ag12
ag12
aS'variable_5'
p564
aS'->'
p565
aS'variable_32'
p566
ag15
aS'variable_3'
p567
aS'->'
p568
aS'variable_50'
p569
ag156
aS'variable_14'
p570
aS'->'
p571
aS'variable_49'
p572
ag17
aS'variable_3'
p573
aS'->'
p574
aS'variable_55'
p575
ag15
ag5
aS'REBackTrackData'
p576
ag7
ag12
ag5
ag5
aS'char'
p577
ag7
ag12
aS'variable_3'
p578
aS'->'
p579
aS'variable_56'
p580
ag156
aS'variable_14'
p581
aS'->'
p582
aS'variable_44'
p583
ag221
aS'variable_53'
p584
ag221
aS'variable_54'
p585
ag12
ag17
aS'variable_3'
p586
aS'->'
p587
aS'variable_58'
p588
ag15
aS'variable_14'
p589
aS'->'
p590
aS'variable_44'
p591
ag221
aS'variable_53'
p592
ag221
aS'variable_57'
p593
ag17
aS'if'
p594
ag5
aS'variable_6'
p595
ag12
aS'variable_6'
p596
ag15
aS'variable_5'
p597
ag17
aS'--'
p598
aS'variable_3'
p599
aS'->'
p600
aS'variable_38'
p601
ag17
aS'variable_5'
p602
aS'->'
p603
aS'variable_32'
p604
ag15
aS'variable_3'
p605
aS'->'
p606
aS'variable_50'
p607
ag156
aS'variable_14'
p608
aS'->'
p609
aS'variable_49'
p610
ag17
aS'variable_3'
p611
aS'->'
p612
aS'variable_55'
p613
ag15
ag5
aS'REBackTrackData'
p614
ag7
ag12
ag5
ag5
aS'char'
p615
ag7
ag12
aS'variable_3'
p616
aS'->'
p617
aS'variable_56'
p618
ag156
aS'variable_14'
p619
aS'->'
p620
aS'variable_44'
p621
ag221
aS'variable_53'
p622
ag221
aS'variable_54'
p623
ag12
ag17
aS'variable_3'
p624
aS'->'
p625
aS'variable_58'
p626
ag15
aS'variable_14'
p627
aS'->'
p628
aS'variable_44'
p629
ag221
aS'variable_53'
p630
ag221
aS'variable_57'
p631
ag17
aS'variable_6'
p632
ag15
ag5
ag59
aS'variable_6'
p633
ag12
ag413
aS'variable_5'
p634
ag121
aS'NULL'
p635
ag17
aS'variable_14'
p636
aS'->'
p637
aS'variable_44'
p638
ag221
aS'variable_61'
p639
ag221
aS'variable_62'
p640
ag15
ag35
ag17
aS'variable_14'
p641
aS'->'
p642
aS'variable_44'
p643
ag221
aS'variable_61'
p644
ag221
aS'variable_63'
p645
ag15
ag5
aS'variable_64'
p646
ag12
ag124
ag224
ag17
aS'variable_14'
p647
aS'->'
p648
aS'variable_44'
p649
ag221
aS'variable_61'
p650
ag221
aS'variable_62'
p651
ag15
ag224
ag17
aS'variable_14'
p652
aS'->'
p653
aS'variable_44'
p654
ag221
aS'variable_61'
p655
ag221
aS'variable_63'
p656
ag15
ag5
aS'variable_64'
p657
ag12
ag124
ag224
ag17
aS'variable_14'
p658
aS'->'
p659
aS'variable_44'
p660
ag221
aS'variable_61'
p661
ag221
aS'variable_62'
p662
ag15
ag35
ag17
aS'variable_14'
p663
aS'->'
p664
aS'variable_44'
p665
ag221
aS'variable_61'
p666
ag221
aS'variable_63'
p667
ag15
ag224
ag17
aS'variable_24'
p668
ag15
aS'func_30'
p669
ag5
aS'variable_24'
p670
ag9
ag65
aS'variable_17'
p671
ag12
ag17
aS'variable_14'
p672
aS'->'
p673
aS'variable_44'
p674
ag221
aS'variable_61'
p675
ag221
aS'variable_62'
p676
ag15
aS'variable_17'
p677
ag17
aS'variable_24'
p678
ag15
aS'func_31'
p679
ag5
aS'variable_24'
p680
ag9
ag65
aS'variable_17'
p681
ag12
ag17
aS'variable_14'
p682
aS'->'
p683
aS'variable_44'
p684
ag221
aS'variable_61'
p685
ag221
aS'variable_63'
p686
ag15
aS'variable_17'
p687
ag124
ag224
ag17
aS'func_32'
p688
ag5
aS'variable_14'
p689
aS'->'
p690
aS'variable_44'
p691
ag221
aS'variable_61'
p692
ag221
aS'variable_62'
p693
ag73
ag15
aS'variable_14'
p694
aS'->'
p695
aS'variable_44'
p696
ag221
aS'variable_61'
p697
ag221
aS'variable_63'
p698
ag12
ag17
aS'if'
p699
ag5
aS'variable_14'
p700
aS'->'
p701
aS'variable_44'
p702
ag221
aS'variable_61'
p703
ag221
aS'variable_63'
p704
aS'=='
p705
ag35
ag12
aS'variable_24'
p706
ag15
aS'variable_24'
p707
ag156
aS'func_33'
p708
ag5
aS'variable_24'
p709
ag12
ag17
aS'variable_27'
p710
ag15
ag5
aS'variable_28'
p711
ag12
ag7
aS'variable_24'
p712
aS'++'
p713
ag17
aS'variable_6'
p714
ag15
aS'variable_5'
p715
ag17
aS'variable_10'
p716
ag15
aS'variable_24'
p717
ag156
aS'variable_40'
p718
ag17
aS'variable_27'
p719
ag15
ag5
aS'variable_28'
p720
ag12
ag7
aS'variable_10'
p721
aS'++'
p722
ag17
aS'variable_15'
p723
ag15
aS'variable_5'
p724
aS'->'
p725
aS'variable_32'
p726
ag17
aS'if'
p727
ag5
aS'func_34'
p728
ag5
aS'variable_27'
p729
ag12
ag12
aS'if'
p730
ag5
ag59
aS'func_35'
p731
ag5
aS'variable_3'
p732
ag9
aS'variable_5'
p733
ag9
aS'variable_27'
p734
ag9
ag65
aS'variable_10'
p735
ag9
aS'variable_34'
p736
ag12
ag12
aS'if'
p737
ag5
aS'variable_14'
p738
aS'->'
p739
aS'variable_44'
p740
ag221
aS'variable_61'
p741
ag221
aS'variable_62'
p742
aS'=='
p743
ag35
ag12
aS'variable_6'
p744
ag15
aS'variable_5'
p745
ag17
aS'variable_6'
p746
ag15
aS'NULL'
p747
ag17
aS'variable_24'
p748
ag15
aS'variable_24'
p749
ag156
aS'func_36'
p750
ag5
aS'variable_24'
p751
ag12
ag17
aS'variable_27'
p752
ag15
ag5
aS'variable_28'
p753
ag12
ag7
aS'variable_10'
p754
aS'++'
p755
ag17
aS'variable_6'
p756
ag15
aS'variable_5'
p757
ag17
aS'variable_14'
p758
aS'->'
p759
aS'variable_49'
p760
ag15
aS'variable_15'
p761
ag124
aS'variable_3'
p762
aS'->'
p763
aS'variable_50'
p764
ag17
aS'variable_14'
p765
aS'->'
p766
aS'variable_65'
p767
ag15
aS'variable_66'
p768
ag17
aS'variable_14'
p769
aS'->'
p770
aS'variable_67'
p771
ag15
aS'variable_24'
p772
ag17
aS'variable_14'
p773
aS'->'
p774
aS'variable_18'
p775
ag15
aS'variable_18'
p776
ag17
aS'func_37'
p777
ag5
aS'variable_3'
p778
ag12
ag17
aS'if'
p779
ag5
aS'variable_14'
p780
aS'->'
p781
aS'variable_44'
p782
ag221
aS'variable_61'
p783
ag221
aS'variable_62'
p784
aS'=='
p785
ag35
aS'&&'
p786
ag59
aS'func_38'
p787
ag5
aS'variable_3'
p788
ag9
aS'variable_66'
p789
ag9
aS'variable_24'
p790
ag9
aS'variable_5'
p791
ag9
aS'variable_15'
p792
ag9
ag35
ag9
ag35
ag12
ag12
aS'variable_24'
p793
ag15
aS'variable_10'
p794
ag17
aS'variable_24'
p795
ag15
aS'variable_14'
p796
ag112
ag124
ag224
ag114
ag221
aS'variable_67'
p797
ag17
aS'variable_27'
p798
ag15
ag5
aS'variable_28'
p799
ag12
aS'variable_14'
p800
ag112
ag124
ag224
ag114
ag221
aS'variable_65'
p801
ag17
aS'if'
p802
ag5
ag59
aS'variable_6'
p803
ag12
aS'variable_6'
p804
ag15
aS'variable_5'
p805
ag17
aS'--'
p806
aS'variable_3'
p807
aS'->'
p808
aS'variable_38'
p809
ag17
aS'if'
p810
ag5
ag59
aS'variable_6'
p811
ag12
aS'if'
p812
ag5
aS'variable_14'
p813
aS'->'
p814
aS'variable_44'
p815
ag221
aS'variable_61'
p816
ag221
aS'variable_62'
p817
aS'=='
p818
ag35
ag12
aS'if'
p819
ag5
aS'variable_14'
p820
aS'->'
p821
aS'variable_44'
p822
ag221
aS'variable_61'
p823
ag221
aS'variable_62'
p824
aS'=='
p825
ag35
aS'&&'
p826
aS'variable_5'
p827
aS'->'
p828
aS'variable_32'
p829
aS'=='
p830
aS'variable_3'
p831
aS'->'
p832
aS'variable_50'
p833
ag156
aS'variable_14'
p834
aS'->'
p835
aS'variable_49'
p836
ag12
aS'variable_6'
p837
ag15
aS'NULL'
p838
ag17
aS'if'
p839
ag5
aS'variable_14'
p840
aS'->'
p841
aS'variable_44'
p842
ag221
aS'variable_61'
p843
ag221
aS'variable_62'
p844
aS'!='
p845
ag35
ag12
aS'variable_14'
p846
aS'->'
p847
aS'variable_44'
p848
ag221
aS'variable_61'
p849
ag221
aS'variable_62'
p850
aS'--'
p851
ag17
aS'if'
p852
ag5
aS'variable_14'
p853
aS'->'
p854
aS'variable_44'
p855
ag221
aS'variable_61'
p856
ag221
aS'variable_63'
p857
aS'!='
p858
ag5
aS'variable_64'
p859
ag12
ag124
ag224
ag12
aS'variable_14'
p860
aS'->'
p861
aS'variable_44'
p862
ag221
aS'variable_61'
p863
ag221
aS'variable_63'
p864
aS'--'
p865
ag17
aS'if'
p866
ag5
aS'variable_14'
p867
aS'->'
p868
aS'variable_44'
p869
ag221
aS'variable_61'
p870
ag221
aS'variable_63'
p871
aS'=='
p872
ag35
ag12
aS'variable_10'
p873
ag15
aS'variable_24'
p874
ag156
aS'variable_40'
p875
ag17
aS'variable_12'
p876
ag15
ag5
aS'variable_28'
p877
ag12
ag7
aS'variable_10'
p878
ag17
aS'variable_15'
p879
ag15
aS'variable_5'
p880
aS'->'
p881
aS'variable_32'
p882
ag17
aS'if'
p883
ag5
aS'func_39'
p884
ag5
aS'variable_12'
p885
ag12
ag12
aS'variable_10'
p886
aS'++'
p887
ag17
aS'if'
p888
ag5
ag59
aS'func_40'
p889
ag5
aS'variable_3'
p890
ag9
aS'variable_5'
p891
ag9
aS'variable_12'
p892
ag9
ag65
aS'variable_10'
p893
ag9
aS'variable_34'
p894
ag12
ag12
aS'if'
p895
ag5
aS'variable_14'
p896
aS'->'
p897
aS'variable_44'
p898
ag221
aS'variable_61'
p899
ag221
aS'variable_62'
p900
aS'=='
p901
ag35
ag12
aS'variable_6'
p902
ag15
aS'NULL'
p903
ag17
aS'variable_6'
p904
ag15
aS'variable_5'
p905
ag17
aS'variable_14'
p906
aS'->'
p907
aS'variable_49'
p908
ag15
aS'variable_15'
p909
ag124
aS'variable_3'
p910
aS'->'
p911
aS'variable_50'
p912
ag17
aS'func_41'
p913
ag5
aS'variable_3'
p914
ag12
ag17
aS'if'
p915
ag5
aS'variable_14'
p916
aS'->'
p917
aS'variable_44'
p918
ag221
aS'variable_61'
p919
ag221
aS'variable_62'
p920
aS'=='
p921
ag35
aS'&&'
p922
ag59
aS'func_42'
p923
ag5
aS'variable_3'
p924
ag9
aS'variable_66'
p925
ag9
aS'variable_24'
p926
ag9
aS'variable_5'
p927
ag9
aS'variable_15'
p928
ag9
aS'variable_14'
p929
aS'->'
p930
aS'variable_18'
p931
ag9
aS'variable_18'
p932
ag124
aS'variable_14'
p933
aS'->'
p934
aS'variable_18'
p935
ag12
ag12
aS'while'
p936
ag5
ag7
aS'variable_10'
p937
aS'=='
p938
aS'variable_68'
p939
ag12
aS'variable_24'
p940
ag15
aS'variable_10'
p941
ag17
aS'variable_27'
p942
ag15
ag5
aS'variable_28'
p943
ag12
ag7
aS'variable_24'
p944
aS'++'
p945
ag17
aS'variable_18'
p946
ag15
aS'variable_14'
p947
aS'->'
p948
aS'variable_18'
p949
ag17
aS'variable_6'
p950
ag15
aS'variable_5'
p951
ag17
aS'variable_24'
p952
aS'+='
p953
aS'func_43'
p954
ag5
aS'variable_24'
p955
ag12
ag17
aS'variable_14'
p956
aS'->'
p957
aS'variable_44'
p958
ag221
aS'variable_61'
p959
ag221
aS'variable_62'
p960
ag15
ag35
ag17
aS'variable_14'
p961
aS'->'
p962
aS'variable_44'
p963
ag221
aS'variable_61'
p964
ag221
aS'variable_63'
p965
ag15
ag5
aS'variable_64'
p966
ag12
ag124
ag224
ag17
aS'variable_14'
p967
aS'->'
p968
aS'variable_44'
p969
ag221
aS'variable_61'
p970
ag221
aS'variable_62'
p971
ag15
ag224
ag17
aS'variable_14'
p972
aS'->'
p973
aS'variable_44'
p974
ag221
aS'variable_61'
p975
ag221
aS'variable_63'
p976
ag15
ag5
aS'variable_64'
p977
ag12
ag124
ag224
ag17
aS'variable_14'
p978
aS'->'
p979
aS'variable_44'
p980
ag221
aS'variable_61'
p981
ag221
aS'variable_62'
p982
ag15
ag35
ag17
aS'variable_14'
p983
aS'->'
p984
aS'variable_44'
p985
ag221
aS'variable_61'
p986
ag221
aS'variable_63'
p987
ag15
ag224
ag17
aS'variable_24'
p988
ag15
aS'func_44'
p989
ag5
aS'variable_24'
p990
ag9
ag65
aS'variable_17'
p991
ag12
ag17
aS'variable_14'
p992
aS'->'
p993
aS'variable_44'
p994
ag221
aS'variable_61'
p995
ag221
aS'variable_62'
p996
ag15
aS'variable_17'
p997
ag17
aS'variable_24'
p998
ag15
aS'func_45'
p999
ag5
aS'variable_24'
p1000
ag9
ag65
aS'variable_17'
p1001
ag12
ag17
aS'variable_14'
p1002
aS'->'
p1003
aS'variable_44'
p1004
ag221
aS'variable_61'
p1005
ag221
aS'variable_63'
p1006
ag15
aS'variable_17'
p1007
ag124
ag224
ag17
aS'func_46'
p1008
ag5
aS'variable_14'
p1009
aS'->'
p1010
aS'variable_44'
p1011
ag221
aS'variable_61'
p1012
ag221
aS'variable_62'
p1013
ag73
ag15
aS'variable_14'
p1014
aS'->'
p1015
aS'variable_44'
p1016
ag221
aS'variable_61'
p1017
ag221
aS'variable_63'
p1018
ag12
ag17
aS'variable_14'
p1019
aS'->'
p1020
aS'variable_49'
p1021
ag15
aS'variable_5'
p1022
aS'->'
p1023
aS'variable_32'
p1024
ag124
aS'variable_3'
p1025
aS'->'
p1026
aS'variable_50'
p1027
ag17
aS'variable_14'
p1028
aS'->'
p1029
aS'variable_18'
p1030
ag15
aS'variable_18'
p1031
ag17
aS'if'
p1032
ag5
aS'variable_14'
p1033
aS'->'
p1034
aS'variable_44'
p1035
ag221
aS'variable_61'
p1036
ag221
aS'variable_62'
p1037
aS'!='
p1038
ag35
ag12
aS'variable_14'
p1039
aS'->'
p1040
aS'variable_65'
p1041
ag15
aS'variable_69'
p1042
ag17
aS'variable_14'
p1043
aS'->'
p1044
aS'variable_67'
p1045
ag15
aS'variable_24'
p1046
ag17
aS'variable_24'
p1047
aS'+='
p1048
aS'variable_70'
p1049
ag17
aS'variable_27'
p1050
ag15
ag5
aS'variable_28'
p1051
ag12
ag7
aS'variable_24'
p1052
aS'++'
p1053
ag17
aS'if'
p1054
ag5
ag59
aS'func_47'
p1055
ag5
aS'variable_3'
p1056
ag9
aS'variable_69'
p1057
ag9
aS'variable_24'
p1058
ag9
aS'variable_5'
p1059
ag9
aS'variable_5'
p1060
aS'->'
p1061
aS'variable_32'
p1062
ag9
ag35
ag9
ag35
ag12
ag12
aS'variable_24'
p1063
ag15
aS'variable_24'
p1064
ag156
aS'func_48'
p1065
ag5
aS'variable_24'
p1066
ag12
ag17
aS'variable_27'
p1067
ag15
ag5
aS'variable_28'
p1068
ag12
ag7
aS'variable_24'
p1069
aS'++'
p1070
ag17
aS'func_49'
p1071
ag5
ag116
aS'{'
p1072
ag119
aS'd'
p1073
ag9
ag119
ag1073
aS'}'
p1074
ag116
ag9
aS'variable_14'
p1075
aS'->'
p1076
aS'variable_44'
p1077
ag221
aS'variable_61'
p1078
ag221
aS'variable_62'
p1079
ag9
aS'variable_14'
p1080
aS'->'
p1081
aS'variable_44'
p1082
ag221
aS'variable_61'
p1083
ag221
aS'variable_63'
p1084
ag12
ag17
aS'variable_14'
p1085
aS'->'
p1086
aS'variable_49'
p1087
ag15
aS'variable_5'
p1088
aS'->'
p1089
aS'variable_32'
p1090
ag124
aS'variable_3'
p1091
aS'->'
p1092
aS'variable_50'
p1093
ag17
aS'variable_14'
p1094
aS'->'
p1095
aS'variable_65'
p1096
ag15
aS'variable_69'
p1097
ag17
aS'variable_14'
p1098
aS'->'
p1099
aS'variable_67'
p1100
ag15
aS'variable_24'
p1101
ag17
aS'variable_24'
p1102
aS'+='
p1103
aS'variable_40'
p1104
ag17
aS'for'
p1105
ag5
aS'variable_17'
p1106
ag15
aS'variable_14'
p1107
aS'->'
p1108
aS'variable_18'
p1109
ag17
aS'variable_17'
p1110
ag73
aS'variable_18'
p1111
ag17
aS'variable_17'
p1112
aS'++'
p1113
ag12
aS'variable_5'
p1114
aS'->'
p1115
aS'variable_48'
p1116
ag112
aS'variable_17'
p1117
ag114
ag221
aS'variable_49'
p1118
ag15
ag124
ag224
ag17
aS'func_50'
p1119
ag5
aS'variable_3'
p1120
ag12
ag17
aS'variable_27'
p1121
ag15
ag5
aS'variable_28'
p1122
ag12
ag7
aS'variable_24'
p1123
aS'++'
p1124
ag17
aS'func_51'
p1125
ag5
aS'variable_27'
p1126
ag73
aS'variable_71'
p1127
ag12
ag17
aS'if'
p1128
ag5
ag59
aS'variable_6'
p1129
ag12
aS'if'
p1130
ag5
aS'variable_14'
p1131
aS'->'
p1132
aS'variable_44'
p1133
ag221
aS'variable_61'
p1134
ag221
aS'variable_63'
p1135
aS'=='
p1136
ag5
aS'variable_64'
p1137
ag12
ag124
ag224
aS'||'
p1138
aS'variable_14'
p1139
aS'->'
p1140
aS'variable_44'
p1141
ag221
aS'variable_61'
p1142
ag221
aS'variable_63'
p1143
ag213
ag35
ag12
aS'if'
p1144
ag5
aS'variable_14'
p1145
aS'->'
p1146
aS'variable_44'
p1147
ag221
aS'variable_61'
p1148
ag221
aS'variable_62'
p1149
aS'=='
p1150
ag35
aS'&&'
p1151
aS'variable_5'
p1152
aS'->'
p1153
aS'variable_32'
p1154
aS'=='
p1155
aS'variable_3'
p1156
aS'->'
p1157
aS'variable_50'
p1158
ag156
aS'variable_14'
p1159
aS'->'
p1160
aS'variable_49'
p1161
ag12
aS'variable_6'
p1162
ag15
aS'NULL'
p1163
ag17
aS'if'
p1164
ag5
aS'variable_14'
p1165
aS'->'
p1166
aS'variable_44'
p1167
ag221
aS'variable_61'
p1168
ag221
aS'variable_62'
p1169
aS'!='
p1170
ag35
ag12
aS'variable_14'
p1171
aS'->'
p1172
aS'variable_44'
p1173
ag221
aS'variable_61'
p1174
ag221
aS'variable_62'
p1175
aS'--'
p1176
ag17
aS'if'
p1177
ag5
aS'variable_14'
p1178
aS'->'
p1179
aS'variable_44'
p1180
ag221
aS'variable_61'
p1181
ag221
aS'variable_63'
p1182
aS'!='
p1183
ag5
aS'variable_64'
p1184
ag12
ag124
ag224
ag12
aS'variable_14'
p1185
aS'->'
p1186
aS'variable_44'
p1187
ag221
aS'variable_61'
p1188
ag221
aS'variable_63'
p1189
aS'--'
p1190
ag17
aS'if'
p1191
ag5
aS'variable_14'
p1192
aS'->'
p1193
aS'variable_44'
p1194
ag221
aS'variable_61'
p1195
ag221
aS'variable_62'
p1196
aS'!='
p1197
ag35
ag12
aS'variable_14'
p1198
aS'->'
p1199
aS'variable_49'
p1200
ag15
aS'variable_5'
p1201
aS'->'
p1202
aS'variable_32'
p1203
ag124
aS'variable_3'
p1204
aS'->'
p1205
aS'variable_50'
p1206
ag17
aS'variable_14'
p1207
aS'->'
p1208
aS'variable_18'
p1209
ag15
aS'variable_18'
p1210
ag17
aS'if'
p1211
ag5
ag59
aS'func_52'
p1212
ag5
aS'variable_3'
p1213
ag9
aS'variable_69'
p1214
ag9
aS'variable_24'
p1215
ag9
aS'variable_5'
p1216
ag9
aS'variable_5'
p1217
aS'->'
p1218
aS'variable_32'
p1219
ag9
aS'variable_14'
p1220
aS'->'
p1221
aS'variable_18'
p1222
ag9
aS'variable_18'
p1223
ag124
aS'variable_14'
p1224
aS'->'
p1225
aS'variable_18'
p1226
ag12
ag12
aS'variable_24'
p1227
ag15
aS'variable_24'
p1228
ag156
aS'func_53'
p1229
ag5
aS'variable_24'
p1230
ag12
ag17
aS'variable_27'
p1231
ag15
ag5
aS'variable_28'
p1232
ag12
ag7
aS'variable_24'
p1233
aS'++'
p1234
ag17
aS'func_54'
p1235
ag5
aS'variable_27'
p1236
ag73
aS'variable_71'
p1237
ag12
ag17
aS'variable_6'
p1238
ag15
aS'NULL'
p1239
ag17
aS'if'
p1240
ag5
ag59
aS'variable_6'
p1241
ag12
aS'if'
p1242
ag5
aS'variable_3'
p1243
aS'->'
p1244
aS'variable_58'
p1245
aS'=='
p1246
ag35
ag12
aS'if'
p1247
ag5
ag59
aS'func_55'
p1248
ag5
aS'variable_3'
p1249
aS'->'
p1250
aS'variable_72'
p1251
ag12
ag12
aS'variable_3'
p1252
aS'->'
p1253
aS'variable_73'
p1254
ag15
aS'variable_31'
p1255
ag17
aS'variable_3'
p1256
aS'->'
p1257
aS'variable_74'
p1258
aS'++'
p1259
ag17
aS'if'
p1260
ag5
aS'variable_3'
p1261
aS'->'
p1262
aS'variable_75'
p1263
aS'&&'
p1264
aS'variable_3'
p1265
aS'->'
p1266
aS'variable_74'
p1267
ag213
ag15
aS'variable_3'
p1268
aS'->'
p1269
aS'variable_75'
p1270
ag12
aS'func_56'
p1271
ag5
aS'variable_3'
p1272
aS'->'
p1273
aS'variable_72'
p1274
ag9
aS'variable_76'
p1275
ag9
aS'NULL'
p1276
ag9
aS'variable_77'
p1277
ag12
ag17
aS'variable_3'
p1278
aS'->'
p1279
aS'variable_73'
p1280
ag15
aS'variable_31'
p1281
ag17
aS'variable_8'
p1282
ag15
aS'variable_3'
p1283
aS'->'
p1284
aS'variable_55'
p1285
ag17
aS'variable_3'
p1286
aS'->'
p1287
aS'variable_58'
p1288
ag15
aS'variable_8'
p1289
aS'->'
p1290
aS'variable_57'
p1291
ag17
aS'variable_3'
p1292
aS'->'
p1293
aS'variable_55'
p1294
ag15
ag5
aS'REBackTrackData'
p1295
ag7
ag12
ag5
ag5
aS'char'
p1296
ag7
ag12
aS'variable_8'
p1297
ag124
aS'variable_8'
p1298
aS'->'
p1299
aS'variable_57'
p1300
ag12
ag17
aS'variable_5'
p1301
aS'->'
p1302
aS'variable_32'
p1303
ag15
aS'variable_8'
p1304
aS'->'
p1305
aS'variable_32'
p1306
ag17
aS'variable_24'
p1307
ag15
aS'variable_8'
p1308
aS'->'
p1309
aS'variable_78'
p1310
ag17
aS'variable_27'
p1311
ag15
ag5
aS'variable_28'
p1312
ag12
aS'variable_8'
p1313
aS'->'
p1314
aS'variable_79'
p1315
ag17
aS'func_57'
p1316
ag5
aS'variable_27'
p1317
ag73
aS'variable_71'
p1318
ag12
ag17
aS'variable_3'
p1319
aS'->'
p1320
aS'variable_38'
p1321
ag15
aS'variable_8'
p1322
aS'->'
p1323
aS'variable_80'
p1324
ag17
aS'func_58'
p1325
ag5
aS'variable_3'
p1326
aS'->'
p1327
aS'variable_38'
p1328
ag12
ag17
aS'memcpy'
p1329
ag5
aS'variable_3'
p1330
aS'->'
p1331
aS'variable_39'
p1332
ag9
aS'variable_8'
p1333
ag156
ag224
ag9
aS'sizeof'
p1334
ag5
aS'variable_13'
p1335
ag12
ag7
aS'variable_8'
p1336
aS'->'
p1337
aS'variable_80'
p1338
ag12
ag17
aS'variable_14'
p1339
ag15
ag65
aS'variable_3'
p1340
aS'->'
p1341
aS'variable_39'
p1342
ag112
aS'variable_3'
p1343
aS'->'
p1344
aS'variable_38'
p1345
ag124
ag224
ag114
ag17
aS'if'
p1346
ag5
aS'variable_8'
p1347
aS'->'
p1348
aS'variable_47'
p1349
ag12
aS'memcpy'
p1350
ag5
ag65
aS'variable_5'
p1351
aS'->'
p1352
aS'variable_48'
p1353
ag112
aS'variable_8'
p1354
aS'->'
p1355
aS'variable_16'
p1356
ag114
ag9
ag5
aS'char'
p1357
ag7
ag12
ag5
aS'variable_8'
p1358
ag156
ag224
ag12
ag156
aS'sizeof'
p1359
ag5
aS'variable_13'
p1360
ag12
ag7
aS'variable_8'
p1361
aS'->'
p1362
aS'variable_80'
p1363
ag9
aS'sizeof'
p1364
ag5
aS'variable_81'
p1365
ag12
ag7
aS'variable_8'
p1366
aS'->'
p1367
aS'variable_47'
p1368
ag12
ag17
aS'variable_18'
p1369
ag15
aS'variable_8'
p1370
aS'->'
p1371
aS'variable_16'
p1372
ag156
aS'variable_8'
p1373
aS'->'
p1374
aS'variable_47'
p1375
ag17
aS'for'
p1376
ag5
aS'variable_17'
p1377
ag15
aS'variable_14'
p1378
aS'->'
p1379
aS'variable_18'
p1380
ag17
aS'variable_17'
p1381
ag73
aS'variable_18'
p1382
ag17
aS'variable_17'
p1383
aS'++'
p1384
ag12
aS'variable_5'
p1385
aS'->'
p1386
aS'variable_48'
p1387
ag112
aS'variable_17'
p1388
ag114
ag221
aS'variable_49'
p1389
ag15
ag124
ag224
ag17
aS'variable_18'
p1390
ag15
aS'variable_14'
p1391
aS'->'
p1392
aS'variable_18'
p1393
ag17
aS'func_59'
p1394
ag5
ag116
ag117
aS'tBT_Pop'
p1395
ag121
ag119
aS'ld'
p1396
ag9
ag119
aS'ld'
p1397
ag116
ag9
ag5
aS'unsigned'
p1398
aS'long'
p1399
ag12
aS'variable_8'
p1400
aS'->'
p1401
aS'variable_16'
p1402
ag9
ag5
aS'unsigned'
p1403
aS'long'
p1404
ag12
aS'variable_8'
p1405
aS'->'
p1406
aS'variable_47'
p1407
ag12
ag17
aS'variable_5'
p1408
ag15
aS'variable_6'
p1409
ag17
aS'variable_27'
p1410
ag15
ag5
aS'variable_28'
p1411
ag12
ag7
aS'variable_24'
p1412
aS'++'
p1413
ag17
aS'func_60'
p1414
ag5
aS'variable_27'
p1415
ag73
aS'variable_71'
p1416
ag12
ag17
aS'return'
p1417
aS'variable_5'
p1418
ag17
aa(lp1419
S'static'
p1420
aS'func_0'
p1421
ag5
aS'variable_2'
p1422
ag7
aS'variable_3'
p1423
ag9
aS'variable_4'
p1424
ag7
aS'variable_5'
p1425
ag12
aS'variable_4'
p1426
ag7
aS'variable_6'
p1427
ag15
aS'NULL'
p1428
ag17
aS'variable_7'
p1429
ag7
aS'variable_8'
p1430
ag17
aS'variable_9'
p1431
ag7
aS'variable_10'
p1432
ag9
ag7
aS'variable_11'
p1433
ag17
aS'REOp'
p1434
aS'variable_12'
p1435
ag17
aS'variable_13'
p1436
ag7
aS'variable_14'
p1437
ag17
aS'variable_15'
p1438
ag7
aS'variable_16'
p1439
ag17
aS'const'
p1440
aS'jschar'
p1441
ag7
aS'variable_17'
p1442
ag17
aS'size_t'
p1443
aS'variable_18'
p1444
ag9
aS'variable_19'
p1445
ag17
aS'size_t'
p1446
aS'variable_20'
p1447
ag15
ag35
ag17
aS'jschar'
p1448
aS'variable_21'
p1449
ag9
aS'variable_22'
p1450
ag17
aS'variable_23'
p1451
ag7
aS'variable_24'
p1452
ag17
aS'JSBool'
p1453
aS'variable_25'
p1454
ag17
aS'variable_9'
p1455
ag7
aS'variable_26'
p1456
ag15
aS'variable_3'
p1457
aS'->'
p1458
aS'variable_27'
p1459
aS'->'
p1460
aS'variable_28'
p1461
ag17
aS'REOp'
p1462
aS'variable_29'
p1463
ag15
ag5
aS'variable_30'
p1464
ag12
ag7
aS'variable_26'
p1465
aS'++'
p1466
ag17
aS'if'
p1467
ag5
aS'func_1'
p1468
ag5
aS'variable_29'
p1469
ag12
aS'&&'
p1470
ag59
ag5
aS'variable_3'
p1471
aS'->'
p1472
aS'variable_27'
p1473
aS'->'
p1474
aS'variable_31'
p1475
ag65
aS'variable_32'
p1476
ag12
ag12
aS'variable_25'
p1477
ag15
aS'variable_33'
p1478
ag17
aS'while'
p1479
ag5
aS'variable_5'
p1480
aS'->'
p1481
aS'variable_34'
p1482
ag73
ag15
aS'variable_3'
p1483
aS'->'
p1484
aS'variable_35'
p1485
ag12
aS'variable_10'
p1486
ag15
aS'variable_26'
p1487
ag17
aS'variable_6'
p1488
ag15
aS'func_2'
p1489
ag5
aS'variable_3'
p1490
ag9
aS'variable_5'
p1491
ag9
aS'variable_29'
p1492
ag9
ag65
aS'variable_10'
p1493
ag9
aS'variable_36'
p1494
ag12
ag17
aS'if'
p1495
ag5
aS'variable_6'
p1496
ag12
aS'variable_25'
p1497
ag15
aS'variable_36'
p1498
ag17
aS'variable_5'
p1499
ag15
aS'variable_6'
p1500
ag17
aS'variable_26'
p1501
ag15
aS'variable_10'
p1502
ag17
aS'variable_29'
p1503
ag15
ag5
aS'variable_30'
p1504
ag12
ag7
aS'variable_26'
p1505
aS'++'
p1506
ag17
aS'variable_3'
p1507
aS'->'
p1508
aS'variable_37'
p1509
aS'++'
p1510
ag17
aS'variable_5'
p1511
aS'->'
p1512
aS'variable_34'
p1513
aS'++'
p1514
ag17
aS'if'
p1515
ag5
ag59
aS'variable_25'
p1516
ag12
aS'if'
p1517
ag5
aS'func_3'
p1518
ag5
aS'variable_29'
p1519
ag12
ag12
aS'variable_6'
p1520
ag15
aS'func_4'
p1521
ag5
aS'variable_3'
p1522
ag9
aS'variable_5'
p1523
ag9
aS'variable_29'
p1524
ag9
ag65
aS'variable_26'
p1525
ag9
aS'variable_36'
p1526
ag12
ag17
aS'variable_16'
p1527
ag15
ag65
aS'variable_3'
p1528
aS'->'
p1529
aS'variable_38'
p1530
ag112
aS'variable_3'
p1531
aS'->'
p1532
aS'variable_39'
p1533
ag114
ag17
aS'switch'
p1534
ag5
aS'variable_29'
p1535
ag12
aS'variable_10'
p1536
ag15
aS'variable_26'
p1537
ag156
aS'func_5'
p1538
ag5
aS'variable_26'
p1539
ag12
ag17
aS'variable_26'
p1540
aS'+='
p1541
aS'variable_40'
p1542
ag17
aS'variable_22'
p1543
ag15
aS'func_6'
p1544
ag5
aS'variable_26'
p1545
ag12
ag17
aS'variable_26'
p1546
aS'+='
p1547
aS'variable_40'
p1548
ag17
aS'variable_19'
p1549
ag15
aS'func_7'
p1550
ag5
aS'variable_26'
p1551
ag12
ag17
aS'variable_26'
p1552
aS'+='
p1553
aS'variable_40'
p1554
ag17
aS'if'
p1555
ag5
aS'variable_5'
p1556
aS'->'
p1557
aS'variable_34'
p1558
aS'!='
p1559
aS'variable_3'
p1560
aS'->'
p1561
aS'variable_35'
p1562
ag12
aS'if'
p1563
ag5
ag7
aS'variable_5'
p1564
aS'->'
p1565
aS'variable_34'
p1566
aS'=='
p1567
aS'variable_22'
p1568
ag12
aS'variable_24'
p1569
ag15
ag65
aS'variable_3'
p1570
aS'->'
p1571
aS'variable_27'
p1572
aS'->'
p1573
aS'variable_41'
p1574
ag112
aS'variable_19'
p1575
ag114
ag17
aS'if'
p1576
ag5
ag59
aS'variable_24'
p1577
aS'->'
p1578
aS'variable_42'
p1579
aS'&&'
p1580
ag59
aS'func_8'
p1581
ag5
aS'variable_3'
p1582
ag9
aS'variable_24'
p1583
ag12
ag12
aS'variable_21'
p1584
ag15
ag7
aS'variable_5'
p1585
aS'->'
p1586
aS'variable_34'
p1587
ag17
aS'variable_19'
p1588
ag15
aS'variable_21'
p1589
aS'>>'
p1590
ag210
ag17
aS'if'
p1591
ag5
ag5
aS'variable_21'
p1592
ag213
aS'variable_24'
p1593
aS'->'
p1594
aS'variable_43'
p1595
aS'||'
p1596
ag59
ag5
aS'variable_24'
p1597
aS'->'
p1598
aS'variable_44'
p1599
ag221
aS'variable_45'
p1600
ag112
aS'variable_19'
p1601
ag114
ag65
ag5
ag224
aS'<<'
p1602
ag5
aS'variable_21'
p1603
ag65
aS'0x7'
p1604
ag12
ag12
ag12
ag12
ag228
aS'variable_24'
p1605
aS'->'
p1606
aS'variable_46'
p1607
ag12
aS'variable_6'
p1608
ag15
aS'NULL'
p1609
ag17
aS'variable_10'
p1610
ag15
aS'variable_26'
p1611
ag156
aS'func_9'
p1612
ag5
aS'variable_26'
p1613
ag12
ag17
aS'variable_26'
p1614
aS'+='
p1615
aS'variable_40'
p1616
ag17
aS'variable_21'
p1617
ag15
aS'func_10'
p1618
ag5
aS'variable_26'
p1619
ag12
ag17
aS'variable_26'
p1620
aS'+='
p1621
aS'variable_40'
p1622
ag17
aS'variable_22'
p1623
ag15
aS'func_11'
p1624
ag5
aS'variable_26'
p1625
ag12
ag17
aS'variable_26'
p1626
aS'+='
p1627
aS'variable_40'
p1628
ag17
aS'if'
p1629
ag5
aS'variable_5'
p1630
aS'->'
p1631
aS'variable_34'
p1632
aS'=='
p1633
aS'variable_3'
p1634
aS'->'
p1635
aS'variable_35'
p1636
aS'||'
p1637
ag5
ag7
aS'variable_5'
p1638
aS'->'
p1639
aS'variable_34'
p1640
aS'!='
p1641
aS'variable_21'
p1642
aS'&&'
p1643
ag7
aS'variable_5'
p1644
aS'->'
p1645
aS'variable_34'
p1646
aS'!='
p1647
aS'variable_22'
p1648
ag12
ag12
aS'variable_6'
p1649
ag15
aS'NULL'
p1650
ag17
aS'variable_10'
p1651
ag15
aS'variable_26'
p1652
ag156
aS'func_12'
p1653
ag5
aS'variable_26'
p1654
ag12
ag17
aS'variable_26'
p1655
aS'+='
p1656
aS'variable_40'
p1657
ag17
aS'variable_16'
p1658
aS'->'
p1659
aS'variable_20'
p1660
ag15
aS'variable_20'
p1661
ag17
aS'variable_29'
p1662
ag15
ag5
aS'variable_30'
p1663
ag12
ag7
aS'variable_26'
p1664
aS'++'
p1665
ag17
aS'variable_17'
p1666
ag15
aS'variable_5'
p1667
aS'->'
p1668
aS'variable_34'
p1669
ag17
aS'if'
p1670
ag5
aS'func_13'
p1671
ag5
aS'variable_29'
p1672
ag12
ag12
aS'if'
p1673
ag5
ag59
aS'func_14'
p1674
ag5
aS'variable_3'
p1675
ag9
aS'variable_5'
p1676
ag9
aS'variable_29'
p1677
ag9
ag65
aS'variable_26'
p1678
ag9
aS'variable_36'
p1679
ag12
ag12
aS'variable_29'
p1680
ag15
ag5
aS'variable_30'
p1681
ag12
ag7
aS'variable_10'
p1682
aS'++'
p1683
ag17
aS'variable_26'
p1684
ag15
aS'variable_10'
p1685
ag17
aS'variable_6'
p1686
ag15
aS'variable_5'
p1687
ag17
aS'variable_29'
p1688
ag15
ag5
aS'variable_30'
p1689
ag12
ag7
aS'variable_26'
p1690
aS'++'
p1691
ag17
aS'variable_12'
p1692
ag15
ag5
aS'variable_30'
p1693
ag12
ag7
aS'variable_10'
p1694
aS'++'
p1695
ag17
aS'if'
p1696
ag5
ag59
aS'func_15'
p1697
ag5
aS'variable_3'
p1698
ag9
aS'variable_12'
p1699
ag9
aS'variable_10'
p1700
ag9
aS'variable_5'
p1701
ag9
aS'variable_17'
p1702
ag9
ag35
ag9
ag35
ag12
ag12
aS'if'
p1703
ag5
ag59
aS'variable_6'
p1704
ag12
aS'variable_6'
p1705
ag15
aS'variable_5'
p1706
ag17
aS'variable_26'
p1707
aS'+='
p1708
aS'func_16'
p1709
ag5
aS'variable_26'
p1710
ag12
ag17
aS'variable_29'
p1711
ag15
ag5
aS'variable_30'
p1712
ag12
ag7
aS'variable_26'
p1713
aS'++'
p1714
ag17
aS'if'
p1715
ag5
ag59
aS'variable_6'
p1716
ag12
aS'variable_6'
p1717
ag15
aS'variable_5'
p1718
ag17
aS'variable_29'
p1719
ag15
ag5
aS'variable_30'
p1720
ag12
ag7
aS'variable_26'
p1721
aS'++'
p1722
ag17
aS'variable_26'
p1723
ag15
aS'func_17'
p1724
ag5
aS'variable_26'
p1725
ag9
ag65
aS'variable_18'
p1726
ag12
ag17
aS'if'
p1727
ag5
aS'variable_18'
p1728
ag156
ag224
ag213
aS'variable_20'
p1729
ag12
aS'variable_20'
p1730
ag15
aS'variable_18'
p1731
ag156
ag224
ag17
aS'variable_5'
p1732
aS'->'
p1733
aS'variable_47'
p1734
ag112
aS'variable_18'
p1735
ag114
ag221
aS'variable_48'
p1736
ag15
aS'variable_5'
p1737
aS'->'
p1738
aS'variable_34'
p1739
ag124
aS'variable_3'
p1740
aS'->'
p1741
aS'variable_49'
p1742
ag17
aS'variable_5'
p1743
aS'->'
p1744
aS'variable_47'
p1745
ag112
aS'variable_18'
p1746
ag114
ag221
aS'variable_43'
p1747
ag15
ag35
ag17
aS'variable_29'
p1748
ag15
ag5
aS'variable_30'
p1749
ag12
ag7
aS'variable_26'
p1750
aS'++'
p1751
ag17
aS'ptrdiff_t'
p1752
aS'variable_50'
p1753
ag17
aS'variable_26'
p1754
ag15
aS'func_18'
p1755
ag5
aS'variable_26'
p1756
ag9
ag65
aS'variable_18'
p1757
ag12
ag17
aS'variable_14'
p1758
ag15
ag65
aS'variable_5'
p1759
aS'->'
p1760
aS'variable_47'
p1761
ag112
aS'variable_18'
p1762
ag114
ag17
aS'variable_50'
p1763
ag15
aS'variable_5'
p1764
aS'->'
p1765
aS'variable_34'
p1766
ag124
ag5
aS'variable_3'
p1767
aS'->'
p1768
aS'variable_49'
p1769
ag156
aS'variable_14'
p1770
aS'->'
p1771
aS'variable_48'
p1772
ag12
ag17
aS'variable_14'
p1773
aS'->'
p1774
aS'variable_43'
p1775
ag15
ag5
aS'variable_50'
p1776
ag73
ag35
ag12
ag413
ag35
ag121
ag5
aS'size_t'
p1777
ag12
aS'variable_50'
p1778
ag17
aS'variable_29'
p1779
ag15
ag5
aS'variable_30'
p1780
ag12
ag7
aS'variable_26'
p1781
aS'++'
p1782
ag17
aS'if'
p1783
ag5
ag59
aS'variable_6'
p1784
ag12
aS'variable_6'
p1785
ag15
aS'variable_5'
p1786
ag17
aS'variable_10'
p1787
ag15
aS'variable_26'
p1788
ag156
aS'func_19'
p1789
ag5
aS'variable_26'
p1790
ag12
ag17
aS'variable_26'
p1791
aS'+='
p1792
aS'variable_40'
p1793
ag17
aS'variable_29'
p1794
ag15
ag5
aS'variable_30'
p1795
ag12
ag7
aS'variable_26'
p1796
aS'++'
p1797
ag17
aS'variable_11'
p1798
ag15
aS'variable_26'
p1799
ag17
aS'if'
p1800
ag5
aS'func_20'
p1801
ag5
aS'variable_29'
p1802
ag12
aS'&&'
p1803
ag59
aS'func_21'
p1804
ag5
aS'variable_3'
p1805
ag9
aS'variable_5'
p1806
ag9
aS'variable_29'
p1807
ag9
ag65
aS'variable_11'
p1808
ag9
aS'variable_33'
p1809
ag12
ag12
aS'variable_6'
p1810
ag15
aS'NULL'
p1811
ag17
aS'variable_16'
p1812
aS'->'
p1813
aS'variable_44'
p1814
ag221
aS'variable_51'
p1815
ag221
aS'variable_52'
p1816
ag15
ag5
aS'char'
p1817
ag7
ag12
aS'variable_3'
p1818
aS'->'
p1819
aS'variable_53'
p1820
ag124
ag5
aS'char'
p1821
ag7
ag12
aS'variable_3'
p1822
aS'->'
p1823
aS'variable_54'
p1824
ag17
aS'variable_16'
p1825
aS'->'
p1826
aS'variable_44'
p1827
ag221
aS'variable_51'
p1828
ag221
aS'variable_55'
p1829
ag15
aS'variable_3'
p1830
aS'->'
p1831
aS'variable_56'
p1832
ag17
aS'variable_16'
p1833
aS'->'
p1834
aS'variable_48'
p1835
ag15
aS'variable_5'
p1836
aS'->'
p1837
aS'variable_34'
p1838
ag124
aS'variable_3'
p1839
aS'->'
p1840
aS'variable_49'
p1841
ag17
aS'variable_16'
p1842
aS'->'
p1843
aS'variable_20'
p1844
ag15
aS'variable_20'
p1845
ag17
aS'if'
p1846
ag5
ag59
aS'func_22'
p1847
ag5
aS'variable_3'
p1848
ag9
aS'variable_57'
p1849
ag9
aS'variable_10'
p1850
ag9
aS'variable_5'
p1851
ag9
aS'variable_5'
p1852
aS'->'
p1853
aS'variable_34'
p1854
ag9
ag35
ag9
ag35
ag12
ag12
aS'variable_10'
p1855
ag15
aS'variable_26'
p1856
ag156
aS'func_23'
p1857
ag5
aS'variable_26'
p1858
ag12
ag17
aS'variable_26'
p1859
aS'+='
p1860
aS'variable_40'
p1861
ag17
aS'variable_29'
p1862
ag15
ag5
aS'variable_30'
p1863
ag12
ag7
aS'variable_26'
p1864
aS'++'
p1865
ag17
aS'variable_11'
p1866
ag15
aS'variable_26'
p1867
ag17
aS'if'
p1868
ag5
aS'func_24'
p1869
ag5
aS'variable_29'
p1870
ag12
aS'&&'
p1871
aS'func_25'
p1872
ag5
aS'variable_3'
p1873
ag9
aS'variable_5'
p1874
ag9
aS'variable_29'
p1875
ag9
ag65
aS'variable_11'
p1876
ag9
aS'variable_33'
p1877
ag12
aS'&&'
p1878
ag7
aS'variable_11'
p1879
aS'=='
p1880
aS'variable_58'
p1881
ag12
aS'variable_6'
p1882
ag15
aS'NULL'
p1883
ag17
aS'variable_16'
p1884
aS'->'
p1885
aS'variable_44'
p1886
ag221
aS'variable_51'
p1887
ag221
aS'variable_52'
p1888
ag15
ag5
aS'char'
p1889
ag7
ag12
aS'variable_3'
p1890
aS'->'
p1891
aS'variable_53'
p1892
ag124
ag5
aS'char'
p1893
ag7
ag12
aS'variable_3'
p1894
aS'->'
p1895
aS'variable_54'
p1896
ag17
aS'variable_16'
p1897
aS'->'
p1898
aS'variable_44'
p1899
ag221
aS'variable_51'
p1900
ag221
aS'variable_55'
p1901
ag15
aS'variable_3'
p1902
aS'->'
p1903
aS'variable_56'
p1904
ag17
aS'variable_16'
p1905
aS'->'
p1906
aS'variable_48'
p1907
ag15
aS'variable_5'
p1908
aS'->'
p1909
aS'variable_34'
p1910
ag124
aS'variable_3'
p1911
aS'->'
p1912
aS'variable_49'
p1913
ag17
aS'variable_16'
p1914
aS'->'
p1915
aS'variable_20'
p1916
ag15
aS'variable_20'
p1917
ag17
aS'if'
p1918
ag5
ag59
aS'func_26'
p1919
ag5
aS'variable_3'
p1920
ag9
aS'variable_58'
p1921
ag9
aS'variable_10'
p1922
ag9
aS'variable_5'
p1923
ag9
aS'variable_5'
p1924
aS'->'
p1925
aS'variable_34'
p1926
ag9
ag35
ag9
ag35
ag12
ag12
aS'variable_5'
p1927
aS'->'
p1928
aS'variable_34'
p1929
ag15
aS'variable_3'
p1930
aS'->'
p1931
aS'variable_49'
p1932
ag156
aS'variable_16'
p1933
aS'->'
p1934
aS'variable_48'
p1935
ag17
aS'variable_3'
p1936
aS'->'
p1937
aS'variable_53'
p1938
ag15
ag5
aS'REBackTrackData'
p1939
ag7
ag12
ag5
ag5
aS'char'
p1940
ag7
ag12
aS'variable_3'
p1941
aS'->'
p1942
aS'variable_54'
p1943
ag156
aS'variable_16'
p1944
aS'->'
p1945
aS'variable_44'
p1946
ag221
aS'variable_51'
p1947
ag221
aS'variable_52'
p1948
ag12
ag17
aS'variable_3'
p1949
aS'->'
p1950
aS'variable_56'
p1951
ag15
aS'variable_16'
p1952
aS'->'
p1953
aS'variable_44'
p1954
ag221
aS'variable_51'
p1955
ag221
aS'variable_55'
p1956
ag17
aS'if'
p1957
ag5
aS'variable_6'
p1958
ag12
aS'variable_6'
p1959
ag15
aS'variable_5'
p1960
ag17
aS'variable_5'
p1961
aS'->'
p1962
aS'variable_34'
p1963
ag15
aS'variable_3'
p1964
aS'->'
p1965
aS'variable_49'
p1966
ag156
aS'variable_16'
p1967
aS'->'
p1968
aS'variable_48'
p1969
ag17
aS'variable_3'
p1970
aS'->'
p1971
aS'variable_53'
p1972
ag15
ag5
aS'REBackTrackData'
p1973
ag7
ag12
ag5
ag5
aS'char'
p1974
ag7
ag12
aS'variable_3'
p1975
aS'->'
p1976
aS'variable_54'
p1977
ag156
aS'variable_16'
p1978
aS'->'
p1979
aS'variable_44'
p1980
ag221
aS'variable_51'
p1981
ag221
aS'variable_52'
p1982
ag12
ag17
aS'variable_3'
p1983
aS'->'
p1984
aS'variable_56'
p1985
ag15
aS'variable_16'
p1986
aS'->'
p1987
aS'variable_44'
p1988
ag221
aS'variable_51'
p1989
ag221
aS'variable_55'
p1990
ag17
aS'variable_6'
p1991
ag15
ag5
ag59
aS'variable_6'
p1992
ag12
ag413
aS'variable_5'
p1993
ag121
aS'NULL'
p1994
ag17
aS'variable_16'
p1995
aS'->'
p1996
aS'variable_44'
p1997
ag221
aS'variable_59'
p1998
ag221
aS'variable_60'
p1999
ag15
ag35
ag17
aS'variable_16'
p2000
aS'->'
p2001
aS'variable_44'
p2002
ag221
aS'variable_59'
p2003
ag221
aS'variable_61'
p2004
ag15
ag5
aS'variable_62'
p2005
ag12
ag124
ag224
ag17
aS'variable_16'
p2006
aS'->'
p2007
aS'variable_44'
p2008
ag221
aS'variable_59'
p2009
ag221
aS'variable_60'
p2010
ag15
ag224
ag17
aS'variable_16'
p2011
aS'->'
p2012
aS'variable_44'
p2013
ag221
aS'variable_59'
p2014
ag221
aS'variable_61'
p2015
ag15
ag5
aS'variable_62'
p2016
ag12
ag124
ag224
ag17
aS'variable_16'
p2017
aS'->'
p2018
aS'variable_44'
p2019
ag221
aS'variable_59'
p2020
ag221
aS'variable_60'
p2021
ag15
ag35
ag17
aS'variable_16'
p2022
aS'->'
p2023
aS'variable_44'
p2024
ag221
aS'variable_59'
p2025
ag221
aS'variable_61'
p2026
ag15
ag224
ag17
aS'variable_26'
p2027
ag15
aS'func_27'
p2028
ag5
aS'variable_26'
p2029
ag9
ag65
aS'variable_19'
p2030
ag12
ag17
aS'variable_16'
p2031
aS'->'
p2032
aS'variable_44'
p2033
ag221
aS'variable_59'
p2034
ag221
aS'variable_60'
p2035
ag15
aS'variable_19'
p2036
ag17
aS'variable_26'
p2037
ag15
aS'func_28'
p2038
ag5
aS'variable_26'
p2039
ag9
ag65
aS'variable_19'
p2040
ag12
ag17
aS'variable_16'
p2041
aS'->'
p2042
aS'variable_44'
p2043
ag221
aS'variable_59'
p2044
ag221
aS'variable_61'
p2045
ag15
aS'variable_19'
p2046
ag124
ag224
ag17
aS'if'
p2047
ag5
aS'variable_16'
p2048
aS'->'
p2049
aS'variable_44'
p2050
ag221
aS'variable_59'
p2051
ag221
aS'variable_61'
p2052
aS'=='
p2053
ag35
ag12
aS'variable_26'
p2054
ag15
aS'variable_26'
p2055
ag156
aS'func_29'
p2056
ag5
aS'variable_26'
p2057
ag12
ag17
aS'variable_29'
p2058
ag15
ag5
aS'variable_30'
p2059
ag12
ag7
aS'variable_26'
p2060
aS'++'
p2061
ag17
aS'variable_6'
p2062
ag15
aS'variable_5'
p2063
ag17
aS'variable_10'
p2064
ag15
aS'variable_26'
p2065
ag156
aS'variable_40'
p2066
ag17
aS'variable_29'
p2067
ag15
ag5
aS'variable_30'
p2068
ag12
ag7
aS'variable_10'
p2069
aS'++'
p2070
ag17
aS'variable_17'
p2071
ag15
aS'variable_5'
p2072
aS'->'
p2073
aS'variable_34'
p2074
ag17
aS'if'
p2075
ag5
aS'func_30'
p2076
ag5
aS'variable_29'
p2077
ag12
ag12
aS'if'
p2078
ag5
ag59
aS'func_31'
p2079
ag5
aS'variable_3'
p2080
ag9
aS'variable_5'
p2081
ag9
aS'variable_29'
p2082
ag9
ag65
aS'variable_10'
p2083
ag9
aS'variable_36'
p2084
ag12
ag12
aS'if'
p2085
ag5
aS'variable_16'
p2086
aS'->'
p2087
aS'variable_44'
p2088
ag221
aS'variable_59'
p2089
ag221
aS'variable_60'
p2090
aS'=='
p2091
ag35
ag12
aS'variable_6'
p2092
ag15
aS'variable_5'
p2093
ag17
aS'variable_6'
p2094
ag15
aS'NULL'
p2095
ag17
aS'variable_26'
p2096
ag15
aS'variable_26'
p2097
ag156
aS'func_32'
p2098
ag5
aS'variable_26'
p2099
ag12
ag17
aS'variable_29'
p2100
ag15
ag5
aS'variable_30'
p2101
ag12
ag7
aS'variable_10'
p2102
aS'++'
p2103
ag17
aS'variable_6'
p2104
ag15
aS'variable_5'
p2105
ag17
aS'variable_16'
p2106
aS'->'
p2107
aS'variable_48'
p2108
ag15
aS'variable_17'
p2109
ag124
aS'variable_3'
p2110
aS'->'
p2111
aS'variable_49'
p2112
ag17
aS'variable_16'
p2113
aS'->'
p2114
aS'variable_63'
p2115
ag15
aS'variable_64'
p2116
ag17
aS'variable_16'
p2117
aS'->'
p2118
aS'variable_65'
p2119
ag15
aS'variable_26'
p2120
ag17
aS'variable_16'
p2121
aS'->'
p2122
aS'variable_20'
p2123
ag15
aS'variable_20'
p2124
ag17
aS'if'
p2125
ag5
aS'variable_16'
p2126
aS'->'
p2127
aS'variable_44'
p2128
ag221
aS'variable_59'
p2129
ag221
aS'variable_60'
p2130
aS'=='
p2131
ag35
aS'&&'
p2132
ag59
aS'func_33'
p2133
ag5
aS'variable_3'
p2134
ag9
aS'variable_64'
p2135
ag9
aS'variable_26'
p2136
ag9
aS'variable_5'
p2137
ag9
aS'variable_17'
p2138
ag9
ag35
ag9
ag35
ag12
ag12
aS'variable_26'
p2139
ag15
aS'variable_10'
p2140
ag17
aS'variable_26'
p2141
ag15
aS'variable_16'
p2142
ag112
ag124
ag224
ag114
ag221
aS'variable_65'
p2143
ag17
aS'variable_29'
p2144
ag15
ag5
aS'variable_30'
p2145
ag12
aS'variable_16'
p2146
ag112
ag124
ag224
ag114
ag221
aS'variable_63'
p2147
ag17
aS'if'
p2148
ag5
ag59
aS'variable_6'
p2149
ag12
aS'variable_6'
p2150
ag15
aS'variable_5'
p2151
ag17
aS'if'
p2152
ag5
ag59
aS'variable_6'
p2153
ag12
aS'if'
p2154
ag5
aS'variable_16'
p2155
aS'->'
p2156
aS'variable_44'
p2157
ag221
aS'variable_59'
p2158
ag221
aS'variable_60'
p2159
aS'=='
p2160
ag35
ag12
aS'if'
p2161
ag5
aS'variable_16'
p2162
aS'->'
p2163
aS'variable_44'
p2164
ag221
aS'variable_59'
p2165
ag221
aS'variable_60'
p2166
aS'=='
p2167
ag35
aS'&&'
p2168
aS'variable_5'
p2169
aS'->'
p2170
aS'variable_34'
p2171
aS'=='
p2172
aS'variable_3'
p2173
aS'->'
p2174
aS'variable_49'
p2175
ag156
aS'variable_16'
p2176
aS'->'
p2177
aS'variable_48'
p2178
ag12
aS'variable_6'
p2179
ag15
aS'NULL'
p2180
ag17
aS'if'
p2181
ag5
aS'variable_16'
p2182
aS'->'
p2183
aS'variable_44'
p2184
ag221
aS'variable_59'
p2185
ag221
aS'variable_60'
p2186
aS'!='
p2187
ag35
ag12
aS'variable_16'
p2188
aS'->'
p2189
aS'variable_44'
p2190
ag221
aS'variable_59'
p2191
ag221
aS'variable_60'
p2192
aS'--'
p2193
ag17
aS'if'
p2194
ag5
aS'variable_16'
p2195
aS'->'
p2196
aS'variable_44'
p2197
ag221
aS'variable_59'
p2198
ag221
aS'variable_61'
p2199
aS'!='
p2200
ag5
aS'variable_62'
p2201
ag12
ag124
ag224
ag12
aS'variable_16'
p2202
aS'->'
p2203
aS'variable_44'
p2204
ag221
aS'variable_59'
p2205
ag221
aS'variable_61'
p2206
aS'--'
p2207
ag17
aS'if'
p2208
ag5
aS'variable_16'
p2209
aS'->'
p2210
aS'variable_44'
p2211
ag221
aS'variable_59'
p2212
ag221
aS'variable_61'
p2213
aS'=='
p2214
ag35
ag12
aS'variable_10'
p2215
ag15
aS'variable_26'
p2216
ag156
aS'variable_40'
p2217
ag17
aS'variable_12'
p2218
ag15
ag5
aS'variable_30'
p2219
ag12
ag7
aS'variable_10'
p2220
ag17
aS'variable_17'
p2221
ag15
aS'variable_5'
p2222
aS'->'
p2223
aS'variable_34'
p2224
ag17
aS'if'
p2225
ag5
aS'func_34'
p2226
ag5
aS'variable_12'
p2227
ag12
ag12
aS'variable_10'
p2228
aS'++'
p2229
ag17
aS'if'
p2230
ag5
ag59
aS'func_35'
p2231
ag5
aS'variable_3'
p2232
ag9
aS'variable_5'
p2233
ag9
aS'variable_12'
p2234
ag9
ag65
aS'variable_10'
p2235
ag9
aS'variable_36'
p2236
ag12
ag12
aS'if'
p2237
ag5
aS'variable_16'
p2238
aS'->'
p2239
aS'variable_44'
p2240
ag221
aS'variable_59'
p2241
ag221
aS'variable_60'
p2242
aS'=='
p2243
ag35
ag12
aS'variable_6'
p2244
ag15
aS'NULL'
p2245
ag17
aS'variable_6'
p2246
ag15
aS'variable_5'
p2247
ag17
aS'variable_16'
p2248
aS'->'
p2249
aS'variable_48'
p2250
ag15
aS'variable_17'
p2251
ag124
aS'variable_3'
p2252
aS'->'
p2253
aS'variable_49'
p2254
ag17
aS'if'
p2255
ag5
aS'variable_16'
p2256
aS'->'
p2257
aS'variable_44'
p2258
ag221
aS'variable_59'
p2259
ag221
aS'variable_60'
p2260
aS'=='
p2261
ag35
aS'&&'
p2262
ag59
aS'func_36'
p2263
ag5
aS'variable_3'
p2264
ag9
aS'variable_64'
p2265
ag9
aS'variable_26'
p2266
ag9
aS'variable_5'
p2267
ag9
aS'variable_17'
p2268
ag9
aS'variable_16'
p2269
aS'->'
p2270
aS'variable_20'
p2271
ag9
aS'variable_20'
p2272
ag124
aS'variable_16'
p2273
aS'->'
p2274
aS'variable_20'
p2275
ag12
ag12
aS'while'
p2276
ag5
ag7
aS'variable_10'
p2277
aS'=='
p2278
aS'variable_66'
p2279
ag12
aS'variable_26'
p2280
ag15
aS'variable_10'
p2281
ag17
aS'variable_29'
p2282
ag15
ag5
aS'variable_30'
p2283
ag12
ag7
aS'variable_26'
p2284
aS'++'
p2285
ag17
aS'variable_20'
p2286
ag15
aS'variable_16'
p2287
aS'->'
p2288
aS'variable_20'
p2289
ag17
aS'variable_6'
p2290
ag15
aS'variable_5'
p2291
ag17
aS'variable_26'
p2292
aS'+='
p2293
aS'func_37'
p2294
ag5
aS'variable_26'
p2295
ag12
ag17
aS'variable_16'
p2296
aS'->'
p2297
aS'variable_44'
p2298
ag221
aS'variable_59'
p2299
ag221
aS'variable_60'
p2300
ag15
ag35
ag17
aS'variable_16'
p2301
aS'->'
p2302
aS'variable_44'
p2303
ag221
aS'variable_59'
p2304
ag221
aS'variable_61'
p2305
ag15
ag5
aS'variable_62'
p2306
ag12
ag124
ag224
ag17
aS'variable_16'
p2307
aS'->'
p2308
aS'variable_44'
p2309
ag221
aS'variable_59'
p2310
ag221
aS'variable_60'
p2311
ag15
ag224
ag17
aS'variable_16'
p2312
aS'->'
p2313
aS'variable_44'
p2314
ag221
aS'variable_59'
p2315
ag221
aS'variable_61'
p2316
ag15
ag5
aS'variable_62'
p2317
ag12
ag124
ag224
ag17
aS'variable_16'
p2318
aS'->'
p2319
aS'variable_44'
p2320
ag221
aS'variable_59'
p2321
ag221
aS'variable_60'
p2322
ag15
ag35
ag17
aS'variable_16'
p2323
aS'->'
p2324
aS'variable_44'
p2325
ag221
aS'variable_59'
p2326
ag221
aS'variable_61'
p2327
ag15
ag224
ag17
aS'variable_26'
p2328
ag15
aS'func_38'
p2329
ag5
aS'variable_26'
p2330
ag9
ag65
aS'variable_19'
p2331
ag12
ag17
aS'variable_16'
p2332
aS'->'
p2333
aS'variable_44'
p2334
ag221
aS'variable_59'
p2335
ag221
aS'variable_60'
p2336
ag15
aS'variable_19'
p2337
ag17
aS'variable_26'
p2338
ag15
aS'func_39'
p2339
ag5
aS'variable_26'
p2340
ag9
ag65
aS'variable_19'
p2341
ag12
ag17
aS'variable_16'
p2342
aS'->'
p2343
aS'variable_44'
p2344
ag221
aS'variable_59'
p2345
ag221
aS'variable_61'
p2346
ag15
aS'variable_19'
p2347
ag124
ag224
ag17
aS'variable_16'
p2348
aS'->'
p2349
aS'variable_48'
p2350
ag15
aS'variable_5'
p2351
aS'->'
p2352
aS'variable_34'
p2353
ag124
aS'variable_3'
p2354
aS'->'
p2355
aS'variable_49'
p2356
ag17
aS'variable_16'
p2357
aS'->'
p2358
aS'variable_20'
p2359
ag15
aS'variable_20'
p2360
ag17
aS'if'
p2361
ag5
aS'variable_16'
p2362
aS'->'
p2363
aS'variable_44'
p2364
ag221
aS'variable_59'
p2365
ag221
aS'variable_60'
p2366
aS'!='
p2367
ag35
ag12
aS'variable_16'
p2368
aS'->'
p2369
aS'variable_63'
p2370
ag15
aS'variable_67'
p2371
ag17
aS'variable_16'
p2372
aS'->'
p2373
aS'variable_65'
p2374
ag15
aS'variable_26'
p2375
ag17
aS'variable_26'
p2376
aS'+='
p2377
aS'variable_68'
p2378
ag17
aS'variable_29'
p2379
ag15
ag5
aS'variable_30'
p2380
ag12
ag7
aS'variable_26'
p2381
aS'++'
p2382
ag17
aS'if'
p2383
ag5
ag59
aS'func_40'
p2384
ag5
aS'variable_3'
p2385
ag9
aS'variable_67'
p2386
ag9
aS'variable_26'
p2387
ag9
aS'variable_5'
p2388
ag9
aS'variable_5'
p2389
aS'->'
p2390
aS'variable_34'
p2391
ag9
ag35
ag9
ag35
ag12
ag12
aS'variable_26'
p2392
ag15
aS'variable_26'
p2393
ag156
aS'func_41'
p2394
ag5
aS'variable_26'
p2395
ag12
ag17
aS'variable_29'
p2396
ag15
ag5
aS'variable_30'
p2397
ag12
ag7
aS'variable_26'
p2398
aS'++'
p2399
ag17
aS'variable_16'
p2400
aS'->'
p2401
aS'variable_48'
p2402
ag15
aS'variable_5'
p2403
aS'->'
p2404
aS'variable_34'
p2405
ag124
aS'variable_3'
p2406
aS'->'
p2407
aS'variable_49'
p2408
ag17
aS'variable_16'
p2409
aS'->'
p2410
aS'variable_63'
p2411
ag15
aS'variable_67'
p2412
ag17
aS'variable_16'
p2413
aS'->'
p2414
aS'variable_65'
p2415
ag15
aS'variable_26'
p2416
ag17
aS'variable_26'
p2417
aS'+='
p2418
aS'variable_40'
p2419
ag17
aS'for'
p2420
ag5
aS'variable_19'
p2421
ag15
aS'variable_16'
p2422
aS'->'
p2423
aS'variable_20'
p2424
ag17
aS'variable_19'
p2425
ag73
aS'variable_20'
p2426
ag17
aS'variable_19'
p2427
aS'++'
p2428
ag12
aS'variable_5'
p2429
aS'->'
p2430
aS'variable_47'
p2431
ag112
aS'variable_19'
p2432
ag114
ag221
aS'variable_48'
p2433
ag15
ag124
ag224
ag17
aS'func_42'
p2434
ag5
aS'variable_3'
p2435
ag12
ag17
aS'variable_29'
p2436
ag15
ag5
aS'variable_30'
p2437
ag12
ag7
aS'variable_26'
p2438
aS'++'
p2439
ag17
aS'func_43'
p2440
ag5
aS'variable_29'
p2441
ag73
aS'variable_69'
p2442
ag12
ag17
aS'if'
p2443
ag5
ag59
aS'variable_6'
p2444
ag12
aS'if'
p2445
ag5
aS'variable_16'
p2446
aS'->'
p2447
aS'variable_44'
p2448
ag221
aS'variable_59'
p2449
ag221
aS'variable_61'
p2450
aS'=='
p2451
ag5
aS'variable_62'
p2452
ag12
ag124
ag224
aS'||'
p2453
aS'variable_16'
p2454
aS'->'
p2455
aS'variable_44'
p2456
ag221
aS'variable_59'
p2457
ag221
aS'variable_61'
p2458
ag213
ag35
ag12
aS'if'
p2459
ag5
aS'variable_16'
p2460
aS'->'
p2461
aS'variable_44'
p2462
ag221
aS'variable_59'
p2463
ag221
aS'variable_60'
p2464
aS'=='
p2465
ag35
aS'&&'
p2466
aS'variable_5'
p2467
aS'->'
p2468
aS'variable_34'
p2469
aS'=='
p2470
aS'variable_3'
p2471
aS'->'
p2472
aS'variable_49'
p2473
ag156
aS'variable_16'
p2474
aS'->'
p2475
aS'variable_48'
p2476
ag12
aS'variable_6'
p2477
ag15
aS'NULL'
p2478
ag17
aS'if'
p2479
ag5
aS'variable_16'
p2480
aS'->'
p2481
aS'variable_44'
p2482
ag221
aS'variable_59'
p2483
ag221
aS'variable_60'
p2484
aS'!='
p2485
ag35
ag12
aS'variable_16'
p2486
aS'->'
p2487
aS'variable_44'
p2488
ag221
aS'variable_59'
p2489
ag221
aS'variable_60'
p2490
aS'--'
p2491
ag17
aS'if'
p2492
ag5
aS'variable_16'
p2493
aS'->'
p2494
aS'variable_44'
p2495
ag221
aS'variable_59'
p2496
ag221
aS'variable_61'
p2497
aS'!='
p2498
ag5
aS'variable_62'
p2499
ag12
ag124
ag224
ag12
aS'variable_16'
p2500
aS'->'
p2501
aS'variable_44'
p2502
ag221
aS'variable_59'
p2503
ag221
aS'variable_61'
p2504
aS'--'
p2505
ag17
aS'if'
p2506
ag5
aS'variable_16'
p2507
aS'->'
p2508
aS'variable_44'
p2509
ag221
aS'variable_59'
p2510
ag221
aS'variable_60'
p2511
aS'!='
p2512
ag35
ag12
aS'variable_16'
p2513
aS'->'
p2514
aS'variable_48'
p2515
ag15
aS'variable_5'
p2516
aS'->'
p2517
aS'variable_34'
p2518
ag124
aS'variable_3'
p2519
aS'->'
p2520
aS'variable_49'
p2521
ag17
aS'variable_16'
p2522
aS'->'
p2523
aS'variable_20'
p2524
ag15
aS'variable_20'
p2525
ag17
aS'if'
p2526
ag5
ag59
aS'func_44'
p2527
ag5
aS'variable_3'
p2528
ag9
aS'variable_67'
p2529
ag9
aS'variable_26'
p2530
ag9
aS'variable_5'
p2531
ag9
aS'variable_5'
p2532
aS'->'
p2533
aS'variable_34'
p2534
ag9
aS'variable_16'
p2535
aS'->'
p2536
aS'variable_20'
p2537
ag9
aS'variable_20'
p2538
ag124
aS'variable_16'
p2539
aS'->'
p2540
aS'variable_20'
p2541
ag12
ag12
aS'variable_26'
p2542
ag15
aS'variable_26'
p2543
ag156
aS'func_45'
p2544
ag5
aS'variable_26'
p2545
ag12
ag17
aS'variable_29'
p2546
ag15
ag5
aS'variable_30'
p2547
ag12
ag7
aS'variable_26'
p2548
aS'++'
p2549
ag17
aS'variable_6'
p2550
ag15
aS'NULL'
p2551
ag17
aS'if'
p2552
ag5
ag59
aS'variable_6'
p2553
ag12
aS'if'
p2554
ag5
aS'variable_3'
p2555
aS'->'
p2556
aS'variable_56'
p2557
aS'=='
p2558
ag35
ag12
aS'if'
p2559
ag5
ag59
aS'func_46'
p2560
ag5
aS'variable_3'
p2561
aS'->'
p2562
aS'variable_70'
p2563
ag12
ag12
aS'variable_3'
p2564
aS'->'
p2565
aS'variable_71'
p2566
ag15
aS'variable_33'
p2567
ag17
aS'variable_3'
p2568
aS'->'
p2569
aS'variable_72'
p2570
aS'++'
p2571
ag17
aS'if'
p2572
ag5
aS'variable_3'
p2573
aS'->'
p2574
aS'variable_73'
p2575
aS'&&'
p2576
aS'variable_3'
p2577
aS'->'
p2578
aS'variable_72'
p2579
ag213
ag15
aS'variable_3'
p2580
aS'->'
p2581
aS'variable_73'
p2582
ag12
aS'variable_3'
p2583
aS'->'
p2584
aS'variable_71'
p2585
ag15
aS'variable_33'
p2586
ag17
aS'variable_8'
p2587
ag15
aS'variable_3'
p2588
aS'->'
p2589
aS'variable_53'
p2590
ag17
aS'variable_3'
p2591
aS'->'
p2592
aS'variable_56'
p2593
ag15
aS'variable_8'
p2594
aS'->'
p2595
aS'variable_55'
p2596
ag17
aS'variable_3'
p2597
aS'->'
p2598
aS'variable_53'
p2599
ag15
ag5
aS'REBackTrackData'
p2600
ag7
ag12
ag5
ag5
aS'char'
p2601
ag7
ag12
aS'variable_8'
p2602
ag124
aS'variable_8'
p2603
aS'->'
p2604
aS'variable_55'
p2605
ag12
ag17
aS'variable_5'
p2606
aS'->'
p2607
aS'variable_34'
p2608
ag15
aS'variable_8'
p2609
aS'->'
p2610
aS'variable_34'
p2611
ag17
aS'variable_26'
p2612
ag15
aS'variable_8'
p2613
aS'->'
p2614
aS'variable_74'
p2615
ag17
aS'variable_29'
p2616
ag15
ag5
aS'variable_30'
p2617
ag12
aS'variable_8'
p2618
aS'->'
p2619
aS'variable_75'
p2620
ag17
aS'variable_3'
p2621
aS'->'
p2622
aS'variable_39'
p2623
ag15
aS'variable_8'
p2624
aS'->'
p2625
aS'variable_76'
p2626
ag17
aS'memcpy'
p2627
ag5
aS'variable_3'
p2628
aS'->'
p2629
aS'variable_38'
p2630
ag9
aS'variable_8'
p2631
ag156
ag224
ag9
aS'sizeof'
p2632
ag5
aS'variable_15'
p2633
ag12
ag7
aS'variable_8'
p2634
aS'->'
p2635
aS'variable_76'
p2636
ag12
ag17
aS'variable_16'
p2637
ag15
ag65
aS'variable_3'
p2638
aS'->'
p2639
aS'variable_38'
p2640
ag112
aS'variable_3'
p2641
aS'->'
p2642
aS'variable_39'
p2643
ag124
ag224
ag114
ag17
aS'if'
p2644
ag5
aS'variable_8'
p2645
aS'->'
p2646
aS'variable_77'
p2647
ag12
aS'variable_20'
p2648
ag15
aS'variable_8'
p2649
aS'->'
p2650
aS'variable_18'
p2651
ag156
aS'variable_8'
p2652
aS'->'
p2653
aS'variable_77'
p2654
ag17
aS'for'
p2655
ag5
aS'variable_19'
p2656
ag15
aS'variable_16'
p2657
aS'->'
p2658
aS'variable_20'
p2659
ag17
aS'variable_19'
p2660
ag73
aS'variable_20'
p2661
ag17
aS'variable_19'
p2662
aS'++'
p2663
ag12
aS'variable_5'
p2664
aS'->'
p2665
aS'variable_47'
p2666
ag112
aS'variable_19'
p2667
ag114
ag221
aS'variable_48'
p2668
ag15
ag124
ag224
ag17
aS'variable_20'
p2669
ag15
aS'variable_16'
p2670
aS'->'
p2671
aS'variable_20'
p2672
ag17
aS'variable_5'
p2673
ag15
aS'variable_6'
p2674
ag17
aS'variable_29'
p2675
ag15
ag5
aS'variable_30'
p2676
ag12
ag7
aS'variable_26'
p2677
aS'++'
p2678
ag17
aaa(lp2679
I0
aI0
aa(lp2680
I2520
aI671
aa(lp2681
(lp2682
S'main'
p2683
aa(lp2684
g2683
aaa(lp2685
S'219 /home/SySeVR/data/CVE_2011_2998_VULN_ExecuteREBytecode.c parenSoFar = backTrackData -> parenIndex + backTrackData -> parenCount 515'
p2686
aS'240 /home/SySeVR/data/CVE_2011_2998_VULN_ExecuteREBytecode.c delta = x -> cp - ( gData -> cpbegin + cap -> index ) 169'
p2687
aa.