(lp0
(lp1
(lp2
S'static'
p3
aS'int'
p4
aS'func_0'
p5
aS'('
p6
aS'struct'
p7
aS'variable_0'
p8
aS'*'
p9
aS'variable_1'
p10
aS','
p11
aS'variable_2'
p12
ag9
aS'variable_3'
p13
aS')'
p14
aS'char'
p15
ag9
aS'variable_4'
p16
aS';'
p17
aS'int'
p18
aS'variable_5'
p19
aS'='
p20
aS'0'
p21
ag17
aS'int'
p22
aS'variable_6'
p23
ag20
ag21
ag17
aS'int'
p24
aS'variable_7'
p25
ag20
ag21
ag17
aS'int'
p26
aS'variable_8'
p27
ag17
aS'int'
p28
aS'variable_9'
p29
ag17
aS'struct'
p30
aS'variable_10'
p31
ag9
aS'variable_11'
p32
ag20
aS'&'
p33
aS'variable_1'
p34
aS'->'
p35
aS'variable_11'
p36
ag17
aS'substring_t'
p37
aS'variable_12'
p38
aS'['
p39
aS'variable_13'
p40
aS']'
p41
ag17
aS'int'
p42
aS'variable_14'
p43
ag17
aS'char'
p44
ag9
aS'variable_15'
p45
ag17
aS'char'
p46
ag9
aS'variable_16'
p47
ag17
aS'char'
p48
ag9
aS'variable_17'
p49
ag17
aS'if'
p50
ag6
aS'!'
p51
aS'variable_18'
p52
ag14
aS'while'
p53
ag6
ag6
aS'variable_4'
p54
ag20
aS'func_1'
p55
ag6
ag33
aS'variable_18'
p56
ag11
aS'"'
p57
ag11
ag57
ag14
ag14
aS'!='
p58
aS'NULL'
p59
ag14
aS'if'
p60
ag6
ag51
ag9
aS'variable_4'
p61
ag14
aS'variable_14'
p62
ag20
aS'func_2'
p63
ag6
aS'variable_4'
p64
ag11
aS'variable_19'
p65
ag11
aS'variable_12'
p66
ag14
ag17
aS'switch'
p67
ag6
aS'variable_14'
p68
ag14
aS'variable_15'
p69
ag20
aS'variable_12'
p70
ag39
ag21
ag41
aS'.'
p71
aS'variable_20'
p72
ag17
aS'variable_21'
p73
ag20
aS'func_3'
p74
ag6
aS'variable_11'
p75
ag11
aS'variable_15'
p76
ag11
ag21
ag14
ag17
aS'if'
p77
ag6
aS'variable_21'
p78
ag14
aS'variable_5'
p79
ag20
aS'1'
p80
ag17
aS'variable_6'
p81
ag20
ag80
ag17
aS'variable_16'
p82
ag20
aS'variable_12'
p83
ag39
ag21
ag41
ag71
aS'variable_20'
p84
ag17
aS'variable_8'
p85
ag20
ag6
aS'int'
p86
ag14
aS'func_4'
p87
ag6
aS'variable_16'
p88
ag11
ag33
aS'variable_16'
p89
ag11
ag21
ag14
ag17
aS'variable_11'
p90
aS'->'
p91
aS'variable_22'
p92
ag20
aS'variable_8'
p93
ag17
aS'variable_11'
p94
aS'->'
p95
aS'variable_23'
p96
aS'|'
p97
ag20
aS'variable_24'
p98
ag17
aS'variable_11'
p99
aS'->'
p100
aS'variable_23'
p101
ag97
ag20
aS'variable_25'
p102
ag17
aS'variable_11'
p103
aS'->'
p104
aS'variable_23'
p105
ag97
ag20
aS'variable_25'
p106
ag17
aS'variable_11'
p107
aS'->'
p108
aS'variable_23'
p109
ag97
ag20
aS'variable_26'
p110
ag17
aS'variable_11'
p111
aS'->'
p112
aS'variable_27'
p113
ag39
aS'variable_28'
p114
ag41
ag20
aS"'"
p115
aS'\\'
p116
ag21
ag115
ag17
aS'variable_21'
p117
ag20
aS'func_5'
p118
ag6
aS'variable_11'
p119
ag11
aS'variable_11'
p120
aS'->'
p121
aS'variable_27'
p122
ag11
aS'variable_29'
p123
ag14
ag17
aS'if'
p124
ag6
aS'variable_21'
p125
ag14
aS'variable_11'
p126
aS'->'
p127
aS'variable_23'
p128
ag97
ag20
ag6
aS'variable_30'
p129
ag97
aS'variable_31'
p130
ag14
ag17
aS'variable_11'
p131
aS'->'
p132
aS'variable_32'
p133
ag39
aS'variable_33'
p134
ag41
ag20
ag115
ag116
ag21
ag115
ag17
aS'variable_7'
p135
ag20
ag80
ag17
aS'variable_17'
p136
ag20
aS'variable_12'
p137
ag39
ag21
ag41
ag71
aS'variable_20'
p138
ag17
aS'variable_9'
p139
ag20
ag6
aS'int'
p140
ag14
aS'func_6'
p141
ag6
aS'variable_17'
p142
ag11
ag33
aS'variable_17'
p143
ag11
ag21
ag14
ag17
aS'variable_11'
p144
aS'->'
p145
aS'variable_34'
p146
ag20
aS'variable_9'
p147
ag17
aS'variable_11'
p148
aS'->'
p149
aS'variable_23'
p150
ag97
ag20
aS'variable_35'
p151
ag17
aS'variable_11'
p152
aS'->'
p153
aS'variable_23'
p154
ag97
ag20
aS'variable_36'
p155
ag17
aS'if'
p156
ag6
ag51
aS'variable_5'
p157
ag14
aS'if'
p158
ag6
ag51
aS'variable_6'
p159
ag14
aS'strcpy'
p160
ag6
aS'variable_11'
p161
aS'->'
p162
aS'variable_37'
p163
ag11
aS'variable_38'
p164
ag14
ag17
aS'if'
p165
ag6
ag6
aS'variable_11'
p166
aS'->'
p167
aS'variable_23'
p168
ag33
aS'variable_30'
p169
ag14
aS'&&'
p170
ag51
aS'variable_7'
p171
ag14
aS'strcpy'
p172
ag6
aS'variable_11'
p173
aS'->'
p174
aS'variable_32'
p175
ag11
aS'variable_11'
p176
aS'->'
p177
aS'variable_37'
p178
ag14
ag17
aS'variable_11'
p179
aS'->'
p180
aS'variable_22'
p181
ag20
ag21
ag17
aS'if'
p182
ag6
ag6
aS'variable_11'
p183
aS'->'
p184
aS'variable_23'
p185
ag33
aS'variable_30'
p186
ag14
aS'&&'
p187
ag51
aS'variable_39'
p188
ag14
aS'variable_11'
p189
aS'->'
p190
aS'variable_34'
p191
ag20
aS'variable_11'
p192
aS'->'
p193
aS'variable_22'
p194
ag17
aS'if'
p195
ag6
ag51
aS'func_7'
p196
ag6
aS'variable_11'
p197
aS'->'
p198
aS'variable_37'
p199
ag11
aS'NULL'
p200
ag14
ag14
aS'variable_21'
p201
ag20
aS'func_8'
p202
ag6
aS'NULL'
p203
ag11
aS'variable_11'
p204
aS'->'
p205
aS'variable_37'
p206
ag11
aS'variable_11'
p207
aS'->'
p208
aS'variable_22'
p209
ag14
ag17
aS'if'
p210
ag6
aS'variable_21'
p211
ag14
aS'if'
p212
ag6
ag6
aS'variable_11'
p213
aS'->'
p214
aS'variable_23'
p215
ag33
aS'variable_30'
p216
ag14
aS'&&'
p217
ag51
aS'func_9'
p218
ag6
aS'variable_11'
p219
aS'->'
p220
aS'variable_32'
p221
ag11
aS'NULL'
p222
ag14
ag14
aS'variable_21'
p223
ag20
aS'func_10'
p224
ag6
aS'NULL'
p225
ag11
aS'variable_11'
p226
aS'->'
p227
aS'variable_32'
p228
ag11
aS'variable_11'
p229
aS'->'
p230
aS'variable_34'
p231
ag14
ag17
aS'if'
p232
ag6
aS'variable_21'
p233
ag14
aa(lp234
S'static'
p235
aS'int'
p236
aS'func_0'
p237
ag6
aS'struct'
p238
aS'variable_0'
p239
ag9
aS'variable_1'
p240
ag11
aS'variable_2'
p241
ag9
aS'variable_3'
p242
ag14
aS'char'
p243
ag9
aS'variable_4'
p244
ag17
aS'int'
p245
aS'variable_5'
p246
ag20
ag21
ag17
aS'int'
p247
aS'variable_6'
p248
ag20
ag21
ag17
aS'int'
p249
aS'variable_7'
p250
ag17
aS'int'
p251
aS'variable_8'
p252
ag17
aS'struct'
p253
aS'variable_9'
p254
ag9
aS'variable_10'
p255
ag20
ag33
aS'variable_1'
p256
aS'->'
p257
aS'variable_10'
p258
ag17
aS'substring_t'
p259
aS'variable_11'
p260
ag39
aS'variable_12'
p261
ag41
ag17
aS'int'
p262
aS'variable_13'
p263
ag17
aS'char'
p264
ag9
aS'variable_14'
p265
ag17
aS'char'
p266
ag9
aS'variable_15'
p267
ag17
aS'char'
p268
ag9
aS'variable_16'
p269
ag17
aS'if'
p270
ag6
ag51
aS'variable_17'
p271
ag14
aS'while'
p272
ag6
ag6
aS'variable_4'
p273
ag20
aS'func_1'
p274
ag6
ag33
aS'variable_17'
p275
ag11
ag57
ag11
ag57
ag14
ag14
aS'!='
p276
aS'NULL'
p277
ag14
aS'if'
p278
ag6
ag51
ag9
aS'variable_4'
p279
ag14
aS'variable_13'
p280
ag20
aS'func_2'
p281
ag6
aS'variable_4'
p282
ag11
aS'variable_18'
p283
ag11
aS'variable_11'
p284
ag14
ag17
aS'switch'
p285
ag6
aS'variable_13'
p286
ag14
aS'variable_14'
p287
ag20
aS'variable_11'
p288
ag39
ag21
ag41
ag71
aS'variable_19'
p289
ag17
aS'variable_20'
p290
ag20
aS'func_3'
p291
ag6
aS'variable_10'
p292
ag11
aS'variable_14'
p293
ag11
ag21
ag14
ag17
aS'if'
p294
ag6
aS'variable_20'
p295
ag14
aS'variable_5'
p296
ag20
ag80
ag17
aS'variable_6'
p297
ag20
ag80
ag17
aS'variable_15'
p298
ag20
aS'variable_11'
p299
ag39
ag21
ag41
ag71
aS'variable_19'
p300
ag17
aS'variable_7'
p301
ag20
ag6
aS'int'
p302
ag14
aS'func_4'
p303
ag6
aS'variable_15'
p304
ag11
ag33
aS'variable_15'
p305
ag11
ag21
ag14
ag17
aS'variable_10'
p306
aS'->'
p307
aS'variable_21'
p308
ag20
aS'variable_7'
p309
ag17
aS'variable_10'
p310
aS'->'
p311
aS'variable_22'
p312
ag97
ag20
aS'variable_23'
p313
ag17
aS'variable_10'
p314
aS'->'
p315
aS'variable_22'
p316
ag97
ag20
aS'variable_24'
p317
ag17
aS'variable_10'
p318
aS'->'
p319
aS'variable_22'
p320
ag97
ag20
aS'variable_24'
p321
ag17
aS'variable_10'
p322
aS'->'
p323
aS'variable_22'
p324
ag97
ag20
aS'variable_25'
p325
ag17
aS'variable_10'
p326
aS'->'
p327
aS'variable_26'
p328
ag39
aS'variable_27'
p329
ag41
ag20
ag115
ag116
ag21
ag115
ag17
aS'variable_20'
p330
ag20
aS'func_5'
p331
ag6
aS'variable_10'
p332
ag11
aS'variable_10'
p333
aS'->'
p334
aS'variable_26'
p335
ag11
aS'variable_28'
p336
ag14
ag17
aS'if'
p337
ag6
aS'variable_20'
p338
ag14
aS'variable_10'
p339
aS'->'
p340
aS'variable_22'
p341
ag97
ag20
ag6
aS'variable_29'
p342
ag97
aS'variable_30'
p343
ag14
ag17
aS'variable_10'
p344
aS'->'
p345
aS'variable_31'
p346
ag39
aS'variable_32'
p347
ag41
ag20
ag115
ag116
ag21
ag115
ag17
aS'variable_16'
p348
ag20
aS'variable_11'
p349
ag39
ag21
ag41
ag71
aS'variable_19'
p350
ag17
aS'variable_8'
p351
ag20
ag6
aS'int'
p352
ag14
aS'func_6'
p353
ag6
aS'variable_16'
p354
ag11
ag33
aS'variable_16'
p355
ag11
ag21
ag14
ag17
aS'variable_10'
p356
aS'->'
p357
aS'variable_33'
p358
ag20
aS'variable_8'
p359
ag17
aS'variable_10'
p360
aS'->'
p361
aS'variable_22'
p362
ag97
ag20
aS'variable_34'
p363
ag17
aS'variable_10'
p364
aS'->'
p365
aS'variable_22'
p366
ag97
ag20
aS'variable_35'
p367
ag17
aS'if'
p368
ag6
ag51
aS'variable_5'
p369
ag14
aS'if'
p370
ag6
ag51
aS'variable_6'
p371
ag14
aS'strcpy'
p372
ag6
aS'variable_10'
p373
aS'->'
p374
aS'variable_36'
p375
ag11
aS'variable_37'
p376
ag14
ag17
aS'if'
p377
ag6
ag6
aS'variable_10'
p378
aS'->'
p379
aS'variable_22'
p380
ag33
aS'variable_29'
p381
ag14
aS'&&'
p382
ag51
aS'variable_38'
p383
ag14
aS'strcpy'
p384
ag6
aS'variable_10'
p385
aS'->'
p386
aS'variable_31'
p387
ag11
aS'variable_10'
p388
aS'->'
p389
aS'variable_36'
p390
ag14
ag17
aS'variable_10'
p391
aS'->'
p392
aS'variable_21'
p393
ag20
ag21
ag17
aS'if'
p394
ag6
ag6
aS'variable_10'
p395
aS'->'
p396
aS'variable_22'
p397
ag33
aS'variable_29'
p398
ag14
aS'&&'
p399
ag51
aS'variable_39'
p400
ag14
aS'variable_10'
p401
aS'->'
p402
aS'variable_33'
p403
ag20
aS'variable_10'
p404
aS'->'
p405
aS'variable_21'
p406
ag17
aS'if'
p407
ag6
ag51
aS'func_7'
p408
ag6
aS'variable_10'
p409
aS'->'
p410
aS'variable_36'
p411
ag11
aS'NULL'
p412
ag14
ag14
aS'variable_20'
p413
ag20
aS'func_8'
p414
ag6
aS'NULL'
p415
ag11
aS'variable_10'
p416
aS'->'
p417
aS'variable_36'
p418
ag11
aS'variable_10'
p419
aS'->'
p420
aS'variable_21'
p421
ag14
ag17
aS'if'
p422
ag6
aS'variable_20'
p423
ag14
aS'if'
p424
ag6
ag6
aS'variable_10'
p425
aS'->'
p426
aS'variable_22'
p427
ag33
aS'variable_29'
p428
ag14
aS'&&'
p429
ag51
aS'func_9'
p430
ag6
aS'variable_10'
p431
aS'->'
p432
aS'variable_31'
p433
ag11
aS'NULL'
p434
ag14
ag14
aS'variable_20'
p435
ag20
aS'func_10'
p436
ag6
aS'NULL'
p437
ag11
aS'variable_10'
p438
aS'->'
p439
aS'variable_31'
p440
ag11
aS'variable_10'
p441
aS'->'
p442
aS'variable_33'
p443
ag14
ag17
aS'if'
p444
ag6
aS'variable_20'
p445
ag14
aaa(lp446
I0
aI0
aa(lp447
I335
aI304
aa(lp448
(lp449
S'main'
p450
aa(lp451
g450
aaa(lp452
S'816 /home/SySeVR/data/CVE_2011_1833_PATCHED_ecryptfs_parse_options.c strcpy 159'
p453
aS'817 /home/SySeVR/data/CVE_2011_1833_PATCHED_ecryptfs_parse_options.c strcpy 154'
p454
aa.