(lp0
(lp1
(lp2
S'int'
p3
aS'func_0'
p4
aS'('
p5
aS'int'
p6
aS'variable_0'
p7
aS','
p8
aS'int'
p9
aS'variable_1'
p10
ag8
aS'variable_2'
p11
aS'*'
p12
aS'variable_3'
p13
aS')'
p14
aS'uint8_t'
p15
aS'variable_4'
p16
ag8
aS'variable_5'
p17
aS';'
p18
aS'int'
p19
aS'variable_6'
p20
ag8
aS'variable_7'
p21
ag8
aS'variable_8'
p22
aS'='
p23
aS'0'
p24
ag8
aS'variable_9'
p25
ag8
aS'variable_10'
p26
ag8
aS'variable_11'
p27
ag18
aS'uint32_t'
p28
aS'variable_12'
p29
ag18
aS'if'
p30
ag5
aS'variable_13'
p31
aS'->'
p32
aS'variable_14'
p33
aS'<'
p34
ag23
ag24
ag14
aS'if'
p35
ag5
aS'variable_9'
p36
ag23
aS'func_1'
p37
ag5
aS'&'
p38
aS'variable_15'
p39
aS'->'
p40
aS'variable_16'
p41
ag8
aS'variable_15'
p42
aS'->'
p43
aS'variable_17'
p44
ag8
aS'variable_13'
p45
aS'->'
p46
aS'variable_14'
p47
aS'-'
p48
aS'1'
p49
ag8
aS'variable_13'
p50
aS'->'
p51
aS'variable_18'
p52
ag14
ag14
aS'variable_12'
p53
ag23
ag5
aS'variable_15'
p54
aS'->'
p55
aS'variable_17'
p56
aS'['
p57
ag24
aS']'
p58
ag57
ag49
ag58
ag48
aS'variable_15'
p59
aS'->'
p60
aS'variable_17'
p61
ag57
ag24
ag58
ag57
ag24
ag58
ag14
ag12
ag5
aS'variable_15'
p62
aS'->'
p63
aS'variable_17'
p64
ag57
ag49
ag58
ag57
ag49
ag58
ag48
aS'variable_15'
p65
aS'->'
p66
aS'variable_17'
p67
ag57
ag49
ag58
ag57
ag24
ag58
ag14
ag18
aS'if'
p68
ag5
aS'variable_13'
p69
aS'->'
p70
aS'variable_18'
p71
aS'=='
p72
aS'variable_19'
p73
ag14
aS'variable_15'
p74
aS'->'
p75
aS'variable_20'
p76
ag23
aS'NULL'
p77
ag18
aS'variable_15'
p78
aS'->'
p79
aS'variable_21'
p80
ag23
aS'func_2'
p81
ag5
aS'variable_12'
p82
ag8
aS'sizeof'
p83
ag5
ag12
aS'variable_15'
p84
aS'->'
p85
aS'variable_21'
p86
ag14
ag14
ag18
aS'if'
p87
ag5
aS'!'
p88
aS'variable_15'
p89
aS'->'
p90
aS'variable_21'
p91
ag14
aS'variable_15'
p92
aS'->'
p93
aS'variable_21'
p94
ag23
aS'NULL'
p95
ag18
aS'variable_15'
p96
aS'->'
p97
aS'variable_20'
p98
ag23
aS'func_3'
p99
ag5
aS'variable_12'
p100
ag8
aS'sizeof'
p101
ag5
ag12
aS'variable_15'
p102
aS'->'
p103
aS'variable_20'
p104
ag14
ag14
ag18
aS'if'
p105
ag5
ag88
aS'variable_15'
p106
aS'->'
p107
aS'variable_20'
p108
ag14
aS'variable_15'
p109
aS'->'
p110
aS'variable_22'
p111
ag23
aS'func_4'
p112
ag5
aS'variable_13'
p113
aS'->'
p114
aS'variable_23'
p115
ag8
aS'sizeof'
p116
ag5
ag12
aS'variable_15'
p117
aS'->'
p118
aS'variable_22'
p119
ag14
ag14
ag18
aS'if'
p120
ag5
ag88
aS'variable_15'
p121
aS'->'
p122
aS'variable_22'
p123
ag14
aS'for'
p124
ag5
aS'variable_6'
p125
ag23
ag24
ag18
aS'variable_6'
p126
ag34
aS'variable_13'
p127
aS'->'
p128
aS'variable_23'
p129
ag18
aS'variable_6'
p130
aS'++'
p131
ag14
aS'int'
p132
aS'variable_24'
p133
ag23
aS'variable_13'
p134
aS'->'
p135
aS'variable_23'
p136
ag48
aS'variable_6'
p137
ag18
aS'variable_25'
p138
ag12
aS'variable_22'
p139
ag23
aS'variable_15'
p140
aS'->'
p141
aS'variable_22'
p142
aS'+'
p143
aS'variable_6'
p144
ag18
aS'for'
p145
ag5
aS'variable_10'
p146
ag23
ag24
ag18
aS'variable_10'
p147
ag34
aS'2'
p148
ag18
aS'variable_10'
p149
aS'++'
p150
ag14
aS'for'
p151
ag5
aS'variable_11'
p152
ag23
ag24
ag18
aS'variable_11'
p153
ag34
ag148
ag18
aS'variable_11'
p154
aS'++'
p155
ag14
aS'variable_22'
p156
aS'->'
p157
aS'variable_17'
p158
ag57
aS'variable_10'
p159
ag58
ag57
aS'variable_11'
p160
ag58
ag23
aS'func_5'
p161
ag5
aS'variable_15'
p162
aS'->'
p163
aS'variable_26'
p164
ag57
aS'variable_10'
p165
ag58
ag57
aS'variable_11'
p166
ag58
ag8
aS'variable_24'
p167
ag48
ag49
ag14
ag18
aS'variable_22'
p168
aS'->'
p169
aS'variable_27'
p170
ag23
aS'variable_13'
p171
aS'->'
p172
aS'variable_28'
p173
ag57
aS'variable_6'
p174
ag58
ag18
aS'variable_22'
p175
aS'->'
p176
aS'variable_29'
p177
ag23
aS'variable_13'
p178
aS'->'
p179
aS'variable_30'
p180
ag57
aS'variable_6'
p181
ag58
ag18
aS'if'
p182
ag5
aS'variable_6'
p183
aS'=='
p184
ag24
ag14
aS'variable_22'
p185
aS'->'
p186
aS'variable_31'
p187
ag23
ag49
ag18
aS'variable_22'
p188
aS'->'
p189
aS'variable_31'
p190
ag23
aS'3'
p191
ag18
aS'if'
p192
ag5
aS'variable_22'
p193
aS'->'
p194
aS'variable_17'
p195
ag57
ag24
ag58
ag57
ag49
ag58
aS'=='
p196
aS'variable_22'
p197
aS'->'
p198
aS'variable_17'
p199
ag57
ag24
ag58
ag57
ag24
ag58
ag14
aS'variable_22'
p200
aS'->'
p201
aS'variable_32'
p202
ag23
ag24
ag18
aS'variable_22'
p203
aS'->'
p204
aS'variable_32'
p205
ag23
aS'func_6'
p206
ag5
aS'variable_22'
p207
aS'->'
p208
aS'variable_17'
p209
ag57
ag24
ag58
ag57
ag49
ag58
ag8
aS'variable_22'
p210
aS'->'
p211
aS'variable_27'
p212
ag14
ag48
ag5
aS'variable_22'
p213
aS'->'
p214
aS'variable_17'
p215
ag57
ag24
ag58
ag57
ag24
ag58
aS'>>'
p216
aS'variable_22'
p217
aS'->'
p218
aS'variable_27'
p219
ag14
ag18
aS'if'
p220
ag5
aS'variable_22'
p221
aS'->'
p222
aS'variable_17'
p223
ag57
ag49
ag58
ag57
ag49
ag58
aS'=='
p224
aS'variable_22'
p225
aS'->'
p226
aS'variable_17'
p227
ag57
ag49
ag58
ag57
ag24
ag58
ag14
aS'variable_22'
p228
aS'->'
p229
aS'variable_33'
p230
ag23
ag24
ag18
aS'variable_22'
p231
aS'->'
p232
aS'variable_33'
p233
ag23
aS'func_7'
p234
ag5
aS'variable_22'
p235
aS'->'
p236
aS'variable_17'
p237
ag57
ag49
ag58
ag57
ag49
ag58
ag8
aS'variable_22'
p238
aS'->'
p239
aS'variable_29'
p240
ag14
ag48
ag5
aS'variable_22'
p241
aS'->'
p242
aS'variable_17'
p243
ag57
ag49
ag58
ag57
ag24
ag58
aS'>>'
p244
aS'variable_22'
p245
aS'->'
p246
aS'variable_29'
p247
ag14
ag18
aS'variable_22'
p248
aS'->'
p249
aS'variable_34'
p250
ag23
aS'func_8'
p251
ag5
aS'variable_22'
p252
aS'->'
p253
aS'variable_31'
p254
ag8
aS'sizeof'
p255
ag5
ag12
aS'variable_22'
p256
aS'->'
p257
aS'variable_34'
p258
ag14
ag14
ag18
aS'if'
p259
ag5
ag88
aS'variable_22'
p260
aS'->'
p261
aS'variable_34'
p262
ag14
aS'for'
p263
ag5
aS'variable_7'
p264
ag23
ag24
ag18
aS'variable_7'
p265
ag34
aS'variable_22'
p266
aS'->'
p267
aS'variable_31'
p268
ag18
aS'variable_7'
p269
aS'++'
p270
ag8
aS'variable_8'
p271
aS'++'
p272
ag14
aS'variable_35'
p273
ag12
aS'variable_34'
p274
ag23
aS'variable_22'
p275
aS'->'
p276
aS'variable_34'
p277
ag143
aS'variable_7'
p278
ag18
aS'int'
p279
aS'variable_36'
p280
ag8
aS'variable_37'
p281
ag18
aS'int'
p282
aS'variable_38'
p283
ag18
aS'switch'
p284
ag5
aS'variable_39'
p285
aS'->'
p286
aS'variable_40'
p287
ag14
aS'variable_34'
p288
aS'->'
p289
aS'variable_41'
p290
ag23
ag49
ag18
aS'variable_42'
p291
ag23
aS'variable_0'
p292
ag143
aS'variable_43'
p293
ag57
aS'variable_13'
p294
aS'->'
p295
aS'variable_18'
p296
aS'=='
p297
aS'variable_44'
p298
ag58
ag57
aS'variable_7'
p299
ag143
ag5
aS'variable_6'
p300
aS'>'
p301
ag24
ag14
ag58
ag18
aS'variable_34'
p302
aS'->'
p303
aS'variable_41'
p304
ag23
aS'func_9'
p305
ag5
aS'2048'
p306
ag143
aS'variable_39'
p307
aS'->'
p308
aS'variable_45'
p309
ag57
aS'variable_8'
p310
ag58
ag8
ag148
ag143
aS'variable_42'
p311
ag48
aS'variable_39'
p312
aS'->'
p313
aS'variable_46'
p314
ag57
aS'variable_8'
p315
ag58
ag14
ag18
aS'variable_47'
p316
ag23
aS'variable_0'
p317
ag18
aS'variable_34'
p318
aS'->'
p319
aS'variable_41'
p320
ag23
aS'pow'
p321
ag5
ag148
aS'.'
p322
ag24
ag8
aS'variable_47'
p323
ag48
aS'variable_39'
p324
aS'->'
p325
aS'variable_46'
p326
ag57
aS'variable_8'
p327
ag58
ag14
ag18
aS'variable_34'
p328
aS'->'
p329
aS'variable_41'
p330
ag12
ag23
aS'variable_39'
p331
aS'->'
p332
aS'variable_45'
p333
ag57
aS'variable_8'
p334
ag58
aS'/'
p335
aS'2048'
p336
ag322
ag24
ag143
ag49
ag322
ag24
ag18
aS'variable_34'
p337
aS'->'
p338
aS'variable_41'
p339
ag23
ag24
ag18
aS'if'
p340
ag5
ag88
aS'func_10'
p341
ag5
aS'variable_3'
p342
aS'->'
p343
aS'variable_48'
p344
ag14
ag14
aS'variable_34'
p345
aS'->'
p346
aS'variable_41'
p347
ag12
ag23
ag24
ag322
aS'5'
p348
ag18
aS'variable_34'
p349
aS'->'
p350
aS'variable_49'
p351
ag23
aS'variable_34'
p352
aS'->'
p353
aS'variable_41'
p354
ag12
ag5
ag49
aS'<<'
p355
aS'15'
p356
ag14
ag18
aS'if'
p357
ag5
aS'variable_6'
p358
aS'=='
p359
ag24
ag14
aS'for'
p360
ag5
aS'variable_10'
p361
ag23
ag24
ag18
aS'variable_10'
p362
ag34
ag148
ag18
aS'variable_10'
p363
aS'++'
p364
ag14
aS'for'
p365
ag5
aS'variable_11'
p366
ag23
ag24
ag18
aS'variable_11'
p367
ag34
ag148
ag18
aS'variable_11'
p368
aS'++'
p369
ag14
aS'variable_34'
p370
aS'->'
p371
aS'variable_17'
p372
ag57
aS'variable_10'
p373
ag58
ag57
aS'variable_11'
p374
ag58
ag23
aS'func_11'
p375
ag5
aS'variable_15'
p376
aS'->'
p377
aS'variable_26'
p378
ag57
aS'variable_10'
p379
ag58
ag57
aS'variable_11'
p380
ag58
ag48
aS'variable_15'
p381
aS'->'
p382
aS'variable_26'
p383
ag57
aS'variable_10'
p384
ag58
ag57
ag24
ag58
ag8
aS'variable_24'
p385
ag48
ag49
ag14
ag18
aS'variable_4'
p386
ag23
aS'variable_22'
p387
aS'->'
p388
aS'variable_27'
p389
ag18
aS'variable_5'
p390
ag23
aS'variable_22'
p391
aS'->'
p392
aS'variable_29'
p393
ag18
aS'variable_34'
p394
aS'->'
p395
aS'variable_50'
p396
ag23
aS'func_12'
p397
ag5
aS'variable_13'
p398
aS'->'
p399
aS'variable_50'
p400
ag8
aS'variable_22'
p401
aS'->'
p402
aS'variable_27'
p403
ag14
ag18
aS'variable_34'
p404
aS'->'
p405
aS'variable_51'
p406
ag23
aS'func_13'
p407
ag5
aS'variable_13'
p408
aS'->'
p409
aS'variable_51'
p410
ag8
aS'variable_22'
p411
aS'->'
p412
aS'variable_29'
p413
ag14
ag18
aS'for'
p414
ag5
aS'variable_10'
p415
ag23
ag24
ag18
aS'variable_10'
p416
ag34
ag148
ag18
aS'variable_10'
p417
aS'++'
p418
ag14
aS'for'
p419
ag5
aS'variable_11'
p420
ag23
ag24
ag18
aS'variable_11'
p421
ag34
ag148
ag18
aS'variable_11'
p422
aS'++'
p423
ag14
aS'variable_34'
p424
aS'->'
p425
aS'variable_17'
p426
ag57
aS'variable_10'
p427
ag58
ag57
aS'variable_11'
p428
ag58
ag23
aS'func_14'
p429
ag5
aS'variable_15'
p430
aS'->'
p431
aS'variable_26'
p432
ag57
aS'variable_10'
p433
ag58
ag57
aS'variable_11'
p434
ag58
ag48
aS'variable_15'
p435
aS'->'
p436
aS'variable_26'
p437
ag57
aS'variable_10'
p438
ag58
ag57
ag24
ag58
ag48
ag5
ag5
ag5
aS'variable_7'
p439
ag143
ag49
aS'>>'
p440
aS'variable_10'
p441
ag14
ag38
ag49
ag14
aS'<<'
p442
aS'variable_24'
p443
ag48
ag49
ag14
ag8
aS'variable_24'
p444
ag14
ag18
aS'variable_34'
p445
aS'->'
p446
aS'variable_50'
p447
ag23
aS'func_15'
p448
ag5
aS'variable_13'
p449
aS'->'
p450
aS'variable_50'
p451
ag8
aS'variable_22'
p452
aS'->'
p453
aS'variable_27'
p454
ag48
ag49
ag14
ag18
aS'variable_34'
p455
aS'->'
p456
aS'variable_51'
p457
ag23
aS'func_16'
p458
ag5
aS'variable_13'
p459
aS'->'
p460
aS'variable_51'
p461
ag8
aS'variable_22'
p462
aS'->'
p463
aS'variable_29'
p464
ag48
ag49
ag14
ag18
aS'variable_4'
p465
ag23
aS'variable_22'
p466
aS'->'
p467
aS'variable_27'
p468
ag48
ag49
ag18
aS'variable_5'
p469
ag23
aS'variable_22'
p470
aS'->'
p471
aS'variable_29'
p472
ag48
ag49
ag18
aS'for'
p473
ag5
aS'variable_11'
p474
ag23
ag24
ag18
aS'variable_11'
p475
ag34
ag148
ag18
aS'variable_11'
p476
aS'++'
p477
ag14
aS'variable_34'
p478
aS'->'
p479
aS'variable_17'
p480
ag57
ag24
ag58
ag57
aS'variable_11'
p481
ag58
ag23
aS'func_17'
p482
ag5
aS'variable_34'
p483
aS'->'
p484
aS'variable_17'
p485
ag57
ag24
ag58
ag57
aS'variable_11'
p486
ag58
ag8
aS'variable_1'
p487
ag14
ag18
aS'for'
p488
ag5
aS'variable_11'
p489
ag23
ag24
ag18
aS'variable_11'
p490
ag34
ag148
ag18
aS'variable_11'
p491
aS'++'
p492
ag14
aS'variable_34'
p493
aS'->'
p494
aS'variable_17'
p495
ag57
ag49
ag58
ag57
aS'variable_11'
p496
ag58
ag23
aS'func_18'
p497
ag5
aS'variable_34'
p498
aS'->'
p499
aS'variable_17'
p500
ag57
ag49
ag58
ag57
aS'variable_11'
p501
ag58
ag8
aS'variable_52'
p502
ag14
ag18
aS'variable_34'
p503
aS'->'
p504
aS'variable_53'
p505
ag23
aS'func_19'
p506
ag5
aS'variable_22'
p507
aS'->'
p508
aS'variable_32'
p509
ag12
ag5
aS'variable_54'
p510
ag14
aS'variable_22'
p511
aS'->'
p512
aS'variable_33'
p513
ag8
aS'sizeof'
p514
ag5
ag12
aS'variable_34'
p515
aS'->'
p516
aS'variable_53'
p517
ag14
ag14
ag18
aS'if'
p518
ag5
ag88
aS'variable_34'
p519
aS'->'
p520
aS'variable_53'
p521
ag14
aS'variable_38'
p522
ag23
aS'variable_22'
p523
aS'->'
p524
aS'variable_32'
p525
ag12
aS'variable_22'
p526
aS'->'
p527
aS'variable_33'
p528
ag18
aS'for'
p529
ag5
aS'variable_37'
p530
ag23
ag24
ag18
aS'variable_37'
p531
ag34
aS'variable_38'
p532
ag18
aS'variable_37'
p533
aS'++'
p534
ag14
aS'variable_55'
p535
ag12
aS'variable_53'
p536
ag23
aS'variable_34'
p537
aS'->'
p538
aS'variable_53'
p539
ag143
aS'variable_37'
p540
ag18
aS'variable_53'
p541
aS'->'
p542
aS'variable_17'
p543
ag57
ag24
ag58
ag57
ag24
ag58
ag23
ag5
aS'variable_37'
p544
aS'%'
p545
aS'variable_22'
p546
aS'->'
p547
aS'variable_32'
p548
ag14
ag12
ag5
ag49
aS'<<'
p549
aS'variable_4'
p550
ag14
ag18
aS'variable_53'
p551
aS'->'
p552
aS'variable_17'
p553
ag57
ag24
ag58
ag57
ag24
ag58
ag23
aS'func_20'
p554
ag5
aS'variable_53'
p555
aS'->'
p556
aS'variable_17'
p557
ag57
ag24
ag58
ag57
ag24
ag58
ag8
aS'variable_34'
p558
aS'->'
p559
aS'variable_17'
p560
ag57
ag24
ag58
ag57
ag24
ag58
ag14
ag18
aS'variable_53'
p561
aS'->'
p562
aS'variable_17'
p563
ag57
ag49
ag58
ag57
ag24
ag58
ag23
ag5
aS'variable_37'
p564
ag335
aS'variable_22'
p565
aS'->'
p566
aS'variable_32'
p567
ag14
ag12
ag5
ag49
aS'<<'
p568
aS'variable_5'
p569
ag14
ag18
aS'variable_53'
p570
aS'->'
p571
aS'variable_17'
p572
ag57
ag49
ag58
ag57
ag24
ag58
ag23
aS'func_21'
p573
ag5
aS'variable_53'
p574
aS'->'
p575
aS'variable_17'
p576
ag57
ag49
ag58
ag57
ag24
ag58
ag8
aS'variable_34'
p577
aS'->'
p578
aS'variable_17'
p579
ag57
ag49
ag58
ag57
ag24
ag58
ag14
ag18
aS'variable_53'
p580
aS'->'
p581
aS'variable_17'
p582
ag57
ag24
ag58
ag57
ag49
ag58
ag23
aS'variable_53'
p583
aS'->'
p584
aS'variable_17'
p585
ag57
ag24
ag58
ag57
ag24
ag58
ag143
ag5
ag49
aS'<<'
p586
aS'variable_4'
p587
ag14
ag18
aS'variable_53'
p588
aS'->'
p589
aS'variable_17'
p590
ag57
ag24
ag58
ag57
ag49
ag58
ag23
aS'func_22'
p591
ag5
aS'variable_53'
p592
aS'->'
p593
aS'variable_17'
p594
ag57
ag24
ag58
ag57
ag49
ag58
ag8
aS'variable_34'
p595
aS'->'
p596
aS'variable_17'
p597
ag57
ag24
ag58
ag57
ag49
ag58
ag14
ag18
aS'variable_53'
p598
aS'->'
p599
aS'variable_17'
p600
ag57
ag49
ag58
ag57
ag49
ag58
ag23
aS'variable_53'
p601
aS'->'
p602
aS'variable_17'
p603
ag57
ag49
ag58
ag57
ag24
ag58
ag143
ag5
ag49
aS'<<'
p604
aS'variable_5'
p605
ag14
ag18
aS'variable_53'
p606
aS'->'
p607
aS'variable_17'
p608
ag57
ag49
ag58
ag57
ag49
ag58
ag23
aS'func_23'
p609
ag5
aS'variable_53'
p610
aS'->'
p611
aS'variable_17'
p612
ag57
ag49
ag58
ag57
ag49
ag58
ag8
aS'variable_34'
p613
aS'->'
p614
aS'variable_17'
p615
ag57
ag49
ag58
ag57
ag49
ag58
ag14
ag18
aS'variable_53'
p616
aS'->'
p617
aS'variable_56'
p618
ag23
aS'func_24'
p619
ag5
aS'variable_53'
p620
aS'->'
p621
aS'variable_17'
p622
ag57
ag24
ag58
ag57
ag49
ag58
ag48
aS'variable_53'
p623
aS'->'
p624
aS'variable_17'
p625
ag57
ag24
ag58
ag57
ag24
ag58
ag8
aS'variable_34'
p626
aS'->'
p627
aS'variable_50'
p628
ag14
ag18
aS'variable_53'
p629
aS'->'
p630
aS'variable_57'
p631
ag23
aS'func_25'
p632
ag5
aS'variable_53'
p633
aS'->'
p634
aS'variable_17'
p635
ag57
ag49
ag58
ag57
ag49
ag58
ag48
aS'variable_53'
p636
aS'->'
p637
aS'variable_17'
p638
ag57
ag49
ag58
ag57
ag24
ag58
ag8
aS'variable_34'
p639
aS'->'
p640
aS'variable_51'
p641
ag14
ag18
aS'variable_53'
p642
aS'->'
p643
aS'variable_58'
p644
ag23
aS'func_26'
p645
ag5
aS'variable_53'
p646
aS'->'
p647
aS'variable_56'
p648
ag8
aS'variable_53'
p649
aS'->'
p650
aS'variable_57'
p651
ag14
ag18
aS'if'
p652
ag5
ag88
aS'variable_53'
p653
aS'->'
p654
aS'variable_58'
p655
ag14
aS'variable_53'
p656
aS'->'
p657
aS'variable_59'
p658
ag23
aS'func_27'
p659
ag5
aS'variable_53'
p660
aS'->'
p661
aS'variable_56'
p662
ag8
aS'variable_53'
p663
aS'->'
p664
aS'variable_57'
p665
ag14
ag18
aS'if'
p666
ag5
ag88
aS'variable_53'
p667
aS'->'
p668
aS'variable_59'
p669
ag14
aS'variable_53'
p670
aS'->'
p671
aS'variable_60'
p672
ag23
aS'func_28'
p673
ag5
aS'variable_53'
p674
aS'->'
p675
aS'variable_56'
p676
ag12
ag5
aS'variable_54'
p677
ag14
aS'variable_53'
p678
aS'->'
p679
aS'variable_57'
p680
ag8
aS'sizeof'
p681
ag5
ag12
aS'variable_53'
p682
aS'->'
p683
aS'variable_60'
p684
ag14
ag14
ag18
aS'if'
p685
ag5
ag88
aS'variable_53'
p686
aS'->'
p687
aS'variable_60'
p688
ag14
aS'for'
p689
ag5
aS'variable_36'
p690
ag23
ag24
ag18
aS'variable_36'
p691
ag34
aS'variable_53'
p692
aS'->'
p693
aS'variable_56'
p694
ag12
aS'variable_53'
p695
aS'->'
p696
aS'variable_57'
p697
ag18
aS'variable_36'
p698
aS'++'
p699
ag14
aS'variable_61'
p700
ag12
aS'variable_60'
p701
ag23
aS'variable_53'
p702
aS'->'
p703
aS'variable_60'
p704
ag143
aS'variable_36'
p705
ag18
aS'variable_60'
p706
aS'->'
p707
aS'variable_17'
p708
ag57
ag24
ag58
ag57
ag24
ag58
ag23
aS'func_29'
p709
ag5
aS'variable_62'
p710
ag8
aS'variable_53'
p711
aS'->'
p712
aS'variable_17'
p713
ag57
ag24
ag58
ag57
ag24
ag58
ag14
ag18
aS'variable_60'
p714
aS'->'
p715
aS'variable_17'
p716
ag57
ag49
ag58
ag57
ag24
ag58
ag23
aS'func_30'
p717
ag5
aS'variable_63'
p718
ag8
aS'variable_53'
p719
aS'->'
p720
aS'variable_17'
p721
ag57
ag49
ag58
ag57
ag24
ag58
ag14
ag18
aS'variable_60'
p722
aS'->'
p723
aS'variable_17'
p724
ag57
ag24
ag58
ag57
ag49
ag58
ag23
aS'func_31'
p725
ag5
aS'variable_62'
p726
ag143
ag5
ag49
aS'<<'
p727
aS'variable_34'
p728
aS'->'
p729
aS'variable_50'
p730
ag14
ag8
aS'variable_53'
p731
aS'->'
p732
aS'variable_17'
p733
ag57
ag24
ag58
ag57
ag49
ag58
ag14
ag18
aS'variable_60'
p734
aS'->'
p735
aS'variable_17'
p736
ag57
ag49
ag58
ag57
ag49
ag58
ag23
aS'func_32'
p737
ag5
aS'variable_63'
p738
ag143
ag5
ag49
aS'<<'
p739
aS'variable_34'
p740
aS'->'
p741
aS'variable_51'
p742
ag14
ag8
aS'variable_53'
p743
aS'->'
p744
aS'variable_17'
p745
ag57
ag49
ag58
ag57
ag49
ag58
ag14
ag18
aS'variable_60'
p746
aS'->'
p747
aS'variable_17'
p748
ag57
ag24
ag58
ag57
ag24
ag58
aS'+='
p749
aS'variable_15'
p750
aS'->'
p751
aS'variable_22'
p752
ag57
aS'variable_6'
p753
ag48
ag49
ag58
ag322
aS'variable_17'
p754
ag57
ag24
ag58
ag57
ag49
ag58
ag48
aS'variable_15'
p755
aS'->'
p756
aS'variable_22'
p757
ag57
aS'variable_6'
p758
ag48
ag49
ag58
ag322
aS'variable_17'
p759
ag57
ag24
ag58
ag57
ag24
ag58
ag18
aS'variable_60'
p760
aS'->'
p761
aS'variable_17'
p762
ag57
ag24
ag58
ag57
ag49
ag58
aS'+='
p763
aS'variable_15'
p764
aS'->'
p765
aS'variable_22'
p766
ag57
aS'variable_6'
p767
ag48
ag49
ag58
ag322
aS'variable_17'
p768
ag57
ag24
ag58
ag57
ag49
ag58
ag48
aS'variable_15'
p769
aS'->'
p770
aS'variable_22'
p771
ag57
aS'variable_6'
p772
ag48
ag49
ag58
ag322
aS'variable_17'
p773
ag57
ag24
ag58
ag57
ag24
ag58
ag18
aS'variable_60'
p774
aS'->'
p775
aS'variable_17'
p776
ag57
ag49
ag58
ag57
ag24
ag58
aS'+='
p777
aS'variable_15'
p778
aS'->'
p779
aS'variable_22'
p780
ag57
aS'variable_6'
p781
ag48
ag49
ag58
ag322
aS'variable_17'
p782
ag57
ag49
ag58
ag57
ag49
ag58
ag48
aS'variable_15'
p783
aS'->'
p784
aS'variable_22'
p785
ag57
aS'variable_6'
p786
ag48
ag49
ag58
ag322
aS'variable_17'
p787
ag57
ag49
ag58
ag57
ag24
ag58
ag18
aS'variable_60'
p788
aS'->'
p789
aS'variable_17'
p790
ag57
ag49
ag58
ag57
ag49
ag58
aS'+='
p791
aS'variable_15'
p792
aS'->'
p793
aS'variable_22'
p794
ag57
aS'variable_6'
p795
ag48
ag49
ag58
ag322
aS'variable_17'
p796
ag57
ag49
ag58
ag57
ag49
ag58
ag48
aS'variable_15'
p797
aS'->'
p798
aS'variable_22'
p799
ag57
aS'variable_6'
p800
ag48
ag49
ag58
ag322
aS'variable_17'
p801
ag57
ag49
ag58
ag57
ag24
ag58
ag18
aS'variable_60'
p802
aS'->'
p803
aS'variable_64'
p804
ag23
ag24
ag18
aS'variable_60'
p805
aS'->'
p806
aS'variable_65'
p807
ag23
ag191
ag18
aS'variable_60'
p808
aS'->'
p809
aS'variable_66'
p810
ag23
ag24
ag18
aS'variable_60'
p811
aS'->'
p812
aS'variable_67'
p813
ag23
ag24
ag18
aS'variable_60'
p814
aS'->'
p815
aS'variable_68'
p816
ag23
ag24
ag18
aaa(lp817
I0
aa(lp818
I1452
aa(lp819
(lp820
S'main'
p821
aaa(lp822
S'858 /home/SySeVR/data/CVE_2013_7017_PATCHED_ff_jpeg2000_init_component.c Jpeg2000Cblk * cblk = prec -> cblk + cblkno ; 241'
p823
aa.