(lp0
(lp1
(lp2
S'static'
p3
aS'ssize_t'
p4
aS'func_0'
p5
aS'('
p6
aS'struct'
p7
aS'variable_0'
p8
aS'*'
p9
aS'variable_0'
p10
aS','
p11
aS'void'
p12
ag9
aS'variable_1'
p13
ag11
aS'size_t'
p14
aS'variable_2'
p15
aS')'
p16
aS'struct'
p17
aS'variable_3'
p18
ag9
aS'variable_4'
p19
aS'['
p20
aS'variable_5'
p21
aS']'
p22
aS'='
p23
aS'struct'
p24
aS'.'
p25
aS'variable_7'
p26
ag23
aS'func_1'
p27
ag6
aS'variable_0'
p28
ag16
ag25
aS'variable_8'
p29
ag23
ag25
aS'variable_9'
p30
ag23
aS'variable_2'
p31
ag11
aS'struct'
p32
ag25
aS'variable_9'
p33
ag23
aS'variable_2'
p34
ag11
aS'unsigned'
p35
aS'int'
p36
aS'variable_11'
p37
ag23
aS'func_2'
p38
ag6
aS'variable_2'
p39
ag11
aS'variable_12'
p40
ag16
aS';'
p41
aS'if'
p42
ag6
aS'variable_11'
p43
aS'=='
p44
aS'0'
p45
ag16
aS'variable_11'
p46
ag23
aS'1'
p47
ag41
aS'if'
p48
ag6
aS'variable_11'
p49
aS'>'
p50
aS'func_3'
p51
ag6
aS'variable_4'
p52
ag16
ag16
aS'for'
p53
ag6
aS'variable_13'
p54
ag23
ag45
ag41
aS'variable_13'
p55
aS'<'
p56
aS'variable_11'
p57
ag41
aS'variable_13'
p58
aS'++'
p59
ag16
aS'variable_4'
p60
ag20
aS'variable_13'
p61
ag22
ag23
aS'func_4'
p62
ag6
aS'variable_14'
p63
ag16
ag41
aS'if'
p64
ag6
aS'!'
p65
aS'variable_4'
p66
ag20
aS'variable_13'
p67
ag22
ag16
aS'variable_15'
p68
ag25
aS'variable_16'
p69
ag23
aS'func_5'
p70
ag6
aS'variable_14'
p71
ag16
ag41
aS'if'
p72
ag6
ag65
aS'variable_15'
p73
ag25
aS'variable_16'
p74
ag16
aS'variable_17'
p75
ag25
aS'variable_9'
p76
ag23
aS'variable_11'
p77
ag9
aS'variable_12'
p78
ag41
aS'variable_17'
p79
ag25
aS'variable_18'
p80
ag23
ag45
ag41
aS'func_6'
p81
ag6
aS'"'
p82
aS'%'
p83
aS's'
p84
aS'buf'
p85
ag83
aS'p'
p86
aS'buflen'
p87
ag83
aS'zu'
p88
aS'npages'
p89
ag83
aS'd'
p90
aS'args'
p91
ag25
aS'acl_len'
p92
ag83
aS'zu'
p93
aS'\\'
p94
aS'n'
p95
ag82
ag11
aS'variable_19'
p96
ag11
aS'variable_1'
p97
ag11
aS'variable_2'
p98
ag11
aS'variable_11'
p99
ag11
aS'variable_17'
p100
ag25
aS'variable_9'
p101
ag16
ag41
aS'variable_20'
p102
ag23
aS'func_7'
p103
ag6
aS'func_8'
p104
ag6
aS'variable_0'
p105
ag16
aS'->'
p106
aS'variable_21'
p107
ag11
aS'func_9'
p108
ag6
aS'variable_0'
p109
ag16
ag11
aS'&'
p110
aS'variable_22'
p111
ag11
ag110
aS'variable_17'
p112
ag25
aS'variable_23'
p113
ag11
ag110
aS'variable_15'
p114
ag25
aS'variable_24'
p115
ag11
ag45
ag16
ag41
aS'if'
p116
ag6
aS'variable_20'
p117
ag16
aS'return'
p118
aS'variable_20'
p119
ag41
aaa(lp120
I0
aa(lp121
I131
aa(lp122
(lp123
S'main'
p124
aaa(lp125
S'530 /home/SySeVR/data/CVE_2013_4591_PATCHED___nfs4_get_acl_uncached.c args . acl_len = npages * PAGE_SIZE 38'
p126
aa.