(lp0
(lp1
(lp2
S'long'
p3
aS'func_0'
p4
aS'('
p5
aS'struct'
p6
aS'variable_0'
p7
aS'*'
p8
aS'variable_0'
p9
aS','
p10
aS'unsigned'
p11
aS'int'
p12
aS'variable_1'
p13
ag10
aS'unsigned'
p14
aS'long'
p15
aS'variable_2'
p16
aS')'
p17
aS'struct'
p18
aS'variable_3'
p19
ag8
aS'variable_4'
p20
aS';'
p21
aS'long'
p22
aS'variable_5'
p23
ag21
aS'variable_4'
p24
aS'='
p25
aS'variable_0'
p26
aS'->'
p27
aS'variable_6'
p28
aS'.'
p29
aS'variable_7'
p30
aS'->'
p31
aS'variable_8'
p32
aS'->'
p33
aS'variable_9'
p34
ag21
aS'if'
p35
ag5
aS'!'
p36
aS'variable_4'
p37
ag17
aS'switch'
p38
ag5
aS'variable_1'
p39
ag17
aS'variable_5'
p40
ag25
aS'variable_4'
p41
aS'->'
p42
aS'variable_10'
p43
ag8
aS'variable_11'
p44
ag21
aS'return'
p45
aS'variable_5'
p46
ag21
aaa(lp47
I0
aa(lp48
I51
aa(lp49
(lp50
S'main'
p51
aaa(lp52
S'171 /home/SySeVR/data/CVE_2010_4256_VULN_pipe_fcntl.c ret = pipe -> buffers * PAGE_SIZE 31'
p53
aa.