(lp0
(lp1
(lp2
S'func_0'
p3
aS'('
p4
aS'const'
p5
aS'FT_Span'
p6
aS'*'
p7
aS'PWorker'
p8
aS'variable_0'
p9
aS')'
p10
aS'unsigned'
p11
aS'char'
p12
ag7
aS'variable_1'
p13
aS';'
p14
aS'variable_2'
p15
ag7
aS'variable_3'
p16
aS'='
p17
aS'&'
p18
aS'variable_0'
p19
aS'->'
p20
aS'variable_4'
p21
ag14
aS'variable_1'
p22
ag17
ag4
aS'unsigned'
p23
aS'char'
p24
ag7
ag10
aS'variable_3'
p25
aS'->'
p26
aS'variable_5'
p27
aS'-'
p28
aS'variable_6'
p29
ag7
aS'variable_3'
p30
aS'->'
p31
aS'variable_7'
p32
ag14
aS'if'
p33
ag4
aS'variable_3'
p34
aS'->'
p35
aS'variable_7'
p36
aS'>'
p37
ag17
aS'0'
p38
ag10
aS'variable_1'
p39
aS'+='
p40
ag4
aS'variable_3'
p41
aS'->'
p42
aS'variable_8'
p43
ag28
aS'1'
p44
ag10
ag7
aS'variable_3'
p45
aS'->'
p46
aS'variable_7'
p47
ag14
aS'for'
p48
ag4
ag14
aS'variable_9'
p49
ag37
ag38
ag14
aS'variable_9'
p50
aS'--'
p51
aS','
p52
aS'variable_10'
p53
aS'++'
p54
ag10
aS'unsigned'
p55
aS'char'
p56
aS'variable_11'
p57
ag17
aS'variable_10'
p58
aS'->'
p59
aS'variable_11'
p60
ag14
aS'if'
p61
ag4
aS'variable_11'
p62
ag10
aS'if'
p63
ag4
aS'variable_10'
p64
aS'->'
p65
aS'variable_12'
p66
ag37
ag17
aS'8'
p67
ag10
aS'unsigned'
p68
aS'char'
p69
ag7
aS'variable_13'
p70
ag17
aS'variable_1'
p71
aS'+'
p72
aS'variable_10'
p73
aS'->'
p74
aS'variable_14'
p75
ag14
ag7
aS'variable_13'
p76
aS'++'
p77
ag17
ag4
aS'unsigned'
p78
aS'char'
p79
ag10
aS'variable_11'
p80
ag14
ag7
aS'variable_13'
p81
aS'++'
p82
ag17
ag4
aS'unsigned'
p83
aS'char'
p84
ag10
aS'variable_11'
p85
ag14
ag7
aS'variable_13'
p86
aS'++'
p87
ag17
ag4
aS'unsigned'
p88
aS'char'
p89
ag10
aS'variable_11'
p90
ag14
ag7
aS'variable_13'
p91
aS'++'
p92
ag17
ag4
aS'unsigned'
p93
aS'char'
p94
ag10
aS'variable_11'
p95
ag14
ag7
aS'variable_13'
p96
aS'++'
p97
ag17
ag4
aS'unsigned'
p98
aS'char'
p99
ag10
aS'variable_11'
p100
ag14
ag7
aS'variable_13'
p101
aS'++'
p102
ag17
ag4
aS'unsigned'
p103
aS'char'
p104
ag10
aS'variable_11'
p105
ag14
ag7
aS'variable_13'
p106
ag17
ag4
aS'unsigned'
p107
aS'char'
p108
ag10
aS'variable_11'
p109
ag14
aaa(lp110
I0
aa(lp111
I104
aa(lp112
(lp113
S'main'
p114
aaa(lp115
S'755 /home/SySeVR/data/CVE_2010_2500_VULN_gray_render_span.c unsigned char * q = p + spans -> x ; 31'
p116
aa.