(lp0
(lp1
(lp2
S'func_0'
p3
aS'('
p4
aS'variable_0'
p5
aS'*'
p6
aS'variable_1'
p7
aS','
p8
aS'variable_2'
p9
ag6
aS'variable_3'
p10
ag8
aS'const'
p11
aS'packet_info'
p12
ag6
aS'variable_4'
p13
ag8
aS'const'
p14
aS'guint32'
p15
aS'variable_5'
p16
ag8
aS'const'
p17
aS'gboolean'
p18
aS'variable_6'
p19
aS')'
p20
aS'variable_7'
p21
ag6
aS'variable_8'
p22
aS';'
p23
aS'variable_7'
p24
ag6
aS'variable_9'
p25
ag23
aS'guint32'
p26
aS'variable_10'
p27
ag8
aS'variable_11'
p28
ag8
aS'variable_12'
p29
ag23
aS'variable_13'
p30
ag6
aS'variable_14'
p31
ag23
aS'variable_8'
p32
aS'='
p33
aS'func_1'
p34
ag4
aS'variable_7'
p35
ag20
ag23
aS'variable_8'
p36
aS'->'
p37
aS'variable_15'
p38
ag33
aS'NULL'
p39
ag23
aS'variable_8'
p40
aS'->'
p41
aS'variable_16'
p42
ag33
aS'0'
p43
ag23
aS'variable_8'
p44
aS'->'
p45
aS'variable_17'
p46
ag33
aS'variable_4'
p47
aS'->'
p48
aS'variable_8'
p49
aS'->'
p50
aS'variable_18'
p51
ag23
aS'variable_8'
p52
aS'->'
p53
aS'variable_19'
p54
ag33
aS'variable_20'
p55
ag23
aS'variable_8'
p56
aS'->'
p57
aS'variable_21'
p58
ag33
ag43
ag23
aS'variable_8'
p59
aS'->'
p60
aS'variable_22'
p61
ag33
aS'variable_5'
p62
ag23
aS'variable_8'
p63
aS'->'
p64
aS'variable_23'
p65
ag33
aS'NULL'
p66
ag23
aS'variable_8'
p67
aS'->'
p68
aS'variable_24'
p69
ag33
aS'NULL'
p70
ag23
aS'if'
p71
ag4
aS'variable_1'
p72
aS'->'
p73
aS'variable_16'
p74
aS'&'
p75
aS'variable_25'
p76
ag20
aS'if'
p77
ag4
aS'variable_20'
p78
aS'+'
p79
aS'variable_5'
p80
aS'>'
p81
ag33
aS'variable_1'
p82
aS'->'
p83
aS'variable_26'
p84
ag20
aS'if'
p85
ag4
aS'variable_1'
p86
aS'->'
p87
aS'variable_16'
p88
ag75
aS'variable_27'
p89
ag20
aS'for'
p90
ag4
aS'variable_9'
p91
ag33
aS'variable_1'
p92
aS'->'
p93
aS'variable_15'
p94
ag23
aS'variable_9'
p95
ag23
aS'variable_9'
p96
ag33
aS'variable_9'
p97
aS'->'
p98
aS'variable_15'
p99
ag20
aS'if'
p100
ag4
aS'!'
p101
aS'variable_9'
p102
aS'->'
p103
aS'variable_23'
p104
ag20
aS'variable_9'
p105
aS'->'
p106
aS'variable_23'
p107
ag33
aS'func_2'
p108
ag4
aS'variable_1'
p109
aS'->'
p110
aS'variable_23'
p111
ag8
aS'variable_9'
p112
aS'->'
p113
aS'variable_19'
p114
ag20
ag23
aS'variable_9'
p115
aS'->'
p116
aS'variable_16'
p117
aS'|'
p118
ag33
aS'variable_28'
p119
ag23
aS'variable_9'
p120
aS'->'
p121
aS'variable_16'
p122
ag75
ag33
ag4
aS'~'
p123
aS'variable_29'
p124
ag20
ag75
ag4
ag123
aS'variable_30'
p125
ag20
ag23
aS'variable_1'
p126
aS'->'
p127
aS'variable_16'
p128
ag75
ag33
ag123
ag4
aS'variable_25'
p129
ag118
aS'variable_27'
p130
ag118
aS'variable_31'
p131
ag20
ag23
aS'variable_1'
p132
aS'->'
p133
aS'variable_16'
p134
ag75
ag33
ag4
ag123
aS'variable_29'
p135
ag20
ag75
ag4
ag123
aS'variable_30'
p136
ag20
ag23
aS'variable_1'
p137
aS'->'
p138
aS'variable_26'
p139
ag33
ag43
ag23
aS'variable_1'
p140
aS'->'
p141
aS'variable_32'
p142
ag33
ag43
ag23
aS'if'
p143
ag4
aS'variable_8'
p144
aS'->'
p145
aS'variable_17'
p146
ag81
aS'variable_1'
p147
aS'->'
p148
aS'variable_17'
p149
ag20
aS'variable_1'
p150
aS'->'
p151
aS'variable_17'
p152
ag33
aS'variable_8'
p153
aS'->'
p154
aS'variable_17'
p155
ag23
aS'if'
p156
ag4
ag101
aS'variable_6'
p157
ag20
aS'if'
p158
ag4
aS'variable_1'
p159
aS'->'
p160
aS'variable_16'
p161
ag75
aS'variable_31'
p162
ag20
aS'if'
p163
ag4
aS'variable_1'
p164
aS'->'
p165
aS'variable_26'
p166
aS'!='
p167
ag4
aS'variable_8'
p168
aS'->'
p169
aS'variable_19'
p170
ag79
aS'variable_8'
p171
aS'->'
p172
aS'variable_22'
p173
ag20
ag20
aS'variable_1'
p174
aS'->'
p175
aS'variable_16'
p176
ag118
ag33
aS'variable_30'
p177
ag23
aS'variable_1'
p178
aS'->'
p179
aS'variable_26'
p180
ag33
aS'variable_8'
p181
aS'->'
p182
aS'variable_19'
p183
ag79
aS'variable_8'
p184
aS'->'
p185
aS'variable_22'
p186
ag23
aS'variable_1'
p187
aS'->'
p188
aS'variable_16'
p189
ag118
ag33
aS'variable_31'
p190
ag23
aS'if'
p191
ag4
aS'variable_1'
p192
aS'->'
p193
aS'variable_16'
p194
ag75
aS'variable_25'
p195
ag20
aS'if'
p196
ag4
ag101
ag4
aS'variable_1'
p197
aS'->'
p198
aS'variable_16'
p199
ag75
aS'variable_31'
p200
ag20
ag20
aS'variable_10'
p201
ag33
ag43
ag23
aS'for'
p202
ag4
aS'variable_9'
p203
ag33
aS'variable_1'
p204
aS'->'
p205
aS'variable_15'
p206
ag23
aS'variable_9'
p207
ag23
aS'variable_9'
p208
ag33
aS'variable_9'
p209
aS'->'
p210
aS'variable_15'
p211
ag20
aS'if'
p212
ag4
ag4
ag4
aS'variable_9'
p213
aS'->'
p214
aS'variable_19'
p215
ag20
aS'<'
p216
ag33
aS'variable_10'
p217
ag20
aS'&&'
p218
ag4
ag4
aS'variable_9'
p219
aS'->'
p220
aS'variable_19'
p221
ag79
aS'variable_9'
p222
aS'->'
p223
aS'variable_22'
p224
ag20
ag81
aS'variable_10'
p225
ag20
ag20
aS'variable_10'
p226
ag33
aS'variable_9'
p227
aS'->'
p228
aS'variable_19'
p229
ag79
aS'variable_9'
p230
aS'->'
p231
aS'variable_22'
p232
ag23
aS'if'
p233
ag4
aS'variable_10'
p234
ag216
ag4
aS'variable_1'
p235
aS'->'
p236
aS'variable_26'
p237
ag20
ag20
aS'variable_14'
p238
ag33
ag4
aS'guint8'
p239
ag6
ag20
aS'func_3'
p240
ag4
aS'variable_1'
p241
aS'->'
p242
aS'variable_26'
p243
ag20
ag23
aS'variable_1'
p244
aS'->'
p245
aS'variable_23'
p246
ag33
aS'func_4'
p247
ag4
aS'variable_14'
p248
ag8
aS'variable_1'
p249
aS'->'
p250
aS'variable_26'
p251
ag8
aS'variable_1'
p252
aS'->'
p253
aS'variable_26'
p254
ag20
ag23
aS'for'
p255
ag4
aS'variable_11'
p256
ag33
ag43
ag8
aS'variable_9'
p257
ag33
aS'variable_1'
p258
ag23
aS'variable_9'
p259
ag23
aS'variable_9'
p260
ag33
aS'variable_9'
p261
aS'->'
p262
aS'variable_15'
p263
ag20
aS'if'
p264
ag4
aS'variable_9'
p265
aS'->'
p266
aS'variable_22'
p267
ag20
aS'if'
p268
ag4
aS'variable_9'
p269
aS'->'
p270
aS'variable_19'
p271
ag79
aS'variable_9'
p272
aS'->'
p273
aS'variable_22'
p274
ag81
aS'variable_11'
p275
ag20
aS'if'
p276
ag4
aS'variable_9'
p277
aS'->'
p278
aS'variable_19'
p279
ag81
ag33
aS'variable_1'
p280
aS'->'
p281
aS'variable_26'
p282
ag20
aS'variable_9'
p283
aS'->'
p284
aS'variable_16'
p285
ag118
ag33
aS'variable_29'
p286
ag23
aS'variable_1'
p287
aS'->'
p288
aS'variable_16'
p289
ag118
ag33
aS'variable_29'
p290
ag23
aS'if'
p291
ag4
aS'variable_11'
p292
ag216
aS'variable_9'
p293
aS'->'
p294
aS'variable_19'
p295
ag20
aS'variable_1'
p296
aS'->'
p297
aS'variable_24'
p298
ag33
aS'"'
p299
aS'dfpos'
p300
ag216
aS'offset'
p301
ag299
ag23
aS'if'
p302
ag4
aS'variable_11'
p303
aS'-'
p304
aS'variable_9'
p305
aS'->'
p306
aS'variable_19'
p307
ag81
aS'variable_9'
p308
aS'->'
p309
aS'variable_22'
p310
ag20
aS'variable_1'
p311
aS'->'
p312
aS'variable_24'
p313
ag33
ag299
aS'dfpos'
p314
ag304
aS'offset'
p315
ag81
aS'len'
p316
ag299
ag23
aS'if'
p317
ag4
ag101
aS'variable_1'
p318
aS'->'
p319
aS'variable_23'
p320
ag20
aS'variable_1'
p321
aS'->'
p322
aS'variable_24'
p323
ag33
ag299
aS'no'
p324
aS'data'
p325
ag299
ag23
aS'variable_12'
p326
ag33
aS'variable_9'
p327
aS'->'
p328
aS'variable_22'
p329
ag23
aS'if'
p330
ag4
aS'variable_9'
p331
aS'->'
p332
aS'variable_19'
p333
ag79
aS'variable_12'
p334
ag81
aS'variable_1'
p335
aS'->'
p336
aS'variable_26'
p337
ag20
aS'variable_9'
p338
aS'->'
p339
aS'variable_16'
p340
ag118
ag33
aS'variable_29'
p341
ag23
aS'variable_1'
p342
aS'->'
p343
aS'variable_16'
p344
ag118
ag33
aS'variable_29'
p345
ag23
aS'variable_12'
p346
ag33
aS'variable_1'
p347
aS'->'
p348
aS'variable_26'
p349
ag304
aS'variable_9'
p350
aS'->'
p351
aS'variable_19'
p352
ag23
aS'if'
p353
ag4
aS'variable_9'
p354
aS'->'
p355
aS'variable_19'
p356
ag216
aS'variable_11'
p357
ag20
aS'guint32'
p358
aS'variable_33'
p359
ag33
aS'func_5'
p360
ag4
aS'variable_9'
p361
aS'->'
p362
aS'variable_22'
p363
ag8
ag4
aS'variable_11'
p364
ag304
aS'variable_9'
p365
aS'->'
p366
aS'variable_19'
p367
ag20
ag20
ag23
aS'variable_9'
p368
aS'->'
p369
aS'variable_16'
p370
ag118
ag33
aS'variable_34'
p371
ag23
aS'variable_1'
p372
aS'->'
p373
aS'variable_16'
p374
ag118
ag33
aS'variable_34'
p375
ag23
aS'if'
p376
ag4
aS'memcmp'
p377
ag4
aS'variable_14'
p378
ag79
aS'variable_9'
p379
aS'->'
p380
aS'variable_19'
p381
ag8
aS'func_6'
p382
ag4
aS'variable_9'
p383
aS'->'
p384
aS'variable_23'
p385
ag8
ag43
ag8
aS'variable_33'
p386
ag20
ag8
aS'variable_33'
p387
ag20
ag20
aS'variable_9'
p388
aS'->'
p389
aS'variable_16'
p390
ag118
ag33
aS'variable_35'
p391
ag23
aS'variable_1'
p392
aS'->'
p393
aS'variable_16'
p394
ag118
ag33
aS'variable_35'
p395
ag23
aS'if'
p396
ag4
aS'variable_12'
p397
ag216
aS'variable_11'
p398
ag304
aS'variable_9'
p399
aS'->'
p400
aS'variable_19'
p401
ag20
aS'variable_1'
p402
aS'->'
p403
aS'variable_24'
p404
ag33
ag299
aS'fraglen'
p405
ag216
aS'dfpos'
p406
ag304
aS'offset'
p407
ag299
ag23
aS'memcpy'
p408
ag4
aS'variable_14'
p409
ag79
aS'variable_11'
p410
ag8
aS'func_7'
p411
ag4
aS'variable_9'
p412
aS'->'
p413
aS'variable_23'
p414
ag8
ag4
aS'variable_11'
p415
ag304
aS'variable_9'
p416
aS'->'
p417
aS'variable_19'
p418
ag20
ag8
aS'variable_12'
p419
ag304
ag4
aS'variable_11'
p420
ag304
aS'variable_9'
p421
aS'->'
p422
aS'variable_19'
p423
ag20
ag20
ag8
aS'variable_12'
p424
ag304
ag4
aS'variable_11'
p425
ag304
aS'variable_9'
p426
aS'->'
p427
aS'variable_19'
p428
ag20
ag20
ag23
aS'variable_11'
p429
ag33
aS'func_8'
p430
ag4
aS'variable_11'
p431
ag8
ag4
aS'variable_9'
p432
aS'->'
p433
aS'variable_19'
p434
ag79
aS'variable_12'
p435
ag20
ag20
ag23
aS'if'
p436
ag4
aS'variable_9'
p437
aS'->'
p438
aS'variable_19'
p439
ag79
aS'variable_9'
p440
aS'->'
p441
aS'variable_22'
p442
ag216
aS'variable_9'
p443
aS'->'
p444
aS'variable_19'
p445
ag20
aS'variable_1'
p446
aS'->'
p447
aS'variable_24'
p448
ag33
ag299
aS'offset'
p449
ag79
aS'len'
p450
ag216
aS'offset'
p451
ag299
ag23
aS'if'
p452
ag4
aS'variable_9'
p453
aS'->'
p454
aS'variable_16'
p455
ag75
aS'variable_28'
p456
ag20
aS'variable_9'
p457
aS'->'
p458
aS'variable_16'
p459
ag75
ag33
ag123
aS'variable_28'
p460
ag23
aS'variable_9'
p461
aS'->'
p462
aS'variable_23'
p463
ag33
aS'NULL'
p464
ag23
aaa(lp465
I0
aa(lp466
I675
aa(lp467
(lp468
S'main'
p469
aaa(lp470
S'628 /home/SySeVR/data/CVE_2015_3813_PATCHED_fragment_add_work.c memcpy 306'
p471
aa.