(lp0
(lp1
(lp2
S'func_0'
p3
aS'('
p4
aS'struct'
p5
aS'mpt2_ioctl_command'
p6
aS'variable_0'
p7
aS','
p8
aS'void'
p9
aS'variable_1'
p10
aS'*'
p11
aS'variable_2'
p12
ag8
aS'enum'
p13
aS'block_state'
p14
aS'variable_3'
p15
aS')'
p16
aS'u32'
p17
aS'variable_4'
p18
aS';'
p19
aS'u16'
p20
aS'variable_5'
p21
ag19
aS'u16'
p22
aS'variable_6'
p23
ag19
aS'if'
p24
ag4
aS'variable_3'
p25
aS'=='
p26
aS'variable_7'
p27
aS'&&'
p28
aS'!'
p29
aS'func_1'
p30
ag4
aS'&'
p31
aS'variable_8'
p32
aS'->'
p33
aS'variable_9'
p34
aS'.'
p35
aS'variable_10'
p36
ag16
ag16
aS'if'
p37
ag4
aS'func_2'
p38
ag4
ag31
aS'variable_8'
p39
aS'->'
p40
aS'variable_9'
p41
ag35
aS'variable_10'
p42
ag16
ag16
aS'if'
p43
ag4
aS'variable_8'
p44
aS'->'
p45
aS'variable_9'
p46
ag35
aS'variable_11'
p47
aS'!='
p48
aS'variable_12'
p49
ag16
aS'variable_6'
p50
aS'='
p51
aS'0'
p52
ag19
aS'variable_4'
p53
ag51
aS'func_3'
p54
ag4
aS'variable_8'
p55
ag8
aS'1'
p56
ag16
ag19
aS'while'
p57
ag4
aS'variable_4'
p58
aS'!='
p59
aS'variable_13'
p60
ag16
aS'if'
p61
ag4
aS'variable_6'
p62
aS'++'
p63
aS'=='
p64
aS'10'
p65
ag16
aS'variable_4'
p66
ag51
aS'func_4'
p67
ag4
aS'variable_8'
p68
ag8
ag56
ag16
ag19
aS'variable_14'
p69
ag51
aS'func_5'
p70
ag4
aS'variable_8'
p71
aS'->'
p72
aS'variable_15'
p73
ag8
aS'variable_16'
p74
ag16
ag19
aS'if'
p75
ag4
ag29
aS'variable_14'
p76
ag16
aS'if'
p77
ag4
aS'variable_0'
p78
ag35
aS'variable_17'
p79
ag11
aS'4'
p80
aS'>'
p81
aS'variable_8'
p82
aS'->'
p83
aS'variable_15'
p84
aS'||'
p85
aS'variable_0'
p86
ag35
aS'variable_17'
p87
ag81
ag4
aS'variable_18'
p88
aS'/'
p89
ag80
ag16
ag16
aS'if'
p90
ag4
aS'func_6'
p91
ag4
aS'variable_14'
p92
ag8
aS'variable_2'
p93
ag8
aS'variable_0'
p94
ag35
aS'variable_17'
p95
ag11
ag80
ag16
ag16
aS'if'
p96
ag4
aS'variable_14'
p97
aS'->'
p98
aS'variable_19'
p99
aS'=='
p100
aS'variable_20'
p101
ag16
aS'variable_5'
p102
ag51
aS'func_7'
p103
ag4
aS'variable_8'
p104
ag8
aS'variable_8'
p105
aS'->'
p106
aS'variable_21'
p107
ag16
ag19
aS'if'
p108
ag4
ag29
aS'variable_5'
p109
ag16
aS'variable_5'
p110
ag51
aS'func_8'
p111
ag4
aS'variable_8'
p112
ag8
aS'variable_8'
p113
aS'->'
p114
aS'variable_21'
p115
ag8
aS'NULL'
p116
ag16
ag19
aS'if'
p117
ag4
ag29
aS'variable_5'
p118
ag16
aS'variable_8'
p119
aS'->'
p120
aS'variable_9'
p121
ag35
aS'variable_11'
p122
ag51
aS'variable_22'
p123
ag19
aS'variable_23'
p124
ag51
aS'func_9'
p125
ag4
aS'variable_8'
p126
ag8
aS'variable_5'
p127
ag16
ag19
aS'memcpy'
p128
ag4
aS'variable_23'
p129
ag8
aS'variable_14'
p130
ag8
aS'variable_0'
p131
ag35
aS'variable_17'
p132
ag11
ag80
ag16
ag19
aaa(lp133
I0
aa(lp134
I211
aa(lp135
(lp136
S'main'
p137
aaa(lp138
S'471 /home/SySeVR/data/CVE_2011_1495_PATCHED__ctl_do_mpt_command.c memcpy 104'
p139
aa.