(lp0
(lp1
(lp2
S'func_0'
p3
aS'('
p4
aS'struct'
p5
aS'mpt2_ioctl_command'
p6
aS'variable_0'
p7
aS','
p8
aS'void'
p9
aS'variable_1'
p10
aS'*'
p11
aS'variable_2'
p12
ag8
aS'enum'
p13
aS'block_state'
p14
aS'variable_3'
p15
aS')'
p16
aS'u32'
p17
aS'variable_4'
p18
aS';'
p19
aS'u16'
p20
aS'variable_5'
p21
ag19
aS'unsigned'
p22
aS'long'
p23
aS'variable_6'
p24
ag8
aS'variable_7'
p25
ag19
aS'void'
p26
ag11
aS'variable_8'
p27
aS'='
p28
aS'NULL'
p29
ag19
aS'u16'
p30
aS'variable_9'
p31
ag19
aS'if'
p32
ag4
aS'variable_3'
p33
aS'=='
p34
aS'variable_10'
p35
aS'&&'
p36
aS'!'
p37
aS'func_1'
p38
ag4
aS'&'
p39
aS'variable_11'
p40
aS'->'
p41
aS'variable_12'
p42
aS'.'
p43
aS'variable_13'
p44
ag16
ag16
aS'if'
p45
ag4
aS'func_2'
p46
ag4
ag39
aS'variable_11'
p47
aS'->'
p48
aS'variable_12'
p49
ag43
aS'variable_13'
p50
ag16
ag16
aS'if'
p51
ag4
aS'variable_11'
p52
aS'->'
p53
aS'variable_12'
p54
ag43
aS'variable_14'
p55
aS'!='
p56
aS'variable_15'
p57
ag16
aS'variable_9'
p58
ag28
aS'0'
p59
ag19
aS'variable_4'
p60
ag28
aS'func_3'
p61
ag4
aS'variable_11'
p62
ag8
aS'1'
p63
ag16
ag19
aS'while'
p64
ag4
aS'variable_4'
p65
aS'!='
p66
aS'variable_16'
p67
ag16
aS'if'
p68
ag4
aS'variable_9'
p69
aS'++'
p70
aS'=='
p71
aS'10'
p72
ag16
aS'variable_4'
p73
ag28
aS'func_4'
p74
ag4
aS'variable_11'
p75
ag8
ag63
ag16
ag19
aS'variable_17'
p76
ag28
aS'func_5'
p77
ag4
aS'variable_11'
p78
aS'->'
p79
aS'variable_18'
p80
ag8
aS'variable_19'
p81
ag16
ag19
aS'if'
p82
ag4
ag37
aS'variable_17'
p83
ag16
aS'if'
p84
ag4
aS'variable_0'
p85
ag43
aS'variable_20'
p86
ag11
aS'4'
p87
aS'>'
p88
aS'variable_11'
p89
aS'->'
p90
aS'variable_18'
p91
aS'||'
p92
aS'variable_0'
p93
ag43
aS'variable_20'
p94
ag88
ag4
aS'variable_21'
p95
aS'/'
p96
ag87
ag16
ag16
aS'if'
p97
ag4
aS'func_6'
p98
ag4
aS'variable_17'
p99
ag8
aS'variable_2'
p100
ag8
aS'variable_0'
p101
ag43
aS'variable_20'
p102
ag11
ag87
ag16
ag16
aS'if'
p103
ag4
aS'variable_17'
p104
aS'->'
p105
aS'variable_22'
p106
aS'=='
p107
aS'variable_23'
p108
ag16
aS'variable_5'
p109
ag28
aS'func_7'
p110
ag4
aS'variable_11'
p111
ag8
aS'variable_11'
p112
aS'->'
p113
aS'variable_24'
p114
ag16
ag19
aS'if'
p115
ag4
ag37
aS'variable_5'
p116
ag16
aS'variable_5'
p117
ag28
aS'func_8'
p118
ag4
aS'variable_11'
p119
ag8
aS'variable_11'
p120
aS'->'
p121
aS'variable_24'
p122
ag8
aS'NULL'
p123
ag16
ag19
aS'if'
p124
ag4
ag37
aS'variable_5'
p125
ag16
aS'variable_11'
p126
aS'->'
p127
aS'variable_12'
p128
ag43
aS'variable_14'
p129
ag28
aS'variable_25'
p130
ag19
aS'memset'
p131
ag4
aS'variable_11'
p132
aS'->'
p133
aS'variable_12'
p134
ag43
aS'variable_26'
p135
ag8
ag59
ag8
aS'variable_11'
p136
aS'->'
p137
aS'variable_27'
p138
ag16
ag19
aS'variable_28'
p139
ag28
aS'func_9'
p140
ag4
aS'variable_11'
p141
ag8
aS'variable_5'
p142
ag16
ag19
aS'variable_11'
p143
aS'->'
p144
aS'variable_12'
p145
ag43
aS'variable_5'
p146
ag28
aS'variable_5'
p147
ag19
aS'variable_29'
p148
ag28
aS'variable_0'
p149
ag43
aS'variable_30'
p150
ag19
aS'variable_31'
p151
ag28
aS'variable_0'
p152
ag43
aS'variable_32'
p153
ag19
aS'if'
p154
ag4
aS'variable_17'
p155
aS'->'
p156
aS'variable_22'
p157
aS'=='
p158
aS'variable_33'
p159
aS'||'
p160
aS'variable_17'
p161
aS'->'
p162
aS'variable_22'
p163
aS'=='
p164
aS'variable_34'
p165
ag16
aS'if'
p166
ag4
ag37
aS'func_10'
p167
ag4
aS'variable_17'
p168
aS'->'
p169
aS'variable_35'
p170
ag16
aS'||'
p171
aS'func_11'
p172
ag4
aS'variable_17'
p173
aS'->'
p174
aS'variable_35'
p175
ag16
ag88
aS'variable_11'
p176
aS'->'
p177
aS'variable_36'
p178
ag43
aS'variable_37'
p179
ag16
aS'if'
p180
ag4
aS'variable_29'
p181
ag16
aS'variable_8'
p182
ag28
aS'func_12'
p183
ag4
aS'variable_11'
p184
aS'->'
p185
aS'variable_38'
p186
ag8
aS'variable_29'
p187
ag8
ag39
aS'variable_39'
p188
ag16
ag19
aS'if'
p189
ag4
ag37
aS'variable_8'
p190
ag16
aS'if'
p191
ag4
aS'func_13'
p192
ag4
aS'variable_8'
p193
ag8
aS'variable_0'
p194
ag43
aS'variable_40'
p195
ag8
aS'variable_29'
p196
ag16
ag16
aS'if'
p197
ag4
aS'variable_31'
p198
ag16
aS'variable_41'
p199
ag28
aS'func_14'
p200
ag4
aS'variable_11'
p201
aS'->'
p202
aS'variable_38'
p203
ag8
aS'variable_31'
p204
ag8
ag39
aS'variable_42'
p205
ag16
ag19
aS'if'
p206
ag4
ag37
aS'variable_41'
p207
ag16
aS'switch'
p208
ag4
aS'variable_17'
p209
aS'->'
p210
aS'variable_22'
p211
ag16
aS'memset'
p212
ag4
aS'variable_11'
p213
aS'->'
p214
aS'variable_12'
p215
ag43
aS'variable_43'
p216
ag8
ag59
ag8
aS'variable_44'
p217
ag16
ag19
aS'variable_45'
p218
ag11
aS'variable_46'
p219
ag28
ag4
aS'Mpi2SCSITaskManagementRequest_t'
p220
ag11
ag16
aS'variable_28'
p221
ag19
aS'if'
p222
ag4
aS'variable_46'
p223
aS'->'
p224
aS'variable_47'
p225
aS'=='
p226
aS'variable_48'
p227
aS'||'
p228
aS'variable_46'
p229
aS'->'
p230
aS'variable_47'
p231
aS'=='
p232
aS'variable_49'
p233
ag16
aS'if'
p234
ag4
aS'func_15'
p235
ag4
aS'variable_11'
p236
ag8
ag39
aS'variable_0'
p237
ag8
aS'variable_46'
p238
ag16
ag16
aS'variable_50'
p239
ag11
aS'variable_51'
p240
ag28
ag4
aS'Mpi2SmpPassthroughRequest_t'
p241
ag11
ag16
aS'variable_17'
p242
ag19
aS'variable_52'
p243
ag11
aS'variable_53'
p244
ag19
aS'variable_51'
p245
aS'->'
p246
aS'variable_54'
p247
ag28
aS'0xFF'
p248
ag19
aS'if'
p249
ag4
aS'variable_51'
p250
aS'->'
p251
aS'variable_55'
p252
ag39
aS'variable_56'
p253
ag16
aS'variable_53'
p254
ag28
ag4
aS'u8'
p255
ag11
ag16
ag39
aS'variable_51'
p256
aS'->'
p257
aS'variable_57'
p258
ag19
aS'variable_53'
p259
ag28
aS'variable_8'
p260
ag19
aS'if'
p261
ag4
aS'variable_53'
p262
aS'['
p263
ag63
aS']'
p264
aS'=='
p265
aS'0x91'
p266
aS'&&'
p267
ag4
aS'variable_53'
p268
ag263
aS'10'
p269
ag264
aS'=='
p270
ag63
aS'||'
p271
aS'variable_53'
p272
ag263
aS'10'
p273
ag264
aS'=='
p274
aS'2'
p275
ag16
ag16
aS'variable_11'
p276
aS'->'
p277
aS'variable_58'
p278
ag28
ag63
ag19
aS'variable_11'
p279
aS'->'
p280
aS'variable_59'
p281
ag28
ag63
ag19
aS'variable_60'
p282
ag11
aS'variable_61'
p283
ag28
ag4
aS'Mpi2SasIoUnitControlRequest_t'
p284
ag11
ag16
aS'variable_17'
p285
ag19
aS'if'
p286
ag4
aS'variable_61'
p287
aS'->'
p288
aS'variable_62'
p289
aS'=='
p290
aS'variable_63'
p291
aS'||'
p292
aS'variable_61'
p293
aS'->'
p294
aS'variable_62'
p295
aS'=='
p296
aS'variable_64'
p297
ag16
aS'variable_11'
p298
aS'->'
p299
aS'variable_58'
p300
ag28
ag63
ag19
aS'variable_11'
p301
aS'->'
p302
aS'variable_59'
p303
ag28
ag63
ag19
aS'if'
p304
ag4
aS'variable_0'
p305
ag43
aS'variable_6'
p306
aS'<'
p307
aS'variable_65'
p308
ag16
aS'variable_6'
p309
ag28
aS'variable_65'
p310
ag19
aS'variable_6'
p311
ag28
aS'variable_0'
p312
ag43
aS'variable_6'
p313
ag19
aS'variable_7'
p314
ag28
aS'func_16'
p315
ag4
ag39
aS'variable_11'
p316
aS'->'
p317
aS'variable_12'
p318
ag43
aS'variable_66'
p319
ag8
aS'variable_6'
p320
ag11
aS'variable_67'
p321
ag16
ag19
aaa(lp322
I0
aa(lp323
I557
aa(lp324
(lp325
S'main'
p326
aaa(lp327
S'199 /home/SySeVR/data/CVE_2011_1495_PATCHED__ctl_do_mpt_command.c timeleft = wait_for_completion_timeout ( & ioc -> ctl_cmds . done , timeout * HZ ) 283'
p328
aa.