(lp0
(lp1
(lp2
S'int'
p3
aS'func_0'
p4
aS'('
p5
aS'void'
p6
aS')'
p7
aS'struct'
p8
aS'variable_0'
p9
aS'*'
p10
aS'variable_1'
p11
aS';'
p12
aS'const'
p13
aS'struct'
p14
aS'variable_2'
p15
ag10
aS'variable_2'
p16
ag12
aS'struct'
p17
aS'variable_3'
p18
ag10
aS'variable_4'
p19
aS','
p20
ag10
aS'variable_5'
p21
ag12
aS'char'
p22
aS'variable_6'
p23
aS'['
p24
aS'20'
p25
aS']'
p26
ag12
aS'uid_t'
p27
aS'variable_7'
p28
ag12
aS'variable_2'
p29
aS'='
p30
aS'func_1'
p31
ag5
ag7
ag12
aS'variable_1'
p32
ag30
aS'variable_2'
p33
aS'->'
p34
aS'variable_1'
p35
ag12
aS'variable_7'
p36
ag30
aS'func_2'
p37
ag5
aS'variable_2'
p38
aS'->'
p39
aS'variable_8'
p40
ag20
aS'variable_1'
p41
aS'->'
p42
aS'variable_7'
p43
ag7
ag12
aS'if'
p44
ag5
aS'variable_1'
p45
aS'->'
p46
aS'variable_4'
p47
aS'&&'
p48
aS'variable_1'
p49
aS'->'
p50
aS'variable_5'
p51
ag7
aS'if'
p52
ag5
aS'!'
p53
aS'variable_1'
p54
aS'->'
p55
aS'variable_4'
p56
ag7
aS'sprintf'
p57
ag5
aS'variable_6'
p58
ag20
aS'"'
p59
aS'_uid'
p60
aS'.'
p61
aS'%'
p62
aS'u'
p63
ag59
ag20
aS'variable_7'
p64
ag7
ag12
aS'variable_4'
p65
ag30
aS'func_3'
p66
ag5
aS'variable_6'
p67
ag20
aS'true'
p68
ag7
ag12
aS'if'
p69
ag5
aS'func_4'
p70
ag5
aS'variable_4'
p71
ag7
ag7
aS'variable_4'
p72
ag30
aS'func_5'
p73
ag5
aS'variable_6'
p74
ag20
aS'variable_1'
p75
aS'->'
p76
aS'variable_7'
p77
ag20
aS'variable_9'
p78
ag20
aS'variable_2'
p79
ag20
aS'variable_10'
p80
ag20
aS'NULL'
p81
ag7
ag12
aS'if'
p82
ag5
aS'func_6'
p83
ag5
aS'variable_4'
p84
ag7
ag7
aS'sprintf'
p85
ag5
aS'variable_6'
p86
ag20
ag59
aS'_uid_ses'
p87
ag61
ag62
ag63
ag59
ag20
aS'variable_7'
p88
ag7
ag12
aS'variable_5'
p89
ag30
aS'func_7'
p90
ag5
aS'variable_6'
p91
ag20
aS'true'
p92
ag7
ag12
aS'if'
p93
ag5
aS'func_8'
p94
ag5
aS'variable_5'
p95
ag7
ag7
aS'variable_5'
p96
ag30
aS'func_9'
p97
ag5
aS'variable_6'
p98
ag20
aS'variable_1'
p99
aS'->'
p100
aS'variable_7'
p101
ag20
aS'variable_9'
p102
ag20
aS'variable_2'
p103
ag20
aS'variable_10'
p104
ag20
aS'NULL'
p105
ag7
ag12
aS'if'
p106
ag5
aS'func_10'
p107
ag5
aS'variable_5'
p108
ag7
ag7
aS'variable_11'
p109
ag30
aS'func_11'
p110
ag5
aS'variable_5'
p111
ag7
ag12
aS'variable_11'
p112
ag30
aS'func_12'
p113
ag5
aS'variable_5'
p114
ag20
aS'variable_4'
p115
ag7
ag12
aS'if'
p116
ag5
aS'variable_11'
p117
aS'<'
p118
aS'0'
p119
ag7
aS'variable_1'
p120
aS'->'
p121
aS'variable_5'
p122
ag30
aS'variable_5'
p123
ag12
aS'func_13'
p124
ag5
aS'variable_5'
p125
ag7
ag12
aS'func_14'
p126
ag5
ag59
ag30
ag62
aS'd'
p127
ag59
ag20
aS'variable_11'
p128
ag7
ag12
aS'return'
p129
aS'variable_11'
p130
ag12
aa(lp131
S'int'
p132
aS'func_0'
p133
ag5
aS'void'
p134
ag7
aS'struct'
p135
aS'variable_0'
p136
ag10
aS'variable_1'
p137
ag12
aS'const'
p138
aS'struct'
p139
aS'variable_2'
p140
ag10
aS'variable_2'
p141
ag12
aS'char'
p142
aS'variable_3'
p143
ag24
aS'20'
p144
ag26
ag12
aS'uid_t'
p145
aS'variable_4'
p146
ag12
aS'variable_2'
p147
ag30
aS'func_1'
p148
ag5
ag7
ag12
aS'variable_1'
p149
ag30
aS'variable_2'
p150
aS'->'
p151
aS'variable_1'
p152
ag12
aS'variable_4'
p153
ag30
aS'func_2'
p154
ag5
aS'variable_2'
p155
aS'->'
p156
aS'variable_5'
p157
ag20
aS'variable_1'
p158
aS'->'
p159
aS'variable_4'
p160
ag7
ag12
aS'if'
p161
ag5
aS'variable_1'
p162
aS'->'
p163
aS'variable_6'
p164
aS'&&'
p165
aS'variable_1'
p166
aS'->'
p167
aS'variable_7'
p168
ag7
aS'if'
p169
ag5
ag53
aS'variable_1'
p170
aS'->'
p171
aS'variable_6'
p172
ag7
aS'sprintf'
p173
ag5
aS'variable_3'
p174
ag20
ag59
aS'_uid'
p175
ag61
ag62
ag63
ag59
ag20
aS'variable_4'
p176
ag7
ag12
aS'variable_6'
p177
ag30
aS'func_3'
p178
ag5
aS'variable_3'
p179
ag20
aS'true'
p180
ag7
ag12
aS'if'
p181
ag5
aS'func_4'
p182
ag5
aS'variable_6'
p183
ag7
ag7
aS'variable_6'
p184
ag30
aS'func_5'
p185
ag5
aS'variable_3'
p186
ag20
aS'variable_1'
p187
aS'->'
p188
aS'variable_4'
p189
ag20
aS'variable_8'
p190
ag20
aS'variable_2'
p191
ag20
aS'variable_9'
p192
ag20
aS'NULL'
p193
ag7
ag12
aS'if'
p194
ag5
aS'func_6'
p195
ag5
aS'variable_6'
p196
ag7
ag7
aS'variable_10'
p197
ag30
aS'func_7'
p198
ag5
aS'variable_6'
p199
ag7
ag12
aS'variable_10'
p200
ag30
aS'func_8'
p201
ag5
aS'variable_7'
p202
ag20
aS'variable_6'
p203
ag7
ag12
aS'if'
p204
ag5
aS'variable_10'
p205
ag118
ag119
ag7
aS'variable_1'
p206
aS'->'
p207
aS'variable_6'
p208
ag30
aS'variable_6'
p209
ag12
aS'variable_1'
p210
aS'->'
p211
aS'variable_7'
p212
ag30
aS'variable_7'
p213
ag12
aS'func_9'
p214
ag5
aS'variable_6'
p215
ag7
ag12
aS'func_10'
p216
ag5
ag59
ag30
ag62
ag127
ag59
ag20
aS'variable_10'
p217
ag7
ag12
aS'return'
p218
aS'variable_10'
p219
ag12
aaa(lp220
I0
aI0
aa(lp221
I131
aI67
aa(lp222
(lp223
S'main'
p224
aa(lp225
g224
aaa(lp226
S'315 /home/SySeVR/data/CVE_2013_1792_PATCHED_install_user_keyrings.c sprintf 44'
p227
aS'316 /home/SySeVR/data/CVE_2013_1792_PATCHED_install_user_keyrings.c sprintf 29'
p228
aa.