(lp0
(lp1
(lp2
S'static'
p3
aS'variable_0'
p4
aS'*'
p5
aS'func_0'
p6
aS'('
p7
aS'variable_1'
p8
ag5
aS'variable_2'
p9
aS','
p10
aS'variable_3'
p11
ag5
aS'variable_4'
p12
ag10
aS'variable_5'
p13
ag5
aS'variable_6'
p14
aS')'
p15
aS'http_status_t'
p16
aS'variable_7'
p17
aS';'
p18
aS'variable_8'
p19
ag5
aS'variable_9'
p20
ag10
ag5
aS'variable_10'
p21
ag18
aS'const'
p22
aS'char'
p23
ag5
aS'variable_11'
p24
ag18
aS'const'
p25
aS'char'
p26
ag5
aS'variable_12'
p27
ag18
aS'int'
p28
aS'variable_13'
p29
ag18
aS'variable_0'
p30
ag5
aS'variable_14'
p31
ag18
aS'int'
p32
aS'variable_15'
p33
ag18
aS'int'
p34
aS'variable_16'
p35
ag18
aS'static'
p36
aS'const'
p37
aS'char'
p38
ag5
aS'const'
p39
aS'variable_17'
p40
aS'['
p41
aS']'
p42
aS'='
p43
aS'if'
p44
ag7
aS'!'
p45
aS'variable_4'
p46
aS'->'
p47
aS'variable_18'
p48
aS'&&'
p49
aS'func_1'
p50
ag7
aS'variable_2'
p51
aS'->'
p52
aS'variable_19'
p53
aS'->'
p54
aS'variable_20'
p55
ag10
aS'"'
p56
aS'localhost'
p57
ag56
ag15
aS'&&'
p58
aS'func_2'
p59
ag7
aS'variable_2'
p60
aS'->'
p61
aS'variable_19'
p62
aS'->'
p63
aS'variable_20'
p64
ag10
aS'variable_21'
p65
ag15
ag15
aS'variable_10'
p66
ag43
aS'func_3'
p67
ag7
aS'variable_2'
p68
aS'->'
p69
aS'variable_22'
p70
ag10
ag56
aS'auth'
p71
aS'-'
p72
aS'info'
p73
ag56
ag10
aS'variable_23'
p74
ag15
ag18
aS'if'
p75
ag7
ag7
aS'variable_7'
p76
ag43
aS'func_4'
p77
ag7
aS'variable_4'
p78
aS'->'
p79
aS'variable_24'
p80
ag10
aS'variable_2'
p81
ag10
aS'NULL'
p82
ag15
ag15
aS'!='
p83
aS'variable_25'
p84
ag15
aS'if'
p85
ag7
aS'variable_4'
p86
aS'->'
p87
aS'variable_26'
p88
aS'=='
p89
aS'1'
p90
aS'&&'
p91
ag45
aS'strcmp'
p92
ag7
aS'variable_4'
p93
aS'->'
p94
aS'variable_27'
p95
ag41
aS'0'
p96
ag42
ag10
ag56
aS'negotiate'
p97
ag56
ag15
aS'&&'
p98
ag45
aS'variable_2'
p99
aS'->'
p100
aS'variable_28'
p101
ag41
ag96
ag42
ag15
aS'if'
p102
ag7
aS'variable_10'
p103
aS'&&'
p104
ag45
aS'variable_2'
p105
aS'->'
p106
aS'variable_19'
p107
aS'->'
p108
aS'variable_29'
p109
aS'&&'
p110
ag45
aS'func_5'
p111
ag7
aS'variable_2'
p112
aS'->'
p113
aS'variable_19'
p114
aS'->'
p115
aS'variable_30'
p116
ag15
ag15
aS'if'
p117
ag7
ag45
aS'variable_4'
p118
aS'->'
p119
aS'variable_31'
p120
ag15
aS'for'
p121
ag7
aS'variable_15'
p122
ag43
ag96
ag18
aS'variable_15'
p123
aS'<'
p124
ag7
aS'int'
p125
ag15
ag7
aS'sizeof'
p126
ag7
aS'variable_17'
p127
ag15
aS'/'
p128
aS'sizeof'
p129
ag7
aS'variable_17'
p130
ag41
ag96
ag42
ag15
ag15
ag18
aS'variable_15'
p131
aS'++'
p132
ag15
aS'if'
p133
ag7
ag7
aS'variable_9'
p134
ag43
aS'func_6'
p135
ag7
aS'variable_2'
p136
aS'->'
p137
aS'variable_22'
p138
ag10
aS'variable_17'
p139
ag41
aS'variable_15'
p140
ag42
ag10
aS'variable_32'
p141
ag15
ag15
aS'!='
p142
aS'NULL'
p143
ag15
aS'if'
p144
ag7
aS'variable_33'
p145
ag15
aS'if'
p146
ag7
aS'variable_4'
p147
aS'->'
p148
aS'variable_34'
p149
ag15
aS'for'
p150
ag7
aS'variable_11'
p151
ag43
ag7
aS'variable_11'
p152
ag43
ag7
aS'char'
p153
ag5
ag15
aS'func_7'
p154
ag7
aS'variable_4'
p155
aS'->'
p156
aS'variable_34'
p157
aS'->'
p158
aS'variable_11'
p159
ag15
ag15
aS'if'
p160
ag7
ag45
aS'func_8'
p161
ag7
aS'variable_2'
p162
aS'->'
p163
aS'variable_22'
p164
ag10
aS'variable_11'
p165
ag10
aS'variable_32'
p166
ag15
ag15
aS'if'
p167
ag7
aS'variable_6'
p168
aS'&&'
p169
aS'variable_4'
p170
aS'->'
p171
aS'variable_35'
p172
aS'&&'
p173
ag45
aS'func_9'
p174
ag7
aS'variable_4'
p175
aS'->'
p176
aS'variable_35'
p177
ag10
aS'variable_6'
p178
ag15
ag15
aS'if'
p179
ag7
ag7
aS'variable_9'
p180
ag43
aS'func_10'
p181
ag7
aS'variable_2'
p182
aS'->'
p183
aS'variable_22'
p184
ag10
ag56
aS'copies'
p185
ag56
ag10
aS'variable_36'
p186
ag15
ag15
aS'!='
p187
aS'NULL'
p188
ag15
aS'if'
p189
ag7
aS'variable_9'
p190
aS'->'
p191
aS'variable_37'
p192
ag41
ag96
ag42
aS'.'
p193
aS'variable_38'
p194
ag124
ag90
aS'||'
p195
aS'variable_9'
p196
aS'->'
p197
aS'variable_37'
p198
ag41
ag96
ag42
ag193
aS'variable_38'
p199
aS'>'
p200
aS'variable_39'
p201
ag15
aS'if'
p202
ag7
ag7
aS'variable_9'
p203
ag43
aS'func_11'
p204
ag7
aS'variable_2'
p205
aS'->'
p206
aS'variable_22'
p207
ag10
ag56
aS'job'
p208
ag72
aS'sheets'
p209
ag56
ag10
aS'variable_32'
p210
ag15
ag15
aS'!='
p211
aS'NULL'
p212
ag15
aS'if'
p213
ag7
aS'variable_9'
p214
aS'->'
p215
aS'variable_40'
p216
aS'!='
p217
aS'variable_41'
p218
aS'&&'
p219
aS'variable_9'
p220
aS'->'
p221
aS'variable_40'
p222
aS'!='
p223
aS'variable_42'
p224
ag15
aS'if'
p225
ag7
aS'variable_9'
p226
aS'->'
p227
aS'variable_43'
p228
ag200
aS'2'
p229
ag15
aS'for'
p230
ag7
aS'variable_15'
p231
ag43
ag96
ag18
aS'variable_15'
p232
ag124
aS'variable_9'
p233
aS'->'
p234
aS'variable_43'
p235
ag18
aS'variable_15'
p236
aS'++'
p237
ag15
aS'if'
p238
ag7
aS'strcmp'
p239
ag7
aS'variable_9'
p240
aS'->'
p241
aS'variable_37'
p242
ag41
aS'variable_15'
p243
ag42
ag193
aS'variable_44'
p244
ag193
aS'variable_45'
p245
ag10
ag56
aS'none'
p246
ag56
ag15
aS'&&'
p247
ag45
aS'func_12'
p248
ag7
aS'variable_9'
p249
aS'->'
p250
aS'variable_37'
p251
ag41
aS'variable_15'
p252
ag42
ag193
aS'variable_44'
p253
ag193
aS'variable_45'
p254
ag15
ag15
aS'if'
p255
ag7
ag7
aS'variable_9'
p256
ag43
aS'func_13'
p257
ag7
aS'variable_2'
p258
aS'->'
p259
aS'variable_22'
p260
ag10
ag56
aS'number'
p261
ag72
aS'up'
p262
ag56
ag10
aS'variable_36'
p263
ag15
ag15
aS'!='
p264
aS'NULL'
p265
ag15
aS'if'
p266
ag7
aS'variable_9'
p267
aS'->'
p268
aS'variable_37'
p269
ag41
ag96
ag42
ag193
aS'variable_38'
p270
aS'!='
p271
ag90
aS'&&'
p272
aS'variable_9'
p273
aS'->'
p274
aS'variable_37'
p275
ag41
ag96
ag42
ag193
aS'variable_38'
p276
aS'!='
p277
ag229
aS'&&'
p278
aS'variable_9'
p279
aS'->'
p280
aS'variable_37'
p281
ag41
ag96
ag42
ag193
aS'variable_38'
p282
aS'!='
p283
aS'4'
p284
aS'&&'
p285
aS'variable_9'
p286
aS'->'
p287
aS'variable_37'
p288
ag41
ag96
ag42
ag193
aS'variable_38'
p289
aS'!='
p290
aS'6'
p291
aS'&&'
p292
aS'variable_9'
p293
aS'->'
p294
aS'variable_37'
p295
ag41
ag96
ag42
ag193
aS'variable_38'
p296
aS'!='
p297
aS'9'
p298
aS'&&'
p299
aS'variable_9'
p300
aS'->'
p301
aS'variable_37'
p302
ag41
ag96
ag42
ag193
aS'variable_38'
p303
aS'!='
p304
aS'16'
p305
ag15
aS'if'
p306
ag7
ag7
aS'variable_9'
p307
ag43
aS'func_14'
p308
ag7
aS'variable_2'
p309
aS'->'
p310
aS'variable_22'
p311
ag10
ag56
aS'page'
p312
ag72
aS'ranges'
p313
ag56
ag10
aS'variable_46'
p314
ag15
ag15
aS'!='
p315
aS'NULL'
p316
ag15
aS'for'
p317
ag7
aS'variable_15'
p318
ag43
ag96
ag10
aS'variable_16'
p319
ag43
ag90
ag18
aS'variable_15'
p320
ag124
aS'variable_9'
p321
aS'->'
p322
aS'variable_43'
p323
ag18
aS'variable_15'
p324
aS'++'
p325
ag15
aS'if'
p326
ag7
aS'variable_9'
p327
aS'->'
p328
aS'variable_37'
p329
ag41
aS'variable_15'
p330
ag42
ag193
aS'variable_47'
p331
ag193
aS'variable_48'
p332
ag124
aS'variable_16'
p333
aS'||'
p334
aS'variable_9'
p335
aS'->'
p336
aS'variable_37'
p337
ag41
aS'variable_15'
p338
ag42
ag193
aS'variable_47'
p339
ag193
aS'variable_48'
p340
ag200
aS'variable_9'
p341
aS'->'
p342
aS'variable_37'
p343
ag41
aS'variable_15'
p344
ag42
ag193
aS'variable_47'
p345
ag193
aS'variable_49'
p346
ag15
aS'variable_16'
p347
ag43
aS'variable_9'
p348
aS'->'
p349
aS'variable_37'
p350
ag41
aS'variable_15'
p351
ag42
ag193
aS'variable_47'
p352
ag193
aS'variable_49'
p353
aS'+'
p354
ag90
ag18
aS'if'
p355
ag7
aS'variable_50'
p356
aS'&&'
p357
aS'func_15'
p358
ag7
aS'variable_51'
p359
ag15
ag200
ag43
aS'variable_50'
p360
ag15
aS'if'
p361
ag7
ag7
aS'variable_15'
p362
ag43
aS'func_16'
p363
ag7
aS'variable_2'
p364
ag10
aS'variable_4'
p365
ag15
ag15
ag124
ag96
ag15
aS'if'
p366
ag7
aS'variable_15'
p367
aS'=='
p368
ag96
ag15
aS'if'
p369
ag7
ag7
aS'variable_9'
p370
ag43
aS'func_17'
p371
ag7
aS'variable_2'
p372
aS'->'
p373
aS'variable_22'
p374
ag10
ag56
aS'job'
p375
ag72
aS'priority'
p376
ag56
ag10
aS'variable_36'
p377
ag15
ag15
aS'!='
p378
aS'NULL'
p379
ag15
aS'variable_13'
p380
ag43
aS'variable_9'
p381
aS'->'
p382
aS'variable_37'
p383
ag41
ag96
ag42
ag193
aS'variable_38'
p384
ag18
aS'if'
p385
ag7
ag7
aS'variable_12'
p386
ag43
aS'func_18'
p387
ag7
ag56
aS'job'
p388
ag72
aS'priority'
p389
ag56
ag10
aS'variable_4'
p390
aS'->'
p391
aS'variable_52'
p392
ag10
aS'variable_4'
p393
aS'->'
p394
aS'variable_53'
p395
ag15
ag15
aS'!='
p396
aS'NULL'
p397
ag15
aS'variable_13'
p398
ag43
aS'atoi'
p399
ag7
aS'variable_12'
p400
ag15
ag18
aS'variable_13'
p401
ag43
aS'50'
p402
ag18
aS'if'
p403
ag7
ag7
aS'variable_9'
p404
ag43
aS'func_19'
p405
ag7
aS'variable_2'
p406
aS'->'
p407
aS'variable_22'
p408
ag10
ag56
aS'job'
p409
ag72
aS'name'
p410
ag56
ag10
aS'variable_32'
p411
ag15
ag15
aS'=='
p412
aS'NULL'
p413
ag15
aS'if'
p414
ag7
ag7
aS'variable_9'
p415
aS'->'
p416
aS'variable_40'
p417
aS'!='
p418
aS'variable_42'
p419
aS'&&'
p420
aS'variable_9'
p421
aS'->'
p422
aS'variable_40'
p423
aS'!='
p424
aS'variable_54'
p425
ag15
aS'||'
p426
aS'variable_9'
p427
aS'->'
p428
aS'variable_43'
p429
aS'!='
p430
ag90
ag15
aS'if'
p431
ag7
ag45
aS'func_20'
p432
ag7
aS'variable_9'
p433
ag15
ag15
aS'if'
p434
ag7
ag7
aS'variable_14'
p435
ag43
aS'func_21'
p436
ag7
aS'variable_13'
p437
ag10
aS'variable_4'
p438
aS'->'
p439
aS'variable_55'
p440
ag15
ag15
aS'=='
p441
aS'NULL'
p442
ag15
aS'variable_14'
p443
aS'->'
p444
aS'variable_56'
p445
ag43
aS'variable_4'
p446
aS'->'
p447
aS'variable_57'
p448
aS'&'
p449
ag7
aS'variable_58'
p450
aS'|'
p451
aS'variable_59'
p452
ag15
ag18
aS'variable_14'
p453
aS'->'
p454
aS'variable_60'
p455
ag43
aS'variable_2'
p456
aS'->'
p457
aS'variable_22'
p458
ag18
aS'variable_14'
p459
aS'->'
p460
aS'variable_61'
p461
ag43
ag90
ag18
aS'variable_2'
p462
aS'->'
p463
aS'variable_22'
p464
ag43
aS'func_22'
p465
ag7
aS'variable_14'
p466
aS'->'
p467
aS'variable_60'
p468
aS'->'
p469
aS'variable_22'
p470
ag193
aS'variable_62'
p471
ag193
aS'variable_63'
p472
ag15
ag18
aS'variable_9'
p473
ag43
aS'func_23'
p474
ag7
aS'variable_14'
p475
aS'->'
p476
aS'variable_60'
p477
ag10
ag56
aS'requesting'
p478
ag72
aS'user'
p479
ag72
aS'name'
p480
ag56
ag10
aS'variable_42'
p481
ag15
ag18
aS'if'
p482
ag7
ag45
aS'variable_9'
p483
ag15
aS'variable_9'
p484
aS'->'
p485
aS'variable_64'
p486
ag43
aS'variable_65'
p487
ag18
aS'variable_9'
p488
aS'->'
p489
aS'variable_55'
p490
ag43
aS'func_24'
p491
ag7
ag56
aS'job'
p492
ag72
aS'originating'
p493
ag72
aS'user'
p494
ag72
aS'name'
p495
ag56
ag15
ag18
aS'if'
p496
ag7
ag7
aS'variable_9'
p497
ag43
aS'func_25'
p498
ag7
aS'variable_2'
p499
aS'->'
p500
aS'variable_22'
p501
ag10
ag56
aS'job'
p502
ag72
aS'name'
p503
ag56
ag10
aS'variable_42'
p504
ag15
ag15
aS'!='
p505
aS'NULL'
p506
ag15
aS'if'
p507
ag7
ag7
aS'variable_9'
p508
ag43
aS'func_26'
p509
ag7
aS'variable_14'
p510
aS'->'
p511
aS'variable_60'
p512
ag10
ag56
aS'job'
p513
ag72
aS'originating'
p514
ag72
aS'host'
p515
ag72
aS'name'
p516
ag56
ag10
aS'variable_32'
p517
ag15
ag15
aS'!='
p518
aS'NULL'
p519
ag15
aS'if'
p520
ag7
aS'variable_9'
p521
aS'->'
p522
aS'variable_40'
p523
aS'!='
p524
aS'variable_42'
p525
aS'||'
p526
aS'variable_9'
p527
aS'->'
p528
aS'variable_43'
p529
aS'!='
p530
ag90
aS'||'
p531
aS'strcmp'
p532
ag7
aS'variable_2'
p533
aS'->'
p534
aS'variable_19'
p535
aS'->'
p536
aS'variable_20'
p537
ag10
ag56
aS'localhost'
p538
ag56
ag15
ag15
aS'switch'
p539
ag7
aS'variable_9'
p540
aS'->'
p541
aS'variable_40'
p542
ag15
aS'for'
p543
ag7
aS'variable_15'
p544
ag43
ag96
ag18
aS'variable_15'
p545
ag124
aS'variable_9'
p546
aS'->'
p547
aS'variable_43'
p548
ag18
aS'variable_15'
p549
aS'++'
p550
ag15
aS'variable_9'
p551
aS'->'
p552
aS'variable_37'
p553
ag41
aS'variable_15'
p554
ag42
ag193
aS'variable_44'
p555
ag193
aS'variable_45'
p556
ag43
aS'NULL'
p557
ag18
aS'if'
p558
ag7
aS'variable_9'
p559
aS'->'
p560
aS'variable_37'
p561
ag41
aS'variable_15'
p562
ag42
ag193
aS'variable_44'
p563
ag193
aS'variable_66'
p564
ag15
aS'variable_9'
p565
aS'->'
p566
aS'variable_37'
p567
ag41
aS'variable_15'
p568
ag42
ag193
aS'variable_44'
p569
ag193
aS'variable_66'
p570
ag43
aS'NULL'
p571
ag18
aS'variable_9'
p572
aS'->'
p573
aS'variable_40'
p574
ag43
aS'variable_42'
p575
ag18
aS'variable_9'
p576
aS'->'
p577
aS'variable_43'
p578
ag43
ag90
ag18
aS'variable_9'
p579
aS'->'
p580
aS'variable_37'
p581
ag41
ag96
ag42
ag193
aS'variable_44'
p582
ag193
aS'variable_45'
p583
ag43
aS'func_27'
p584
ag7
aS'variable_2'
p585
aS'->'
p586
aS'variable_19'
p587
aS'->'
p588
aS'variable_20'
p589
ag15
ag18
aS'variable_9'
p590
aS'->'
p591
aS'variable_64'
p592
ag43
aS'variable_65'
p593
ag18
aS'variable_9'
p594
ag43
aS'func_28'
p595
ag7
aS'variable_14'
p596
aS'->'
p597
aS'variable_60'
p598
ag10
aS'variable_65'
p599
ag10
aS'variable_36'
p600
ag10
ag56
aS'time'
p601
ag72
aS'at'
p602
ag72
aS'processing'
p603
ag56
ag10
ag96
ag15
ag18
aS'variable_9'
p604
aS'->'
p605
aS'variable_40'
p606
ag43
aS'variable_67'
p607
ag18
aS'variable_9'
p608
ag43
aS'func_29'
p609
ag7
aS'variable_14'
p610
aS'->'
p611
aS'variable_60'
p612
ag10
aS'variable_65'
p613
ag10
aS'variable_36'
p614
ag10
ag56
aS'time'
p615
ag72
aS'at'
p616
ag72
aS'completed'
p617
ag56
ag10
ag96
ag15
ag18
aS'variable_9'
p618
aS'->'
p619
aS'variable_40'
p620
ag43
aS'variable_67'
p621
ag18
aS'variable_14'
p622
aS'->'
p623
aS'variable_68'
p624
ag43
aS'func_30'
p625
ag7
aS'variable_14'
p626
aS'->'
p627
aS'variable_60'
p628
ag10
aS'variable_65'
p629
ag10
aS'variable_69'
p630
ag10
ag56
aS'job'
p631
ag72
aS'state'
p632
ag56
ag10
aS'variable_70'
p633
ag15
ag18
aS'variable_14'
p634
aS'->'
p635
aS'variable_71'
p636
ag43
ag7
aS'variable_72'
p637
ag15
aS'variable_14'
p638
aS'->'
p639
aS'variable_68'
p640
aS'->'
p641
aS'variable_37'
p642
ag41
ag96
ag42
ag193
aS'variable_38'
p643
ag18
aS'variable_14'
p644
aS'->'
p645
aS'variable_73'
p646
ag43
aS'func_31'
p647
ag7
aS'variable_14'
p648
aS'->'
p649
aS'variable_60'
p650
ag10
aS'variable_65'
p651
ag10
aS'variable_41'
p652
ag10
ag56
aS'job'
p653
ag72
aS'state'
p654
ag72
aS'reasons'
p655
ag56
ag10
aS'NULL'
p656
ag10
ag56
aS'job'
p657
ag72
aS'incoming'
p658
ag56
ag15
ag18
aS'variable_14'
p659
aS'->'
p660
aS'variable_74'
p661
ag43
aS'func_32'
p662
ag7
aS'variable_14'
p663
aS'->'
p664
aS'variable_60'
p665
ag10
aS'variable_65'
p666
ag10
aS'variable_36'
p667
ag10
ag56
aS'job'
p668
ag72
aS'media'
p669
ag72
aS'sheets'
p670
ag72
aS'completed'
p671
ag56
ag10
ag96
ag15
ag18
aS'if'
p672
ag7
ag7
aS'variable_9'
p673
ag43
aS'func_33'
p674
ag7
aS'variable_14'
p675
aS'->'
p676
aS'variable_60'
p677
ag10
ag56
aS'job'
p678
ag72
aS'k'
p679
ag72
aS'octets'
p680
ag56
ag10
aS'variable_36'
p681
ag15
ag15
aS'!='
p682
aS'NULL'
p683
ag15
aS'variable_9'
p684
aS'->'
p685
aS'variable_37'
p686
ag41
ag96
ag42
ag193
aS'variable_38'
p687
ag43
ag96
ag18
aS'if'
p688
ag7
ag7
aS'variable_9'
p689
ag43
aS'func_34'
p690
ag7
aS'variable_14'
p691
aS'->'
p692
aS'variable_60'
p693
ag10
ag56
aS'job'
p694
ag72
aS'hold'
p695
ag72
aS'until'
p696
ag56
ag10
aS'variable_41'
p697
ag15
ag15
aS'=='
p698
aS'NULL'
p699
ag15
aS'variable_9'
p700
ag43
aS'func_35'
p701
ag7
aS'variable_14'
p702
aS'->'
p703
aS'variable_60'
p704
ag10
ag56
aS'job'
p705
ag72
aS'hold'
p706
ag72
aS'until'
p707
ag56
ag10
aS'variable_42'
p708
ag15
ag18
aS'if'
p709
ag7
ag45
aS'variable_9'
p710
ag15
aS'if'
p711
ag7
ag7
aS'variable_12'
p712
ag43
aS'func_36'
p713
ag7
ag56
aS'job'
p714
ag72
aS'hold'
p715
ag72
aS'until'
p716
ag56
ag10
aS'variable_4'
p717
aS'->'
p718
aS'variable_52'
p719
ag10
aS'variable_4'
p720
aS'->'
p721
aS'variable_53'
p722
ag15
ag15
aS'=='
p723
aS'NULL'
p724
ag15
aS'variable_12'
p725
ag43
ag56
aS'no'
p726
ag72
aS'hold'
p727
ag56
ag18
aS'variable_9'
p728
ag43
aS'func_37'
p729
ag7
aS'variable_14'
p730
aS'->'
p731
aS'variable_60'
p732
ag10
aS'variable_65'
p733
ag10
aS'variable_41'
p734
ag10
ag56
aS'job'
p735
ag72
aS'hold'
p736
ag72
aS'until'
p737
ag56
ag10
aS'NULL'
p738
ag10
aS'variable_12'
p739
ag15
ag18
aS'if'
p740
ag7
aS'variable_9'
p741
aS'&&'
p742
aS'strcmp'
p743
ag7
aS'variable_9'
p744
aS'->'
p745
aS'variable_37'
p746
ag41
ag96
ag42
ag193
aS'variable_44'
p747
ag193
aS'variable_45'
p748
ag10
ag56
aS'no'
p749
ag72
aS'hold'
p750
ag56
ag15
ag15
aS'variable_14'
p751
aS'->'
p752
aS'variable_68'
p753
aS'->'
p754
aS'variable_37'
p755
ag41
ag96
ag42
ag193
aS'variable_38'
p756
ag43
aS'variable_75'
p757
ag18
aS'variable_14'
p758
aS'->'
p759
aS'variable_71'
p760
ag43
aS'variable_75'
p761
ag18
aS'if'
p762
ag7
aS'variable_14'
p763
aS'->'
p764
aS'variable_60'
p765
aS'->'
p766
aS'variable_22'
p767
ag193
aS'variable_62'
p768
ag193
aS'variable_63'
p769
aS'=='
p770
aS'variable_76'
p771
ag15
aS'variable_14'
p772
aS'->'
p773
aS'variable_77'
p774
ag43
aS'time'
p775
ag7
aS'NULL'
p776
ag15
ag354
aS'variable_78'
p777
ag18
aS'variable_14'
p778
aS'->'
p779
aS'variable_68'
p780
aS'->'
p781
aS'variable_37'
p782
ag41
ag96
ag42
ag193
aS'variable_38'
p783
ag43
aS'variable_75'
p784
ag18
aS'variable_14'
p785
aS'->'
p786
aS'variable_71'
p787
ag43
aS'variable_75'
p788
ag18
aS'variable_14'
p789
aS'->'
p790
aS'variable_68'
p791
aS'->'
p792
aS'variable_37'
p793
ag41
ag96
ag42
ag193
aS'variable_38'
p794
ag43
aS'variable_79'
p795
ag18
aS'variable_14'
p796
aS'->'
p797
aS'variable_71'
p798
ag43
aS'variable_79'
p799
ag18
aS'if'
p800
ag7
ag45
ag7
aS'variable_4'
p801
aS'->'
p802
aS'variable_57'
p803
ag449
aS'variable_59'
p804
ag15
aS'||'
p805
aS'variable_80'
p806
ag15
aS'if'
p807
ag7
ag7
aS'variable_9'
p808
ag43
aS'func_38'
p809
ag7
aS'variable_14'
p810
aS'->'
p811
aS'variable_60'
p812
ag10
ag56
aS'job'
p813
ag72
aS'sheets'
p814
ag56
ag10
aS'variable_32'
p815
ag15
ag15
aS'=='
p816
aS'NULL'
p817
ag15
aS'variable_9'
p818
ag43
aS'func_39'
p819
ag7
aS'variable_14'
p820
aS'->'
p821
aS'variable_60'
p822
ag10
aS'variable_65'
p823
ag10
aS'variable_42'
p824
ag10
ag56
aS'job'
p825
ag72
aS'sheets'
p826
ag56
ag10
ag229
ag10
aS'NULL'
p827
ag10
aS'NULL'
p828
ag15
ag18
aS'variable_9'
p829
aS'->'
p830
aS'variable_37'
p831
ag41
ag96
ag42
ag193
aS'variable_44'
p832
ag193
aS'variable_45'
p833
ag43
aS'func_40'
p834
ag7
aS'variable_4'
p835
aS'->'
p836
aS'variable_81'
p837
ag41
ag96
ag42
ag15
ag18
aS'variable_9'
p838
aS'->'
p839
aS'variable_37'
p840
ag41
ag90
ag42
ag193
aS'variable_44'
p841
ag193
aS'variable_45'
p842
ag43
aS'func_41'
p843
ag7
aS'variable_4'
p844
aS'->'
p845
aS'variable_81'
p846
ag41
ag90
ag42
ag15
ag18
aS'if'
p847
ag7
aS'variable_80'
p848
ag15
aS'if'
p849
ag7
aS'variable_82'
p850
ag15
aS'if'
p851
ag7
aS'strcmp'
p852
ag7
aS'variable_9'
p853
aS'->'
p854
aS'variable_37'
p855
ag41
ag96
ag42
ag193
aS'variable_44'
p856
ag193
aS'variable_45'
p857
ag10
aS'variable_80'
p858
ag15
aS'&&'
p859
ag7
aS'variable_9'
p860
aS'->'
p861
aS'variable_43'
p862
aS'=='
p863
ag90
aS'||'
p864
aS'strcmp'
p865
ag7
aS'variable_9'
p866
aS'->'
p867
aS'variable_37'
p868
ag41
ag90
ag42
ag193
aS'variable_44'
p869
ag193
aS'variable_45'
p870
ag10
aS'variable_80'
p871
ag15
ag15
ag15
aS'if'
p872
ag7
aS'variable_9'
p873
aS'->'
p874
aS'variable_43'
p875
ag200
ag90
aS'&&'
p876
ag45
aS'strcmp'
p877
ag7
aS'variable_9'
p878
aS'->'
p879
aS'variable_37'
p880
ag41
ag96
ag42
ag193
aS'variable_44'
p881
ag193
aS'variable_45'
p882
ag10
aS'variable_9'
p883
aS'->'
p884
aS'variable_37'
p885
ag41
ag90
ag42
ag193
aS'variable_44'
p886
ag193
aS'variable_45'
p887
ag15
ag15
aS'if'
p888
ag7
aS'variable_9'
p889
aS'->'
p890
aS'variable_43'
p891
ag200
ag90
aS'&&'
p892
aS'strcmp'
p893
ag7
aS'variable_9'
p894
aS'->'
p895
aS'variable_37'
p896
ag41
ag90
ag42
ag193
aS'variable_44'
p897
ag193
aS'variable_45'
p898
ag10
ag56
aS'none'
p899
ag56
ag15
ag15
aa(lp900
S'static'
p901
aS'variable_0'
p902
ag5
aS'func_0'
p903
ag7
aS'variable_1'
p904
ag5
aS'variable_2'
p905
ag10
aS'variable_3'
p906
ag5
aS'variable_4'
p907
ag10
aS'variable_5'
p908
ag5
aS'variable_6'
p909
ag15
aS'http_status_t'
p910
aS'variable_7'
p911
ag18
aS'variable_8'
p912
ag5
aS'variable_9'
p913
ag10
ag5
aS'variable_10'
p914
ag18
aS'const'
p915
aS'char'
p916
ag5
aS'variable_11'
p917
ag18
aS'const'
p918
aS'char'
p919
ag5
aS'variable_12'
p920
ag18
aS'int'
p921
aS'variable_13'
p922
ag18
aS'variable_0'
p923
ag5
aS'variable_14'
p924
ag18
aS'int'
p925
aS'variable_15'
p926
ag18
aS'int'
p927
aS'variable_16'
p928
ag18
aS'static'
p929
aS'const'
p930
aS'char'
p931
ag5
aS'const'
p932
aS'variable_17'
p933
ag41
ag42
ag43
aS'if'
p934
ag7
ag45
aS'variable_4'
p935
aS'->'
p936
aS'variable_18'
p937
aS'&&'
p938
aS'func_1'
p939
ag7
aS'variable_2'
p940
aS'->'
p941
aS'variable_19'
p942
aS'->'
p943
aS'variable_20'
p944
ag10
ag56
aS'localhost'
p945
ag56
ag15
aS'&&'
p946
aS'func_2'
p947
ag7
aS'variable_2'
p948
aS'->'
p949
aS'variable_19'
p950
aS'->'
p951
aS'variable_20'
p952
ag10
aS'variable_21'
p953
ag15
ag15
aS'variable_10'
p954
ag43
aS'func_3'
p955
ag7
aS'variable_2'
p956
aS'->'
p957
aS'variable_22'
p958
ag10
ag56
aS'auth'
p959
ag72
aS'info'
p960
ag56
ag10
aS'variable_23'
p961
ag15
ag18
aS'if'
p962
ag7
ag7
aS'variable_7'
p963
ag43
aS'func_4'
p964
ag7
aS'variable_4'
p965
aS'->'
p966
aS'variable_24'
p967
ag10
aS'variable_2'
p968
ag10
aS'NULL'
p969
ag15
ag15
aS'!='
p970
aS'variable_25'
p971
ag15
aS'if'
p972
ag7
aS'variable_4'
p973
aS'->'
p974
aS'variable_26'
p975
aS'=='
p976
ag90
aS'&&'
p977
ag45
aS'strcmp'
p978
ag7
aS'variable_4'
p979
aS'->'
p980
aS'variable_27'
p981
ag41
ag96
ag42
ag10
ag56
aS'negotiate'
p982
ag56
ag15
aS'&&'
p983
ag45
aS'variable_2'
p984
aS'->'
p985
aS'variable_28'
p986
ag41
ag96
ag42
ag15
aS'if'
p987
ag7
aS'variable_10'
p988
aS'&&'
p989
ag45
aS'variable_2'
p990
aS'->'
p991
aS'variable_19'
p992
aS'->'
p993
aS'variable_29'
p994
aS'&&'
p995
ag45
aS'func_5'
p996
ag7
aS'variable_2'
p997
aS'->'
p998
aS'variable_19'
p999
aS'->'
p1000
aS'variable_30'
p1001
ag15
ag15
aS'if'
p1002
ag7
ag45
aS'variable_4'
p1003
aS'->'
p1004
aS'variable_31'
p1005
ag15
aS'for'
p1006
ag7
aS'variable_15'
p1007
ag43
ag96
ag18
aS'variable_15'
p1008
ag124
ag7
aS'int'
p1009
ag15
ag7
aS'sizeof'
p1010
ag7
aS'variable_17'
p1011
ag15
ag128
aS'sizeof'
p1012
ag7
aS'variable_17'
p1013
ag41
ag96
ag42
ag15
ag15
ag18
aS'variable_15'
p1014
aS'++'
p1015
ag15
aS'if'
p1016
ag7
ag7
aS'variable_9'
p1017
ag43
aS'func_6'
p1018
ag7
aS'variable_2'
p1019
aS'->'
p1020
aS'variable_22'
p1021
ag10
aS'variable_17'
p1022
ag41
aS'variable_15'
p1023
ag42
ag10
aS'variable_32'
p1024
ag15
ag15
aS'!='
p1025
aS'NULL'
p1026
ag15
aS'if'
p1027
ag7
aS'variable_33'
p1028
ag15
aS'if'
p1029
ag7
aS'variable_4'
p1030
aS'->'
p1031
aS'variable_34'
p1032
ag15
aS'for'
p1033
ag7
aS'variable_11'
p1034
ag43
ag7
aS'variable_11'
p1035
ag43
ag7
aS'char'
p1036
ag5
ag15
aS'func_7'
p1037
ag7
aS'variable_4'
p1038
aS'->'
p1039
aS'variable_34'
p1040
aS'->'
p1041
aS'variable_11'
p1042
ag15
ag15
aS'if'
p1043
ag7
ag45
aS'func_8'
p1044
ag7
aS'variable_2'
p1045
aS'->'
p1046
aS'variable_22'
p1047
ag10
aS'variable_11'
p1048
ag10
aS'variable_32'
p1049
ag15
ag15
aS'if'
p1050
ag7
aS'variable_6'
p1051
aS'&&'
p1052
aS'variable_4'
p1053
aS'->'
p1054
aS'variable_35'
p1055
aS'&&'
p1056
ag45
aS'func_9'
p1057
ag7
aS'variable_4'
p1058
aS'->'
p1059
aS'variable_35'
p1060
ag10
aS'variable_6'
p1061
ag15
ag15
aS'if'
p1062
ag7
ag7
aS'variable_9'
p1063
ag43
aS'func_10'
p1064
ag7
aS'variable_2'
p1065
aS'->'
p1066
aS'variable_22'
p1067
ag10
ag56
aS'copies'
p1068
ag56
ag10
aS'variable_36'
p1069
ag15
ag15
aS'!='
p1070
aS'NULL'
p1071
ag15
aS'if'
p1072
ag7
aS'variable_9'
p1073
aS'->'
p1074
aS'variable_37'
p1075
ag41
ag96
ag42
ag193
aS'variable_38'
p1076
ag124
ag90
aS'||'
p1077
aS'variable_9'
p1078
aS'->'
p1079
aS'variable_37'
p1080
ag41
ag96
ag42
ag193
aS'variable_38'
p1081
ag200
aS'variable_39'
p1082
ag15
aS'if'
p1083
ag7
ag7
aS'variable_9'
p1084
ag43
aS'func_11'
p1085
ag7
aS'variable_2'
p1086
aS'->'
p1087
aS'variable_22'
p1088
ag10
ag56
aS'job'
p1089
ag72
aS'sheets'
p1090
ag56
ag10
aS'variable_32'
p1091
ag15
ag15
aS'!='
p1092
aS'NULL'
p1093
ag15
aS'if'
p1094
ag7
aS'variable_9'
p1095
aS'->'
p1096
aS'variable_40'
p1097
aS'!='
p1098
aS'variable_41'
p1099
aS'&&'
p1100
aS'variable_9'
p1101
aS'->'
p1102
aS'variable_40'
p1103
aS'!='
p1104
aS'variable_42'
p1105
ag15
aS'if'
p1106
ag7
aS'variable_9'
p1107
aS'->'
p1108
aS'variable_43'
p1109
ag200
ag229
ag15
aS'for'
p1110
ag7
aS'variable_15'
p1111
ag43
ag96
ag18
aS'variable_15'
p1112
ag124
aS'variable_9'
p1113
aS'->'
p1114
aS'variable_43'
p1115
ag18
aS'variable_15'
p1116
aS'++'
p1117
ag15
aS'if'
p1118
ag7
aS'strcmp'
p1119
ag7
aS'variable_9'
p1120
aS'->'
p1121
aS'variable_37'
p1122
ag41
aS'variable_15'
p1123
ag42
ag193
aS'variable_44'
p1124
ag193
aS'variable_45'
p1125
ag10
ag56
aS'none'
p1126
ag56
ag15
aS'&&'
p1127
ag45
aS'func_12'
p1128
ag7
aS'variable_9'
p1129
aS'->'
p1130
aS'variable_37'
p1131
ag41
aS'variable_15'
p1132
ag42
ag193
aS'variable_44'
p1133
ag193
aS'variable_45'
p1134
ag15
ag15
aS'if'
p1135
ag7
ag7
aS'variable_9'
p1136
ag43
aS'func_13'
p1137
ag7
aS'variable_2'
p1138
aS'->'
p1139
aS'variable_22'
p1140
ag10
ag56
aS'number'
p1141
ag72
aS'up'
p1142
ag56
ag10
aS'variable_36'
p1143
ag15
ag15
aS'!='
p1144
aS'NULL'
p1145
ag15
aS'if'
p1146
ag7
aS'variable_9'
p1147
aS'->'
p1148
aS'variable_37'
p1149
ag41
ag96
ag42
ag193
aS'variable_38'
p1150
aS'!='
p1151
ag90
aS'&&'
p1152
aS'variable_9'
p1153
aS'->'
p1154
aS'variable_37'
p1155
ag41
ag96
ag42
ag193
aS'variable_38'
p1156
aS'!='
p1157
ag229
aS'&&'
p1158
aS'variable_9'
p1159
aS'->'
p1160
aS'variable_37'
p1161
ag41
ag96
ag42
ag193
aS'variable_38'
p1162
aS'!='
p1163
ag284
aS'&&'
p1164
aS'variable_9'
p1165
aS'->'
p1166
aS'variable_37'
p1167
ag41
ag96
ag42
ag193
aS'variable_38'
p1168
aS'!='
p1169
ag291
aS'&&'
p1170
aS'variable_9'
p1171
aS'->'
p1172
aS'variable_37'
p1173
ag41
ag96
ag42
ag193
aS'variable_38'
p1174
aS'!='
p1175
ag298
aS'&&'
p1176
aS'variable_9'
p1177
aS'->'
p1178
aS'variable_37'
p1179
ag41
ag96
ag42
ag193
aS'variable_38'
p1180
aS'!='
p1181
aS'16'
p1182
ag15
aS'if'
p1183
ag7
ag7
aS'variable_9'
p1184
ag43
aS'func_14'
p1185
ag7
aS'variable_2'
p1186
aS'->'
p1187
aS'variable_22'
p1188
ag10
ag56
aS'page'
p1189
ag72
aS'ranges'
p1190
ag56
ag10
aS'variable_46'
p1191
ag15
ag15
aS'!='
p1192
aS'NULL'
p1193
ag15
aS'for'
p1194
ag7
aS'variable_15'
p1195
ag43
ag96
ag10
aS'variable_16'
p1196
ag43
ag90
ag18
aS'variable_15'
p1197
ag124
aS'variable_9'
p1198
aS'->'
p1199
aS'variable_43'
p1200
ag18
aS'variable_15'
p1201
aS'++'
p1202
ag15
aS'if'
p1203
ag7
aS'variable_9'
p1204
aS'->'
p1205
aS'variable_37'
p1206
ag41
aS'variable_15'
p1207
ag42
ag193
aS'variable_47'
p1208
ag193
aS'variable_48'
p1209
ag124
aS'variable_16'
p1210
aS'||'
p1211
aS'variable_9'
p1212
aS'->'
p1213
aS'variable_37'
p1214
ag41
aS'variable_15'
p1215
ag42
ag193
aS'variable_47'
p1216
ag193
aS'variable_48'
p1217
ag200
aS'variable_9'
p1218
aS'->'
p1219
aS'variable_37'
p1220
ag41
aS'variable_15'
p1221
ag42
ag193
aS'variable_47'
p1222
ag193
aS'variable_49'
p1223
ag15
aS'variable_16'
p1224
ag43
aS'variable_9'
p1225
aS'->'
p1226
aS'variable_37'
p1227
ag41
aS'variable_15'
p1228
ag42
ag193
aS'variable_47'
p1229
ag193
aS'variable_49'
p1230
ag354
ag90
ag18
aS'if'
p1231
ag7
aS'variable_50'
p1232
aS'&&'
p1233
aS'func_15'
p1234
ag7
aS'variable_51'
p1235
ag15
ag200
ag43
aS'variable_50'
p1236
ag15
aS'if'
p1237
ag7
ag7
aS'variable_15'
p1238
ag43
aS'func_16'
p1239
ag7
aS'variable_2'
p1240
ag10
aS'variable_4'
p1241
ag15
ag15
ag124
ag96
ag15
aS'if'
p1242
ag7
aS'variable_15'
p1243
aS'=='
p1244
ag96
ag15
aS'if'
p1245
ag7
ag7
aS'variable_9'
p1246
ag43
aS'func_17'
p1247
ag7
aS'variable_2'
p1248
aS'->'
p1249
aS'variable_22'
p1250
ag10
ag56
aS'job'
p1251
ag72
aS'priority'
p1252
ag56
ag10
aS'variable_36'
p1253
ag15
ag15
aS'!='
p1254
aS'NULL'
p1255
ag15
aS'variable_13'
p1256
ag43
aS'variable_9'
p1257
aS'->'
p1258
aS'variable_37'
p1259
ag41
ag96
ag42
ag193
aS'variable_38'
p1260
ag18
aS'if'
p1261
ag7
ag7
aS'variable_12'
p1262
ag43
aS'func_18'
p1263
ag7
ag56
aS'job'
p1264
ag72
aS'priority'
p1265
ag56
ag10
aS'variable_4'
p1266
aS'->'
p1267
aS'variable_52'
p1268
ag10
aS'variable_4'
p1269
aS'->'
p1270
aS'variable_53'
p1271
ag15
ag15
aS'!='
p1272
aS'NULL'
p1273
ag15
aS'variable_13'
p1274
ag43
aS'atoi'
p1275
ag7
aS'variable_12'
p1276
ag15
ag18
aS'variable_13'
p1277
ag43
aS'50'
p1278
ag18
aS'if'
p1279
ag7
ag7
aS'variable_9'
p1280
ag43
aS'func_19'
p1281
ag7
aS'variable_2'
p1282
aS'->'
p1283
aS'variable_22'
p1284
ag10
ag56
aS'job'
p1285
ag72
aS'name'
p1286
ag56
ag10
aS'variable_32'
p1287
ag15
ag15
aS'=='
p1288
aS'NULL'
p1289
ag15
aS'if'
p1290
ag7
ag7
aS'variable_9'
p1291
aS'->'
p1292
aS'variable_40'
p1293
aS'!='
p1294
aS'variable_42'
p1295
aS'&&'
p1296
aS'variable_9'
p1297
aS'->'
p1298
aS'variable_40'
p1299
aS'!='
p1300
aS'variable_54'
p1301
ag15
aS'||'
p1302
aS'variable_9'
p1303
aS'->'
p1304
aS'variable_43'
p1305
aS'!='
p1306
ag90
ag15
aS'if'
p1307
ag7
ag45
aS'func_20'
p1308
ag7
aS'variable_9'
p1309
ag15
ag15
aS'if'
p1310
ag7
ag7
aS'variable_14'
p1311
ag43
aS'func_21'
p1312
ag7
aS'variable_13'
p1313
ag10
aS'variable_4'
p1314
aS'->'
p1315
aS'variable_55'
p1316
ag15
ag15
aS'=='
p1317
aS'NULL'
p1318
ag15
aS'variable_14'
p1319
aS'->'
p1320
aS'variable_56'
p1321
ag43
aS'variable_4'
p1322
aS'->'
p1323
aS'variable_57'
p1324
ag449
ag7
aS'variable_58'
p1325
ag451
aS'variable_59'
p1326
ag15
ag18
aS'variable_14'
p1327
aS'->'
p1328
aS'variable_60'
p1329
ag43
aS'variable_2'
p1330
aS'->'
p1331
aS'variable_22'
p1332
ag18
aS'variable_14'
p1333
aS'->'
p1334
aS'variable_61'
p1335
ag43
ag90
ag18
aS'variable_2'
p1336
aS'->'
p1337
aS'variable_22'
p1338
ag43
aS'func_22'
p1339
ag7
aS'variable_14'
p1340
aS'->'
p1341
aS'variable_60'
p1342
aS'->'
p1343
aS'variable_22'
p1344
ag193
aS'variable_62'
p1345
ag193
aS'variable_63'
p1346
ag15
ag18
aS'variable_9'
p1347
ag43
aS'func_23'
p1348
ag7
aS'variable_14'
p1349
aS'->'
p1350
aS'variable_60'
p1351
ag10
ag56
aS'requesting'
p1352
ag72
aS'user'
p1353
ag72
aS'name'
p1354
ag56
ag10
aS'variable_42'
p1355
ag15
ag18
aS'if'
p1356
ag7
ag45
aS'variable_9'
p1357
ag15
aS'variable_9'
p1358
aS'->'
p1359
aS'variable_64'
p1360
ag43
aS'variable_65'
p1361
ag18
aS'variable_9'
p1362
aS'->'
p1363
aS'variable_55'
p1364
ag43
aS'func_24'
p1365
ag7
ag56
aS'job'
p1366
ag72
aS'originating'
p1367
ag72
aS'user'
p1368
ag72
aS'name'
p1369
ag56
ag15
ag18
aS'if'
p1370
ag7
ag7
aS'variable_9'
p1371
ag43
aS'func_25'
p1372
ag7
aS'variable_2'
p1373
aS'->'
p1374
aS'variable_22'
p1375
ag10
ag56
aS'job'
p1376
ag72
aS'name'
p1377
ag56
ag10
aS'variable_42'
p1378
ag15
ag15
aS'!='
p1379
aS'NULL'
p1380
ag15
aS'if'
p1381
ag7
ag7
aS'variable_9'
p1382
ag43
aS'func_26'
p1383
ag7
aS'variable_14'
p1384
aS'->'
p1385
aS'variable_60'
p1386
ag10
ag56
aS'job'
p1387
ag72
aS'originating'
p1388
ag72
aS'host'
p1389
ag72
aS'name'
p1390
ag56
ag10
aS'variable_32'
p1391
ag15
ag15
aS'!='
p1392
aS'NULL'
p1393
ag15
aS'if'
p1394
ag7
aS'variable_9'
p1395
aS'->'
p1396
aS'variable_40'
p1397
aS'!='
p1398
aS'variable_42'
p1399
aS'||'
p1400
aS'variable_9'
p1401
aS'->'
p1402
aS'variable_43'
p1403
aS'!='
p1404
ag90
aS'||'
p1405
aS'strcmp'
p1406
ag7
aS'variable_2'
p1407
aS'->'
p1408
aS'variable_19'
p1409
aS'->'
p1410
aS'variable_20'
p1411
ag10
ag56
aS'localhost'
p1412
ag56
ag15
ag15
aS'switch'
p1413
ag7
aS'variable_9'
p1414
aS'->'
p1415
aS'variable_40'
p1416
ag15
aS'for'
p1417
ag7
aS'variable_15'
p1418
ag43
ag96
ag18
aS'variable_15'
p1419
ag124
aS'variable_9'
p1420
aS'->'
p1421
aS'variable_43'
p1422
ag18
aS'variable_15'
p1423
aS'++'
p1424
ag15
aS'variable_9'
p1425
aS'->'
p1426
aS'variable_37'
p1427
ag41
aS'variable_15'
p1428
ag42
ag193
aS'variable_44'
p1429
ag193
aS'variable_45'
p1430
ag43
aS'NULL'
p1431
ag18
aS'if'
p1432
ag7
aS'variable_9'
p1433
aS'->'
p1434
aS'variable_37'
p1435
ag41
aS'variable_15'
p1436
ag42
ag193
aS'variable_44'
p1437
ag193
aS'variable_66'
p1438
ag15
aS'variable_9'
p1439
aS'->'
p1440
aS'variable_37'
p1441
ag41
aS'variable_15'
p1442
ag42
ag193
aS'variable_44'
p1443
ag193
aS'variable_66'
p1444
ag43
aS'NULL'
p1445
ag18
aS'variable_9'
p1446
aS'->'
p1447
aS'variable_40'
p1448
ag43
aS'variable_42'
p1449
ag18
aS'variable_9'
p1450
aS'->'
p1451
aS'variable_43'
p1452
ag43
ag90
ag18
aS'variable_9'
p1453
aS'->'
p1454
aS'variable_37'
p1455
ag41
ag96
ag42
ag193
aS'variable_44'
p1456
ag193
aS'variable_45'
p1457
ag43
aS'func_27'
p1458
ag7
aS'variable_2'
p1459
aS'->'
p1460
aS'variable_19'
p1461
aS'->'
p1462
aS'variable_20'
p1463
ag15
ag18
aS'variable_9'
p1464
aS'->'
p1465
aS'variable_64'
p1466
ag43
aS'variable_65'
p1467
ag18
aS'variable_9'
p1468
ag43
aS'func_28'
p1469
ag7
aS'variable_14'
p1470
aS'->'
p1471
aS'variable_60'
p1472
ag10
aS'variable_65'
p1473
ag10
aS'variable_36'
p1474
ag10
ag56
aS'time'
p1475
ag72
aS'at'
p1476
ag72
aS'processing'
p1477
ag56
ag10
ag96
ag15
ag18
aS'variable_9'
p1478
aS'->'
p1479
aS'variable_40'
p1480
ag43
aS'variable_67'
p1481
ag18
aS'variable_9'
p1482
ag43
aS'func_29'
p1483
ag7
aS'variable_14'
p1484
aS'->'
p1485
aS'variable_60'
p1486
ag10
aS'variable_65'
p1487
ag10
aS'variable_36'
p1488
ag10
ag56
aS'time'
p1489
ag72
aS'at'
p1490
ag72
aS'completed'
p1491
ag56
ag10
ag96
ag15
ag18
aS'variable_9'
p1492
aS'->'
p1493
aS'variable_40'
p1494
ag43
aS'variable_67'
p1495
ag18
aS'variable_14'
p1496
aS'->'
p1497
aS'variable_68'
p1498
ag43
aS'func_30'
p1499
ag7
aS'variable_14'
p1500
aS'->'
p1501
aS'variable_60'
p1502
ag10
aS'variable_65'
p1503
ag10
aS'variable_69'
p1504
ag10
ag56
aS'job'
p1505
ag72
aS'state'
p1506
ag56
ag10
aS'variable_70'
p1507
ag15
ag18
aS'variable_14'
p1508
aS'->'
p1509
aS'variable_71'
p1510
ag43
ag7
aS'variable_72'
p1511
ag15
aS'variable_14'
p1512
aS'->'
p1513
aS'variable_68'
p1514
aS'->'
p1515
aS'variable_37'
p1516
ag41
ag96
ag42
ag193
aS'variable_38'
p1517
ag18
aS'variable_14'
p1518
aS'->'
p1519
aS'variable_73'
p1520
ag43
aS'func_31'
p1521
ag7
aS'variable_14'
p1522
aS'->'
p1523
aS'variable_60'
p1524
ag10
aS'variable_65'
p1525
ag10
aS'variable_41'
p1526
ag10
ag56
aS'job'
p1527
ag72
aS'state'
p1528
ag72
aS'reasons'
p1529
ag56
ag10
aS'NULL'
p1530
ag10
ag56
aS'job'
p1531
ag72
aS'incoming'
p1532
ag56
ag15
ag18
aS'variable_14'
p1533
aS'->'
p1534
aS'variable_74'
p1535
ag43
aS'func_32'
p1536
ag7
aS'variable_14'
p1537
aS'->'
p1538
aS'variable_60'
p1539
ag10
aS'variable_65'
p1540
ag10
aS'variable_36'
p1541
ag10
ag56
aS'job'
p1542
ag72
aS'media'
p1543
ag72
aS'sheets'
p1544
ag72
aS'completed'
p1545
ag56
ag10
ag96
ag15
ag18
aS'if'
p1546
ag7
ag7
aS'variable_9'
p1547
ag43
aS'func_33'
p1548
ag7
aS'variable_14'
p1549
aS'->'
p1550
aS'variable_60'
p1551
ag10
ag56
aS'job'
p1552
ag72
ag679
ag72
aS'octets'
p1553
ag56
ag10
aS'variable_36'
p1554
ag15
ag15
aS'!='
p1555
aS'NULL'
p1556
ag15
aS'variable_9'
p1557
aS'->'
p1558
aS'variable_37'
p1559
ag41
ag96
ag42
ag193
aS'variable_38'
p1560
ag43
ag96
ag18
aS'if'
p1561
ag7
ag7
aS'variable_9'
p1562
ag43
aS'func_34'
p1563
ag7
aS'variable_14'
p1564
aS'->'
p1565
aS'variable_60'
p1566
ag10
ag56
aS'job'
p1567
ag72
aS'hold'
p1568
ag72
aS'until'
p1569
ag56
ag10
aS'variable_41'
p1570
ag15
ag15
aS'=='
p1571
aS'NULL'
p1572
ag15
aS'variable_9'
p1573
ag43
aS'func_35'
p1574
ag7
aS'variable_14'
p1575
aS'->'
p1576
aS'variable_60'
p1577
ag10
ag56
aS'job'
p1578
ag72
aS'hold'
p1579
ag72
aS'until'
p1580
ag56
ag10
aS'variable_42'
p1581
ag15
ag18
aS'if'
p1582
ag7
ag45
aS'variable_9'
p1583
ag15
aS'if'
p1584
ag7
ag7
aS'variable_12'
p1585
ag43
aS'func_36'
p1586
ag7
ag56
aS'job'
p1587
ag72
aS'hold'
p1588
ag72
aS'until'
p1589
ag56
ag10
aS'variable_4'
p1590
aS'->'
p1591
aS'variable_52'
p1592
ag10
aS'variable_4'
p1593
aS'->'
p1594
aS'variable_53'
p1595
ag15
ag15
aS'=='
p1596
aS'NULL'
p1597
ag15
aS'variable_12'
p1598
ag43
ag56
aS'no'
p1599
ag72
aS'hold'
p1600
ag56
ag18
aS'variable_9'
p1601
ag43
aS'func_37'
p1602
ag7
aS'variable_14'
p1603
aS'->'
p1604
aS'variable_60'
p1605
ag10
aS'variable_65'
p1606
ag10
aS'variable_41'
p1607
ag10
ag56
aS'job'
p1608
ag72
aS'hold'
p1609
ag72
aS'until'
p1610
ag56
ag10
aS'NULL'
p1611
ag10
aS'variable_12'
p1612
ag15
ag18
aS'if'
p1613
ag7
aS'variable_9'
p1614
aS'&&'
p1615
aS'strcmp'
p1616
ag7
aS'variable_9'
p1617
aS'->'
p1618
aS'variable_37'
p1619
ag41
ag96
ag42
ag193
aS'variable_44'
p1620
ag193
aS'variable_45'
p1621
ag10
ag56
aS'no'
p1622
ag72
aS'hold'
p1623
ag56
ag15
ag15
aS'variable_14'
p1624
aS'->'
p1625
aS'variable_68'
p1626
aS'->'
p1627
aS'variable_37'
p1628
ag41
ag96
ag42
ag193
aS'variable_38'
p1629
ag43
aS'variable_75'
p1630
ag18
aS'variable_14'
p1631
aS'->'
p1632
aS'variable_71'
p1633
ag43
aS'variable_75'
p1634
ag18
aS'if'
p1635
ag7
aS'variable_14'
p1636
aS'->'
p1637
aS'variable_60'
p1638
aS'->'
p1639
aS'variable_22'
p1640
ag193
aS'variable_62'
p1641
ag193
aS'variable_63'
p1642
aS'=='
p1643
aS'variable_76'
p1644
ag15
aS'variable_14'
p1645
aS'->'
p1646
aS'variable_77'
p1647
ag43
aS'time'
p1648
ag7
aS'NULL'
p1649
ag15
ag354
aS'variable_78'
p1650
ag18
aS'variable_14'
p1651
aS'->'
p1652
aS'variable_68'
p1653
aS'->'
p1654
aS'variable_37'
p1655
ag41
ag96
ag42
ag193
aS'variable_38'
p1656
ag43
aS'variable_75'
p1657
ag18
aS'variable_14'
p1658
aS'->'
p1659
aS'variable_71'
p1660
ag43
aS'variable_75'
p1661
ag18
aS'variable_14'
p1662
aS'->'
p1663
aS'variable_68'
p1664
aS'->'
p1665
aS'variable_37'
p1666
ag41
ag96
ag42
ag193
aS'variable_38'
p1667
ag43
aS'variable_79'
p1668
ag18
aS'variable_14'
p1669
aS'->'
p1670
aS'variable_71'
p1671
ag43
aS'variable_79'
p1672
ag18
aS'if'
p1673
ag7
ag45
ag7
aS'variable_4'
p1674
aS'->'
p1675
aS'variable_57'
p1676
ag449
aS'variable_59'
p1677
ag15
aS'||'
p1678
aS'variable_80'
p1679
ag15
aS'if'
p1680
ag7
ag7
aS'variable_9'
p1681
ag43
aS'func_38'
p1682
ag7
aS'variable_14'
p1683
aS'->'
p1684
aS'variable_60'
p1685
ag10
ag56
aS'job'
p1686
ag72
aS'sheets'
p1687
ag56
ag10
aS'variable_32'
p1688
ag15
ag15
aS'=='
p1689
aS'NULL'
p1690
ag15
aS'variable_9'
p1691
ag43
aS'func_39'
p1692
ag7
aS'variable_14'
p1693
aS'->'
p1694
aS'variable_60'
p1695
ag10
aS'variable_65'
p1696
ag10
aS'variable_42'
p1697
ag10
ag56
aS'job'
p1698
ag72
aS'sheets'
p1699
ag56
ag10
ag229
ag10
aS'NULL'
p1700
ag10
aS'NULL'
p1701
ag15
ag18
aS'variable_9'
p1702
aS'->'
p1703
aS'variable_37'
p1704
ag41
ag96
ag42
ag193
aS'variable_44'
p1705
ag193
aS'variable_45'
p1706
ag43
aS'func_40'
p1707
ag7
aS'variable_4'
p1708
aS'->'
p1709
aS'variable_81'
p1710
ag41
ag96
ag42
ag15
ag18
aS'variable_9'
p1711
aS'->'
p1712
aS'variable_37'
p1713
ag41
ag90
ag42
ag193
aS'variable_44'
p1714
ag193
aS'variable_45'
p1715
ag43
aS'func_41'
p1716
ag7
aS'variable_4'
p1717
aS'->'
p1718
aS'variable_81'
p1719
ag41
ag90
ag42
ag15
ag18
aS'if'
p1720
ag7
aS'variable_80'
p1721
ag15
aS'if'
p1722
ag7
aS'variable_82'
p1723
ag15
aS'if'
p1724
ag7
aS'strcmp'
p1725
ag7
aS'variable_9'
p1726
aS'->'
p1727
aS'variable_37'
p1728
ag41
ag96
ag42
ag193
aS'variable_44'
p1729
ag193
aS'variable_45'
p1730
ag10
aS'variable_80'
p1731
ag15
aS'&&'
p1732
ag7
aS'variable_9'
p1733
aS'->'
p1734
aS'variable_43'
p1735
aS'=='
p1736
ag90
aS'||'
p1737
aS'strcmp'
p1738
ag7
aS'variable_9'
p1739
aS'->'
p1740
aS'variable_37'
p1741
ag41
ag90
ag42
ag193
aS'variable_44'
p1742
ag193
aS'variable_45'
p1743
ag10
aS'variable_80'
p1744
ag15
ag15
ag15
aS'if'
p1745
ag7
aS'variable_9'
p1746
aS'->'
p1747
aS'variable_43'
p1748
ag200
ag90
aS'&&'
p1749
ag45
aS'strcmp'
p1750
ag7
aS'variable_9'
p1751
aS'->'
p1752
aS'variable_37'
p1753
ag41
ag96
ag42
ag193
aS'variable_44'
p1754
ag193
aS'variable_45'
p1755
ag10
aS'variable_9'
p1756
aS'->'
p1757
aS'variable_37'
p1758
ag41
ag90
ag42
ag193
aS'variable_44'
p1759
ag193
aS'variable_45'
p1760
ag15
ag15
aS'if'
p1761
ag7
aS'variable_9'
p1762
aS'->'
p1763
aS'variable_43'
p1764
aS'=='
p1765
ag90
aS'||'
p1766
aS'strcmp'
p1767
ag7
aS'variable_9'
p1768
aS'->'
p1769
aS'variable_37'
p1770
ag41
ag96
ag42
ag193
aS'variable_44'
p1771
ag193
aS'variable_45'
p1772
ag10
ag56
aS'none'
p1773
ag56
ag15
ag15
aa(lp1774
S'static'
p1775
aS'variable_0'
p1776
ag5
aS'func_0'
p1777
ag7
aS'variable_1'
p1778
ag5
aS'variable_2'
p1779
ag10
aS'variable_3'
p1780
ag5
aS'variable_4'
p1781
ag10
aS'variable_5'
p1782
ag5
aS'variable_6'
p1783
ag15
aS'http_status_t'
p1784
aS'variable_7'
p1785
ag18
aS'variable_8'
p1786
ag5
aS'variable_9'
p1787
ag10
ag5
aS'variable_10'
p1788
ag18
aS'const'
p1789
aS'char'
p1790
ag5
aS'variable_11'
p1791
ag18
aS'const'
p1792
aS'char'
p1793
ag5
aS'variable_12'
p1794
ag18
aS'int'
p1795
aS'variable_13'
p1796
ag18
aS'variable_0'
p1797
ag5
aS'variable_14'
p1798
ag18
aS'int'
p1799
aS'variable_15'
p1800
ag18
aS'int'
p1801
aS'variable_16'
p1802
ag18
aS'static'
p1803
aS'const'
p1804
aS'char'
p1805
ag5
aS'const'
p1806
aS'variable_17'
p1807
ag41
ag42
ag43
aS'if'
p1808
ag7
ag45
aS'variable_4'
p1809
aS'->'
p1810
aS'variable_18'
p1811
aS'&&'
p1812
aS'func_1'
p1813
ag7
aS'variable_2'
p1814
aS'->'
p1815
aS'variable_19'
p1816
aS'->'
p1817
aS'variable_20'
p1818
ag10
ag56
aS'localhost'
p1819
ag56
ag15
aS'&&'
p1820
aS'func_2'
p1821
ag7
aS'variable_2'
p1822
aS'->'
p1823
aS'variable_19'
p1824
aS'->'
p1825
aS'variable_20'
p1826
ag10
aS'variable_21'
p1827
ag15
ag15
aS'variable_10'
p1828
ag43
aS'func_3'
p1829
ag7
aS'variable_2'
p1830
aS'->'
p1831
aS'variable_22'
p1832
ag10
ag56
aS'auth'
p1833
ag72
aS'info'
p1834
ag56
ag10
aS'variable_23'
p1835
ag15
ag18
aS'if'
p1836
ag7
ag7
aS'variable_7'
p1837
ag43
aS'func_4'
p1838
ag7
aS'variable_4'
p1839
aS'->'
p1840
aS'variable_24'
p1841
ag10
aS'variable_2'
p1842
ag10
aS'NULL'
p1843
ag15
ag15
aS'!='
p1844
aS'variable_25'
p1845
ag15
aS'if'
p1846
ag7
aS'variable_4'
p1847
aS'->'
p1848
aS'variable_26'
p1849
aS'=='
p1850
ag90
aS'&&'
p1851
ag45
aS'strcmp'
p1852
ag7
aS'variable_4'
p1853
aS'->'
p1854
aS'variable_27'
p1855
ag41
ag96
ag42
ag10
ag56
aS'negotiate'
p1856
ag56
ag15
aS'&&'
p1857
ag45
aS'variable_2'
p1858
aS'->'
p1859
aS'variable_28'
p1860
ag41
ag96
ag42
ag15
aS'if'
p1861
ag7
aS'variable_10'
p1862
aS'&&'
p1863
ag45
aS'variable_2'
p1864
aS'->'
p1865
aS'variable_19'
p1866
aS'->'
p1867
aS'variable_29'
p1868
aS'&&'
p1869
ag45
aS'func_5'
p1870
ag7
aS'variable_2'
p1871
aS'->'
p1872
aS'variable_19'
p1873
aS'->'
p1874
aS'variable_30'
p1875
ag15
ag15
aS'if'
p1876
ag7
ag45
aS'variable_4'
p1877
aS'->'
p1878
aS'variable_31'
p1879
ag15
aS'for'
p1880
ag7
aS'variable_15'
p1881
ag43
ag96
ag18
aS'variable_15'
p1882
ag124
ag7
aS'int'
p1883
ag15
ag7
aS'sizeof'
p1884
ag7
aS'variable_17'
p1885
ag15
ag128
aS'sizeof'
p1886
ag7
aS'variable_17'
p1887
ag41
ag96
ag42
ag15
ag15
ag18
aS'variable_15'
p1888
aS'++'
p1889
ag15
aS'if'
p1890
ag7
ag7
aS'variable_9'
p1891
ag43
aS'func_6'
p1892
ag7
aS'variable_2'
p1893
aS'->'
p1894
aS'variable_22'
p1895
ag10
aS'variable_17'
p1896
ag41
aS'variable_15'
p1897
ag42
ag10
aS'variable_32'
p1898
ag15
ag15
aS'!='
p1899
aS'NULL'
p1900
ag15
aS'if'
p1901
ag7
aS'variable_33'
p1902
ag15
aS'if'
p1903
ag7
aS'variable_4'
p1904
aS'->'
p1905
aS'variable_34'
p1906
ag15
aS'for'
p1907
ag7
aS'variable_11'
p1908
ag43
ag7
aS'variable_11'
p1909
ag43
ag7
aS'char'
p1910
ag5
ag15
aS'func_7'
p1911
ag7
aS'variable_4'
p1912
aS'->'
p1913
aS'variable_34'
p1914
aS'->'
p1915
aS'variable_11'
p1916
ag15
ag15
aS'if'
p1917
ag7
ag45
aS'func_8'
p1918
ag7
aS'variable_2'
p1919
aS'->'
p1920
aS'variable_22'
p1921
ag10
aS'variable_11'
p1922
ag10
aS'variable_32'
p1923
ag15
ag15
aS'if'
p1924
ag7
aS'variable_6'
p1925
aS'&&'
p1926
aS'variable_4'
p1927
aS'->'
p1928
aS'variable_35'
p1929
aS'&&'
p1930
ag45
aS'func_9'
p1931
ag7
aS'variable_4'
p1932
aS'->'
p1933
aS'variable_35'
p1934
ag10
aS'variable_6'
p1935
ag15
ag15
aS'if'
p1936
ag7
ag7
aS'variable_9'
p1937
ag43
aS'func_10'
p1938
ag7
aS'variable_2'
p1939
aS'->'
p1940
aS'variable_22'
p1941
ag10
ag56
aS'copies'
p1942
ag56
ag10
aS'variable_36'
p1943
ag15
ag15
aS'!='
p1944
aS'NULL'
p1945
ag15
aS'if'
p1946
ag7
aS'variable_9'
p1947
aS'->'
p1948
aS'variable_37'
p1949
ag41
ag96
ag42
ag193
aS'variable_38'
p1950
ag124
ag90
aS'||'
p1951
aS'variable_9'
p1952
aS'->'
p1953
aS'variable_37'
p1954
ag41
ag96
ag42
ag193
aS'variable_38'
p1955
ag200
aS'variable_39'
p1956
ag15
aS'if'
p1957
ag7
ag7
aS'variable_9'
p1958
ag43
aS'func_11'
p1959
ag7
aS'variable_2'
p1960
aS'->'
p1961
aS'variable_22'
p1962
ag10
ag56
aS'job'
p1963
ag72
aS'sheets'
p1964
ag56
ag10
aS'variable_32'
p1965
ag15
ag15
aS'!='
p1966
aS'NULL'
p1967
ag15
aS'if'
p1968
ag7
aS'variable_9'
p1969
aS'->'
p1970
aS'variable_40'
p1971
aS'!='
p1972
aS'variable_41'
p1973
aS'&&'
p1974
aS'variable_9'
p1975
aS'->'
p1976
aS'variable_40'
p1977
aS'!='
p1978
aS'variable_42'
p1979
ag15
aS'if'
p1980
ag7
aS'variable_9'
p1981
aS'->'
p1982
aS'variable_43'
p1983
ag200
ag229
ag15
aS'for'
p1984
ag7
aS'variable_15'
p1985
ag43
ag96
ag18
aS'variable_15'
p1986
ag124
aS'variable_9'
p1987
aS'->'
p1988
aS'variable_43'
p1989
ag18
aS'variable_15'
p1990
aS'++'
p1991
ag15
aS'if'
p1992
ag7
aS'strcmp'
p1993
ag7
aS'variable_9'
p1994
aS'->'
p1995
aS'variable_37'
p1996
ag41
aS'variable_15'
p1997
ag42
ag193
aS'variable_44'
p1998
ag193
aS'variable_45'
p1999
ag10
ag56
aS'none'
p2000
ag56
ag15
aS'&&'
p2001
ag45
aS'func_12'
p2002
ag7
aS'variable_9'
p2003
aS'->'
p2004
aS'variable_37'
p2005
ag41
aS'variable_15'
p2006
ag42
ag193
aS'variable_44'
p2007
ag193
aS'variable_45'
p2008
ag15
ag15
aS'if'
p2009
ag7
ag7
aS'variable_9'
p2010
ag43
aS'func_13'
p2011
ag7
aS'variable_2'
p2012
aS'->'
p2013
aS'variable_22'
p2014
ag10
ag56
aS'number'
p2015
ag72
aS'up'
p2016
ag56
ag10
aS'variable_36'
p2017
ag15
ag15
aS'!='
p2018
aS'NULL'
p2019
ag15
aS'if'
p2020
ag7
aS'variable_9'
p2021
aS'->'
p2022
aS'variable_37'
p2023
ag41
ag96
ag42
ag193
aS'variable_38'
p2024
aS'!='
p2025
ag90
aS'&&'
p2026
aS'variable_9'
p2027
aS'->'
p2028
aS'variable_37'
p2029
ag41
ag96
ag42
ag193
aS'variable_38'
p2030
aS'!='
p2031
ag229
aS'&&'
p2032
aS'variable_9'
p2033
aS'->'
p2034
aS'variable_37'
p2035
ag41
ag96
ag42
ag193
aS'variable_38'
p2036
aS'!='
p2037
ag284
aS'&&'
p2038
aS'variable_9'
p2039
aS'->'
p2040
aS'variable_37'
p2041
ag41
ag96
ag42
ag193
aS'variable_38'
p2042
aS'!='
p2043
ag291
aS'&&'
p2044
aS'variable_9'
p2045
aS'->'
p2046
aS'variable_37'
p2047
ag41
ag96
ag42
ag193
aS'variable_38'
p2048
aS'!='
p2049
ag298
aS'&&'
p2050
aS'variable_9'
p2051
aS'->'
p2052
aS'variable_37'
p2053
ag41
ag96
ag42
ag193
aS'variable_38'
p2054
aS'!='
p2055
aS'16'
p2056
ag15
aS'if'
p2057
ag7
ag7
aS'variable_9'
p2058
ag43
aS'func_14'
p2059
ag7
aS'variable_2'
p2060
aS'->'
p2061
aS'variable_22'
p2062
ag10
ag56
aS'page'
p2063
ag72
aS'ranges'
p2064
ag56
ag10
aS'variable_46'
p2065
ag15
ag15
aS'!='
p2066
aS'NULL'
p2067
ag15
aS'for'
p2068
ag7
aS'variable_15'
p2069
ag43
ag96
ag10
aS'variable_16'
p2070
ag43
ag90
ag18
aS'variable_15'
p2071
ag124
aS'variable_9'
p2072
aS'->'
p2073
aS'variable_43'
p2074
ag18
aS'variable_15'
p2075
aS'++'
p2076
ag15
aS'if'
p2077
ag7
aS'variable_9'
p2078
aS'->'
p2079
aS'variable_37'
p2080
ag41
aS'variable_15'
p2081
ag42
ag193
aS'variable_47'
p2082
ag193
aS'variable_48'
p2083
ag124
aS'variable_16'
p2084
aS'||'
p2085
aS'variable_9'
p2086
aS'->'
p2087
aS'variable_37'
p2088
ag41
aS'variable_15'
p2089
ag42
ag193
aS'variable_47'
p2090
ag193
aS'variable_48'
p2091
ag200
aS'variable_9'
p2092
aS'->'
p2093
aS'variable_37'
p2094
ag41
aS'variable_15'
p2095
ag42
ag193
aS'variable_47'
p2096
ag193
aS'variable_49'
p2097
ag15
aS'variable_16'
p2098
ag43
aS'variable_9'
p2099
aS'->'
p2100
aS'variable_37'
p2101
ag41
aS'variable_15'
p2102
ag42
ag193
aS'variable_47'
p2103
ag193
aS'variable_49'
p2104
ag354
ag90
ag18
aS'if'
p2105
ag7
aS'variable_50'
p2106
aS'&&'
p2107
aS'func_15'
p2108
ag7
aS'variable_51'
p2109
ag15
ag200
ag43
aS'variable_50'
p2110
ag15
aS'if'
p2111
ag7
ag7
aS'variable_15'
p2112
ag43
aS'func_16'
p2113
ag7
aS'variable_2'
p2114
ag10
aS'variable_4'
p2115
ag15
ag15
ag124
ag96
ag15
aS'if'
p2116
ag7
aS'variable_15'
p2117
aS'=='
p2118
ag96
ag15
aS'if'
p2119
ag7
ag7
aS'variable_9'
p2120
ag43
aS'func_17'
p2121
ag7
aS'variable_2'
p2122
aS'->'
p2123
aS'variable_22'
p2124
ag10
ag56
aS'job'
p2125
ag72
aS'priority'
p2126
ag56
ag10
aS'variable_36'
p2127
ag15
ag15
aS'!='
p2128
aS'NULL'
p2129
ag15
aS'variable_13'
p2130
ag43
aS'variable_9'
p2131
aS'->'
p2132
aS'variable_37'
p2133
ag41
ag96
ag42
ag193
aS'variable_38'
p2134
ag18
aS'if'
p2135
ag7
ag7
aS'variable_12'
p2136
ag43
aS'func_18'
p2137
ag7
ag56
aS'job'
p2138
ag72
aS'priority'
p2139
ag56
ag10
aS'variable_4'
p2140
aS'->'
p2141
aS'variable_52'
p2142
ag10
aS'variable_4'
p2143
aS'->'
p2144
aS'variable_53'
p2145
ag15
ag15
aS'!='
p2146
aS'NULL'
p2147
ag15
aS'variable_13'
p2148
ag43
aS'atoi'
p2149
ag7
aS'variable_12'
p2150
ag15
ag18
aS'variable_13'
p2151
ag43
aS'50'
p2152
ag18
aS'if'
p2153
ag7
ag7
aS'variable_9'
p2154
ag43
aS'func_19'
p2155
ag7
aS'variable_2'
p2156
aS'->'
p2157
aS'variable_22'
p2158
ag10
ag56
aS'job'
p2159
ag72
aS'name'
p2160
ag56
ag10
aS'variable_32'
p2161
ag15
ag15
aS'=='
p2162
aS'NULL'
p2163
ag15
aS'if'
p2164
ag7
ag7
aS'variable_9'
p2165
aS'->'
p2166
aS'variable_40'
p2167
aS'!='
p2168
aS'variable_42'
p2169
aS'&&'
p2170
aS'variable_9'
p2171
aS'->'
p2172
aS'variable_40'
p2173
aS'!='
p2174
aS'variable_54'
p2175
ag15
aS'||'
p2176
aS'variable_9'
p2177
aS'->'
p2178
aS'variable_43'
p2179
aS'!='
p2180
ag90
ag15
aS'if'
p2181
ag7
ag45
aS'func_20'
p2182
ag7
aS'variable_9'
p2183
ag15
ag15
aS'if'
p2184
ag7
ag7
aS'variable_14'
p2185
ag43
aS'func_21'
p2186
ag7
aS'variable_13'
p2187
ag10
aS'variable_4'
p2188
aS'->'
p2189
aS'variable_55'
p2190
ag15
ag15
aS'=='
p2191
aS'NULL'
p2192
ag15
aS'variable_14'
p2193
aS'->'
p2194
aS'variable_56'
p2195
ag43
aS'variable_4'
p2196
aS'->'
p2197
aS'variable_57'
p2198
ag449
ag7
aS'variable_58'
p2199
ag451
aS'variable_59'
p2200
ag15
ag18
aS'variable_14'
p2201
aS'->'
p2202
aS'variable_60'
p2203
ag43
aS'variable_2'
p2204
aS'->'
p2205
aS'variable_22'
p2206
ag18
aS'variable_14'
p2207
aS'->'
p2208
aS'variable_61'
p2209
ag43
ag90
ag18
aS'variable_2'
p2210
aS'->'
p2211
aS'variable_22'
p2212
ag43
aS'func_22'
p2213
ag7
aS'variable_14'
p2214
aS'->'
p2215
aS'variable_60'
p2216
aS'->'
p2217
aS'variable_22'
p2218
ag193
aS'variable_62'
p2219
ag193
aS'variable_63'
p2220
ag15
ag18
aS'variable_9'
p2221
ag43
aS'func_23'
p2222
ag7
aS'variable_14'
p2223
aS'->'
p2224
aS'variable_60'
p2225
ag10
ag56
aS'requesting'
p2226
ag72
aS'user'
p2227
ag72
aS'name'
p2228
ag56
ag10
aS'variable_42'
p2229
ag15
ag18
aS'if'
p2230
ag7
ag45
aS'variable_9'
p2231
ag15
aS'variable_9'
p2232
aS'->'
p2233
aS'variable_64'
p2234
ag43
aS'variable_65'
p2235
ag18
aS'variable_9'
p2236
aS'->'
p2237
aS'variable_55'
p2238
ag43
aS'func_24'
p2239
ag7
ag56
aS'job'
p2240
ag72
aS'originating'
p2241
ag72
aS'user'
p2242
ag72
aS'name'
p2243
ag56
ag15
ag18
aS'if'
p2244
ag7
ag7
aS'variable_9'
p2245
ag43
aS'func_25'
p2246
ag7
aS'variable_2'
p2247
aS'->'
p2248
aS'variable_22'
p2249
ag10
ag56
aS'job'
p2250
ag72
aS'name'
p2251
ag56
ag10
aS'variable_42'
p2252
ag15
ag15
aS'!='
p2253
aS'NULL'
p2254
ag15
aS'if'
p2255
ag7
ag7
aS'variable_9'
p2256
ag43
aS'func_26'
p2257
ag7
aS'variable_14'
p2258
aS'->'
p2259
aS'variable_60'
p2260
ag10
ag56
aS'job'
p2261
ag72
aS'originating'
p2262
ag72
aS'host'
p2263
ag72
aS'name'
p2264
ag56
ag10
aS'variable_32'
p2265
ag15
ag15
aS'!='
p2266
aS'NULL'
p2267
ag15
aS'if'
p2268
ag7
aS'variable_9'
p2269
aS'->'
p2270
aS'variable_40'
p2271
aS'!='
p2272
aS'variable_42'
p2273
aS'||'
p2274
aS'variable_9'
p2275
aS'->'
p2276
aS'variable_43'
p2277
aS'!='
p2278
ag90
aS'||'
p2279
aS'strcmp'
p2280
ag7
aS'variable_2'
p2281
aS'->'
p2282
aS'variable_19'
p2283
aS'->'
p2284
aS'variable_20'
p2285
ag10
ag56
aS'localhost'
p2286
ag56
ag15
ag15
aS'switch'
p2287
ag7
aS'variable_9'
p2288
aS'->'
p2289
aS'variable_40'
p2290
ag15
aS'for'
p2291
ag7
aS'variable_15'
p2292
ag43
ag96
ag18
aS'variable_15'
p2293
ag124
aS'variable_9'
p2294
aS'->'
p2295
aS'variable_43'
p2296
ag18
aS'variable_15'
p2297
aS'++'
p2298
ag15
aS'variable_9'
p2299
aS'->'
p2300
aS'variable_37'
p2301
ag41
aS'variable_15'
p2302
ag42
ag193
aS'variable_44'
p2303
ag193
aS'variable_45'
p2304
ag43
aS'NULL'
p2305
ag18
aS'if'
p2306
ag7
aS'variable_9'
p2307
aS'->'
p2308
aS'variable_37'
p2309
ag41
aS'variable_15'
p2310
ag42
ag193
aS'variable_44'
p2311
ag193
aS'variable_66'
p2312
ag15
aS'variable_9'
p2313
aS'->'
p2314
aS'variable_37'
p2315
ag41
aS'variable_15'
p2316
ag42
ag193
aS'variable_44'
p2317
ag193
aS'variable_66'
p2318
ag43
aS'NULL'
p2319
ag18
aS'variable_9'
p2320
aS'->'
p2321
aS'variable_40'
p2322
ag43
aS'variable_42'
p2323
ag18
aS'variable_9'
p2324
aS'->'
p2325
aS'variable_43'
p2326
ag43
ag90
ag18
aS'variable_9'
p2327
aS'->'
p2328
aS'variable_37'
p2329
ag41
ag96
ag42
ag193
aS'variable_44'
p2330
ag193
aS'variable_45'
p2331
ag43
aS'func_27'
p2332
ag7
aS'variable_2'
p2333
aS'->'
p2334
aS'variable_19'
p2335
aS'->'
p2336
aS'variable_20'
p2337
ag15
ag18
aS'variable_9'
p2338
aS'->'
p2339
aS'variable_64'
p2340
ag43
aS'variable_65'
p2341
ag18
aS'variable_9'
p2342
ag43
aS'func_28'
p2343
ag7
aS'variable_14'
p2344
aS'->'
p2345
aS'variable_60'
p2346
ag10
aS'variable_65'
p2347
ag10
aS'variable_36'
p2348
ag10
ag56
aS'time'
p2349
ag72
aS'at'
p2350
ag72
aS'processing'
p2351
ag56
ag10
ag96
ag15
ag18
aS'variable_9'
p2352
aS'->'
p2353
aS'variable_40'
p2354
ag43
aS'variable_67'
p2355
ag18
aS'variable_9'
p2356
ag43
aS'func_29'
p2357
ag7
aS'variable_14'
p2358
aS'->'
p2359
aS'variable_60'
p2360
ag10
aS'variable_65'
p2361
ag10
aS'variable_36'
p2362
ag10
ag56
aS'time'
p2363
ag72
aS'at'
p2364
ag72
aS'completed'
p2365
ag56
ag10
ag96
ag15
ag18
aS'variable_9'
p2366
aS'->'
p2367
aS'variable_40'
p2368
ag43
aS'variable_67'
p2369
ag18
aS'variable_14'
p2370
aS'->'
p2371
aS'variable_68'
p2372
ag43
aS'func_30'
p2373
ag7
aS'variable_14'
p2374
aS'->'
p2375
aS'variable_60'
p2376
ag10
aS'variable_65'
p2377
ag10
aS'variable_69'
p2378
ag10
ag56
aS'job'
p2379
ag72
aS'state'
p2380
ag56
ag10
aS'variable_70'
p2381
ag15
ag18
aS'variable_14'
p2382
aS'->'
p2383
aS'variable_71'
p2384
ag43
ag7
aS'variable_72'
p2385
ag15
aS'variable_14'
p2386
aS'->'
p2387
aS'variable_68'
p2388
aS'->'
p2389
aS'variable_37'
p2390
ag41
ag96
ag42
ag193
aS'variable_38'
p2391
ag18
aS'variable_14'
p2392
aS'->'
p2393
aS'variable_73'
p2394
ag43
aS'func_31'
p2395
ag7
aS'variable_14'
p2396
aS'->'
p2397
aS'variable_60'
p2398
ag10
aS'variable_65'
p2399
ag10
aS'variable_41'
p2400
ag10
ag56
aS'job'
p2401
ag72
aS'state'
p2402
ag72
aS'reasons'
p2403
ag56
ag10
aS'NULL'
p2404
ag10
ag56
aS'job'
p2405
ag72
aS'incoming'
p2406
ag56
ag15
ag18
aS'variable_14'
p2407
aS'->'
p2408
aS'variable_74'
p2409
ag43
aS'func_32'
p2410
ag7
aS'variable_14'
p2411
aS'->'
p2412
aS'variable_60'
p2413
ag10
aS'variable_65'
p2414
ag10
aS'variable_36'
p2415
ag10
ag56
aS'job'
p2416
ag72
aS'media'
p2417
ag72
aS'sheets'
p2418
ag72
aS'completed'
p2419
ag56
ag10
ag96
ag15
ag18
aS'if'
p2420
ag7
ag7
aS'variable_9'
p2421
ag43
aS'func_33'
p2422
ag7
aS'variable_14'
p2423
aS'->'
p2424
aS'variable_60'
p2425
ag10
ag56
aS'job'
p2426
ag72
ag679
ag72
aS'octets'
p2427
ag56
ag10
aS'variable_36'
p2428
ag15
ag15
aS'!='
p2429
aS'NULL'
p2430
ag15
aS'variable_9'
p2431
aS'->'
p2432
aS'variable_37'
p2433
ag41
ag96
ag42
ag193
aS'variable_38'
p2434
ag43
ag96
ag18
aS'if'
p2435
ag7
ag7
aS'variable_9'
p2436
ag43
aS'func_34'
p2437
ag7
aS'variable_14'
p2438
aS'->'
p2439
aS'variable_60'
p2440
ag10
ag56
aS'job'
p2441
ag72
aS'hold'
p2442
ag72
aS'until'
p2443
ag56
ag10
aS'variable_41'
p2444
ag15
ag15
aS'=='
p2445
aS'NULL'
p2446
ag15
aS'variable_9'
p2447
ag43
aS'func_35'
p2448
ag7
aS'variable_14'
p2449
aS'->'
p2450
aS'variable_60'
p2451
ag10
ag56
aS'job'
p2452
ag72
aS'hold'
p2453
ag72
aS'until'
p2454
ag56
ag10
aS'variable_42'
p2455
ag15
ag18
aS'if'
p2456
ag7
ag45
aS'variable_9'
p2457
ag15
aS'if'
p2458
ag7
ag7
aS'variable_12'
p2459
ag43
aS'func_36'
p2460
ag7
ag56
aS'job'
p2461
ag72
aS'hold'
p2462
ag72
aS'until'
p2463
ag56
ag10
aS'variable_4'
p2464
aS'->'
p2465
aS'variable_52'
p2466
ag10
aS'variable_4'
p2467
aS'->'
p2468
aS'variable_53'
p2469
ag15
ag15
aS'=='
p2470
aS'NULL'
p2471
ag15
aS'variable_12'
p2472
ag43
ag56
aS'no'
p2473
ag72
aS'hold'
p2474
ag56
ag18
aS'variable_9'
p2475
ag43
aS'func_37'
p2476
ag7
aS'variable_14'
p2477
aS'->'
p2478
aS'variable_60'
p2479
ag10
aS'variable_65'
p2480
ag10
aS'variable_41'
p2481
ag10
ag56
aS'job'
p2482
ag72
aS'hold'
p2483
ag72
aS'until'
p2484
ag56
ag10
aS'NULL'
p2485
ag10
aS'variable_12'
p2486
ag15
ag18
aS'if'
p2487
ag7
aS'variable_9'
p2488
aS'&&'
p2489
aS'strcmp'
p2490
ag7
aS'variable_9'
p2491
aS'->'
p2492
aS'variable_37'
p2493
ag41
ag96
ag42
ag193
aS'variable_44'
p2494
ag193
aS'variable_45'
p2495
ag10
ag56
aS'no'
p2496
ag72
aS'hold'
p2497
ag56
ag15
ag15
aS'variable_14'
p2498
aS'->'
p2499
aS'variable_68'
p2500
aS'->'
p2501
aS'variable_37'
p2502
ag41
ag96
ag42
ag193
aS'variable_38'
p2503
ag43
aS'variable_75'
p2504
ag18
aS'variable_14'
p2505
aS'->'
p2506
aS'variable_71'
p2507
ag43
aS'variable_75'
p2508
ag18
aS'if'
p2509
ag7
aS'variable_14'
p2510
aS'->'
p2511
aS'variable_60'
p2512
aS'->'
p2513
aS'variable_22'
p2514
ag193
aS'variable_62'
p2515
ag193
aS'variable_63'
p2516
aS'=='
p2517
aS'variable_76'
p2518
ag15
aS'variable_14'
p2519
aS'->'
p2520
aS'variable_77'
p2521
ag43
aS'time'
p2522
ag7
aS'NULL'
p2523
ag15
ag354
aS'variable_78'
p2524
ag18
aS'variable_14'
p2525
aS'->'
p2526
aS'variable_68'
p2527
aS'->'
p2528
aS'variable_37'
p2529
ag41
ag96
ag42
ag193
aS'variable_38'
p2530
ag43
aS'variable_75'
p2531
ag18
aS'variable_14'
p2532
aS'->'
p2533
aS'variable_71'
p2534
ag43
aS'variable_75'
p2535
ag18
aS'variable_14'
p2536
aS'->'
p2537
aS'variable_68'
p2538
aS'->'
p2539
aS'variable_37'
p2540
ag41
ag96
ag42
ag193
aS'variable_38'
p2541
ag43
aS'variable_79'
p2542
ag18
aS'variable_14'
p2543
aS'->'
p2544
aS'variable_71'
p2545
ag43
aS'variable_79'
p2546
ag18
aS'if'
p2547
ag7
ag45
ag7
aS'variable_4'
p2548
aS'->'
p2549
aS'variable_57'
p2550
ag449
aS'variable_59'
p2551
ag15
aS'||'
p2552
aS'variable_80'
p2553
ag15
aS'if'
p2554
ag7
ag7
aS'variable_9'
p2555
ag43
aS'func_38'
p2556
ag7
aS'variable_14'
p2557
aS'->'
p2558
aS'variable_60'
p2559
ag10
ag56
aS'job'
p2560
ag72
aS'sheets'
p2561
ag56
ag10
aS'variable_32'
p2562
ag15
ag15
aS'=='
p2563
aS'NULL'
p2564
ag15
aS'variable_9'
p2565
ag43
aS'func_39'
p2566
ag7
aS'variable_14'
p2567
aS'->'
p2568
aS'variable_60'
p2569
ag10
aS'variable_65'
p2570
ag10
aS'variable_42'
p2571
ag10
ag56
aS'job'
p2572
ag72
aS'sheets'
p2573
ag56
ag10
ag229
ag10
aS'NULL'
p2574
ag10
aS'NULL'
p2575
ag15
ag18
aS'variable_9'
p2576
aS'->'
p2577
aS'variable_37'
p2578
ag41
ag96
ag42
ag193
aS'variable_44'
p2579
ag193
aS'variable_45'
p2580
ag43
aS'func_40'
p2581
ag7
aS'variable_4'
p2582
aS'->'
p2583
aS'variable_81'
p2584
ag41
ag96
ag42
ag15
ag18
aS'variable_9'
p2585
aS'->'
p2586
aS'variable_37'
p2587
ag41
ag90
ag42
ag193
aS'variable_44'
p2588
ag193
aS'variable_45'
p2589
ag43
aS'func_41'
p2590
ag7
aS'variable_4'
p2591
aS'->'
p2592
aS'variable_81'
p2593
ag41
ag90
ag42
ag15
ag18
aS'if'
p2594
ag7
aS'variable_80'
p2595
ag15
aS'if'
p2596
ag7
aS'variable_82'
p2597
ag15
aS'if'
p2598
ag7
aS'strcmp'
p2599
ag7
aS'variable_9'
p2600
aS'->'
p2601
aS'variable_37'
p2602
ag41
ag96
ag42
ag193
aS'variable_44'
p2603
ag193
aS'variable_45'
p2604
ag10
aS'variable_80'
p2605
ag15
aS'&&'
p2606
ag7
aS'variable_9'
p2607
aS'->'
p2608
aS'variable_43'
p2609
aS'=='
p2610
ag90
aS'||'
p2611
aS'strcmp'
p2612
ag7
aS'variable_9'
p2613
aS'->'
p2614
aS'variable_37'
p2615
ag41
ag90
ag42
ag193
aS'variable_44'
p2616
ag193
aS'variable_45'
p2617
ag10
aS'variable_80'
p2618
ag15
ag15
ag15
aS'if'
p2619
ag7
aS'variable_9'
p2620
aS'->'
p2621
aS'variable_43'
p2622
ag200
ag90
aS'&&'
p2623
ag45
aS'strcmp'
p2624
ag7
aS'variable_9'
p2625
aS'->'
p2626
aS'variable_37'
p2627
ag41
ag96
ag42
ag193
aS'variable_44'
p2628
ag193
aS'variable_45'
p2629
ag10
aS'variable_9'
p2630
aS'->'
p2631
aS'variable_37'
p2632
ag41
ag90
ag42
ag193
aS'variable_44'
p2633
ag193
aS'variable_45'
p2634
ag15
ag15
aa(lp2635
S'static'
p2636
aS'variable_0'
p2637
ag5
aS'func_0'
p2638
ag7
aS'variable_1'
p2639
ag5
aS'variable_2'
p2640
ag10
aS'variable_3'
p2641
ag5
aS'variable_4'
p2642
ag10
aS'variable_5'
p2643
ag5
aS'variable_6'
p2644
ag15
aS'http_status_t'
p2645
aS'variable_7'
p2646
ag18
aS'variable_8'
p2647
ag5
aS'variable_9'
p2648
ag10
ag5
aS'variable_10'
p2649
ag18
aS'const'
p2650
aS'char'
p2651
ag5
aS'variable_11'
p2652
ag18
aS'const'
p2653
aS'char'
p2654
ag5
aS'variable_12'
p2655
ag18
aS'int'
p2656
aS'variable_13'
p2657
ag18
aS'variable_0'
p2658
ag5
aS'variable_14'
p2659
ag18
aS'int'
p2660
aS'variable_15'
p2661
ag18
aS'int'
p2662
aS'variable_16'
p2663
ag18
aS'static'
p2664
aS'const'
p2665
aS'char'
p2666
ag5
aS'const'
p2667
aS'variable_17'
p2668
ag41
ag42
ag43
aS'if'
p2669
ag7
ag45
aS'variable_4'
p2670
aS'->'
p2671
aS'variable_18'
p2672
aS'&&'
p2673
aS'func_1'
p2674
ag7
aS'variable_2'
p2675
aS'->'
p2676
aS'variable_19'
p2677
aS'->'
p2678
aS'variable_20'
p2679
ag10
ag56
aS'localhost'
p2680
ag56
ag15
aS'&&'
p2681
aS'func_2'
p2682
ag7
aS'variable_2'
p2683
aS'->'
p2684
aS'variable_19'
p2685
aS'->'
p2686
aS'variable_20'
p2687
ag10
aS'variable_21'
p2688
ag15
ag15
aS'variable_10'
p2689
ag43
aS'func_3'
p2690
ag7
aS'variable_2'
p2691
aS'->'
p2692
aS'variable_22'
p2693
ag10
ag56
aS'auth'
p2694
ag72
aS'info'
p2695
ag56
ag10
aS'variable_23'
p2696
ag15
ag18
aS'if'
p2697
ag7
ag7
aS'variable_7'
p2698
ag43
aS'func_4'
p2699
ag7
aS'variable_4'
p2700
aS'->'
p2701
aS'variable_24'
p2702
ag10
aS'variable_2'
p2703
ag10
aS'NULL'
p2704
ag15
ag15
aS'!='
p2705
aS'variable_25'
p2706
ag15
aS'if'
p2707
ag7
aS'variable_4'
p2708
aS'->'
p2709
aS'variable_26'
p2710
aS'=='
p2711
ag90
aS'&&'
p2712
ag45
aS'strcmp'
p2713
ag7
aS'variable_4'
p2714
aS'->'
p2715
aS'variable_27'
p2716
ag41
ag96
ag42
ag10
ag56
aS'negotiate'
p2717
ag56
ag15
aS'&&'
p2718
ag45
aS'variable_2'
p2719
aS'->'
p2720
aS'variable_28'
p2721
ag41
ag96
ag42
ag15
aS'if'
p2722
ag7
aS'variable_10'
p2723
aS'&&'
p2724
ag45
aS'variable_2'
p2725
aS'->'
p2726
aS'variable_19'
p2727
aS'->'
p2728
aS'variable_29'
p2729
aS'&&'
p2730
ag45
aS'func_5'
p2731
ag7
aS'variable_2'
p2732
aS'->'
p2733
aS'variable_19'
p2734
aS'->'
p2735
aS'variable_30'
p2736
ag15
ag15
aS'if'
p2737
ag7
ag45
aS'variable_4'
p2738
aS'->'
p2739
aS'variable_31'
p2740
ag15
aS'for'
p2741
ag7
aS'variable_15'
p2742
ag43
ag96
ag18
aS'variable_15'
p2743
ag124
ag7
aS'int'
p2744
ag15
ag7
aS'sizeof'
p2745
ag7
aS'variable_17'
p2746
ag15
ag128
aS'sizeof'
p2747
ag7
aS'variable_17'
p2748
ag41
ag96
ag42
ag15
ag15
ag18
aS'variable_15'
p2749
aS'++'
p2750
ag15
aS'if'
p2751
ag7
ag7
aS'variable_9'
p2752
ag43
aS'func_6'
p2753
ag7
aS'variable_2'
p2754
aS'->'
p2755
aS'variable_22'
p2756
ag10
aS'variable_17'
p2757
ag41
aS'variable_15'
p2758
ag42
ag10
aS'variable_32'
p2759
ag15
ag15
aS'!='
p2760
aS'NULL'
p2761
ag15
aS'if'
p2762
ag7
aS'variable_33'
p2763
ag15
aS'if'
p2764
ag7
aS'variable_4'
p2765
aS'->'
p2766
aS'variable_34'
p2767
ag15
aS'for'
p2768
ag7
aS'variable_11'
p2769
ag43
ag7
aS'variable_11'
p2770
ag43
ag7
aS'char'
p2771
ag5
ag15
aS'func_7'
p2772
ag7
aS'variable_4'
p2773
aS'->'
p2774
aS'variable_34'
p2775
aS'->'
p2776
aS'variable_11'
p2777
ag15
ag15
aS'if'
p2778
ag7
ag45
aS'func_8'
p2779
ag7
aS'variable_2'
p2780
aS'->'
p2781
aS'variable_22'
p2782
ag10
aS'variable_11'
p2783
ag10
aS'variable_32'
p2784
ag15
ag15
aS'if'
p2785
ag7
aS'variable_6'
p2786
aS'&&'
p2787
aS'variable_4'
p2788
aS'->'
p2789
aS'variable_35'
p2790
aS'&&'
p2791
ag45
aS'func_9'
p2792
ag7
aS'variable_4'
p2793
aS'->'
p2794
aS'variable_35'
p2795
ag10
aS'variable_6'
p2796
ag15
ag15
aS'if'
p2797
ag7
ag7
aS'variable_9'
p2798
ag43
aS'func_10'
p2799
ag7
aS'variable_2'
p2800
aS'->'
p2801
aS'variable_22'
p2802
ag10
ag56
aS'copies'
p2803
ag56
ag10
aS'variable_36'
p2804
ag15
ag15
aS'!='
p2805
aS'NULL'
p2806
ag15
aS'if'
p2807
ag7
aS'variable_9'
p2808
aS'->'
p2809
aS'variable_37'
p2810
ag41
ag96
ag42
ag193
aS'variable_38'
p2811
ag124
ag90
aS'||'
p2812
aS'variable_9'
p2813
aS'->'
p2814
aS'variable_37'
p2815
ag41
ag96
ag42
ag193
aS'variable_38'
p2816
ag200
aS'variable_39'
p2817
ag15
aS'if'
p2818
ag7
ag7
aS'variable_9'
p2819
ag43
aS'func_11'
p2820
ag7
aS'variable_2'
p2821
aS'->'
p2822
aS'variable_22'
p2823
ag10
ag56
aS'job'
p2824
ag72
aS'sheets'
p2825
ag56
ag10
aS'variable_32'
p2826
ag15
ag15
aS'!='
p2827
aS'NULL'
p2828
ag15
aS'if'
p2829
ag7
aS'variable_9'
p2830
aS'->'
p2831
aS'variable_40'
p2832
aS'!='
p2833
aS'variable_41'
p2834
aS'&&'
p2835
aS'variable_9'
p2836
aS'->'
p2837
aS'variable_40'
p2838
aS'!='
p2839
aS'variable_42'
p2840
ag15
aS'if'
p2841
ag7
aS'variable_9'
p2842
aS'->'
p2843
aS'variable_43'
p2844
ag200
ag229
ag15
aS'for'
p2845
ag7
aS'variable_15'
p2846
ag43
ag96
ag18
aS'variable_15'
p2847
ag124
aS'variable_9'
p2848
aS'->'
p2849
aS'variable_43'
p2850
ag18
aS'variable_15'
p2851
aS'++'
p2852
ag15
aS'if'
p2853
ag7
aS'strcmp'
p2854
ag7
aS'variable_9'
p2855
aS'->'
p2856
aS'variable_37'
p2857
ag41
aS'variable_15'
p2858
ag42
ag193
aS'variable_44'
p2859
ag193
aS'variable_45'
p2860
ag10
ag56
aS'none'
p2861
ag56
ag15
aS'&&'
p2862
ag45
aS'func_12'
p2863
ag7
aS'variable_9'
p2864
aS'->'
p2865
aS'variable_37'
p2866
ag41
aS'variable_15'
p2867
ag42
ag193
aS'variable_44'
p2868
ag193
aS'variable_45'
p2869
ag15
ag15
aS'if'
p2870
ag7
ag7
aS'variable_9'
p2871
ag43
aS'func_13'
p2872
ag7
aS'variable_2'
p2873
aS'->'
p2874
aS'variable_22'
p2875
ag10
ag56
aS'number'
p2876
ag72
aS'up'
p2877
ag56
ag10
aS'variable_36'
p2878
ag15
ag15
aS'!='
p2879
aS'NULL'
p2880
ag15
aS'if'
p2881
ag7
aS'variable_9'
p2882
aS'->'
p2883
aS'variable_37'
p2884
ag41
ag96
ag42
ag193
aS'variable_38'
p2885
aS'!='
p2886
ag90
aS'&&'
p2887
aS'variable_9'
p2888
aS'->'
p2889
aS'variable_37'
p2890
ag41
ag96
ag42
ag193
aS'variable_38'
p2891
aS'!='
p2892
ag229
aS'&&'
p2893
aS'variable_9'
p2894
aS'->'
p2895
aS'variable_37'
p2896
ag41
ag96
ag42
ag193
aS'variable_38'
p2897
aS'!='
p2898
ag284
aS'&&'
p2899
aS'variable_9'
p2900
aS'->'
p2901
aS'variable_37'
p2902
ag41
ag96
ag42
ag193
aS'variable_38'
p2903
aS'!='
p2904
ag291
aS'&&'
p2905
aS'variable_9'
p2906
aS'->'
p2907
aS'variable_37'
p2908
ag41
ag96
ag42
ag193
aS'variable_38'
p2909
aS'!='
p2910
ag298
aS'&&'
p2911
aS'variable_9'
p2912
aS'->'
p2913
aS'variable_37'
p2914
ag41
ag96
ag42
ag193
aS'variable_38'
p2915
aS'!='
p2916
aS'16'
p2917
ag15
aS'if'
p2918
ag7
ag7
aS'variable_9'
p2919
ag43
aS'func_14'
p2920
ag7
aS'variable_2'
p2921
aS'->'
p2922
aS'variable_22'
p2923
ag10
ag56
aS'page'
p2924
ag72
aS'ranges'
p2925
ag56
ag10
aS'variable_46'
p2926
ag15
ag15
aS'!='
p2927
aS'NULL'
p2928
ag15
aS'for'
p2929
ag7
aS'variable_15'
p2930
ag43
ag96
ag10
aS'variable_16'
p2931
ag43
ag90
ag18
aS'variable_15'
p2932
ag124
aS'variable_9'
p2933
aS'->'
p2934
aS'variable_43'
p2935
ag18
aS'variable_15'
p2936
aS'++'
p2937
ag15
aS'if'
p2938
ag7
aS'variable_9'
p2939
aS'->'
p2940
aS'variable_37'
p2941
ag41
aS'variable_15'
p2942
ag42
ag193
aS'variable_47'
p2943
ag193
aS'variable_48'
p2944
ag124
aS'variable_16'
p2945
aS'||'
p2946
aS'variable_9'
p2947
aS'->'
p2948
aS'variable_37'
p2949
ag41
aS'variable_15'
p2950
ag42
ag193
aS'variable_47'
p2951
ag193
aS'variable_48'
p2952
ag200
aS'variable_9'
p2953
aS'->'
p2954
aS'variable_37'
p2955
ag41
aS'variable_15'
p2956
ag42
ag193
aS'variable_47'
p2957
ag193
aS'variable_49'
p2958
ag15
aS'variable_16'
p2959
ag43
aS'variable_9'
p2960
aS'->'
p2961
aS'variable_37'
p2962
ag41
aS'variable_15'
p2963
ag42
ag193
aS'variable_47'
p2964
ag193
aS'variable_49'
p2965
ag354
ag90
ag18
aS'if'
p2966
ag7
aS'variable_50'
p2967
aS'&&'
p2968
aS'func_15'
p2969
ag7
aS'variable_51'
p2970
ag15
ag200
ag43
aS'variable_50'
p2971
ag15
aS'if'
p2972
ag7
ag7
aS'variable_15'
p2973
ag43
aS'func_16'
p2974
ag7
aS'variable_2'
p2975
ag10
aS'variable_4'
p2976
ag15
ag15
ag124
ag96
ag15
aS'if'
p2977
ag7
aS'variable_15'
p2978
aS'=='
p2979
ag96
ag15
aS'if'
p2980
ag7
ag7
aS'variable_9'
p2981
ag43
aS'func_17'
p2982
ag7
aS'variable_2'
p2983
aS'->'
p2984
aS'variable_22'
p2985
ag10
ag56
aS'job'
p2986
ag72
aS'priority'
p2987
ag56
ag10
aS'variable_36'
p2988
ag15
ag15
aS'!='
p2989
aS'NULL'
p2990
ag15
aS'variable_13'
p2991
ag43
aS'variable_9'
p2992
aS'->'
p2993
aS'variable_37'
p2994
ag41
ag96
ag42
ag193
aS'variable_38'
p2995
ag18
aS'if'
p2996
ag7
ag7
aS'variable_12'
p2997
ag43
aS'func_18'
p2998
ag7
ag56
aS'job'
p2999
ag72
aS'priority'
p3000
ag56
ag10
aS'variable_4'
p3001
aS'->'
p3002
aS'variable_52'
p3003
ag10
aS'variable_4'
p3004
aS'->'
p3005
aS'variable_53'
p3006
ag15
ag15
aS'!='
p3007
aS'NULL'
p3008
ag15
aS'variable_13'
p3009
ag43
aS'atoi'
p3010
ag7
aS'variable_12'
p3011
ag15
ag18
aS'variable_13'
p3012
ag43
aS'50'
p3013
ag18
aS'if'
p3014
ag7
ag7
aS'variable_9'
p3015
ag43
aS'func_19'
p3016
ag7
aS'variable_2'
p3017
aS'->'
p3018
aS'variable_22'
p3019
ag10
ag56
aS'job'
p3020
ag72
aS'name'
p3021
ag56
ag10
aS'variable_32'
p3022
ag15
ag15
aS'=='
p3023
aS'NULL'
p3024
ag15
aS'if'
p3025
ag7
ag7
aS'variable_9'
p3026
aS'->'
p3027
aS'variable_40'
p3028
aS'!='
p3029
aS'variable_42'
p3030
aS'&&'
p3031
aS'variable_9'
p3032
aS'->'
p3033
aS'variable_40'
p3034
aS'!='
p3035
aS'variable_54'
p3036
ag15
aS'||'
p3037
aS'variable_9'
p3038
aS'->'
p3039
aS'variable_43'
p3040
aS'!='
p3041
ag90
ag15
aS'if'
p3042
ag7
ag45
aS'func_20'
p3043
ag7
aS'variable_9'
p3044
ag15
ag15
aS'if'
p3045
ag7
ag7
aS'variable_14'
p3046
ag43
aS'func_21'
p3047
ag7
aS'variable_13'
p3048
ag10
aS'variable_4'
p3049
aS'->'
p3050
aS'variable_55'
p3051
ag15
ag15
aS'=='
p3052
aS'NULL'
p3053
ag15
aS'variable_14'
p3054
aS'->'
p3055
aS'variable_56'
p3056
ag43
aS'variable_4'
p3057
aS'->'
p3058
aS'variable_57'
p3059
ag449
ag7
aS'variable_58'
p3060
ag451
aS'variable_59'
p3061
ag15
ag18
aS'variable_14'
p3062
aS'->'
p3063
aS'variable_60'
p3064
ag43
aS'variable_2'
p3065
aS'->'
p3066
aS'variable_22'
p3067
ag18
aS'variable_14'
p3068
aS'->'
p3069
aS'variable_61'
p3070
ag43
ag90
ag18
aS'variable_2'
p3071
aS'->'
p3072
aS'variable_22'
p3073
ag43
aS'func_22'
p3074
ag7
aS'variable_14'
p3075
aS'->'
p3076
aS'variable_60'
p3077
aS'->'
p3078
aS'variable_22'
p3079
ag193
aS'variable_62'
p3080
ag193
aS'variable_63'
p3081
ag15
ag18
aS'variable_9'
p3082
ag43
aS'func_23'
p3083
ag7
aS'variable_14'
p3084
aS'->'
p3085
aS'variable_60'
p3086
ag10
ag56
aS'requesting'
p3087
ag72
aS'user'
p3088
ag72
aS'name'
p3089
ag56
ag10
aS'variable_42'
p3090
ag15
ag18
aS'if'
p3091
ag7
ag45
aS'variable_9'
p3092
ag15
aS'variable_9'
p3093
aS'->'
p3094
aS'variable_64'
p3095
ag43
aS'variable_65'
p3096
ag18
aS'variable_9'
p3097
aS'->'
p3098
aS'variable_55'
p3099
ag43
aS'func_24'
p3100
ag7
ag56
aS'job'
p3101
ag72
aS'originating'
p3102
ag72
aS'user'
p3103
ag72
aS'name'
p3104
ag56
ag15
ag18
aS'if'
p3105
ag7
ag7
aS'variable_9'
p3106
ag43
aS'func_25'
p3107
ag7
aS'variable_2'
p3108
aS'->'
p3109
aS'variable_22'
p3110
ag10
ag56
aS'job'
p3111
ag72
aS'name'
p3112
ag56
ag10
aS'variable_42'
p3113
ag15
ag15
aS'!='
p3114
aS'NULL'
p3115
ag15
aS'if'
p3116
ag7
ag7
aS'variable_9'
p3117
ag43
aS'func_26'
p3118
ag7
aS'variable_14'
p3119
aS'->'
p3120
aS'variable_60'
p3121
ag10
ag56
aS'job'
p3122
ag72
aS'originating'
p3123
ag72
aS'host'
p3124
ag72
aS'name'
p3125
ag56
ag10
aS'variable_32'
p3126
ag15
ag15
aS'!='
p3127
aS'NULL'
p3128
ag15
aS'if'
p3129
ag7
aS'variable_9'
p3130
aS'->'
p3131
aS'variable_40'
p3132
aS'!='
p3133
aS'variable_42'
p3134
aS'||'
p3135
aS'variable_9'
p3136
aS'->'
p3137
aS'variable_43'
p3138
aS'!='
p3139
ag90
aS'||'
p3140
aS'strcmp'
p3141
ag7
aS'variable_2'
p3142
aS'->'
p3143
aS'variable_19'
p3144
aS'->'
p3145
aS'variable_20'
p3146
ag10
ag56
aS'localhost'
p3147
ag56
ag15
ag15
aS'switch'
p3148
ag7
aS'variable_9'
p3149
aS'->'
p3150
aS'variable_40'
p3151
ag15
aS'for'
p3152
ag7
aS'variable_15'
p3153
ag43
ag96
ag18
aS'variable_15'
p3154
ag124
aS'variable_9'
p3155
aS'->'
p3156
aS'variable_43'
p3157
ag18
aS'variable_15'
p3158
aS'++'
p3159
ag15
aS'variable_9'
p3160
aS'->'
p3161
aS'variable_37'
p3162
ag41
aS'variable_15'
p3163
ag42
ag193
aS'variable_44'
p3164
ag193
aS'variable_45'
p3165
ag43
aS'NULL'
p3166
ag18
aS'if'
p3167
ag7
aS'variable_9'
p3168
aS'->'
p3169
aS'variable_37'
p3170
ag41
aS'variable_15'
p3171
ag42
ag193
aS'variable_44'
p3172
ag193
aS'variable_66'
p3173
ag15
aS'variable_9'
p3174
aS'->'
p3175
aS'variable_37'
p3176
ag41
aS'variable_15'
p3177
ag42
ag193
aS'variable_44'
p3178
ag193
aS'variable_66'
p3179
ag43
aS'NULL'
p3180
ag18
aS'variable_9'
p3181
aS'->'
p3182
aS'variable_40'
p3183
ag43
aS'variable_42'
p3184
ag18
aS'variable_9'
p3185
aS'->'
p3186
aS'variable_43'
p3187
ag43
ag90
ag18
aS'variable_9'
p3188
aS'->'
p3189
aS'variable_37'
p3190
ag41
ag96
ag42
ag193
aS'variable_44'
p3191
ag193
aS'variable_45'
p3192
ag43
aS'func_27'
p3193
ag7
aS'variable_2'
p3194
aS'->'
p3195
aS'variable_19'
p3196
aS'->'
p3197
aS'variable_20'
p3198
ag15
ag18
aS'variable_9'
p3199
aS'->'
p3200
aS'variable_64'
p3201
ag43
aS'variable_65'
p3202
ag18
aS'variable_9'
p3203
ag43
aS'func_28'
p3204
ag7
aS'variable_14'
p3205
aS'->'
p3206
aS'variable_60'
p3207
ag10
aS'variable_65'
p3208
ag10
aS'variable_36'
p3209
ag10
ag56
aS'time'
p3210
ag72
aS'at'
p3211
ag72
aS'processing'
p3212
ag56
ag10
ag96
ag15
ag18
aS'variable_9'
p3213
aS'->'
p3214
aS'variable_40'
p3215
ag43
aS'variable_67'
p3216
ag18
aS'variable_9'
p3217
ag43
aS'func_29'
p3218
ag7
aS'variable_14'
p3219
aS'->'
p3220
aS'variable_60'
p3221
ag10
aS'variable_65'
p3222
ag10
aS'variable_36'
p3223
ag10
ag56
aS'time'
p3224
ag72
aS'at'
p3225
ag72
aS'completed'
p3226
ag56
ag10
ag96
ag15
ag18
aS'variable_9'
p3227
aS'->'
p3228
aS'variable_40'
p3229
ag43
aS'variable_67'
p3230
ag18
aS'variable_14'
p3231
aS'->'
p3232
aS'variable_68'
p3233
ag43
aS'func_30'
p3234
ag7
aS'variable_14'
p3235
aS'->'
p3236
aS'variable_60'
p3237
ag10
aS'variable_65'
p3238
ag10
aS'variable_69'
p3239
ag10
ag56
aS'job'
p3240
ag72
aS'state'
p3241
ag56
ag10
aS'variable_70'
p3242
ag15
ag18
aS'variable_14'
p3243
aS'->'
p3244
aS'variable_71'
p3245
ag43
ag7
aS'variable_72'
p3246
ag15
aS'variable_14'
p3247
aS'->'
p3248
aS'variable_68'
p3249
aS'->'
p3250
aS'variable_37'
p3251
ag41
ag96
ag42
ag193
aS'variable_38'
p3252
ag18
aS'variable_14'
p3253
aS'->'
p3254
aS'variable_73'
p3255
ag43
aS'func_31'
p3256
ag7
aS'variable_14'
p3257
aS'->'
p3258
aS'variable_60'
p3259
ag10
aS'variable_65'
p3260
ag10
aS'variable_41'
p3261
ag10
ag56
aS'job'
p3262
ag72
aS'state'
p3263
ag72
aS'reasons'
p3264
ag56
ag10
aS'NULL'
p3265
ag10
ag56
aS'job'
p3266
ag72
aS'incoming'
p3267
ag56
ag15
ag18
aS'variable_14'
p3268
aS'->'
p3269
aS'variable_74'
p3270
ag43
aS'func_32'
p3271
ag7
aS'variable_14'
p3272
aS'->'
p3273
aS'variable_60'
p3274
ag10
aS'variable_65'
p3275
ag10
aS'variable_36'
p3276
ag10
ag56
aS'job'
p3277
ag72
aS'media'
p3278
ag72
aS'sheets'
p3279
ag72
aS'completed'
p3280
ag56
ag10
ag96
ag15
ag18
aS'if'
p3281
ag7
ag7
aS'variable_9'
p3282
ag43
aS'func_33'
p3283
ag7
aS'variable_14'
p3284
aS'->'
p3285
aS'variable_60'
p3286
ag10
ag56
aS'job'
p3287
ag72
ag679
ag72
aS'octets'
p3288
ag56
ag10
aS'variable_36'
p3289
ag15
ag15
aS'!='
p3290
aS'NULL'
p3291
ag15
aS'variable_9'
p3292
aS'->'
p3293
aS'variable_37'
p3294
ag41
ag96
ag42
ag193
aS'variable_38'
p3295
ag43
ag96
ag18
aS'if'
p3296
ag7
ag7
aS'variable_9'
p3297
ag43
aS'func_34'
p3298
ag7
aS'variable_14'
p3299
aS'->'
p3300
aS'variable_60'
p3301
ag10
ag56
aS'job'
p3302
ag72
aS'hold'
p3303
ag72
aS'until'
p3304
ag56
ag10
aS'variable_41'
p3305
ag15
ag15
aS'=='
p3306
aS'NULL'
p3307
ag15
aS'variable_9'
p3308
ag43
aS'func_35'
p3309
ag7
aS'variable_14'
p3310
aS'->'
p3311
aS'variable_60'
p3312
ag10
ag56
aS'job'
p3313
ag72
aS'hold'
p3314
ag72
aS'until'
p3315
ag56
ag10
aS'variable_42'
p3316
ag15
ag18
aS'if'
p3317
ag7
ag45
aS'variable_9'
p3318
ag15
aS'if'
p3319
ag7
ag7
aS'variable_12'
p3320
ag43
aS'func_36'
p3321
ag7
ag56
aS'job'
p3322
ag72
aS'hold'
p3323
ag72
aS'until'
p3324
ag56
ag10
aS'variable_4'
p3325
aS'->'
p3326
aS'variable_52'
p3327
ag10
aS'variable_4'
p3328
aS'->'
p3329
aS'variable_53'
p3330
ag15
ag15
aS'=='
p3331
aS'NULL'
p3332
ag15
aS'variable_12'
p3333
ag43
ag56
aS'no'
p3334
ag72
aS'hold'
p3335
ag56
ag18
aS'variable_9'
p3336
ag43
aS'func_37'
p3337
ag7
aS'variable_14'
p3338
aS'->'
p3339
aS'variable_60'
p3340
ag10
aS'variable_65'
p3341
ag10
aS'variable_41'
p3342
ag10
ag56
aS'job'
p3343
ag72
aS'hold'
p3344
ag72
aS'until'
p3345
ag56
ag10
aS'NULL'
p3346
ag10
aS'variable_12'
p3347
ag15
ag18
aS'if'
p3348
ag7
aS'variable_9'
p3349
aS'&&'
p3350
aS'strcmp'
p3351
ag7
aS'variable_9'
p3352
aS'->'
p3353
aS'variable_37'
p3354
ag41
ag96
ag42
ag193
aS'variable_44'
p3355
ag193
aS'variable_45'
p3356
ag10
ag56
aS'no'
p3357
ag72
aS'hold'
p3358
ag56
ag15
ag15
aS'variable_14'
p3359
aS'->'
p3360
aS'variable_68'
p3361
aS'->'
p3362
aS'variable_37'
p3363
ag41
ag96
ag42
ag193
aS'variable_38'
p3364
ag43
aS'variable_75'
p3365
ag18
aS'variable_14'
p3366
aS'->'
p3367
aS'variable_71'
p3368
ag43
aS'variable_75'
p3369
ag18
aS'if'
p3370
ag7
aS'variable_14'
p3371
aS'->'
p3372
aS'variable_60'
p3373
aS'->'
p3374
aS'variable_22'
p3375
ag193
aS'variable_62'
p3376
ag193
aS'variable_63'
p3377
aS'=='
p3378
aS'variable_76'
p3379
ag15
aS'variable_14'
p3380
aS'->'
p3381
aS'variable_77'
p3382
ag43
aS'time'
p3383
ag7
aS'NULL'
p3384
ag15
ag354
aS'variable_78'
p3385
ag18
aS'variable_14'
p3386
aS'->'
p3387
aS'variable_68'
p3388
aS'->'
p3389
aS'variable_37'
p3390
ag41
ag96
ag42
ag193
aS'variable_38'
p3391
ag43
aS'variable_75'
p3392
ag18
aS'variable_14'
p3393
aS'->'
p3394
aS'variable_71'
p3395
ag43
aS'variable_75'
p3396
ag18
aS'variable_14'
p3397
aS'->'
p3398
aS'variable_68'
p3399
aS'->'
p3400
aS'variable_37'
p3401
ag41
ag96
ag42
ag193
aS'variable_38'
p3402
ag43
aS'variable_79'
p3403
ag18
aS'variable_14'
p3404
aS'->'
p3405
aS'variable_71'
p3406
ag43
aS'variable_79'
p3407
ag18
aS'if'
p3408
ag7
ag45
ag7
aS'variable_4'
p3409
aS'->'
p3410
aS'variable_57'
p3411
ag449
aS'variable_59'
p3412
ag15
aS'||'
p3413
aS'variable_80'
p3414
ag15
aS'if'
p3415
ag7
ag7
aS'variable_9'
p3416
ag43
aS'func_38'
p3417
ag7
aS'variable_14'
p3418
aS'->'
p3419
aS'variable_60'
p3420
ag10
ag56
aS'job'
p3421
ag72
aS'sheets'
p3422
ag56
ag10
aS'variable_32'
p3423
ag15
ag15
aS'=='
p3424
aS'NULL'
p3425
ag15
aS'variable_9'
p3426
ag43
aS'func_39'
p3427
ag7
aS'variable_14'
p3428
aS'->'
p3429
aS'variable_60'
p3430
ag10
aS'variable_65'
p3431
ag10
aS'variable_42'
p3432
ag10
ag56
aS'job'
p3433
ag72
aS'sheets'
p3434
ag56
ag10
ag229
ag10
aS'NULL'
p3435
ag10
aS'NULL'
p3436
ag15
ag18
aS'variable_9'
p3437
aS'->'
p3438
aS'variable_37'
p3439
ag41
ag96
ag42
ag193
aS'variable_44'
p3440
ag193
aS'variable_45'
p3441
ag43
aS'func_40'
p3442
ag7
aS'variable_4'
p3443
aS'->'
p3444
aS'variable_81'
p3445
ag41
ag96
ag42
ag15
ag18
aS'variable_9'
p3446
aS'->'
p3447
aS'variable_37'
p3448
ag41
ag90
ag42
ag193
aS'variable_44'
p3449
ag193
aS'variable_45'
p3450
ag43
aS'func_41'
p3451
ag7
aS'variable_4'
p3452
aS'->'
p3453
aS'variable_81'
p3454
ag41
ag90
ag42
ag15
ag18
aS'if'
p3455
ag7
aS'variable_80'
p3456
ag15
aS'if'
p3457
ag7
aS'variable_82'
p3458
ag15
aS'if'
p3459
ag7
aS'strcmp'
p3460
ag7
aS'variable_9'
p3461
aS'->'
p3462
aS'variable_37'
p3463
ag41
ag96
ag42
ag193
aS'variable_44'
p3464
ag193
aS'variable_45'
p3465
ag10
aS'variable_80'
p3466
ag15
aS'&&'
p3467
ag7
aS'variable_9'
p3468
aS'->'
p3469
aS'variable_43'
p3470
aS'=='
p3471
ag90
aS'||'
p3472
aS'strcmp'
p3473
ag7
aS'variable_9'
p3474
aS'->'
p3475
aS'variable_37'
p3476
ag41
ag90
ag42
ag193
aS'variable_44'
p3477
ag193
aS'variable_45'
p3478
ag10
aS'variable_80'
p3479
ag15
ag15
ag15
aa(lp3480
S'static'
p3481
aS'variable_0'
p3482
ag5
aS'func_0'
p3483
ag7
aS'variable_1'
p3484
ag5
aS'variable_2'
p3485
ag10
aS'variable_3'
p3486
ag5
aS'variable_4'
p3487
ag10
aS'variable_5'
p3488
ag5
aS'variable_6'
p3489
ag15
aS'http_status_t'
p3490
aS'variable_7'
p3491
ag18
aS'variable_8'
p3492
ag5
aS'variable_9'
p3493
ag10
ag5
aS'variable_10'
p3494
ag18
aS'const'
p3495
aS'char'
p3496
ag5
aS'variable_11'
p3497
ag18
aS'const'
p3498
aS'char'
p3499
ag5
aS'variable_12'
p3500
ag18
aS'int'
p3501
aS'variable_13'
p3502
ag18
aS'variable_0'
p3503
ag5
aS'variable_14'
p3504
ag18
aS'int'
p3505
aS'variable_15'
p3506
ag18
aS'int'
p3507
aS'variable_16'
p3508
ag18
aS'static'
p3509
aS'const'
p3510
aS'char'
p3511
ag5
aS'const'
p3512
aS'variable_17'
p3513
ag41
ag42
ag43
aS'if'
p3514
ag7
ag45
aS'variable_4'
p3515
aS'->'
p3516
aS'variable_18'
p3517
aS'&&'
p3518
aS'func_1'
p3519
ag7
aS'variable_2'
p3520
aS'->'
p3521
aS'variable_19'
p3522
aS'->'
p3523
aS'variable_20'
p3524
ag10
ag56
aS'localhost'
p3525
ag56
ag15
aS'&&'
p3526
aS'func_2'
p3527
ag7
aS'variable_2'
p3528
aS'->'
p3529
aS'variable_19'
p3530
aS'->'
p3531
aS'variable_20'
p3532
ag10
aS'variable_21'
p3533
ag15
ag15
aS'variable_10'
p3534
ag43
aS'func_3'
p3535
ag7
aS'variable_2'
p3536
aS'->'
p3537
aS'variable_22'
p3538
ag10
ag56
aS'auth'
p3539
ag72
aS'info'
p3540
ag56
ag10
aS'variable_23'
p3541
ag15
ag18
aS'if'
p3542
ag7
ag7
aS'variable_7'
p3543
ag43
aS'func_4'
p3544
ag7
aS'variable_4'
p3545
aS'->'
p3546
aS'variable_24'
p3547
ag10
aS'variable_2'
p3548
ag10
aS'NULL'
p3549
ag15
ag15
aS'!='
p3550
aS'variable_25'
p3551
ag15
aS'if'
p3552
ag7
aS'variable_4'
p3553
aS'->'
p3554
aS'variable_26'
p3555
aS'=='
p3556
ag90
aS'&&'
p3557
ag45
aS'strcmp'
p3558
ag7
aS'variable_4'
p3559
aS'->'
p3560
aS'variable_27'
p3561
ag41
ag96
ag42
ag10
ag56
aS'negotiate'
p3562
ag56
ag15
aS'&&'
p3563
ag45
aS'variable_2'
p3564
aS'->'
p3565
aS'variable_28'
p3566
ag41
ag96
ag42
ag15
aS'if'
p3567
ag7
aS'variable_10'
p3568
aS'&&'
p3569
ag45
aS'variable_2'
p3570
aS'->'
p3571
aS'variable_19'
p3572
aS'->'
p3573
aS'variable_29'
p3574
aS'&&'
p3575
ag45
aS'func_5'
p3576
ag7
aS'variable_2'
p3577
aS'->'
p3578
aS'variable_19'
p3579
aS'->'
p3580
aS'variable_30'
p3581
ag15
ag15
aS'if'
p3582
ag7
ag45
aS'variable_4'
p3583
aS'->'
p3584
aS'variable_31'
p3585
ag15
aS'for'
p3586
ag7
aS'variable_15'
p3587
ag43
ag96
ag18
aS'variable_15'
p3588
ag124
ag7
aS'int'
p3589
ag15
ag7
aS'sizeof'
p3590
ag7
aS'variable_17'
p3591
ag15
ag128
aS'sizeof'
p3592
ag7
aS'variable_17'
p3593
ag41
ag96
ag42
ag15
ag15
ag18
aS'variable_15'
p3594
aS'++'
p3595
ag15
aS'if'
p3596
ag7
ag7
aS'variable_9'
p3597
ag43
aS'func_6'
p3598
ag7
aS'variable_2'
p3599
aS'->'
p3600
aS'variable_22'
p3601
ag10
aS'variable_17'
p3602
ag41
aS'variable_15'
p3603
ag42
ag10
aS'variable_32'
p3604
ag15
ag15
aS'!='
p3605
aS'NULL'
p3606
ag15
aS'if'
p3607
ag7
aS'variable_33'
p3608
ag15
aS'if'
p3609
ag7
aS'variable_4'
p3610
aS'->'
p3611
aS'variable_34'
p3612
ag15
aS'for'
p3613
ag7
aS'variable_11'
p3614
ag43
ag7
aS'variable_11'
p3615
ag43
ag7
aS'char'
p3616
ag5
ag15
aS'func_7'
p3617
ag7
aS'variable_4'
p3618
aS'->'
p3619
aS'variable_34'
p3620
aS'->'
p3621
aS'variable_11'
p3622
ag15
ag15
aS'if'
p3623
ag7
ag45
aS'func_8'
p3624
ag7
aS'variable_2'
p3625
aS'->'
p3626
aS'variable_22'
p3627
ag10
aS'variable_11'
p3628
ag10
aS'variable_32'
p3629
ag15
ag15
aS'if'
p3630
ag7
aS'variable_6'
p3631
aS'&&'
p3632
aS'variable_4'
p3633
aS'->'
p3634
aS'variable_35'
p3635
aS'&&'
p3636
ag45
aS'func_9'
p3637
ag7
aS'variable_4'
p3638
aS'->'
p3639
aS'variable_35'
p3640
ag10
aS'variable_6'
p3641
ag15
ag15
aS'if'
p3642
ag7
ag7
aS'variable_9'
p3643
ag43
aS'func_10'
p3644
ag7
aS'variable_2'
p3645
aS'->'
p3646
aS'variable_22'
p3647
ag10
ag56
aS'copies'
p3648
ag56
ag10
aS'variable_36'
p3649
ag15
ag15
aS'!='
p3650
aS'NULL'
p3651
ag15
aS'if'
p3652
ag7
aS'variable_9'
p3653
aS'->'
p3654
aS'variable_37'
p3655
ag41
ag96
ag42
ag193
aS'variable_38'
p3656
ag124
ag90
aS'||'
p3657
aS'variable_9'
p3658
aS'->'
p3659
aS'variable_37'
p3660
ag41
ag96
ag42
ag193
aS'variable_38'
p3661
ag200
aS'variable_39'
p3662
ag15
aS'if'
p3663
ag7
ag7
aS'variable_9'
p3664
ag43
aS'func_11'
p3665
ag7
aS'variable_2'
p3666
aS'->'
p3667
aS'variable_22'
p3668
ag10
ag56
aS'job'
p3669
ag72
aS'sheets'
p3670
ag56
ag10
aS'variable_32'
p3671
ag15
ag15
aS'!='
p3672
aS'NULL'
p3673
ag15
aS'if'
p3674
ag7
aS'variable_9'
p3675
aS'->'
p3676
aS'variable_40'
p3677
aS'!='
p3678
aS'variable_41'
p3679
aS'&&'
p3680
aS'variable_9'
p3681
aS'->'
p3682
aS'variable_40'
p3683
aS'!='
p3684
aS'variable_42'
p3685
ag15
aS'if'
p3686
ag7
aS'variable_9'
p3687
aS'->'
p3688
aS'variable_43'
p3689
ag200
ag229
ag15
aS'for'
p3690
ag7
aS'variable_15'
p3691
ag43
ag96
ag18
aS'variable_15'
p3692
ag124
aS'variable_9'
p3693
aS'->'
p3694
aS'variable_43'
p3695
ag18
aS'variable_15'
p3696
aS'++'
p3697
ag15
aS'if'
p3698
ag7
aS'strcmp'
p3699
ag7
aS'variable_9'
p3700
aS'->'
p3701
aS'variable_37'
p3702
ag41
aS'variable_15'
p3703
ag42
ag193
aS'variable_44'
p3704
ag193
aS'variable_45'
p3705
ag10
ag56
aS'none'
p3706
ag56
ag15
aS'&&'
p3707
ag45
aS'func_12'
p3708
ag7
aS'variable_9'
p3709
aS'->'
p3710
aS'variable_37'
p3711
ag41
aS'variable_15'
p3712
ag42
ag193
aS'variable_44'
p3713
ag193
aS'variable_45'
p3714
ag15
ag15
aS'if'
p3715
ag7
ag7
aS'variable_9'
p3716
ag43
aS'func_13'
p3717
ag7
aS'variable_2'
p3718
aS'->'
p3719
aS'variable_22'
p3720
ag10
ag56
aS'number'
p3721
ag72
aS'up'
p3722
ag56
ag10
aS'variable_36'
p3723
ag15
ag15
aS'!='
p3724
aS'NULL'
p3725
ag15
aS'if'
p3726
ag7
aS'variable_9'
p3727
aS'->'
p3728
aS'variable_37'
p3729
ag41
ag96
ag42
ag193
aS'variable_38'
p3730
aS'!='
p3731
ag90
aS'&&'
p3732
aS'variable_9'
p3733
aS'->'
p3734
aS'variable_37'
p3735
ag41
ag96
ag42
ag193
aS'variable_38'
p3736
aS'!='
p3737
ag229
aS'&&'
p3738
aS'variable_9'
p3739
aS'->'
p3740
aS'variable_37'
p3741
ag41
ag96
ag42
ag193
aS'variable_38'
p3742
aS'!='
p3743
ag284
aS'&&'
p3744
aS'variable_9'
p3745
aS'->'
p3746
aS'variable_37'
p3747
ag41
ag96
ag42
ag193
aS'variable_38'
p3748
aS'!='
p3749
ag291
aS'&&'
p3750
aS'variable_9'
p3751
aS'->'
p3752
aS'variable_37'
p3753
ag41
ag96
ag42
ag193
aS'variable_38'
p3754
aS'!='
p3755
ag298
aS'&&'
p3756
aS'variable_9'
p3757
aS'->'
p3758
aS'variable_37'
p3759
ag41
ag96
ag42
ag193
aS'variable_38'
p3760
aS'!='
p3761
aS'16'
p3762
ag15
aS'if'
p3763
ag7
ag7
aS'variable_9'
p3764
ag43
aS'func_14'
p3765
ag7
aS'variable_2'
p3766
aS'->'
p3767
aS'variable_22'
p3768
ag10
ag56
aS'page'
p3769
ag72
aS'ranges'
p3770
ag56
ag10
aS'variable_46'
p3771
ag15
ag15
aS'!='
p3772
aS'NULL'
p3773
ag15
aS'for'
p3774
ag7
aS'variable_15'
p3775
ag43
ag96
ag10
aS'variable_16'
p3776
ag43
ag90
ag18
aS'variable_15'
p3777
ag124
aS'variable_9'
p3778
aS'->'
p3779
aS'variable_43'
p3780
ag18
aS'variable_15'
p3781
aS'++'
p3782
ag15
aS'if'
p3783
ag7
aS'variable_9'
p3784
aS'->'
p3785
aS'variable_37'
p3786
ag41
aS'variable_15'
p3787
ag42
ag193
aS'variable_47'
p3788
ag193
aS'variable_48'
p3789
ag124
aS'variable_16'
p3790
aS'||'
p3791
aS'variable_9'
p3792
aS'->'
p3793
aS'variable_37'
p3794
ag41
aS'variable_15'
p3795
ag42
ag193
aS'variable_47'
p3796
ag193
aS'variable_48'
p3797
ag200
aS'variable_9'
p3798
aS'->'
p3799
aS'variable_37'
p3800
ag41
aS'variable_15'
p3801
ag42
ag193
aS'variable_47'
p3802
ag193
aS'variable_49'
p3803
ag15
aS'variable_16'
p3804
ag43
aS'variable_9'
p3805
aS'->'
p3806
aS'variable_37'
p3807
ag41
aS'variable_15'
p3808
ag42
ag193
aS'variable_47'
p3809
ag193
aS'variable_49'
p3810
ag354
ag90
ag18
aS'if'
p3811
ag7
aS'variable_50'
p3812
aS'&&'
p3813
aS'func_15'
p3814
ag7
aS'variable_51'
p3815
ag15
ag200
ag43
aS'variable_50'
p3816
ag15
aS'if'
p3817
ag7
ag7
aS'variable_15'
p3818
ag43
aS'func_16'
p3819
ag7
aS'variable_2'
p3820
ag10
aS'variable_4'
p3821
ag15
ag15
ag124
ag96
ag15
aS'if'
p3822
ag7
aS'variable_15'
p3823
aS'=='
p3824
ag96
ag15
aS'if'
p3825
ag7
ag7
aS'variable_9'
p3826
ag43
aS'func_17'
p3827
ag7
aS'variable_2'
p3828
aS'->'
p3829
aS'variable_22'
p3830
ag10
ag56
aS'job'
p3831
ag72
aS'priority'
p3832
ag56
ag10
aS'variable_36'
p3833
ag15
ag15
aS'!='
p3834
aS'NULL'
p3835
ag15
aS'variable_13'
p3836
ag43
aS'variable_9'
p3837
aS'->'
p3838
aS'variable_37'
p3839
ag41
ag96
ag42
ag193
aS'variable_38'
p3840
ag18
aS'if'
p3841
ag7
ag7
aS'variable_12'
p3842
ag43
aS'func_18'
p3843
ag7
ag56
aS'job'
p3844
ag72
aS'priority'
p3845
ag56
ag10
aS'variable_4'
p3846
aS'->'
p3847
aS'variable_52'
p3848
ag10
aS'variable_4'
p3849
aS'->'
p3850
aS'variable_53'
p3851
ag15
ag15
aS'!='
p3852
aS'NULL'
p3853
ag15
aS'variable_13'
p3854
ag43
aS'atoi'
p3855
ag7
aS'variable_12'
p3856
ag15
ag18
aS'variable_13'
p3857
ag43
aS'50'
p3858
ag18
aS'if'
p3859
ag7
ag7
aS'variable_9'
p3860
ag43
aS'func_19'
p3861
ag7
aS'variable_2'
p3862
aS'->'
p3863
aS'variable_22'
p3864
ag10
ag56
aS'job'
p3865
ag72
aS'name'
p3866
ag56
ag10
aS'variable_32'
p3867
ag15
ag15
aS'=='
p3868
aS'NULL'
p3869
ag15
aS'if'
p3870
ag7
ag7
aS'variable_9'
p3871
aS'->'
p3872
aS'variable_40'
p3873
aS'!='
p3874
aS'variable_42'
p3875
aS'&&'
p3876
aS'variable_9'
p3877
aS'->'
p3878
aS'variable_40'
p3879
aS'!='
p3880
aS'variable_54'
p3881
ag15
aS'||'
p3882
aS'variable_9'
p3883
aS'->'
p3884
aS'variable_43'
p3885
aS'!='
p3886
ag90
ag15
aS'if'
p3887
ag7
ag45
aS'func_20'
p3888
ag7
aS'variable_9'
p3889
ag15
ag15
aS'if'
p3890
ag7
ag7
aS'variable_14'
p3891
ag43
aS'func_21'
p3892
ag7
aS'variable_13'
p3893
ag10
aS'variable_4'
p3894
aS'->'
p3895
aS'variable_55'
p3896
ag15
ag15
aS'=='
p3897
aS'NULL'
p3898
ag15
aS'variable_14'
p3899
aS'->'
p3900
aS'variable_56'
p3901
ag43
aS'variable_4'
p3902
aS'->'
p3903
aS'variable_57'
p3904
ag449
ag7
aS'variable_58'
p3905
ag451
aS'variable_59'
p3906
ag15
ag18
aS'variable_14'
p3907
aS'->'
p3908
aS'variable_60'
p3909
ag43
aS'variable_2'
p3910
aS'->'
p3911
aS'variable_22'
p3912
ag18
aS'variable_14'
p3913
aS'->'
p3914
aS'variable_61'
p3915
ag43
ag90
ag18
aS'variable_2'
p3916
aS'->'
p3917
aS'variable_22'
p3918
ag43
aS'func_22'
p3919
ag7
aS'variable_14'
p3920
aS'->'
p3921
aS'variable_60'
p3922
aS'->'
p3923
aS'variable_22'
p3924
ag193
aS'variable_62'
p3925
ag193
aS'variable_63'
p3926
ag15
ag18
aS'variable_9'
p3927
ag43
aS'func_23'
p3928
ag7
aS'variable_14'
p3929
aS'->'
p3930
aS'variable_60'
p3931
ag10
ag56
aS'requesting'
p3932
ag72
aS'user'
p3933
ag72
aS'name'
p3934
ag56
ag10
aS'variable_42'
p3935
ag15
ag18
aS'if'
p3936
ag7
ag45
aS'variable_9'
p3937
ag15
aS'variable_9'
p3938
aS'->'
p3939
aS'variable_64'
p3940
ag43
aS'variable_65'
p3941
ag18
aS'variable_9'
p3942
aS'->'
p3943
aS'variable_55'
p3944
ag43
aS'func_24'
p3945
ag7
ag56
aS'job'
p3946
ag72
aS'originating'
p3947
ag72
aS'user'
p3948
ag72
aS'name'
p3949
ag56
ag15
ag18
aS'if'
p3950
ag7
ag7
aS'variable_9'
p3951
ag43
aS'func_25'
p3952
ag7
aS'variable_2'
p3953
aS'->'
p3954
aS'variable_22'
p3955
ag10
ag56
aS'job'
p3956
ag72
aS'name'
p3957
ag56
ag10
aS'variable_42'
p3958
ag15
ag15
aS'!='
p3959
aS'NULL'
p3960
ag15
aS'if'
p3961
ag7
ag7
aS'variable_9'
p3962
ag43
aS'func_26'
p3963
ag7
aS'variable_14'
p3964
aS'->'
p3965
aS'variable_60'
p3966
ag10
ag56
aS'job'
p3967
ag72
aS'originating'
p3968
ag72
aS'host'
p3969
ag72
aS'name'
p3970
ag56
ag10
aS'variable_32'
p3971
ag15
ag15
aS'!='
p3972
aS'NULL'
p3973
ag15
aS'if'
p3974
ag7
aS'variable_9'
p3975
aS'->'
p3976
aS'variable_40'
p3977
aS'!='
p3978
aS'variable_42'
p3979
aS'||'
p3980
aS'variable_9'
p3981
aS'->'
p3982
aS'variable_43'
p3983
aS'!='
p3984
ag90
aS'||'
p3985
aS'strcmp'
p3986
ag7
aS'variable_2'
p3987
aS'->'
p3988
aS'variable_19'
p3989
aS'->'
p3990
aS'variable_20'
p3991
ag10
ag56
aS'localhost'
p3992
ag56
ag15
ag15
aS'switch'
p3993
ag7
aS'variable_9'
p3994
aS'->'
p3995
aS'variable_40'
p3996
ag15
aS'for'
p3997
ag7
aS'variable_15'
p3998
ag43
ag96
ag18
aS'variable_15'
p3999
ag124
aS'variable_9'
p4000
aS'->'
p4001
aS'variable_43'
p4002
ag18
aS'variable_15'
p4003
aS'++'
p4004
ag15
aS'variable_9'
p4005
aS'->'
p4006
aS'variable_37'
p4007
ag41
aS'variable_15'
p4008
ag42
ag193
aS'variable_44'
p4009
ag193
aS'variable_45'
p4010
ag43
aS'NULL'
p4011
ag18
aS'if'
p4012
ag7
aS'variable_9'
p4013
aS'->'
p4014
aS'variable_37'
p4015
ag41
aS'variable_15'
p4016
ag42
ag193
aS'variable_44'
p4017
ag193
aS'variable_66'
p4018
ag15
aS'variable_9'
p4019
aS'->'
p4020
aS'variable_37'
p4021
ag41
aS'variable_15'
p4022
ag42
ag193
aS'variable_44'
p4023
ag193
aS'variable_66'
p4024
ag43
aS'NULL'
p4025
ag18
aS'variable_9'
p4026
aS'->'
p4027
aS'variable_40'
p4028
ag43
aS'variable_42'
p4029
ag18
aS'variable_9'
p4030
aS'->'
p4031
aS'variable_43'
p4032
ag43
ag90
ag18
aS'variable_9'
p4033
aS'->'
p4034
aS'variable_37'
p4035
ag41
ag96
ag42
ag193
aS'variable_44'
p4036
ag193
aS'variable_45'
p4037
ag43
aS'func_27'
p4038
ag7
aS'variable_2'
p4039
aS'->'
p4040
aS'variable_19'
p4041
aS'->'
p4042
aS'variable_20'
p4043
ag15
ag18
aS'variable_9'
p4044
aS'->'
p4045
aS'variable_64'
p4046
ag43
aS'variable_65'
p4047
ag18
aS'variable_9'
p4048
ag43
aS'func_28'
p4049
ag7
aS'variable_14'
p4050
aS'->'
p4051
aS'variable_60'
p4052
ag10
aS'variable_65'
p4053
ag10
aS'variable_36'
p4054
ag10
ag56
aS'time'
p4055
ag72
aS'at'
p4056
ag72
aS'processing'
p4057
ag56
ag10
ag96
ag15
ag18
aS'variable_9'
p4058
aS'->'
p4059
aS'variable_40'
p4060
ag43
aS'variable_67'
p4061
ag18
aS'variable_9'
p4062
ag43
aS'func_29'
p4063
ag7
aS'variable_14'
p4064
aS'->'
p4065
aS'variable_60'
p4066
ag10
aS'variable_65'
p4067
ag10
aS'variable_36'
p4068
ag10
ag56
aS'time'
p4069
ag72
aS'at'
p4070
ag72
aS'completed'
p4071
ag56
ag10
ag96
ag15
ag18
aS'variable_9'
p4072
aS'->'
p4073
aS'variable_40'
p4074
ag43
aS'variable_67'
p4075
ag18
aS'variable_14'
p4076
aS'->'
p4077
aS'variable_68'
p4078
ag43
aS'func_30'
p4079
ag7
aS'variable_14'
p4080
aS'->'
p4081
aS'variable_60'
p4082
ag10
aS'variable_65'
p4083
ag10
aS'variable_69'
p4084
ag10
ag56
aS'job'
p4085
ag72
aS'state'
p4086
ag56
ag10
aS'variable_70'
p4087
ag15
ag18
aS'variable_14'
p4088
aS'->'
p4089
aS'variable_71'
p4090
ag43
ag7
aS'variable_72'
p4091
ag15
aS'variable_14'
p4092
aS'->'
p4093
aS'variable_68'
p4094
aS'->'
p4095
aS'variable_37'
p4096
ag41
ag96
ag42
ag193
aS'variable_38'
p4097
ag18
aS'variable_14'
p4098
aS'->'
p4099
aS'variable_73'
p4100
ag43
aS'func_31'
p4101
ag7
aS'variable_14'
p4102
aS'->'
p4103
aS'variable_60'
p4104
ag10
aS'variable_65'
p4105
ag10
aS'variable_41'
p4106
ag10
ag56
aS'job'
p4107
ag72
aS'state'
p4108
ag72
aS'reasons'
p4109
ag56
ag10
aS'NULL'
p4110
ag10
ag56
aS'job'
p4111
ag72
aS'incoming'
p4112
ag56
ag15
ag18
aS'variable_14'
p4113
aS'->'
p4114
aS'variable_74'
p4115
ag43
aS'func_32'
p4116
ag7
aS'variable_14'
p4117
aS'->'
p4118
aS'variable_60'
p4119
ag10
aS'variable_65'
p4120
ag10
aS'variable_36'
p4121
ag10
ag56
aS'job'
p4122
ag72
aS'media'
p4123
ag72
aS'sheets'
p4124
ag72
aS'completed'
p4125
ag56
ag10
ag96
ag15
ag18
aS'if'
p4126
ag7
ag7
aS'variable_9'
p4127
ag43
aS'func_33'
p4128
ag7
aS'variable_14'
p4129
aS'->'
p4130
aS'variable_60'
p4131
ag10
ag56
aS'job'
p4132
ag72
ag679
ag72
aS'octets'
p4133
ag56
ag10
aS'variable_36'
p4134
ag15
ag15
aS'!='
p4135
aS'NULL'
p4136
ag15
aS'variable_9'
p4137
aS'->'
p4138
aS'variable_37'
p4139
ag41
ag96
ag42
ag193
aS'variable_38'
p4140
ag43
ag96
ag18
aS'if'
p4141
ag7
ag7
aS'variable_9'
p4142
ag43
aS'func_34'
p4143
ag7
aS'variable_14'
p4144
aS'->'
p4145
aS'variable_60'
p4146
ag10
ag56
aS'job'
p4147
ag72
aS'hold'
p4148
ag72
aS'until'
p4149
ag56
ag10
aS'variable_41'
p4150
ag15
ag15
aS'=='
p4151
aS'NULL'
p4152
ag15
aS'variable_9'
p4153
ag43
aS'func_35'
p4154
ag7
aS'variable_14'
p4155
aS'->'
p4156
aS'variable_60'
p4157
ag10
ag56
aS'job'
p4158
ag72
aS'hold'
p4159
ag72
aS'until'
p4160
ag56
ag10
aS'variable_42'
p4161
ag15
ag18
aS'if'
p4162
ag7
ag45
aS'variable_9'
p4163
ag15
aS'if'
p4164
ag7
ag7
aS'variable_12'
p4165
ag43
aS'func_36'
p4166
ag7
ag56
aS'job'
p4167
ag72
aS'hold'
p4168
ag72
aS'until'
p4169
ag56
ag10
aS'variable_4'
p4170
aS'->'
p4171
aS'variable_52'
p4172
ag10
aS'variable_4'
p4173
aS'->'
p4174
aS'variable_53'
p4175
ag15
ag15
aS'=='
p4176
aS'NULL'
p4177
ag15
aS'variable_12'
p4178
ag43
ag56
aS'no'
p4179
ag72
aS'hold'
p4180
ag56
ag18
aS'variable_9'
p4181
ag43
aS'func_37'
p4182
ag7
aS'variable_14'
p4183
aS'->'
p4184
aS'variable_60'
p4185
ag10
aS'variable_65'
p4186
ag10
aS'variable_41'
p4187
ag10
ag56
aS'job'
p4188
ag72
aS'hold'
p4189
ag72
aS'until'
p4190
ag56
ag10
aS'NULL'
p4191
ag10
aS'variable_12'
p4192
ag15
ag18
aS'if'
p4193
ag7
aS'variable_9'
p4194
aS'&&'
p4195
aS'strcmp'
p4196
ag7
aS'variable_9'
p4197
aS'->'
p4198
aS'variable_37'
p4199
ag41
ag96
ag42
ag193
aS'variable_44'
p4200
ag193
aS'variable_45'
p4201
ag10
ag56
aS'no'
p4202
ag72
aS'hold'
p4203
ag56
ag15
ag15
aS'variable_14'
p4204
aS'->'
p4205
aS'variable_68'
p4206
aS'->'
p4207
aS'variable_37'
p4208
ag41
ag96
ag42
ag193
aS'variable_38'
p4209
ag43
aS'variable_75'
p4210
ag18
aS'variable_14'
p4211
aS'->'
p4212
aS'variable_71'
p4213
ag43
aS'variable_75'
p4214
ag18
aS'if'
p4215
ag7
aS'variable_14'
p4216
aS'->'
p4217
aS'variable_60'
p4218
aS'->'
p4219
aS'variable_22'
p4220
ag193
aS'variable_62'
p4221
ag193
aS'variable_63'
p4222
aS'=='
p4223
aS'variable_76'
p4224
ag15
aS'variable_14'
p4225
aS'->'
p4226
aS'variable_77'
p4227
ag43
aS'time'
p4228
ag7
aS'NULL'
p4229
ag15
ag354
aS'variable_78'
p4230
ag18
aS'variable_14'
p4231
aS'->'
p4232
aS'variable_68'
p4233
aS'->'
p4234
aS'variable_37'
p4235
ag41
ag96
ag42
ag193
aS'variable_38'
p4236
ag43
aS'variable_75'
p4237
ag18
aS'variable_14'
p4238
aS'->'
p4239
aS'variable_71'
p4240
ag43
aS'variable_75'
p4241
ag18
aS'variable_14'
p4242
aS'->'
p4243
aS'variable_68'
p4244
aS'->'
p4245
aS'variable_37'
p4246
ag41
ag96
ag42
ag193
aS'variable_38'
p4247
ag43
aS'variable_79'
p4248
ag18
aS'variable_14'
p4249
aS'->'
p4250
aS'variable_71'
p4251
ag43
aS'variable_79'
p4252
ag18
aS'if'
p4253
ag7
ag45
ag7
aS'variable_4'
p4254
aS'->'
p4255
aS'variable_57'
p4256
ag449
aS'variable_59'
p4257
ag15
aS'||'
p4258
aS'variable_80'
p4259
ag15
aS'if'
p4260
ag7
ag7
aS'variable_9'
p4261
ag43
aS'func_38'
p4262
ag7
aS'variable_14'
p4263
aS'->'
p4264
aS'variable_60'
p4265
ag10
ag56
aS'job'
p4266
ag72
aS'sheets'
p4267
ag56
ag10
aS'variable_32'
p4268
ag15
ag15
aS'=='
p4269
aS'NULL'
p4270
ag15
aS'variable_9'
p4271
ag43
aS'func_39'
p4272
ag7
aS'variable_14'
p4273
aS'->'
p4274
aS'variable_60'
p4275
ag10
aS'variable_65'
p4276
ag10
aS'variable_42'
p4277
ag10
ag56
aS'job'
p4278
ag72
aS'sheets'
p4279
ag56
ag10
ag229
ag10
aS'NULL'
p4280
ag10
aS'NULL'
p4281
ag15
ag18
aS'variable_9'
p4282
aS'->'
p4283
aS'variable_37'
p4284
ag41
ag96
ag42
ag193
aS'variable_44'
p4285
ag193
aS'variable_45'
p4286
ag43
aS'func_40'
p4287
ag7
aS'variable_4'
p4288
aS'->'
p4289
aS'variable_81'
p4290
ag41
ag96
ag42
ag15
ag18
aS'variable_9'
p4291
aS'->'
p4292
aS'variable_37'
p4293
ag41
ag90
ag42
ag193
aS'variable_44'
p4294
ag193
aS'variable_45'
p4295
ag43
aS'func_41'
p4296
ag7
aS'variable_4'
p4297
aS'->'
p4298
aS'variable_81'
p4299
ag41
ag90
ag42
ag15
ag18
aS'if'
p4300
ag7
aS'variable_80'
p4301
ag15
aS'if'
p4302
ag7
aS'variable_82'
p4303
ag15
aS'if'
p4304
ag7
ag45
aS'strcmp'
p4305
ag7
aS'variable_9'
p4306
aS'->'
p4307
aS'variable_37'
p4308
ag41
ag96
ag42
ag193
aS'variable_44'
p4309
ag193
aS'variable_45'
p4310
ag10
ag56
aS'none'
p4311
ag56
ag15
aS'&&'
p4312
ag7
aS'variable_9'
p4313
aS'->'
p4314
aS'variable_43'
p4315
aS'=='
p4316
ag90
aS'||'
p4317
ag45
aS'strcmp'
p4318
ag7
aS'variable_9'
p4319
aS'->'
p4320
aS'variable_37'
p4321
ag41
ag90
ag42
ag193
aS'variable_44'
p4322
ag193
aS'variable_45'
p4323
ag10
ag56
aS'none'
p4324
ag56
ag15
ag15
ag15
aS'if'
p4325
ag7
aS'variable_9'
p4326
aS'->'
p4327
aS'variable_43'
p4328
aS'=='
p4329
ag229
aS'&&'
p4330
aS'strcmp'
p4331
ag7
aS'variable_9'
p4332
aS'->'
p4333
aS'variable_37'
p4334
ag41
ag96
ag42
ag193
aS'variable_44'
p4335
ag193
aS'variable_45'
p4336
ag10
aS'variable_9'
p4337
aS'->'
p4338
aS'variable_37'
p4339
ag41
ag90
ag42
ag193
aS'variable_44'
p4340
ag193
aS'variable_45'
p4341
ag15
aS'&&'
p4342
aS'strcmp'
p4343
ag7
aS'variable_9'
p4344
aS'->'
p4345
aS'variable_37'
p4346
ag41
ag96
ag42
ag193
aS'variable_44'
p4347
ag193
aS'variable_45'
p4348
ag10
ag56
aS'none'
p4349
ag56
ag15
aS'&&'
p4350
aS'strcmp'
p4351
ag7
aS'variable_9'
p4352
aS'->'
p4353
aS'variable_37'
p4354
ag41
ag90
ag42
ag193
aS'variable_44'
p4355
ag193
aS'variable_45'
p4356
ag10
ag56
aS'none'
p4357
ag56
ag15
ag15
aS'if'
p4358
ag7
aS'strcmp'
p4359
ag7
aS'variable_9'
p4360
aS'->'
p4361
aS'variable_37'
p4362
ag41
ag96
ag42
ag193
aS'variable_44'
p4363
ag193
aS'variable_45'
p4364
ag10
aS'variable_80'
p4365
ag15
aS'&&'
p4366
aS'strcmp'
p4367
ag7
aS'variable_9'
p4368
aS'->'
p4369
aS'variable_37'
p4370
ag41
ag96
ag42
ag193
aS'variable_44'
p4371
ag193
aS'variable_45'
p4372
ag10
ag56
aS'none'
p4373
ag56
ag15
aS'&&'
p4374
ag7
aS'variable_9'
p4375
aS'->'
p4376
aS'variable_43'
p4377
aS'=='
p4378
ag90
aS'||'
p4379
ag7
aS'strcmp'
p4380
ag7
aS'variable_9'
p4381
aS'->'
p4382
aS'variable_37'
p4383
ag41
ag90
ag42
ag193
aS'variable_44'
p4384
ag193
aS'variable_45'
p4385
ag10
aS'variable_80'
p4386
ag15
aS'&&'
p4387
aS'strcmp'
p4388
ag7
aS'variable_9'
p4389
aS'->'
p4390
aS'variable_37'
p4391
ag41
ag90
ag42
ag193
aS'variable_44'
p4392
ag193
aS'variable_45'
p4393
ag10
ag56
aS'none'
p4394
ag56
ag15
ag15
ag15
ag15
aa(lp4395
S'static'
p4396
aS'variable_0'
p4397
ag5
aS'func_0'
p4398
ag7
aS'variable_1'
p4399
ag5
aS'variable_2'
p4400
ag10
aS'variable_3'
p4401
ag5
aS'variable_4'
p4402
ag10
aS'variable_5'
p4403
ag5
aS'variable_6'
p4404
ag15
aS'http_status_t'
p4405
aS'variable_7'
p4406
ag18
aS'variable_8'
p4407
ag5
aS'variable_9'
p4408
ag10
ag5
aS'variable_10'
p4409
ag18
aS'const'
p4410
aS'char'
p4411
ag5
aS'variable_11'
p4412
ag18
aS'const'
p4413
aS'char'
p4414
ag5
aS'variable_12'
p4415
ag18
aS'int'
p4416
aS'variable_13'
p4417
ag18
aS'variable_0'
p4418
ag5
aS'variable_14'
p4419
ag18
aS'int'
p4420
aS'variable_15'
p4421
ag18
aS'int'
p4422
aS'variable_16'
p4423
ag18
aS'static'
p4424
aS'const'
p4425
aS'char'
p4426
ag5
aS'const'
p4427
aS'variable_17'
p4428
ag41
ag42
ag43
aS'if'
p4429
ag7
ag45
aS'variable_4'
p4430
aS'->'
p4431
aS'variable_18'
p4432
aS'&&'
p4433
aS'func_1'
p4434
ag7
aS'variable_2'
p4435
aS'->'
p4436
aS'variable_19'
p4437
aS'->'
p4438
aS'variable_20'
p4439
ag10
ag56
aS'localhost'
p4440
ag56
ag15
aS'&&'
p4441
aS'func_2'
p4442
ag7
aS'variable_2'
p4443
aS'->'
p4444
aS'variable_19'
p4445
aS'->'
p4446
aS'variable_20'
p4447
ag10
aS'variable_21'
p4448
ag15
ag15
aS'variable_10'
p4449
ag43
aS'func_3'
p4450
ag7
aS'variable_2'
p4451
aS'->'
p4452
aS'variable_22'
p4453
ag10
ag56
aS'auth'
p4454
ag72
aS'info'
p4455
ag56
ag10
aS'variable_23'
p4456
ag15
ag18
aS'if'
p4457
ag7
ag7
aS'variable_7'
p4458
ag43
aS'func_4'
p4459
ag7
aS'variable_4'
p4460
aS'->'
p4461
aS'variable_24'
p4462
ag10
aS'variable_2'
p4463
ag10
aS'NULL'
p4464
ag15
ag15
aS'!='
p4465
aS'variable_25'
p4466
ag15
aS'if'
p4467
ag7
aS'variable_4'
p4468
aS'->'
p4469
aS'variable_26'
p4470
aS'=='
p4471
ag90
aS'&&'
p4472
ag45
aS'strcmp'
p4473
ag7
aS'variable_4'
p4474
aS'->'
p4475
aS'variable_27'
p4476
ag41
ag96
ag42
ag10
ag56
aS'negotiate'
p4477
ag56
ag15
aS'&&'
p4478
ag45
aS'variable_2'
p4479
aS'->'
p4480
aS'variable_28'
p4481
ag41
ag96
ag42
ag15
aS'if'
p4482
ag7
aS'variable_10'
p4483
aS'&&'
p4484
ag45
aS'variable_2'
p4485
aS'->'
p4486
aS'variable_19'
p4487
aS'->'
p4488
aS'variable_29'
p4489
aS'&&'
p4490
ag45
aS'func_5'
p4491
ag7
aS'variable_2'
p4492
aS'->'
p4493
aS'variable_19'
p4494
aS'->'
p4495
aS'variable_30'
p4496
ag15
ag15
aS'if'
p4497
ag7
ag45
aS'variable_4'
p4498
aS'->'
p4499
aS'variable_31'
p4500
ag15
aS'for'
p4501
ag7
aS'variable_15'
p4502
ag43
ag96
ag18
aS'variable_15'
p4503
ag124
ag7
aS'int'
p4504
ag15
ag7
aS'sizeof'
p4505
ag7
aS'variable_17'
p4506
ag15
ag128
aS'sizeof'
p4507
ag7
aS'variable_17'
p4508
ag41
ag96
ag42
ag15
ag15
ag18
aS'variable_15'
p4509
aS'++'
p4510
ag15
aS'if'
p4511
ag7
ag7
aS'variable_9'
p4512
ag43
aS'func_6'
p4513
ag7
aS'variable_2'
p4514
aS'->'
p4515
aS'variable_22'
p4516
ag10
aS'variable_17'
p4517
ag41
aS'variable_15'
p4518
ag42
ag10
aS'variable_32'
p4519
ag15
ag15
aS'!='
p4520
aS'NULL'
p4521
ag15
aS'if'
p4522
ag7
aS'variable_33'
p4523
ag15
aS'if'
p4524
ag7
aS'variable_4'
p4525
aS'->'
p4526
aS'variable_34'
p4527
ag15
aS'for'
p4528
ag7
aS'variable_11'
p4529
ag43
ag7
aS'variable_11'
p4530
ag43
ag7
aS'char'
p4531
ag5
ag15
aS'func_7'
p4532
ag7
aS'variable_4'
p4533
aS'->'
p4534
aS'variable_34'
p4535
aS'->'
p4536
aS'variable_11'
p4537
ag15
ag15
aS'if'
p4538
ag7
ag45
aS'func_8'
p4539
ag7
aS'variable_2'
p4540
aS'->'
p4541
aS'variable_22'
p4542
ag10
aS'variable_11'
p4543
ag10
aS'variable_32'
p4544
ag15
ag15
aS'if'
p4545
ag7
aS'variable_6'
p4546
aS'&&'
p4547
aS'variable_4'
p4548
aS'->'
p4549
aS'variable_35'
p4550
aS'&&'
p4551
ag45
aS'func_9'
p4552
ag7
aS'variable_4'
p4553
aS'->'
p4554
aS'variable_35'
p4555
ag10
aS'variable_6'
p4556
ag15
ag15
aS'if'
p4557
ag7
ag7
aS'variable_9'
p4558
ag43
aS'func_10'
p4559
ag7
aS'variable_2'
p4560
aS'->'
p4561
aS'variable_22'
p4562
ag10
ag56
aS'copies'
p4563
ag56
ag10
aS'variable_36'
p4564
ag15
ag15
aS'!='
p4565
aS'NULL'
p4566
ag15
aS'if'
p4567
ag7
aS'variable_9'
p4568
aS'->'
p4569
aS'variable_37'
p4570
ag41
ag96
ag42
ag193
aS'variable_38'
p4571
ag124
ag90
aS'||'
p4572
aS'variable_9'
p4573
aS'->'
p4574
aS'variable_37'
p4575
ag41
ag96
ag42
ag193
aS'variable_38'
p4576
ag200
aS'variable_39'
p4577
ag15
aS'if'
p4578
ag7
ag7
aS'variable_9'
p4579
ag43
aS'func_11'
p4580
ag7
aS'variable_2'
p4581
aS'->'
p4582
aS'variable_22'
p4583
ag10
ag56
aS'job'
p4584
ag72
aS'sheets'
p4585
ag56
ag10
aS'variable_32'
p4586
ag15
ag15
aS'!='
p4587
aS'NULL'
p4588
ag15
aS'if'
p4589
ag7
aS'variable_9'
p4590
aS'->'
p4591
aS'variable_40'
p4592
aS'!='
p4593
aS'variable_41'
p4594
aS'&&'
p4595
aS'variable_9'
p4596
aS'->'
p4597
aS'variable_40'
p4598
aS'!='
p4599
aS'variable_42'
p4600
ag15
aS'if'
p4601
ag7
aS'variable_9'
p4602
aS'->'
p4603
aS'variable_43'
p4604
ag200
ag229
ag15
aS'for'
p4605
ag7
aS'variable_15'
p4606
ag43
ag96
ag18
aS'variable_15'
p4607
ag124
aS'variable_9'
p4608
aS'->'
p4609
aS'variable_43'
p4610
ag18
aS'variable_15'
p4611
aS'++'
p4612
ag15
aS'if'
p4613
ag7
aS'strcmp'
p4614
ag7
aS'variable_9'
p4615
aS'->'
p4616
aS'variable_37'
p4617
ag41
aS'variable_15'
p4618
ag42
ag193
aS'variable_44'
p4619
ag193
aS'variable_45'
p4620
ag10
ag56
aS'none'
p4621
ag56
ag15
aS'&&'
p4622
ag45
aS'func_12'
p4623
ag7
aS'variable_9'
p4624
aS'->'
p4625
aS'variable_37'
p4626
ag41
aS'variable_15'
p4627
ag42
ag193
aS'variable_44'
p4628
ag193
aS'variable_45'
p4629
ag15
ag15
aS'if'
p4630
ag7
ag7
aS'variable_9'
p4631
ag43
aS'func_13'
p4632
ag7
aS'variable_2'
p4633
aS'->'
p4634
aS'variable_22'
p4635
ag10
ag56
aS'number'
p4636
ag72
aS'up'
p4637
ag56
ag10
aS'variable_36'
p4638
ag15
ag15
aS'!='
p4639
aS'NULL'
p4640
ag15
aS'if'
p4641
ag7
aS'variable_9'
p4642
aS'->'
p4643
aS'variable_37'
p4644
ag41
ag96
ag42
ag193
aS'variable_38'
p4645
aS'!='
p4646
ag90
aS'&&'
p4647
aS'variable_9'
p4648
aS'->'
p4649
aS'variable_37'
p4650
ag41
ag96
ag42
ag193
aS'variable_38'
p4651
aS'!='
p4652
ag229
aS'&&'
p4653
aS'variable_9'
p4654
aS'->'
p4655
aS'variable_37'
p4656
ag41
ag96
ag42
ag193
aS'variable_38'
p4657
aS'!='
p4658
ag284
aS'&&'
p4659
aS'variable_9'
p4660
aS'->'
p4661
aS'variable_37'
p4662
ag41
ag96
ag42
ag193
aS'variable_38'
p4663
aS'!='
p4664
ag291
aS'&&'
p4665
aS'variable_9'
p4666
aS'->'
p4667
aS'variable_37'
p4668
ag41
ag96
ag42
ag193
aS'variable_38'
p4669
aS'!='
p4670
ag298
aS'&&'
p4671
aS'variable_9'
p4672
aS'->'
p4673
aS'variable_37'
p4674
ag41
ag96
ag42
ag193
aS'variable_38'
p4675
aS'!='
p4676
aS'16'
p4677
ag15
aS'if'
p4678
ag7
ag7
aS'variable_9'
p4679
ag43
aS'func_14'
p4680
ag7
aS'variable_2'
p4681
aS'->'
p4682
aS'variable_22'
p4683
ag10
ag56
aS'page'
p4684
ag72
aS'ranges'
p4685
ag56
ag10
aS'variable_46'
p4686
ag15
ag15
aS'!='
p4687
aS'NULL'
p4688
ag15
aS'for'
p4689
ag7
aS'variable_15'
p4690
ag43
ag96
ag10
aS'variable_16'
p4691
ag43
ag90
ag18
aS'variable_15'
p4692
ag124
aS'variable_9'
p4693
aS'->'
p4694
aS'variable_43'
p4695
ag18
aS'variable_15'
p4696
aS'++'
p4697
ag15
aS'if'
p4698
ag7
aS'variable_9'
p4699
aS'->'
p4700
aS'variable_37'
p4701
ag41
aS'variable_15'
p4702
ag42
ag193
aS'variable_47'
p4703
ag193
aS'variable_48'
p4704
ag124
aS'variable_16'
p4705
aS'||'
p4706
aS'variable_9'
p4707
aS'->'
p4708
aS'variable_37'
p4709
ag41
aS'variable_15'
p4710
ag42
ag193
aS'variable_47'
p4711
ag193
aS'variable_48'
p4712
ag200
aS'variable_9'
p4713
aS'->'
p4714
aS'variable_37'
p4715
ag41
aS'variable_15'
p4716
ag42
ag193
aS'variable_47'
p4717
ag193
aS'variable_49'
p4718
ag15
aS'variable_16'
p4719
ag43
aS'variable_9'
p4720
aS'->'
p4721
aS'variable_37'
p4722
ag41
aS'variable_15'
p4723
ag42
ag193
aS'variable_47'
p4724
ag193
aS'variable_49'
p4725
ag354
ag90
ag18
aS'if'
p4726
ag7
aS'variable_50'
p4727
aS'&&'
p4728
aS'func_15'
p4729
ag7
aS'variable_51'
p4730
ag15
ag200
ag43
aS'variable_50'
p4731
ag15
aS'if'
p4732
ag7
ag7
aS'variable_15'
p4733
ag43
aS'func_16'
p4734
ag7
aS'variable_2'
p4735
ag10
aS'variable_4'
p4736
ag15
ag15
ag124
ag96
ag15
aS'if'
p4737
ag7
aS'variable_15'
p4738
aS'=='
p4739
ag96
ag15
aS'if'
p4740
ag7
ag7
aS'variable_9'
p4741
ag43
aS'func_17'
p4742
ag7
aS'variable_2'
p4743
aS'->'
p4744
aS'variable_22'
p4745
ag10
ag56
aS'job'
p4746
ag72
aS'priority'
p4747
ag56
ag10
aS'variable_36'
p4748
ag15
ag15
aS'!='
p4749
aS'NULL'
p4750
ag15
aS'variable_13'
p4751
ag43
aS'variable_9'
p4752
aS'->'
p4753
aS'variable_37'
p4754
ag41
ag96
ag42
ag193
aS'variable_38'
p4755
ag18
aS'if'
p4756
ag7
ag7
aS'variable_12'
p4757
ag43
aS'func_18'
p4758
ag7
ag56
aS'job'
p4759
ag72
aS'priority'
p4760
ag56
ag10
aS'variable_4'
p4761
aS'->'
p4762
aS'variable_52'
p4763
ag10
aS'variable_4'
p4764
aS'->'
p4765
aS'variable_53'
p4766
ag15
ag15
aS'!='
p4767
aS'NULL'
p4768
ag15
aS'variable_13'
p4769
ag43
aS'atoi'
p4770
ag7
aS'variable_12'
p4771
ag15
ag18
aS'variable_13'
p4772
ag43
aS'50'
p4773
ag18
aS'if'
p4774
ag7
ag7
aS'variable_9'
p4775
ag43
aS'func_19'
p4776
ag7
aS'variable_2'
p4777
aS'->'
p4778
aS'variable_22'
p4779
ag10
ag56
aS'job'
p4780
ag72
aS'name'
p4781
ag56
ag10
aS'variable_32'
p4782
ag15
ag15
aS'=='
p4783
aS'NULL'
p4784
ag15
aS'if'
p4785
ag7
ag7
aS'variable_9'
p4786
aS'->'
p4787
aS'variable_40'
p4788
aS'!='
p4789
aS'variable_42'
p4790
aS'&&'
p4791
aS'variable_9'
p4792
aS'->'
p4793
aS'variable_40'
p4794
aS'!='
p4795
aS'variable_54'
p4796
ag15
aS'||'
p4797
aS'variable_9'
p4798
aS'->'
p4799
aS'variable_43'
p4800
aS'!='
p4801
ag90
ag15
aS'if'
p4802
ag7
ag45
aS'func_20'
p4803
ag7
aS'variable_9'
p4804
ag15
ag15
aS'if'
p4805
ag7
ag7
aS'variable_14'
p4806
ag43
aS'func_21'
p4807
ag7
aS'variable_13'
p4808
ag10
aS'variable_4'
p4809
aS'->'
p4810
aS'variable_55'
p4811
ag15
ag15
aS'=='
p4812
aS'NULL'
p4813
ag15
aS'variable_14'
p4814
aS'->'
p4815
aS'variable_56'
p4816
ag43
aS'variable_4'
p4817
aS'->'
p4818
aS'variable_57'
p4819
ag449
ag7
aS'variable_58'
p4820
ag451
aS'variable_59'
p4821
ag15
ag18
aS'variable_14'
p4822
aS'->'
p4823
aS'variable_60'
p4824
ag43
aS'variable_2'
p4825
aS'->'
p4826
aS'variable_22'
p4827
ag18
aS'variable_14'
p4828
aS'->'
p4829
aS'variable_61'
p4830
ag43
ag90
ag18
aS'variable_2'
p4831
aS'->'
p4832
aS'variable_22'
p4833
ag43
aS'func_22'
p4834
ag7
aS'variable_14'
p4835
aS'->'
p4836
aS'variable_60'
p4837
aS'->'
p4838
aS'variable_22'
p4839
ag193
aS'variable_62'
p4840
ag193
aS'variable_63'
p4841
ag15
ag18
aS'variable_9'
p4842
ag43
aS'func_23'
p4843
ag7
aS'variable_14'
p4844
aS'->'
p4845
aS'variable_60'
p4846
ag10
ag56
aS'requesting'
p4847
ag72
aS'user'
p4848
ag72
aS'name'
p4849
ag56
ag10
aS'variable_42'
p4850
ag15
ag18
aS'if'
p4851
ag7
ag45
aS'variable_9'
p4852
ag15
aS'variable_9'
p4853
aS'->'
p4854
aS'variable_64'
p4855
ag43
aS'variable_65'
p4856
ag18
aS'variable_9'
p4857
aS'->'
p4858
aS'variable_55'
p4859
ag43
aS'func_24'
p4860
ag7
ag56
aS'job'
p4861
ag72
aS'originating'
p4862
ag72
aS'user'
p4863
ag72
aS'name'
p4864
ag56
ag15
ag18
aS'if'
p4865
ag7
ag7
aS'variable_9'
p4866
ag43
aS'func_25'
p4867
ag7
aS'variable_2'
p4868
aS'->'
p4869
aS'variable_22'
p4870
ag10
ag56
aS'job'
p4871
ag72
aS'name'
p4872
ag56
ag10
aS'variable_42'
p4873
ag15
ag15
aS'!='
p4874
aS'NULL'
p4875
ag15
aS'if'
p4876
ag7
ag7
aS'variable_9'
p4877
ag43
aS'func_26'
p4878
ag7
aS'variable_14'
p4879
aS'->'
p4880
aS'variable_60'
p4881
ag10
ag56
aS'job'
p4882
ag72
aS'originating'
p4883
ag72
aS'host'
p4884
ag72
aS'name'
p4885
ag56
ag10
aS'variable_32'
p4886
ag15
ag15
aS'!='
p4887
aS'NULL'
p4888
ag15
aS'if'
p4889
ag7
aS'variable_9'
p4890
aS'->'
p4891
aS'variable_40'
p4892
aS'!='
p4893
aS'variable_42'
p4894
aS'||'
p4895
aS'variable_9'
p4896
aS'->'
p4897
aS'variable_43'
p4898
aS'!='
p4899
ag90
aS'||'
p4900
aS'strcmp'
p4901
ag7
aS'variable_2'
p4902
aS'->'
p4903
aS'variable_19'
p4904
aS'->'
p4905
aS'variable_20'
p4906
ag10
ag56
aS'localhost'
p4907
ag56
ag15
ag15
aS'switch'
p4908
ag7
aS'variable_9'
p4909
aS'->'
p4910
aS'variable_40'
p4911
ag15
aS'for'
p4912
ag7
aS'variable_15'
p4913
ag43
ag96
ag18
aS'variable_15'
p4914
ag124
aS'variable_9'
p4915
aS'->'
p4916
aS'variable_43'
p4917
ag18
aS'variable_15'
p4918
aS'++'
p4919
ag15
aS'variable_9'
p4920
aS'->'
p4921
aS'variable_37'
p4922
ag41
aS'variable_15'
p4923
ag42
ag193
aS'variable_44'
p4924
ag193
aS'variable_45'
p4925
ag43
aS'NULL'
p4926
ag18
aS'if'
p4927
ag7
aS'variable_9'
p4928
aS'->'
p4929
aS'variable_37'
p4930
ag41
aS'variable_15'
p4931
ag42
ag193
aS'variable_44'
p4932
ag193
aS'variable_66'
p4933
ag15
aS'variable_9'
p4934
aS'->'
p4935
aS'variable_37'
p4936
ag41
aS'variable_15'
p4937
ag42
ag193
aS'variable_44'
p4938
ag193
aS'variable_66'
p4939
ag43
aS'NULL'
p4940
ag18
aS'variable_9'
p4941
aS'->'
p4942
aS'variable_40'
p4943
ag43
aS'variable_42'
p4944
ag18
aS'variable_9'
p4945
aS'->'
p4946
aS'variable_43'
p4947
ag43
ag90
ag18
aS'variable_9'
p4948
aS'->'
p4949
aS'variable_37'
p4950
ag41
ag96
ag42
ag193
aS'variable_44'
p4951
ag193
aS'variable_45'
p4952
ag43
aS'func_27'
p4953
ag7
aS'variable_2'
p4954
aS'->'
p4955
aS'variable_19'
p4956
aS'->'
p4957
aS'variable_20'
p4958
ag15
ag18
aS'variable_9'
p4959
aS'->'
p4960
aS'variable_64'
p4961
ag43
aS'variable_65'
p4962
ag18
aS'variable_9'
p4963
ag43
aS'func_28'
p4964
ag7
aS'variable_14'
p4965
aS'->'
p4966
aS'variable_60'
p4967
ag10
aS'variable_65'
p4968
ag10
aS'variable_36'
p4969
ag10
ag56
aS'time'
p4970
ag72
aS'at'
p4971
ag72
aS'processing'
p4972
ag56
ag10
ag96
ag15
ag18
aS'variable_9'
p4973
aS'->'
p4974
aS'variable_40'
p4975
ag43
aS'variable_67'
p4976
ag18
aS'variable_9'
p4977
ag43
aS'func_29'
p4978
ag7
aS'variable_14'
p4979
aS'->'
p4980
aS'variable_60'
p4981
ag10
aS'variable_65'
p4982
ag10
aS'variable_36'
p4983
ag10
ag56
aS'time'
p4984
ag72
aS'at'
p4985
ag72
aS'completed'
p4986
ag56
ag10
ag96
ag15
ag18
aS'variable_9'
p4987
aS'->'
p4988
aS'variable_40'
p4989
ag43
aS'variable_67'
p4990
ag18
aS'variable_14'
p4991
aS'->'
p4992
aS'variable_68'
p4993
ag43
aS'func_30'
p4994
ag7
aS'variable_14'
p4995
aS'->'
p4996
aS'variable_60'
p4997
ag10
aS'variable_65'
p4998
ag10
aS'variable_69'
p4999
ag10
ag56
aS'job'
p5000
ag72
aS'state'
p5001
ag56
ag10
aS'variable_70'
p5002
ag15
ag18
aS'variable_14'
p5003
aS'->'
p5004
aS'variable_71'
p5005
ag43
ag7
aS'variable_72'
p5006
ag15
aS'variable_14'
p5007
aS'->'
p5008
aS'variable_68'
p5009
aS'->'
p5010
aS'variable_37'
p5011
ag41
ag96
ag42
ag193
aS'variable_38'
p5012
ag18
aS'variable_14'
p5013
aS'->'
p5014
aS'variable_73'
p5015
ag43
aS'func_31'
p5016
ag7
aS'variable_14'
p5017
aS'->'
p5018
aS'variable_60'
p5019
ag10
aS'variable_65'
p5020
ag10
aS'variable_41'
p5021
ag10
ag56
aS'job'
p5022
ag72
aS'state'
p5023
ag72
aS'reasons'
p5024
ag56
ag10
aS'NULL'
p5025
ag10
ag56
aS'job'
p5026
ag72
aS'incoming'
p5027
ag56
ag15
ag18
aS'variable_14'
p5028
aS'->'
p5029
aS'variable_74'
p5030
ag43
aS'func_32'
p5031
ag7
aS'variable_14'
p5032
aS'->'
p5033
aS'variable_60'
p5034
ag10
aS'variable_65'
p5035
ag10
aS'variable_36'
p5036
ag10
ag56
aS'job'
p5037
ag72
aS'media'
p5038
ag72
aS'sheets'
p5039
ag72
aS'completed'
p5040
ag56
ag10
ag96
ag15
ag18
aS'if'
p5041
ag7
ag7
aS'variable_9'
p5042
ag43
aS'func_33'
p5043
ag7
aS'variable_14'
p5044
aS'->'
p5045
aS'variable_60'
p5046
ag10
ag56
aS'job'
p5047
ag72
ag679
ag72
aS'octets'
p5048
ag56
ag10
aS'variable_36'
p5049
ag15
ag15
aS'!='
p5050
aS'NULL'
p5051
ag15
aS'variable_9'
p5052
aS'->'
p5053
aS'variable_37'
p5054
ag41
ag96
ag42
ag193
aS'variable_38'
p5055
ag43
ag96
ag18
aS'if'
p5056
ag7
ag7
aS'variable_9'
p5057
ag43
aS'func_34'
p5058
ag7
aS'variable_14'
p5059
aS'->'
p5060
aS'variable_60'
p5061
ag10
ag56
aS'job'
p5062
ag72
aS'hold'
p5063
ag72
aS'until'
p5064
ag56
ag10
aS'variable_41'
p5065
ag15
ag15
aS'=='
p5066
aS'NULL'
p5067
ag15
aS'variable_9'
p5068
ag43
aS'func_35'
p5069
ag7
aS'variable_14'
p5070
aS'->'
p5071
aS'variable_60'
p5072
ag10
ag56
aS'job'
p5073
ag72
aS'hold'
p5074
ag72
aS'until'
p5075
ag56
ag10
aS'variable_42'
p5076
ag15
ag18
aS'if'
p5077
ag7
ag45
aS'variable_9'
p5078
ag15
aS'if'
p5079
ag7
ag7
aS'variable_12'
p5080
ag43
aS'func_36'
p5081
ag7
ag56
aS'job'
p5082
ag72
aS'hold'
p5083
ag72
aS'until'
p5084
ag56
ag10
aS'variable_4'
p5085
aS'->'
p5086
aS'variable_52'
p5087
ag10
aS'variable_4'
p5088
aS'->'
p5089
aS'variable_53'
p5090
ag15
ag15
aS'=='
p5091
aS'NULL'
p5092
ag15
aS'variable_12'
p5093
ag43
ag56
aS'no'
p5094
ag72
aS'hold'
p5095
ag56
ag18
aS'variable_9'
p5096
ag43
aS'func_37'
p5097
ag7
aS'variable_14'
p5098
aS'->'
p5099
aS'variable_60'
p5100
ag10
aS'variable_65'
p5101
ag10
aS'variable_41'
p5102
ag10
ag56
aS'job'
p5103
ag72
aS'hold'
p5104
ag72
aS'until'
p5105
ag56
ag10
aS'NULL'
p5106
ag10
aS'variable_12'
p5107
ag15
ag18
aS'if'
p5108
ag7
aS'variable_9'
p5109
aS'&&'
p5110
aS'strcmp'
p5111
ag7
aS'variable_9'
p5112
aS'->'
p5113
aS'variable_37'
p5114
ag41
ag96
ag42
ag193
aS'variable_44'
p5115
ag193
aS'variable_45'
p5116
ag10
ag56
aS'no'
p5117
ag72
aS'hold'
p5118
ag56
ag15
ag15
aS'variable_14'
p5119
aS'->'
p5120
aS'variable_68'
p5121
aS'->'
p5122
aS'variable_37'
p5123
ag41
ag96
ag42
ag193
aS'variable_38'
p5124
ag43
aS'variable_75'
p5125
ag18
aS'variable_14'
p5126
aS'->'
p5127
aS'variable_71'
p5128
ag43
aS'variable_75'
p5129
ag18
aS'if'
p5130
ag7
aS'variable_14'
p5131
aS'->'
p5132
aS'variable_60'
p5133
aS'->'
p5134
aS'variable_22'
p5135
ag193
aS'variable_62'
p5136
ag193
aS'variable_63'
p5137
aS'=='
p5138
aS'variable_76'
p5139
ag15
aS'variable_14'
p5140
aS'->'
p5141
aS'variable_77'
p5142
ag43
aS'time'
p5143
ag7
aS'NULL'
p5144
ag15
ag354
aS'variable_78'
p5145
ag18
aS'variable_14'
p5146
aS'->'
p5147
aS'variable_68'
p5148
aS'->'
p5149
aS'variable_37'
p5150
ag41
ag96
ag42
ag193
aS'variable_38'
p5151
ag43
aS'variable_75'
p5152
ag18
aS'variable_14'
p5153
aS'->'
p5154
aS'variable_71'
p5155
ag43
aS'variable_75'
p5156
ag18
aS'variable_14'
p5157
aS'->'
p5158
aS'variable_68'
p5159
aS'->'
p5160
aS'variable_37'
p5161
ag41
ag96
ag42
ag193
aS'variable_38'
p5162
ag43
aS'variable_79'
p5163
ag18
aS'variable_14'
p5164
aS'->'
p5165
aS'variable_71'
p5166
ag43
aS'variable_79'
p5167
ag18
aS'if'
p5168
ag7
ag45
ag7
aS'variable_4'
p5169
aS'->'
p5170
aS'variable_57'
p5171
ag449
aS'variable_59'
p5172
ag15
aS'||'
p5173
aS'variable_80'
p5174
ag15
aS'if'
p5175
ag7
ag7
aS'variable_9'
p5176
ag43
aS'func_38'
p5177
ag7
aS'variable_14'
p5178
aS'->'
p5179
aS'variable_60'
p5180
ag10
ag56
aS'job'
p5181
ag72
aS'sheets'
p5182
ag56
ag10
aS'variable_32'
p5183
ag15
ag15
aS'=='
p5184
aS'NULL'
p5185
ag15
aS'variable_9'
p5186
ag43
aS'func_39'
p5187
ag7
aS'variable_14'
p5188
aS'->'
p5189
aS'variable_60'
p5190
ag10
aS'variable_65'
p5191
ag10
aS'variable_42'
p5192
ag10
ag56
aS'job'
p5193
ag72
aS'sheets'
p5194
ag56
ag10
ag229
ag10
aS'NULL'
p5195
ag10
aS'NULL'
p5196
ag15
ag18
aS'variable_9'
p5197
aS'->'
p5198
aS'variable_37'
p5199
ag41
ag96
ag42
ag193
aS'variable_44'
p5200
ag193
aS'variable_45'
p5201
ag43
aS'func_40'
p5202
ag7
aS'variable_4'
p5203
aS'->'
p5204
aS'variable_81'
p5205
ag41
ag96
ag42
ag15
ag18
aS'variable_9'
p5206
aS'->'
p5207
aS'variable_37'
p5208
ag41
ag90
ag42
ag193
aS'variable_44'
p5209
ag193
aS'variable_45'
p5210
ag43
aS'func_41'
p5211
ag7
aS'variable_4'
p5212
aS'->'
p5213
aS'variable_81'
p5214
ag41
ag90
ag42
ag15
ag18
aS'if'
p5215
ag7
aS'variable_80'
p5216
ag15
aS'if'
p5217
ag7
aS'variable_82'
p5218
ag15
aS'if'
p5219
ag7
ag45
aS'strcmp'
p5220
ag7
aS'variable_9'
p5221
aS'->'
p5222
aS'variable_37'
p5223
ag41
ag96
ag42
ag193
aS'variable_44'
p5224
ag193
aS'variable_45'
p5225
ag10
ag56
aS'none'
p5226
ag56
ag15
aS'&&'
p5227
ag7
aS'variable_9'
p5228
aS'->'
p5229
aS'variable_43'
p5230
aS'=='
p5231
ag90
aS'||'
p5232
ag45
aS'strcmp'
p5233
ag7
aS'variable_9'
p5234
aS'->'
p5235
aS'variable_37'
p5236
ag41
ag90
ag42
ag193
aS'variable_44'
p5237
ag193
aS'variable_45'
p5238
ag10
ag56
aS'none'
p5239
ag56
ag15
ag15
ag15
aS'if'
p5240
ag7
aS'variable_9'
p5241
aS'->'
p5242
aS'variable_43'
p5243
aS'=='
p5244
ag229
aS'&&'
p5245
aS'strcmp'
p5246
ag7
aS'variable_9'
p5247
aS'->'
p5248
aS'variable_37'
p5249
ag41
ag96
ag42
ag193
aS'variable_44'
p5250
ag193
aS'variable_45'
p5251
ag10
aS'variable_9'
p5252
aS'->'
p5253
aS'variable_37'
p5254
ag41
ag90
ag42
ag193
aS'variable_44'
p5255
ag193
aS'variable_45'
p5256
ag15
aS'&&'
p5257
aS'strcmp'
p5258
ag7
aS'variable_9'
p5259
aS'->'
p5260
aS'variable_37'
p5261
ag41
ag96
ag42
ag193
aS'variable_44'
p5262
ag193
aS'variable_45'
p5263
ag10
ag56
aS'none'
p5264
ag56
ag15
aS'&&'
p5265
aS'strcmp'
p5266
ag7
aS'variable_9'
p5267
aS'->'
p5268
aS'variable_37'
p5269
ag41
ag90
ag42
ag193
aS'variable_44'
p5270
ag193
aS'variable_45'
p5271
ag10
ag56
aS'none'
p5272
ag56
ag15
ag15
aa(lp5273
S'static'
p5274
aS'variable_0'
p5275
ag5
aS'func_0'
p5276
ag7
aS'variable_1'
p5277
ag5
aS'variable_2'
p5278
ag10
aS'variable_3'
p5279
ag5
aS'variable_4'
p5280
ag10
aS'variable_5'
p5281
ag5
aS'variable_6'
p5282
ag15
aS'http_status_t'
p5283
aS'variable_7'
p5284
ag18
aS'variable_8'
p5285
ag5
aS'variable_9'
p5286
ag10
ag5
aS'variable_10'
p5287
ag18
aS'const'
p5288
aS'char'
p5289
ag5
aS'variable_11'
p5290
ag18
aS'const'
p5291
aS'char'
p5292
ag5
aS'variable_12'
p5293
ag18
aS'int'
p5294
aS'variable_13'
p5295
ag18
aS'variable_0'
p5296
ag5
aS'variable_14'
p5297
ag18
aS'int'
p5298
aS'variable_15'
p5299
ag18
aS'int'
p5300
aS'variable_16'
p5301
ag18
aS'static'
p5302
aS'const'
p5303
aS'char'
p5304
ag5
aS'const'
p5305
aS'variable_17'
p5306
ag41
ag42
ag43
aS'if'
p5307
ag7
ag45
aS'variable_4'
p5308
aS'->'
p5309
aS'variable_18'
p5310
aS'&&'
p5311
aS'func_1'
p5312
ag7
aS'variable_2'
p5313
aS'->'
p5314
aS'variable_19'
p5315
aS'->'
p5316
aS'variable_20'
p5317
ag10
ag56
aS'localhost'
p5318
ag56
ag15
aS'&&'
p5319
aS'func_2'
p5320
ag7
aS'variable_2'
p5321
aS'->'
p5322
aS'variable_19'
p5323
aS'->'
p5324
aS'variable_20'
p5325
ag10
aS'variable_21'
p5326
ag15
ag15
aS'variable_10'
p5327
ag43
aS'func_3'
p5328
ag7
aS'variable_2'
p5329
aS'->'
p5330
aS'variable_22'
p5331
ag10
ag56
aS'auth'
p5332
ag72
aS'info'
p5333
ag56
ag10
aS'variable_23'
p5334
ag15
ag18
aS'if'
p5335
ag7
ag7
aS'variable_7'
p5336
ag43
aS'func_4'
p5337
ag7
aS'variable_4'
p5338
aS'->'
p5339
aS'variable_24'
p5340
ag10
aS'variable_2'
p5341
ag10
aS'NULL'
p5342
ag15
ag15
aS'!='
p5343
aS'variable_25'
p5344
ag15
aS'if'
p5345
ag7
aS'variable_4'
p5346
aS'->'
p5347
aS'variable_26'
p5348
aS'=='
p5349
ag90
aS'&&'
p5350
ag45
aS'strcmp'
p5351
ag7
aS'variable_4'
p5352
aS'->'
p5353
aS'variable_27'
p5354
ag41
ag96
ag42
ag10
ag56
aS'negotiate'
p5355
ag56
ag15
aS'&&'
p5356
ag45
aS'variable_2'
p5357
aS'->'
p5358
aS'variable_28'
p5359
ag41
ag96
ag42
ag15
aS'if'
p5360
ag7
aS'variable_10'
p5361
aS'&&'
p5362
ag45
aS'variable_2'
p5363
aS'->'
p5364
aS'variable_19'
p5365
aS'->'
p5366
aS'variable_29'
p5367
aS'&&'
p5368
ag45
aS'func_5'
p5369
ag7
aS'variable_2'
p5370
aS'->'
p5371
aS'variable_19'
p5372
aS'->'
p5373
aS'variable_30'
p5374
ag15
ag15
aS'if'
p5375
ag7
ag45
aS'variable_4'
p5376
aS'->'
p5377
aS'variable_31'
p5378
ag15
aS'for'
p5379
ag7
aS'variable_15'
p5380
ag43
ag96
ag18
aS'variable_15'
p5381
ag124
ag7
aS'int'
p5382
ag15
ag7
aS'sizeof'
p5383
ag7
aS'variable_17'
p5384
ag15
ag128
aS'sizeof'
p5385
ag7
aS'variable_17'
p5386
ag41
ag96
ag42
ag15
ag15
ag18
aS'variable_15'
p5387
aS'++'
p5388
ag15
aS'if'
p5389
ag7
ag7
aS'variable_9'
p5390
ag43
aS'func_6'
p5391
ag7
aS'variable_2'
p5392
aS'->'
p5393
aS'variable_22'
p5394
ag10
aS'variable_17'
p5395
ag41
aS'variable_15'
p5396
ag42
ag10
aS'variable_32'
p5397
ag15
ag15
aS'!='
p5398
aS'NULL'
p5399
ag15
aS'if'
p5400
ag7
aS'variable_33'
p5401
ag15
aS'if'
p5402
ag7
aS'variable_4'
p5403
aS'->'
p5404
aS'variable_34'
p5405
ag15
aS'for'
p5406
ag7
aS'variable_11'
p5407
ag43
ag7
aS'variable_11'
p5408
ag43
ag7
aS'char'
p5409
ag5
ag15
aS'func_7'
p5410
ag7
aS'variable_4'
p5411
aS'->'
p5412
aS'variable_34'
p5413
aS'->'
p5414
aS'variable_11'
p5415
ag15
ag15
aS'if'
p5416
ag7
ag45
aS'func_8'
p5417
ag7
aS'variable_2'
p5418
aS'->'
p5419
aS'variable_22'
p5420
ag10
aS'variable_11'
p5421
ag10
aS'variable_32'
p5422
ag15
ag15
aS'if'
p5423
ag7
aS'variable_6'
p5424
aS'&&'
p5425
aS'variable_4'
p5426
aS'->'
p5427
aS'variable_35'
p5428
aS'&&'
p5429
ag45
aS'func_9'
p5430
ag7
aS'variable_4'
p5431
aS'->'
p5432
aS'variable_35'
p5433
ag10
aS'variable_6'
p5434
ag15
ag15
aS'if'
p5435
ag7
ag7
aS'variable_9'
p5436
ag43
aS'func_10'
p5437
ag7
aS'variable_2'
p5438
aS'->'
p5439
aS'variable_22'
p5440
ag10
ag56
aS'copies'
p5441
ag56
ag10
aS'variable_36'
p5442
ag15
ag15
aS'!='
p5443
aS'NULL'
p5444
ag15
aS'if'
p5445
ag7
aS'variable_9'
p5446
aS'->'
p5447
aS'variable_37'
p5448
ag41
ag96
ag42
ag193
aS'variable_38'
p5449
ag124
ag90
aS'||'
p5450
aS'variable_9'
p5451
aS'->'
p5452
aS'variable_37'
p5453
ag41
ag96
ag42
ag193
aS'variable_38'
p5454
ag200
aS'variable_39'
p5455
ag15
aS'if'
p5456
ag7
ag7
aS'variable_9'
p5457
ag43
aS'func_11'
p5458
ag7
aS'variable_2'
p5459
aS'->'
p5460
aS'variable_22'
p5461
ag10
ag56
aS'job'
p5462
ag72
aS'sheets'
p5463
ag56
ag10
aS'variable_32'
p5464
ag15
ag15
aS'!='
p5465
aS'NULL'
p5466
ag15
aS'if'
p5467
ag7
aS'variable_9'
p5468
aS'->'
p5469
aS'variable_40'
p5470
aS'!='
p5471
aS'variable_41'
p5472
aS'&&'
p5473
aS'variable_9'
p5474
aS'->'
p5475
aS'variable_40'
p5476
aS'!='
p5477
aS'variable_42'
p5478
ag15
aS'if'
p5479
ag7
aS'variable_9'
p5480
aS'->'
p5481
aS'variable_43'
p5482
ag200
ag229
ag15
aS'for'
p5483
ag7
aS'variable_15'
p5484
ag43
ag96
ag18
aS'variable_15'
p5485
ag124
aS'variable_9'
p5486
aS'->'
p5487
aS'variable_43'
p5488
ag18
aS'variable_15'
p5489
aS'++'
p5490
ag15
aS'if'
p5491
ag7
aS'strcmp'
p5492
ag7
aS'variable_9'
p5493
aS'->'
p5494
aS'variable_37'
p5495
ag41
aS'variable_15'
p5496
ag42
ag193
aS'variable_44'
p5497
ag193
aS'variable_45'
p5498
ag10
ag56
aS'none'
p5499
ag56
ag15
aS'&&'
p5500
ag45
aS'func_12'
p5501
ag7
aS'variable_9'
p5502
aS'->'
p5503
aS'variable_37'
p5504
ag41
aS'variable_15'
p5505
ag42
ag193
aS'variable_44'
p5506
ag193
aS'variable_45'
p5507
ag15
ag15
aS'if'
p5508
ag7
ag7
aS'variable_9'
p5509
ag43
aS'func_13'
p5510
ag7
aS'variable_2'
p5511
aS'->'
p5512
aS'variable_22'
p5513
ag10
ag56
aS'number'
p5514
ag72
aS'up'
p5515
ag56
ag10
aS'variable_36'
p5516
ag15
ag15
aS'!='
p5517
aS'NULL'
p5518
ag15
aS'if'
p5519
ag7
aS'variable_9'
p5520
aS'->'
p5521
aS'variable_37'
p5522
ag41
ag96
ag42
ag193
aS'variable_38'
p5523
aS'!='
p5524
ag90
aS'&&'
p5525
aS'variable_9'
p5526
aS'->'
p5527
aS'variable_37'
p5528
ag41
ag96
ag42
ag193
aS'variable_38'
p5529
aS'!='
p5530
ag229
aS'&&'
p5531
aS'variable_9'
p5532
aS'->'
p5533
aS'variable_37'
p5534
ag41
ag96
ag42
ag193
aS'variable_38'
p5535
aS'!='
p5536
ag284
aS'&&'
p5537
aS'variable_9'
p5538
aS'->'
p5539
aS'variable_37'
p5540
ag41
ag96
ag42
ag193
aS'variable_38'
p5541
aS'!='
p5542
ag291
aS'&&'
p5543
aS'variable_9'
p5544
aS'->'
p5545
aS'variable_37'
p5546
ag41
ag96
ag42
ag193
aS'variable_38'
p5547
aS'!='
p5548
ag298
aS'&&'
p5549
aS'variable_9'
p5550
aS'->'
p5551
aS'variable_37'
p5552
ag41
ag96
ag42
ag193
aS'variable_38'
p5553
aS'!='
p5554
aS'16'
p5555
ag15
aS'if'
p5556
ag7
ag7
aS'variable_9'
p5557
ag43
aS'func_14'
p5558
ag7
aS'variable_2'
p5559
aS'->'
p5560
aS'variable_22'
p5561
ag10
ag56
aS'page'
p5562
ag72
aS'ranges'
p5563
ag56
ag10
aS'variable_46'
p5564
ag15
ag15
aS'!='
p5565
aS'NULL'
p5566
ag15
aS'for'
p5567
ag7
aS'variable_15'
p5568
ag43
ag96
ag10
aS'variable_16'
p5569
ag43
ag90
ag18
aS'variable_15'
p5570
ag124
aS'variable_9'
p5571
aS'->'
p5572
aS'variable_43'
p5573
ag18
aS'variable_15'
p5574
aS'++'
p5575
ag15
aS'if'
p5576
ag7
aS'variable_9'
p5577
aS'->'
p5578
aS'variable_37'
p5579
ag41
aS'variable_15'
p5580
ag42
ag193
aS'variable_47'
p5581
ag193
aS'variable_48'
p5582
ag124
aS'variable_16'
p5583
aS'||'
p5584
aS'variable_9'
p5585
aS'->'
p5586
aS'variable_37'
p5587
ag41
aS'variable_15'
p5588
ag42
ag193
aS'variable_47'
p5589
ag193
aS'variable_48'
p5590
ag200
aS'variable_9'
p5591
aS'->'
p5592
aS'variable_37'
p5593
ag41
aS'variable_15'
p5594
ag42
ag193
aS'variable_47'
p5595
ag193
aS'variable_49'
p5596
ag15
aS'variable_16'
p5597
ag43
aS'variable_9'
p5598
aS'->'
p5599
aS'variable_37'
p5600
ag41
aS'variable_15'
p5601
ag42
ag193
aS'variable_47'
p5602
ag193
aS'variable_49'
p5603
ag354
ag90
ag18
aS'if'
p5604
ag7
aS'variable_50'
p5605
aS'&&'
p5606
aS'func_15'
p5607
ag7
aS'variable_51'
p5608
ag15
ag200
ag43
aS'variable_50'
p5609
ag15
aS'if'
p5610
ag7
ag7
aS'variable_15'
p5611
ag43
aS'func_16'
p5612
ag7
aS'variable_2'
p5613
ag10
aS'variable_4'
p5614
ag15
ag15
ag124
ag96
ag15
aS'if'
p5615
ag7
aS'variable_15'
p5616
aS'=='
p5617
ag96
ag15
aS'if'
p5618
ag7
ag7
aS'variable_9'
p5619
ag43
aS'func_17'
p5620
ag7
aS'variable_2'
p5621
aS'->'
p5622
aS'variable_22'
p5623
ag10
ag56
aS'job'
p5624
ag72
aS'priority'
p5625
ag56
ag10
aS'variable_36'
p5626
ag15
ag15
aS'!='
p5627
aS'NULL'
p5628
ag15
aS'variable_13'
p5629
ag43
aS'variable_9'
p5630
aS'->'
p5631
aS'variable_37'
p5632
ag41
ag96
ag42
ag193
aS'variable_38'
p5633
ag18
aS'if'
p5634
ag7
ag7
aS'variable_12'
p5635
ag43
aS'func_18'
p5636
ag7
ag56
aS'job'
p5637
ag72
aS'priority'
p5638
ag56
ag10
aS'variable_4'
p5639
aS'->'
p5640
aS'variable_52'
p5641
ag10
aS'variable_4'
p5642
aS'->'
p5643
aS'variable_53'
p5644
ag15
ag15
aS'!='
p5645
aS'NULL'
p5646
ag15
aS'variable_13'
p5647
ag43
aS'atoi'
p5648
ag7
aS'variable_12'
p5649
ag15
ag18
aS'variable_13'
p5650
ag43
aS'50'
p5651
ag18
aS'if'
p5652
ag7
ag7
aS'variable_9'
p5653
ag43
aS'func_19'
p5654
ag7
aS'variable_2'
p5655
aS'->'
p5656
aS'variable_22'
p5657
ag10
ag56
aS'job'
p5658
ag72
aS'name'
p5659
ag56
ag10
aS'variable_32'
p5660
ag15
ag15
aS'=='
p5661
aS'NULL'
p5662
ag15
aS'if'
p5663
ag7
ag7
aS'variable_9'
p5664
aS'->'
p5665
aS'variable_40'
p5666
aS'!='
p5667
aS'variable_42'
p5668
aS'&&'
p5669
aS'variable_9'
p5670
aS'->'
p5671
aS'variable_40'
p5672
aS'!='
p5673
aS'variable_54'
p5674
ag15
aS'||'
p5675
aS'variable_9'
p5676
aS'->'
p5677
aS'variable_43'
p5678
aS'!='
p5679
ag90
ag15
aS'if'
p5680
ag7
ag45
aS'func_20'
p5681
ag7
aS'variable_9'
p5682
ag15
ag15
aS'if'
p5683
ag7
ag7
aS'variable_14'
p5684
ag43
aS'func_21'
p5685
ag7
aS'variable_13'
p5686
ag10
aS'variable_4'
p5687
aS'->'
p5688
aS'variable_55'
p5689
ag15
ag15
aS'=='
p5690
aS'NULL'
p5691
ag15
aS'variable_14'
p5692
aS'->'
p5693
aS'variable_56'
p5694
ag43
aS'variable_4'
p5695
aS'->'
p5696
aS'variable_57'
p5697
ag449
ag7
aS'variable_58'
p5698
ag451
aS'variable_59'
p5699
ag15
ag18
aS'variable_14'
p5700
aS'->'
p5701
aS'variable_60'
p5702
ag43
aS'variable_2'
p5703
aS'->'
p5704
aS'variable_22'
p5705
ag18
aS'variable_14'
p5706
aS'->'
p5707
aS'variable_61'
p5708
ag43
ag90
ag18
aS'variable_2'
p5709
aS'->'
p5710
aS'variable_22'
p5711
ag43
aS'func_22'
p5712
ag7
aS'variable_14'
p5713
aS'->'
p5714
aS'variable_60'
p5715
aS'->'
p5716
aS'variable_22'
p5717
ag193
aS'variable_62'
p5718
ag193
aS'variable_63'
p5719
ag15
ag18
aS'variable_9'
p5720
ag43
aS'func_23'
p5721
ag7
aS'variable_14'
p5722
aS'->'
p5723
aS'variable_60'
p5724
ag10
ag56
aS'requesting'
p5725
ag72
aS'user'
p5726
ag72
aS'name'
p5727
ag56
ag10
aS'variable_42'
p5728
ag15
ag18
aS'if'
p5729
ag7
ag45
aS'variable_9'
p5730
ag15
aS'variable_9'
p5731
aS'->'
p5732
aS'variable_64'
p5733
ag43
aS'variable_65'
p5734
ag18
aS'variable_9'
p5735
aS'->'
p5736
aS'variable_55'
p5737
ag43
aS'func_24'
p5738
ag7
ag56
aS'job'
p5739
ag72
aS'originating'
p5740
ag72
aS'user'
p5741
ag72
aS'name'
p5742
ag56
ag15
ag18
aS'if'
p5743
ag7
ag7
aS'variable_9'
p5744
ag43
aS'func_25'
p5745
ag7
aS'variable_2'
p5746
aS'->'
p5747
aS'variable_22'
p5748
ag10
ag56
aS'job'
p5749
ag72
aS'name'
p5750
ag56
ag10
aS'variable_42'
p5751
ag15
ag15
aS'!='
p5752
aS'NULL'
p5753
ag15
aS'if'
p5754
ag7
ag7
aS'variable_9'
p5755
ag43
aS'func_26'
p5756
ag7
aS'variable_14'
p5757
aS'->'
p5758
aS'variable_60'
p5759
ag10
ag56
aS'job'
p5760
ag72
aS'originating'
p5761
ag72
aS'host'
p5762
ag72
aS'name'
p5763
ag56
ag10
aS'variable_32'
p5764
ag15
ag15
aS'!='
p5765
aS'NULL'
p5766
ag15
aS'if'
p5767
ag7
aS'variable_9'
p5768
aS'->'
p5769
aS'variable_40'
p5770
aS'!='
p5771
aS'variable_42'
p5772
aS'||'
p5773
aS'variable_9'
p5774
aS'->'
p5775
aS'variable_43'
p5776
aS'!='
p5777
ag90
aS'||'
p5778
aS'strcmp'
p5779
ag7
aS'variable_2'
p5780
aS'->'
p5781
aS'variable_19'
p5782
aS'->'
p5783
aS'variable_20'
p5784
ag10
ag56
aS'localhost'
p5785
ag56
ag15
ag15
aS'switch'
p5786
ag7
aS'variable_9'
p5787
aS'->'
p5788
aS'variable_40'
p5789
ag15
aS'for'
p5790
ag7
aS'variable_15'
p5791
ag43
ag96
ag18
aS'variable_15'
p5792
ag124
aS'variable_9'
p5793
aS'->'
p5794
aS'variable_43'
p5795
ag18
aS'variable_15'
p5796
aS'++'
p5797
ag15
aS'variable_9'
p5798
aS'->'
p5799
aS'variable_37'
p5800
ag41
aS'variable_15'
p5801
ag42
ag193
aS'variable_44'
p5802
ag193
aS'variable_45'
p5803
ag43
aS'NULL'
p5804
ag18
aS'if'
p5805
ag7
aS'variable_9'
p5806
aS'->'
p5807
aS'variable_37'
p5808
ag41
aS'variable_15'
p5809
ag42
ag193
aS'variable_44'
p5810
ag193
aS'variable_66'
p5811
ag15
aS'variable_9'
p5812
aS'->'
p5813
aS'variable_37'
p5814
ag41
aS'variable_15'
p5815
ag42
ag193
aS'variable_44'
p5816
ag193
aS'variable_66'
p5817
ag43
aS'NULL'
p5818
ag18
aS'variable_9'
p5819
aS'->'
p5820
aS'variable_40'
p5821
ag43
aS'variable_42'
p5822
ag18
aS'variable_9'
p5823
aS'->'
p5824
aS'variable_43'
p5825
ag43
ag90
ag18
aS'variable_9'
p5826
aS'->'
p5827
aS'variable_37'
p5828
ag41
ag96
ag42
ag193
aS'variable_44'
p5829
ag193
aS'variable_45'
p5830
ag43
aS'func_27'
p5831
ag7
aS'variable_2'
p5832
aS'->'
p5833
aS'variable_19'
p5834
aS'->'
p5835
aS'variable_20'
p5836
ag15
ag18
aS'variable_9'
p5837
aS'->'
p5838
aS'variable_64'
p5839
ag43
aS'variable_65'
p5840
ag18
aS'variable_9'
p5841
ag43
aS'func_28'
p5842
ag7
aS'variable_14'
p5843
aS'->'
p5844
aS'variable_60'
p5845
ag10
aS'variable_65'
p5846
ag10
aS'variable_36'
p5847
ag10
ag56
aS'time'
p5848
ag72
aS'at'
p5849
ag72
aS'processing'
p5850
ag56
ag10
ag96
ag15
ag18
aS'variable_9'
p5851
aS'->'
p5852
aS'variable_40'
p5853
ag43
aS'variable_67'
p5854
ag18
aS'variable_9'
p5855
ag43
aS'func_29'
p5856
ag7
aS'variable_14'
p5857
aS'->'
p5858
aS'variable_60'
p5859
ag10
aS'variable_65'
p5860
ag10
aS'variable_36'
p5861
ag10
ag56
aS'time'
p5862
ag72
aS'at'
p5863
ag72
aS'completed'
p5864
ag56
ag10
ag96
ag15
ag18
aS'variable_9'
p5865
aS'->'
p5866
aS'variable_40'
p5867
ag43
aS'variable_67'
p5868
ag18
aS'variable_14'
p5869
aS'->'
p5870
aS'variable_68'
p5871
ag43
aS'func_30'
p5872
ag7
aS'variable_14'
p5873
aS'->'
p5874
aS'variable_60'
p5875
ag10
aS'variable_65'
p5876
ag10
aS'variable_69'
p5877
ag10
ag56
aS'job'
p5878
ag72
aS'state'
p5879
ag56
ag10
aS'variable_70'
p5880
ag15
ag18
aS'variable_14'
p5881
aS'->'
p5882
aS'variable_71'
p5883
ag43
ag7
aS'variable_72'
p5884
ag15
aS'variable_14'
p5885
aS'->'
p5886
aS'variable_68'
p5887
aS'->'
p5888
aS'variable_37'
p5889
ag41
ag96
ag42
ag193
aS'variable_38'
p5890
ag18
aS'variable_14'
p5891
aS'->'
p5892
aS'variable_73'
p5893
ag43
aS'func_31'
p5894
ag7
aS'variable_14'
p5895
aS'->'
p5896
aS'variable_60'
p5897
ag10
aS'variable_65'
p5898
ag10
aS'variable_41'
p5899
ag10
ag56
aS'job'
p5900
ag72
aS'state'
p5901
ag72
aS'reasons'
p5902
ag56
ag10
aS'NULL'
p5903
ag10
ag56
aS'job'
p5904
ag72
aS'incoming'
p5905
ag56
ag15
ag18
aS'variable_14'
p5906
aS'->'
p5907
aS'variable_74'
p5908
ag43
aS'func_32'
p5909
ag7
aS'variable_14'
p5910
aS'->'
p5911
aS'variable_60'
p5912
ag10
aS'variable_65'
p5913
ag10
aS'variable_36'
p5914
ag10
ag56
aS'job'
p5915
ag72
aS'media'
p5916
ag72
aS'sheets'
p5917
ag72
aS'completed'
p5918
ag56
ag10
ag96
ag15
ag18
aS'if'
p5919
ag7
ag7
aS'variable_9'
p5920
ag43
aS'func_33'
p5921
ag7
aS'variable_14'
p5922
aS'->'
p5923
aS'variable_60'
p5924
ag10
ag56
aS'job'
p5925
ag72
ag679
ag72
aS'octets'
p5926
ag56
ag10
aS'variable_36'
p5927
ag15
ag15
aS'!='
p5928
aS'NULL'
p5929
ag15
aS'variable_9'
p5930
aS'->'
p5931
aS'variable_37'
p5932
ag41
ag96
ag42
ag193
aS'variable_38'
p5933
ag43
ag96
ag18
aS'if'
p5934
ag7
ag7
aS'variable_9'
p5935
ag43
aS'func_34'
p5936
ag7
aS'variable_14'
p5937
aS'->'
p5938
aS'variable_60'
p5939
ag10
ag56
aS'job'
p5940
ag72
aS'hold'
p5941
ag72
aS'until'
p5942
ag56
ag10
aS'variable_41'
p5943
ag15
ag15
aS'=='
p5944
aS'NULL'
p5945
ag15
aS'variable_9'
p5946
ag43
aS'func_35'
p5947
ag7
aS'variable_14'
p5948
aS'->'
p5949
aS'variable_60'
p5950
ag10
ag56
aS'job'
p5951
ag72
aS'hold'
p5952
ag72
aS'until'
p5953
ag56
ag10
aS'variable_42'
p5954
ag15
ag18
aS'if'
p5955
ag7
ag45
aS'variable_9'
p5956
ag15
aS'if'
p5957
ag7
ag7
aS'variable_12'
p5958
ag43
aS'func_36'
p5959
ag7
ag56
aS'job'
p5960
ag72
aS'hold'
p5961
ag72
aS'until'
p5962
ag56
ag10
aS'variable_4'
p5963
aS'->'
p5964
aS'variable_52'
p5965
ag10
aS'variable_4'
p5966
aS'->'
p5967
aS'variable_53'
p5968
ag15
ag15
aS'=='
p5969
aS'NULL'
p5970
ag15
aS'variable_12'
p5971
ag43
ag56
aS'no'
p5972
ag72
aS'hold'
p5973
ag56
ag18
aS'variable_9'
p5974
ag43
aS'func_37'
p5975
ag7
aS'variable_14'
p5976
aS'->'
p5977
aS'variable_60'
p5978
ag10
aS'variable_65'
p5979
ag10
aS'variable_41'
p5980
ag10
ag56
aS'job'
p5981
ag72
aS'hold'
p5982
ag72
aS'until'
p5983
ag56
ag10
aS'NULL'
p5984
ag10
aS'variable_12'
p5985
ag15
ag18
aS'if'
p5986
ag7
aS'variable_9'
p5987
aS'&&'
p5988
aS'strcmp'
p5989
ag7
aS'variable_9'
p5990
aS'->'
p5991
aS'variable_37'
p5992
ag41
ag96
ag42
ag193
aS'variable_44'
p5993
ag193
aS'variable_45'
p5994
ag10
ag56
aS'no'
p5995
ag72
aS'hold'
p5996
ag56
ag15
ag15
aS'variable_14'
p5997
aS'->'
p5998
aS'variable_68'
p5999
aS'->'
p6000
aS'variable_37'
p6001
ag41
ag96
ag42
ag193
aS'variable_38'
p6002
ag43
aS'variable_75'
p6003
ag18
aS'variable_14'
p6004
aS'->'
p6005
aS'variable_71'
p6006
ag43
aS'variable_75'
p6007
ag18
aS'if'
p6008
ag7
aS'variable_14'
p6009
aS'->'
p6010
aS'variable_60'
p6011
aS'->'
p6012
aS'variable_22'
p6013
ag193
aS'variable_62'
p6014
ag193
aS'variable_63'
p6015
aS'=='
p6016
aS'variable_76'
p6017
ag15
aS'variable_14'
p6018
aS'->'
p6019
aS'variable_77'
p6020
ag43
aS'time'
p6021
ag7
aS'NULL'
p6022
ag15
ag354
aS'variable_78'
p6023
ag18
aS'variable_14'
p6024
aS'->'
p6025
aS'variable_68'
p6026
aS'->'
p6027
aS'variable_37'
p6028
ag41
ag96
ag42
ag193
aS'variable_38'
p6029
ag43
aS'variable_75'
p6030
ag18
aS'variable_14'
p6031
aS'->'
p6032
aS'variable_71'
p6033
ag43
aS'variable_75'
p6034
ag18
aS'variable_14'
p6035
aS'->'
p6036
aS'variable_68'
p6037
aS'->'
p6038
aS'variable_37'
p6039
ag41
ag96
ag42
ag193
aS'variable_38'
p6040
ag43
aS'variable_79'
p6041
ag18
aS'variable_14'
p6042
aS'->'
p6043
aS'variable_71'
p6044
ag43
aS'variable_79'
p6045
ag18
aS'if'
p6046
ag7
ag45
ag7
aS'variable_4'
p6047
aS'->'
p6048
aS'variable_57'
p6049
ag449
aS'variable_59'
p6050
ag15
aS'||'
p6051
aS'variable_80'
p6052
ag15
aS'if'
p6053
ag7
ag7
aS'variable_9'
p6054
ag43
aS'func_38'
p6055
ag7
aS'variable_14'
p6056
aS'->'
p6057
aS'variable_60'
p6058
ag10
ag56
aS'job'
p6059
ag72
aS'sheets'
p6060
ag56
ag10
aS'variable_32'
p6061
ag15
ag15
aS'=='
p6062
aS'NULL'
p6063
ag15
aS'variable_9'
p6064
ag43
aS'func_39'
p6065
ag7
aS'variable_14'
p6066
aS'->'
p6067
aS'variable_60'
p6068
ag10
aS'variable_65'
p6069
ag10
aS'variable_42'
p6070
ag10
ag56
aS'job'
p6071
ag72
aS'sheets'
p6072
ag56
ag10
ag229
ag10
aS'NULL'
p6073
ag10
aS'NULL'
p6074
ag15
ag18
aS'variable_9'
p6075
aS'->'
p6076
aS'variable_37'
p6077
ag41
ag96
ag42
ag193
aS'variable_44'
p6078
ag193
aS'variable_45'
p6079
ag43
aS'func_40'
p6080
ag7
aS'variable_4'
p6081
aS'->'
p6082
aS'variable_81'
p6083
ag41
ag96
ag42
ag15
ag18
aS'variable_9'
p6084
aS'->'
p6085
aS'variable_37'
p6086
ag41
ag90
ag42
ag193
aS'variable_44'
p6087
ag193
aS'variable_45'
p6088
ag43
aS'func_41'
p6089
ag7
aS'variable_4'
p6090
aS'->'
p6091
aS'variable_81'
p6092
ag41
ag90
ag42
ag15
ag18
aS'if'
p6093
ag7
aS'variable_80'
p6094
ag15
aS'if'
p6095
ag7
aS'variable_82'
p6096
ag15
aS'if'
p6097
ag7
ag45
aS'strcmp'
p6098
ag7
aS'variable_9'
p6099
aS'->'
p6100
aS'variable_37'
p6101
ag41
ag96
ag42
ag193
aS'variable_44'
p6102
ag193
aS'variable_45'
p6103
ag10
ag56
aS'none'
p6104
ag56
ag15
aS'&&'
p6105
ag7
aS'variable_9'
p6106
aS'->'
p6107
aS'variable_43'
p6108
aS'=='
p6109
ag90
aS'||'
p6110
ag45
aS'strcmp'
p6111
ag7
aS'variable_9'
p6112
aS'->'
p6113
aS'variable_37'
p6114
ag41
ag90
ag42
ag193
aS'variable_44'
p6115
ag193
aS'variable_45'
p6116
ag10
ag56
aS'none'
p6117
ag56
ag15
ag15
ag15
aa(lp6118
S'static'
p6119
aS'variable_0'
p6120
ag5
aS'func_0'
p6121
ag7
aS'variable_1'
p6122
ag5
aS'variable_2'
p6123
ag10
aS'variable_3'
p6124
ag5
aS'variable_4'
p6125
ag10
aS'variable_5'
p6126
ag5
aS'variable_6'
p6127
ag15
aS'http_status_t'
p6128
aS'variable_7'
p6129
ag18
aS'variable_8'
p6130
ag5
aS'variable_9'
p6131
ag10
ag5
aS'variable_10'
p6132
ag18
aS'const'
p6133
aS'char'
p6134
ag5
aS'variable_11'
p6135
ag18
aS'const'
p6136
aS'char'
p6137
ag5
aS'variable_12'
p6138
ag18
aS'int'
p6139
aS'variable_13'
p6140
ag18
aS'variable_0'
p6141
ag5
aS'variable_14'
p6142
ag18
aS'int'
p6143
aS'variable_15'
p6144
ag18
aS'int'
p6145
aS'variable_16'
p6146
ag18
aS'static'
p6147
aS'const'
p6148
aS'char'
p6149
ag5
aS'const'
p6150
aS'variable_17'
p6151
ag41
ag42
ag43
aS'if'
p6152
ag7
ag45
aS'variable_4'
p6153
aS'->'
p6154
aS'variable_18'
p6155
aS'&&'
p6156
aS'func_1'
p6157
ag7
aS'variable_2'
p6158
aS'->'
p6159
aS'variable_19'
p6160
aS'->'
p6161
aS'variable_20'
p6162
ag10
ag56
aS'localhost'
p6163
ag56
ag15
aS'&&'
p6164
aS'func_2'
p6165
ag7
aS'variable_2'
p6166
aS'->'
p6167
aS'variable_19'
p6168
aS'->'
p6169
aS'variable_20'
p6170
ag10
aS'variable_21'
p6171
ag15
ag15
aS'variable_10'
p6172
ag43
aS'func_3'
p6173
ag7
aS'variable_2'
p6174
aS'->'
p6175
aS'variable_22'
p6176
ag10
ag56
aS'auth'
p6177
ag72
aS'info'
p6178
ag56
ag10
aS'variable_23'
p6179
ag15
ag18
aS'if'
p6180
ag7
ag7
aS'variable_7'
p6181
ag43
aS'func_4'
p6182
ag7
aS'variable_4'
p6183
aS'->'
p6184
aS'variable_24'
p6185
ag10
aS'variable_2'
p6186
ag10
aS'NULL'
p6187
ag15
ag15
aS'!='
p6188
aS'variable_25'
p6189
ag15
aS'if'
p6190
ag7
aS'variable_4'
p6191
aS'->'
p6192
aS'variable_26'
p6193
aS'=='
p6194
ag90
aS'&&'
p6195
ag45
aS'strcmp'
p6196
ag7
aS'variable_4'
p6197
aS'->'
p6198
aS'variable_27'
p6199
ag41
ag96
ag42
ag10
ag56
aS'negotiate'
p6200
ag56
ag15
aS'&&'
p6201
ag45
aS'variable_2'
p6202
aS'->'
p6203
aS'variable_28'
p6204
ag41
ag96
ag42
ag15
aS'if'
p6205
ag7
aS'variable_10'
p6206
aS'&&'
p6207
ag45
aS'variable_2'
p6208
aS'->'
p6209
aS'variable_19'
p6210
aS'->'
p6211
aS'variable_29'
p6212
aS'&&'
p6213
ag45
aS'func_5'
p6214
ag7
aS'variable_2'
p6215
aS'->'
p6216
aS'variable_19'
p6217
aS'->'
p6218
aS'variable_30'
p6219
ag15
ag15
aS'if'
p6220
ag7
ag45
aS'variable_4'
p6221
aS'->'
p6222
aS'variable_31'
p6223
ag15
aS'for'
p6224
ag7
aS'variable_15'
p6225
ag43
ag96
ag18
aS'variable_15'
p6226
ag124
ag7
aS'int'
p6227
ag15
ag7
aS'sizeof'
p6228
ag7
aS'variable_17'
p6229
ag15
ag128
aS'sizeof'
p6230
ag7
aS'variable_17'
p6231
ag41
ag96
ag42
ag15
ag15
ag18
aS'variable_15'
p6232
aS'++'
p6233
ag15
aS'if'
p6234
ag7
ag7
aS'variable_9'
p6235
ag43
aS'func_6'
p6236
ag7
aS'variable_2'
p6237
aS'->'
p6238
aS'variable_22'
p6239
ag10
aS'variable_17'
p6240
ag41
aS'variable_15'
p6241
ag42
ag10
aS'variable_32'
p6242
ag15
ag15
aS'!='
p6243
aS'NULL'
p6244
ag15
aS'if'
p6245
ag7
aS'variable_33'
p6246
ag15
aS'if'
p6247
ag7
aS'variable_4'
p6248
aS'->'
p6249
aS'variable_34'
p6250
ag15
aS'for'
p6251
ag7
aS'variable_11'
p6252
ag43
ag7
aS'variable_11'
p6253
ag43
ag7
aS'char'
p6254
ag5
ag15
aS'func_7'
p6255
ag7
aS'variable_4'
p6256
aS'->'
p6257
aS'variable_34'
p6258
aS'->'
p6259
aS'variable_11'
p6260
ag15
ag15
aS'if'
p6261
ag7
ag45
aS'func_8'
p6262
ag7
aS'variable_2'
p6263
aS'->'
p6264
aS'variable_22'
p6265
ag10
aS'variable_11'
p6266
ag10
aS'variable_32'
p6267
ag15
ag15
aS'if'
p6268
ag7
aS'variable_6'
p6269
aS'&&'
p6270
aS'variable_4'
p6271
aS'->'
p6272
aS'variable_35'
p6273
aS'&&'
p6274
ag45
aS'func_9'
p6275
ag7
aS'variable_4'
p6276
aS'->'
p6277
aS'variable_35'
p6278
ag10
aS'variable_6'
p6279
ag15
ag15
aS'if'
p6280
ag7
ag7
aS'variable_9'
p6281
ag43
aS'func_10'
p6282
ag7
aS'variable_2'
p6283
aS'->'
p6284
aS'variable_22'
p6285
ag10
ag56
aS'copies'
p6286
ag56
ag10
aS'variable_36'
p6287
ag15
ag15
aS'!='
p6288
aS'NULL'
p6289
ag15
aS'if'
p6290
ag7
aS'variable_9'
p6291
aS'->'
p6292
aS'variable_37'
p6293
ag41
ag96
ag42
ag193
aS'variable_38'
p6294
ag124
ag90
aS'||'
p6295
aS'variable_9'
p6296
aS'->'
p6297
aS'variable_37'
p6298
ag41
ag96
ag42
ag193
aS'variable_38'
p6299
ag200
aS'variable_39'
p6300
ag15
aS'if'
p6301
ag7
ag7
aS'variable_9'
p6302
ag43
aS'func_11'
p6303
ag7
aS'variable_2'
p6304
aS'->'
p6305
aS'variable_22'
p6306
ag10
ag56
aS'job'
p6307
ag72
aS'sheets'
p6308
ag56
ag10
aS'variable_32'
p6309
ag15
ag15
aS'!='
p6310
aS'NULL'
p6311
ag15
aS'if'
p6312
ag7
aS'variable_9'
p6313
aS'->'
p6314
aS'variable_40'
p6315
aS'!='
p6316
aS'variable_41'
p6317
aS'&&'
p6318
aS'variable_9'
p6319
aS'->'
p6320
aS'variable_40'
p6321
aS'!='
p6322
aS'variable_42'
p6323
ag15
aS'if'
p6324
ag7
aS'variable_9'
p6325
aS'->'
p6326
aS'variable_43'
p6327
ag200
ag229
ag15
aS'for'
p6328
ag7
aS'variable_15'
p6329
ag43
ag96
ag18
aS'variable_15'
p6330
ag124
aS'variable_9'
p6331
aS'->'
p6332
aS'variable_43'
p6333
ag18
aS'variable_15'
p6334
aS'++'
p6335
ag15
aS'if'
p6336
ag7
aS'strcmp'
p6337
ag7
aS'variable_9'
p6338
aS'->'
p6339
aS'variable_37'
p6340
ag41
aS'variable_15'
p6341
ag42
ag193
aS'variable_44'
p6342
ag193
aS'variable_45'
p6343
ag10
ag56
aS'none'
p6344
ag56
ag15
aS'&&'
p6345
ag45
aS'func_12'
p6346
ag7
aS'variable_9'
p6347
aS'->'
p6348
aS'variable_37'
p6349
ag41
aS'variable_15'
p6350
ag42
ag193
aS'variable_44'
p6351
ag193
aS'variable_45'
p6352
ag15
ag15
aS'if'
p6353
ag7
ag7
aS'variable_9'
p6354
ag43
aS'func_13'
p6355
ag7
aS'variable_2'
p6356
aS'->'
p6357
aS'variable_22'
p6358
ag10
ag56
aS'number'
p6359
ag72
aS'up'
p6360
ag56
ag10
aS'variable_36'
p6361
ag15
ag15
aS'!='
p6362
aS'NULL'
p6363
ag15
aS'if'
p6364
ag7
aS'variable_9'
p6365
aS'->'
p6366
aS'variable_37'
p6367
ag41
ag96
ag42
ag193
aS'variable_38'
p6368
aS'!='
p6369
ag90
aS'&&'
p6370
aS'variable_9'
p6371
aS'->'
p6372
aS'variable_37'
p6373
ag41
ag96
ag42
ag193
aS'variable_38'
p6374
aS'!='
p6375
ag229
aS'&&'
p6376
aS'variable_9'
p6377
aS'->'
p6378
aS'variable_37'
p6379
ag41
ag96
ag42
ag193
aS'variable_38'
p6380
aS'!='
p6381
ag284
aS'&&'
p6382
aS'variable_9'
p6383
aS'->'
p6384
aS'variable_37'
p6385
ag41
ag96
ag42
ag193
aS'variable_38'
p6386
aS'!='
p6387
ag291
aS'&&'
p6388
aS'variable_9'
p6389
aS'->'
p6390
aS'variable_37'
p6391
ag41
ag96
ag42
ag193
aS'variable_38'
p6392
aS'!='
p6393
ag298
aS'&&'
p6394
aS'variable_9'
p6395
aS'->'
p6396
aS'variable_37'
p6397
ag41
ag96
ag42
ag193
aS'variable_38'
p6398
aS'!='
p6399
aS'16'
p6400
ag15
aS'if'
p6401
ag7
ag7
aS'variable_9'
p6402
ag43
aS'func_14'
p6403
ag7
aS'variable_2'
p6404
aS'->'
p6405
aS'variable_22'
p6406
ag10
ag56
aS'page'
p6407
ag72
aS'ranges'
p6408
ag56
ag10
aS'variable_46'
p6409
ag15
ag15
aS'!='
p6410
aS'NULL'
p6411
ag15
aS'for'
p6412
ag7
aS'variable_15'
p6413
ag43
ag96
ag10
aS'variable_16'
p6414
ag43
ag90
ag18
aS'variable_15'
p6415
ag124
aS'variable_9'
p6416
aS'->'
p6417
aS'variable_43'
p6418
ag18
aS'variable_15'
p6419
aS'++'
p6420
ag15
aS'if'
p6421
ag7
aS'variable_9'
p6422
aS'->'
p6423
aS'variable_37'
p6424
ag41
aS'variable_15'
p6425
ag42
ag193
aS'variable_47'
p6426
ag193
aS'variable_48'
p6427
ag124
aS'variable_16'
p6428
aS'||'
p6429
aS'variable_9'
p6430
aS'->'
p6431
aS'variable_37'
p6432
ag41
aS'variable_15'
p6433
ag42
ag193
aS'variable_47'
p6434
ag193
aS'variable_48'
p6435
ag200
aS'variable_9'
p6436
aS'->'
p6437
aS'variable_37'
p6438
ag41
aS'variable_15'
p6439
ag42
ag193
aS'variable_47'
p6440
ag193
aS'variable_49'
p6441
ag15
aS'variable_16'
p6442
ag43
aS'variable_9'
p6443
aS'->'
p6444
aS'variable_37'
p6445
ag41
aS'variable_15'
p6446
ag42
ag193
aS'variable_47'
p6447
ag193
aS'variable_49'
p6448
ag354
ag90
ag18
aS'if'
p6449
ag7
aS'variable_50'
p6450
aS'&&'
p6451
aS'func_15'
p6452
ag7
aS'variable_51'
p6453
ag15
ag200
ag43
aS'variable_50'
p6454
ag15
aS'if'
p6455
ag7
ag7
aS'variable_15'
p6456
ag43
aS'func_16'
p6457
ag7
aS'variable_2'
p6458
ag10
aS'variable_4'
p6459
ag15
ag15
ag124
ag96
ag15
aS'if'
p6460
ag7
aS'variable_15'
p6461
aS'=='
p6462
ag96
ag15
aS'if'
p6463
ag7
ag7
aS'variable_9'
p6464
ag43
aS'func_17'
p6465
ag7
aS'variable_2'
p6466
aS'->'
p6467
aS'variable_22'
p6468
ag10
ag56
aS'job'
p6469
ag72
aS'priority'
p6470
ag56
ag10
aS'variable_36'
p6471
ag15
ag15
aS'!='
p6472
aS'NULL'
p6473
ag15
aS'variable_13'
p6474
ag43
aS'variable_9'
p6475
aS'->'
p6476
aS'variable_37'
p6477
ag41
ag96
ag42
ag193
aS'variable_38'
p6478
ag18
aS'if'
p6479
ag7
ag7
aS'variable_12'
p6480
ag43
aS'func_18'
p6481
ag7
ag56
aS'job'
p6482
ag72
aS'priority'
p6483
ag56
ag10
aS'variable_4'
p6484
aS'->'
p6485
aS'variable_52'
p6486
ag10
aS'variable_4'
p6487
aS'->'
p6488
aS'variable_53'
p6489
ag15
ag15
aS'!='
p6490
aS'NULL'
p6491
ag15
aS'variable_13'
p6492
ag43
aS'atoi'
p6493
ag7
aS'variable_12'
p6494
ag15
ag18
aS'variable_13'
p6495
ag43
aS'50'
p6496
ag18
aS'if'
p6497
ag7
ag7
aS'variable_9'
p6498
ag43
aS'func_19'
p6499
ag7
aS'variable_2'
p6500
aS'->'
p6501
aS'variable_22'
p6502
ag10
ag56
aS'job'
p6503
ag72
aS'name'
p6504
ag56
ag10
aS'variable_32'
p6505
ag15
ag15
aS'=='
p6506
aS'NULL'
p6507
ag15
aS'if'
p6508
ag7
ag7
aS'variable_9'
p6509
aS'->'
p6510
aS'variable_40'
p6511
aS'!='
p6512
aS'variable_42'
p6513
aS'&&'
p6514
aS'variable_9'
p6515
aS'->'
p6516
aS'variable_40'
p6517
aS'!='
p6518
aS'variable_54'
p6519
ag15
aS'||'
p6520
aS'variable_9'
p6521
aS'->'
p6522
aS'variable_43'
p6523
aS'!='
p6524
ag90
ag15
aS'if'
p6525
ag7
ag45
aS'func_20'
p6526
ag7
aS'variable_9'
p6527
ag15
ag15
aS'if'
p6528
ag7
ag7
aS'variable_14'
p6529
ag43
aS'func_21'
p6530
ag7
aS'variable_13'
p6531
ag10
aS'variable_4'
p6532
aS'->'
p6533
aS'variable_55'
p6534
ag15
ag15
aS'=='
p6535
aS'NULL'
p6536
ag15
aS'variable_14'
p6537
aS'->'
p6538
aS'variable_56'
p6539
ag43
aS'variable_4'
p6540
aS'->'
p6541
aS'variable_57'
p6542
ag449
ag7
aS'variable_58'
p6543
ag451
aS'variable_59'
p6544
ag15
ag18
aS'variable_14'
p6545
aS'->'
p6546
aS'variable_60'
p6547
ag43
aS'variable_2'
p6548
aS'->'
p6549
aS'variable_22'
p6550
ag18
aS'variable_14'
p6551
aS'->'
p6552
aS'variable_61'
p6553
ag43
ag90
ag18
aS'variable_2'
p6554
aS'->'
p6555
aS'variable_22'
p6556
ag43
aS'func_22'
p6557
ag7
aS'variable_14'
p6558
aS'->'
p6559
aS'variable_60'
p6560
aS'->'
p6561
aS'variable_22'
p6562
ag193
aS'variable_62'
p6563
ag193
aS'variable_63'
p6564
ag15
ag18
aS'variable_9'
p6565
ag43
aS'func_23'
p6566
ag7
aS'variable_14'
p6567
aS'->'
p6568
aS'variable_60'
p6569
ag10
ag56
aS'requesting'
p6570
ag72
aS'user'
p6571
ag72
aS'name'
p6572
ag56
ag10
aS'variable_42'
p6573
ag15
ag18
aS'if'
p6574
ag7
ag45
aS'variable_9'
p6575
ag15
aS'variable_9'
p6576
aS'->'
p6577
aS'variable_64'
p6578
ag43
aS'variable_65'
p6579
ag18
aS'variable_9'
p6580
aS'->'
p6581
aS'variable_55'
p6582
ag43
aS'func_24'
p6583
ag7
ag56
aS'job'
p6584
ag72
aS'originating'
p6585
ag72
aS'user'
p6586
ag72
aS'name'
p6587
ag56
ag15
ag18
aS'if'
p6588
ag7
ag7
aS'variable_9'
p6589
ag43
aS'func_25'
p6590
ag7
aS'variable_2'
p6591
aS'->'
p6592
aS'variable_22'
p6593
ag10
ag56
aS'job'
p6594
ag72
aS'name'
p6595
ag56
ag10
aS'variable_42'
p6596
ag15
ag15
aS'!='
p6597
aS'NULL'
p6598
ag15
aS'if'
p6599
ag7
ag7
aS'variable_9'
p6600
ag43
aS'func_26'
p6601
ag7
aS'variable_14'
p6602
aS'->'
p6603
aS'variable_60'
p6604
ag10
ag56
aS'job'
p6605
ag72
aS'originating'
p6606
ag72
aS'host'
p6607
ag72
aS'name'
p6608
ag56
ag10
aS'variable_32'
p6609
ag15
ag15
aS'!='
p6610
aS'NULL'
p6611
ag15
aS'if'
p6612
ag7
aS'variable_9'
p6613
aS'->'
p6614
aS'variable_40'
p6615
aS'!='
p6616
aS'variable_42'
p6617
aS'||'
p6618
aS'variable_9'
p6619
aS'->'
p6620
aS'variable_43'
p6621
aS'!='
p6622
ag90
aS'||'
p6623
aS'strcmp'
p6624
ag7
aS'variable_2'
p6625
aS'->'
p6626
aS'variable_19'
p6627
aS'->'
p6628
aS'variable_20'
p6629
ag10
ag56
aS'localhost'
p6630
ag56
ag15
ag15
aS'switch'
p6631
ag7
aS'variable_9'
p6632
aS'->'
p6633
aS'variable_40'
p6634
ag15
aS'for'
p6635
ag7
aS'variable_15'
p6636
ag43
ag96
ag18
aS'variable_15'
p6637
ag124
aS'variable_9'
p6638
aS'->'
p6639
aS'variable_43'
p6640
ag18
aS'variable_15'
p6641
aS'++'
p6642
ag15
aS'variable_9'
p6643
aS'->'
p6644
aS'variable_37'
p6645
ag41
aS'variable_15'
p6646
ag42
ag193
aS'variable_44'
p6647
ag193
aS'variable_45'
p6648
ag43
aS'NULL'
p6649
ag18
aS'if'
p6650
ag7
aS'variable_9'
p6651
aS'->'
p6652
aS'variable_37'
p6653
ag41
aS'variable_15'
p6654
ag42
ag193
aS'variable_44'
p6655
ag193
aS'variable_66'
p6656
ag15
aS'variable_9'
p6657
aS'->'
p6658
aS'variable_37'
p6659
ag41
aS'variable_15'
p6660
ag42
ag193
aS'variable_44'
p6661
ag193
aS'variable_66'
p6662
ag43
aS'NULL'
p6663
ag18
aS'variable_9'
p6664
aS'->'
p6665
aS'variable_40'
p6666
ag43
aS'variable_42'
p6667
ag18
aS'variable_9'
p6668
aS'->'
p6669
aS'variable_43'
p6670
ag43
ag90
ag18
aS'variable_9'
p6671
aS'->'
p6672
aS'variable_37'
p6673
ag41
ag96
ag42
ag193
aS'variable_44'
p6674
ag193
aS'variable_45'
p6675
ag43
aS'func_27'
p6676
ag7
aS'variable_2'
p6677
aS'->'
p6678
aS'variable_19'
p6679
aS'->'
p6680
aS'variable_20'
p6681
ag15
ag18
aS'variable_9'
p6682
aS'->'
p6683
aS'variable_64'
p6684
ag43
aS'variable_65'
p6685
ag18
aS'variable_9'
p6686
ag43
aS'func_28'
p6687
ag7
aS'variable_14'
p6688
aS'->'
p6689
aS'variable_60'
p6690
ag10
aS'variable_65'
p6691
ag10
aS'variable_36'
p6692
ag10
ag56
aS'time'
p6693
ag72
aS'at'
p6694
ag72
aS'processing'
p6695
ag56
ag10
ag96
ag15
ag18
aS'variable_9'
p6696
aS'->'
p6697
aS'variable_40'
p6698
ag43
aS'variable_67'
p6699
ag18
aS'variable_9'
p6700
ag43
aS'func_29'
p6701
ag7
aS'variable_14'
p6702
aS'->'
p6703
aS'variable_60'
p6704
ag10
aS'variable_65'
p6705
ag10
aS'variable_36'
p6706
ag10
ag56
aS'time'
p6707
ag72
aS'at'
p6708
ag72
aS'completed'
p6709
ag56
ag10
ag96
ag15
ag18
aS'variable_9'
p6710
aS'->'
p6711
aS'variable_40'
p6712
ag43
aS'variable_67'
p6713
ag18
aS'variable_14'
p6714
aS'->'
p6715
aS'variable_68'
p6716
ag43
aS'func_30'
p6717
ag7
aS'variable_14'
p6718
aS'->'
p6719
aS'variable_60'
p6720
ag10
aS'variable_65'
p6721
ag10
aS'variable_69'
p6722
ag10
ag56
aS'job'
p6723
ag72
aS'state'
p6724
ag56
ag10
aS'variable_70'
p6725
ag15
ag18
aS'variable_14'
p6726
aS'->'
p6727
aS'variable_71'
p6728
ag43
ag7
aS'variable_72'
p6729
ag15
aS'variable_14'
p6730
aS'->'
p6731
aS'variable_68'
p6732
aS'->'
p6733
aS'variable_37'
p6734
ag41
ag96
ag42
ag193
aS'variable_38'
p6735
ag18
aS'variable_14'
p6736
aS'->'
p6737
aS'variable_73'
p6738
ag43
aS'func_31'
p6739
ag7
aS'variable_14'
p6740
aS'->'
p6741
aS'variable_60'
p6742
ag10
aS'variable_65'
p6743
ag10
aS'variable_41'
p6744
ag10
ag56
aS'job'
p6745
ag72
aS'state'
p6746
ag72
aS'reasons'
p6747
ag56
ag10
aS'NULL'
p6748
ag10
ag56
aS'job'
p6749
ag72
aS'incoming'
p6750
ag56
ag15
ag18
aS'variable_14'
p6751
aS'->'
p6752
aS'variable_74'
p6753
ag43
aS'func_32'
p6754
ag7
aS'variable_14'
p6755
aS'->'
p6756
aS'variable_60'
p6757
ag10
aS'variable_65'
p6758
ag10
aS'variable_36'
p6759
ag10
ag56
aS'job'
p6760
ag72
aS'media'
p6761
ag72
aS'sheets'
p6762
ag72
aS'completed'
p6763
ag56
ag10
ag96
ag15
ag18
aS'if'
p6764
ag7
ag7
aS'variable_9'
p6765
ag43
aS'func_33'
p6766
ag7
aS'variable_14'
p6767
aS'->'
p6768
aS'variable_60'
p6769
ag10
ag56
aS'job'
p6770
ag72
ag679
ag72
aS'octets'
p6771
ag56
ag10
aS'variable_36'
p6772
ag15
ag15
aS'!='
p6773
aS'NULL'
p6774
ag15
aS'variable_9'
p6775
aS'->'
p6776
aS'variable_37'
p6777
ag41
ag96
ag42
ag193
aS'variable_38'
p6778
ag43
ag96
ag18
aS'if'
p6779
ag7
ag7
aS'variable_9'
p6780
ag43
aS'func_34'
p6781
ag7
aS'variable_14'
p6782
aS'->'
p6783
aS'variable_60'
p6784
ag10
ag56
aS'job'
p6785
ag72
aS'hold'
p6786
ag72
aS'until'
p6787
ag56
ag10
aS'variable_41'
p6788
ag15
ag15
aS'=='
p6789
aS'NULL'
p6790
ag15
aS'variable_9'
p6791
ag43
aS'func_35'
p6792
ag7
aS'variable_14'
p6793
aS'->'
p6794
aS'variable_60'
p6795
ag10
ag56
aS'job'
p6796
ag72
aS'hold'
p6797
ag72
aS'until'
p6798
ag56
ag10
aS'variable_42'
p6799
ag15
ag18
aS'if'
p6800
ag7
ag45
aS'variable_9'
p6801
ag15
aS'if'
p6802
ag7
ag7
aS'variable_12'
p6803
ag43
aS'func_36'
p6804
ag7
ag56
aS'job'
p6805
ag72
aS'hold'
p6806
ag72
aS'until'
p6807
ag56
ag10
aS'variable_4'
p6808
aS'->'
p6809
aS'variable_52'
p6810
ag10
aS'variable_4'
p6811
aS'->'
p6812
aS'variable_53'
p6813
ag15
ag15
aS'=='
p6814
aS'NULL'
p6815
ag15
aS'variable_12'
p6816
ag43
ag56
aS'no'
p6817
ag72
aS'hold'
p6818
ag56
ag18
aS'variable_9'
p6819
ag43
aS'func_37'
p6820
ag7
aS'variable_14'
p6821
aS'->'
p6822
aS'variable_60'
p6823
ag10
aS'variable_65'
p6824
ag10
aS'variable_41'
p6825
ag10
ag56
aS'job'
p6826
ag72
aS'hold'
p6827
ag72
aS'until'
p6828
ag56
ag10
aS'NULL'
p6829
ag10
aS'variable_12'
p6830
ag15
ag18
aS'if'
p6831
ag7
aS'variable_9'
p6832
aS'&&'
p6833
aS'strcmp'
p6834
ag7
aS'variable_9'
p6835
aS'->'
p6836
aS'variable_37'
p6837
ag41
ag96
ag42
ag193
aS'variable_44'
p6838
ag193
aS'variable_45'
p6839
ag10
ag56
aS'no'
p6840
ag72
aS'hold'
p6841
ag56
ag15
ag15
aa(lp6842
S'static'
p6843
aS'variable_0'
p6844
ag5
aS'func_0'
p6845
ag7
aS'variable_1'
p6846
ag5
aS'variable_2'
p6847
ag10
aS'variable_3'
p6848
ag5
aS'variable_4'
p6849
ag10
aS'variable_5'
p6850
ag5
aS'variable_6'
p6851
ag15
aS'http_status_t'
p6852
aS'variable_7'
p6853
ag18
aS'variable_8'
p6854
ag5
aS'variable_9'
p6855
ag10
ag5
aS'variable_10'
p6856
ag18
aS'const'
p6857
aS'char'
p6858
ag5
aS'variable_11'
p6859
ag18
aS'const'
p6860
aS'char'
p6861
ag5
aS'variable_12'
p6862
ag18
aS'int'
p6863
aS'variable_13'
p6864
ag18
aS'variable_0'
p6865
ag5
aS'variable_14'
p6866
ag18
aS'int'
p6867
aS'variable_15'
p6868
ag18
aS'int'
p6869
aS'variable_16'
p6870
ag18
aS'static'
p6871
aS'const'
p6872
aS'char'
p6873
ag5
aS'const'
p6874
aS'variable_17'
p6875
ag41
ag42
ag43
aS'if'
p6876
ag7
ag45
aS'variable_4'
p6877
aS'->'
p6878
aS'variable_18'
p6879
aS'&&'
p6880
aS'func_1'
p6881
ag7
aS'variable_2'
p6882
aS'->'
p6883
aS'variable_19'
p6884
aS'->'
p6885
aS'variable_20'
p6886
ag10
ag56
aS'localhost'
p6887
ag56
ag15
aS'&&'
p6888
aS'func_2'
p6889
ag7
aS'variable_2'
p6890
aS'->'
p6891
aS'variable_19'
p6892
aS'->'
p6893
aS'variable_20'
p6894
ag10
aS'variable_21'
p6895
ag15
ag15
aS'variable_10'
p6896
ag43
aS'func_3'
p6897
ag7
aS'variable_2'
p6898
aS'->'
p6899
aS'variable_22'
p6900
ag10
ag56
aS'auth'
p6901
ag72
aS'info'
p6902
ag56
ag10
aS'variable_23'
p6903
ag15
ag18
aS'if'
p6904
ag7
ag7
aS'variable_7'
p6905
ag43
aS'func_4'
p6906
ag7
aS'variable_4'
p6907
aS'->'
p6908
aS'variable_24'
p6909
ag10
aS'variable_2'
p6910
ag10
aS'NULL'
p6911
ag15
ag15
aS'!='
p6912
aS'variable_25'
p6913
ag15
aS'if'
p6914
ag7
aS'variable_4'
p6915
aS'->'
p6916
aS'variable_26'
p6917
aS'=='
p6918
ag90
aS'&&'
p6919
ag45
aS'strcmp'
p6920
ag7
aS'variable_4'
p6921
aS'->'
p6922
aS'variable_27'
p6923
ag41
ag96
ag42
ag10
ag56
aS'negotiate'
p6924
ag56
ag15
aS'&&'
p6925
ag45
aS'variable_2'
p6926
aS'->'
p6927
aS'variable_28'
p6928
ag41
ag96
ag42
ag15
aS'if'
p6929
ag7
aS'variable_10'
p6930
aS'&&'
p6931
ag45
aS'variable_2'
p6932
aS'->'
p6933
aS'variable_19'
p6934
aS'->'
p6935
aS'variable_29'
p6936
aS'&&'
p6937
ag45
aS'func_5'
p6938
ag7
aS'variable_2'
p6939
aS'->'
p6940
aS'variable_19'
p6941
aS'->'
p6942
aS'variable_30'
p6943
ag15
ag15
aS'if'
p6944
ag7
ag45
aS'variable_4'
p6945
aS'->'
p6946
aS'variable_31'
p6947
ag15
aS'for'
p6948
ag7
aS'variable_15'
p6949
ag43
ag96
ag18
aS'variable_15'
p6950
ag124
ag7
aS'int'
p6951
ag15
ag7
aS'sizeof'
p6952
ag7
aS'variable_17'
p6953
ag15
ag128
aS'sizeof'
p6954
ag7
aS'variable_17'
p6955
ag41
ag96
ag42
ag15
ag15
ag18
aS'variable_15'
p6956
aS'++'
p6957
ag15
aS'if'
p6958
ag7
ag7
aS'variable_9'
p6959
ag43
aS'func_6'
p6960
ag7
aS'variable_2'
p6961
aS'->'
p6962
aS'variable_22'
p6963
ag10
aS'variable_17'
p6964
ag41
aS'variable_15'
p6965
ag42
ag10
aS'variable_32'
p6966
ag15
ag15
aS'!='
p6967
aS'NULL'
p6968
ag15
aS'if'
p6969
ag7
aS'variable_33'
p6970
ag15
aS'if'
p6971
ag7
aS'variable_4'
p6972
aS'->'
p6973
aS'variable_34'
p6974
ag15
aS'for'
p6975
ag7
aS'variable_11'
p6976
ag43
ag7
aS'variable_11'
p6977
ag43
ag7
aS'char'
p6978
ag5
ag15
aS'func_7'
p6979
ag7
aS'variable_4'
p6980
aS'->'
p6981
aS'variable_34'
p6982
aS'->'
p6983
aS'variable_11'
p6984
ag15
ag15
aS'if'
p6985
ag7
ag45
aS'func_8'
p6986
ag7
aS'variable_2'
p6987
aS'->'
p6988
aS'variable_22'
p6989
ag10
aS'variable_11'
p6990
ag10
aS'variable_32'
p6991
ag15
ag15
aS'if'
p6992
ag7
aS'variable_6'
p6993
aS'&&'
p6994
aS'variable_4'
p6995
aS'->'
p6996
aS'variable_35'
p6997
aS'&&'
p6998
ag45
aS'func_9'
p6999
ag7
aS'variable_4'
p7000
aS'->'
p7001
aS'variable_35'
p7002
ag10
aS'variable_6'
p7003
ag15
ag15
aS'if'
p7004
ag7
ag7
aS'variable_9'
p7005
ag43
aS'func_10'
p7006
ag7
aS'variable_2'
p7007
aS'->'
p7008
aS'variable_22'
p7009
ag10
ag56
aS'copies'
p7010
ag56
ag10
aS'variable_36'
p7011
ag15
ag15
aS'!='
p7012
aS'NULL'
p7013
ag15
aS'if'
p7014
ag7
aS'variable_9'
p7015
aS'->'
p7016
aS'variable_37'
p7017
ag41
ag96
ag42
ag193
aS'variable_38'
p7018
ag124
ag90
aS'||'
p7019
aS'variable_9'
p7020
aS'->'
p7021
aS'variable_37'
p7022
ag41
ag96
ag42
ag193
aS'variable_38'
p7023
ag200
aS'variable_39'
p7024
ag15
aS'if'
p7025
ag7
ag7
aS'variable_9'
p7026
ag43
aS'func_11'
p7027
ag7
aS'variable_2'
p7028
aS'->'
p7029
aS'variable_22'
p7030
ag10
ag56
aS'job'
p7031
ag72
aS'sheets'
p7032
ag56
ag10
aS'variable_32'
p7033
ag15
ag15
aS'!='
p7034
aS'NULL'
p7035
ag15
aS'if'
p7036
ag7
aS'variable_9'
p7037
aS'->'
p7038
aS'variable_40'
p7039
aS'!='
p7040
aS'variable_41'
p7041
aS'&&'
p7042
aS'variable_9'
p7043
aS'->'
p7044
aS'variable_40'
p7045
aS'!='
p7046
aS'variable_42'
p7047
ag15
aS'if'
p7048
ag7
aS'variable_9'
p7049
aS'->'
p7050
aS'variable_43'
p7051
ag200
ag229
ag15
aS'for'
p7052
ag7
aS'variable_15'
p7053
ag43
ag96
ag18
aS'variable_15'
p7054
ag124
aS'variable_9'
p7055
aS'->'
p7056
aS'variable_43'
p7057
ag18
aS'variable_15'
p7058
aS'++'
p7059
ag15
aS'if'
p7060
ag7
aS'strcmp'
p7061
ag7
aS'variable_9'
p7062
aS'->'
p7063
aS'variable_37'
p7064
ag41
aS'variable_15'
p7065
ag42
ag193
aS'variable_44'
p7066
ag193
aS'variable_45'
p7067
ag10
ag56
aS'none'
p7068
ag56
ag15
aS'&&'
p7069
ag45
aS'func_12'
p7070
ag7
aS'variable_9'
p7071
aS'->'
p7072
aS'variable_37'
p7073
ag41
aS'variable_15'
p7074
ag42
ag193
aS'variable_44'
p7075
ag193
aS'variable_45'
p7076
ag15
ag15
aS'if'
p7077
ag7
ag7
aS'variable_9'
p7078
ag43
aS'func_13'
p7079
ag7
aS'variable_2'
p7080
aS'->'
p7081
aS'variable_22'
p7082
ag10
ag56
aS'number'
p7083
ag72
aS'up'
p7084
ag56
ag10
aS'variable_36'
p7085
ag15
ag15
aS'!='
p7086
aS'NULL'
p7087
ag15
aS'if'
p7088
ag7
aS'variable_9'
p7089
aS'->'
p7090
aS'variable_37'
p7091
ag41
ag96
ag42
ag193
aS'variable_38'
p7092
aS'!='
p7093
ag90
aS'&&'
p7094
aS'variable_9'
p7095
aS'->'
p7096
aS'variable_37'
p7097
ag41
ag96
ag42
ag193
aS'variable_38'
p7098
aS'!='
p7099
ag229
aS'&&'
p7100
aS'variable_9'
p7101
aS'->'
p7102
aS'variable_37'
p7103
ag41
ag96
ag42
ag193
aS'variable_38'
p7104
aS'!='
p7105
ag284
aS'&&'
p7106
aS'variable_9'
p7107
aS'->'
p7108
aS'variable_37'
p7109
ag41
ag96
ag42
ag193
aS'variable_38'
p7110
aS'!='
p7111
ag291
aS'&&'
p7112
aS'variable_9'
p7113
aS'->'
p7114
aS'variable_37'
p7115
ag41
ag96
ag42
ag193
aS'variable_38'
p7116
aS'!='
p7117
ag298
aS'&&'
p7118
aS'variable_9'
p7119
aS'->'
p7120
aS'variable_37'
p7121
ag41
ag96
ag42
ag193
aS'variable_38'
p7122
aS'!='
p7123
aS'16'
p7124
ag15
aS'if'
p7125
ag7
ag7
aS'variable_9'
p7126
ag43
aS'func_14'
p7127
ag7
aS'variable_2'
p7128
aS'->'
p7129
aS'variable_22'
p7130
ag10
ag56
aS'page'
p7131
ag72
aS'ranges'
p7132
ag56
ag10
aS'variable_46'
p7133
ag15
ag15
aS'!='
p7134
aS'NULL'
p7135
ag15
aS'for'
p7136
ag7
aS'variable_15'
p7137
ag43
ag96
ag10
aS'variable_16'
p7138
ag43
ag90
ag18
aS'variable_15'
p7139
ag124
aS'variable_9'
p7140
aS'->'
p7141
aS'variable_43'
p7142
ag18
aS'variable_15'
p7143
aS'++'
p7144
ag15
aS'if'
p7145
ag7
aS'variable_9'
p7146
aS'->'
p7147
aS'variable_37'
p7148
ag41
aS'variable_15'
p7149
ag42
ag193
aS'variable_47'
p7150
ag193
aS'variable_48'
p7151
ag124
aS'variable_16'
p7152
aS'||'
p7153
aS'variable_9'
p7154
aS'->'
p7155
aS'variable_37'
p7156
ag41
aS'variable_15'
p7157
ag42
ag193
aS'variable_47'
p7158
ag193
aS'variable_48'
p7159
ag200
aS'variable_9'
p7160
aS'->'
p7161
aS'variable_37'
p7162
ag41
aS'variable_15'
p7163
ag42
ag193
aS'variable_47'
p7164
ag193
aS'variable_49'
p7165
ag15
aS'variable_16'
p7166
ag43
aS'variable_9'
p7167
aS'->'
p7168
aS'variable_37'
p7169
ag41
aS'variable_15'
p7170
ag42
ag193
aS'variable_47'
p7171
ag193
aS'variable_49'
p7172
ag354
ag90
ag18
aS'if'
p7173
ag7
aS'variable_50'
p7174
aS'&&'
p7175
aS'func_15'
p7176
ag7
aS'variable_51'
p7177
ag15
ag200
ag43
aS'variable_50'
p7178
ag15
aS'if'
p7179
ag7
ag7
aS'variable_15'
p7180
ag43
aS'func_16'
p7181
ag7
aS'variable_2'
p7182
ag10
aS'variable_4'
p7183
ag15
ag15
ag124
ag96
ag15
aS'if'
p7184
ag7
aS'variable_15'
p7185
aS'=='
p7186
ag96
ag15
aS'if'
p7187
ag7
ag7
aS'variable_9'
p7188
ag43
aS'func_17'
p7189
ag7
aS'variable_2'
p7190
aS'->'
p7191
aS'variable_22'
p7192
ag10
ag56
aS'job'
p7193
ag72
aS'priority'
p7194
ag56
ag10
aS'variable_36'
p7195
ag15
ag15
aS'!='
p7196
aS'NULL'
p7197
ag15
aS'variable_13'
p7198
ag43
aS'variable_9'
p7199
aS'->'
p7200
aS'variable_37'
p7201
ag41
ag96
ag42
ag193
aS'variable_38'
p7202
ag18
aS'if'
p7203
ag7
ag7
aS'variable_12'
p7204
ag43
aS'func_18'
p7205
ag7
ag56
aS'job'
p7206
ag72
aS'priority'
p7207
ag56
ag10
aS'variable_4'
p7208
aS'->'
p7209
aS'variable_52'
p7210
ag10
aS'variable_4'
p7211
aS'->'
p7212
aS'variable_53'
p7213
ag15
ag15
aS'!='
p7214
aS'NULL'
p7215
ag15
aS'variable_13'
p7216
ag43
aS'atoi'
p7217
ag7
aS'variable_12'
p7218
ag15
ag18
aS'variable_13'
p7219
ag43
aS'50'
p7220
ag18
aS'if'
p7221
ag7
ag7
aS'variable_9'
p7222
ag43
aS'func_19'
p7223
ag7
aS'variable_2'
p7224
aS'->'
p7225
aS'variable_22'
p7226
ag10
ag56
aS'job'
p7227
ag72
aS'name'
p7228
ag56
ag10
aS'variable_32'
p7229
ag15
ag15
aS'=='
p7230
aS'NULL'
p7231
ag15
aS'if'
p7232
ag7
ag7
aS'variable_9'
p7233
aS'->'
p7234
aS'variable_40'
p7235
aS'!='
p7236
aS'variable_42'
p7237
aS'&&'
p7238
aS'variable_9'
p7239
aS'->'
p7240
aS'variable_40'
p7241
aS'!='
p7242
aS'variable_54'
p7243
ag15
aS'||'
p7244
aS'variable_9'
p7245
aS'->'
p7246
aS'variable_43'
p7247
aS'!='
p7248
ag90
ag15
aS'if'
p7249
ag7
ag45
aS'func_20'
p7250
ag7
aS'variable_9'
p7251
ag15
ag15
aS'if'
p7252
ag7
ag7
aS'variable_14'
p7253
ag43
aS'func_21'
p7254
ag7
aS'variable_13'
p7255
ag10
aS'variable_4'
p7256
aS'->'
p7257
aS'variable_55'
p7258
ag15
ag15
aS'=='
p7259
aS'NULL'
p7260
ag15
aS'variable_14'
p7261
aS'->'
p7262
aS'variable_56'
p7263
ag43
aS'variable_4'
p7264
aS'->'
p7265
aS'variable_57'
p7266
ag449
ag7
aS'variable_58'
p7267
ag451
aS'variable_59'
p7268
ag15
ag18
aS'variable_14'
p7269
aS'->'
p7270
aS'variable_60'
p7271
ag43
aS'variable_2'
p7272
aS'->'
p7273
aS'variable_22'
p7274
ag18
aS'variable_14'
p7275
aS'->'
p7276
aS'variable_61'
p7277
ag43
ag90
ag18
aS'variable_2'
p7278
aS'->'
p7279
aS'variable_22'
p7280
ag43
aS'func_22'
p7281
ag7
aS'variable_14'
p7282
aS'->'
p7283
aS'variable_60'
p7284
aS'->'
p7285
aS'variable_22'
p7286
ag193
aS'variable_62'
p7287
ag193
aS'variable_63'
p7288
ag15
ag18
aS'variable_9'
p7289
ag43
aS'func_23'
p7290
ag7
aS'variable_14'
p7291
aS'->'
p7292
aS'variable_60'
p7293
ag10
ag56
aS'requesting'
p7294
ag72
aS'user'
p7295
ag72
aS'name'
p7296
ag56
ag10
aS'variable_42'
p7297
ag15
ag18
aS'if'
p7298
ag7
ag45
aS'variable_9'
p7299
ag15
aS'variable_9'
p7300
aS'->'
p7301
aS'variable_64'
p7302
ag43
aS'variable_65'
p7303
ag18
aS'variable_9'
p7304
aS'->'
p7305
aS'variable_55'
p7306
ag43
aS'func_24'
p7307
ag7
ag56
aS'job'
p7308
ag72
aS'originating'
p7309
ag72
aS'user'
p7310
ag72
aS'name'
p7311
ag56
ag15
ag18
aS'if'
p7312
ag7
ag7
aS'variable_9'
p7313
ag43
aS'func_25'
p7314
ag7
aS'variable_2'
p7315
aS'->'
p7316
aS'variable_22'
p7317
ag10
ag56
aS'job'
p7318
ag72
aS'name'
p7319
ag56
ag10
aS'variable_42'
p7320
ag15
ag15
aS'!='
p7321
aS'NULL'
p7322
ag15
aS'if'
p7323
ag7
ag7
aS'variable_9'
p7324
ag43
aS'func_26'
p7325
ag7
aS'variable_14'
p7326
aS'->'
p7327
aS'variable_60'
p7328
ag10
ag56
aS'job'
p7329
ag72
aS'originating'
p7330
ag72
aS'host'
p7331
ag72
aS'name'
p7332
ag56
ag10
aS'variable_32'
p7333
ag15
ag15
aS'!='
p7334
aS'NULL'
p7335
ag15
aS'if'
p7336
ag7
aS'variable_9'
p7337
aS'->'
p7338
aS'variable_40'
p7339
aS'!='
p7340
aS'variable_42'
p7341
aS'||'
p7342
aS'variable_9'
p7343
aS'->'
p7344
aS'variable_43'
p7345
aS'!='
p7346
ag90
aS'||'
p7347
aS'strcmp'
p7348
ag7
aS'variable_2'
p7349
aS'->'
p7350
aS'variable_19'
p7351
aS'->'
p7352
aS'variable_20'
p7353
ag10
ag56
aS'localhost'
p7354
ag56
ag15
ag15
aa(lp7355
S'static'
p7356
aS'variable_0'
p7357
ag5
aS'func_0'
p7358
ag7
aS'variable_1'
p7359
ag5
aS'variable_2'
p7360
ag10
aS'variable_3'
p7361
ag5
aS'variable_4'
p7362
ag10
aS'variable_5'
p7363
ag5
aS'variable_6'
p7364
ag15
aS'http_status_t'
p7365
aS'variable_7'
p7366
ag18
aS'variable_8'
p7367
ag5
aS'variable_9'
p7368
ag10
ag5
aS'variable_10'
p7369
ag18
aS'const'
p7370
aS'char'
p7371
ag5
aS'variable_11'
p7372
ag18
aS'int'
p7373
aS'variable_12'
p7374
ag18
aS'static'
p7375
aS'const'
p7376
aS'char'
p7377
ag5
aS'const'
p7378
aS'variable_13'
p7379
ag41
ag42
ag43
aS'if'
p7380
ag7
ag45
aS'variable_4'
p7381
aS'->'
p7382
aS'variable_14'
p7383
aS'&&'
p7384
aS'func_1'
p7385
ag7
aS'variable_2'
p7386
aS'->'
p7387
aS'variable_15'
p7388
aS'->'
p7389
aS'variable_16'
p7390
ag10
ag56
aS'localhost'
p7391
ag56
ag15
aS'&&'
p7392
aS'func_2'
p7393
ag7
aS'variable_2'
p7394
aS'->'
p7395
aS'variable_15'
p7396
aS'->'
p7397
aS'variable_16'
p7398
ag10
aS'variable_17'
p7399
ag15
ag15
aS'variable_10'
p7400
ag43
aS'func_3'
p7401
ag7
aS'variable_2'
p7402
aS'->'
p7403
aS'variable_18'
p7404
ag10
ag56
aS'auth'
p7405
ag72
aS'info'
p7406
ag56
ag10
aS'variable_19'
p7407
ag15
ag18
aS'if'
p7408
ag7
ag7
aS'variable_7'
p7409
ag43
aS'func_4'
p7410
ag7
aS'variable_4'
p7411
aS'->'
p7412
aS'variable_20'
p7413
ag10
aS'variable_2'
p7414
ag10
aS'NULL'
p7415
ag15
ag15
aS'!='
p7416
aS'variable_21'
p7417
ag15
aS'if'
p7418
ag7
aS'variable_4'
p7419
aS'->'
p7420
aS'variable_22'
p7421
aS'=='
p7422
ag90
aS'&&'
p7423
ag45
aS'strcmp'
p7424
ag7
aS'variable_4'
p7425
aS'->'
p7426
aS'variable_23'
p7427
ag41
ag96
ag42
ag10
ag56
aS'negotiate'
p7428
ag56
ag15
aS'&&'
p7429
ag45
aS'variable_2'
p7430
aS'->'
p7431
aS'variable_24'
p7432
ag41
ag96
ag42
ag15
aS'if'
p7433
ag7
aS'variable_10'
p7434
aS'&&'
p7435
ag45
aS'variable_2'
p7436
aS'->'
p7437
aS'variable_15'
p7438
aS'->'
p7439
aS'variable_25'
p7440
aS'&&'
p7441
ag45
aS'func_5'
p7442
ag7
aS'variable_2'
p7443
aS'->'
p7444
aS'variable_15'
p7445
aS'->'
p7446
aS'variable_26'
p7447
ag15
ag15
aS'if'
p7448
ag7
ag45
aS'variable_4'
p7449
aS'->'
p7450
aS'variable_27'
p7451
ag15
aS'for'
p7452
ag7
aS'variable_12'
p7453
ag43
ag96
ag18
aS'variable_12'
p7454
ag124
ag7
aS'int'
p7455
ag15
ag7
aS'sizeof'
p7456
ag7
aS'variable_13'
p7457
ag15
ag128
aS'sizeof'
p7458
ag7
aS'variable_13'
p7459
ag41
ag96
ag42
ag15
ag15
ag18
aS'variable_12'
p7460
aS'++'
p7461
ag15
aS'if'
p7462
ag7
ag7
aS'variable_9'
p7463
ag43
aS'func_6'
p7464
ag7
aS'variable_2'
p7465
aS'->'
p7466
aS'variable_18'
p7467
ag10
aS'variable_13'
p7468
ag41
aS'variable_12'
p7469
ag42
ag10
aS'variable_28'
p7470
ag15
ag15
aS'!='
p7471
aS'NULL'
p7472
ag15
aS'if'
p7473
ag7
aS'variable_29'
p7474
ag15
aS'if'
p7475
ag7
aS'variable_4'
p7476
aS'->'
p7477
aS'variable_30'
p7478
ag15
aS'for'
p7479
ag7
aS'variable_11'
p7480
ag43
ag7
aS'variable_11'
p7481
ag43
ag7
aS'char'
p7482
ag5
ag15
aS'func_7'
p7483
ag7
aS'variable_4'
p7484
aS'->'
p7485
aS'variable_30'
p7486
aS'->'
p7487
aS'variable_11'
p7488
ag15
ag15
aS'if'
p7489
ag7
ag45
aS'func_8'
p7490
ag7
aS'variable_2'
p7491
aS'->'
p7492
aS'variable_18'
p7493
ag10
aS'variable_11'
p7494
ag10
aS'variable_28'
p7495
ag15
ag15
aS'if'
p7496
ag7
aS'variable_6'
p7497
aS'&&'
p7498
aS'variable_4'
p7499
aS'->'
p7500
aS'variable_31'
p7501
aS'&&'
p7502
ag45
aS'func_9'
p7503
ag7
aS'variable_4'
p7504
aS'->'
p7505
aS'variable_31'
p7506
ag10
aS'variable_6'
p7507
ag15
ag15
aS'if'
p7508
ag7
ag7
aS'variable_9'
p7509
ag43
aS'func_10'
p7510
ag7
aS'variable_2'
p7511
aS'->'
p7512
aS'variable_18'
p7513
ag10
ag56
aS'copies'
p7514
ag56
ag10
aS'variable_32'
p7515
ag15
ag15
aS'!='
p7516
aS'NULL'
p7517
ag15
aS'if'
p7518
ag7
aS'variable_9'
p7519
aS'->'
p7520
aS'variable_33'
p7521
ag41
ag96
ag42
ag193
aS'variable_34'
p7522
ag124
ag90
aS'||'
p7523
aS'variable_9'
p7524
aS'->'
p7525
aS'variable_33'
p7526
ag41
ag96
ag42
ag193
aS'variable_34'
p7527
ag200
aS'variable_35'
p7528
ag15
aS'if'
p7529
ag7
ag7
aS'variable_9'
p7530
ag43
aS'func_11'
p7531
ag7
aS'variable_2'
p7532
aS'->'
p7533
aS'variable_18'
p7534
ag10
ag56
aS'job'
p7535
ag72
aS'sheets'
p7536
ag56
ag10
aS'variable_28'
p7537
ag15
ag15
aS'!='
p7538
aS'NULL'
p7539
ag15
aS'if'
p7540
ag7
aS'variable_9'
p7541
aS'->'
p7542
aS'variable_36'
p7543
aS'!='
p7544
aS'variable_37'
p7545
aS'&&'
p7546
aS'variable_9'
p7547
aS'->'
p7548
aS'variable_36'
p7549
aS'!='
p7550
aS'variable_38'
p7551
ag15
aS'if'
p7552
ag7
aS'variable_9'
p7553
aS'->'
p7554
aS'variable_39'
p7555
ag200
ag229
ag15
aS'for'
p7556
ag7
aS'variable_12'
p7557
ag43
ag96
ag18
aS'variable_12'
p7558
ag124
aS'variable_9'
p7559
aS'->'
p7560
aS'variable_39'
p7561
ag18
aS'variable_12'
p7562
aS'++'
p7563
ag15
aS'if'
p7564
ag7
aS'strcmp'
p7565
ag7
aS'variable_9'
p7566
aS'->'
p7567
aS'variable_33'
p7568
ag41
aS'variable_12'
p7569
ag42
ag193
aS'variable_40'
p7570
ag193
aS'variable_41'
p7571
ag10
ag56
aS'none'
p7572
ag56
ag15
aS'&&'
p7573
ag45
aS'func_12'
p7574
ag7
aS'variable_9'
p7575
aS'->'
p7576
aS'variable_33'
p7577
ag41
aS'variable_12'
p7578
ag42
ag193
aS'variable_40'
p7579
ag193
aS'variable_41'
p7580
ag15
ag15
aa(lp7581
S'static'
p7582
aS'variable_0'
p7583
ag5
aS'func_0'
p7584
ag7
aS'variable_1'
p7585
ag5
aS'variable_2'
p7586
ag10
aS'variable_3'
p7587
ag5
aS'variable_4'
p7588
ag10
aS'variable_5'
p7589
ag5
aS'variable_6'
p7590
ag15
aS'http_status_t'
p7591
aS'variable_7'
p7592
ag18
aS'if'
p7593
ag7
ag45
aS'variable_4'
p7594
aS'->'
p7595
aS'variable_8'
p7596
aS'&&'
p7597
aS'func_1'
p7598
ag7
aS'variable_2'
p7599
aS'->'
p7600
aS'variable_9'
p7601
aS'->'
p7602
aS'variable_10'
p7603
ag10
ag56
aS'localhost'
p7604
ag56
ag15
aS'&&'
p7605
aS'func_2'
p7606
ag7
aS'variable_2'
p7607
aS'->'
p7608
aS'variable_9'
p7609
aS'->'
p7610
aS'variable_10'
p7611
ag10
aS'variable_11'
p7612
ag15
ag15
aS'if'
p7613
ag7
ag7
aS'variable_7'
p7614
ag43
aS'func_3'
p7615
ag7
aS'variable_4'
p7616
aS'->'
p7617
aS'variable_12'
p7618
ag10
aS'variable_2'
p7619
ag10
aS'NULL'
p7620
ag15
ag15
aS'!='
p7621
aS'variable_13'
p7622
ag15
aS'if'
p7623
ag7
aS'variable_4'
p7624
aS'->'
p7625
aS'variable_14'
p7626
aS'=='
p7627
ag90
aS'&&'
p7628
ag45
aS'strcmp'
p7629
ag7
aS'variable_4'
p7630
aS'->'
p7631
aS'variable_15'
p7632
ag41
ag96
ag42
ag10
ag56
aS'negotiate'
p7633
ag56
ag15
aS'&&'
p7634
ag45
aS'variable_2'
p7635
aS'->'
p7636
aS'variable_16'
p7637
ag41
ag96
ag42
ag15
aaa(lp7638
I0
aI0
aI0
aI0
aI0
aI0
aI0
aI0
aI0
aI0
aI0
aa(lp7639
I1665
aI1665
aI1632
aI1583
aI1700
aI1637
aI1584
aI1368
aI951
aI390
aI79
aa(lp7640
(lp7641
S'main'
p7642
aa(lp7643
g7642
aa(lp7644
g7642
aa(lp7645
g7642
aa(lp7646
g7642
aa(lp7647
g7642
aa(lp7648
g7642
aa(lp7649
g7642
aa(lp7650
g7642
aa(lp7651
g7642
aa(lp7652
g7642
aaa(lp7653
S'779 /home/SySeVR/data/CVE_2015_1158_VULN_add_job.c strcmp 661'
p7654
aS'780 /home/SySeVR/data/CVE_2015_1158_VULN_add_job.c strcmp 657'
p7655
aS'781 /home/SySeVR/data/CVE_2015_1158_VULN_add_job.c strcmp 649'
p7656
aS'782 /home/SySeVR/data/CVE_2015_1158_VULN_add_job.c strcmp 641'
p7657
aS'784 /home/SySeVR/data/CVE_2015_1158_VULN_add_job.c strcmp 620'
p7658
aS'788 /home/SySeVR/data/CVE_2015_1158_VULN_add_job.c strcmp 602'
p7659
aS'791 /home/SySeVR/data/CVE_2015_1158_VULN_add_job.c strcmp 587'
p7660
aS'793 /home/SySeVR/data/CVE_2015_1158_VULN_add_job.c strcmp 526'
p7661
aS'794 /home/SySeVR/data/CVE_2015_1158_VULN_add_job.c strcmp 422'
p7662
aS'795 /home/SySeVR/data/CVE_2015_1158_VULN_add_job.c strcmp 197'
p7663
aS'796 /home/SySeVR/data/CVE_2015_1158_VULN_add_job.c strcmp 67'
p7664
aa.