(lp0
(lp1
(lp2
S'static'
p3
aS'int'
p4
aS'func_0'
p5
aS'('
p6
aS'struct'
p7
aS'variable_0'
p8
aS'*'
p9
aS'variable_1'
p10
aS','
p11
aS'struct'
p12
aS'variable_2'
p13
ag9
aS'variable_3'
p14
ag11
aS'size_t'
p15
aS'variable_4'
p16
ag11
aS'int'
p17
aS'variable_5'
p18
aS')'
p19
aS'struct'
p20
aS'variable_6'
p21
ag9
aS'variable_7'
p22
aS'='
p23
aS'variable_6'
p24
aS'->'
p25
aS'variable_7'
p26
aS';'
p27
aS'struct'
p28
aS'variable_8'
p29
ag9
aS'variable_9'
p30
ag23
aS'func_1'
p31
ag6
aS'variable_7'
p32
ag19
ag27
aS'struct'
p33
aS'variable_10'
p34
ag9
aS'variable_11'
p35
ag23
ag6
aS'struct'
p36
aS'sockaddr_ipx'
p37
ag9
ag19
aS'variable_3'
p38
aS'->'
p39
aS'variable_12'
p40
ag27
aS'struct'
p41
aS'variable_13'
p42
ag9
aS'variable_14'
p43
ag27
aS'int'
p44
aS'variable_15'
p45
ag11
aS'variable_16'
p46
ag27
aS'if'
p47
ag6
aS'!'
p48
aS'variable_9'
p49
aS'->'
p50
aS'variable_17'
p51
ag19
aS'struct'
p52
aS'sockaddr_ipx'
p53
aS'variable_18'
p54
ag27
aS'variable_18'
p55
aS'.'
p56
aS'variable_19'
p57
ag23
aS'0'
p58
ag27
aS'variable_18'
p59
ag56
aS'variable_20'
p60
ag23
ag58
ag27
aS'variable_16'
p61
ag23
aS'-'
p62
aS'variable_21'
p63
ag27
aS'if'
p64
ag6
ag48
aS'variable_9'
p65
aS'->'
p66
aS'variable_22'
p67
ag19
aS'memcpy'
p68
ag6
aS'variable_18'
p69
ag56
aS'variable_23'
p70
ag11
aS'variable_9'
p71
aS'->'
p72
aS'variable_22'
p73
aS'->'
p74
aS'variable_24'
p75
ag11
aS'variable_25'
p76
ag19
ag27
aS'variable_16'
p77
ag23
aS'func_2'
p78
ag6
aS'variable_6'
p79
ag11
ag6
aS'struct'
p80
aS'sockaddr'
p81
ag9
ag19
aS'&'
p82
aS'variable_18'
p83
ag11
aS'sizeof'
p84
ag6
aS'struct'
p85
aS'variable_10'
p86
ag19
ag19
ag27
aS'if'
p87
ag6
aS'variable_16'
p88
ag19
aS'variable_16'
p89
ag23
ag62
aS'variable_26'
p90
ag27
aS'if'
p91
ag6
aS'func_3'
p92
ag6
aS'variable_7'
p93
ag11
aS'variable_27'
p94
ag19
ag19
aS'variable_14'
p95
ag23
aS'func_4'
p96
ag6
aS'variable_7'
p97
ag11
aS'variable_5'
p98
ag82
aS'~'
p99
aS'variable_28'
p100
ag11
aS'variable_5'
p101
ag82
aS'variable_28'
p102
ag11
ag82
aS'variable_16'
p103
ag19
ag27
aS'if'
p104
ag6
ag48
aS'variable_14'
p105
ag19
aS'variable_29'
p106
ag23
aS'func_5'
p107
ag6
aS'variable_14'
p108
ag19
ag27
aS'variable_15'
p109
ag23
aS'func_6'
p110
ag6
aS'variable_29'
p111
aS'->'
p112
aS'variable_30'
p113
ag19
ag62
aS'sizeof'
p114
ag6
aS'struct'
p115
aS'variable_31'
p116
ag19
ag27
aS'if'
p117
ag6
aS'variable_15'
p118
aS'>'
p119
aS'variable_4'
p120
ag19
aS'variable_15'
p121
ag23
aS'variable_4'
p122
ag27
aS'variable_3'
p123
aS'->'
p124
aS'variable_32'
p125
aS'|'
p126
ag23
aS'variable_33'
p127
ag27
aS'variable_16'
p128
ag23
aS'func_7'
p129
ag6
aS'variable_14'
p130
ag11
aS'sizeof'
p131
ag6
aS'struct'
p132
aS'variable_31'
p133
ag19
ag11
aS'variable_3'
p134
aS'->'
p135
aS'variable_34'
p136
ag11
aS'variable_15'
p137
ag19
ag27
aS'if'
p138
ag6
aS'variable_16'
p139
ag19
aS'if'
p140
ag6
aS'variable_11'
p141
ag19
aS'variable_11'
p142
aS'->'
p143
aS'variable_35'
p144
ag23
aS'variable_36'
p145
ag27
aS'variable_11'
p146
aS'->'
p147
aS'variable_19'
p148
ag23
aS'variable_29'
p149
aS'->'
p150
aS'variable_37'
p151
ag56
aS'variable_6'
p152
ag27
aS'memcpy'
p153
ag6
aS'variable_11'
p154
aS'->'
p155
aS'variable_23'
p156
ag11
aS'variable_29'
p157
aS'->'
p158
aS'variable_37'
p159
ag56
aS'variable_38'
p160
ag11
aS'variable_25'
p161
ag19
ag27
aS'variable_11'
p162
aS'->'
p163
aS'variable_20'
p164
ag23
aS'func_8'
p165
ag6
aS'variable_14'
p166
ag19
aS'->'
p167
aS'variable_39'
p168
ag27
aS'variable_11'
p169
aS'->'
p170
aS'variable_40'
p171
ag23
aS'variable_29'
p172
aS'->'
p173
aS'variable_41'
p174
ag27
aS'variable_11'
p175
aS'->'
p176
aS'variable_42'
p177
ag23
ag58
ag27
aS'variable_3'
p178
aS'->'
p179
aS'variable_43'
p180
ag23
aS'sizeof'
p181
ag6
ag9
aS'variable_11'
p182
ag19
ag27
aa(lp183
S'static'
p184
aS'int'
p185
aS'func_0'
p186
ag6
aS'struct'
p187
aS'variable_0'
p188
ag9
aS'variable_1'
p189
ag11
aS'struct'
p190
aS'variable_2'
p191
ag9
aS'variable_3'
p192
ag11
aS'size_t'
p193
aS'variable_4'
p194
ag11
aS'int'
p195
aS'variable_5'
p196
ag19
aS'struct'
p197
aS'variable_6'
p198
ag9
aS'variable_7'
p199
ag23
aS'variable_6'
p200
aS'->'
p201
aS'variable_7'
p202
ag27
aS'struct'
p203
aS'variable_8'
p204
ag9
aS'variable_9'
p205
ag23
aS'func_1'
p206
ag6
aS'variable_7'
p207
ag19
ag27
aS'if'
p208
ag6
ag48
aS'variable_9'
p209
aS'->'
p210
aS'variable_10'
p211
ag19
aS'struct'
p212
aS'sockaddr_ipx'
p213
aS'variable_11'
p214
ag27
aS'variable_11'
p215
ag56
aS'variable_12'
p216
ag23
ag58
ag27
aS'variable_11'
p217
ag56
aS'variable_13'
p218
ag23
ag58
ag27
aS'if'
p219
ag6
ag48
aS'variable_9'
p220
aS'->'
p221
aS'variable_14'
p222
ag19
aS'memcpy'
p223
ag6
aS'variable_11'
p224
ag56
aS'variable_15'
p225
ag11
aS'variable_9'
p226
aS'->'
p227
aS'variable_14'
p228
aS'->'
p229
aS'variable_16'
p230
ag11
aS'variable_17'
p231
ag19
ag27
aS'variable_18'
p232
ag23
aS'func_2'
p233
ag6
aS'variable_6'
p234
ag11
ag6
aS'struct'
p235
aS'sockaddr'
p236
ag9
ag19
ag82
aS'variable_11'
p237
ag11
aS'sizeof'
p238
ag6
aS'struct'
p239
aS'variable_19'
p240
ag19
ag19
ag27
aS'if'
p241
ag6
aS'variable_18'
p242
ag19
aS'variable_20'
p243
ag23
aS'func_3'
p244
ag6
aS'variable_7'
p245
ag11
aS'variable_5'
p246
ag82
ag99
aS'variable_21'
p247
ag11
aS'variable_5'
p248
ag82
aS'variable_21'
p249
ag11
ag82
aS'variable_18'
p250
ag19
ag27
aS'if'
p251
ag6
ag48
aS'variable_20'
p252
ag19
aS'variable_22'
p253
ag23
aS'func_4'
p254
ag6
aS'variable_20'
p255
ag19
ag27
aS'variable_23'
p256
ag23
aS'func_5'
p257
ag6
aS'variable_22'
p258
aS'->'
p259
aS'variable_24'
p260
ag19
ag62
aS'sizeof'
p261
ag6
aS'struct'
p262
aS'variable_25'
p263
ag19
ag27
aS'if'
p264
ag6
aS'variable_23'
p265
ag119
aS'variable_4'
p266
ag19
aS'variable_18'
p267
ag23
aS'func_6'
p268
ag6
aS'variable_20'
p269
ag11
aS'sizeof'
p270
ag6
aS'struct'
p271
aS'variable_25'
p272
ag19
ag11
aS'variable_3'
p273
aS'->'
p274
aS'variable_26'
p275
ag11
aS'variable_23'
p276
ag19
ag27
aS'if'
p277
ag6
aS'variable_18'
p278
ag19
aS'if'
p279
ag6
aS'variable_20'
p280
aS'->'
p281
aS'variable_27'
p282
ag56
aS'variable_28'
p283
ag19
aS'variable_7'
p284
aS'->'
p285
aS'variable_29'
p286
ag23
aS'variable_20'
p287
aS'->'
p288
aS'variable_27'
p289
ag27
aS'variable_30'
p290
aS'->'
p291
aS'variable_12'
p292
ag23
aS'variable_22'
p293
aS'->'
p294
aS'variable_31'
p295
ag56
aS'variable_6'
p296
ag27
aS'memcpy'
p297
ag6
aS'variable_30'
p298
aS'->'
p299
aS'variable_15'
p300
ag11
aS'variable_22'
p301
aS'->'
p302
aS'variable_31'
p303
ag56
aS'variable_32'
p304
ag11
aS'variable_17'
p305
ag19
ag27
aS'variable_30'
p306
aS'->'
p307
aS'variable_13'
p308
ag23
aS'func_7'
p309
ag6
aS'variable_20'
p310
ag19
aS'->'
p311
aS'variable_33'
p312
ag27
aS'variable_30'
p313
aS'->'
p314
aS'variable_34'
p315
ag23
aS'variable_22'
p316
aS'->'
p317
aS'variable_35'
p318
ag27
aS'variable_30'
p319
aS'->'
p320
aS'variable_36'
p321
ag23
ag58
ag27
aS'variable_3'
p322
aS'->'
p323
aS'variable_37'
p324
ag23
aS'sizeof'
p325
ag6
ag9
aS'variable_30'
p326
ag19
ag27
aS'variable_18'
p327
ag23
aS'variable_23'
p328
ag27
aS'func_8'
p329
ag6
aS'variable_7'
p330
ag11
aS'variable_20'
p331
ag19
ag27
aS'func_9'
p332
ag6
aS'variable_7'
p333
ag19
ag27
aS'return'
p334
aS'variable_18'
p335
ag27
aaa(lp336
I0
aI0
aa(lp337
I259
aI70
aa(lp338
(lp339
S'main'
p340
aa(lp341
g340
aaa(lp342
S'552 /home/SySeVR/data/CVE_2013_7268_PATCHED_ipx_recvmsg.c memcpy 58'
p343
aS'553 /home/SySeVR/data/CVE_2013_7268_PATCHED_ipx_recvmsg.c memcpy 23'
p344
aa.