(lp0
(lp1
(lp2
S'variable_0'
p3
aS':'
p4
ag4
aS'func_0'
p5
aS'('
p6
aS'int32_t'
p7
aS'variable_1'
p8
aS','
p9
aS'int32_t'
p10
aS'variable_2'
p11
ag9
aS'bool'
p12
aS'variable_3'
p13
aS')'
p14
aS'float'
p15
aS'variable_4'
p16
aS'='
p17
aS'func_1'
p18
ag6
ag14
aS';'
p19
aS'variable_5'
p20
aS'*'
p21
aS'variable_6'
p22
ag17
aS'func_2'
p23
ag6
ag14
ag19
aS'if'
p24
ag6
aS'!'
p25
aS'variable_6'
p26
ag14
aS'variable_7'
p27
ag21
aS'variable_8'
p28
ag17
aS'variable_6'
p29
aS'->'
p30
aS'func_3'
p31
ag6
ag14
ag19
aS'if'
p32
ag6
ag25
aS'variable_8'
p33
ag14
aS'nsRect'
p34
aS'variable_9'
p35
ag17
aS'variable_8'
p36
aS'->'
p37
aS'func_4'
p38
ag6
ag14
ag19
aS'variable_8'
p39
aS'->'
p40
aS'func_5'
p41
ag6
aS'func_6'
p42
ag6
aS'variable_10'
p43
ag4
ag4
aS'func_7'
p44
ag6
aS'variable_1'
p45
aS'/'
p46
aS'variable_4'
p47
ag14
aS'-'
p48
aS'variable_9'
p49
aS'.'
p50
aS'variable_11'
p51
ag46
aS'2'
p52
ag9
aS'variable_10'
p53
ag4
ag4
aS'func_8'
p54
ag6
aS'variable_2'
p55
ag46
aS'variable_4'
p56
ag14
ag48
aS'variable_9'
p57
ag50
aS'variable_12'
p58
ag46
ag52
ag14
ag9
aS'variable_7'
p59
ag4
ag4
aS'variable_13'
p60
ag14
ag19
aaa(lp61
I1
aa(lp62
I72
aa(lp63
(lp64
S'main'
p65
aaa(lp66
S'486 /home/SySeVR/data/CVE_2013_1735_VULN_ImageDocument__ScrollImageTo.c sf -> ScrollTo ( nsPoint ( nsPresContext :: CSSPixelsToAppUnits ( aX / ratio ) - portRect . width / 2 , nsPresContext :: CSSPixelsToAppUnits ( aY / ratio ) - portRect . height / 2 ) , nsIScrollableFrame :: INSTANT ) 20'
p67
aa.