(lp0
(lp1
(lp2
S'asmlinkage'
p3
aS'long'
p4
aS'func_0'
p5
aS'('
p6
aS'const'
p7
aS'char'
p8
aS'variable_0'
p9
aS'*'
p10
aS'variable_1'
p11
aS','
p12
aS'int'
p13
aS'variable_2'
p14
ag12
aS'struct'
p15
aS'mq_attr'
p16
aS'variable_0'
p17
ag10
aS'variable_3'
p18
aS')'
p19
aS'struct'
p20
aS'variable_4'
p21
ag10
aS'variable_4'
p22
aS';'
p23
aS'char'
p24
ag10
aS'variable_5'
p25
ag23
aS'int'
p26
aS'variable_6'
p27
ag12
aS'variable_7'
p28
ag23
aS'if'
p29
ag6
aS'func_1'
p30
ag6
aS'variable_5'
p31
aS'='
p32
aS'func_2'
p33
ag6
aS'variable_1'
p34
ag19
ag19
ag19
aS'variable_6'
p35
ag32
aS'func_3'
p36
ag6
ag19
ag23
aS'if'
p37
ag6
aS'variable_6'
p38
aS'<'
p39
aS'0'
p40
ag19
aS'variable_4'
p41
ag32
aS'func_4'
p42
ag6
aS'variable_5'
p43
ag12
aS'variable_8'
p44
aS'->'
p45
aS'variable_9'
p46
ag12
aS'strlen'
p47
ag6
aS'variable_5'
p48
ag19
ag19
ag23
aS'if'
p49
ag6
aS'func_5'
p50
ag6
aS'variable_4'
p51
ag19
ag19
aS'variable_7'
p52
ag32
aS'func_6'
p53
ag6
aS'variable_4'
p54
ag19
ag23
aS'if'
p55
ag6
aS'variable_4'
p56
aS'->'
p57
aS'variable_10'
p58
ag19
aS'variable_11'
p59
ag32
aS'func_7'
p60
ag6
aS'variable_4'
p61
ag12
aS'variable_2'
p62
ag19
ag23
aS'variable_11'
p63
ag32
aS'func_8'
p64
ag6
aS'variable_8'
p65
aS'->'
p66
aS'variable_9'
p67
ag12
aS'variable_4'
p68
ag12
aS'variable_2'
p69
ag12
aS'variable_12'
p70
ag12
aS'variable_3'
p71
ag19
ag23
aS'if'
p72
ag6
aS'!'
p73
aS'variable_4'
p74
aS'->'
p75
aS'variable_10'
p76
ag19
aS'variable_11'
p77
ag32
aS'func_9'
p78
ag6
aS'variable_4'
p79
ag12
aS'variable_2'
p80
ag19
ag23
aS'if'
p81
ag6
aS'func_10'
p82
ag6
aS'variable_11'
p83
ag19
ag19
aS'variable_7'
p84
ag32
aS'func_11'
p85
ag6
aS'variable_11'
p86
ag19
ag23
aS'func_12'
p87
ag6
aS'variable_6'
p88
ag12
aS'variable_11'
p89
ag19
ag23
aS'func_13'
p90
ag6
aS'variable_4'
p91
ag19
ag23
aS'variable_6'
p92
ag32
aS'variable_7'
p93
ag23
aS'return'
p94
aS'variable_6'
p95
ag23
aaa(lp96
I0
aa(lp97
I67
aa(lp98
(lp99
S'main'
p100
aaa(lp101
S'229 /home/SySeVR/data/CVE_2005_3356_PATCHED_sys_mq_open.c strlen 17'
p102
aa.