(lp0
(lp1
(lp2
S'static'
p3
aS'void'
p4
aS'func_0'
p5
aS'('
p6
aS'struct'
p7
aS'variable_0'
p8
aS'*'
p9
aS'variable_1'
p10
aS','
p11
aS'struct'
p12
aS'variable_2'
p13
ag9
aS'variable_3'
p14
aS')'
p15
aS'const'
p16
aS'char'
p17
ag9
aS'variable_4'
p18
aS'='
p19
aS'func_1'
p20
ag6
aS'variable_3'
p21
ag11
aS'"'
p22
aS'Content'
p23
aS'-'
p24
aS'Type'
p25
ag22
ag15
aS';'
p26
aS'if'
p27
ag6
aS'!'
p28
aS'func_2'
p29
ag6
aS'variable_4'
p30
ag11
ag22
aS'application'
p31
aS'/'
p32
aS'dtmf'
p33
ag24
aS'relay'
p34
ag22
ag15
aS'||'
p35
ag28
aS'func_3'
p36
ag6
aS'variable_4'
p37
ag11
ag22
aS'application'
p38
ag32
aS'vnd'
p39
aS'.'
p40
aS'nortelnetworks'
p41
ag40
aS'digits'
p42
ag22
ag15
ag15
aS'if'
p43
ag6
ag28
aS'variable_1'
p44
aS'->'
p45
aS'variable_5'
p46
ag15
aS'if'
p47
ag6
aS'func_4'
p48
ag6
aS'variable_4'
p49
ag19
aS'func_5'
p50
ag6
aS'variable_3'
p51
ag11
ag22
aS'Signal'
p52
ag22
ag11
aS"'"
p53
ag19
ag53
ag15
ag15
aS'&&'
p54
aS'func_6'
p55
ag6
aS'variable_4'
p56
ag19
aS'func_7'
p57
ag6
aS'variable_3'
p58
ag11
ag22
aS'd'
p59
ag22
ag11
ag53
ag19
ag53
ag15
ag15
ag15
aS'if'
p60
ag6
ag28
aS'func_8'
p61
ag6
ag6
aS'variable_4'
p62
ag19
aS'func_9'
p63
ag6
aS'variable_3'
p64
ag11
ag22
aS'Duration'
p65
ag22
ag11
ag53
ag19
ag53
ag15
ag15
ag15
ag15
aS'if'
p66
ag6
ag28
aS'func_10'
p67
ag6
aS'variable_4'
p68
ag11
ag22
aS'application'
p69
ag32
aS'dtmf'
p70
ag22
ag15
ag15
aS'if'
p71
ag6
ag28
aS'func_11'
p72
ag6
aS'variable_4'
p73
ag11
ag22
aS'application'
p74
ag32
aS'media_control'
p75
aS'+'
p76
aS'xml'
p77
ag22
ag15
ag15
aS'if'
p78
ag6
ag28
aS'func_12'
p79
ag6
aS'variable_4'
p80
ag19
aS'func_13'
p81
ag6
aS'variable_3'
p82
ag11
ag22
aS'X'
p83
ag24
aS'ClientCode'
p84
ag22
ag15
ag15
ag15
aS'if'
p85
ag6
ag28
aS'func_14'
p86
ag6
aS'variable_4'
p87
ag19
aS'func_15'
p88
ag6
aS'variable_3'
p89
ag11
ag22
aS'Record'
p90
ag22
ag15
ag15
ag15
aS'struct'
p91
aS'variable_6'
p92
ag9
aS'variable_7'
p93
ag26
aS'int'
p94
aS'variable_8'
p95
ag26
aS'variable_7'
p96
ag19
aS'func_16'
p97
ag6
ag22
aS'automon'
p98
ag22
ag15
ag26
aS'if'
p99
ag6
ag28
aS'variable_7'
p100
aS'||'
p101
aS'func_17'
p102
ag6
aS'variable_7'
p103
aS'->'
p104
aS'variable_9'
p105
ag15
ag15
aS'for'
p106
ag6
aS'variable_8'
p107
ag19
aS'0'
p108
ag26
aS'variable_8'
p109
aS'<'
p110
aS'strlen'
p111
ag6
aS'variable_7'
p112
aS'->'
p113
aS'variable_9'
p114
ag15
ag26
aS'variable_8'
p115
aS'++'
p116
ag15
aaa(lp117
I0
aa(lp118
I233
aa(lp119
(lp120
S'main'
p121
aaa(lp122
S'255 /home/SySeVR/data/CVE_2011_4598_VULN_handle_request_info.c strlen 158'
p123
aa.