(lp0
(lp1
(lp2
S'void'
p3
aS'func_0'
p4
aS'('
p5
aS'variable_0'
p6
aS'*'
p7
aS'variable_1'
p8
aS','
p9
aS'variable_2'
p10
ag7
aS'variable_3'
p11
aS')'
p12
aS'int'
p13
aS'variable_4'
p14
ag9
aS'variable_5'
p15
ag9
aS'variable_6'
p16
aS';'
p17
aS'for'
p18
ag5
aS'variable_4'
p19
aS'='
p20
aS'variable_1'
p21
aS'->'
p22
aS'variable_7'
p23
aS'&&'
p24
aS'variable_4'
p25
aS'<'
p26
aS'variable_4'
p27
aS'++'
p28
ag12
aS'variable_8'
p29
ag7
aS'variable_7'
p30
ag20
aS'variable_1'
p31
aS'->'
p32
aS'variable_7'
p33
aS'+'
p34
aS'variable_4'
p35
ag17
aS'for'
p36
ag5
aS'variable_5'
p37
ag20
aS'0'
p38
ag17
aS'variable_5'
p39
ag26
aS'variable_7'
p40
aS'->'
p41
aS'variable_9'
p42
ag17
aS'variable_5'
p43
aS'++'
p44
ag12
aS'variable_10'
p45
ag7
aS'variable_11'
p46
ag20
aS'variable_7'
p47
aS'->'
p48
aS'variable_11'
p49
ag34
aS'variable_5'
p50
ag17
aS'for'
p51
ag5
aS'variable_6'
p52
ag20
ag38
ag17
aS'variable_6'
p53
ag26
aS'variable_7'
p54
aS'->'
p55
aS'variable_12'
p56
ag7
aS'variable_7'
p57
aS'->'
p58
aS'variable_13'
p59
ag17
aS'variable_6'
p60
aS'++'
p61
ag12
aS'variable_14'
p62
ag7
aS'variable_15'
p63
ag20
aS'variable_11'
p64
aS'->'
p65
aS'variable_15'
p66
ag34
aS'variable_6'
p67
ag17
aS'func_1'
p68
ag5
aS'&'
p69
aS'variable_15'
p70
aS'->'
p71
aS'variable_16'
p72
ag12
ag17
aS'func_2'
p73
ag5
ag69
aS'variable_15'
p74
aS'->'
p75
aS'variable_17'
p76
ag12
ag17
aS'func_3'
p77
ag5
ag69
aS'variable_15'
p78
aS'->'
p79
aS'variable_18'
p80
ag12
ag17
aa(lp81
S'void'
p82
aS'func_0'
p83
ag5
aS'variable_0'
p84
ag7
aS'variable_1'
p85
ag9
aS'variable_2'
p86
ag7
aS'variable_3'
p87
ag12
aS'int'
p88
aS'variable_4'
p89
ag9
aS'variable_5'
p90
ag9
aS'variable_6'
p91
ag17
aS'for'
p92
ag5
aS'variable_4'
p93
ag20
aS'variable_1'
p94
aS'->'
p95
aS'variable_7'
p96
aS'&&'
p97
aS'variable_4'
p98
ag26
aS'variable_4'
p99
aS'++'
p100
ag12
aS'variable_8'
p101
ag7
aS'variable_7'
p102
ag20
aS'variable_1'
p103
aS'->'
p104
aS'variable_7'
p105
ag34
aS'variable_4'
p106
ag17
aS'for'
p107
ag5
aS'variable_5'
p108
ag20
ag38
ag17
aS'variable_5'
p109
ag26
aS'variable_7'
p110
aS'->'
p111
aS'variable_9'
p112
ag17
aS'variable_5'
p113
aS'++'
p114
ag12
aS'variable_10'
p115
ag7
aS'variable_11'
p116
ag20
aS'variable_7'
p117
aS'->'
p118
aS'variable_11'
p119
ag34
aS'variable_5'
p120
ag17
aS'variable_12'
p121
ag7
aS'variable_13'
p122
ag20
aS'variable_11'
p123
aS'->'
p124
aS'variable_13'
p125
ag34
aS'variable_6'
p126
ag17
aS'func_1'
p127
ag5
ag69
aS'variable_13'
p128
aS'->'
p129
aS'variable_14'
p130
ag12
ag17
aS'func_2'
p131
ag5
ag69
aS'variable_13'
p132
aS'->'
p133
aS'variable_15'
p134
ag12
ag17
aS'func_3'
p135
ag5
ag69
aS'variable_13'
p136
aS'->'
p137
aS'variable_16'
p138
ag12
ag17
aS'func_4'
p139
ag5
ag69
aS'variable_11'
p140
aS'->'
p141
aS'variable_13'
p142
ag12
ag17
aa(lp143
S'void'
p144
aS'func_0'
p145
ag5
aS'variable_0'
p146
ag7
aS'variable_1'
p147
ag9
aS'variable_2'
p148
ag7
aS'variable_3'
p149
ag12
aS'int'
p150
aS'variable_4'
p151
ag9
aS'variable_5'
p152
ag9
aS'variable_6'
p153
ag17
aS'for'
p154
ag5
aS'variable_4'
p155
ag20
aS'variable_1'
p156
aS'->'
p157
aS'variable_7'
p158
aS'&&'
p159
aS'variable_4'
p160
ag26
aS'variable_4'
p161
aS'++'
p162
ag12
aS'variable_8'
p163
ag7
aS'variable_7'
p164
ag20
aS'variable_1'
p165
aS'->'
p166
aS'variable_7'
p167
ag34
aS'variable_4'
p168
ag17
aS'for'
p169
ag5
aS'variable_5'
p170
ag20
ag38
ag17
aS'variable_5'
p171
ag26
aS'variable_7'
p172
aS'->'
p173
aS'variable_9'
p174
ag17
aS'variable_5'
p175
aS'++'
p176
ag12
aS'variable_10'
p177
ag7
aS'variable_11'
p178
ag20
aS'variable_7'
p179
aS'->'
p180
aS'variable_11'
p181
ag34
aS'variable_5'
p182
ag17
aS'for'
p183
ag5
aS'variable_6'
p184
ag20
ag38
ag17
aS'variable_6'
p185
ag26
aS'variable_7'
p186
aS'->'
p187
aS'variable_12'
p188
ag7
aS'variable_7'
p189
aS'->'
p190
aS'variable_13'
p191
ag17
aS'variable_6'
p192
aS'++'
p193
ag12
aS'variable_14'
p194
ag7
aS'variable_15'
p195
ag20
aS'variable_11'
p196
aS'->'
p197
aS'variable_15'
p198
ag34
aS'variable_6'
p199
ag17
aS'func_1'
p200
ag5
ag69
aS'variable_15'
p201
aS'->'
p202
aS'variable_16'
p203
ag12
ag17
aS'func_2'
p204
ag5
ag69
aS'variable_15'
p205
aS'->'
p206
aS'variable_17'
p207
ag12
ag17
aS'func_3'
p208
ag5
ag69
aS'variable_15'
p209
aS'->'
p210
aS'variable_18'
p211
ag12
ag17
aS'func_4'
p212
ag5
ag69
aS'variable_11'
p213
aS'->'
p214
aS'variable_15'
p215
ag12
ag17
aS'func_5'
p216
ag5
ag69
aS'variable_7'
p217
aS'->'
p218
aS'variable_11'
p219
ag12
ag17
aaa(lp220
I1
aI1
aI1
aa(lp221
I94
aI65
aI40
aa(lp222
(lp223
S'main'
p224
aa(lp225
g224
aa(lp226
g224
aaa(lp227
S'863 /home/SySeVR/data/CVE_2013_7017_VULN_ff_jpeg2000_cleanup.c Jpeg2000Prec * prec = band -> prec + precno ; 12'
p228
aS'864 /home/SySeVR/data/CVE_2013_7017_VULN_ff_jpeg2000_cleanup.c Jpeg2000Band * band = reslevel -> band + bandno ; 10'
p229
aS'865 /home/SySeVR/data/CVE_2013_7017_VULN_ff_jpeg2000_cleanup.c Jpeg2000ResLevel * reslevel = comp -> reslevel + reslevelno ; 7'
p230
aa.