(lp0
(lp1
(lp2
S'func_0'
p3
aS'('
p4
aS'variable_0'
p5
aS'*'
p6
aS'variable_1'
p7
aS','
p8
aS'variable_2'
p9
ag6
aS'variable_3'
p10
ag8
aS'variable_4'
p11
ag6
aS'variable_5'
p12
aS')'
p13
aS'guint'
p14
aS'variable_6'
p15
aS';'
p16
aS'void'
p17
ag6
aS'variable_7'
p18
ag16
aS'struct'
p19
aS'ieee80211_radiotap_iterator'
p20
aS'variable_8'
p21
ag16
aS'static'
p22
aS'struct'
p23
aS'radiotap_override'
p24
aS'variable_9'
p25
aS'['
p26
aS']'
p27
aS'variable_10'
p28
ag8
aS'4'
p29
ag8
aS'8'
p30
ag8
aS'guint'
p31
aS'variable_11'
p32
aS'='
p33
aS'func_1'
p34
ag4
aS'variable_9'
p35
ag13
ag16
aS'if'
p36
ag4
aS'!'
p37
aS'variable_12'
p38
ag13
aS'variable_11'
p39
aS'--'
p40
ag16
aS'variable_6'
p41
ag33
aS'func_2'
p42
ag4
aS'variable_1'
p43
ag8
aS'2'
p44
ag13
ag16
aS'variable_7'
p45
ag33
aS'func_3'
p46
ag4
aS'variable_1'
p47
ag8
aS'0'
p48
ag8
aS'variable_6'
p49
ag13
ag16
aS'if'
p50
ag4
ag37
aS'variable_7'
p51
ag13
aS'if'
p52
ag4
aS'func_4'
p53
ag4
aS'&'
p54
aS'variable_8'
p55
ag8
ag4
aS'struct'
p56
aS'ieee80211_radiotap_header'
p57
ag6
ag13
aS'variable_7'
p58
ag8
aS'variable_6'
p59
ag8
aS'NULL'
p60
ag13
ag13
aS'variable_8'
p61
aS'.'
p62
aS'variable_9'
p63
ag33
aS'variable_9'
p64
ag16
aS'variable_8'
p65
ag62
aS'variable_11'
p66
ag33
aS'variable_11'
p67
ag16
aS'if'
p68
ag4
aS'variable_5'
p69
ag13
aS'variable_13'
p70
ag6
aS'variable_14'
p71
ag33
ag4
aS'guchar'
p72
ag6
ag13
aS'variable_7'
p73
aS'+'
p74
ag29
ag16
aS'guint'
p75
aS'variable_15'
p76
ag33
ag4
aS'variable_16'
p77
ag13
ag4
aS'variable_8'
p78
ag62
aS'variable_17'
p79
aS'-'
p80
aS'variable_14'
p81
ag13
aS'/'
p82
ag29
ag16
aS'variable_18'
p83
ag33
aS'func_5'
p84
ag4
aS'variable_19'
p85
ag8
aS'variable_20'
p86
ag8
aS'variable_1'
p87
ag8
ag29
ag8
aS'variable_15'
p88
ag6
ag29
ag8
aS'variable_21'
p89
ag13
ag16
aS'for'
p90
ag4
aS'variable_22'
p91
ag33
ag48
ag16
aS'variable_22'
p92
aS'<'
p93
aS'variable_15'
p94
ag16
aS'variable_22'
p95
aS'++'
p96
ag13
aS'variable_23'
p97
ag33
aS'func_6'
p98
ag4
aS'variable_18'
p99
ag8
aS'variable_24'
p100
ag13
ag16
aS'func_7'
p101
ag4
aS'variable_23'
p102
ag8
aS'variable_25'
p103
ag8
aS'variable_1'
p104
ag8
aS'variable_26'
p105
ag74
ag29
ag8
ag29
ag8
aS'variable_27'
p106
ag13
ag16
aS'func_8'
p107
ag4
aS'variable_23'
p108
ag8
aS'variable_28'
p109
ag8
aS'variable_1'
p110
ag8
aS'variable_26'
p111
ag74
ag29
ag8
ag29
ag8
aS'variable_27'
p112
ag13
ag16
aS'func_9'
p113
ag4
aS'variable_23'
p114
ag8
aS'variable_29'
p115
ag8
aS'variable_1'
p116
ag8
aS'variable_26'
p117
ag74
ag29
ag8
ag29
ag8
aS'variable_27'
p118
ag13
ag16
aS'func_10'
p119
ag4
aS'variable_23'
p120
ag8
aS'variable_30'
p121
ag8
aS'variable_1'
p122
ag8
aS'variable_26'
p123
ag74
ag29
ag8
ag29
ag8
aS'variable_27'
p124
ag13
ag16
aS'func_11'
p125
ag4
aS'variable_23'
p126
ag8
aS'variable_31'
p127
ag8
aS'variable_1'
p128
ag8
aS'variable_26'
p129
ag74
ag29
ag8
ag29
ag8
aS'variable_27'
p130
ag13
ag16
aS'func_12'
p131
ag4
aS'variable_23'
p132
ag8
aS'variable_32'
p133
ag8
aS'variable_1'
p134
ag8
aS'variable_26'
p135
ag74
ag29
ag8
ag29
ag8
aS'variable_27'
p136
ag13
ag16
aS'func_13'
p137
ag4
aS'variable_23'
p138
ag8
aS'variable_33'
p139
ag8
aS'variable_1'
p140
ag8
aS'variable_26'
p141
ag74
ag29
ag8
ag29
ag8
aS'variable_27'
p142
ag13
ag16
aS'func_14'
p143
ag4
aS'variable_23'
p144
ag8
aS'variable_34'
p145
ag8
aS'variable_1'
p146
ag8
aS'variable_26'
p147
ag74
ag29
ag8
ag29
ag8
aS'variable_27'
p148
ag13
ag16
aS'func_15'
p149
ag4
aS'variable_23'
p150
ag8
aS'variable_35'
p151
ag8
aS'variable_1'
p152
ag8
aS'variable_26'
p153
ag74
ag29
ag8
ag29
ag8
aS'variable_27'
p154
ag13
ag16
aS'func_16'
p155
ag4
aS'variable_23'
p156
ag8
aS'variable_36'
p157
ag8
aS'variable_1'
p158
ag8
aS'variable_26'
p159
ag74
ag29
ag8
ag29
ag8
aS'variable_27'
p160
ag13
ag16
aS'func_17'
p161
ag4
aS'variable_23'
p162
ag8
aS'variable_37'
p163
ag8
aS'variable_1'
p164
ag8
aS'variable_26'
p165
ag74
ag29
ag8
ag29
ag8
aS'variable_27'
p166
ag13
ag16
aS'func_18'
p167
ag4
aS'variable_23'
p168
ag8
aS'variable_38'
p169
ag8
aS'variable_1'
p170
ag8
aS'variable_26'
p171
ag74
ag29
ag8
ag29
ag8
aS'variable_27'
p172
ag13
ag16
aS'func_19'
p173
ag4
aS'variable_23'
p174
ag8
aS'variable_39'
p175
ag8
aS'variable_1'
p176
ag8
aS'variable_26'
p177
ag74
ag29
ag8
ag29
ag8
aS'variable_27'
p178
ag13
ag16
aS'func_20'
p179
ag4
aS'variable_23'
p180
ag8
aS'variable_40'
p181
ag8
aS'variable_1'
p182
ag8
aS'variable_26'
p183
ag74
ag29
ag8
ag29
ag8
aS'variable_27'
p184
ag13
ag16
aS'func_21'
p185
ag4
aS'variable_23'
p186
ag8
aS'variable_41'
p187
ag8
aS'variable_1'
p188
ag8
aS'variable_26'
p189
ag74
ag29
ag8
ag29
ag8
aS'variable_27'
p190
ag13
ag16
aS'func_22'
p191
ag4
aS'variable_23'
p192
ag8
aS'variable_42'
p193
ag8
aS'variable_1'
p194
ag8
aS'variable_26'
p195
ag74
ag29
ag8
ag29
ag8
aS'variable_27'
p196
ag13
ag16
aS'func_23'
p197
ag4
aS'variable_23'
p198
ag8
aS'variable_43'
p199
ag8
aS'variable_1'
p200
ag8
aS'variable_26'
p201
ag74
ag29
ag8
ag29
ag8
aS'variable_27'
p202
ag13
ag16
aS'func_24'
p203
ag4
aS'variable_23'
p204
ag8
aS'variable_44'
p205
ag8
aS'variable_1'
p206
ag8
aS'variable_26'
p207
ag74
ag29
ag8
ag29
ag8
aS'variable_27'
p208
ag13
ag16
aS'func_25'
p209
ag4
aS'variable_23'
p210
ag8
aS'variable_45'
p211
ag8
aS'variable_1'
p212
ag8
aS'variable_26'
p213
ag74
ag29
ag8
ag29
ag8
aS'variable_27'
p214
ag13
ag16
aS'func_26'
p215
ag4
aS'variable_23'
p216
ag8
aS'variable_46'
p217
ag8
aS'variable_1'
p218
ag8
aS'variable_26'
p219
ag74
ag29
ag8
ag29
ag8
aS'variable_27'
p220
ag13
ag16
aS'variable_47'
p221
ag33
aS'func_27'
p222
ag4
aS'variable_23'
p223
ag8
aS'variable_48'
p224
ag8
aS'variable_1'
p225
ag8
aS'variable_26'
p226
ag74
ag29
ag8
ag29
ag8
aS'variable_27'
p227
ag13
ag16
aS'func_28'
p228
ag4
aS'variable_3'
p229
ag8
aS'variable_47'
p230
ag8
aS'variable_49'
p231
ag8
aS'"'
p232
aS'Contact'
p233
aS'Wireshark'
p234
aS'developers'
p235
aS'if'
p236
aS'you'
p237
aS'want'
p238
aS'this'
p239
aS'supported'
p240
ag232
ag13
aS'func_29'
p241
ag4
aS'variable_23'
p242
ag8
aS'variable_50'
p243
ag8
aS'variable_1'
p244
ag8
aS'variable_26'
p245
ag74
ag29
ag8
ag29
ag8
aS'variable_27'
p246
ag13
ag16
aS'func_30'
p247
ag4
aS'variable_23'
p248
ag8
aS'variable_51'
p249
ag8
aS'variable_1'
p250
ag8
aS'variable_26'
p251
ag74
ag29
ag8
ag29
ag8
aS'variable_27'
p252
ag13
ag16
aS'func_31'
p253
ag4
aS'variable_23'
p254
ag8
aS'variable_52'
p255
ag8
aS'variable_1'
p256
ag8
aS'variable_26'
p257
ag74
ag29
ag8
ag29
ag8
aS'variable_27'
p258
ag13
ag16
aS'func_32'
p259
ag4
aS'variable_47'
p260
ag8
ag232
ag4
aS'malformed'
p261
ag13
ag232
ag13
ag16
aaa(lp262
I0
aa(lp263
I140
aa(lp264
(lp265
S'main'
p266
aaa(lp267
S'841 /home/SySeVR/data/CVE_2013_4921_PATCHED_dissect_radiotap.c guint n_bitmaps = ( guint ) ( iter . this_arg - bmap_start ) / 4 ; 85'
p268
aa.