(lp0
(lp1
(lp2
S'func_0'
p3
aS'('
p4
aS'variable_0'
p5
aS'*'
p6
aS'variable_1'
p7
aS','
p8
aS'variable_2'
p9
ag6
aS'variable_3'
p10
aS')'
p11
aS'if'
p12
ag4
aS'!'
p13
aS'strcmp'
p14
ag4
aS'variable_3'
p15
aS'->'
p16
aS'variable_4'
p17
ag8
aS'"'
p18
aS'printer'
p19
aS'-'
p20
aS'uri'
p21
ag18
ag11
ag11
aaa(lp22
I0
aa(lp23
I13
aa(lp24
(lp25
S'main'
p26
aaa(lp27
S'804 /home/SySeVR/data/CVE_2015_1158_VULN_release_job.c strcmp 24'
p28
aa.