(lp0
(lp1
(lp2
S'static'
p3
aS'void'
p4
aS'func_0'
p5
aS'('
p6
aS'variable_0'
p7
aS'*'
p8
aS'variable_1'
p9
aS','
p10
aS'variable_2'
p11
ag8
aS'variable_3'
p12
ag10
aS'mtime_t'
p13
aS'variable_4'
p14
aS')'
p15
aS'variable_5'
p16
ag8
aS'variable_6'
p17
aS'='
p18
aS'variable_1'
p19
aS'->'
p20
aS'variable_6'
p21
aS';'
p22
aS'variable_7'
p23
ag8
aS'variable_8'
p24
ag18
aS'variable_3'
p25
aS'->'
p26
aS'variable_9'
p27
ag22
aS'if'
p28
ag6
aS'variable_6'
p29
aS'->'
p30
aS'variable_10'
p31
aS'<'
p32
aS'variable_3'
p33
aS'->'
p34
aS'variable_11'
p35
ag15
aS'if'
p36
ag6
aS'!'
p37
aS'variable_8'
p38
ag15
aS'variable_8'
p39
ag18
aS'func_1'
p40
ag6
aS'variable_1'
p41
ag10
aS'variable_3'
p42
aS'->'
p43
aS'variable_11'
p44
ag8
aS'variable_3'
p45
aS'->'
p46
aS'variable_12'
p47
ag15
ag22
aS'if'
p48
ag6
ag37
aS'variable_8'
p49
ag15
aS'variable_3'
p50
aS'->'
p51
aS'variable_9'
p52
ag18
aS'variable_8'
p53
ag22
aS'memcpy'
p54
ag6
aS'variable_8'
p55
aS'->'
p56
aS'variable_13'
p57
aS'+'
p58
aS'variable_3'
p59
aS'->'
p60
aS'variable_14'
p61
ag8
aS'variable_3'
p62
aS'->'
p63
aS'variable_11'
p64
ag10
aS'variable_6'
p65
aS'->'
p66
aS'variable_15'
p67
ag10
aS'variable_3'
p68
aS'->'
p69
aS'variable_11'
p70
ag15
ag22
aS'variable_8'
p71
aS'->'
p72
aS'variable_16'
p73
ag18
aS'variable_8'
p74
aS'->'
p75
aS'variable_4'
p76
ag18
aS'variable_4'
p77
ag22
aS'func_2'
p78
ag6
aS'variable_8'
p79
aS'->'
p80
aS'variable_13'
p81
ag10
aS'variable_3'
p82
aS'->'
p83
aS'variable_12'
p84
ag10
aS'variable_3'
p85
aS'->'
p86
aS'variable_11'
p87
ag15
ag22
aS'func_3'
p88
ag6
aS'variable_1'
p89
ag10
aS'variable_3'
p90
ag10
aS'variable_8'
p91
aS'->'
p92
aS'variable_4'
p93
ag15
ag22
aS'func_4'
p94
ag6
aS'variable_1'
p95
aS'->'
p96
aS'variable_17'
p97
ag10
aS'variable_3'
p98
aS'->'
p99
aS'variable_18'
p100
ag10
aS'variable_8'
p101
ag15
ag22
aaa(lp102
I0
aa(lp103
I72
aa(lp104
(lp105
S'main'
p106
aaa(lp107
S'472 /home/SySeVR/data/CVE_2011_2587_VULN_DemuxAudioSipr.c memcpy 17'
p108
aa.