(lp0
(lp1
(lp2
S'static'
p3
aS'void'
p4
aS'func_0'
p5
aS'('
p6
aS'variable_0'
p7
aS'*'
p8
aS'variable_1'
p9
aS','
p10
aS'variable_2'
p11
ag8
aS'variable_3'
p12
ag10
aS'mtime_t'
p13
aS'variable_4'
p14
aS')'
p15
aS'variable_5'
p16
ag8
aS'variable_6'
p17
aS'='
p18
aS'variable_1'
p19
aS'->'
p20
aS'variable_6'
p21
aS';'
p22
aS'variable_7'
p23
ag8
aS'variable_8'
p24
ag18
aS'variable_3'
p25
aS'->'
p26
aS'variable_9'
p27
ag22
aS'if'
p28
ag6
aS'variable_6'
p29
aS'->'
p30
aS'variable_10'
p31
aS'<'
p32
aS'variable_3'
p33
aS'->'
p34
aS'variable_11'
p35
ag15
aS'if'
p36
ag6
aS'!'
p37
aS'variable_8'
p38
ag15
aS'variable_8'
p39
ag18
aS'func_1'
p40
ag6
aS'variable_1'
p41
ag10
aS'variable_3'
p42
aS'->'
p43
aS'variable_11'
p44
ag8
aS'variable_3'
p45
aS'->'
p46
aS'variable_12'
p47
ag15
ag22
aS'if'
p48
ag6
ag37
aS'variable_8'
p49
ag15
aS'variable_3'
p50
aS'->'
p51
aS'variable_9'
p52
ag18
aS'variable_8'
p53
ag22
aS'memcpy'
p54
ag6
aS'variable_8'
p55
aS'->'
p56
aS'variable_13'
p57
aS'+'
p58
aS'variable_3'
p59
aS'->'
p60
aS'variable_14'
p61
ag8
aS'variable_3'
p62
aS'->'
p63
aS'variable_11'
p64
ag10
aS'variable_6'
p65
aS'->'
p66
aS'variable_15'
p67
ag10
aS'variable_3'
p68
aS'->'
p69
aS'variable_11'
p70
ag15
ag22
aS'if'
p71
ag6
ag37
aS'variable_3'
p72
aS'->'
p73
aS'variable_14'
p74
ag15
aS'variable_8'
p75
aS'->'
p76
aS'variable_16'
p77
ag18
aS'variable_8'
p78
aS'->'
p79
aS'variable_4'
p80
ag18
aS'variable_4'
p81
ag22
aS'if'
p82
ag6
aS'++'
p83
aS'variable_3'
p84
aS'->'
p85
aS'variable_14'
p86
ag32
aS'variable_3'
p87
aS'->'
p88
aS'variable_12'
p89
ag15
aS'func_2'
p90
ag6
aS'variable_8'
p91
aS'->'
p92
aS'variable_13'
p93
ag10
aS'variable_3'
p94
aS'->'
p95
aS'variable_12'
p96
ag10
aS'variable_3'
p97
aS'->'
p98
aS'variable_11'
p99
ag15
ag22
aS'func_3'
p100
ag6
aS'variable_1'
p101
ag10
aS'variable_3'
p102
ag10
aS'variable_8'
p103
aS'->'
p104
aS'variable_4'
p105
ag15
ag22
aS'func_4'
p106
ag6
aS'variable_1'
p107
aS'->'
p108
aS'variable_17'
p109
ag10
aS'variable_3'
p110
aS'->'
p111
aS'variable_18'
p112
ag10
aS'variable_8'
p113
ag15
ag22
aS'variable_3'
p114
aS'->'
p115
aS'variable_14'
p116
ag18
aS'0'
p117
ag22
aS'variable_3'
p118
aS'->'
p119
aS'variable_9'
p120
ag18
aS'NULL'
p121
ag22
aaa(lp122
I1
aa(lp123
I59
aa(lp124
(lp125
S'main'
p126
aaa(lp127
S'204 /home/SySeVR/data/CVE_2011_2587_VULN_DemuxAudioSipr.c p_block = block_New ( p_demux , tk -> i_frame_size * tk -> i_subpacket_h ) 11'
p128
aa.