(lp0
(lp1
(lp2
S'variable_0'
p3
aS':'
p4
ag4
aS'func_0'
p5
aS'('
p6
aS'uint32_t'
p7
aS'variable_1'
p8
aS')'
p9
aS'char'
p10
aS'variable_2'
p11
aS'['
p12
aS'variable_3'
p13
aS']'
p14
aS';'
p15
aS'const'
p16
aS'char'
p17
aS'*'
p18
aS'variable_4'
p19
aS'='
p20
aS'variable_2'
p21
ag15
aS'if'
p22
ag6
aS'!'
p23
aS'func_1'
p24
ag6
aS'variable_2'
p25
aS','
p26
aS'sizeof'
p27
ag6
aS'variable_2'
p28
ag9
ag9
ag9
aS'if'
p29
ag6
aS'func_2'
p30
ag6
aS'&'
p31
aS'variable_4'
p32
ag9
aS'!='
p33
aS'variable_5'
p34
ag9
aS'variable_4'
p35
aS'+='
p36
aS'4'
p37
ag15
aS'if'
p38
ag6
aS'variable_1'
p39
aS'>'
p40
aS'variable_3'
p41
ag9
aS'char'
p42
aS'variable_6'
p43
ag12
aS'2'
p44
ag14
ag15
aS'if'
p45
ag6
ag23
aS'func_3'
p46
ag6
aS'variable_6'
p47
ag26
aS'sizeof'
p48
ag6
aS'variable_6'
p49
ag9
ag9
ag9
aS'uint16_t'
p50
aS'variable_7'
p51
ag20
aS'func_4'
p52
ag6
ag31
aS'variable_4'
p53
ag9
ag15
aS'if'
p54
ag6
aS'variable_1'
p55
aS'-'
p56
ag6
aS'variable_3'
p57
aS'+'
p58
ag44
ag9
aS'!='
p59
aS'variable_7'
p60
ag9
aS'variable_7'
p61
aS'+='
p62
aS'variable_7'
p63
aS'%'
p64
ag44
ag15
aS'if'
p65
ag6
aS'variable_7'
p66
ag40
aS'0'
p67
ag9
aS'static_assert'
p68
ag6
aS'variable_8'
p69
ag58
ag6
aS'variable_8'
p70
ag64
ag44
ag9
aS'<'
p71
aS'variable_9'
p72
aS'/'
p73
aS'sizeof'
p74
ag6
aS'char'
p75
ag9
ag26
aS'"'
p76
aS'chunkExtension'
p77
aS'array'
p78
aS'too'
p79
aS'large'
p80
aS'for'
p81
aS'iterator'
p82
aS'.'
p83
ag76
ag9
ag15
aaa(lp84
I0
aa(lp85
I114
aa(lp86
(lp87
S'main'
p88
aaa(lp89
S'608 /home/SySeVR/data/CVE_2014_1497_VULN_WaveReader__LoadFormatChunk.c static_assert ( UINT16_MAX + ( UINT16_MAX % 2 ) < UINT_MAX / sizeof ( char ) , "chunkExtension array too large for iterator." ) 61'
p90
aa.