(lp0
(lp1
(lp2
S'apr_status_t'
p3
aS'func_0'
p4
aS'('
p5
aS'variable_0'
p6
aS'*'
p7
aS'variable_1'
p8
aS','
p9
aS'char'
p10
ag7
aS'variable_2'
p11
aS')'
p12
aS'char'
p13
aS'variable_3'
p14
aS'['
p15
aS'variable_4'
p16
aS']'
p17
aS';'
p18
aS'char'
p19
aS'variable_5'
p20
ag18
aS'int'
p21
aS'variable_6'
p22
ag9
aS'variable_7'
p23
ag18
aS'int'
p24
aS'variable_8'
p25
aS'='
p26
aS'0'
p27
ag18
aS'variable_9'
p28
ag7
aS'variable_10'
p29
ag18
aS'if'
p30
ag5
aS'variable_6'
p31
aS'<'
p32
ag26
ag27
ag12
aS'if'
p33
ag5
aS'func_1'
p34
ag5
aS'variable_3'
p35
ag9
aS'"'
p36
aS'HTTP'
p37
aS'/'
p38
aS'#'
p39
aS'.'
p40
ag39
ag39
ag39
ag39
ag7
ag36
ag12
ag12
aS'int'
p41
aS'variable_11'
p42
ag9
aS'variable_12'
p43
ag18
aS'if'
p44
ag5
aS'2'
p45
aS'!='
p46
aS'sscanf'
p47
ag5
aS'variable_3'
p48
ag9
ag36
aS'HTTP'
p49
ag38
aS'%'
p50
aS'u'
p51
ag40
ag50
ag51
ag36
ag9
aS'&'
p52
aS'variable_11'
p53
ag9
ag52
aS'variable_12'
p54
ag12
ag12
aS'variable_5'
p55
ag26
aS'variable_3'
p56
ag15
aS'12'
p57
ag17
ag18
aS'variable_3'
p58
ag15
aS'12'
p59
ag17
ag26
aS"'"
p60
aS'\\'
p61
ag27
ag60
ag18
aS'variable_13'
p62
aS'->'
p63
aS'variable_14'
p64
ag26
aS'atoi'
p65
ag5
ag52
aS'variable_3'
p66
ag15
aS'9'
p67
ag17
ag12
ag18
aS'if'
p68
ag5
aS'variable_5'
p69
aS'!='
p70
ag60
ag61
ag27
ag60
ag12
aS'variable_3'
p71
ag15
aS'12'
p72
ag17
ag26
aS'variable_5'
p73
ag18
aS'variable_3'
p74
ag15
aS'12'
p75
ag17
ag26
ag60
ag60
ag18
aS'variable_3'
p76
ag15
aS'13'
p77
ag17
ag26
ag60
ag61
ag27
ag60
ag18
aS'variable_13'
p78
aS'->'
p79
aS'variable_15'
p80
ag26
aS'func_2'
p81
ag5
aS'variable_1'
p82
ag9
ag52
aS'variable_3'
p83
ag15
ag67
ag17
ag12
ag18
aS'variable_10'
p84
ag26
aS'func_3'
p85
ag5
aS'variable_13'
p86
aS'->'
p87
aS'variable_16'
p88
ag9
ag45
ag12
ag18
aS'if'
p89
ag5
aS'variable_13'
p90
aS'->'
p91
aS'variable_17'
p92
aS'=='
p93
aS'NULL'
p94
ag12
aS'if'
p95
ag5
aS'!'
p96
aS'func_4'
p97
ag5
aS'variable_10'
p98
ag12
ag12
aS'variable_13'
p99
aS'->'
p100
aS'variable_17'
p101
ag26
aS'func_5'
p102
ag5
aS'variable_13'
p103
aS'->'
p104
aS'variable_16'
p105
ag9
aS'variable_13'
p106
aS'->'
p107
aS'variable_17'
p108
ag9
aS'variable_10'
p109
ag12
ag18
aS'variable_13'
p110
aS'->'
p111
aS'variable_17'
p112
ag26
aS'func_6'
p113
ag5
aS'variable_1'
p114
ag9
aS'variable_13'
p115
aS'->'
p116
aS'variable_17'
p117
ag12
ag18
aS'variable_13'
p118
aS'->'
p119
aS'variable_14'
p120
ag26
aS'200'
p121
ag18
aS'variable_13'
p122
aS'->'
p123
aS'variable_15'
p124
ag26
ag36
aS'200'
p125
aS'OK'
p126
ag36
ag18
aS'if'
p127
ag5
aS'func_7'
p128
ag5
aS'variable_13'
p129
aS'->'
p130
aS'variable_14'
p131
ag12
ag12
aS'variable_8'
p132
aS'++'
p133
ag18
aS'variable_8'
p134
ag26
ag27
ag18
aS'while'
p135
ag5
aS'variable_8'
p136
aS'&&'
p137
ag5
aS'variable_8'
p138
ag32
aS'variable_18'
p139
ag12
ag12
aaa(lp140
I0
aa(lp141
I68
aa(lp142
(lp143
S'main'
p144
aaa(lp145
S'871 /home/SySeVR/data/CVE_2010_2068_PATCHED_ap_proxy_http_process_response.c sscanf 122'
p146
aa.