(lp0
(lp1
(lp2
S'struct'
p3
aS'variable_0'
p4
aS'*'
p5
aS'variable_1'
p6
aS')'
p7
aS'if'
p8
aS'('
p9
aS'strlen'
p10
ag9
aS'variable_2'
p11
ag7
aS'>'
p12
aS'variable_3'
p13
ag7
aaa(lp14
I0
aa(lp15
I8
aa(lp16
(lp17
S'main'
p18
aaa(lp19
S'281 /home/SySeVR/data/CVE_2013_2850_PATCHED_iscsi_add_notunderstood_response.c strlen 8'
p20
aa.