(lp0
(lp1
(lp2
S'static'
p3
aS'ssize_t'
p4
aS'func_0'
p5
aS'('
p6
aS'struct'
p7
aS'variable_0'
p8
aS'*'
p9
aS'variable_1'
p10
aS','
p11
aS'const'
p12
aS'size_t'
p13
aS'variable_2'
p14
ag11
aS'variable_3'
p15
ag9
aS'variable_4'
p16
aS')'
p17
aS'int'
p18
aS'variable_5'
p19
ag11
aS'variable_6'
p20
aS';'
p21
aS'char'
p22
ag9
aS'variable_7'
p23
ag21
aS'char'
p24
ag9
aS'variable_8'
p25
ag21
aS'char'
p26
ag9
aS'variable_9'
p27
ag21
aS'char'
p28
ag9
aS'variable_10'
p29
ag21
aS'char'
p30
ag9
aS'variable_11'
p31
ag21
aS'struct'
p32
aS'variable_12'
p33
ag9
aS'variable_13'
p34
aS'='
p35
aS'variable_1'
p36
aS'->'
p37
aS'variable_14'
p38
ag21
aS'variable_7'
p39
ag35
aS'kmalloc'
p40
ag6
aS'variable_2'
p41
ag11
aS'variable_15'
p42
ag17
ag21
aS'if'
p43
ag6
aS'variable_7'
p44
aS'=='
p45
aS'NULL'
p46
ag17
aS'if'
p47
ag6
aS'func_1'
p48
ag6
aS'variable_7'
p49
ag11
aS'variable_16'
p50
ag11
aS'variable_2'
p51
ag17
ag17
aS'variable_9'
p52
ag35
aS'variable_7'
p53
ag21
aS'for'
p54
ag6
aS'variable_6'
p55
ag35
aS'0'
p56
ag21
aS'variable_6'
p57
aS'<'
p58
aS'variable_17'
p59
ag21
aS'variable_6'
p60
aS'++'
p61
ag17
aS'variable_8'
p62
ag35
aS'strstr'
p63
ag6
aS'variable_9'
p64
ag11
aS'variable_13'
p65
aS'['
p66
aS'variable_6'
p67
aS']'
p68
aS'.'
p69
aS'variable_18'
p70
ag17
ag21
aS'if'
p71
ag6
aS'variable_8'
p72
aS'=='
p73
aS'NULL'
p74
ag17
aS'variable_10'
p75
ag35
aS'strchr'
p76
ag6
aS'variable_8'
p77
ag11
aS"'"
p78
aS'\\'
p79
aS'n'
p80
ag78
ag17
ag21
aS'if'
p81
ag6
aS'variable_10'
p82
aS'=='
p83
aS'NULL'
p84
ag17
aS'variable_9'
p85
ag35
aS'variable_10'
p86
aS'++'
p87
ag21
aS'variable_11'
p88
ag35
aS'strchr'
p89
ag6
aS'variable_8'
p90
ag11
ag78
ag35
ag78
ag17
ag21
aS'if'
p91
ag6
aS'!'
p92
aS'variable_11'
p93
ag17
aS'variable_11'
p94
aS'++'
p95
ag21
aS'variable_5'
p96
ag35
aS'func_2'
p97
ag6
aS'variable_11'
p98
ag11
aS'NULL'
p99
ag11
ag56
ag17
ag21
ag9
ag6
ag6
aS'u8'
p100
ag9
ag17
aS'variable_13'
p101
ag66
aS'variable_6'
p102
ag68
ag69
aS'variable_19'
p103
ag17
ag35
ag6
aS'variable_20'
p104
ag17
aS'variable_5'
p105
ag21
ag9
ag6
ag6
aS'u16'
p106
ag9
ag17
aS'variable_13'
p107
ag66
aS'variable_6'
p108
ag68
ag69
aS'variable_19'
p109
ag17
ag35
ag6
aS'variable_21'
p110
ag17
aS'variable_5'
p111
ag21
ag9
ag6
ag6
aS'u32'
p112
ag9
ag17
aS'variable_13'
p113
ag66
aS'variable_6'
p114
ag68
ag69
aS'variable_19'
p115
ag17
ag35
ag6
aS'variable_22'
p116
ag17
aS'variable_5'
p117
ag21
ag9
ag6
ag6
aS'u64'
p118
ag9
ag17
aS'variable_13'
p119
ag66
aS'variable_6'
p120
ag68
ag69
aS'variable_19'
p121
ag17
ag35
ag6
aS'variable_23'
p122
ag17
aS'variable_5'
p123
ag21
aS'while'
p124
ag6
aS'1'
p125
ag17
aa(lp126
S'static'
p127
aS'ssize_t'
p128
aS'func_0'
p129
ag6
aS'struct'
p130
aS'variable_0'
p131
ag9
aS'variable_1'
p132
ag11
aS'const'
p133
aS'size_t'
p134
aS'variable_2'
p135
ag11
aS'variable_3'
p136
ag9
aS'variable_4'
p137
ag17
aS'int'
p138
aS'variable_5'
p139
ag11
aS'variable_6'
p140
ag21
aS'char'
p141
ag9
aS'variable_7'
p142
ag21
aS'char'
p143
ag9
aS'variable_8'
p144
ag21
aS'char'
p145
ag9
aS'variable_9'
p146
ag21
aS'char'
p147
ag9
aS'variable_10'
p148
ag21
aS'struct'
p149
aS'variable_11'
p150
ag9
aS'variable_12'
p151
ag35
aS'variable_1'
p152
aS'->'
p153
aS'variable_13'
p154
ag21
aS'variable_7'
p155
ag35
aS'kmalloc'
p156
ag6
aS'variable_2'
p157
ag11
aS'variable_14'
p158
ag17
ag21
aS'if'
p159
ag6
aS'variable_7'
p160
aS'=='
p161
aS'NULL'
p162
ag17
aS'if'
p163
ag6
aS'func_1'
p164
ag6
aS'variable_7'
p165
ag11
aS'variable_15'
p166
ag11
aS'variable_2'
p167
ag17
ag17
aS'variable_9'
p168
ag35
aS'variable_7'
p169
ag21
aS'for'
p170
ag6
aS'variable_6'
p171
ag35
ag56
ag21
aS'variable_6'
p172
ag58
aS'variable_16'
p173
ag21
aS'variable_6'
p174
aS'++'
p175
ag17
aS'variable_8'
p176
ag35
aS'strstr'
p177
ag6
aS'variable_9'
p178
ag11
aS'variable_12'
p179
ag66
aS'variable_6'
p180
ag68
ag69
aS'variable_17'
p181
ag17
ag21
aS'if'
p182
ag6
aS'variable_8'
p183
aS'=='
p184
aS'NULL'
p185
ag17
aS'variable_10'
p186
ag35
aS'strchr'
p187
ag6
aS'variable_8'
p188
ag11
ag78
ag79
ag80
ag78
ag17
ag21
aS'if'
p189
ag6
aS'variable_10'
p190
aS'=='
p191
aS'NULL'
p192
ag17
aS'variable_9'
p193
ag35
aS'variable_10'
p194
aS'++'
p195
ag21
aS'variable_18'
p196
ag35
aS'strchr'
p197
ag6
aS'variable_8'
p198
ag11
ag78
ag35
ag78
ag17
ag21
aS'if'
p199
ag6
ag92
aS'variable_18'
p200
ag17
aS'variable_18'
p201
aS'++'
p202
ag21
aS'variable_5'
p203
ag35
aS'func_2'
p204
ag6
aS'variable_18'
p205
ag11
aS'NULL'
p206
ag11
ag56
ag17
ag21
ag9
ag6
ag6
aS'u8'
p207
ag9
ag17
aS'variable_12'
p208
ag66
aS'variable_6'
p209
ag68
ag69
aS'variable_19'
p210
ag17
ag35
ag6
aS'variable_20'
p211
ag17
aS'variable_5'
p212
ag21
ag9
ag6
ag6
aS'u16'
p213
ag9
ag17
aS'variable_12'
p214
ag66
aS'variable_6'
p215
ag68
ag69
aS'variable_19'
p216
ag17
ag35
ag6
aS'variable_21'
p217
ag17
aS'variable_5'
p218
ag21
ag9
ag6
ag6
aS'u32'
p219
ag9
ag17
aS'variable_12'
p220
ag66
aS'variable_6'
p221
ag68
ag69
aS'variable_19'
p222
ag17
ag35
ag6
aS'variable_22'
p223
ag17
aS'variable_5'
p224
ag21
ag9
ag6
ag6
aS'u64'
p225
ag9
ag17
aS'variable_12'
p226
ag66
aS'variable_6'
p227
ag68
ag69
aS'variable_19'
p228
ag17
ag35
ag6
aS'variable_23'
p229
ag17
aS'variable_5'
p230
ag21
aS'while'
p231
ag6
ag125
ag17
aaa(lp232
I0
aI0
aa(lp233
I140
aI113
aa(lp234
(lp235
S'main'
p236
aa(lp237
g236
aaa(lp238
S'652 /home/SySeVR/data/CVE_2013_6378_VULN_lbs_debugfs_write.c strchr 32'
p239
aS'653 /home/SySeVR/data/CVE_2013_6378_VULN_lbs_debugfs_write.c strchr 28'
p240
aa.