(lp0
(lp1
(lp2
S'static'
p3
aS'av_always_inline'
p4
aS'int'
p5
aS'func_0'
p6
aS'('
p7
aS'int'
p8
aS'variable_0'
p9
aS')'
p10
aS'unsigned'
p11
aS'variable_1'
p12
aS'='
p13
aS'variable_2'
p14
aS'->'
p15
aS'variable_3'
p16
aS'['
p17
aS'variable_4'
p18
aS'->'
p19
aS'variable_5'
p20
aS']'
p21
aS'.'
p22
aS'variable_6'
p23
aS';'
p24
aS'variable_7'
p25
aS'*'
p26
aS'variable_8'
p27
ag13
aS'variable_4'
p28
aS'->'
p29
aS'variable_8'
p30
ag24
aS'unsigned'
p31
aS'variable_9'
p32
aS','
p33
aS'variable_10'
p34
ag33
aS'variable_11'
p35
ag33
aS'variable_12'
p36
ag33
aS'variable_13'
p37
ag33
aS'variable_14'
p38
ag24
aS'unsigned'
p39
aS'variable_15'
p40
ag13
ag7
aS'variable_16'
p41
aS'-'
p42
aS'1'
p43
ag10
ag26
aS'variable_17'
p44
ag24
aS'int'
p45
aS'variable_18'
p46
ag13
aS'variable_4'
p47
aS'->'
p48
aS'variable_18'
p49
ag24
aS'if'
p50
ag7
aS'variable_0'
p51
aS'=='
p52
aS'2'
p53
ag10
aS'for'
p54
ag7
aS'variable_12'
p55
ag13
ag43
ag24
aS'variable_12'
p56
aS'<'
p57
aS'variable_16'
p58
ag24
aS'++'
p59
aS'variable_12'
p60
ag10
aS'variable_19'
p61
ag17
aS'0'
p62
ag21
aS'&'
p63
ag13
aS'variable_19'
p64
ag17
aS'variable_12'
p65
ag21
ag24
aS'if'
p66
ag7
aS'variable_19'
p67
ag17
ag62
ag21
ag10
aS'variable_10'
p68
ag13
ag43
ag24
aS'variable_15'
p69
aS'+='
p70
aS'variable_4'
p71
aS'->'
p72
aS'variable_20'
p73
aS'/'
p74
aS'variable_16'
p75
ag24
aS'variable_10'
p76
ag13
aS'variable_16'
p77
ag24
aS'variable_15'
p78
aS'+='
p79
aS'variable_4'
p80
aS'->'
p81
aS'variable_20'
p82
ag24
aS'if'
p83
ag7
aS'variable_15'
p84
aS'>'
p85
aS'variable_21'
p86
ag26
aS'variable_17'
p87
ag10
aS'if'
p88
ag7
aS'variable_15'
p89
ag57
ag13
aS'variable_21'
p90
ag26
aS'variable_17'
p91
aS'+'
p92
aS'variable_4'
p93
aS'->'
p94
aS'variable_22'
p95
ag26
aS'variable_10'
p96
ag74
aS'variable_16'
p97
ag10
aS'variable_18'
p98
aS'--'
p99
ag24
aS'for'
p100
ag7
aS'variable_9'
p101
ag13
ag62
ag24
aS'variable_9'
p102
ag57
ag13
aS'variable_4'
p103
aS'->'
p104
aS'variable_23'
p105
ag24
aS'++'
p106
aS'variable_9'
p107
ag10
aS'int'
p108
aS'variable_24'
p109
ag33
aS'variable_25'
p110
ag33
aS'variable_26'
p111
ag24
aS'variable_24'
p112
ag13
aS'variable_4'
p113
aS'->'
p114
aS'variable_27'
p115
ag24
aS'for'
p116
ag7
aS'variable_25'
p117
ag13
ag62
ag24
aS'variable_25'
p118
ag57
aS'variable_18'
p119
ag24
ag10
aS'if'
p120
ag7
aS'!'
p121
aS'variable_9'
p122
ag10
aS'int'
p123
aS'variable_28'
p124
ag24
aS'if'
p125
ag7
ag7
aS'variable_28'
p126
ag13
aS'func_1'
p127
ag7
aS'variable_2'
p128
ag33
aS'variable_4'
p129
ag33
aS'variable_19'
p130
ag33
aS'variable_10'
p131
ag33
aS'variable_25'
p132
ag33
aS'variable_18'
p133
ag10
ag10
ag57
ag62
ag10
aS'for'
p134
ag7
aS'variable_11'
p135
ag13
ag62
ag24
ag7
aS'variable_11'
p136
ag57
aS'variable_1'
p137
ag10
aS'&&'
p138
ag7
aS'variable_25'
p139
ag57
aS'variable_18'
p140
ag10
ag24
aS'++'
p141
aS'variable_11'
p142
ag10
aS'for'
p143
ag7
aS'variable_26'
p144
ag13
ag62
ag33
aS'variable_12'
p145
ag13
ag62
ag24
aS'variable_12'
p146
ag57
aS'variable_10'
p147
ag24
aS'++'
p148
aS'variable_12'
p149
ag10
aS'if'
p150
ag7
ag121
aS'variable_19'
p151
ag17
aS'variable_12'
p152
ag21
ag10
aS'unsigned'
p153
aS'variable_29'
p154
ag13
aS'variable_8'
p155
ag17
aS'variable_26'
p156
ag92
aS'variable_25'
p157
ag21
ag24
aS'int'
p158
aS'variable_30'
p159
ag13
aS'variable_4'
p160
aS'->'
p161
aS'variable_31'
p162
ag17
aS'variable_29'
p163
ag21
ag17
aS'variable_9'
p164
ag21
ag24
aS'if'
p165
ag7
aS'variable_30'
p166
ag85
ag13
ag62
aS'&&'
p167
aS'variable_2'
p168
aS'->'
p169
aS'variable_3'
p170
ag17
aS'variable_30'
p171
ag21
ag22
aS'variable_32'
p172
ag10
aS'unsigned'
p173
aS'variable_33'
p174
ag13
aS'variable_2'
p175
aS'->'
p176
aS'variable_3'
p177
ag17
aS'variable_30'
p178
ag21
ag22
aS'variable_6'
p179
ag24
aS'if'
p180
ag7
aS'variable_0'
p181
aS'=='
p182
ag62
ag10
aS'variable_34'
p183
ag17
aS'variable_35'
p184
ag92
aS'variable_13'
p185
ag92
aS'variable_14'
p186
ag26
aS'variable_36'
p187
ag21
aS'+='
p188
aS'variable_37'
p189
ag22
aS'variable_32'
p190
ag17
aS'variable_38'
p191
ag92
aS'variable_14'
p192
ag21
ag24
aS'if'
p193
ag7
aS'variable_0'
p194
aS'=='
p195
ag43
ag10
aS'variable_34'
p196
ag17
aS'variable_35'
p197
ag21
aS'+='
p198
aS'variable_37'
p199
ag22
aS'variable_32'
p200
ag17
aS'variable_38'
p201
ag92
aS'variable_14'
p202
ag21
ag24
aS'func_2'
p203
ag7
aS'NULL'
p204
ag33
aS'"'
p205
aS'pass'
p206
aS'%'
p207
aS'd'
p208
aS'offs'
p209
aS':'
p210
ag207
ag208
aS'curr'
p211
ag210
ag207
aS'f'
p212
aS'change'
p213
ag210
ag207
ag212
aS'cv'
p214
aS'offs'
p215
ag22
ag210
ag207
ag208
aS'\\'
p216
aS'n'
p217
ag205
ag33
aS'variable_9'
p218
ag33
aS'variable_35'
p219
ag33
aS'variable_34'
p220
ag17
aS'variable_35'
p221
ag21
ag33
aS'variable_37'
p222
ag22
aS'variable_32'
p223
ag17
aS'variable_38'
p224
ag92
aS'variable_14'
p225
ag21
ag33
aS'variable_38'
p226
ag10
ag24
aS'if'
p227
ag7
aS'variable_0'
p228
aS'=='
p229
ag53
aS'&&'
p230
aS'variable_16'
p231
aS'=='
p232
ag53
aS'&&'
p233
ag7
aS'variable_24'
p234
ag63
ag43
ag10
aS'=='
p235
ag62
aS'&&'
p236
ag7
aS'variable_33'
p237
ag63
ag43
ag10
aS'=='
p238
ag62
ag10
aS'variable_34'
p239
ag17
aS'variable_35'
p240
ag92
aS'variable_13'
p241
ag21
aS'+='
p242
aS'variable_37'
p243
ag22
aS'variable_32'
p244
ag17
aS'variable_38'
p245
ag21
ag24
aS'variable_34'
p246
ag17
aS'variable_35'
p247
ag92
aS'variable_13'
p248
ag92
aS'variable_17'
p249
ag21
aS'+='
p250
aS'variable_37'
p251
ag22
aS'variable_32'
p252
ag17
aS'variable_38'
p253
ag92
ag43
ag21
ag24
aS'variable_34'
p254
ag17
aS'variable_35'
p255
ag21
aS'+='
p256
aS'variable_37'
p257
ag22
aS'variable_32'
p258
ag17
aS'variable_38'
p259
ag21
ag24
aS'variable_34'
p260
ag17
aS'variable_35'
p261
ag92
ag43
ag21
aS'+='
p262
aS'variable_37'
p263
ag22
aS'variable_32'
p264
ag17
aS'variable_38'
p265
ag92
ag53
ag21
ag24
aS'variable_34'
p266
ag17
aS'variable_35'
p267
ag92
aS'variable_17'
p268
ag21
aS'+='
p269
aS'variable_37'
p270
ag22
aS'variable_32'
p271
ag17
aS'variable_38'
p272
ag92
ag43
ag21
ag24
aS'variable_34'
p273
ag17
aS'variable_35'
p274
ag92
aS'variable_17'
p275
ag92
ag43
ag21
aS'+='
p276
aS'variable_37'
p277
ag22
aS'variable_32'
p278
ag17
aS'variable_38'
p279
ag92
aS'3'
p280
ag21
ag24
aS'variable_34'
p281
ag17
aS'variable_35'
p282
ag21
aS'+='
p283
aS'variable_37'
p284
ag22
aS'variable_32'
p285
ag17
aS'variable_38'
p286
ag92
aS'variable_14'
p287
ag21
ag24
aS'variable_34'
p288
ag17
aS'variable_35'
p289
ag92
aS'variable_17'
p290
ag21
aS'+='
p291
aS'variable_37'
p292
ag22
aS'variable_32'
p293
ag17
aS'variable_38'
p294
ag92
aS'variable_14'
p295
ag92
ag43
ag21
ag24
aS'func_3'
p296
ag7
aS'NULL'
p297
ag33
ag205
aS'pass'
p298
ag207
ag208
aS'offs'
p299
ag210
ag207
ag208
aS'curr'
p300
ag210
ag207
ag212
aS'change'
p301
ag210
ag207
ag212
aS'cv'
p302
aS'offs'
p303
ag22
ag210
ag207
ag208
ag92
ag207
ag208
ag216
ag217
ag205
ag33
aS'variable_9'
p304
ag33
aS'variable_24'
p305
ag74
aS'variable_16'
p306
ag92
ag7
aS'variable_35'
p307
ag207
aS'variable_16'
p308
ag10
ag26
aS'variable_17'
p309
ag33
aS'variable_34'
p310
ag17
aS'variable_24'
p311
ag74
aS'variable_16'
p312
ag92
ag7
aS'variable_35'
p313
ag207
aS'variable_16'
p314
ag10
ag26
aS'variable_17'
p315
ag21
ag33
aS'variable_37'
p316
ag22
aS'variable_32'
p317
ag17
aS'variable_38'
p318
ag92
aS'variable_14'
p319
ag21
ag33
aS'variable_38'
p320
ag33
aS'variable_14'
p321
ag10
ag24
aS'if'
p322
ag7
aS'variable_0'
p323
aS'=='
p324
ag53
ag10
aS'unsigned'
p325
aS'variable_39'
p326
ag13
aS'func_4'
p327
ag7
aS'variable_24'
p328
aS'<<'
p329
ag43
ag33
aS'variable_16'
p330
aS'<<'
p331
ag43
ag10
ag24
aS'unsigned'
p332
aS'variable_40'
p333
ag13
aS'variable_24'
p334
ag42
aS'variable_39'
p335
ag26
aS'variable_16'
p336
ag24
aS'variable_34'
p337
ag17
aS'variable_39'
p338
ag92
aS'variable_40'
p339
ag26
aS'variable_17'
p340
ag21
aS'+='
p341
aS'variable_37'
p342
ag22
aS'variable_32'
p343
ag17
aS'variable_38'
p344
ag92
aS'variable_14'
p345
ag21
ag24
aS'func_5'
p346
ag7
aS'NULL'
p347
ag33
ag205
aS'pass'
p348
ag207
ag208
aS'offs'
p349
ag210
ag207
ag208
aS'curr'
p350
ag210
ag207
ag212
aS'change'
p351
ag210
ag207
ag212
aS'cv'
p352
aS'offs'
p353
ag22
ag210
ag207
ag208
ag92
ag207
ag208
ag216
ag217
ag205
ag33
aS'variable_9'
p354
ag33
aS'variable_39'
p355
ag92
aS'variable_40'
p356
ag26
aS'variable_17'
p357
ag33
aS'variable_34'
p358
ag17
aS'variable_39'
p359
ag92
aS'variable_40'
p360
ag26
aS'variable_17'
p361
ag21
ag33
aS'variable_37'
p362
ag22
aS'variable_32'
p363
ag17
aS'variable_38'
p364
ag92
aS'variable_14'
p365
ag21
ag33
aS'variable_38'
p366
ag33
aS'variable_14'
p367
ag10
ag24
aS'if'
p368
ag7
aS'++'
p369
aS'variable_40'
p370
aS'=='
p371
aS'variable_16'
p372
ag10
aS'variable_39'
p373
aS'++'
p374
ag24
aS'variable_26'
p375
aS'+='
p376
aS'variable_18'
p377
ag24
aS'variable_24'
p378
aS'+='
p379
aS'variable_4'
p380
aS'->'
p381
aS'variable_22'
p382
ag24
aa(lp383
S'static'
p384
aS'av_always_inline'
p385
aS'int'
p386
aS'func_0'
p387
ag7
aS'int'
p388
aS'variable_0'
p389
ag10
aS'unsigned'
p390
aS'variable_1'
p391
ag13
aS'variable_2'
p392
aS'->'
p393
aS'variable_3'
p394
ag17
aS'variable_4'
p395
aS'->'
p396
aS'variable_5'
p397
ag21
ag22
aS'variable_6'
p398
ag24
aS'variable_7'
p399
ag26
aS'variable_8'
p400
ag13
aS'variable_4'
p401
aS'->'
p402
aS'variable_8'
p403
ag24
aS'unsigned'
p404
aS'variable_9'
p405
ag33
aS'variable_10'
p406
ag33
aS'variable_11'
p407
ag33
aS'variable_12'
p408
ag33
aS'variable_13'
p409
ag33
aS'variable_14'
p410
ag24
aS'unsigned'
p411
aS'variable_15'
p412
ag13
ag7
aS'variable_16'
p413
ag42
ag43
ag10
ag26
aS'variable_17'
p414
ag24
aS'int'
p415
aS'variable_18'
p416
ag13
aS'variable_4'
p417
aS'->'
p418
aS'variable_18'
p419
ag24
aS'if'
p420
ag7
aS'variable_0'
p421
aS'=='
p422
ag53
ag10
aS'for'
p423
ag7
aS'variable_12'
p424
ag13
ag43
ag24
aS'variable_12'
p425
ag57
aS'variable_16'
p426
ag24
aS'++'
p427
aS'variable_12'
p428
ag10
aS'variable_19'
p429
ag17
ag62
ag21
ag63
ag13
aS'variable_19'
p430
ag17
aS'variable_12'
p431
ag21
ag24
aS'if'
p432
ag7
aS'variable_19'
p433
ag17
ag62
ag21
ag10
aS'variable_10'
p434
ag13
ag43
ag24
aS'variable_15'
p435
aS'+='
p436
aS'variable_4'
p437
aS'->'
p438
aS'variable_20'
p439
ag74
aS'variable_16'
p440
ag24
aS'variable_10'
p441
ag13
aS'variable_16'
p442
ag24
aS'variable_15'
p443
aS'+='
p444
aS'variable_4'
p445
aS'->'
p446
aS'variable_20'
p447
ag24
aS'if'
p448
ag7
aS'variable_15'
p449
ag85
aS'variable_21'
p450
ag26
aS'variable_17'
p451
ag10
aS'if'
p452
ag7
aS'variable_15'
p453
ag57
ag13
aS'variable_21'
p454
ag26
aS'variable_17'
p455
ag92
aS'variable_4'
p456
aS'->'
p457
aS'variable_22'
p458
ag26
aS'variable_10'
p459
ag74
aS'variable_16'
p460
ag10
aS'variable_18'
p461
aS'--'
p462
ag24
aS'for'
p463
ag7
aS'variable_9'
p464
ag13
ag62
ag24
aS'variable_9'
p465
ag57
ag13
aS'variable_4'
p466
aS'->'
p467
aS'variable_23'
p468
ag24
aS'++'
p469
aS'variable_9'
p470
ag10
aS'int'
p471
aS'variable_24'
p472
ag33
aS'variable_25'
p473
ag33
aS'variable_26'
p474
ag24
aS'for'
p475
ag7
aS'variable_25'
p476
ag13
ag62
ag24
aS'variable_25'
p477
ag57
aS'variable_18'
p478
ag24
ag10
aS'if'
p479
ag7
ag121
aS'variable_9'
p480
ag10
aS'int'
p481
aS'variable_27'
p482
ag24
aS'if'
p483
ag7
ag7
aS'variable_27'
p484
ag13
aS'func_1'
p485
ag7
aS'variable_2'
p486
ag33
aS'variable_4'
p487
ag33
aS'variable_19'
p488
ag33
aS'variable_10'
p489
ag33
aS'variable_25'
p490
ag33
aS'variable_18'
p491
ag10
ag10
ag57
ag62
ag10
aS'for'
p492
ag7
aS'variable_11'
p493
ag13
ag62
ag24
ag7
aS'variable_11'
p494
ag57
aS'variable_1'
p495
ag10
aS'&&'
p496
ag7
aS'variable_25'
p497
ag57
aS'variable_18'
p498
ag10
ag24
aS'++'
p499
aS'variable_11'
p500
ag10
aS'for'
p501
ag7
aS'variable_26'
p502
ag13
ag62
ag33
aS'variable_12'
p503
ag13
ag62
ag24
aS'variable_12'
p504
ag57
aS'variable_10'
p505
ag24
aS'++'
p506
aS'variable_12'
p507
ag10
aS'if'
p508
ag7
ag121
aS'variable_19'
p509
ag17
aS'variable_12'
p510
ag21
ag10
aS'unsigned'
p511
aS'variable_28'
p512
ag13
aS'variable_8'
p513
ag17
aS'variable_26'
p514
ag92
aS'variable_25'
p515
ag21
ag24
aS'int'
p516
aS'variable_29'
p517
ag13
aS'variable_4'
p518
aS'->'
p519
aS'variable_30'
p520
ag17
aS'variable_28'
p521
ag21
ag17
aS'variable_9'
p522
ag21
ag24
aS'if'
p523
ag7
aS'variable_29'
p524
ag85
ag13
ag62
aS'&&'
p525
aS'variable_2'
p526
aS'->'
p527
aS'variable_3'
p528
ag17
aS'variable_29'
p529
ag21
ag22
aS'variable_31'
p530
ag10
aS'unsigned'
p531
aS'variable_32'
p532
ag13
aS'variable_2'
p533
aS'->'
p534
aS'variable_3'
p535
ag17
aS'variable_29'
p536
ag21
ag22
aS'variable_6'
p537
ag24
aS'unsigned'
p538
aS'variable_33'
p539
ag13
aS'func_2'
p540
ag7
aS'variable_4'
p541
aS'->'
p542
aS'variable_22'
p543
aS'<<'
p544
ag43
ag33
aS'variable_32'
p545
aS'<<'
p546
ag43
ag10
ag24
aS'vorbis_codebook'
p547
aS'variable_34'
p548
ag13
aS'variable_2'
p549
aS'->'
p550
aS'variable_3'
p551
ag17
aS'variable_29'
p552
ag21
ag24
aS'for'
p553
ag7
aS'variable_13'
p554
ag13
ag62
ag24
aS'variable_13'
p555
ag57
aS'variable_33'
p556
ag24
aS'++'
p557
aS'variable_13'
p558
ag10
aS'variable_35'
p559
ag13
aS'func_3'
p560
ag7
aS'variable_36'
p561
ag33
aS'variable_34'
p562
ag22
aS'variable_37'
p563
ag22
aS'variable_38'
p564
ag33
aS'variable_34'
p565
ag22
aS'variable_39'
p566
ag33
ag280
ag10
ag26
aS'variable_32'
p567
ag24
aS'for'
p568
ag7
aS'variable_14'
p569
ag13
ag62
ag24
aS'variable_14'
p570
ag57
aS'variable_32'
p571
ag24
aS'++'
p572
aS'variable_14'
p573
ag10
aS'variable_40'
p574
ag17
aS'variable_41'
p575
ag92
aS'variable_13'
p576
ag92
aS'variable_14'
p577
ag26
aS'variable_33'
p578
ag21
aS'+='
p579
aS'variable_34'
p580
ag22
aS'variable_31'
p581
ag17
aS'variable_35'
p582
ag92
aS'variable_14'
p583
ag21
ag24
aS'for'
p584
ag7
aS'variable_13'
p585
ag13
ag62
ag24
aS'variable_13'
p586
ag57
aS'variable_33'
p587
ag24
aS'++'
p588
aS'variable_13'
p589
ag10
aS'variable_35'
p590
ag13
aS'func_4'
p591
ag7
aS'variable_36'
p592
ag33
aS'variable_34'
p593
ag22
aS'variable_37'
p594
ag22
aS'variable_38'
p595
ag33
aS'variable_34'
p596
ag22
aS'variable_39'
p597
ag33
ag280
ag10
ag26
aS'variable_32'
p598
ag24
aS'for'
p599
ag7
aS'variable_14'
p600
ag13
ag62
ag24
aS'variable_14'
p601
ag57
aS'variable_32'
p602
ag24
aS'++'
p603
aS'variable_14'
p604
ag33
aS'++'
p605
aS'variable_41'
p606
ag10
aS'variable_40'
p607
ag17
aS'variable_41'
p608
ag21
aS'+='
p609
aS'variable_34'
p610
ag22
aS'variable_31'
p611
ag17
aS'variable_35'
p612
ag92
aS'variable_14'
p613
ag21
ag24
aS'func_5'
p614
ag7
aS'NULL'
p615
ag33
ag205
aS'pass'
p616
ag207
ag208
aS'offs'
p617
ag210
ag207
ag208
aS'curr'
p618
ag210
ag207
ag212
aS'change'
p619
ag210
ag207
ag212
aS'cv'
p620
aS'offs'
p621
ag22
ag210
ag207
ag208
ag216
ag217
ag205
ag33
aS'variable_9'
p622
ag33
aS'variable_41'
p623
ag33
aS'variable_40'
p624
ag17
aS'variable_41'
p625
ag21
ag33
aS'variable_34'
p626
ag22
aS'variable_31'
p627
ag17
aS'variable_35'
p628
ag92
aS'variable_14'
p629
ag21
ag33
aS'variable_35'
p630
ag10
ag24
aS'if'
p631
ag7
aS'variable_0'
p632
aS'=='
p633
ag53
aS'&&'
p634
aS'variable_16'
p635
aS'=='
p636
ag53
aS'&&'
p637
ag7
aS'variable_24'
p638
ag63
ag43
ag10
aS'=='
p639
ag62
aS'&&'
p640
ag7
aS'variable_32'
p641
ag63
ag43
ag10
aS'=='
p642
ag62
ag10
aS'if'
p643
ag7
aS'variable_32'
p644
aS'=='
p645
ag53
ag10
aS'for'
p646
ag7
aS'variable_13'
p647
ag13
ag62
ag24
aS'variable_13'
p648
ag57
aS'variable_33'
p649
ag24
aS'++'
p650
aS'variable_13'
p651
ag10
aS'variable_35'
p652
ag13
aS'func_6'
p653
ag7
aS'variable_36'
p654
ag33
aS'variable_34'
p655
ag22
aS'variable_37'
p656
ag22
aS'variable_38'
p657
ag33
aS'variable_34'
p658
ag22
aS'variable_39'
p659
ag33
ag280
ag10
ag26
ag53
ag24
aS'variable_40'
p660
ag17
aS'variable_41'
p661
ag92
aS'variable_13'
p662
ag21
aS'+='
p663
aS'variable_34'
p664
ag22
aS'variable_31'
p665
ag17
aS'variable_35'
p666
ag21
ag24
aS'variable_40'
p667
ag17
aS'variable_41'
p668
ag92
aS'variable_13'
p669
ag92
aS'variable_17'
p670
ag21
aS'+='
p671
aS'variable_34'
p672
ag22
aS'variable_31'
p673
ag17
aS'variable_35'
p674
ag92
ag43
ag21
ag24
aS'if'
p675
ag7
aS'variable_32'
p676
aS'=='
p677
aS'4'
p678
ag10
aS'for'
p679
ag7
aS'variable_13'
p680
ag13
ag62
ag24
aS'variable_13'
p681
ag57
aS'variable_33'
p682
ag24
aS'++'
p683
aS'variable_13'
p684
ag33
aS'variable_41'
p685
aS'+='
p686
ag53
ag10
aS'variable_35'
p687
ag13
aS'func_7'
p688
ag7
aS'variable_36'
p689
ag33
aS'variable_34'
p690
ag22
aS'variable_37'
p691
ag22
aS'variable_38'
p692
ag33
aS'variable_34'
p693
ag22
aS'variable_39'
p694
ag33
ag280
ag10
ag26
ag678
ag24
aS'variable_40'
p695
ag17
aS'variable_41'
p696
ag21
aS'+='
p697
aS'variable_34'
p698
ag22
aS'variable_31'
p699
ag17
aS'variable_35'
p700
ag21
ag24
aS'variable_40'
p701
ag17
aS'variable_41'
p702
ag92
ag43
ag21
aS'+='
p703
aS'variable_34'
p704
ag22
aS'variable_31'
p705
ag17
aS'variable_35'
p706
ag92
ag53
ag21
ag24
aS'variable_40'
p707
ag17
aS'variable_41'
p708
ag92
aS'variable_17'
p709
ag21
aS'+='
p710
aS'variable_34'
p711
ag22
aS'variable_31'
p712
ag17
aS'variable_35'
p713
ag92
ag43
ag21
ag24
aS'variable_40'
p714
ag17
aS'variable_41'
p715
ag92
aS'variable_17'
p716
ag92
ag43
ag21
aS'+='
p717
aS'variable_34'
p718
ag22
aS'variable_31'
p719
ag17
aS'variable_35'
p720
ag92
ag280
ag21
ag24
aS'for'
p721
ag7
aS'variable_13'
p722
ag13
ag62
ag24
aS'variable_13'
p723
ag57
aS'variable_33'
p724
ag24
aS'++'
p725
aS'variable_13'
p726
ag10
aS'variable_35'
p727
ag13
aS'func_8'
p728
ag7
aS'variable_36'
p729
ag33
aS'variable_34'
p730
ag22
aS'variable_37'
p731
ag22
aS'variable_38'
p732
ag33
aS'variable_34'
p733
ag22
aS'variable_39'
p734
ag33
ag280
ag10
ag26
aS'variable_32'
p735
ag24
aS'for'
p736
ag7
aS'variable_14'
p737
ag13
ag62
ag24
aS'variable_14'
p738
ag57
aS'variable_32'
p739
ag24
aS'variable_14'
p740
aS'+='
p741
ag53
ag33
aS'variable_41'
p742
aS'++'
p743
ag10
aS'variable_40'
p744
ag17
aS'variable_41'
p745
ag21
aS'+='
p746
aS'variable_34'
p747
ag22
aS'variable_31'
p748
ag17
aS'variable_35'
p749
ag92
aS'variable_14'
p750
ag21
ag24
aS'variable_40'
p751
ag17
aS'variable_41'
p752
ag92
aS'variable_17'
p753
ag21
aS'+='
p754
aS'variable_34'
p755
ag22
aS'variable_31'
p756
ag17
aS'variable_35'
p757
ag92
aS'variable_14'
p758
ag92
ag43
ag21
ag24
aS'func_9'
p759
ag7
aS'NULL'
p760
ag33
ag205
aS'pass'
p761
ag207
ag208
aS'offs'
p762
ag210
ag207
ag208
aS'curr'
p763
ag210
ag207
ag212
aS'change'
p764
ag210
ag207
ag212
aS'cv'
p765
aS'offs'
p766
ag22
ag210
ag207
ag208
ag92
ag207
ag208
ag216
ag217
ag205
ag33
aS'variable_9'
p767
ag33
aS'variable_24'
p768
ag74
aS'variable_16'
p769
ag92
ag7
aS'variable_41'
p770
ag207
aS'variable_16'
p771
ag10
ag26
aS'variable_17'
p772
ag33
aS'variable_40'
p773
ag17
aS'variable_24'
p774
ag74
aS'variable_16'
p775
ag92
ag7
aS'variable_41'
p776
ag207
aS'variable_16'
p777
ag10
ag26
aS'variable_17'
p778
ag21
ag33
aS'variable_34'
p779
ag22
aS'variable_31'
p780
ag17
aS'variable_35'
p781
ag92
aS'variable_14'
p782
ag21
ag33
aS'variable_35'
p783
ag33
aS'variable_14'
p784
ag10
ag24
aS'for'
p785
ag7
aS'variable_13'
p786
ag13
ag62
ag24
aS'variable_13'
p787
ag57
aS'variable_33'
p788
ag24
aS'++'
p789
aS'variable_13'
p790
ag10
aS'variable_35'
p791
ag13
aS'func_10'
p792
ag7
aS'variable_36'
p793
ag33
aS'variable_34'
p794
ag22
aS'variable_37'
p795
ag22
aS'variable_38'
p796
ag33
aS'variable_34'
p797
ag22
aS'variable_39'
p798
ag33
ag280
ag10
ag26
aS'variable_32'
p799
ag24
aS'for'
p800
ag7
aS'variable_14'
p801
ag13
ag62
ag24
aS'variable_14'
p802
ag57
aS'variable_32'
p803
ag24
aS'++'
p804
aS'variable_14'
p805
ag10
aS'variable_40'
p806
ag17
aS'variable_42'
p807
ag92
aS'variable_43'
p808
ag26
aS'variable_17'
p809
ag21
aS'+='
p810
aS'variable_34'
p811
ag22
aS'variable_31'
p812
ag17
aS'variable_35'
p813
ag92
aS'variable_14'
p814
ag21
ag24
aS'func_11'
p815
ag7
aS'NULL'
p816
ag33
ag205
aS'pass'
p817
ag207
ag208
aS'offs'
p818
ag210
ag207
ag208
aS'curr'
p819
ag210
ag207
ag212
aS'change'
p820
ag210
ag207
ag212
aS'cv'
p821
aS'offs'
p822
ag22
ag210
ag207
ag208
ag92
ag207
ag208
ag216
ag217
ag205
ag33
aS'variable_9'
p823
ag33
aS'variable_42'
p824
ag92
aS'variable_43'
p825
ag26
aS'variable_17'
p826
ag33
aS'variable_40'
p827
ag17
aS'variable_42'
p828
ag92
aS'variable_43'
p829
ag26
aS'variable_17'
p830
ag21
ag33
aS'variable_34'
p831
ag22
aS'variable_31'
p832
ag17
aS'variable_35'
p833
ag92
aS'variable_14'
p834
ag21
ag33
aS'variable_35'
p835
ag33
aS'variable_14'
p836
ag10
ag24
aS'if'
p837
ag7
aS'++'
p838
aS'variable_43'
p839
aS'=='
p840
aS'variable_16'
p841
ag10
aS'variable_42'
p842
aS'++'
p843
ag24
aS'variable_26'
p844
aS'+='
p845
aS'variable_18'
p846
ag24
aaa(lp847
I0
aI0
aa(lp848
I665
aI265
aa(lp849
(lp850
S'main'
p851
aa(lp852
g851
aaa(lp853
S'925 /home/SySeVR/data/CVE_2014_7937_PATCHED_vorbis_residue_decode_internal.c unsigned voffs_mod = voffset - voffs_div * ch ; 118'
p854
aS'926 /home/SySeVR/data/CVE_2014_7937_PATCHED_vorbis_residue_decode_internal.c unsigned vqclass = classifs [ j_times_ptns_to_read + partition_count ] ; 57'
p855
aa.