(lp0
(lp1
(lp2
S'func_0'
p3
aS'('
p4
aS'variable_0'
p5
aS'*'
p6
aS'variable_1'
p7
aS','
p8
aS'variable_2'
p9
ag6
aS'variable_3'
p10
ag8
aS'variable_4'
p11
ag6
aS'variable_5'
p12
aS')'
p13
aS'int'
p14
aS'variable_6'
p15
aS';'
p16
aS'int'
p17
aS'variable_7'
p18
ag16
aS'int'
p19
aS'variable_8'
p20
ag16
aS'int'
p21
aS'variable_9'
p22
ag16
aS'int'
p23
aS'variable_10'
p24
ag8
aS'variable_11'
p25
ag8
aS'variable_12'
p26
ag8
aS'variable_13'
p27
ag16
aS'variable_8'
p28
aS'='
p29
aS'1'
p30
ag16
aS'variable_6'
p31
ag29
aS'func_1'
p32
ag4
aS'variable_5'
p33
ag8
aS'variable_8'
p34
ag8
aS'&'
p35
aS'variable_9'
p36
ag13
ag16
aS'if'
p37
ag4
aS'variable_6'
p38
aS'<'
p39
aS'0'
p40
ag13
aS'variable_8'
p41
aS'+='
p42
aS'variable_9'
p43
ag16
aS'variable_8'
p44
aS'+='
p45
aS'2'
p46
ag16
aS'variable_8'
p47
aS'+='
p48
ag46
ag16
aS'variable_8'
p49
aS'+='
p50
ag46
ag16
aS'variable_8'
p51
aS'+='
p52
ag46
ag16
aS'variable_8'
p53
aS'+='
p54
ag46
ag16
aS'variable_8'
p55
aS'+='
p56
ag46
ag16
aS'variable_12'
p57
ag29
aS'func_2'
p58
ag4
aS'variable_5'
p59
ag8
aS'variable_8'
p60
ag13
ag16
aS'variable_8'
p61
aS'+='
p62
ag46
ag16
aS'variable_13'
p63
ag29
aS'func_3'
p64
ag4
aS'variable_5'
p65
ag8
aS'variable_8'
p66
ag13
ag16
aS'variable_8'
p67
aS'+='
p68
ag46
ag16
aS'variable_8'
p69
aS'+='
p70
aS'8'
p71
ag16
aS'variable_8'
p72
aS'+='
p73
aS'4'
p74
ag16
aS'variable_7'
p75
ag29
aS'func_4'
p76
ag4
aS'variable_5'
p77
ag8
aS'variable_8'
p78
ag8
ag35
aS'variable_9'
p79
ag13
ag16
aS'if'
p80
ag4
aS'variable_7'
p81
ag39
ag40
ag13
aS'variable_8'
p82
aS'+='
p83
aS'variable_9'
p84
ag16
aS'if'
p85
ag4
aS'variable_7'
p86
aS'=='
p87
ag40
ag13
aS'variable_14'
p88
ag29
aS'func_5'
p89
ag4
aS'"'
p90
aS'%'
p91
aS's'
p92
aS':'
p93
ag91
ag92
ag90
ag8
aS'func_6'
p94
ag4
aS'variable_5'
p95
ag8
aS'variable_8'
p96
aS'+'
p97
aS'variable_12'
p98
ag8
aS'NULL'
p99
ag13
ag8
aS'func_7'
p100
ag4
aS'variable_5'
p101
ag8
aS'variable_8'
p102
ag97
aS'variable_13'
p103
ag8
aS'NULL'
p104
ag13
ag13
ag16
aaa(lp105
I0
aa(lp106
I168
aa(lp107
(lp108
S'main'
p109
aaa(lp110
S'459 /home/SySeVR/data/CVE_2013_1583_PATCHED_dissect_version_4_primary_header.c bundle_custodian = ep_strdup_printf ( "%s:%s" , tvb_get_ephemeral_stringz ( tvb , offset + cust_scheme_offset , NULL ) , tvb_get_ephemeral_stringz ( tvb , offset + cust_ssp_offset , NULL ) ) 312'
p111
aa.