(lp0
(lp1
(lp2
S'func_0'
p3
aS'('
p4
aS'struct'
p5
aS'variable_0'
p6
aS'*'
p7
aS'variable_0'
p8
aS','
p9
aS'const'
p10
aS'unsigned'
p11
aS'long'
p12
aS'variable_1'
p13
ag9
aS'variable_2'
p14
ag7
aS'variable_3'
p15
aS')'
p16
aS'unsigned'
p17
aS'long'
p18
aS'variable_4'
p19
ag9
aS'variable_5'
p20
aS';'
p21
aS'size_t'
p22
aS'variable_6'
p23
ag9
aS'variable_7'
p24
ag9
aS'variable_8'
p25
ag9
aS'variable_9'
p26
ag21
aS'loff_t'
p27
aS'variable_10'
p28
ag21
aS'struct'
p29
aS'variable_11'
p30
ag7
aS'variable_12'
p31
ag21
aS'struct'
p32
aS'variable_13'
p33
ag7
aS'variable_14'
p34
ag21
aS'struct'
p35
aS'variable_15'
p36
ag7
aS'variable_16'
p37
ag21
aS'struct'
p38
aS'variable_17'
p39
ag7
aS'variable_18'
p40
ag9
ag7
aS'variable_19'
p41
ag21
aS'int'
p42
aS'variable_20'
p43
ag21
aS'pid_t'
p44
aS'variable_21'
p45
ag21
aS'variable_8'
p46
aS'='
p47
aS'func_1'
p48
ag4
aS'variable_22'
p49
ag9
aS'variable_1'
p50
ag16
ag21
aS'if'
p51
ag4
aS'!'
p52
aS'variable_8'
p53
ag16
aS'variable_20'
p54
ag47
aS'func_2'
p55
ag4
aS'variable_0'
p56
ag9
aS'variable_3'
p57
ag9
aS'&'
p58
aS'variable_8'
p59
ag9
aS'0'
p60
ag16
ag21
aS'if'
p61
ag4
aS'variable_20'
p62
ag16
aS'variable_16'
p63
ag47
aS'func_3'
p64
ag4
aS'variable_0'
p65
aS'->'
p66
aS'variable_23'
p67
aS'.'
p68
aS'variable_24'
p69
aS'->'
p70
aS'variable_25'
p71
ag16
ag21
aS'variable_12'
p72
ag47
aS'variable_0'
p73
aS'->'
p74
aS'variable_26'
p75
ag21
aS'variable_14'
p76
ag47
aS'func_4'
p77
ag4
aS'variable_12'
p78
aS'->'
p79
aS'variable_27'
p80
ag16
ag21
aS'if'
p81
ag4
ag52
aS'variable_14'
p82
aS'->'
p83
aS'variable_28'
p84
aS'->'
p85
aS'variable_29'
p86
aS'->'
p87
aS'variable_30'
p88
aS'->'
p89
aS'variable_31'
p90
ag16
aS'variable_10'
p91
ag47
ag7
aS'variable_3'
p92
ag21
aS'if'
p93
ag4
aS'variable_16'
p94
aS'->'
p95
aS'variable_32'
p96
ag58
aS'variable_33'
p97
ag16
aS'variable_21'
p98
ag47
aS'variable_12'
p99
aS'->'
p100
aS'variable_21'
p101
ag21
aS'variable_21'
p102
ag47
aS'variable_34'
p103
aS'->'
p104
aS'variable_35'
p105
ag21
aS'size_t'
p106
aS'variable_36'
p107
ag21
aS'variable_4'
p108
ag47
aS'func_5'
p109
ag4
aS'variable_16'
p110
aS'->'
p111
aS'variable_37'
p112
ag9
aS'variable_8'
p113
ag9
ag58
aS'variable_9'
p114
ag16
ag21
aS'variable_18'
p115
ag47
aS'func_6'
p116
ag4
aS'variable_4'
p117
ag9
aS'variable_38'
p118
ag16
ag21
aS'if'
p119
ag4
ag52
aS'variable_18'
p120
ag16
aS'variable_20'
p121
ag47
aS'func_7'
p122
ag4
aS'variable_18'
p123
aS'->'
p124
aS'variable_39'
p125
ag9
aS'variable_4'
p126
ag16
ag21
aS'if'
p127
ag4
aS'variable_20'
p128
ag16
aS'kfree'
p129
ag4
aS'variable_18'
p130
ag16
ag21
aS'variable_36'
p131
ag47
aS'variable_9'
p132
ag21
aS'for'
p133
ag4
aS'variable_5'
p134
ag47
ag60
ag21
aS'variable_5'
p135
aS'<'
p136
aS'variable_4'
p137
ag21
aS'variable_5'
p138
aS'++'
p139
ag16
aS'variable_6'
p140
ag47
aS'func_8'
p141
ag4
aS'const'
p142
aS'size_t'
p143
ag9
aS'variable_9'
p144
ag9
aS'variable_40'
p145
ag16
aS'variable_7'
p146
ag47
aS'func_9'
p147
ag4
aS'variable_18'
p148
aS'->'
p149
aS'variable_39'
p150
aS'['
p151
aS'variable_5'
p152
aS']'
p153
ag9
ag58
aS'variable_41'
p154
ag9
ag60
ag9
aS'variable_6'
p155
ag16
ag21
aS'variable_9'
p156
aS'-='
p157
aS'variable_7'
p158
ag21
aS'func_10'
p159
ag4
ag58
aS'variable_41'
p160
ag9
aS'variable_7'
p161
ag16
ag21
aS'if'
p162
ag4
aS'variable_7'
p163
ag136
aS'variable_6'
p164
ag16
aS'variable_9'
p165
ag47
aS'variable_36'
p166
aS'-'
p167
aS'variable_9'
p168
ag21
aS'if'
p169
ag4
ag52
aS'variable_9'
p170
ag16
aS'for'
p171
ag4
aS'variable_5'
p172
ag47
ag60
ag21
aS'variable_5'
p173
ag136
aS'variable_4'
p174
ag21
aS'variable_5'
p175
aS'++'
p176
ag16
aS'func_11'
p177
ag4
aS'variable_18'
p178
aS'->'
p179
aS'variable_39'
p180
ag151
aS'variable_5'
p181
ag153
ag16
ag21
aS'kfree'
p182
ag4
aS'variable_18'
p183
ag16
ag21
aS'for'
p184
ag4
ag21
aS'variable_4'
p185
aS'>'
p186
aS'variable_5'
p187
aS'+'
p188
aS'1'
p189
ag21
aS'variable_4'
p190
aS'--'
p191
ag16
aS'func_12'
p192
ag4
aS'variable_18'
p193
aS'->'
p194
aS'variable_39'
p195
ag151
aS'variable_4'
p196
ag167
ag189
ag153
ag16
ag21
aS'variable_18'
p197
aS'->'
p198
aS'variable_42'
p199
ag47
aS'variable_43'
p200
ag21
aS'variable_18'
p201
aS'->'
p202
aS'variable_4'
p203
ag47
aS'variable_4'
p204
ag21
aS'variable_18'
p205
aS'->'
p206
aS'variable_10'
p207
ag47
ag4
aS'variable_44'
p208
ag16
aS'variable_10'
p209
ag21
aS'variable_18'
p210
aS'->'
p211
aS'variable_45'
p212
ag47
aS'func_13'
p213
ag4
aS'variable_12'
p214
ag16
ag21
aS'variable_18'
p215
aS'->'
p216
aS'variable_21'
p217
ag47
aS'variable_21'
p218
ag21
aS'variable_18'
p219
aS'->'
p220
aS'variable_6'
p221
ag47
aS'variable_9'
p222
ag21
aS'variable_18'
p223
aS'->'
p224
aS'variable_46'
p225
ag47
aS'variable_40'
p226
ag21
aS'variable_18'
p227
aS'->'
p228
aS'variable_47'
p229
ag47
aS'variable_9'
p230
ag167
ag4
ag4
aS'variable_4'
p231
ag167
ag189
ag16
ag7
aS'variable_40'
p232
ag16
ag21
aS'variable_20'
p233
ag47
aS'func_14'
p234
ag4
aS'variable_18'
p235
ag16
ag21
aS'if'
p236
ag4
aS'variable_20'
p237
ag16
aS'func_15'
p238
ag4
ag58
aS'variable_18'
p239
aS'->'
p240
aS'variable_48'
p241
ag9
aS'variable_49'
p242
ag16
ag21
aS'func_16'
p243
ag4
ag58
aS'variable_18'
p244
aS'->'
p245
aS'variable_50'
p246
ag9
ag58
aS'variable_51'
p247
ag16
ag21
aS'variable_10'
p248
aS'+='
p249
aS'variable_9'
p250
ag21
aS'variable_8'
p251
aS'-='
p252
aS'variable_9'
p253
ag21
aS'while'
p254
ag4
aS'variable_8'
p255
ag186
ag60
ag16
aS'func_17'
p256
ag4
aS'variable_18'
p257
ag9
aS'variable_19'
p258
ag9
ag58
aS'variable_51'
p259
ag9
aS'variable_50'
p260
ag16
aS'if'
p261
ag4
ag52
aS'variable_20'
p262
ag16
aS'variable_20'
p263
ag47
aS'func_18'
p264
ag4
ag58
aS'variable_18'
p265
aS'->'
p266
aS'variable_52'
p267
ag16
ag21
aS'if'
p268
ag4
aS'variable_20'
p269
ag16
aS'if'
p270
ag4
aS'variable_18'
p271
aS'->'
p272
aS'variable_53'
p273
ag16
aS'variable_20'
p274
ag47
aS'variable_18'
p275
aS'->'
p276
aS'variable_53'
p277
ag21
aS'variable_54'
p278
aS'+='
p279
aS'variable_18'
p280
aS'->'
p281
aS'variable_6'
p282
ag21
aS'if'
p283
ag4
aS'variable_20'
p284
aS'=='
p285
ag167
aS'variable_55'
p286
ag16
aS'variable_20'
p287
ag47
aS'func_19'
p288
ag4
aS'variable_18'
p289
ag16
ag21
aS'func_20'
p290
ag4
ag58
aS'variable_18'
p291
aS'->'
p292
aS'variable_50'
p293
ag16
ag21
aS'func_21'
p294
ag4
ag58
aS'variable_18'
p295
aS'->'
p296
aS'variable_48'
p297
ag9
aS'variable_49'
p298
ag16
ag21
aS'if'
p299
ag4
aS'variable_54'
p300
ag186
ag60
ag16
ag7
aS'variable_3'
p301
aS'+='
p302
aS'variable_54'
p303
ag21
aS'func_22'
p304
ag4
aS'variable_14'
p305
ag9
aS'variable_54'
p306
ag16
ag21
aS'return'
p307
aS'variable_54'
p308
aS'?'
p309
aS'variable_54'
p310
aS':'
p311
ag4
aS'variable_56'
p312
ag16
aS'variable_20'
p313
ag21
aaa(lp314
I0
aa(lp315
I278
aa(lp316
(lp317
S'main'
p318
aaa(lp319
S'601 /home/SySeVR/data/CVE_2014_0069_PATCHED_cifs_iovec_write.c cur_len = save_len - cur_len 76'
p320
aa.