(lp0
(lp1
(lp2
S'void'
p3
aS'func_0'
p4
aS'('
p5
aS'variable_0'
p6
aS'*'
p7
aS'variable_1'
p8
aS','
p9
aS'variable_2'
p10
ag7
aS'variable_3'
p11
aS')'
p12
aS'int'
p13
aS'variable_4'
p14
ag9
aS'variable_5'
p15
ag9
aS'variable_6'
p16
aS';'
p17
aS'for'
p18
ag5
aS'variable_4'
p19
aS'='
p20
aS'variable_1'
p21
aS'->'
p22
aS'variable_7'
p23
aS'&&'
p24
aS'variable_4'
p25
aS'<'
p26
aS'variable_4'
p27
aS'++'
p28
ag12
aS'variable_8'
p29
ag7
aS'variable_7'
p30
ag20
aS'variable_1'
p31
aS'->'
p32
aS'variable_7'
p33
aS'+'
p34
aS'variable_4'
p35
ag17
aS'for'
p36
ag5
aS'variable_5'
p37
ag20
aS'0'
p38
ag17
aS'variable_5'
p39
ag26
aS'variable_7'
p40
aS'->'
p41
aS'variable_9'
p42
ag17
aS'variable_5'
p43
aS'++'
p44
ag12
aS'variable_10'
p45
ag7
aS'variable_11'
p46
ag20
aS'variable_7'
p47
aS'->'
p48
aS'variable_11'
p49
ag34
aS'variable_5'
p50
ag17
aS'for'
p51
ag5
aS'variable_6'
p52
ag20
ag38
ag17
aS'variable_6'
p53
ag26
aS'variable_7'
p54
aS'->'
p55
aS'variable_12'
p56
ag7
aS'variable_7'
p57
aS'->'
p58
aS'variable_13'
p59
ag17
aS'variable_6'
p60
aS'++'
p61
ag12
aS'if'
p62
ag5
aS'variable_11'
p63
aS'->'
p64
aS'variable_14'
p65
ag12
aS'variable_15'
p66
ag7
aS'variable_14'
p67
ag20
aS'variable_11'
p68
aS'->'
p69
aS'variable_14'
p70
ag34
aS'variable_6'
p71
ag17
aS'func_1'
p72
ag5
aS'&'
p73
aS'variable_14'
p74
aS'->'
p75
aS'variable_16'
p76
ag12
ag17
aS'func_2'
p77
ag5
ag73
aS'variable_14'
p78
aS'->'
p79
aS'variable_17'
p80
ag12
ag17
aS'func_3'
p81
ag5
ag73
aS'variable_14'
p82
aS'->'
p83
aS'variable_18'
p84
ag12
ag17
aa(lp85
S'void'
p86
aS'func_0'
p87
ag5
aS'variable_0'
p88
ag7
aS'variable_1'
p89
ag9
aS'variable_2'
p90
ag7
aS'variable_3'
p91
ag12
aS'int'
p92
aS'variable_4'
p93
ag9
aS'variable_5'
p94
ag9
aS'variable_6'
p95
ag17
aS'for'
p96
ag5
aS'variable_4'
p97
ag20
aS'variable_1'
p98
aS'->'
p99
aS'variable_7'
p100
aS'&&'
p101
aS'variable_4'
p102
ag26
aS'variable_4'
p103
aS'++'
p104
ag12
aS'variable_8'
p105
ag7
aS'variable_7'
p106
ag20
aS'variable_1'
p107
aS'->'
p108
aS'variable_7'
p109
ag34
aS'variable_4'
p110
ag17
aS'for'
p111
ag5
aS'variable_5'
p112
ag20
ag38
ag17
aS'variable_5'
p113
ag26
aS'variable_7'
p114
aS'->'
p115
aS'variable_9'
p116
ag17
aS'variable_5'
p117
aS'++'
p118
ag12
aS'variable_10'
p119
ag7
aS'variable_11'
p120
ag20
aS'variable_7'
p121
aS'->'
p122
aS'variable_11'
p123
ag34
aS'variable_5'
p124
ag17
aS'if'
p125
ag5
aS'variable_11'
p126
aS'->'
p127
aS'variable_12'
p128
ag12
aS'variable_13'
p129
ag7
aS'variable_12'
p130
ag20
aS'variable_11'
p131
aS'->'
p132
aS'variable_12'
p133
ag34
aS'variable_6'
p134
ag17
aS'func_1'
p135
ag5
ag73
aS'variable_12'
p136
aS'->'
p137
aS'variable_14'
p138
ag12
ag17
aS'func_2'
p139
ag5
ag73
aS'variable_12'
p140
aS'->'
p141
aS'variable_15'
p142
ag12
ag17
aS'func_3'
p143
ag5
ag73
aS'variable_12'
p144
aS'->'
p145
aS'variable_16'
p146
ag12
ag17
aS'func_4'
p147
ag5
ag73
aS'variable_11'
p148
aS'->'
p149
aS'variable_12'
p150
ag12
ag17
aa(lp151
S'void'
p152
aS'func_0'
p153
ag5
aS'variable_0'
p154
ag7
aS'variable_1'
p155
ag9
aS'variable_2'
p156
ag7
aS'variable_3'
p157
ag12
aS'int'
p158
aS'variable_4'
p159
ag9
aS'variable_5'
p160
ag9
aS'variable_6'
p161
ag17
aS'for'
p162
ag5
aS'variable_4'
p163
ag20
aS'variable_1'
p164
aS'->'
p165
aS'variable_7'
p166
aS'&&'
p167
aS'variable_4'
p168
ag26
aS'variable_4'
p169
aS'++'
p170
ag12
aS'variable_8'
p171
ag7
aS'variable_7'
p172
ag20
aS'variable_1'
p173
aS'->'
p174
aS'variable_7'
p175
ag34
aS'variable_4'
p176
ag17
aS'for'
p177
ag5
aS'variable_5'
p178
ag20
ag38
ag17
aS'variable_5'
p179
ag26
aS'variable_7'
p180
aS'->'
p181
aS'variable_9'
p182
ag17
aS'variable_5'
p183
aS'++'
p184
ag12
aS'variable_10'
p185
ag7
aS'variable_11'
p186
ag20
aS'variable_7'
p187
aS'->'
p188
aS'variable_11'
p189
ag34
aS'variable_5'
p190
ag17
aS'for'
p191
ag5
aS'variable_6'
p192
ag20
ag38
ag17
aS'variable_6'
p193
ag26
aS'variable_7'
p194
aS'->'
p195
aS'variable_12'
p196
ag7
aS'variable_7'
p197
aS'->'
p198
aS'variable_13'
p199
ag17
aS'variable_6'
p200
aS'++'
p201
ag12
aS'if'
p202
ag5
aS'variable_11'
p203
aS'->'
p204
aS'variable_14'
p205
ag12
aS'variable_15'
p206
ag7
aS'variable_14'
p207
ag20
aS'variable_11'
p208
aS'->'
p209
aS'variable_14'
p210
ag34
aS'variable_6'
p211
ag17
aS'func_1'
p212
ag5
ag73
aS'variable_14'
p213
aS'->'
p214
aS'variable_16'
p215
ag12
ag17
aS'func_2'
p216
ag5
ag73
aS'variable_14'
p217
aS'->'
p218
aS'variable_17'
p219
ag12
ag17
aS'func_3'
p220
ag5
ag73
aS'variable_14'
p221
aS'->'
p222
aS'variable_18'
p223
ag12
ag17
aS'func_4'
p224
ag5
ag73
aS'variable_11'
p225
aS'->'
p226
aS'variable_14'
p227
ag12
ag17
aS'func_5'
p228
ag5
ag73
aS'variable_7'
p229
aS'->'
p230
aS'variable_11'
p231
ag12
ag17
aaa(lp232
I0
aI0
aI0
aa(lp233
I100
aI65
aI40
aa(lp234
(lp235
S'main'
p236
aa(lp237
g236
aa(lp238
g236
aaa(lp239
S'855 /home/SySeVR/data/CVE_2013_7017_PATCHED_ff_jpeg2000_cleanup.c Jpeg2000Prec * prec = band -> prec + precno ; 13'
p240
aS'856 /home/SySeVR/data/CVE_2013_7017_PATCHED_ff_jpeg2000_cleanup.c Jpeg2000Band * band = reslevel -> band + bandno ; 10'
p241
aS'857 /home/SySeVR/data/CVE_2013_7017_PATCHED_ff_jpeg2000_cleanup.c Jpeg2000ResLevel * reslevel = comp -> reslevel + reslevelno ; 7'
p242
aa.