(lp0
(lp1
(lp2
S'struct'
p3
aS'variable_0'
p4
aS'*'
p5
aS'func_0'
p6
aS'('
p7
aS'const'
p8
aS'struct'
p9
aS'variable_1'
p10
ag5
aS'variable_2'
p11
aS')'
p12
aS'struct'
p13
aS'variable_0'
p14
ag5
aS'variable_3'
p15
aS';'
p16
aS'struct'
p17
aS'nfs_fattr'
p18
aS'variable_4'
p19
ag16
aS'int'
p20
aS'variable_5'
p21
ag16
aS'variable_3'
p22
aS'='
p23
aS'func_1'
p24
ag7
ag12
ag16
aS'if'
p25
ag7
aS'!'
p26
aS'variable_3'
p27
ag12
aS'variable_5'
p28
ag23
aS'func_2'
p29
ag7
aS'variable_3'
p30
aS','
p31
aS'variable_6'
p32
ag12
ag16
aS'if'
p33
ag7
aS'variable_5'
p34
aS'<'
p35
aS'0'
p36
ag12
aS'variable_5'
p37
ag23
aS'func_3'
p38
ag7
aS'variable_3'
p39
ag31
aS'variable_2'
p40
ag31
aS'&'
p41
aS'variable_4'
p42
ag12
ag16
aS'if'
p43
ag7
aS'variable_5'
p44
ag35
ag36
ag12
aS'if'
p45
ag7
aS'variable_3'
p46
aS'->'
p47
aS'variable_7'
p48
aS'->'
p49
aS'variable_8'
p50
aS'->'
p51
aS'variable_9'
p52
aS'=='
p53
aS'3'
p54
ag12
aS'if'
p55
ag7
aS'variable_3'
p56
aS'->'
p57
aS'variable_10'
p58
aS'=='
p59
ag36
aS'||'
p60
aS'variable_3'
p61
aS'->'
p62
aS'variable_10'
p63
aS'>'
p64
aS'variable_11'
p65
ag12
aS'variable_3'
p66
aS'->'
p67
aS'variable_10'
p68
ag23
aS'variable_11'
p69
ag16
aS'if'
p70
ag7
ag26
ag7
aS'variable_6'
p71
aS'->'
p72
aS'variable_12'
p73
ag41
aS'variable_13'
p74
ag12
ag12
aS'variable_3'
p75
aS'->'
p76
aS'variable_14'
p77
aS'|'
p78
ag23
aS'variable_15'
p79
ag16
aS'if'
p80
ag7
aS'variable_3'
p81
aS'->'
p82
aS'variable_10'
p83
aS'=='
p84
ag36
aS'||'
p85
aS'variable_3'
p86
aS'->'
p87
aS'variable_10'
p88
ag64
aS'variable_16'
p89
ag12
aS'variable_3'
p90
aS'->'
p91
aS'variable_10'
p92
ag23
aS'variable_16'
p93
ag16
aS'if'
p94
ag7
ag26
ag7
aS'variable_4'
p95
aS'.'
p96
aS'variable_17'
p97
ag41
aS'variable_18'
p98
ag12
ag12
aS'variable_5'
p99
ag23
aS'variable_3'
p100
aS'->'
p101
aS'variable_7'
p102
aS'->'
p103
aS'variable_8'
p104
aS'->'
p105
aS'func_4'
p106
ag7
aS'variable_3'
p107
ag31
aS'variable_2'
p108
ag31
ag41
aS'variable_4'
p109
ag12
ag16
aS'if'
p110
ag7
aS'variable_5'
p111
ag35
ag36
ag12
aS'memcpy'
p112
ag7
ag41
aS'variable_3'
p113
aS'->'
p114
aS'variable_19'
p115
ag31
ag41
aS'variable_4'
p116
ag96
aS'variable_19'
p117
ag31
aS'sizeof'
p118
ag7
aS'variable_3'
p119
aS'->'
p120
aS'variable_19'
p121
ag12
ag12
ag16
aS'func_5'
p122
ag7
aS'"'
p123
aS'Server'
p124
aS'FSID'
p125
aS':'
p126
aS'%'
p127
aS'llx'
p128
ag126
ag127
aS'llx'
p129
aS'\\'
p130
aS'n'
p131
ag123
ag31
ag7
aS'unsigned'
p132
aS'long'
p133
aS'long'
p134
ag12
aS'variable_3'
p135
aS'->'
p136
aS'variable_19'
p137
ag96
aS'variable_20'
p138
ag31
ag7
aS'unsigned'
p139
aS'long'
p140
aS'long'
p141
ag12
aS'variable_3'
p142
aS'->'
p143
aS'variable_19'
p144
ag96
aS'variable_21'
p145
ag12
ag16
aS'func_6'
p146
ag7
ag26
aS'variable_3'
p147
aS'->'
p148
aS'variable_7'
p149
ag12
ag16
aS'func_7'
p150
ag7
ag26
aS'variable_3'
p151
aS'->'
p152
aS'variable_7'
p153
aS'->'
p154
aS'variable_8'
p155
ag12
ag16
aS'func_8'
p156
ag7
ag26
aS'variable_3'
p157
aS'->'
p158
aS'variable_7'
p159
aS'->'
p160
aS'variable_8'
p161
aS'->'
p162
aS'variable_22'
p163
ag12
ag16
aS'func_9'
p164
ag7
ag41
aS'variable_3'
p165
aS'->'
p166
aS'variable_23'
p167
ag31
ag41
aS'variable_3'
p168
aS'->'
p169
aS'variable_7'
p170
aS'->'
p171
aS'variable_24'
p172
ag12
ag16
aS'func_10'
p173
ag7
ag41
aS'variable_3'
p174
aS'->'
p175
aS'variable_25'
p176
ag31
ag41
aS'variable_26'
p177
ag12
ag16
aS'variable_3'
p178
aS'->'
p179
aS'variable_27'
p180
ag23
aS'variable_28'
p181
ag16
aS'return'
p182
aS'variable_3'
p183
ag16
aS'func_11'
p184
ag7
aS'variable_3'
p185
ag12
ag16
aaa(lp186
I0
aa(lp187
I173
aa(lp188
(lp189
S'main'
p190
aaa(lp191
S'434 /home/SySeVR/data/CVE_2009_1336_PATCHED_nfs_create_server.c memcpy 42'
p192
aa.