(lp0
(lp1
(lp2
S'NS_METHOD'
p3
aS'variable_0'
p4
aS':'
p5
ag5
aS'func_0'
p6
aS'('
p7
aS'const'
p8
aS'char'
p9
aS'*'
p10
aS'variable_1'
p11
aS','
p12
aS'PRUint32'
p13
aS'variable_2'
p14
aS')'
p15
aS'if'
p16
ag7
aS'!'
p17
aS'variable_2'
p18
aS'||'
p19
ag17
aS'variable_3'
p20
ag15
aS'if'
p21
ag7
aS'variable_4'
p22
aS'<'
p23
aS'variable_5'
p24
ag15
aS'PRUint32'
p25
aS'variable_6'
p26
aS'='
p27
aS'variable_5'
p28
aS'-'
p29
aS'variable_4'
p30
aS';'
p31
aS'if'
p32
ag7
aS'variable_6'
p33
aS'>'
p34
aS'variable_2'
p35
ag15
aS'variable_6'
p36
ag27
aS'variable_2'
p37
ag31
aS'variable_4'
p38
aS'+='
p39
aS'variable_6'
p40
ag31
aS'variable_2'
p41
aS'-='
p42
aS'variable_6'
p43
ag31
aS'if'
p44
ag7
aS'variable_4'
p45
aS'=='
p46
aS'variable_5'
p47
ag15
aS'if'
p48
ag7
aS'variable_7'
p49
aS'.'
p50
aS'variable_8'
p51
aS'['
p52
aS'0'
p53
aS']'
p54
aS'!='
p55
aS"'"
p56
aS'B'
p57
ag56
aS'||'
p58
aS'variable_7'
p59
ag50
aS'variable_8'
p60
ag52
aS'1'
p61
ag54
aS'!='
p62
ag56
aS'M'
p63
ag56
ag15
aS'if'
p64
ag7
aS'variable_7'
p65
ag50
aS'variable_9'
p66
aS'=='
p67
aS'variable_10'
p68
ag15
aS'variable_11'
p69
ag27
aS'variable_12'
p70
ag31
aS'if'
p71
ag7
aS'variable_4'
p72
ag34
ag27
aS'variable_5'
p73
aS'&&'
p74
aS'variable_4'
p75
ag23
aS'variable_11'
p76
ag15
aS'PRUint32'
p77
aS'variable_6'
p78
ag27
aS'variable_11'
p79
ag29
aS'variable_4'
p80
ag31
aS'if'
p81
ag7
aS'variable_6'
p82
ag34
aS'variable_2'
p83
ag15
aS'variable_6'
p84
ag27
aS'variable_2'
p85
ag31
aS'variable_4'
p86
aS'+='
p87
aS'variable_6'
p88
ag31
aS'variable_2'
p89
aS'-='
p90
aS'variable_6'
p91
ag31
aS'if'
p92
ag7
aS'variable_4'
p93
aS'=='
p94
aS'variable_11'
p95
ag15
aS'if'
p96
ag7
aS'variable_13'
p97
ag50
aS'variable_14'
p98
aS'!='
p99
ag61
aS'&&'
p100
aS'variable_13'
p101
ag50
aS'variable_14'
p102
aS'!='
p103
aS'4'
p104
aS'&&'
p105
aS'variable_13'
p106
ag50
aS'variable_14'
p107
aS'!='
p108
aS'8'
p109
aS'&&'
p110
aS'variable_13'
p111
ag50
aS'variable_14'
p112
aS'!='
p113
aS'16'
p114
aS'&&'
p115
aS'variable_13'
p116
ag50
aS'variable_14'
p117
aS'!='
p118
aS'24'
p119
aS'&&'
p120
aS'variable_13'
p121
ag50
aS'variable_14'
p122
aS'!='
p123
aS'32'
p124
ag15
aS'if'
p125
ag7
aS'variable_13'
p126
ag50
aS'variable_14'
p127
ag23
ag27
ag109
ag15
aS'variable_15'
p128
ag27
ag61
aS'<<'
p129
aS'variable_13'
p130
ag50
aS'variable_14'
p131
ag31
aS'if'
p132
ag7
aS'variable_13'
p133
ag50
aS'variable_16'
p134
aS'&&'
p135
aS'variable_13'
p136
ag50
aS'variable_16'
p137
ag23
aS'variable_15'
p138
ag15
aS'variable_15'
p139
ag27
aS'variable_13'
p140
ag50
aS'variable_16'
p141
ag31
aS'variable_17'
p142
ag27
aS'new'
p143
aS'colorTable'
p144
ag52
aS'256'
p145
ag54
ag31
aS'if'
p146
ag7
ag17
aS'variable_17'
p147
ag15
aS'memset'
p148
ag7
aS'variable_17'
p149
ag12
ag53
ag12
aS'256'
p150
ag10
aS'sizeof'
p151
ag7
aS'variable_18'
p152
ag15
ag15
ag31
aS'if'
p153
ag7
aS'variable_13'
p154
ag50
aS'variable_19'
p155
ag23
ag53
ag15
aS'variable_20'
p156
ag27
aS'new'
p157
aS'PRUint8'
p158
ag52
ag7
aS'variable_13'
p159
ag50
aS'variable_19'
p160
ag10
aS'variable_13'
p161
ag50
aS'variable_14'
p162
ag15
aS'/'
p163
ag109
aS'+'
p164
ag104
ag54
ag31
aS'if'
p165
ag7
ag17
aS'variable_20'
p166
ag15
aS'PRUint8'
p167
aS'variable_21'
p168
ag31
aS'variable_21'
p169
ag27
ag7
aS'variable_7'
p170
ag50
aS'variable_9'
p171
aS'=='
p172
aS'variable_10'
p173
ag15
aS'?'
p174
aS'3'
p175
ag5
ag104
ag31
aS'if'
p176
ag7
aS'variable_17'
p177
aS'&&'
p178
ag7
aS'variable_4'
p179
ag34
ag27
aS'variable_11'
p180
aS'&&'
p181
ag7
aS'variable_4'
p182
ag23
ag7
aS'variable_11'
p183
ag164
aS'variable_15'
p184
ag10
aS'variable_21'
p185
ag15
ag15
ag15
ag15
aS'while'
p186
ag7
aS'variable_2'
p187
aS'&&'
p188
ag7
aS'variable_4'
p189
ag23
ag7
aS'variable_11'
p190
ag164
aS'variable_15'
p191
ag10
aS'variable_21'
p192
ag15
ag15
ag15
aS'variable_4'
p193
aS'++'
p194
ag31
aS'variable_2'
p195
aS'--'
p196
ag31
aS'if'
p197
ag7
aS'variable_2'
p198
aS'&&'
p199
aS'variable_13'
p200
ag50
aS'variable_22'
p201
aS'=='
p202
aS'variable_23'
p203
aS'&&'
p204
aS'variable_4'
p205
ag23
ag7
aS'variable_24'
p206
ag164
aS'variable_25'
p207
ag15
ag15
aS'PRUint32'
p208
aS'variable_6'
p209
ag27
ag7
aS'variable_24'
p210
ag164
aS'variable_25'
p211
ag15
ag29
aS'variable_4'
p212
ag31
aS'if'
p213
ag7
aS'variable_6'
p214
ag34
aS'variable_2'
p215
ag15
aS'variable_6'
p216
ag27
aS'variable_2'
p217
ag31
aS'variable_4'
p218
aS'+='
p219
aS'variable_6'
p220
ag31
aS'variable_2'
p221
aS'-='
p222
aS'variable_6'
p223
ag31
aS'while'
p224
ag7
aS'variable_2'
p225
aS'&&'
p226
ag7
aS'variable_4'
p227
ag23
aS'variable_7'
p228
ag50
aS'variable_26'
p229
ag15
ag15
aS'variable_4'
p230
aS'++'
p231
ag31
aS'variable_2'
p232
aS'--'
p233
ag31
aS'if'
p234
ag7
aS'variable_2'
p235
aS'&&'
p236
aS'++'
p237
aS'variable_4'
p238
ag34
ag27
aS'variable_7'
p239
ag50
aS'variable_26'
p240
ag15
aS'if'
p241
ag7
ag17
aS'variable_13'
p242
ag50
aS'variable_22'
p243
aS'||'
p244
aS'variable_13'
p245
ag50
aS'variable_22'
p246
aS'=='
p247
aS'variable_23'
p248
ag15
aS'if'
p249
ag7
ag7
aS'variable_13'
p250
ag50
aS'variable_22'
p251
aS'=='
p252
aS'variable_27'
p253
ag15
aS'||'
p254
ag7
aS'variable_13'
p255
ag50
aS'variable_22'
p256
aS'=='
p257
aS'variable_28'
p258
ag15
ag15
aS'if'
p259
ag7
ag7
ag7
aS'variable_13'
p260
ag50
aS'variable_22'
p261
aS'=='
p262
aS'variable_27'
p263
ag15
aS'&&'
p264
ag7
aS'variable_13'
p265
ag50
aS'variable_14'
p266
aS'!='
p267
ag109
ag15
ag15
aS'||'
p268
ag7
ag7
aS'variable_13'
p269
ag50
aS'variable_22'
p270
aS'=='
p271
aS'variable_28'
p272
ag15
aS'&&'
p273
ag7
aS'variable_13'
p274
ag50
aS'variable_14'
p275
aS'!='
p276
ag104
ag15
aS'&&'
p277
ag7
aS'variable_13'
p278
ag50
aS'variable_14'
p279
aS'!='
p280
ag61
ag15
ag15
ag15
aS'if'
p281
ag7
ag17
aS'variable_29'
p282
ag15
aS'PRUint32'
p283
aS'variable_30'
p284
ag31
aS'variable_29'
p285
ag27
ag7
aS'PRUint8'
p286
ag10
ag15
aS'calloc'
p287
ag7
aS'variable_30'
p288
ag12
ag109
ag15
ag31
aS'if'
p289
ag7
ag17
aS'variable_29'
p290
ag15
aS'if'
p291
ag7
ag17
aS'variable_31'
p292
ag15
aS'variable_31'
p293
ag27
ag7
aS'PRUint8'
p294
ag10
ag15
aS'calloc'
p295
ag7
aS'variable_32'
p296
ag12
ag61
ag15
ag31
aS'if'
p297
ag7
ag17
aS'variable_31'
p298
ag15
aS'variable_33'
p299
ag27
aS'variable_31'
p300
ag31
aS'SetPixel'
p301
ag7
aS'variable_33'
p302
ag12
aS'variable_34'
p303
ag12
aS'variable_17'
p304
ag15
ag31
aS'func_1'
p305
ag7
aS'variable_33'
p306
ag12
aS'variable_34'
p307
ag12
aS'variable_35'
p308
ag12
aS'variable_17'
p309
ag15
ag31
aS'variable_33'
p310
ag27
aS'variable_31'
p311
ag31
aS'variable_33'
p312
aS'+='
p313
aS'variable_34'
p314
ag10
aS'variable_36'
p315
ag31
aS'SetPixel'
p316
ag7
aS'variable_33'
p317
ag12
aS'variable_34'
p318
ag12
aS'variable_17'
p319
ag15
ag31
aS'func_2'
p320
ag7
aS'variable_33'
p321
ag12
aS'variable_34'
p322
ag12
aS'variable_35'
p323
ag12
aS'variable_17'
p324
ag15
ag31
aa(lp325
S'NS_METHOD'
p326
aS'variable_0'
p327
ag5
ag5
aS'func_0'
p328
ag7
aS'const'
p329
aS'char'
p330
ag10
aS'variable_1'
p331
ag12
aS'PRUint32'
p332
aS'variable_2'
p333
ag15
aS'if'
p334
ag7
ag17
aS'variable_2'
p335
aS'||'
p336
ag17
aS'variable_3'
p337
ag15
aS'if'
p338
ag7
aS'variable_4'
p339
ag23
aS'variable_5'
p340
ag15
aS'PRUint32'
p341
aS'variable_6'
p342
ag27
aS'variable_5'
p343
ag29
aS'variable_4'
p344
ag31
aS'if'
p345
ag7
aS'variable_6'
p346
ag34
aS'variable_2'
p347
ag15
aS'variable_6'
p348
ag27
aS'variable_2'
p349
ag31
aS'variable_4'
p350
aS'+='
p351
aS'variable_6'
p352
ag31
aS'variable_2'
p353
aS'-='
p354
aS'variable_6'
p355
ag31
aS'if'
p356
ag7
aS'variable_4'
p357
aS'=='
p358
aS'variable_5'
p359
ag15
aS'if'
p360
ag7
aS'variable_7'
p361
ag50
aS'variable_8'
p362
ag52
ag53
ag54
aS'!='
p363
ag56
ag57
ag56
aS'||'
p364
aS'variable_7'
p365
ag50
aS'variable_8'
p366
ag52
ag61
ag54
aS'!='
p367
ag56
ag63
ag56
ag15
aS'if'
p368
ag7
aS'variable_7'
p369
ag50
aS'variable_9'
p370
aS'=='
p371
aS'variable_10'
p372
ag15
aS'variable_11'
p373
ag27
aS'variable_12'
p374
ag31
aS'if'
p375
ag7
aS'variable_4'
p376
ag34
ag27
aS'variable_5'
p377
aS'&&'
p378
aS'variable_4'
p379
ag23
aS'variable_11'
p380
ag15
aS'PRUint32'
p381
aS'variable_6'
p382
ag27
aS'variable_11'
p383
ag29
aS'variable_4'
p384
ag31
aS'if'
p385
ag7
aS'variable_6'
p386
ag34
aS'variable_2'
p387
ag15
aS'variable_6'
p388
ag27
aS'variable_2'
p389
ag31
aS'variable_4'
p390
aS'+='
p391
aS'variable_6'
p392
ag31
aS'variable_2'
p393
aS'-='
p394
aS'variable_6'
p395
ag31
aS'if'
p396
ag7
aS'variable_4'
p397
aS'=='
p398
aS'variable_11'
p399
ag15
aS'if'
p400
ag7
aS'variable_13'
p401
ag50
aS'variable_14'
p402
aS'!='
p403
ag61
aS'&&'
p404
aS'variable_13'
p405
ag50
aS'variable_14'
p406
aS'!='
p407
ag104
aS'&&'
p408
aS'variable_13'
p409
ag50
aS'variable_14'
p410
aS'!='
p411
ag109
aS'&&'
p412
aS'variable_13'
p413
ag50
aS'variable_14'
p414
aS'!='
p415
aS'16'
p416
aS'&&'
p417
aS'variable_13'
p418
ag50
aS'variable_14'
p419
aS'!='
p420
aS'24'
p421
aS'&&'
p422
aS'variable_13'
p423
ag50
aS'variable_14'
p424
aS'!='
p425
aS'32'
p426
ag15
aS'if'
p427
ag7
aS'variable_13'
p428
ag50
aS'variable_14'
p429
ag23
ag27
ag109
ag15
aS'variable_15'
p430
ag27
ag61
aS'<<'
p431
aS'variable_13'
p432
ag50
aS'variable_14'
p433
ag31
aS'if'
p434
ag7
aS'variable_13'
p435
ag50
aS'variable_16'
p436
aS'&&'
p437
aS'variable_13'
p438
ag50
aS'variable_16'
p439
ag23
aS'variable_15'
p440
ag15
aS'variable_15'
p441
ag27
aS'variable_13'
p442
ag50
aS'variable_16'
p443
ag31
aS'variable_17'
p444
ag27
aS'new'
p445
aS'colorTable'
p446
ag52
aS'256'
p447
ag54
ag31
aS'if'
p448
ag7
ag17
aS'variable_17'
p449
ag15
aS'memset'
p450
ag7
aS'variable_17'
p451
ag12
ag53
ag12
aS'256'
p452
ag10
aS'sizeof'
p453
ag7
aS'variable_18'
p454
ag15
ag15
ag31
aS'if'
p455
ag7
aS'variable_13'
p456
ag50
aS'variable_19'
p457
ag23
ag53
ag15
aS'variable_20'
p458
ag27
aS'new'
p459
aS'PRUint8'
p460
ag52
ag7
aS'variable_13'
p461
ag50
aS'variable_19'
p462
ag10
aS'variable_13'
p463
ag50
aS'variable_14'
p464
ag15
ag163
ag109
ag164
ag104
ag54
ag31
aS'if'
p465
ag7
ag17
aS'variable_20'
p466
ag15
aS'PRUint8'
p467
aS'variable_21'
p468
ag31
aS'variable_21'
p469
ag27
ag7
aS'variable_7'
p470
ag50
aS'variable_9'
p471
aS'=='
p472
aS'variable_10'
p473
ag15
ag174
ag175
ag5
ag104
ag31
aS'if'
p474
ag7
aS'variable_17'
p475
aS'&&'
p476
ag7
aS'variable_4'
p477
ag34
ag27
aS'variable_11'
p478
aS'&&'
p479
ag7
aS'variable_4'
p480
ag23
ag7
aS'variable_11'
p481
ag164
aS'variable_15'
p482
ag10
aS'variable_21'
p483
ag15
ag15
ag15
ag15
aS'while'
p484
ag7
aS'variable_2'
p485
aS'&&'
p486
ag7
aS'variable_4'
p487
ag23
ag7
aS'variable_11'
p488
ag164
aS'variable_15'
p489
ag10
aS'variable_21'
p490
ag15
ag15
ag15
aS'variable_4'
p491
aS'++'
p492
ag31
aS'variable_2'
p493
aS'--'
p494
ag31
aS'if'
p495
ag7
aS'variable_2'
p496
aS'&&'
p497
aS'variable_13'
p498
ag50
aS'variable_22'
p499
aS'=='
p500
aS'variable_23'
p501
aS'&&'
p502
aS'variable_4'
p503
ag23
ag7
aS'variable_24'
p504
ag164
aS'variable_25'
p505
ag15
ag15
aS'PRUint32'
p506
aS'variable_6'
p507
ag27
ag7
aS'variable_24'
p508
ag164
aS'variable_25'
p509
ag15
ag29
aS'variable_4'
p510
ag31
aS'if'
p511
ag7
aS'variable_6'
p512
ag34
aS'variable_2'
p513
ag15
aS'variable_6'
p514
ag27
aS'variable_2'
p515
ag31
aS'variable_4'
p516
aS'+='
p517
aS'variable_6'
p518
ag31
aS'variable_2'
p519
aS'-='
p520
aS'variable_6'
p521
ag31
aS'while'
p522
ag7
aS'variable_2'
p523
aS'&&'
p524
ag7
aS'variable_4'
p525
ag23
aS'variable_7'
p526
ag50
aS'variable_26'
p527
ag15
ag15
aS'variable_4'
p528
aS'++'
p529
ag31
aS'variable_2'
p530
aS'--'
p531
ag31
aS'if'
p532
ag7
aS'variable_2'
p533
aS'&&'
p534
aS'++'
p535
aS'variable_4'
p536
ag34
ag27
aS'variable_7'
p537
ag50
aS'variable_26'
p538
ag15
aS'if'
p539
ag7
ag17
aS'variable_13'
p540
ag50
aS'variable_22'
p541
aS'||'
p542
aS'variable_13'
p543
ag50
aS'variable_22'
p544
aS'=='
p545
aS'variable_23'
p546
ag15
aS'if'
p547
ag7
ag7
aS'variable_13'
p548
ag50
aS'variable_22'
p549
aS'=='
p550
aS'variable_27'
p551
ag15
aS'||'
p552
ag7
aS'variable_13'
p553
ag50
aS'variable_22'
p554
aS'=='
p555
aS'variable_28'
p556
ag15
ag15
aS'if'
p557
ag7
ag7
ag7
aS'variable_13'
p558
ag50
aS'variable_22'
p559
aS'=='
p560
aS'variable_27'
p561
ag15
aS'&&'
p562
ag7
aS'variable_13'
p563
ag50
aS'variable_14'
p564
aS'!='
p565
ag109
ag15
ag15
aS'||'
p566
ag7
ag7
aS'variable_13'
p567
ag50
aS'variable_22'
p568
aS'=='
p569
aS'variable_28'
p570
ag15
aS'&&'
p571
ag7
aS'variable_13'
p572
ag50
aS'variable_14'
p573
aS'!='
p574
ag104
ag15
aS'&&'
p575
ag7
aS'variable_13'
p576
ag50
aS'variable_14'
p577
aS'!='
p578
ag61
ag15
ag15
ag15
aS'if'
p579
ag7
ag17
aS'variable_29'
p580
ag15
aS'PRUint32'
p581
aS'variable_30'
p582
ag31
aS'variable_29'
p583
ag27
ag7
aS'PRUint8'
p584
ag10
ag15
aS'calloc'
p585
ag7
aS'variable_30'
p586
ag12
ag109
ag15
ag31
aS'if'
p587
ag7
ag17
aS'variable_29'
p588
ag15
aS'variable_31'
p589
ag27
aS'variable_29'
p590
ag31
aS'if'
p591
ag7
aS'variable_32'
p592
aS'!='
p593
aS'variable_33'
p594
ag15
aS'if'
p595
ag7
aS'variable_31'
p596
ag164
aS'variable_32'
p597
ag34
aS'variable_29'
p598
ag164
aS'variable_13'
p599
ag50
aS'variable_19'
p600
ag15
aS'variable_32'
p601
ag27
ag7
aS'variable_34'
p602
ag15
ag7
aS'variable_29'
p603
ag164
aS'variable_13'
p604
ag50
aS'variable_19'
p605
ag29
aS'variable_31'
p606
ag15
ag31
aS'memset'
p607
ag7
aS'variable_31'
p608
ag12
aS'0xFF'
p609
ag12
aS'variable_32'
p610
ag15
ag31
aS'variable_31'
p611
aS'+='
p612
aS'variable_32'
p613
ag31
aS'while'
p614
ag7
aS'variable_32'
p615
ag34
ag53
ag15
aS'variable_32'
p616
aS'--'
p617
ag31
aS'while'
p618
ag7
aS'variable_32'
p619
ag34
ag53
ag15
aS'func_1'
p620
ag7
aS'variable_35'
p621
ag12
aS'variable_36'
p622
ag12
aS'variable_32'
p623
ag12
aS'variable_17'
p624
ag15
ag31
aS'variable_31'
p625
ag27
aS'variable_29'
p626
ag31
aS'if'
p627
ag7
aS'variable_31'
p628
ag164
aS'variable_32'
p629
ag34
aS'variable_29'
p630
ag164
aS'variable_13'
p631
ag50
aS'variable_19'
p632
ag15
aS'if'
p633
ag7
aS'variable_31'
p634
ag164
aS'variable_32'
p635
ag34
aS'variable_29'
p636
ag164
aS'variable_13'
p637
ag50
aS'variable_19'
p638
ag15
aS'memset'
p639
ag7
aS'variable_31'
p640
ag12
aS'0xFF'
p641
ag12
aS'variable_32'
p642
ag15
ag31
aS'variable_31'
p643
aS'+='
p644
aS'variable_32'
p645
ag31
aS'variable_31'
p646
aS'+='
p647
aS'variable_36'
p648
ag31
aS'if'
p649
ag7
aS'variable_31'
p650
ag34
aS'variable_29'
p651
ag164
aS'variable_13'
p652
ag50
aS'variable_19'
p653
ag15
aS'variable_31'
p654
ag27
aS'variable_29'
p655
ag164
aS'variable_13'
p656
ag50
aS'variable_19'
p657
ag31
aS'while'
p658
ag7
aS'variable_2'
p659
ag34
ag53
aS'&&'
p660
aS'variable_32'
p661
ag34
ag53
ag15
aS'variable_32'
p662
aS'--'
p663
ag31
aS'while'
p664
ag7
aS'variable_2'
p665
ag34
ag53
aS'&&'
p666
aS'variable_32'
p667
ag34
ag53
ag15
aS'func_2'
p668
ag7
aS'variable_35'
p669
ag12
aS'variable_36'
p670
ag12
aS'variable_32'
p671
ag12
aS'variable_17'
p672
ag15
ag31
aS'if'
p673
ag7
aS'variable_32'
p674
aS'=='
p675
ag53
ag15
aaa(lp676
I0
aI0
aa(lp677
I519
aI496
aa(lp678
(lp679
S'main'
p680
aa(lp681
g680
aaa(lp682
S'719 /home/SySeVR/data/CVE_2008_0420_PATCHED_nsBMPDecoder__ProcessData.c calloc 252'
p683
aS'720 /home/SySeVR/data/CVE_2008_0420_PATCHED_nsBMPDecoder__ProcessData.c calloc 245'
p684
aa.