(lp0
(lp1
(lp2
S'NS_METHOD'
p3
aS'variable_0'
p4
aS':'
p5
ag5
aS'func_0'
p6
aS'('
p7
aS'const'
p8
aS'char'
p9
aS'*'
p10
aS'variable_1'
p11
aS','
p12
aS'PRUint32'
p13
aS'variable_2'
p14
aS')'
p15
aS'if'
p16
ag7
aS'!'
p17
aS'variable_2'
p18
aS'||'
p19
ag17
aS'variable_3'
p20
ag15
aS'if'
p21
ag7
aS'variable_4'
p22
aS'<'
p23
aS'variable_5'
p24
ag15
aS'PRUint32'
p25
aS'variable_6'
p26
aS'='
p27
aS'variable_5'
p28
aS'-'
p29
aS'variable_4'
p30
aS';'
p31
aS'if'
p32
ag7
aS'variable_6'
p33
aS'>'
p34
aS'variable_2'
p35
ag15
aS'variable_6'
p36
ag27
aS'variable_2'
p37
ag31
aS'variable_4'
p38
aS'+='
p39
aS'variable_6'
p40
ag31
aS'variable_2'
p41
aS'-='
p42
aS'variable_6'
p43
ag31
aS'if'
p44
ag7
aS'variable_4'
p45
aS'=='
p46
aS'variable_5'
p47
ag15
aS'if'
p48
ag7
aS'variable_7'
p49
aS'.'
p50
aS'variable_8'
p51
aS'['
p52
aS'0'
p53
aS']'
p54
aS'!='
p55
aS"'"
p56
aS'B'
p57
ag56
aS'||'
p58
aS'variable_7'
p59
ag50
aS'variable_8'
p60
ag52
aS'1'
p61
ag54
aS'!='
p62
ag56
aS'M'
p63
ag56
ag15
aS'if'
p64
ag7
aS'variable_7'
p65
ag50
aS'variable_9'
p66
aS'=='
p67
aS'variable_10'
p68
ag15
aS'variable_11'
p69
ag27
aS'variable_12'
p70
ag31
aS'if'
p71
ag7
aS'variable_4'
p72
ag34
ag27
aS'variable_5'
p73
aS'&&'
p74
aS'variable_4'
p75
ag23
aS'variable_11'
p76
ag15
aS'PRUint32'
p77
aS'variable_6'
p78
ag27
aS'variable_11'
p79
ag29
aS'variable_4'
p80
ag31
aS'if'
p81
ag7
aS'variable_6'
p82
ag34
aS'variable_2'
p83
ag15
aS'variable_6'
p84
ag27
aS'variable_2'
p85
ag31
aS'variable_4'
p86
aS'+='
p87
aS'variable_6'
p88
ag31
aS'variable_2'
p89
aS'-='
p90
aS'variable_6'
p91
ag31
aS'if'
p92
ag7
aS'variable_4'
p93
aS'=='
p94
aS'variable_11'
p95
ag15
aS'if'
p96
ag7
aS'variable_13'
p97
ag50
aS'variable_14'
p98
aS'!='
p99
ag61
aS'&&'
p100
aS'variable_13'
p101
ag50
aS'variable_14'
p102
aS'!='
p103
aS'4'
p104
aS'&&'
p105
aS'variable_13'
p106
ag50
aS'variable_14'
p107
aS'!='
p108
aS'8'
p109
aS'&&'
p110
aS'variable_13'
p111
ag50
aS'variable_14'
p112
aS'!='
p113
aS'16'
p114
aS'&&'
p115
aS'variable_13'
p116
ag50
aS'variable_14'
p117
aS'!='
p118
aS'24'
p119
aS'&&'
p120
aS'variable_13'
p121
ag50
aS'variable_14'
p122
aS'!='
p123
aS'32'
p124
ag15
aS'if'
p125
ag7
aS'variable_13'
p126
ag50
aS'variable_14'
p127
ag23
ag27
ag109
ag15
aS'variable_15'
p128
ag27
ag61
aS'<<'
p129
aS'variable_13'
p130
ag50
aS'variable_14'
p131
ag31
aS'if'
p132
ag7
aS'variable_13'
p133
ag50
aS'variable_16'
p134
aS'&&'
p135
aS'variable_13'
p136
ag50
aS'variable_16'
p137
ag23
aS'variable_15'
p138
ag15
aS'variable_15'
p139
ag27
aS'variable_13'
p140
ag50
aS'variable_16'
p141
ag31
aS'variable_17'
p142
ag27
aS'new'
p143
aS'colorTable'
p144
ag52
aS'256'
p145
ag54
ag31
aS'if'
p146
ag7
ag17
aS'variable_17'
p147
ag15
aS'memset'
p148
ag7
aS'variable_17'
p149
ag12
ag53
ag12
aS'256'
p150
ag10
aS'sizeof'
p151
ag7
aS'variable_18'
p152
ag15
ag15
ag31
aS'if'
p153
ag7
aS'variable_13'
p154
ag50
aS'variable_19'
p155
ag23
ag53
ag15
aS'variable_20'
p156
ag27
aS'new'
p157
aS'PRUint8'
p158
ag52
ag7
aS'variable_13'
p159
ag50
aS'variable_19'
p160
ag10
aS'variable_13'
p161
ag50
aS'variable_14'
p162
ag15
aS'/'
p163
ag109
aS'+'
p164
ag104
ag54
ag31
aS'if'
p165
ag7
ag17
aS'variable_20'
p166
ag15
aS'PRUint8'
p167
aS'variable_21'
p168
ag31
aS'variable_21'
p169
ag27
ag7
aS'variable_7'
p170
ag50
aS'variable_9'
p171
aS'=='
p172
aS'variable_10'
p173
ag15
aS'?'
p174
aS'3'
p175
ag5
ag104
ag31
aS'if'
p176
ag7
aS'variable_17'
p177
aS'&&'
p178
ag7
aS'variable_4'
p179
ag34
ag27
aS'variable_11'
p180
aS'&&'
p181
ag7
aS'variable_4'
p182
ag23
ag7
aS'variable_11'
p183
ag164
aS'variable_15'
p184
ag10
aS'variable_21'
p185
ag15
ag15
ag15
ag15
aS'while'
p186
ag7
aS'variable_2'
p187
aS'&&'
p188
ag7
aS'variable_4'
p189
ag23
ag7
aS'variable_11'
p190
ag164
aS'variable_15'
p191
ag10
aS'variable_21'
p192
ag15
ag15
ag15
aS'variable_4'
p193
aS'++'
p194
ag31
aS'variable_2'
p195
aS'--'
p196
ag31
aS'if'
p197
ag7
aS'variable_2'
p198
aS'&&'
p199
aS'variable_13'
p200
ag50
aS'variable_22'
p201
aS'=='
p202
aS'variable_23'
p203
aS'&&'
p204
aS'variable_4'
p205
ag23
ag7
aS'variable_24'
p206
ag164
aS'variable_25'
p207
ag15
ag15
aS'PRUint32'
p208
aS'variable_6'
p209
ag27
ag7
aS'variable_24'
p210
ag164
aS'variable_25'
p211
ag15
ag29
aS'variable_4'
p212
ag31
aS'if'
p213
ag7
aS'variable_6'
p214
ag34
aS'variable_2'
p215
ag15
aS'variable_6'
p216
ag27
aS'variable_2'
p217
ag31
aS'variable_4'
p218
aS'+='
p219
aS'variable_6'
p220
ag31
aS'variable_2'
p221
aS'-='
p222
aS'variable_6'
p223
ag31
aS'while'
p224
ag7
aS'variable_2'
p225
aS'&&'
p226
ag7
aS'variable_4'
p227
ag23
aS'variable_7'
p228
ag50
aS'variable_26'
p229
ag15
ag15
aS'variable_4'
p230
aS'++'
p231
ag31
aS'variable_2'
p232
aS'--'
p233
ag31
aS'if'
p234
ag7
aS'variable_2'
p235
aS'&&'
p236
aS'++'
p237
aS'variable_4'
p238
ag34
ag27
aS'variable_7'
p239
ag50
aS'variable_26'
p240
ag15
aS'if'
p241
ag7
ag17
aS'variable_13'
p242
ag50
aS'variable_22'
p243
aS'||'
p244
aS'variable_13'
p245
ag50
aS'variable_22'
p246
aS'=='
p247
aS'variable_23'
p248
ag15
aS'PRUint32'
p249
aS'variable_27'
p250
ag27
ag7
aS'variable_13'
p251
ag50
aS'variable_14'
p252
ag10
aS'variable_13'
p253
ag50
aS'variable_19'
p254
ag164
aS'7'
p255
ag15
ag163
ag109
ag31
aS'if'
p256
ag7
aS'variable_27'
p257
aS'%'
p258
ag104
ag15
aS'variable_27'
p259
aS'+='
p260
ag7
ag104
ag29
ag7
aS'variable_27'
p261
ag258
ag104
ag15
ag15
ag31
aS'variable_6'
p262
ag27
aS'variable_27'
p263
ag29
aS'variable_28'
p264
ag31
aS'if'
p265
ag7
aS'variable_6'
p266
ag15
aS'if'
p267
ag7
aS'variable_6'
p268
ag34
aS'variable_2'
p269
ag15
aS'variable_6'
p270
ag27
aS'variable_2'
p271
ag31
aS'memcpy'
p272
ag7
aS'variable_20'
p273
ag164
aS'variable_28'
p274
ag12
aS'variable_1'
p275
ag12
aS'variable_6'
p276
ag15
ag31
aS'variable_2'
p277
aS'-='
p278
aS'variable_6'
p279
ag31
aS'variable_1'
p280
aS'+='
p281
aS'variable_6'
p282
ag31
aS'variable_28'
p283
aS'+='
p284
aS'variable_6'
p285
ag31
aS'if'
p286
ag7
ag7
aS'variable_27'
p287
ag29
aS'variable_28'
p288
ag15
aS'=='
p289
ag53
ag15
aS'variable_29'
p290
ag10
aS'variable_30'
p291
ag27
aS'variable_20'
p292
ag31
aS'variable_31'
p293
ag27
ag7
ag10
aS'variable_30'
p294
aS'>>'
p295
aS'variable_32'
p296
ag15
aS'&'
p297
ag61
ag31
aS'SetPixel'
p298
ag7
aS'variable_33'
p299
ag12
aS'variable_31'
p300
ag12
aS'variable_17'
p301
ag15
ag31
aS'func_1'
p302
ag7
aS'variable_33'
p303
ag12
ag10
aS'variable_30'
p304
ag12
aS'variable_34'
p305
ag12
aS'variable_17'
p306
ag15
ag31
aS'SetPixel'
p307
ag7
aS'variable_33'
p308
ag12
ag10
aS'variable_30'
p309
ag12
aS'variable_17'
p310
ag15
ag31
aS'PRUint16'
p311
aS'variable_35'
p312
ag27
aS'func_2'
p313
ag7
ag10
ag7
aS'PRUint16'
p314
ag10
ag15
aS'variable_30'
p315
ag15
ag31
aS'SetPixel'
p316
ag7
aS'variable_33'
p317
ag12
ag7
aS'variable_35'
p318
ag297
aS'variable_36'
p319
ag50
aS'variable_37'
p320
ag15
aS'>>'
p321
aS'variable_36'
p322
ag50
aS'variable_38'
p323
aS'<<'
p324
aS'variable_36'
p325
ag50
aS'variable_39'
p326
ag12
ag7
aS'variable_35'
p327
ag297
aS'variable_36'
p328
ag50
aS'variable_40'
p329
ag15
aS'>>'
p330
aS'variable_36'
p331
ag50
aS'variable_41'
p332
aS'<<'
p333
aS'variable_36'
p334
ag50
aS'variable_42'
p335
ag12
ag7
aS'variable_35'
p336
ag297
aS'variable_36'
p337
ag50
aS'variable_43'
p338
ag15
aS'>>'
p339
aS'variable_36'
p340
ag50
aS'variable_44'
p341
aS'<<'
p342
aS'variable_36'
p343
ag50
aS'variable_45'
p344
ag15
ag31
aS'variable_30'
p345
aS'+='
p346
aS'2'
p347
ag31
aS'SetPixel'
p348
ag7
aS'variable_33'
p349
ag12
aS'variable_30'
p350
ag52
ag347
ag54
ag12
aS'variable_30'
p351
ag52
ag61
ag54
ag12
aS'variable_30'
p352
ag52
ag53
ag54
ag15
ag31
aS'variable_30'
p353
aS'+='
p354
ag347
ag31
aS'variable_30'
p355
aS'++'
p356
ag31
aS'while'
p357
ag7
aS'variable_2'
p358
ag34
ag53
ag15
aa(lp359
S'NS_METHOD'
p360
aS'variable_0'
p361
ag5
ag5
aS'func_0'
p362
ag7
aS'const'
p363
aS'char'
p364
ag10
aS'variable_1'
p365
ag12
aS'PRUint32'
p366
aS'variable_2'
p367
ag15
aS'if'
p368
ag7
ag17
aS'variable_2'
p369
aS'||'
p370
ag17
aS'variable_3'
p371
ag15
aS'if'
p372
ag7
aS'variable_4'
p373
ag23
aS'variable_5'
p374
ag15
aS'PRUint32'
p375
aS'variable_6'
p376
ag27
aS'variable_5'
p377
ag29
aS'variable_4'
p378
ag31
aS'if'
p379
ag7
aS'variable_6'
p380
ag34
aS'variable_2'
p381
ag15
aS'variable_6'
p382
ag27
aS'variable_2'
p383
ag31
aS'variable_4'
p384
aS'+='
p385
aS'variable_6'
p386
ag31
aS'variable_2'
p387
aS'-='
p388
aS'variable_6'
p389
ag31
aS'if'
p390
ag7
aS'variable_4'
p391
aS'=='
p392
aS'variable_5'
p393
ag15
aS'if'
p394
ag7
aS'variable_7'
p395
ag50
aS'variable_8'
p396
ag52
ag53
ag54
aS'!='
p397
ag56
ag57
ag56
aS'||'
p398
aS'variable_7'
p399
ag50
aS'variable_8'
p400
ag52
ag61
ag54
aS'!='
p401
ag56
ag63
ag56
ag15
aS'if'
p402
ag7
aS'variable_7'
p403
ag50
aS'variable_9'
p404
aS'=='
p405
aS'variable_10'
p406
ag15
aS'variable_11'
p407
ag27
aS'variable_12'
p408
ag31
aS'if'
p409
ag7
aS'variable_4'
p410
ag34
ag27
aS'variable_5'
p411
aS'&&'
p412
aS'variable_4'
p413
ag23
aS'variable_11'
p414
ag15
aS'PRUint32'
p415
aS'variable_6'
p416
ag27
aS'variable_11'
p417
ag29
aS'variable_4'
p418
ag31
aS'if'
p419
ag7
aS'variable_6'
p420
ag34
aS'variable_2'
p421
ag15
aS'variable_6'
p422
ag27
aS'variable_2'
p423
ag31
aS'variable_4'
p424
aS'+='
p425
aS'variable_6'
p426
ag31
aS'variable_2'
p427
aS'-='
p428
aS'variable_6'
p429
ag31
aS'if'
p430
ag7
aS'variable_4'
p431
aS'=='
p432
aS'variable_11'
p433
ag15
aS'if'
p434
ag7
aS'variable_13'
p435
ag50
aS'variable_14'
p436
aS'!='
p437
ag61
aS'&&'
p438
aS'variable_13'
p439
ag50
aS'variable_14'
p440
aS'!='
p441
ag104
aS'&&'
p442
aS'variable_13'
p443
ag50
aS'variable_14'
p444
aS'!='
p445
ag109
aS'&&'
p446
aS'variable_13'
p447
ag50
aS'variable_14'
p448
aS'!='
p449
aS'16'
p450
aS'&&'
p451
aS'variable_13'
p452
ag50
aS'variable_14'
p453
aS'!='
p454
aS'24'
p455
aS'&&'
p456
aS'variable_13'
p457
ag50
aS'variable_14'
p458
aS'!='
p459
aS'32'
p460
ag15
aS'if'
p461
ag7
aS'variable_13'
p462
ag50
aS'variable_14'
p463
ag23
ag27
ag109
ag15
aS'variable_15'
p464
ag27
ag61
aS'<<'
p465
aS'variable_13'
p466
ag50
aS'variable_14'
p467
ag31
aS'if'
p468
ag7
aS'variable_13'
p469
ag50
aS'variable_16'
p470
aS'&&'
p471
aS'variable_13'
p472
ag50
aS'variable_16'
p473
ag23
aS'variable_15'
p474
ag15
aS'variable_15'
p475
ag27
aS'variable_13'
p476
ag50
aS'variable_16'
p477
ag31
aS'variable_17'
p478
ag27
aS'new'
p479
aS'colorTable'
p480
ag52
aS'256'
p481
ag54
ag31
aS'if'
p482
ag7
ag17
aS'variable_17'
p483
ag15
aS'memset'
p484
ag7
aS'variable_17'
p485
ag12
ag53
ag12
aS'256'
p486
ag10
aS'sizeof'
p487
ag7
aS'variable_18'
p488
ag15
ag15
ag31
aS'if'
p489
ag7
aS'variable_13'
p490
ag50
aS'variable_19'
p491
ag23
ag53
ag15
aS'variable_20'
p492
ag27
aS'new'
p493
aS'PRUint8'
p494
ag52
ag7
aS'variable_13'
p495
ag50
aS'variable_19'
p496
ag10
aS'variable_13'
p497
ag50
aS'variable_14'
p498
ag15
ag163
ag109
ag164
ag104
ag54
ag31
aS'if'
p499
ag7
ag17
aS'variable_20'
p500
ag15
aS'PRUint8'
p501
aS'variable_21'
p502
ag31
aS'variable_21'
p503
ag27
ag7
aS'variable_7'
p504
ag50
aS'variable_9'
p505
aS'=='
p506
aS'variable_10'
p507
ag15
ag174
ag175
ag5
ag104
ag31
aS'if'
p508
ag7
aS'variable_17'
p509
aS'&&'
p510
ag7
aS'variable_4'
p511
ag34
ag27
aS'variable_11'
p512
aS'&&'
p513
ag7
aS'variable_4'
p514
ag23
ag7
aS'variable_11'
p515
ag164
aS'variable_15'
p516
ag10
aS'variable_21'
p517
ag15
ag15
ag15
ag15
aS'if'
p518
ag7
aS'variable_2'
p519
aS'&&'
p520
aS'variable_13'
p521
ag50
aS'variable_22'
p522
aS'=='
p523
aS'variable_23'
p524
aS'&&'
p525
aS'variable_4'
p526
ag23
ag7
aS'variable_24'
p527
ag164
aS'variable_25'
p528
ag15
ag15
aS'PRUint32'
p529
aS'variable_6'
p530
ag27
ag7
aS'variable_24'
p531
ag164
aS'variable_25'
p532
ag15
ag29
aS'variable_4'
p533
ag31
aS'if'
p534
ag7
aS'variable_6'
p535
ag34
aS'variable_2'
p536
ag15
aS'memcpy'
p537
ag7
aS'variable_26'
p538
ag164
ag7
aS'variable_4'
p539
ag29
aS'variable_24'
p540
ag15
ag12
aS'variable_1'
p541
ag12
aS'variable_6'
p542
ag15
ag31
aS'variable_4'
p543
aS'+='
p544
aS'variable_6'
p545
ag31
aS'variable_1'
p546
aS'+='
p547
aS'variable_6'
p548
ag31
aS'variable_2'
p549
aS'-='
p550
aS'variable_6'
p551
ag31
aS'if'
p552
ag7
aS'variable_13'
p553
ag50
aS'variable_22'
p554
aS'=='
p555
aS'variable_23'
p556
aS'&&'
p557
aS'variable_4'
p558
aS'=='
p559
aS'variable_24'
p560
ag164
aS'variable_25'
p561
ag15
aS'variable_27'
p562
ag50
aS'variable_28'
p563
ag27
aS'func_1'
p564
ag7
ag10
ag7
aS'PRUint32'
p565
ag10
ag15
aS'variable_26'
p566
ag15
ag31
aS'variable_27'
p567
ag50
aS'variable_29'
p568
ag27
aS'func_2'
p569
ag7
ag10
ag7
aS'PRUint32'
p570
ag10
ag15
ag7
aS'variable_26'
p571
ag164
ag104
ag15
ag15
ag31
aS'variable_27'
p572
ag50
aS'variable_30'
p573
ag27
aS'func_3'
p574
ag7
ag10
ag7
aS'PRUint32'
p575
ag10
ag15
ag7
aS'variable_26'
p576
ag164
ag109
ag15
ag15
ag31
aS'while'
p577
ag7
aS'variable_2'
p578
aS'&&'
p579
ag7
aS'variable_4'
p580
ag23
aS'variable_7'
p581
ag50
aS'variable_31'
p582
ag15
ag15
aS'variable_4'
p583
aS'++'
p584
ag31
aS'variable_1'
p585
aS'++'
p586
ag31
aS'variable_2'
p587
aS'--'
p588
ag31
aS'if'
p589
ag7
aS'variable_2'
p590
aS'&&'
p591
aS'++'
p592
aS'variable_4'
p593
ag34
ag27
aS'variable_7'
p594
ag50
aS'variable_31'
p595
ag15
aS'variable_6'
p596
ag27
aS'variable_32'
p597
ag29
aS'variable_33'
p598
ag31
aS'if'
p599
ag7
aS'variable_6'
p600
ag15
aS'if'
p601
ag7
aS'variable_6'
p602
ag34
aS'variable_2'
p603
ag15
aS'variable_6'
p604
ag27
aS'variable_2'
p605
ag31
aS'memcpy'
p606
ag7
aS'variable_20'
p607
ag164
aS'variable_33'
p608
ag12
aS'variable_1'
p609
ag12
aS'variable_6'
p610
ag15
ag31
aS'variable_2'
p611
aS'-='
p612
aS'variable_6'
p613
ag31
aS'variable_1'
p614
aS'+='
p615
aS'variable_6'
p616
ag31
aS'variable_33'
p617
aS'+='
p618
aS'variable_6'
p619
ag31
aS'if'
p620
ag7
ag7
aS'variable_32'
p621
ag29
aS'variable_33'
p622
ag15
aS'=='
p623
ag53
ag15
aS'variable_34'
p624
ag10
aS'variable_35'
p625
ag27
aS'variable_20'
p626
ag31
aS'variable_36'
p627
ag27
ag7
ag10
aS'variable_35'
p628
aS'>>'
p629
aS'variable_37'
p630
ag15
ag297
ag61
ag31
aS'SetPixel'
p631
ag7
aS'variable_38'
p632
ag12
aS'variable_36'
p633
ag12
aS'variable_17'
p634
ag15
ag31
aS'func_4'
p635
ag7
aS'variable_38'
p636
ag12
ag10
aS'variable_35'
p637
ag12
aS'variable_39'
p638
ag12
aS'variable_17'
p639
ag15
ag31
aS'SetPixel'
p640
ag7
aS'variable_38'
p641
ag12
ag10
aS'variable_35'
p642
ag12
aS'variable_17'
p643
ag15
ag31
aS'PRUint16'
p644
aS'variable_40'
p645
ag27
aS'func_5'
p646
ag7
ag10
ag7
aS'PRUint16'
p647
ag10
ag15
aS'variable_35'
p648
ag15
ag31
aS'SetPixel'
p649
ag7
aS'variable_38'
p650
ag12
ag7
aS'variable_40'
p651
ag297
aS'variable_27'
p652
ag50
aS'variable_28'
p653
ag15
aS'>>'
p654
aS'variable_27'
p655
ag50
aS'variable_41'
p656
aS'<<'
p657
aS'variable_27'
p658
ag50
aS'variable_42'
p659
ag12
ag7
aS'variable_40'
p660
ag297
aS'variable_27'
p661
ag50
aS'variable_29'
p662
ag15
aS'>>'
p663
aS'variable_27'
p664
ag50
aS'variable_43'
p665
aS'<<'
p666
aS'variable_27'
p667
ag50
aS'variable_44'
p668
ag12
ag7
aS'variable_40'
p669
ag297
aS'variable_27'
p670
ag50
aS'variable_30'
p671
ag15
aS'>>'
p672
aS'variable_27'
p673
ag50
aS'variable_45'
p674
aS'<<'
p675
aS'variable_27'
p676
ag50
aS'variable_46'
p677
ag15
ag31
aS'variable_35'
p678
aS'+='
p679
ag347
ag31
aS'SetPixel'
p680
ag7
aS'variable_38'
p681
ag12
aS'variable_35'
p682
ag52
ag347
ag54
ag12
aS'variable_35'
p683
ag52
ag61
ag54
ag12
aS'variable_35'
p684
ag52
ag53
ag54
ag15
ag31
aS'variable_35'
p685
aS'+='
p686
ag347
ag31
aS'variable_35'
p687
aS'++'
p688
ag31
aS'while'
p689
ag7
aS'variable_2'
p690
ag34
ag53
ag15
aS'while'
p691
ag7
aS'variable_2'
p692
ag34
ag53
ag15
aS'variable_47'
p693
ag27
ag7
aS'variable_34'
p694
ag15
ag10
aS'variable_1'
p695
aS'++'
p696
ag31
aS'variable_2'
p697
aS'--'
p698
ag31
aS'variable_48'
p699
ag27
ag10
aS'variable_1'
p700
aS'++'
p701
ag31
aS'variable_2'
p702
aS'--'
p703
ag31
aS'if'
p704
ag7
aS'variable_47'
p705
aS'!='
p706
aS'variable_49'
p707
ag15
aS'if'
p708
ag7
aS'variable_50'
p709
ag164
aS'variable_47'
p710
ag34
aS'variable_51'
p711
ag164
aS'variable_13'
p712
ag50
aS'variable_19'
p713
ag15
aS'variable_47'
p714
ag27
ag7
aS'variable_52'
p715
ag15
ag7
aS'variable_51'
p716
ag164
aS'variable_13'
p717
ag50
aS'variable_19'
p718
ag29
aS'variable_50'
p719
ag15
ag31
aS'memset'
p720
ag7
aS'variable_50'
p721
ag12
aS'0xFF'
p722
ag12
aS'variable_47'
p723
ag15
ag31
aS'variable_50'
p724
aS'+='
p725
aS'variable_47'
p726
ag31
aS'while'
p727
ag7
aS'variable_47'
p728
ag34
ag53
ag15
aS'SetPixel'
p729
ag7
aS'variable_53'
p730
ag12
aS'variable_48'
p731
ag12
aS'variable_17'
p732
ag15
ag31
aS'variable_47'
p733
aS'--'
p734
ag31
aS'while'
p735
ag7
aS'variable_47'
p736
ag34
ag53
ag15
aS'func_6'
p737
ag7
aS'variable_53'
p738
ag12
aS'variable_48'
p739
ag12
aS'variable_47'
p740
ag12
aS'variable_17'
p741
ag15
ag31
aS'switch'
p742
ag7
aS'variable_48'
p743
ag15
aS'variable_47'
p744
ag27
aS'variable_48'
p745
ag31
aS'if'
p746
ag7
aS'variable_50'
p747
ag164
aS'variable_47'
p748
ag34
aS'variable_51'
p749
ag164
aS'variable_13'
p750
ag50
aS'variable_19'
p751
ag15
aS'variable_47'
p752
aS'-='
p753
aS'variable_13'
p754
ag50
aS'variable_19'
p755
ag297
ag61
ag31
aS'if'
p756
ag7
aS'variable_50'
p757
ag164
aS'variable_47'
p758
ag34
aS'variable_51'
p759
ag164
aS'variable_13'
p760
ag50
aS'variable_19'
p761
ag15
aS'memset'
p762
ag7
aS'variable_50'
p763
ag12
aS'0xFF'
p764
ag12
aS'variable_47'
p765
ag15
ag31
aS'variable_50'
p766
aS'+='
p767
aS'variable_47'
p768
ag31
aS'if'
p769
ag7
ag7
ag7
aS'variable_47'
p770
ag29
ag61
ag15
ag297
aS'variable_13'
p771
ag50
aS'variable_22'
p772
ag15
aS'!='
p773
ag53
ag15
aS'variable_48'
p774
ag27
ag10
aS'variable_1'
p775
aS'++'
p776
ag31
aS'variable_2'
p777
aS'--'
p778
ag31
aS'variable_50'
p779
aS'+='
p780
aS'variable_48'
p781
ag31
aS'if'
p782
ag7
aS'variable_50'
p783
ag34
aS'variable_51'
p784
ag164
aS'variable_13'
p785
ag50
aS'variable_19'
p786
ag15
aS'variable_53'
p787
aS'+='
p788
aS'variable_48'
p789
ag10
aS'variable_54'
p790
ag31
aS'variable_48'
p791
ag27
ag10
aS'variable_1'
p792
aS'++'
p793
ag31
aS'variable_2'
p794
aS'--'
p795
ag31
aS'if'
p796
ag7
aS'variable_48'
p797
aS'=='
p798
ag53
ag15
aS'variable_55'
p799
ag27
aS'func_7'
p800
ag7
aS'func_8'
p801
ag7
aS'variable_48'
p802
ag12
aS'variable_3'
p803
ag15
ag15
ag31
aS'func_9'
p804
ag7
aS'variable_55'
p805
ag12
aS'variable_55'
p806
ag15
ag31
aS'while'
p807
ag7
aS'variable_2'
p808
ag34
ag53
aS'&&'
p809
aS'variable_47'
p810
ag34
ag53
ag15
aS'variable_48'
p811
ag27
ag10
aS'variable_1'
p812
aS'++'
p813
ag31
aS'variable_2'
p814
aS'--'
p815
ag31
aS'SetPixel'
p816
ag7
aS'variable_53'
p817
ag12
aS'variable_48'
p818
ag12
aS'variable_17'
p819
ag15
ag31
aS'variable_47'
p820
aS'--'
p821
ag31
aS'while'
p822
ag7
aS'variable_2'
p823
ag34
ag53
aS'&&'
p824
aS'variable_47'
p825
ag34
ag53
ag15
aS'variable_48'
p826
ag27
ag10
aS'variable_1'
p827
aS'++'
p828
ag31
aS'variable_2'
p829
aS'--'
p830
ag31
aS'func_10'
p831
ag7
aS'variable_53'
p832
ag12
aS'variable_48'
p833
ag12
aS'variable_47'
p834
ag12
aS'variable_17'
p835
ag15
ag31
aS'if'
p836
ag7
aS'variable_47'
p837
aS'=='
p838
ag53
ag15
aS'if'
p839
ag7
aS'variable_2'
p840
ag34
ag53
ag15
aS'variable_1'
p841
aS'++'
p842
ag31
aS'variable_2'
p843
aS'--'
p844
ag31
aa(lp845
S'NS_METHOD'
p846
aS'variable_0'
p847
ag5
ag5
aS'func_0'
p848
ag7
aS'const'
p849
aS'char'
p850
ag10
aS'variable_1'
p851
ag12
aS'PRUint32'
p852
aS'variable_2'
p853
ag15
aS'if'
p854
ag7
ag17
aS'variable_2'
p855
aS'||'
p856
ag17
aS'variable_3'
p857
ag15
aS'if'
p858
ag7
aS'variable_4'
p859
ag23
aS'variable_5'
p860
ag15
aS'PRUint32'
p861
aS'variable_6'
p862
ag27
aS'variable_5'
p863
ag29
aS'variable_4'
p864
ag31
aS'if'
p865
ag7
aS'variable_6'
p866
ag34
aS'variable_2'
p867
ag15
aS'variable_6'
p868
ag27
aS'variable_2'
p869
ag31
aS'variable_4'
p870
aS'+='
p871
aS'variable_6'
p872
ag31
aS'variable_2'
p873
aS'-='
p874
aS'variable_6'
p875
ag31
aS'if'
p876
ag7
aS'variable_4'
p877
aS'=='
p878
aS'variable_5'
p879
ag15
aS'if'
p880
ag7
aS'variable_7'
p881
ag50
aS'variable_8'
p882
ag52
ag53
ag54
aS'!='
p883
ag56
ag57
ag56
aS'||'
p884
aS'variable_7'
p885
ag50
aS'variable_8'
p886
ag52
ag61
ag54
aS'!='
p887
ag56
ag63
ag56
ag15
aS'if'
p888
ag7
aS'variable_7'
p889
ag50
aS'variable_9'
p890
aS'=='
p891
aS'variable_10'
p892
ag15
aS'variable_11'
p893
ag27
aS'variable_12'
p894
ag31
aS'if'
p895
ag7
aS'variable_4'
p896
ag34
ag27
aS'variable_5'
p897
aS'&&'
p898
aS'variable_4'
p899
ag23
aS'variable_11'
p900
ag15
aS'PRUint32'
p901
aS'variable_6'
p902
ag27
aS'variable_11'
p903
ag29
aS'variable_4'
p904
ag31
aS'if'
p905
ag7
aS'variable_6'
p906
ag34
aS'variable_2'
p907
ag15
aS'variable_6'
p908
ag27
aS'variable_2'
p909
ag31
aS'variable_4'
p910
aS'+='
p911
aS'variable_6'
p912
ag31
aS'if'
p913
ag7
aS'variable_4'
p914
aS'=='
p915
aS'variable_11'
p916
ag15
aS'if'
p917
ag7
aS'variable_13'
p918
ag50
aS'variable_14'
p919
aS'!='
p920
ag61
aS'&&'
p921
aS'variable_13'
p922
ag50
aS'variable_14'
p923
aS'!='
p924
ag104
aS'&&'
p925
aS'variable_13'
p926
ag50
aS'variable_14'
p927
aS'!='
p928
ag109
aS'&&'
p929
aS'variable_13'
p930
ag50
aS'variable_14'
p931
aS'!='
p932
aS'16'
p933
aS'&&'
p934
aS'variable_13'
p935
ag50
aS'variable_14'
p936
aS'!='
p937
aS'24'
p938
aS'&&'
p939
aS'variable_13'
p940
ag50
aS'variable_14'
p941
aS'!='
p942
aS'32'
p943
ag15
aS'if'
p944
ag7
aS'variable_13'
p945
ag50
aS'variable_14'
p946
ag23
ag27
ag109
ag15
aS'variable_15'
p947
ag27
ag61
aS'<<'
p948
aS'variable_13'
p949
ag50
aS'variable_14'
p950
ag31
aS'if'
p951
ag7
aS'variable_13'
p952
ag50
aS'variable_16'
p953
aS'&&'
p954
aS'variable_13'
p955
ag50
aS'variable_16'
p956
ag23
aS'variable_15'
p957
ag15
aS'variable_15'
p958
ag27
aS'variable_13'
p959
ag50
aS'variable_16'
p960
ag31
aS'variable_17'
p961
ag27
aS'new'
p962
aS'colorTable'
p963
ag52
aS'256'
p964
ag54
ag31
aS'if'
p965
ag7
ag17
aS'variable_17'
p966
ag15
aS'memset'
p967
ag7
aS'variable_17'
p968
ag12
ag53
ag12
aS'256'
p969
ag10
aS'sizeof'
p970
ag7
aS'variable_18'
p971
ag15
ag15
ag31
aS'if'
p972
ag7
aS'variable_13'
p973
ag50
aS'variable_19'
p974
ag23
ag53
ag15
aS'variable_20'
p975
ag27
aS'new'
p976
aS'PRUint8'
p977
ag52
ag7
aS'variable_13'
p978
ag50
aS'variable_19'
p979
ag10
aS'variable_13'
p980
ag50
aS'variable_14'
p981
ag15
ag163
ag109
ag164
ag104
ag54
ag31
aS'if'
p982
ag7
ag17
aS'variable_20'
p983
ag15
aS'PRUint8'
p984
aS'variable_21'
p985
ag31
aS'variable_21'
p986
ag27
ag7
aS'variable_7'
p987
ag50
aS'variable_9'
p988
aS'=='
p989
aS'variable_10'
p990
ag15
ag174
ag175
ag5
ag104
ag31
aS'if'
p991
ag7
aS'variable_17'
p992
aS'&&'
p993
ag7
aS'variable_4'
p994
ag34
ag27
aS'variable_11'
p995
aS'&&'
p996
ag7
aS'variable_4'
p997
ag23
ag7
aS'variable_11'
p998
ag164
aS'variable_15'
p999
ag10
aS'variable_21'
p1000
ag15
ag15
ag15
ag15
aS'PRUint32'
p1001
aS'variable_22'
p1002
ag27
aS'variable_4'
p1003
ag29
aS'variable_11'
p1004
ag31
aS'PRUint8'
p1005
aS'variable_23'
p1006
ag27
aS'variable_22'
p1007
ag163
aS'variable_21'
p1008
ag31
aS'variable_17'
p1009
ag52
aS'variable_23'
p1010
ag54
ag50
aS'variable_24'
p1011
ag27
ag10
aS'variable_1'
p1012
ag31
aS'variable_17'
p1013
ag52
aS'variable_23'
p1014
ag54
ag50
aS'variable_25'
p1015
ag27
ag10
aS'variable_1'
p1016
ag31
aS'variable_17'
p1017
ag52
aS'variable_23'
p1018
ag54
ag50
aS'variable_26'
p1019
ag27
ag10
aS'variable_1'
p1020
ag31
aS'variable_23'
p1021
aS'++'
p1022
ag31
aS'SetPixel'
p1023
ag7
aS'variable_27'
p1024
ag12
aS'variable_28'
p1025
ag12
aS'variable_17'
p1026
ag15
ag31
aS'func_1'
p1027
ag7
aS'variable_27'
p1028
ag12
ag10
aS'variable_29'
p1029
ag12
aS'variable_30'
p1030
ag12
aS'variable_17'
p1031
ag15
ag31
aS'SetPixel'
p1032
ag7
aS'variable_27'
p1033
ag12
ag10
aS'variable_29'
p1034
ag12
aS'variable_17'
p1035
ag15
ag31
aS'SetPixel'
p1036
ag7
aS'variable_31'
p1037
ag12
aS'variable_32'
p1038
ag12
aS'variable_17'
p1039
ag15
ag31
aS'func_2'
p1040
ag7
aS'variable_31'
p1041
ag12
aS'variable_32'
p1042
ag12
aS'variable_33'
p1043
ag12
aS'variable_17'
p1044
ag15
ag31
aS'SetPixel'
p1045
ag7
aS'variable_31'
p1046
ag12
aS'variable_32'
p1047
ag12
aS'variable_17'
p1048
ag15
ag31
aS'func_3'
p1049
ag7
aS'variable_31'
p1050
ag12
aS'variable_32'
p1051
ag12
aS'variable_33'
p1052
ag12
aS'variable_17'
p1053
ag15
ag31
aa(lp1054
S'NS_METHOD'
p1055
aS'variable_0'
p1056
ag5
ag5
aS'func_0'
p1057
ag7
aS'const'
p1058
aS'char'
p1059
ag10
aS'variable_1'
p1060
ag12
aS'PRUint32'
p1061
aS'variable_2'
p1062
ag15
aS'if'
p1063
ag7
ag17
aS'variable_2'
p1064
aS'||'
p1065
ag17
aS'variable_3'
p1066
ag15
aS'if'
p1067
ag7
aS'variable_4'
p1068
ag23
aS'variable_5'
p1069
ag15
aS'PRUint32'
p1070
aS'variable_6'
p1071
ag27
aS'variable_5'
p1072
ag29
aS'variable_4'
p1073
ag31
aS'if'
p1074
ag7
aS'variable_6'
p1075
ag34
aS'variable_2'
p1076
ag15
aS'variable_6'
p1077
ag27
aS'variable_2'
p1078
ag31
aS'variable_4'
p1079
aS'+='
p1080
aS'variable_6'
p1081
ag31
aS'variable_2'
p1082
aS'-='
p1083
aS'variable_6'
p1084
ag31
aS'if'
p1085
ag7
aS'variable_4'
p1086
aS'=='
p1087
aS'variable_5'
p1088
ag15
aS'if'
p1089
ag7
aS'variable_7'
p1090
ag50
aS'variable_8'
p1091
ag52
ag53
ag54
aS'!='
p1092
ag56
ag57
ag56
aS'||'
p1093
aS'variable_7'
p1094
ag50
aS'variable_8'
p1095
ag52
ag61
ag54
aS'!='
p1096
ag56
ag63
ag56
ag15
aS'if'
p1097
ag7
aS'variable_7'
p1098
ag50
aS'variable_9'
p1099
aS'=='
p1100
aS'variable_10'
p1101
ag15
aS'variable_11'
p1102
ag27
aS'variable_12'
p1103
ag31
aS'if'
p1104
ag7
aS'variable_4'
p1105
ag34
ag27
aS'variable_5'
p1106
aS'&&'
p1107
aS'variable_4'
p1108
ag23
aS'variable_11'
p1109
ag15
aS'PRUint32'
p1110
aS'variable_6'
p1111
ag27
aS'variable_11'
p1112
ag29
aS'variable_4'
p1113
ag31
aS'if'
p1114
ag7
aS'variable_6'
p1115
ag34
aS'variable_2'
p1116
ag15
aS'variable_6'
p1117
ag27
aS'variable_2'
p1118
ag31
aS'variable_4'
p1119
aS'+='
p1120
aS'variable_6'
p1121
ag31
aS'if'
p1122
ag7
aS'variable_4'
p1123
aS'=='
p1124
aS'variable_11'
p1125
ag15
aS'if'
p1126
ag7
aS'variable_13'
p1127
ag50
aS'variable_14'
p1128
aS'!='
p1129
ag61
aS'&&'
p1130
aS'variable_13'
p1131
ag50
aS'variable_14'
p1132
aS'!='
p1133
ag104
aS'&&'
p1134
aS'variable_13'
p1135
ag50
aS'variable_14'
p1136
aS'!='
p1137
ag109
aS'&&'
p1138
aS'variable_13'
p1139
ag50
aS'variable_14'
p1140
aS'!='
p1141
aS'16'
p1142
aS'&&'
p1143
aS'variable_13'
p1144
ag50
aS'variable_14'
p1145
aS'!='
p1146
aS'24'
p1147
aS'&&'
p1148
aS'variable_13'
p1149
ag50
aS'variable_14'
p1150
aS'!='
p1151
aS'32'
p1152
ag15
aS'if'
p1153
ag7
aS'variable_13'
p1154
ag50
aS'variable_14'
p1155
ag23
ag27
ag109
ag15
aS'variable_15'
p1156
ag27
ag61
aS'<<'
p1157
aS'variable_13'
p1158
ag50
aS'variable_14'
p1159
ag31
aS'if'
p1160
ag7
aS'variable_13'
p1161
ag50
aS'variable_16'
p1162
aS'&&'
p1163
aS'variable_13'
p1164
ag50
aS'variable_16'
p1165
ag23
aS'variable_15'
p1166
ag15
aS'variable_15'
p1167
ag27
aS'variable_13'
p1168
ag50
aS'variable_16'
p1169
ag31
aS'variable_17'
p1170
ag27
aS'new'
p1171
aS'colorTable'
p1172
ag52
aS'256'
p1173
ag54
ag31
aS'if'
p1174
ag7
ag17
aS'variable_17'
p1175
ag15
aS'memset'
p1176
ag7
aS'variable_17'
p1177
ag12
ag53
ag12
aS'256'
p1178
ag10
aS'sizeof'
p1179
ag7
aS'variable_18'
p1180
ag15
ag15
ag31
aS'if'
p1181
ag7
aS'variable_13'
p1182
ag50
aS'variable_19'
p1183
ag23
ag53
ag15
aS'variable_20'
p1184
ag27
aS'new'
p1185
aS'PRUint8'
p1186
ag52
ag7
aS'variable_13'
p1187
ag50
aS'variable_19'
p1188
ag10
aS'variable_13'
p1189
ag50
aS'variable_14'
p1190
ag15
ag163
ag109
ag164
ag104
ag54
ag31
aS'if'
p1191
ag7
ag17
aS'variable_20'
p1192
ag15
aS'PRUint8'
p1193
aS'variable_21'
p1194
ag31
aS'variable_21'
p1195
ag27
ag7
aS'variable_7'
p1196
ag50
aS'variable_9'
p1197
aS'=='
p1198
aS'variable_10'
p1199
ag15
ag174
ag175
ag5
ag104
ag31
aS'if'
p1200
ag7
aS'variable_17'
p1201
aS'&&'
p1202
ag7
aS'variable_4'
p1203
ag34
ag27
aS'variable_11'
p1204
aS'&&'
p1205
ag7
aS'variable_4'
p1206
ag23
ag7
aS'variable_11'
p1207
ag164
aS'variable_15'
p1208
ag10
aS'variable_21'
p1209
ag15
ag15
ag15
ag15
aS'PRUint32'
p1210
aS'variable_22'
p1211
ag27
aS'variable_4'
p1212
ag29
aS'variable_11'
p1213
ag31
aS'PRUint8'
p1214
aS'variable_23'
p1215
ag27
aS'variable_22'
p1216
ag163
aS'variable_21'
p1217
ag31
aS'PRUint8'
p1218
aS'variable_24'
p1219
ag27
aS'variable_22'
p1220
ag258
aS'variable_21'
p1221
ag31
aS'switch'
p1222
ag7
aS'variable_24'
p1223
ag15
aS'variable_17'
p1224
ag52
aS'variable_23'
p1225
ag54
ag50
aS'variable_25'
p1226
ag27
ag10
aS'variable_1'
p1227
ag31
aS'variable_17'
p1228
ag52
aS'variable_23'
p1229
ag54
ag50
aS'variable_26'
p1230
ag27
ag10
aS'variable_1'
p1231
ag31
aS'variable_17'
p1232
ag52
aS'variable_23'
p1233
ag54
ag50
aS'variable_27'
p1234
ag27
ag10
aS'variable_1'
p1235
ag31
aS'variable_23'
p1236
aS'++'
p1237
ag31
aS'variable_24'
p1238
ag27
ag7
aS'variable_24'
p1239
ag164
ag61
ag15
ag258
aS'variable_21'
p1240
ag31
aS'SetPixel'
p1241
ag7
aS'variable_28'
p1242
ag12
aS'variable_29'
p1243
ag12
aS'variable_17'
p1244
ag15
ag31
aS'func_1'
p1245
ag7
aS'variable_28'
p1246
ag12
ag10
aS'variable_30'
p1247
ag12
aS'variable_31'
p1248
ag12
aS'variable_17'
p1249
ag15
ag31
aS'SetPixel'
p1250
ag7
aS'variable_28'
p1251
ag12
ag10
aS'variable_30'
p1252
ag12
aS'variable_17'
p1253
ag15
ag31
aS'SetPixel'
p1254
ag7
aS'variable_32'
p1255
ag12
aS'variable_33'
p1256
ag12
aS'variable_17'
p1257
ag15
ag31
aS'func_2'
p1258
ag7
aS'variable_32'
p1259
ag12
aS'variable_33'
p1260
ag12
aS'variable_34'
p1261
ag12
aS'variable_17'
p1262
ag15
ag31
aS'SetPixel'
p1263
ag7
aS'variable_32'
p1264
ag12
aS'variable_33'
p1265
ag12
aS'variable_17'
p1266
ag15
ag31
aS'func_3'
p1267
ag7
aS'variable_32'
p1268
ag12
aS'variable_33'
p1269
ag12
aS'variable_34'
p1270
ag12
aS'variable_17'
p1271
ag15
ag31
aa(lp1272
S'NS_METHOD'
p1273
aS'variable_0'
p1274
ag5
ag5
aS'func_0'
p1275
ag7
aS'const'
p1276
aS'char'
p1277
ag10
aS'variable_1'
p1278
ag12
aS'PRUint32'
p1279
aS'variable_2'
p1280
ag15
aS'if'
p1281
ag7
ag17
aS'variable_2'
p1282
aS'||'
p1283
ag17
aS'variable_3'
p1284
ag15
aS'if'
p1285
ag7
aS'variable_4'
p1286
ag23
aS'variable_5'
p1287
ag15
aS'PRUint32'
p1288
aS'variable_6'
p1289
ag27
aS'variable_5'
p1290
ag29
aS'variable_4'
p1291
ag31
aS'if'
p1292
ag7
aS'variable_6'
p1293
ag34
aS'variable_2'
p1294
ag15
aS'variable_6'
p1295
ag27
aS'variable_2'
p1296
ag31
aS'variable_4'
p1297
aS'+='
p1298
aS'variable_6'
p1299
ag31
aS'if'
p1300
ag7
aS'variable_4'
p1301
aS'=='
p1302
aS'variable_5'
p1303
ag15
aS'if'
p1304
ag7
aS'variable_7'
p1305
ag50
aS'variable_8'
p1306
ag52
ag53
ag54
aS'!='
p1307
ag56
ag57
ag56
aS'||'
p1308
aS'variable_7'
p1309
ag50
aS'variable_8'
p1310
ag52
ag61
ag54
aS'!='
p1311
ag56
ag63
ag56
ag15
aS'if'
p1312
ag7
aS'variable_7'
p1313
ag50
aS'variable_9'
p1314
aS'=='
p1315
aS'variable_10'
p1316
ag15
aS'variable_11'
p1317
ag27
aS'variable_12'
p1318
ag31
aS'if'
p1319
ag7
aS'variable_4'
p1320
ag34
ag27
aS'variable_5'
p1321
aS'&&'
p1322
aS'variable_4'
p1323
ag23
aS'variable_11'
p1324
ag15
aS'PRUint32'
p1325
aS'variable_6'
p1326
ag27
aS'variable_11'
p1327
ag29
aS'variable_4'
p1328
ag31
aS'if'
p1329
ag7
aS'variable_6'
p1330
ag34
aS'variable_2'
p1331
ag15
aS'memcpy'
p1332
ag7
aS'variable_13'
p1333
ag164
ag7
aS'variable_4'
p1334
ag29
aS'variable_5'
p1335
ag15
ag12
aS'variable_1'
p1336
ag12
aS'variable_6'
p1337
ag15
ag31
aS'variable_4'
p1338
aS'+='
p1339
aS'variable_6'
p1340
ag31
aS'variable_2'
p1341
aS'-='
p1342
aS'variable_6'
p1343
ag31
aS'variable_1'
p1344
aS'+='
p1345
aS'variable_6'
p1346
ag31
aS'if'
p1347
ag7
aS'variable_4'
p1348
aS'=='
p1349
aS'variable_11'
p1350
ag15
aS'if'
p1351
ag7
aS'variable_14'
p1352
aS'&&'
p1353
ag7
aS'variable_4'
p1354
ag34
ag27
aS'variable_11'
p1355
aS'&&'
p1356
ag7
aS'variable_4'
p1357
ag23
ag7
aS'variable_11'
p1358
ag164
aS'variable_15'
p1359
ag10
aS'variable_16'
p1360
ag15
ag15
ag15
ag15
aS'PRUint32'
p1361
aS'variable_17'
p1362
ag27
aS'variable_4'
p1363
ag29
aS'variable_11'
p1364
ag31
aS'PRUint8'
p1365
aS'variable_18'
p1366
ag27
aS'variable_17'
p1367
ag163
aS'variable_16'
p1368
ag31
aS'PRUint8'
p1369
aS'variable_19'
p1370
ag27
aS'variable_17'
p1371
ag258
aS'variable_16'
p1372
ag31
aS'while'
p1373
ag7
aS'variable_2'
p1374
aS'&&'
p1375
ag7
aS'variable_4'
p1376
ag23
ag7
aS'variable_11'
p1377
ag164
aS'variable_15'
p1378
ag10
aS'variable_16'
p1379
ag15
ag15
ag15
aS'switch'
p1380
ag7
aS'variable_19'
p1381
ag15
aS'variable_14'
p1382
ag52
aS'variable_18'
p1383
ag54
ag50
aS'variable_20'
p1384
ag27
ag10
aS'variable_1'
p1385
ag31
aS'variable_14'
p1386
ag52
aS'variable_18'
p1387
ag54
ag50
aS'variable_21'
p1388
ag27
ag10
aS'variable_1'
p1389
ag31
aS'variable_14'
p1390
ag52
aS'variable_18'
p1391
ag54
ag50
aS'variable_22'
p1392
ag27
ag10
aS'variable_1'
p1393
ag31
aS'variable_18'
p1394
aS'++'
p1395
ag31
aS'variable_4'
p1396
aS'++'
p1397
ag31
aS'variable_1'
p1398
aS'++'
p1399
ag31
aS'variable_2'
p1400
aS'--'
p1401
ag31
aS'variable_19'
p1402
ag27
ag7
aS'variable_19'
p1403
ag164
ag61
ag15
ag258
aS'variable_16'
p1404
ag31
aS'if'
p1405
ag7
aS'variable_2'
p1406
aS'&&'
p1407
aS'variable_23'
p1408
ag50
aS'variable_24'
p1409
aS'=='
p1410
aS'variable_25'
p1411
aS'&&'
p1412
aS'variable_4'
p1413
ag23
ag7
aS'variable_26'
p1414
ag164
aS'variable_27'
p1415
ag15
ag15
aS'PRUint32'
p1416
aS'variable_6'
p1417
ag27
ag7
aS'variable_26'
p1418
ag164
aS'variable_27'
p1419
ag15
ag29
aS'variable_4'
p1420
ag31
aS'if'
p1421
ag7
aS'variable_6'
p1422
ag34
aS'variable_2'
p1423
ag15
aS'variable_6'
p1424
ag27
aS'variable_2'
p1425
ag31
aS'memcpy'
p1426
ag7
aS'variable_13'
p1427
ag164
ag7
aS'variable_4'
p1428
ag29
aS'variable_26'
p1429
ag15
ag12
aS'variable_1'
p1430
ag12
aS'variable_6'
p1431
ag15
ag31
aS'variable_4'
p1432
aS'+='
p1433
aS'variable_6'
p1434
ag31
aS'variable_1'
p1435
aS'+='
p1436
aS'variable_6'
p1437
ag31
aS'variable_2'
p1438
aS'-='
p1439
aS'variable_6'
p1440
ag31
aS'if'
p1441
ag7
aS'variable_23'
p1442
ag50
aS'variable_24'
p1443
aS'=='
p1444
aS'variable_25'
p1445
aS'&&'
p1446
aS'variable_4'
p1447
aS'=='
p1448
aS'variable_26'
p1449
ag164
aS'variable_27'
p1450
ag15
aS'variable_28'
p1451
ag50
aS'variable_22'
p1452
ag27
aS'func_1'
p1453
ag7
ag10
ag7
aS'PRUint32'
p1454
ag10
ag15
aS'variable_13'
p1455
ag15
ag31
aS'variable_28'
p1456
ag50
aS'variable_21'
p1457
ag27
aS'func_2'
p1458
ag7
ag10
ag7
aS'PRUint32'
p1459
ag10
ag15
ag7
aS'variable_13'
p1460
ag164
ag104
ag15
ag15
ag31
aS'variable_28'
p1461
ag50
aS'variable_20'
p1462
ag27
aS'func_3'
p1463
ag7
ag10
ag7
aS'PRUint32'
p1464
ag10
ag15
ag7
aS'variable_13'
p1465
ag164
ag109
ag15
ag15
ag31
aS'while'
p1466
ag7
aS'variable_2'
p1467
aS'&&'
p1468
ag7
aS'variable_4'
p1469
ag23
aS'variable_7'
p1470
ag50
aS'variable_29'
p1471
ag15
ag15
aS'variable_4'
p1472
aS'++'
p1473
ag31
aS'variable_1'
p1474
aS'++'
p1475
ag31
aS'variable_2'
p1476
aS'--'
p1477
ag31
aS'if'
p1478
ag7
aS'variable_2'
p1479
aS'&&'
p1480
aS'++'
p1481
aS'variable_4'
p1482
ag34
ag27
aS'variable_7'
p1483
ag50
aS'variable_29'
p1484
ag15
aS'variable_6'
p1485
ag27
aS'variable_30'
p1486
ag29
aS'variable_31'
p1487
ag31
aS'if'
p1488
ag7
aS'variable_6'
p1489
ag15
aS'if'
p1490
ag7
aS'variable_6'
p1491
ag34
aS'variable_2'
p1492
ag15
aS'variable_6'
p1493
ag27
aS'variable_2'
p1494
ag31
aS'memcpy'
p1495
ag7
aS'variable_32'
p1496
ag164
aS'variable_31'
p1497
ag12
aS'variable_1'
p1498
ag12
aS'variable_6'
p1499
ag15
ag31
aS'variable_2'
p1500
aS'-='
p1501
aS'variable_6'
p1502
ag31
aS'variable_1'
p1503
aS'+='
p1504
aS'variable_6'
p1505
ag31
aS'variable_31'
p1506
aS'+='
p1507
aS'variable_6'
p1508
ag31
aS'if'
p1509
ag7
ag7
aS'variable_30'
p1510
ag29
aS'variable_31'
p1511
ag15
aS'=='
p1512
ag53
ag15
aS'variable_33'
p1513
ag10
aS'variable_34'
p1514
ag27
aS'variable_32'
p1515
ag31
aS'variable_35'
p1516
ag27
ag7
ag10
aS'variable_34'
p1517
aS'>>'
p1518
aS'variable_36'
p1519
ag15
ag297
ag61
ag31
aS'SetPixel'
p1520
ag7
aS'variable_37'
p1521
ag12
aS'variable_35'
p1522
ag12
aS'variable_14'
p1523
ag15
ag31
aS'func_4'
p1524
ag7
aS'variable_37'
p1525
ag12
ag10
aS'variable_34'
p1526
ag12
aS'variable_38'
p1527
ag12
aS'variable_14'
p1528
ag15
ag31
aS'SetPixel'
p1529
ag7
aS'variable_37'
p1530
ag12
ag10
aS'variable_34'
p1531
ag12
aS'variable_14'
p1532
ag15
ag31
aS'PRUint16'
p1533
aS'variable_39'
p1534
ag27
aS'func_5'
p1535
ag7
ag10
ag7
aS'PRUint16'
p1536
ag10
ag15
aS'variable_34'
p1537
ag15
ag31
aS'SetPixel'
p1538
ag7
aS'variable_37'
p1539
ag12
ag7
aS'variable_39'
p1540
ag297
aS'variable_28'
p1541
ag50
aS'variable_22'
p1542
ag15
aS'>>'
p1543
aS'variable_28'
p1544
ag50
aS'variable_40'
p1545
aS'<<'
p1546
aS'variable_28'
p1547
ag50
aS'variable_41'
p1548
ag12
ag7
aS'variable_39'
p1549
ag297
aS'variable_28'
p1550
ag50
aS'variable_21'
p1551
ag15
aS'>>'
p1552
aS'variable_28'
p1553
ag50
aS'variable_42'
p1554
aS'<<'
p1555
aS'variable_28'
p1556
ag50
aS'variable_43'
p1557
ag12
ag7
aS'variable_39'
p1558
ag297
aS'variable_28'
p1559
ag50
aS'variable_20'
p1560
ag15
aS'>>'
p1561
aS'variable_28'
p1562
ag50
aS'variable_44'
p1563
aS'<<'
p1564
aS'variable_28'
p1565
ag50
aS'variable_45'
p1566
ag15
ag31
aS'variable_34'
p1567
aS'+='
p1568
ag347
ag31
aS'SetPixel'
p1569
ag7
aS'variable_37'
p1570
ag12
aS'variable_34'
p1571
ag52
ag347
ag54
ag12
aS'variable_34'
p1572
ag52
ag61
ag54
ag12
aS'variable_34'
p1573
ag52
ag53
ag54
ag15
ag31
aS'variable_34'
p1574
aS'+='
p1575
ag347
ag31
aS'variable_34'
p1576
aS'++'
p1577
ag31
aS'while'
p1578
ag7
aS'variable_2'
p1579
ag34
ag53
ag15
aS'while'
p1580
ag7
aS'variable_2'
p1581
ag34
ag53
ag15
aS'variable_46'
p1582
ag27
ag7
aS'variable_33'
p1583
ag15
ag10
aS'variable_1'
p1584
aS'++'
p1585
ag31
aS'variable_2'
p1586
aS'--'
p1587
ag31
aS'variable_47'
p1588
ag27
ag10
aS'variable_1'
p1589
aS'++'
p1590
ag31
aS'variable_2'
p1591
aS'--'
p1592
ag31
aS'if'
p1593
ag7
aS'variable_46'
p1594
aS'!='
p1595
aS'variable_48'
p1596
ag15
aS'if'
p1597
ag7
aS'variable_49'
p1598
ag164
aS'variable_46'
p1599
ag34
aS'variable_50'
p1600
ag164
aS'variable_23'
p1601
ag50
aS'variable_51'
p1602
ag15
aS'variable_46'
p1603
ag27
ag7
aS'variable_52'
p1604
ag15
ag7
aS'variable_50'
p1605
ag164
aS'variable_23'
p1606
ag50
aS'variable_51'
p1607
ag29
aS'variable_49'
p1608
ag15
ag31
aS'memset'
p1609
ag7
aS'variable_49'
p1610
ag12
aS'0xFF'
p1611
ag12
aS'variable_46'
p1612
ag15
ag31
aS'variable_49'
p1613
aS'+='
p1614
aS'variable_46'
p1615
ag31
aS'while'
p1616
ag7
aS'variable_46'
p1617
ag34
ag53
ag15
aS'SetPixel'
p1618
ag7
aS'variable_53'
p1619
ag12
aS'variable_47'
p1620
ag12
aS'variable_14'
p1621
ag15
ag31
aS'variable_46'
p1622
aS'--'
p1623
ag31
aS'while'
p1624
ag7
aS'variable_46'
p1625
ag34
ag53
ag15
aS'func_6'
p1626
ag7
aS'variable_53'
p1627
ag12
aS'variable_47'
p1628
ag12
aS'variable_46'
p1629
ag12
aS'variable_14'
p1630
ag15
ag31
aS'switch'
p1631
ag7
aS'variable_47'
p1632
ag15
aS'variable_46'
p1633
ag27
aS'variable_47'
p1634
ag31
aS'if'
p1635
ag7
aS'variable_49'
p1636
ag164
aS'variable_46'
p1637
ag34
aS'variable_50'
p1638
ag164
aS'variable_23'
p1639
ag50
aS'variable_51'
p1640
ag15
aS'variable_46'
p1641
aS'-='
p1642
aS'variable_23'
p1643
ag50
aS'variable_51'
p1644
ag297
ag61
ag31
aS'if'
p1645
ag7
aS'variable_49'
p1646
ag164
aS'variable_46'
p1647
ag34
aS'variable_50'
p1648
ag164
aS'variable_23'
p1649
ag50
aS'variable_51'
p1650
ag15
aS'memset'
p1651
ag7
aS'variable_49'
p1652
ag12
aS'0xFF'
p1653
ag12
aS'variable_46'
p1654
ag15
ag31
aS'variable_49'
p1655
aS'+='
p1656
aS'variable_46'
p1657
ag31
aS'if'
p1658
ag7
ag7
ag7
aS'variable_46'
p1659
ag29
ag61
ag15
ag297
aS'variable_23'
p1660
ag50
aS'variable_24'
p1661
ag15
aS'!='
p1662
ag53
ag15
aS'variable_47'
p1663
ag27
ag10
aS'variable_1'
p1664
aS'++'
p1665
ag31
aS'variable_2'
p1666
aS'--'
p1667
ag31
aS'variable_49'
p1668
aS'+='
p1669
aS'variable_47'
p1670
ag31
aS'if'
p1671
ag7
aS'variable_49'
p1672
ag34
aS'variable_50'
p1673
ag164
aS'variable_23'
p1674
ag50
aS'variable_51'
p1675
ag15
aS'variable_53'
p1676
aS'+='
p1677
aS'variable_47'
p1678
ag10
aS'variable_54'
p1679
ag31
aS'variable_47'
p1680
ag27
ag10
aS'variable_1'
p1681
aS'++'
p1682
ag31
aS'variable_2'
p1683
aS'--'
p1684
ag31
aS'if'
p1685
ag7
aS'variable_47'
p1686
aS'=='
p1687
ag53
ag15
aS'variable_55'
p1688
ag27
aS'func_7'
p1689
ag7
aS'func_8'
p1690
ag7
aS'variable_47'
p1691
ag12
aS'variable_3'
p1692
ag15
ag15
ag31
aS'func_9'
p1693
ag7
aS'variable_55'
p1694
ag12
aS'variable_55'
p1695
ag15
ag31
aS'while'
p1696
ag7
aS'variable_2'
p1697
ag34
ag53
aS'&&'
p1698
aS'variable_46'
p1699
ag34
ag53
ag15
aS'variable_47'
p1700
ag27
ag10
aS'variable_1'
p1701
aS'++'
p1702
ag31
aS'variable_2'
p1703
aS'--'
p1704
ag31
aS'SetPixel'
p1705
ag7
aS'variable_53'
p1706
ag12
aS'variable_47'
p1707
ag12
aS'variable_14'
p1708
ag15
ag31
aS'variable_46'
p1709
aS'--'
p1710
ag31
aS'while'
p1711
ag7
aS'variable_2'
p1712
ag34
ag53
aS'&&'
p1713
aS'variable_46'
p1714
ag34
ag53
ag15
aS'variable_47'
p1715
ag27
ag10
aS'variable_1'
p1716
aS'++'
p1717
ag31
aS'variable_2'
p1718
aS'--'
p1719
ag31
aS'func_10'
p1720
ag7
aS'variable_53'
p1721
ag12
aS'variable_47'
p1722
ag12
aS'variable_46'
p1723
ag12
aS'variable_14'
p1724
ag15
ag31
aS'if'
p1725
ag7
aS'variable_46'
p1726
aS'=='
p1727
ag53
ag15
aS'if'
p1728
ag7
aS'variable_2'
p1729
ag34
ag53
ag15
aS'variable_1'
p1730
aS'++'
p1731
ag31
aS'variable_2'
p1732
aS'--'
p1733
ag31
aa(lp1734
S'NS_METHOD'
p1735
aS'variable_0'
p1736
ag5
ag5
aS'func_0'
p1737
ag7
aS'const'
p1738
aS'char'
p1739
ag10
aS'variable_1'
p1740
ag12
aS'PRUint32'
p1741
aS'variable_2'
p1742
ag15
aS'if'
p1743
ag7
ag17
aS'variable_2'
p1744
aS'||'
p1745
ag17
aS'variable_3'
p1746
ag15
aS'if'
p1747
ag7
aS'variable_4'
p1748
ag23
aS'variable_5'
p1749
ag15
aS'PRUint32'
p1750
aS'variable_6'
p1751
ag27
aS'variable_5'
p1752
ag29
aS'variable_4'
p1753
ag31
aS'if'
p1754
ag7
aS'variable_6'
p1755
ag34
aS'variable_2'
p1756
ag15
aS'memcpy'
p1757
ag7
aS'variable_7'
p1758
ag164
aS'variable_4'
p1759
ag12
aS'variable_1'
p1760
ag12
aS'variable_6'
p1761
ag15
ag31
aS'variable_4'
p1762
aS'+='
p1763
aS'variable_6'
p1764
ag31
aS'variable_2'
p1765
aS'-='
p1766
aS'variable_6'
p1767
ag31
aS'variable_1'
p1768
aS'+='
p1769
aS'variable_6'
p1770
ag31
aS'if'
p1771
ag7
aS'variable_4'
p1772
aS'=='
p1773
aS'variable_5'
p1774
ag15
aS'if'
p1775
ag7
aS'variable_4'
p1776
ag34
ag27
aS'variable_5'
p1777
aS'&&'
p1778
aS'variable_4'
p1779
ag23
aS'variable_8'
p1780
ag15
aS'PRUint32'
p1781
aS'variable_6'
p1782
ag27
aS'variable_8'
p1783
ag29
aS'variable_4'
p1784
ag31
aS'if'
p1785
ag7
aS'variable_6'
p1786
ag34
aS'variable_2'
p1787
ag15
aS'variable_6'
p1788
ag27
aS'variable_2'
p1789
ag31
aS'memcpy'
p1790
ag7
aS'variable_7'
p1791
ag164
ag7
aS'variable_4'
p1792
ag29
aS'variable_5'
p1793
ag15
ag12
aS'variable_1'
p1794
ag12
aS'variable_6'
p1795
ag15
ag31
aS'variable_4'
p1796
aS'+='
p1797
aS'variable_6'
p1798
ag31
aS'variable_2'
p1799
aS'-='
p1800
aS'variable_6'
p1801
ag31
aS'variable_1'
p1802
aS'+='
p1803
aS'variable_6'
p1804
ag31
aS'if'
p1805
ag7
aS'variable_4'
p1806
aS'=='
p1807
aS'variable_8'
p1808
ag15
aS'if'
p1809
ag7
aS'variable_9'
p1810
aS'&&'
p1811
ag7
aS'variable_4'
p1812
ag34
ag27
aS'variable_8'
p1813
aS'&&'
p1814
ag7
aS'variable_4'
p1815
ag23
ag7
aS'variable_8'
p1816
ag164
aS'variable_10'
p1817
ag10
aS'variable_11'
p1818
ag15
ag15
ag15
ag15
aS'PRUint32'
p1819
aS'variable_12'
p1820
ag27
aS'variable_4'
p1821
ag29
aS'variable_8'
p1822
ag31
aS'PRUint8'
p1823
aS'variable_13'
p1824
ag27
aS'variable_12'
p1825
ag163
aS'variable_11'
p1826
ag31
aS'PRUint8'
p1827
aS'variable_14'
p1828
ag27
aS'variable_12'
p1829
ag258
aS'variable_11'
p1830
ag31
aS'while'
p1831
ag7
aS'variable_2'
p1832
aS'&&'
p1833
ag7
aS'variable_4'
p1834
ag23
ag7
aS'variable_8'
p1835
ag164
aS'variable_10'
p1836
ag10
aS'variable_11'
p1837
ag15
ag15
ag15
aS'switch'
p1838
ag7
aS'variable_14'
p1839
ag15
aS'variable_9'
p1840
ag52
aS'variable_13'
p1841
ag54
ag50
aS'variable_15'
p1842
ag27
ag10
aS'variable_1'
p1843
ag31
aS'variable_9'
p1844
ag52
aS'variable_13'
p1845
ag54
ag50
aS'variable_16'
p1846
ag27
ag10
aS'variable_1'
p1847
ag31
aS'variable_9'
p1848
ag52
aS'variable_13'
p1849
ag54
ag50
aS'variable_17'
p1850
ag27
ag10
aS'variable_1'
p1851
ag31
aS'variable_13'
p1852
aS'++'
p1853
ag31
aS'variable_4'
p1854
aS'++'
p1855
ag31
aS'variable_1'
p1856
aS'++'
p1857
ag31
aS'variable_2'
p1858
aS'--'
p1859
ag31
aS'variable_14'
p1860
ag27
ag7
aS'variable_14'
p1861
ag164
ag61
ag15
ag258
aS'variable_11'
p1862
ag31
aS'if'
p1863
ag7
aS'variable_2'
p1864
aS'&&'
p1865
aS'variable_18'
p1866
ag50
aS'variable_19'
p1867
aS'=='
p1868
aS'variable_20'
p1869
aS'&&'
p1870
aS'variable_4'
p1871
ag23
ag7
aS'variable_21'
p1872
ag164
aS'variable_22'
p1873
ag15
ag15
aS'PRUint32'
p1874
aS'variable_6'
p1875
ag27
ag7
aS'variable_21'
p1876
ag164
aS'variable_22'
p1877
ag15
ag29
aS'variable_4'
p1878
ag31
aS'if'
p1879
ag7
aS'variable_6'
p1880
ag34
aS'variable_2'
p1881
ag15
aS'variable_6'
p1882
ag27
aS'variable_2'
p1883
ag31
aS'memcpy'
p1884
ag7
aS'variable_7'
p1885
ag164
ag7
aS'variable_4'
p1886
ag29
aS'variable_21'
p1887
ag15
ag12
aS'variable_1'
p1888
ag12
aS'variable_6'
p1889
ag15
ag31
aS'variable_4'
p1890
aS'+='
p1891
aS'variable_6'
p1892
ag31
aS'variable_1'
p1893
aS'+='
p1894
aS'variable_6'
p1895
ag31
aS'variable_2'
p1896
aS'-='
p1897
aS'variable_6'
p1898
ag31
aS'if'
p1899
ag7
aS'variable_18'
p1900
ag50
aS'variable_19'
p1901
aS'=='
p1902
aS'variable_20'
p1903
aS'&&'
p1904
aS'variable_4'
p1905
aS'=='
p1906
aS'variable_21'
p1907
ag164
aS'variable_22'
p1908
ag15
aS'variable_23'
p1909
ag50
aS'variable_17'
p1910
ag27
aS'func_1'
p1911
ag7
ag10
ag7
aS'PRUint32'
p1912
ag10
ag15
aS'variable_7'
p1913
ag15
ag31
aS'variable_23'
p1914
ag50
aS'variable_16'
p1915
ag27
aS'func_2'
p1916
ag7
ag10
ag7
aS'PRUint32'
p1917
ag10
ag15
ag7
aS'variable_7'
p1918
ag164
ag104
ag15
ag15
ag31
aS'variable_23'
p1919
ag50
aS'variable_15'
p1920
ag27
aS'func_3'
p1921
ag7
ag10
ag7
aS'PRUint32'
p1922
ag10
ag15
ag7
aS'variable_7'
p1923
ag164
ag109
ag15
ag15
ag31
aS'while'
p1924
ag7
aS'variable_2'
p1925
aS'&&'
p1926
ag7
aS'variable_4'
p1927
ag23
aS'variable_24'
p1928
ag50
aS'variable_25'
p1929
ag15
ag15
aS'variable_4'
p1930
aS'++'
p1931
ag31
aS'variable_1'
p1932
aS'++'
p1933
ag31
aS'variable_2'
p1934
aS'--'
p1935
ag31
aS'if'
p1936
ag7
aS'variable_2'
p1937
aS'&&'
p1938
aS'++'
p1939
aS'variable_4'
p1940
ag34
ag27
aS'variable_24'
p1941
ag50
aS'variable_25'
p1942
ag15
aS'variable_6'
p1943
ag27
aS'variable_26'
p1944
ag29
aS'variable_27'
p1945
ag31
aS'if'
p1946
ag7
aS'variable_6'
p1947
ag15
aS'if'
p1948
ag7
aS'variable_6'
p1949
ag34
aS'variable_2'
p1950
ag15
aS'variable_6'
p1951
ag27
aS'variable_2'
p1952
ag31
aS'memcpy'
p1953
ag7
aS'variable_28'
p1954
ag164
aS'variable_27'
p1955
ag12
aS'variable_1'
p1956
ag12
aS'variable_6'
p1957
ag15
ag31
aS'variable_2'
p1958
aS'-='
p1959
aS'variable_6'
p1960
ag31
aS'variable_1'
p1961
aS'+='
p1962
aS'variable_6'
p1963
ag31
aS'variable_27'
p1964
aS'+='
p1965
aS'variable_6'
p1966
ag31
aS'if'
p1967
ag7
ag7
aS'variable_26'
p1968
ag29
aS'variable_27'
p1969
ag15
aS'=='
p1970
ag53
ag15
aS'variable_29'
p1971
ag10
aS'variable_30'
p1972
ag27
aS'variable_28'
p1973
ag31
aS'variable_31'
p1974
ag27
ag7
ag10
aS'variable_30'
p1975
aS'>>'
p1976
aS'variable_32'
p1977
ag15
ag297
ag61
ag31
aS'SetPixel'
p1978
ag7
aS'variable_33'
p1979
ag12
aS'variable_31'
p1980
ag12
aS'variable_9'
p1981
ag15
ag31
aS'func_4'
p1982
ag7
aS'variable_33'
p1983
ag12
ag10
aS'variable_30'
p1984
ag12
aS'variable_34'
p1985
ag12
aS'variable_9'
p1986
ag15
ag31
aS'SetPixel'
p1987
ag7
aS'variable_33'
p1988
ag12
ag10
aS'variable_30'
p1989
ag12
aS'variable_9'
p1990
ag15
ag31
aS'PRUint16'
p1991
aS'variable_35'
p1992
ag27
aS'func_5'
p1993
ag7
ag10
ag7
aS'PRUint16'
p1994
ag10
ag15
aS'variable_30'
p1995
ag15
ag31
aS'SetPixel'
p1996
ag7
aS'variable_33'
p1997
ag12
ag7
aS'variable_35'
p1998
ag297
aS'variable_23'
p1999
ag50
aS'variable_17'
p2000
ag15
aS'>>'
p2001
aS'variable_23'
p2002
ag50
aS'variable_36'
p2003
aS'<<'
p2004
aS'variable_23'
p2005
ag50
aS'variable_37'
p2006
ag12
ag7
aS'variable_35'
p2007
ag297
aS'variable_23'
p2008
ag50
aS'variable_16'
p2009
ag15
aS'>>'
p2010
aS'variable_23'
p2011
ag50
aS'variable_38'
p2012
aS'<<'
p2013
aS'variable_23'
p2014
ag50
aS'variable_39'
p2015
ag12
ag7
aS'variable_35'
p2016
ag297
aS'variable_23'
p2017
ag50
aS'variable_15'
p2018
ag15
aS'>>'
p2019
aS'variable_23'
p2020
ag50
aS'variable_40'
p2021
aS'<<'
p2022
aS'variable_23'
p2023
ag50
aS'variable_41'
p2024
ag15
ag31
aS'variable_30'
p2025
aS'+='
p2026
ag347
ag31
aS'SetPixel'
p2027
ag7
aS'variable_33'
p2028
ag12
aS'variable_30'
p2029
ag52
ag347
ag54
ag12
aS'variable_30'
p2030
ag52
ag61
ag54
ag12
aS'variable_30'
p2031
ag52
ag53
ag54
ag15
ag31
aS'variable_30'
p2032
aS'+='
p2033
ag347
ag31
aS'variable_30'
p2034
aS'++'
p2035
ag31
aS'while'
p2036
ag7
aS'variable_2'
p2037
ag34
ag53
ag15
aS'while'
p2038
ag7
aS'variable_2'
p2039
ag34
ag53
ag15
aS'variable_42'
p2040
ag27
ag7
aS'variable_29'
p2041
ag15
ag10
aS'variable_1'
p2042
aS'++'
p2043
ag31
aS'variable_2'
p2044
aS'--'
p2045
ag31
aS'variable_43'
p2046
ag27
ag10
aS'variable_1'
p2047
aS'++'
p2048
ag31
aS'variable_2'
p2049
aS'--'
p2050
ag31
aS'if'
p2051
ag7
aS'variable_42'
p2052
aS'!='
p2053
aS'variable_44'
p2054
ag15
aS'if'
p2055
ag7
aS'variable_45'
p2056
ag164
aS'variable_42'
p2057
ag34
aS'variable_46'
p2058
ag164
aS'variable_18'
p2059
ag50
aS'variable_47'
p2060
ag15
aS'variable_42'
p2061
ag27
ag7
aS'variable_48'
p2062
ag15
ag7
aS'variable_46'
p2063
ag164
aS'variable_18'
p2064
ag50
aS'variable_47'
p2065
ag29
aS'variable_45'
p2066
ag15
ag31
aS'memset'
p2067
ag7
aS'variable_45'
p2068
ag12
aS'0xFF'
p2069
ag12
aS'variable_42'
p2070
ag15
ag31
aS'variable_45'
p2071
aS'+='
p2072
aS'variable_42'
p2073
ag31
aS'while'
p2074
ag7
aS'variable_42'
p2075
ag34
ag53
ag15
aS'SetPixel'
p2076
ag7
aS'variable_49'
p2077
ag12
aS'variable_43'
p2078
ag12
aS'variable_9'
p2079
ag15
ag31
aS'variable_42'
p2080
aS'--'
p2081
ag31
aS'while'
p2082
ag7
aS'variable_42'
p2083
ag34
ag53
ag15
aS'func_6'
p2084
ag7
aS'variable_49'
p2085
ag12
aS'variable_43'
p2086
ag12
aS'variable_42'
p2087
ag12
aS'variable_9'
p2088
ag15
ag31
aS'switch'
p2089
ag7
aS'variable_43'
p2090
ag15
aS'variable_42'
p2091
ag27
aS'variable_43'
p2092
ag31
aS'if'
p2093
ag7
aS'variable_45'
p2094
ag164
aS'variable_42'
p2095
ag34
aS'variable_46'
p2096
ag164
aS'variable_18'
p2097
ag50
aS'variable_47'
p2098
ag15
aS'variable_42'
p2099
aS'-='
p2100
aS'variable_18'
p2101
ag50
aS'variable_47'
p2102
ag297
ag61
ag31
aS'if'
p2103
ag7
aS'variable_45'
p2104
ag164
aS'variable_42'
p2105
ag34
aS'variable_46'
p2106
ag164
aS'variable_18'
p2107
ag50
aS'variable_47'
p2108
ag15
aS'memset'
p2109
ag7
aS'variable_45'
p2110
ag12
aS'0xFF'
p2111
ag12
aS'variable_42'
p2112
ag15
ag31
aS'variable_45'
p2113
aS'+='
p2114
aS'variable_42'
p2115
ag31
aS'if'
p2116
ag7
ag7
ag7
aS'variable_42'
p2117
ag29
ag61
ag15
ag297
aS'variable_18'
p2118
ag50
aS'variable_19'
p2119
ag15
aS'!='
p2120
ag53
ag15
aS'variable_43'
p2121
ag27
ag10
aS'variable_1'
p2122
aS'++'
p2123
ag31
aS'variable_2'
p2124
aS'--'
p2125
ag31
aS'variable_45'
p2126
aS'+='
p2127
aS'variable_43'
p2128
ag31
aS'if'
p2129
ag7
aS'variable_45'
p2130
ag34
aS'variable_46'
p2131
ag164
aS'variable_18'
p2132
ag50
aS'variable_47'
p2133
ag15
aS'variable_49'
p2134
aS'+='
p2135
aS'variable_43'
p2136
ag10
aS'variable_50'
p2137
ag31
aS'variable_43'
p2138
ag27
ag10
aS'variable_1'
p2139
aS'++'
p2140
ag31
aS'variable_2'
p2141
aS'--'
p2142
ag31
aS'if'
p2143
ag7
aS'variable_43'
p2144
aS'=='
p2145
ag53
ag15
aS'variable_51'
p2146
ag27
aS'func_7'
p2147
ag7
aS'func_8'
p2148
ag7
aS'variable_43'
p2149
ag12
aS'variable_3'
p2150
ag15
ag15
ag31
aS'func_9'
p2151
ag7
aS'variable_51'
p2152
ag12
aS'variable_51'
p2153
ag15
ag31
aS'while'
p2154
ag7
aS'variable_2'
p2155
ag34
ag53
aS'&&'
p2156
aS'variable_42'
p2157
ag34
ag53
ag15
aS'variable_43'
p2158
ag27
ag10
aS'variable_1'
p2159
aS'++'
p2160
ag31
aS'variable_2'
p2161
aS'--'
p2162
ag31
aS'SetPixel'
p2163
ag7
aS'variable_49'
p2164
ag12
aS'variable_43'
p2165
ag12
aS'variable_9'
p2166
ag15
ag31
aS'variable_42'
p2167
aS'--'
p2168
ag31
aS'while'
p2169
ag7
aS'variable_2'
p2170
ag34
ag53
aS'&&'
p2171
aS'variable_42'
p2172
ag34
ag53
ag15
aS'variable_43'
p2173
ag27
ag10
aS'variable_1'
p2174
aS'++'
p2175
ag31
aS'variable_2'
p2176
aS'--'
p2177
ag31
aS'func_10'
p2178
ag7
aS'variable_49'
p2179
ag12
aS'variable_43'
p2180
ag12
aS'variable_42'
p2181
ag12
aS'variable_9'
p2182
ag15
ag31
aS'if'
p2183
ag7
aS'variable_42'
p2184
aS'=='
p2185
ag53
ag15
aS'if'
p2186
ag7
aS'variable_2'
p2187
ag34
ag53
ag15
aS'variable_1'
p2188
aS'++'
p2189
ag31
aS'variable_2'
p2190
aS'--'
p2191
ag31
aaa(lp2192
I0
aI0
aI0
aI0
aI0
aI0
aa(lp2193
I434
aI335
aI316
aI309
aI107
aI34
aa(lp2194
(lp2195
S'main'
p2196
aa(lp2197
g2196
aa(lp2198
g2196
aa(lp2199
g2196
aa(lp2200
g2196
aa(lp2201
g2196
aaa(lp2202
S'739 /home/SySeVR/data/CVE_2008_0420_PATCHED_nsBMPDecoder__ProcessData.c PRUint32 rowSize = ( mBIH . bpp * mBIH . width + 7 ) / 8 ; 146'
p2203
aS'740 /home/SySeVR/data/CVE_2008_0420_PATCHED_nsBMPDecoder__ProcessData.c PRUint32 toCopy = ( WIN_HEADER_LENGTH + BITFIELD_LENGTH ) - mPos ; 125'
p2204
aS'741 /home/SySeVR/data/CVE_2008_0420_PATCHED_nsBMPDecoder__ProcessData.c PRUint8 colorNum = colorBytes / bpc ; 100'
p2205
aS'742 /home/SySeVR/data/CVE_2008_0420_PATCHED_nsBMPDecoder__ProcessData.c PRUint32 colorBytes = mPos - mLOH ; 99'
p2206
aS'743 /home/SySeVR/data/CVE_2008_0420_PATCHED_nsBMPDecoder__ProcessData.c PRUint32 toCopy = mLOH - mPos ; 27'
p2207
aS'744 /home/SySeVR/data/CVE_2008_0420_PATCHED_nsBMPDecoder__ProcessData.c PRUint32 toCopy = BFH_LENGTH - mPos ; 9'
p2208
aa.