(lp0
(lp1
(lp2
S'static'
p3
aS'int'
p4
aS'func_0'
p5
aS'('
p6
aS'struct'
p7
aS'variable_0'
p8
aS'*'
p9
aS'variable_1'
p10
aS','
p11
aS'struct'
p12
aS'variable_2'
p13
ag9
aS'variable_3'
p14
aS')'
p15
aS'struct'
p16
aS'variable_4'
p17
ag9
aS'variable_4'
p18
aS'='
p19
aS'variable_3'
p20
aS'->'
p21
aS'variable_4'
p22
aS';'
p23
aS'struct'
p24
aS'variable_5'
p25
ag9
aS'variable_6'
p26
ag19
aS'variable_4'
p27
aS'->'
p28
aS'variable_7'
p29
ag23
aS'unsigned'
p30
aS'int'
p31
aS'variable_8'
p32
ag11
aS'variable_9'
p33
ag23
aS'struct'
p34
aS'variable_10'
p35
ag9
aS'variable_10'
p36
ag23
aS'pgoff_t'
p37
aS'variable_11'
p38
ag23
aS'int'
p39
aS'variable_12'
p40
ag23
aS'variable_12'
p41
ag19
aS'variable_13'
p42
aS'->'
p43
aS'variable_14'
p44
aS'->'
p45
aS'func_1'
p46
ag6
aS'variable_1'
p47
ag11
aS'variable_13'
p48
ag15
ag23
aS'if'
p49
ag6
aS'func_2'
p50
ag6
aS'variable_12'
p51
ag15
ag15
aS'variable_11'
p52
ag19
aS'variable_3'
p53
aS'->'
p54
aS'variable_15'
p55
aS'>>'
p56
aS'variable_16'
p57
ag23
aS'variable_8'
p58
ag19
aS'variable_3'
p59
aS'->'
p60
aS'variable_15'
p61
aS'&'
p62
aS'~'
p63
aS'variable_17'
p64
ag23
aS'variable_9'
p65
ag19
aS'variable_3'
p66
aS'->'
p67
aS'variable_18'
p68
ag23
aS'if'
p69
ag6
aS'variable_9'
p70
aS'+'
p71
aS'variable_8'
p72
aS'>'
p73
aS'variable_19'
p74
ag15
aS'variable_9'
p75
ag19
aS'variable_19'
p76
aS'-'
p77
aS'variable_8'
p78
ag23
aS'variable_10'
p79
ag19
aS'func_3'
p80
ag6
aS'variable_6'
p81
ag11
aS'variable_11'
p82
ag15
ag23
aS'if'
p83
ag6
aS'!'
p84
aS'variable_10'
p85
ag15
aS'variable_10'
p86
ag19
aS'func_4'
p87
ag6
aS'variable_6'
p88
ag15
ag23
aS'if'
p89
ag6
aS'func_5'
p90
ag6
ag84
aS'variable_10'
p91
ag15
ag15
aS'variable_12'
p92
ag19
aS'func_6'
p93
ag6
aS'variable_10'
p94
ag11
aS'variable_6'
p95
ag11
aS'variable_11'
p96
ag11
aS'variable_20'
p97
ag15
ag23
aS'if'
p98
ag6
aS'func_7'
p99
ag6
aS'variable_12'
p100
ag15
ag15
aS'variable_12'
p101
ag19
aS'variable_6'
p102
aS'->'
p103
aS'variable_21'
p104
aS'->'
p105
aS'func_8'
p106
ag6
aS'variable_4'
p107
ag11
aS'variable_10'
p108
ag11
aS'variable_8'
p109
ag11
aS'variable_8'
p110
ag71
aS'variable_9'
p111
ag15
ag23
aS'if'
p112
ag6
aS'func_9'
p113
ag6
aS'variable_12'
p114
ag15
ag15
aS'if'
p115
ag6
aS'variable_12'
p116
aS'=='
p117
aS'variable_22'
p118
ag15
aS'if'
p119
ag6
aS'variable_13'
p120
aS'->'
p121
aS'variable_10'
p122
aS'!='
p123
aS'variable_10'
p124
ag15
aS'char'
p125
ag9
aS'variable_23'
p126
ag19
aS'variable_13'
p127
aS'->'
p128
aS'variable_14'
p129
aS'->'
p130
aS'func_10'
p131
ag6
aS'variable_1'
p132
ag11
aS'variable_13'
p133
ag11
aS'1'
p134
ag15
ag23
aS'char'
p135
ag9
aS'variable_24'
p136
ag19
aS'func_11'
p137
ag6
aS'variable_10'
p138
ag11
aS'variable_25'
p139
ag15
ag23
aS'memcpy'
p140
ag6
aS'variable_24'
p141
ag71
aS'variable_8'
p142
ag11
aS'variable_23'
p143
ag71
aS'variable_13'
p144
aS'->'
p145
aS'variable_8'
p146
ag11
aS'variable_9'
p147
ag15
ag23
aS'func_12'
p148
ag6
aS'variable_24'
p149
ag11
aS'variable_25'
p150
ag15
ag23
aS'variable_12'
p151
ag19
aS'variable_6'
p152
aS'->'
p153
aS'variable_21'
p154
aS'->'
p155
aS'func_13'
p156
ag6
aS'variable_4'
p157
ag11
aS'variable_10'
p158
ag11
aS'variable_8'
p159
ag11
aS'variable_8'
p160
ag71
aS'variable_9'
p161
ag15
ag23
aS'if'
p162
ag6
aS'variable_12'
p163
ag15
aS'if'
p164
ag6
aS'variable_12'
p165
aS'=='
p166
aS'variable_22'
p167
ag15
aaa(lp168
I0
aa(lp169
I224
aa(lp170
(lp171
S'main'
p172
aaa(lp173
S'415 /home/SySeVR/data/CVE_2008_4302_PATCHED_pipe_to_file.c memcpy 69'
p174
aa.