(lp0
(lp1
(lp2
S'static'
p3
aS'int'
p4
aS'func_0'
p5
aS'('
p6
aS'struct'
p7
aS'variable_0'
p8
aS'*'
p9
aS'variable_1'
p10
aS','
p11
aS'struct'
p12
aS'variable_2'
p13
ag9
aS'variable_3'
p14
aS')'
p15
aS'struct'
p16
aS'variable_4'
p17
ag9
aS'variable_4'
p18
aS'='
p19
aS'variable_3'
p20
aS'->'
p21
aS'variable_4'
p22
aS';'
p23
aS'struct'
p24
aS'variable_5'
p25
ag9
aS'variable_6'
p26
ag19
aS'variable_4'
p27
aS'->'
p28
aS'variable_7'
p29
ag23
aS'unsigned'
p30
aS'int'
p31
aS'variable_8'
p32
ag11
aS'variable_9'
p33
ag23
aS'struct'
p34
aS'variable_10'
p35
ag9
aS'variable_10'
p36
ag23
aS'pgoff_t'
p37
aS'variable_11'
p38
ag23
aS'int'
p39
aS'variable_12'
p40
ag23
aS'variable_12'
p41
ag19
aS'variable_13'
p42
aS'->'
p43
aS'variable_14'
p44
aS'->'
p45
aS'func_1'
p46
ag6
aS'variable_1'
p47
ag11
aS'variable_13'
p48
ag15
ag23
aS'if'
p49
ag6
aS'func_2'
p50
ag6
aS'variable_12'
p51
ag15
ag15
aS'variable_11'
p52
ag19
aS'variable_3'
p53
aS'->'
p54
aS'variable_15'
p55
aS'>>'
p56
aS'variable_16'
p57
ag23
aS'variable_8'
p58
ag19
aS'variable_3'
p59
aS'->'
p60
aS'variable_15'
p61
aS'&'
p62
aS'~'
p63
aS'variable_17'
p64
ag23
aS'variable_9'
p65
ag19
aS'variable_3'
p66
aS'->'
p67
aS'variable_18'
p68
ag23
aS'if'
p69
ag6
aS'variable_9'
p70
aS'+'
p71
aS'variable_8'
p72
aS'>'
p73
aS'variable_19'
p74
ag15
aS'variable_9'
p75
ag19
aS'variable_19'
p76
aS'-'
p77
aS'variable_8'
p78
ag23
aS'variable_10'
p79
ag19
aS'func_3'
p80
ag6
aS'variable_6'
p81
ag11
aS'variable_11'
p82
ag15
ag23
aS'if'
p83
ag6
aS'!'
p84
aS'variable_10'
p85
ag15
aS'variable_10'
p86
ag19
aS'func_4'
p87
ag6
aS'variable_6'
p88
ag15
ag23
aS'if'
p89
ag6
aS'func_5'
p90
ag6
ag84
aS'variable_10'
p91
ag15
ag15
aS'variable_12'
p92
ag19
aS'func_6'
p93
ag6
aS'variable_10'
p94
ag11
aS'variable_6'
p95
ag11
aS'variable_11'
p96
ag11
aS'variable_20'
p97
ag15
ag23
aS'if'
p98
ag6
aS'func_7'
p99
ag6
aS'variable_12'
p100
ag15
ag15
aS'variable_12'
p101
ag19
aS'variable_6'
p102
aS'->'
p103
aS'variable_21'
p104
aS'->'
p105
aS'func_8'
p106
ag6
aS'variable_4'
p107
ag11
aS'variable_10'
p108
ag11
aS'variable_8'
p109
ag11
aS'variable_8'
p110
ag71
aS'variable_9'
p111
ag15
ag23
aS'if'
p112
ag6
aS'func_9'
p113
ag6
aS'variable_12'
p114
ag15
ag15
aS'if'
p115
ag6
aS'variable_12'
p116
aS'=='
p117
aS'variable_22'
p118
ag15
aS'variable_12'
p119
ag19
aS'variable_6'
p120
aS'->'
p121
aS'variable_21'
p122
aS'->'
p123
aS'func_10'
p124
ag6
aS'variable_4'
p125
ag11
aS'variable_10'
p126
ag11
aS'variable_8'
p127
ag11
aS'variable_8'
p128
ag71
aS'variable_9'
p129
ag15
ag23
aS'if'
p130
ag6
aS'variable_12'
p131
ag15
aS'if'
p132
ag6
aS'variable_12'
p133
aS'=='
p134
aS'variable_22'
p135
ag15
aS'if'
p136
ag6
aS'variable_12'
p137
aS'<'
p138
aS'0'
p139
ag15
aS'return'
p140
aS'variable_12'
p141
ag23
aa(lp142
S'static'
p143
aS'int'
p144
aS'func_0'
p145
ag6
aS'struct'
p146
aS'variable_0'
p147
ag9
aS'variable_1'
p148
ag11
aS'struct'
p149
aS'variable_2'
p150
ag9
aS'variable_3'
p151
ag15
aS'struct'
p152
aS'variable_4'
p153
ag9
aS'variable_4'
p154
ag19
aS'variable_3'
p155
aS'->'
p156
aS'variable_4'
p157
ag23
aS'struct'
p158
aS'variable_5'
p159
ag9
aS'variable_6'
p160
ag19
aS'variable_4'
p161
aS'->'
p162
aS'variable_7'
p163
ag23
aS'unsigned'
p164
aS'int'
p165
aS'variable_8'
p166
ag11
aS'variable_9'
p167
ag23
aS'struct'
p168
aS'variable_10'
p169
ag9
aS'variable_10'
p170
ag23
aS'pgoff_t'
p171
aS'variable_11'
p172
ag23
aS'int'
p173
aS'variable_12'
p174
ag23
aS'variable_12'
p175
ag19
aS'variable_13'
p176
aS'->'
p177
aS'variable_14'
p178
aS'->'
p179
aS'func_1'
p180
ag6
aS'variable_1'
p181
ag11
aS'variable_13'
p182
ag15
ag23
aS'if'
p183
ag6
aS'func_2'
p184
ag6
aS'variable_12'
p185
ag15
ag15
aS'variable_11'
p186
ag19
aS'variable_3'
p187
aS'->'
p188
aS'variable_15'
p189
aS'>>'
p190
aS'variable_16'
p191
ag23
aS'variable_8'
p192
ag19
aS'variable_3'
p193
aS'->'
p194
aS'variable_15'
p195
ag62
ag63
aS'variable_17'
p196
ag23
aS'variable_9'
p197
ag19
aS'variable_3'
p198
aS'->'
p199
aS'variable_18'
p200
ag23
aS'if'
p201
ag6
aS'variable_9'
p202
ag71
aS'variable_8'
p203
ag73
aS'variable_19'
p204
ag15
aS'variable_9'
p205
ag19
aS'variable_19'
p206
ag77
aS'variable_8'
p207
ag23
aS'variable_10'
p208
ag19
aS'func_3'
p209
ag6
aS'variable_6'
p210
ag11
aS'variable_11'
p211
ag15
ag23
aS'if'
p212
ag6
ag84
aS'variable_10'
p213
ag15
aS'variable_10'
p214
ag19
aS'func_4'
p215
ag6
aS'variable_6'
p216
ag15
ag23
aS'if'
p217
ag6
aS'func_5'
p218
ag6
ag84
aS'variable_10'
p219
ag15
ag15
aS'variable_12'
p220
ag19
aS'func_6'
p221
ag6
aS'variable_10'
p222
ag11
aS'variable_6'
p223
ag11
aS'variable_11'
p224
ag11
aS'variable_20'
p225
ag15
ag23
aS'if'
p226
ag6
aS'func_7'
p227
ag6
aS'variable_12'
p228
ag15
ag15
aS'variable_12'
p229
ag19
aS'variable_6'
p230
aS'->'
p231
aS'variable_21'
p232
aS'->'
p233
aS'func_8'
p234
ag6
aS'variable_4'
p235
ag11
aS'variable_10'
p236
ag11
aS'variable_8'
p237
ag11
aS'variable_8'
p238
ag71
aS'variable_9'
p239
ag15
ag23
aS'if'
p240
ag6
aS'func_9'
p241
ag6
aS'variable_12'
p242
ag15
ag15
aS'if'
p243
ag6
aS'variable_12'
p244
aS'!='
p245
aS'variable_22'
p246
ag15
aS'if'
p247
ag6
aS'variable_12'
p248
aS'=='
p249
aS'variable_22'
p250
ag15
aS'variable_12'
p251
ag19
aS'variable_6'
p252
aS'->'
p253
aS'variable_21'
p254
aS'->'
p255
aS'func_10'
p256
ag6
aS'variable_4'
p257
ag11
aS'variable_10'
p258
ag11
aS'variable_8'
p259
ag11
aS'variable_8'
p260
ag71
aS'variable_9'
p261
ag15
ag23
aS'if'
p262
ag6
aS'variable_12'
p263
ag15
aS'if'
p264
ag6
aS'variable_12'
p265
aS'=='
p266
aS'variable_22'
p267
ag15
aS'return'
p268
aS'variable_12'
p269
ag23
aa(lp270
S'static'
p271
aS'int'
p272
aS'func_0'
p273
ag6
aS'struct'
p274
aS'variable_0'
p275
ag9
aS'variable_1'
p276
ag11
aS'struct'
p277
aS'variable_2'
p278
ag9
aS'variable_3'
p279
ag15
aS'unsigned'
p280
aS'int'
p281
aS'variable_4'
p282
ag11
aS'variable_5'
p283
ag23
aS'int'
p284
aS'variable_6'
p285
ag23
aS'variable_6'
p286
ag19
aS'variable_7'
p287
aS'->'
p288
aS'variable_8'
p289
aS'->'
p290
aS'func_1'
p291
ag6
aS'variable_1'
p292
ag11
aS'variable_7'
p293
ag15
ag23
aS'if'
p294
ag6
aS'func_2'
p295
ag6
aS'variable_6'
p296
ag15
ag15
aS'variable_4'
p297
ag19
aS'variable_3'
p298
aS'->'
p299
aS'variable_9'
p300
ag62
ag63
aS'variable_10'
p301
ag23
aS'variable_5'
p302
ag19
aS'variable_3'
p303
aS'->'
p304
aS'variable_11'
p305
ag23
aS'if'
p306
ag6
aS'variable_5'
p307
ag71
aS'variable_4'
p308
ag73
aS'variable_12'
p309
ag15
aS'variable_5'
p310
ag19
aS'variable_12'
p311
ag77
aS'variable_4'
p312
ag23
aS'variable_6'
p313
ag19
aS'variable_13'
p314
aS'->'
p315
aS'variable_14'
p316
aS'->'
p317
aS'func_3'
p318
ag6
aS'variable_15'
p319
ag11
aS'variable_16'
p320
ag11
aS'variable_4'
p321
ag11
aS'variable_4'
p322
ag71
aS'variable_5'
p323
ag15
ag23
aS'if'
p324
ag6
aS'func_4'
p325
ag6
aS'variable_6'
p326
ag15
ag15
aS'if'
p327
ag6
aS'variable_6'
p328
aS'!='
p329
aS'variable_17'
p330
ag15
aS'if'
p331
ag6
aS'variable_6'
p332
aS'=='
p333
aS'variable_17'
p334
ag15
aS'if'
p335
ag6
aS'variable_3'
p336
aS'->'
p337
aS'variable_9'
p338
ag71
aS'variable_5'
p339
ag73
aS'variable_18'
p340
ag15
aS'memcpy'
p341
ag6
aS'variable_19'
p342
ag71
aS'variable_4'
p343
ag11
aS'variable_20'
p344
ag71
aS'variable_7'
p345
aS'->'
p346
aS'variable_4'
p347
ag11
aS'variable_5'
p348
ag15
ag23
aS'func_5'
p349
ag6
aS'variable_19'
p350
ag11
aS'variable_21'
p351
ag15
ag23
aS'variable_6'
p352
ag19
aS'variable_13'
p353
aS'->'
p354
aS'variable_14'
p355
aS'->'
p356
aS'func_6'
p357
ag6
aS'variable_15'
p358
ag11
aS'variable_16'
p359
ag11
aS'variable_4'
p360
ag11
aS'variable_4'
p361
ag71
aS'variable_5'
p362
ag15
ag23
aS'if'
p363
ag6
aS'variable_6'
p364
ag15
aS'if'
p365
ag6
aS'variable_6'
p366
aS'=='
p367
aS'variable_17'
p368
ag15
aS'if'
p369
ag6
aS'variable_6'
p370
ag138
ag139
ag15
aS'variable_6'
p371
ag19
aS'variable_5'
p372
ag23
aS'return'
p373
aS'variable_6'
p374
ag23
aaa(lp375
I0
aI0
aI0
aa(lp376
I205
aI173
aI71
aa(lp377
(lp378
S'main'
p379
aa(lp380
g379
aa(lp381
g379
aaa(lp382
S'52 /home/SySeVR/data/CVE_2008_4302_PATCHED_pipe_to_file.c ret = mapping -> a_ops -> commit_write ( file , page , offset , offset + this_len ) 75'
p383
aS'53 /home/SySeVR/data/CVE_2008_4302_PATCHED_pipe_to_file.c ret = mapping -> a_ops -> prepare_write ( file , page , offset , offset + this_len ) 42'
p384
aS'54 /home/SySeVR/data/CVE_2008_4302_PATCHED_pipe_to_file.c this_len = PAGE_CACHE_SIZE - offset 23'
p385
aa.