(lp0
(lp1
(lp2
S'func_0'
p3
aS'('
p4
aS'unsigned'
p5
aS'long'
p6
aS'*'
p7
aS'variable_0'
p8
aS')'
p9
aS'const'
p10
aS'void'
p11
ag7
aS'variable_1'
p12
aS';'
p13
aS'UINT32'
p14
aS'variable_2'
p15
ag13
aS'BOOL'
p16
aS'variable_3'
p17
ag13
aS'if'
p18
ag4
aS'!'
p19
aS'variable_3'
p20
ag9
aS'if'
p21
ag4
aS'variable_4'
p22
ag9
aS'memcpy'
p23
ag4
aS'variable_4'
p24
aS','
p25
aS'variable_1'
p26
ag25
aS'variable_2'
p27
ag9
ag13
aaa(lp28
I1
aa(lp29
I29
aa(lp30
(lp31
S'main'
p32
aaa(lp33
S'561 /home/SySeVR/data/CVE_2014_1509_VULN__cairo_dwrite_load_truetype_table.c memcpy 27'
p34
aa.