(lp0
(lp1
(lp2
S'static'
p3
aS'gboolean'
p4
aS'func_0'
p5
aS'('
p6
aS'variable_0'
p7
aS'*'
p8
aS'variable_1'
p9
aS','
p10
aS'int'
p11
ag8
aS'variable_2'
p12
ag10
aS'variable_3'
p13
ag8
ag8
aS'variable_4'
p14
ag10
aS'variable_5'
p15
ag8
aS'variable_6'
p16
aS')'
p17
aS'variable_7'
p18
ag8
aS'variable_8'
p19
aS'='
p20
ag6
aS'vwr_t'
p21
ag8
ag17
aS'variable_1'
p22
aS'->'
p23
aS'variable_9'
p24
aS';'
p25
aS'guint8'
p26
aS'variable_10'
p27
aS'['
p28
aS'variable_11'
p29
aS']'
p30
ag25
aS'int'
p31
aS'variable_12'
p32
ag20
aS'0'
p33
ag10
aS'variable_13'
p34
ag25
aS'guint16'
p35
aS'variable_14'
p36
ag25
aS'if'
p37
ag6
aS'!'
p38
aS'func_1'
p39
ag6
aS'variable_8'
p40
ag10
aS'variable_1'
p41
aS'->'
p42
aS'variable_15'
p43
ag10
aS'&'
p44
aS'variable_12'
p45
ag10
ag44
aS'variable_13'
p46
ag10
aS'variable_2'
p47
ag10
aS'variable_4'
p48
ag17
ag17
aS'if'
p49
ag6
aS'func_2'
p50
ag6
aS'variable_10'
p51
ag10
aS'variable_12'
p52
ag10
aS'variable_1'
p53
aS'->'
p54
aS'variable_15'
p55
ag17
aS'!='
p56
aS'variable_12'
p57
ag17
aS'if'
p58
ag6
ag6
aS'variable_8'
p59
aS'->'
p60
aS'variable_16'
p61
aS'=='
p62
aS'variable_17'
p63
ag17
aS'||'
p64
ag6
aS'variable_8'
p65
aS'->'
p66
aS'variable_16'
p67
aS'=='
p68
aS'variable_18'
p69
ag17
ag17
aS'variable_14'
p70
ag20
ag6
aS'variable_19'
p71
ag17
ag6
aS'variable_12'
p72
aS'+'
p73
aS'variable_20'
p74
ag73
aS'variable_21'
p75
ag17
ag25
aS'func_3'
p76
ag6
aS'variable_1'
p77
aS'->'
p78
aS'variable_22'
p79
ag10
aS'variable_14'
p80
ag17
ag25
aa(lp81
S'static'
p82
aS'gboolean'
p83
aS'func_0'
p84
ag6
aS'variable_0'
p85
ag8
aS'variable_1'
p86
ag10
aS'int'
p87
ag8
aS'variable_2'
p88
ag10
aS'variable_3'
p89
ag8
ag8
aS'variable_4'
p90
ag10
aS'variable_5'
p91
ag8
aS'variable_6'
p92
ag17
aS'variable_7'
p93
ag8
aS'variable_8'
p94
ag20
ag6
aS'vwr_t'
p95
ag8
ag17
aS'variable_1'
p96
aS'->'
p97
aS'variable_9'
p98
ag25
aS'guint8'
p99
aS'variable_10'
p100
ag28
aS'variable_11'
p101
ag30
ag25
aS'int'
p102
aS'variable_12'
p103
ag20
ag33
ag10
aS'variable_13'
p104
ag25
aS'guint16'
p105
aS'variable_14'
p106
ag25
aS'if'
p107
ag6
ag38
aS'func_1'
p108
ag6
aS'variable_8'
p109
ag10
aS'variable_1'
p110
aS'->'
p111
aS'variable_15'
p112
ag10
ag44
aS'variable_12'
p113
ag10
ag44
aS'variable_13'
p114
ag10
aS'variable_2'
p115
ag10
aS'variable_4'
p116
ag17
ag17
aS'if'
p117
ag6
aS'func_2'
p118
ag6
aS'variable_10'
p119
ag10
aS'variable_12'
p120
ag10
aS'variable_1'
p121
aS'->'
p122
aS'variable_15'
p123
ag17
aS'!='
p124
aS'variable_12'
p125
ag17
aS'if'
p126
ag6
ag6
aS'variable_8'
p127
aS'->'
p128
aS'variable_16'
p129
aS'=='
p130
aS'variable_17'
p131
ag17
aS'||'
p132
ag6
aS'variable_8'
p133
aS'->'
p134
aS'variable_16'
p135
aS'=='
p136
aS'variable_18'
p137
ag17
ag17
aS'variable_14'
p138
ag20
ag6
aS'variable_19'
p139
ag17
ag6
aS'variable_12'
p140
ag73
aS'variable_20'
p141
ag73
aS'variable_21'
p142
ag17
ag25
aS'func_3'
p143
ag6
aS'variable_1'
p144
aS'->'
p145
aS'variable_22'
p146
ag10
aS'variable_14'
p147
ag17
ag25
aaa(lp148
I0
aI0
aa(lp149
I108
aI108
aa(lp150
(lp151
S'main'
p152
aa(lp153
g152
aaa(lp154
S'510 /home/SySeVR/data/CVE_2013_4082_VULN_vwr_read.c pkt_len = ( guint16 ) ( rec_size + STATS_COMMON_FIELDS_LEN + STATS_ETHERNETTAP_FIELDS_LEN ) 32'
p155
aS'511 /home/SySeVR/data/CVE_2013_4082_VULN_vwr_read.c pkt_len = ( guint16 ) ( rec_size + STATS_COMMON_FIELDS_LEN + EXT_RTAP_FIELDS_LEN ) 29'
p156
aa.