(lp0
(lp1
(lp2
S'static'
p3
aS'int'
p4
aS'func_0'
p5
aS'('
p6
aS'variable_0'
p7
aS'*'
p8
aS'variable_1'
p9
aS','
p10
aS'variable_0'
p11
ag8
aS'variable_2'
p12
aS')'
p13
aS'MpegEncContext'
p14
ag8
aS'const'
p15
aS'variable_3'
p16
aS'='
p17
aS'&'
p18
aS'variable_1'
p19
aS'->'
p20
aS'MpegEncContext'
p21
ag8
aS'const'
p22
aS'variable_4'
p23
ag17
ag18
aS'variable_2'
p24
aS'->'
p25
aS'unsigned'
p26
aS'int'
p27
aS'variable_5'
p28
aS';'
p29
aS'unsigned'
p30
aS'int'
p31
aS'variable_6'
p32
ag29
aS'int'
p33
aS'variable_7'
p34
ag10
aS'variable_8'
p35
ag29
aS'unsigned'
p36
aS'int'
p37
aS'variable_9'
p38
ag10
aS'variable_10'
p39
ag10
aS'variable_11'
p40
ag10
aS'variable_12'
p41
ag29
aS'int'
p42
aS'variable_13'
p43
ag10
aS'variable_14'
p44
ag29
aS'int'
p45
aS'variable_15'
p46
ag29
aS'int'
p47
aS'variable_16'
p48
ag17
aS'0'
p49
ag29
aS'if'
p50
ag6
ag6
aS'variable_3'
p51
aS'->'
p52
aS'variable_17'
p53
aS'->'
p54
aS'variable_18'
p55
ag18
aS'variable_19'
p56
ag13
aS'&&'
p57
aS'!'
p58
aS'variable_1'
p59
aS'->'
p60
aS'variable_20'
p61
aS'&&'
p62
ag58
aS'variable_1'
p63
aS'->'
p64
aS'variable_21'
p65
ag13
aS'variable_3'
p66
aS'->'
p67
aS'variable_22'
p68
aS'.'
p69
aS'variable_23'
p70
ag17
aS'variable_3'
p71
aS'->'
p72
aS'variable_24'
p73
ag69
aS'variable_25'
p74
ag29
aS'variable_3'
p75
aS'->'
p76
aS'variable_22'
p77
ag69
aS'variable_26'
p78
ag17
aS'variable_3'
p79
aS'->'
p80
aS'variable_24'
p81
ag69
aS'variable_27'
p82
ag29
aS'variable_5'
p83
ag17
aS'func_1'
p84
ag6
ag18
aS'variable_3'
p85
aS'->'
p86
aS'variable_28'
p87
ag13
ag29
aS'if'
p88
ag6
aS'variable_5'
p89
aS'=='
p90
ag49
ag13
aS'variable_2'
p91
aS'->'
p92
aS'variable_29'
p93
ag17
ag49
ag29
aS'if'
p94
ag6
ag58
aS'variable_4'
p95
aS'->'
p96
aS'variable_30'
p97
ag13
aS'variable_3'
p98
aS'->'
p99
aS'variable_31'
p100
ag17
aS'NULL'
p101
ag29
aS'variable_9'
p102
ag17
aS'func_2'
p103
ag6
ag18
aS'variable_3'
p104
aS'->'
p105
aS'variable_28'
p106
ag13
ag29
aS'if'
p107
ag6
aS'variable_9'
p108
aS'>'
p109
aS'9'
p110
ag13
aS'if'
p111
ag6
aS'variable_9'
p112
ag109
aS'4'
p113
ag13
aS'variable_9'
p114
aS'-='
p115
aS'5'
p116
ag29
aS'variable_1'
p117
aS'->'
p118
aS'variable_32'
p119
ag17
ag49
ag29
aS'variable_9'
p120
ag17
aS'variable_33'
p121
aS'['
p122
aS'variable_9'
p123
aS']'
p124
ag29
aS'variable_1'
p125
aS'->'
p126
aS'variable_9'
p127
ag17
aS'variable_9'
p128
ag29
aS'variable_1'
p129
aS'->'
p130
aS'variable_34'
p131
ag17
aS'variable_9'
p132
ag18
aS'3'
p133
ag29
aS'variable_3'
p134
aS'->'
p135
aS'variable_35'
p136
ag17
aS'variable_1'
p137
aS'->'
p138
aS'variable_9'
p139
ag29
aS'variable_6'
p140
ag17
aS'func_3'
p141
ag6
ag18
aS'variable_3'
p142
aS'->'
p143
aS'variable_28'
p144
ag13
ag29
aS'if'
p145
ag6
aS'variable_6'
p146
ag109
ag17
aS'variable_36'
p147
ag13
aS'if'
p148
ag6
ag58
aS'variable_2'
p149
aS'->'
p150
aS'variable_37'
p151
ag122
aS'variable_6'
p152
ag124
ag13
aS'variable_1'
p153
aS'->'
p154
aS'variable_38'
p155
ag17
ag8
aS'variable_2'
p156
aS'->'
p157
aS'variable_37'
p158
ag122
aS'variable_6'
p159
ag124
ag29
aS'if'
p160
ag6
ag58
aS'variable_2'
p161
aS'->'
p162
aS'variable_39'
p163
ag122
aS'variable_1'
p164
aS'->'
p165
aS'variable_38'
p166
ag69
aS'variable_40'
p167
ag124
ag13
aS'variable_41'
p168
ag8
aS'variable_42'
p169
ag17
aS'variable_2'
p170
aS'->'
p171
aS'variable_39'
p172
ag122
aS'variable_1'
p173
aS'->'
p174
aS'variable_38'
p175
ag69
aS'variable_40'
p176
ag124
ag29
aS'variable_2'
p177
aS'->'
p178
aS'variable_39'
p179
ag122
aS'variable_1'
p180
aS'->'
p181
aS'variable_38'
p182
ag69
aS'variable_40'
p183
ag124
aS'->'
p184
aS'new'
p185
ag17
aS'if'
p186
ag6
aS'variable_1'
p187
aS'->'
p188
aS'variable_43'
p189
ag69
aS'variable_44'
p190
aS'!='
p191
aS'variable_42'
p192
aS'->'
p193
aS'variable_44'
p194
aS'||'
p195
aS'variable_1'
p196
aS'->'
p197
aS'variable_43'
p198
ag69
aS'variable_45'
p199
aS'!='
p200
aS'variable_42'
p201
aS'->'
p202
aS'variable_45'
p203
ag13
aS'variable_16'
p204
ag17
aS'1'
p205
ag29
aS'variable_1'
p206
aS'->'
p207
aS'variable_46'
p208
ag17
aS'variable_1'
p209
aS'->'
p210
aS'variable_38'
p211
ag69
aS'variable_40'
p212
ag29
aS'variable_1'
p213
aS'->'
p214
aS'variable_43'
p215
ag17
ag8
aS'variable_2'
p216
aS'->'
p217
aS'variable_39'
p218
ag122
aS'variable_1'
p219
aS'->'
p220
aS'variable_38'
p221
ag69
aS'variable_40'
p222
ag124
ag29
aS'if'
p223
ag6
aS'variable_3'
p224
aS'->'
p225
aS'variable_47'
p226
aS'!='
p227
aS'variable_1'
p228
aS'->'
p229
aS'variable_43'
p230
ag69
aS'variable_47'
p231
aS'||'
p232
aS'variable_3'
p233
aS'->'
p234
aS'variable_48'
p235
aS'!='
p236
aS'variable_1'
p237
aS'->'
p238
aS'variable_43'
p239
ag69
aS'variable_48'
p240
ag8
ag6
aS'2'
p241
aS'-'
p242
aS'variable_1'
p243
aS'->'
p244
aS'variable_43'
p245
ag69
aS'variable_49'
p246
ag13
aS'||'
p247
aS'variable_3'
p248
aS'->'
p249
aS'variable_17'
p250
aS'->'
p251
aS'variable_50'
p252
aS'!='
p253
aS'variable_1'
p254
aS'->'
p255
aS'variable_43'
p256
ag69
aS'variable_45'
p257
aS'||'
p258
aS'variable_1'
p259
aS'->'
p260
aS'variable_51'
p261
aS'!='
p262
aS'variable_1'
p263
aS'->'
p264
aS'variable_43'
p265
ag69
aS'variable_44'
p266
ag13
aS'variable_16'
p267
ag17
ag205
ag29
aS'if'
p268
ag6
ag6
aS'variable_8'
p269
ag17
aS'func_4'
p270
ag6
aS'variable_1'
p271
ag13
ag13
aS'<'
p272
ag49
ag13
aS'variable_3'
p273
aS'->'
p274
aS'variable_17'
p275
aS'->'
p276
aS'variable_52'
p277
ag17
aS'func_5'
p278
ag6
ag18
aS'variable_1'
p279
aS'->'
p280
aS'variable_43'
p281
ag13
ag29
aS'variable_3'
p282
aS'->'
p283
aS'variable_17'
p284
aS'->'
p285
aS'variable_53'
p286
ag17
aS'variable_1'
p287
aS'->'
p288
aS'variable_43'
p289
ag69
aS'variable_54'
p290
ag29
aS'variable_3'
p291
aS'->'
p292
aS'variable_17'
p293
aS'->'
p294
aS'variable_55'
p295
ag17
aS'variable_1'
p296
aS'->'
p297
aS'variable_43'
p298
ag69
aS'variable_56'
p299
ag29
aS'variable_15'
p300
ag17
ag6
aS'variable_3'
p301
aS'->'
p302
aS'variable_57'
p303
aS'&&'
p304
ag6
aS'16'
p305
ag8
aS'variable_1'
p306
aS'->'
p307
aS'variable_43'
p308
ag69
aS'variable_47'
p309
aS'!='
p310
aS'variable_3'
p311
aS'->'
p312
aS'variable_17'
p313
aS'->'
p314
aS'variable_58'
p315
aS'||'
p316
aS'16'
p317
ag8
aS'variable_1'
p318
aS'->'
p319
aS'variable_43'
p320
ag69
aS'variable_48'
p321
ag8
ag6
ag241
ag242
aS'variable_1'
p322
aS'->'
p323
aS'variable_43'
p324
ag69
aS'variable_49'
p325
ag13
aS'!='
p326
aS'variable_3'
p327
aS'->'
p328
aS'variable_17'
p329
aS'->'
p330
aS'variable_59'
p331
aS'||'
p332
aS'variable_3'
p333
aS'->'
p334
aS'variable_17'
p335
aS'->'
p336
aS'variable_50'
p337
aS'!='
p338
aS'variable_1'
p339
aS'->'
p340
aS'variable_43'
p341
ag69
aS'variable_45'
p342
aS'||'
p343
aS'variable_1'
p344
aS'->'
p345
aS'variable_51'
p346
aS'!='
p347
aS'variable_1'
p348
aS'->'
p349
aS'variable_43'
p350
ag69
aS'variable_44'
p351
aS'||'
p352
aS'func_6'
p353
ag6
aS'variable_1'
p354
aS'->'
p355
aS'variable_43'
p356
ag69
aS'variable_60'
p357
ag10
aS'variable_3'
p358
aS'->'
p359
aS'variable_17'
p360
aS'->'
p361
aS'variable_61'
p362
ag13
ag13
ag13
ag29
aS'variable_3'
p363
aS'->'
p364
aS'variable_47'
p365
ag17
aS'variable_1'
p366
aS'->'
p367
aS'variable_43'
p368
ag69
aS'variable_47'
p369
ag29
aS'variable_3'
p370
aS'->'
p371
aS'variable_48'
p372
ag17
aS'variable_1'
p373
aS'->'
p374
aS'variable_43'
p375
ag69
aS'variable_48'
p376
ag8
ag6
ag241
ag242
aS'variable_1'
p377
aS'->'
p378
aS'variable_43'
p379
ag69
aS'variable_49'
p380
ag13
ag29
aS'variable_1'
p381
aS'->'
p382
aS'variable_62'
p383
ag17
aS'variable_3'
p384
aS'->'
p385
aS'variable_47'
p386
ag8
ag113
ag29
aS'variable_3'
p387
aS'->'
p388
aS'variable_63'
p389
ag17
aS'variable_1'
p390
aS'->'
p391
aS'variable_43'
p392
ag69
aS'variable_44'
p393
ag272
ag17
ag205
ag29
aS'variable_3'
p394
aS'->'
p395
aS'variable_64'
p396
ag17
aS'16'
p397
ag8
aS'variable_3'
p398
aS'->'
p399
aS'variable_47'
p400
ag29
aS'variable_3'
p401
aS'->'
p402
aS'variable_65'
p403
ag17
aS'16'
p404
ag8
aS'variable_3'
p405
aS'->'
p406
aS'variable_48'
p407
ag29
aS'if'
p408
ag6
aS'variable_1'
p409
aS'->'
p410
aS'variable_43'
p411
ag69
aS'variable_66'
p412
ag13
aS'variable_3'
p413
aS'->'
p414
aS'variable_17'
p415
aS'->'
p416
aS'variable_67'
p417
ag17
aS'variable_1'
p418
aS'->'
p419
aS'variable_43'
p420
ag69
aS'variable_68'
p421
ag109
ag49
aS'?'
p422
aS'variable_69'
p423
aS':'
p424
aS'variable_70'
p425
ag29
aS'if'
p426
ag6
aS'variable_1'
p427
aS'->'
p428
aS'variable_43'
p429
ag69
aS'variable_71'
p430
ag13
aS'if'
p431
ag6
aS'variable_3'
p432
aS'->'
p433
aS'variable_17'
p434
aS'->'
p435
aS'variable_72'
p436
aS'!='
p437
aS'variable_1'
p438
aS'->'
p439
aS'variable_43'
p440
ag69
aS'variable_72'
p441
ag13
aS'variable_16'
p442
ag17
ag205
ag29
aS'variable_3'
p443
aS'->'
p444
aS'variable_17'
p445
aS'->'
p446
aS'variable_73'
p447
ag17
aS'variable_1'
p448
aS'->'
p449
aS'variable_43'
p450
ag69
aS'variable_73'
p451
ag29
aS'variable_3'
p452
aS'->'
p453
aS'variable_17'
p454
aS'->'
p455
aS'variable_74'
p456
ag17
aS'variable_1'
p457
aS'->'
p458
aS'variable_43'
p459
ag69
aS'variable_74'
p460
ag29
aS'variable_3'
p461
aS'->'
p462
aS'variable_17'
p463
aS'->'
p464
aS'variable_72'
p465
ag17
aS'variable_1'
p466
aS'->'
p467
aS'variable_43'
p468
ag69
aS'variable_72'
p469
ag29
aS'if'
p470
ag6
aS'variable_3'
p471
aS'->'
p472
aS'variable_57'
p473
aS'&&'
p474
ag6
aS'variable_16'
p475
aS'||'
p476
aS'variable_15'
p477
ag13
ag13
aS'if'
p478
ag6
aS'variable_1'
p479
aS'!='
p480
aS'variable_2'
p481
ag13
aS'if'
p482
ag6
ag6
aS'variable_8'
p483
ag17
aS'func_7'
p484
ag6
aS'variable_1'
p485
ag13
ag13
ag272
ag49
ag13
aS'variable_3'
p486
aS'->'
p487
aS'variable_17'
p488
aS'->'
p489
aS'variable_75'
p490
ag17
aS'variable_8'
p491
ag29
aS'if'
p492
ag6
ag6
aS'variable_8'
p493
ag17
aS'func_8'
p494
ag6
aS'variable_1'
p495
ag10
ag205
ag13
ag13
ag272
ag49
ag13
aS'variable_1'
p496
aS'->'
p497
aS'variable_76'
p498
ag17
ag205
ag29
aS'if'
p499
ag6
ag58
aS'variable_3'
p500
aS'->'
p501
aS'variable_57'
p502
ag13
aS'if'
p503
ag6
aS'variable_1'
p504
aS'!='
p505
aS'variable_2'
p506
ag13
aS'if'
p507
ag6
ag6
aS'variable_8'
p508
ag17
aS'func_9'
p509
ag6
aS'variable_1'
p510
ag13
ag13
ag272
ag49
ag13
aS'variable_3'
p511
aS'->'
p512
aS'variable_17'
p513
aS'->'
p514
aS'variable_75'
p515
ag17
aS'variable_8'
p516
ag29
aS'if'
p517
ag6
ag6
aS'variable_8'
p518
ag17
aS'func_10'
p519
ag6
aS'variable_1'
p520
ag10
ag49
ag13
ag13
ag272
ag49
ag13
aS'if'
p521
ag6
aS'variable_1'
p522
aS'=='
p523
aS'variable_2'
p524
aS'&&'
p525
aS'variable_1'
p526
aS'->'
p527
aS'variable_77'
p528
aS'!='
p529
aS'variable_6'
p530
ag13
aS'variable_1'
p531
aS'->'
p532
aS'variable_77'
p533
ag17
aS'variable_6'
p534
ag29
aS'variable_1'
p535
aS'->'
p536
aS'variable_78'
p537
ag17
aS'func_11'
p538
ag6
ag18
aS'variable_3'
p539
aS'->'
p540
aS'variable_28'
p541
ag10
aS'variable_1'
p542
aS'->'
p543
aS'variable_43'
p544
ag69
aS'variable_79'
p545
ag13
ag29
aS'variable_1'
p546
aS'->'
p547
aS'variable_80'
p548
ag17
ag49
ag29
aS'variable_1'
p549
aS'->'
p550
aS'variable_81'
p551
ag17
ag49
ag29
aS'variable_13'
p552
ag17
aS'variable_4'
p553
aS'->'
p554
aS'variable_82'
p555
ag29
aS'variable_14'
p556
ag17
aS'variable_4'
p557
aS'->'
p558
aS'variable_83'
p559
ag29
aS'variable_3'
p560
aS'->'
p561
aS'variable_83'
p562
ag17
aS'variable_1'
p563
aS'->'
p564
aS'variable_20'
p565
aS'=='
p566
ag49
ag29
aS'if'
p567
ag6
aS'variable_1'
p568
aS'->'
p569
aS'variable_43'
p570
ag69
aS'variable_49'
p571
ag13
aS'variable_3'
p572
aS'->'
p573
aS'variable_82'
p574
ag17
aS'variable_84'
p575
ag29
aS'if'
p576
ag6
ag58
aS'variable_1'
p577
aS'->'
p578
aS'variable_43'
p579
ag69
aS'variable_85'
p580
aS'&&'
p581
aS'variable_9'
p582
aS'=='
p583
aS'variable_86'
p584
ag13
aS'if'
p585
ag6
aS'func_12'
p586
ag6
ag18
aS'variable_3'
p587
aS'->'
p588
aS'variable_28'
p589
ag13
ag13
aS'variable_3'
p590
aS'->'
p591
aS'variable_82'
p592
ag17
aS'variable_87'
p593
aS'+'
p594
aS'func_13'
p595
ag6
ag18
aS'variable_3'
p596
aS'->'
p597
aS'variable_28'
p598
ag13
ag29
aS'variable_3'
p599
aS'->'
p600
aS'variable_82'
p601
ag17
aS'variable_84'
p602
ag29
aS'variable_1'
p603
aS'->'
p604
aS'variable_81'
p605
ag17
aS'variable_1'
p606
aS'->'
p607
aS'variable_43'
p608
ag69
aS'variable_88'
p609
ag29
aS'variable_1'
p610
aS'->'
p611
aS'variable_89'
p612
ag17
aS'variable_3'
p613
aS'->'
p614
aS'variable_82'
p615
aS'!='
p616
aS'variable_84'
p617
ag29
aS'if'
p618
ag6
aS'variable_2'
p619
aS'->'
p620
aS'variable_29'
p621
aS'!='
p622
ag49
ag13
aS'if'
p623
ag6
aS'variable_1'
p624
aS'->'
p625
aS'variable_78'
p626
aS'!='
p627
aS'variable_1'
p628
aS'->'
p629
aS'variable_90'
p630
aS'&&'
p631
aS'variable_1'
p632
aS'->'
p633
aS'variable_90'
p634
ag109
ag17
ag49
ag13
aS'int'
p635
aS'variable_91'
p636
ag17
aS'variable_1'
p637
aS'->'
p638
aS'variable_90'
p639
ag29
aS'int'
p640
aS'variable_92'
p641
ag17
ag205
aS'<<'
p642
aS'variable_1'
p643
aS'->'
p644
aS'variable_43'
p645
ag69
aS'variable_79'
p646
ag29
aS'if'
p647
ag6
aS'variable_91'
p648
ag109
aS'variable_1'
p649
aS'->'
p650
aS'variable_78'
p651
ag13
aS'variable_91'
p652
aS'-='
p653
aS'variable_92'
p654
ag29
aS'if'
p655
ag6
ag6
aS'variable_1'
p656
aS'->'
p657
aS'variable_78'
p658
ag242
aS'variable_91'
p659
ag13
ag109
aS'variable_1'
p660
aS'->'
p661
aS'variable_43'
p662
ag69
aS'variable_56'
p663
ag13
aS'variable_91'
p664
ag17
ag6
aS'variable_1'
p665
aS'->'
p666
aS'variable_78'
p667
ag242
aS'variable_1'
p668
aS'->'
p669
aS'variable_43'
p670
ag69
aS'variable_56'
p671
ag13
ag242
ag205
ag29
aS'if'
p672
ag6
aS'variable_91'
p673
ag272
ag49
ag13
aS'variable_91'
p674
aS'+='
p675
aS'variable_92'
p676
ag29
aS'variable_1'
p677
aS'->'
p678
aS'variable_90'
p679
ag17
aS'variable_91'
p680
ag29
aS'if'
p681
ag6
aS'variable_4'
p682
aS'->'
p683
aS'variable_30'
p684
ag13
aS'if'
p685
ag6
ag58
aS'variable_93'
p686
aS'||'
p687
aS'variable_3'
p688
aS'->'
p689
aS'variable_82'
p690
aS'=='
p691
aS'variable_13'
p692
ag13
aS'if'
p693
ag6
aS'variable_4'
p694
aS'->'
p695
aS'variable_31'
p696
aS'->'
p697
aS'variable_78'
p698
aS'!='
p699
aS'variable_1'
p700
aS'->'
p701
aS'variable_78'
p702
ag13
aS'if'
p703
ag6
ag58
ag6
ag6
aS'variable_13'
p704
aS'=='
p705
aS'variable_87'
p706
aS'&&'
p707
aS'variable_3'
p708
aS'->'
p709
aS'variable_82'
p710
aS'=='
p711
aS'variable_94'
p712
ag13
aS'||'
p713
ag6
aS'variable_13'
p714
aS'=='
p715
aS'variable_94'
p716
aS'&&'
p717
aS'variable_3'
p718
aS'->'
p719
aS'variable_82'
p720
aS'=='
p721
aS'variable_87'
p722
ag13
ag13
ag13
aS'if'
p723
ag6
aS'variable_14'
p724
aS'!='
p725
aS'variable_3'
p726
aS'->'
p727
aS'variable_83'
p728
ag13
aS'variable_3'
p729
aS'->'
p730
aS'variable_82'
p731
ag17
aS'variable_13'
p732
ag29
aS'variable_3'
p733
aS'->'
p734
aS'variable_83'
p735
ag17
aS'variable_14'
p736
ag29
aS'variable_4'
p737
aS'->'
p738
aS'variable_31'
p739
aS'->'
p740
aS'variable_95'
p741
ag17
aS'variable_4'
p742
ag29
aS'while'
p743
ag6
aS'variable_1'
p744
aS'->'
p745
aS'variable_78'
p746
aS'!='
p747
aS'variable_1'
p748
aS'->'
p749
aS'variable_90'
p750
aS'&&'
p751
aS'variable_1'
p752
aS'->'
p753
aS'variable_90'
p754
ag109
ag17
ag49
aS'&&'
p755
ag58
aS'variable_4'
p756
aS'->'
p757
aS'variable_30'
p758
aS'&&'
p759
aS'variable_1'
p760
aS'->'
p761
aS'variable_78'
p762
aS'!='
p763
ag6
aS'variable_1'
p764
aS'->'
p765
aS'variable_90'
p766
ag594
ag205
ag13
aS'%'
p767
ag6
ag205
aS'<<'
p768
aS'variable_1'
p769
aS'->'
p770
aS'variable_43'
p771
ag69
aS'variable_79'
p772
ag13
ag13
aS'if'
p773
ag6
aS'func_14'
p774
ag6
aS'variable_1'
p775
ag13
ag272
ag49
ag13
aS'variable_1'
p776
aS'->'
p777
aS'variable_90'
p778
aS'++'
p779
ag29
aS'variable_1'
p780
aS'->'
p781
aS'variable_90'
p782
ag767
ag17
ag205
aS'<<'
p783
aS'variable_1'
p784
aS'->'
p785
aS'variable_43'
p786
ag69
aS'variable_79'
p787
ag29
aS'variable_3'
p788
aS'->'
p789
aS'variable_31'
p790
aS'->'
p791
aS'variable_78'
p792
ag17
aS'variable_1'
p793
aS'->'
p794
aS'variable_90'
p795
ag29
aS'if'
p796
ag6
ag6
aS'variable_8'
p797
ag17
aS'func_15'
p798
ag6
aS'variable_1'
p799
ag10
ag205
ag13
ag13
ag272
ag49
aS'&&'
p800
aS'variable_3'
p801
aS'->'
p802
aS'variable_17'
p803
aS'->'
p804
aS'variable_96'
p805
ag18
aS'variable_97'
p806
ag13
aS'if'
p807
ag6
aS'func_16'
p808
ag6
aS'variable_1'
p809
ag10
aS'variable_1'
p810
aS'->'
p811
aS'variable_98'
p812
ag10
aS'variable_1'
p813
aS'->'
p814
aS'variable_99'
p815
ag13
ag272
ag49
aS'&&'
p816
ag6
aS'variable_3'
p817
aS'->'
p818
aS'variable_17'
p819
aS'->'
p820
aS'variable_96'
p821
ag18
aS'variable_97'
p822
ag13
ag13
aS'if'
p823
ag6
aS'variable_4'
p824
aS'->'
p825
aS'variable_30'
p826
ag13
aS'assert'
p827
ag6
aS'variable_4'
p828
aS'->'
p829
aS'variable_31'
p830
aS'->'
p831
aS'variable_100'
p832
ag69
aS'variable_101'
p833
aS'!='
p834
aS'variable_102'
p835
ag13
ag29
aa(lp836
S'static'
p837
aS'int'
p838
aS'func_0'
p839
ag6
aS'variable_0'
p840
ag8
aS'variable_1'
p841
ag10
aS'variable_0'
p842
ag8
aS'variable_2'
p843
ag13
aS'MpegEncContext'
p844
ag8
aS'const'
p845
aS'variable_3'
p846
ag17
ag18
aS'variable_1'
p847
aS'->'
p848
aS'MpegEncContext'
p849
ag8
aS'const'
p850
aS'variable_4'
p851
ag17
ag18
aS'variable_2'
p852
aS'->'
p853
aS'unsigned'
p854
aS'int'
p855
aS'variable_5'
p856
ag29
aS'unsigned'
p857
aS'int'
p858
aS'variable_6'
p859
ag29
aS'int'
p860
aS'variable_7'
p861
ag10
aS'variable_8'
p862
ag29
aS'unsigned'
p863
aS'int'
p864
aS'variable_9'
p865
ag10
aS'variable_10'
p866
ag10
aS'variable_11'
p867
ag10
aS'variable_12'
p868
ag29
aS'int'
p869
aS'variable_13'
p870
ag10
aS'variable_14'
p871
ag29
aS'int'
p872
aS'variable_15'
p873
ag29
aS'int'
p874
aS'variable_16'
p875
ag17
ag49
ag29
aS'if'
p876
ag6
ag6
aS'variable_3'
p877
aS'->'
p878
aS'variable_17'
p879
aS'->'
p880
aS'variable_18'
p881
ag18
aS'variable_19'
p882
ag13
aS'&&'
p883
ag58
aS'variable_1'
p884
aS'->'
p885
aS'variable_20'
p886
aS'&&'
p887
ag58
aS'variable_1'
p888
aS'->'
p889
aS'variable_21'
p890
ag13
aS'variable_3'
p891
aS'->'
p892
aS'variable_22'
p893
ag69
aS'variable_23'
p894
ag17
aS'variable_3'
p895
aS'->'
p896
aS'variable_24'
p897
ag69
aS'variable_25'
p898
ag29
aS'variable_3'
p899
aS'->'
p900
aS'variable_22'
p901
ag69
aS'variable_26'
p902
ag17
aS'variable_3'
p903
aS'->'
p904
aS'variable_24'
p905
ag69
aS'variable_27'
p906
ag29
aS'variable_5'
p907
ag17
aS'func_1'
p908
ag6
ag18
aS'variable_3'
p909
aS'->'
p910
aS'variable_28'
p911
ag13
ag29
aS'if'
p912
ag6
aS'variable_5'
p913
aS'=='
p914
ag49
ag13
aS'variable_2'
p915
aS'->'
p916
aS'variable_29'
p917
ag17
ag49
ag29
aS'if'
p918
ag6
ag58
aS'variable_4'
p919
aS'->'
p920
aS'variable_30'
p921
ag13
aS'variable_3'
p922
aS'->'
p923
aS'variable_31'
p924
ag17
aS'NULL'
p925
ag29
aS'variable_9'
p926
ag17
aS'func_2'
p927
ag6
ag18
aS'variable_3'
p928
aS'->'
p929
aS'variable_28'
p930
ag13
ag29
aS'if'
p931
ag6
aS'variable_9'
p932
ag109
ag110
ag13
aS'if'
p933
ag6
aS'variable_9'
p934
ag109
ag113
ag13
aS'variable_9'
p935
aS'-='
p936
ag116
ag29
aS'variable_1'
p937
aS'->'
p938
aS'variable_32'
p939
ag17
ag49
ag29
aS'variable_9'
p940
ag17
aS'variable_33'
p941
ag122
aS'variable_9'
p942
ag124
ag29
aS'variable_1'
p943
aS'->'
p944
aS'variable_9'
p945
ag17
aS'variable_9'
p946
ag29
aS'variable_1'
p947
aS'->'
p948
aS'variable_34'
p949
ag17
aS'variable_9'
p950
ag18
ag133
ag29
aS'variable_3'
p951
aS'->'
p952
aS'variable_35'
p953
ag17
aS'variable_1'
p954
aS'->'
p955
aS'variable_9'
p956
ag29
aS'variable_6'
p957
ag17
aS'func_3'
p958
ag6
ag18
aS'variable_3'
p959
aS'->'
p960
aS'variable_28'
p961
ag13
ag29
aS'if'
p962
ag6
aS'variable_6'
p963
ag109
ag17
aS'variable_36'
p964
ag13
aS'if'
p965
ag6
ag58
aS'variable_2'
p966
aS'->'
p967
aS'variable_37'
p968
ag122
aS'variable_6'
p969
ag124
ag13
aS'variable_1'
p970
aS'->'
p971
aS'variable_38'
p972
ag17
ag8
aS'variable_2'
p973
aS'->'
p974
aS'variable_37'
p975
ag122
aS'variable_6'
p976
ag124
ag29
aS'if'
p977
ag6
ag58
aS'variable_2'
p978
aS'->'
p979
aS'variable_39'
p980
ag122
aS'variable_1'
p981
aS'->'
p982
aS'variable_38'
p983
ag69
aS'variable_40'
p984
ag124
ag13
aS'variable_41'
p985
ag8
aS'variable_42'
p986
ag17
aS'variable_2'
p987
aS'->'
p988
aS'variable_39'
p989
ag122
aS'variable_1'
p990
aS'->'
p991
aS'variable_38'
p992
ag69
aS'variable_40'
p993
ag124
ag29
aS'variable_2'
p994
aS'->'
p995
aS'variable_39'
p996
ag122
aS'variable_1'
p997
aS'->'
p998
aS'variable_38'
p999
ag69
aS'variable_40'
p1000
ag124
aS'->'
p1001
aS'new'
p1002
ag17
aS'if'
p1003
ag6
aS'variable_1'
p1004
aS'->'
p1005
aS'variable_43'
p1006
ag69
aS'variable_44'
p1007
aS'!='
p1008
aS'variable_42'
p1009
aS'->'
p1010
aS'variable_44'
p1011
aS'||'
p1012
aS'variable_1'
p1013
aS'->'
p1014
aS'variable_43'
p1015
ag69
aS'variable_45'
p1016
aS'!='
p1017
aS'variable_42'
p1018
aS'->'
p1019
aS'variable_45'
p1020
ag13
aS'variable_16'
p1021
ag17
ag205
ag29
aS'variable_1'
p1022
aS'->'
p1023
aS'variable_46'
p1024
ag17
aS'variable_1'
p1025
aS'->'
p1026
aS'variable_38'
p1027
ag69
aS'variable_40'
p1028
ag29
aS'variable_1'
p1029
aS'->'
p1030
aS'variable_43'
p1031
ag17
ag8
aS'variable_2'
p1032
aS'->'
p1033
aS'variable_39'
p1034
ag122
aS'variable_1'
p1035
aS'->'
p1036
aS'variable_38'
p1037
ag69
aS'variable_40'
p1038
ag124
ag29
aS'if'
p1039
ag6
aS'variable_3'
p1040
aS'->'
p1041
aS'variable_47'
p1042
aS'!='
p1043
aS'variable_1'
p1044
aS'->'
p1045
aS'variable_43'
p1046
ag69
aS'variable_47'
p1047
aS'||'
p1048
aS'variable_3'
p1049
aS'->'
p1050
aS'variable_48'
p1051
aS'!='
p1052
aS'variable_1'
p1053
aS'->'
p1054
aS'variable_43'
p1055
ag69
aS'variable_48'
p1056
ag8
ag6
ag241
ag242
aS'variable_1'
p1057
aS'->'
p1058
aS'variable_43'
p1059
ag69
aS'variable_49'
p1060
ag13
aS'||'
p1061
aS'variable_3'
p1062
aS'->'
p1063
aS'variable_17'
p1064
aS'->'
p1065
aS'variable_50'
p1066
aS'!='
p1067
aS'variable_1'
p1068
aS'->'
p1069
aS'variable_43'
p1070
ag69
aS'variable_45'
p1071
aS'||'
p1072
aS'variable_1'
p1073
aS'->'
p1074
aS'variable_51'
p1075
aS'!='
p1076
aS'variable_1'
p1077
aS'->'
p1078
aS'variable_43'
p1079
ag69
aS'variable_44'
p1080
ag13
aS'variable_16'
p1081
ag17
ag205
ag29
aS'if'
p1082
ag6
ag6
aS'variable_8'
p1083
ag17
aS'func_4'
p1084
ag6
aS'variable_1'
p1085
ag13
ag13
ag272
ag49
ag13
aS'variable_3'
p1086
aS'->'
p1087
aS'variable_17'
p1088
aS'->'
p1089
aS'variable_52'
p1090
ag17
aS'func_5'
p1091
ag6
ag18
aS'variable_1'
p1092
aS'->'
p1093
aS'variable_43'
p1094
ag13
ag29
aS'variable_3'
p1095
aS'->'
p1096
aS'variable_17'
p1097
aS'->'
p1098
aS'variable_53'
p1099
ag17
aS'variable_1'
p1100
aS'->'
p1101
aS'variable_43'
p1102
ag69
aS'variable_54'
p1103
ag29
aS'variable_3'
p1104
aS'->'
p1105
aS'variable_17'
p1106
aS'->'
p1107
aS'variable_55'
p1108
ag17
aS'variable_1'
p1109
aS'->'
p1110
aS'variable_43'
p1111
ag69
aS'variable_56'
p1112
ag29
aS'variable_15'
p1113
ag17
ag6
aS'variable_3'
p1114
aS'->'
p1115
aS'variable_57'
p1116
aS'&&'
p1117
ag6
aS'16'
p1118
ag8
aS'variable_1'
p1119
aS'->'
p1120
aS'variable_43'
p1121
ag69
aS'variable_47'
p1122
aS'!='
p1123
aS'variable_3'
p1124
aS'->'
p1125
aS'variable_17'
p1126
aS'->'
p1127
aS'variable_58'
p1128
aS'||'
p1129
aS'16'
p1130
ag8
aS'variable_1'
p1131
aS'->'
p1132
aS'variable_43'
p1133
ag69
aS'variable_48'
p1134
ag8
ag6
ag241
ag242
aS'variable_1'
p1135
aS'->'
p1136
aS'variable_43'
p1137
ag69
aS'variable_49'
p1138
ag13
aS'!='
p1139
aS'variable_3'
p1140
aS'->'
p1141
aS'variable_17'
p1142
aS'->'
p1143
aS'variable_59'
p1144
aS'||'
p1145
aS'variable_3'
p1146
aS'->'
p1147
aS'variable_17'
p1148
aS'->'
p1149
aS'variable_50'
p1150
aS'!='
p1151
aS'variable_1'
p1152
aS'->'
p1153
aS'variable_43'
p1154
ag69
aS'variable_45'
p1155
aS'||'
p1156
aS'variable_1'
p1157
aS'->'
p1158
aS'variable_51'
p1159
aS'!='
p1160
aS'variable_1'
p1161
aS'->'
p1162
aS'variable_43'
p1163
ag69
aS'variable_44'
p1164
aS'||'
p1165
aS'func_6'
p1166
ag6
aS'variable_1'
p1167
aS'->'
p1168
aS'variable_43'
p1169
ag69
aS'variable_60'
p1170
ag10
aS'variable_3'
p1171
aS'->'
p1172
aS'variable_17'
p1173
aS'->'
p1174
aS'variable_61'
p1175
ag13
ag13
ag13
ag29
aS'variable_3'
p1176
aS'->'
p1177
aS'variable_47'
p1178
ag17
aS'variable_1'
p1179
aS'->'
p1180
aS'variable_43'
p1181
ag69
aS'variable_47'
p1182
ag29
aS'variable_3'
p1183
aS'->'
p1184
aS'variable_48'
p1185
ag17
aS'variable_1'
p1186
aS'->'
p1187
aS'variable_43'
p1188
ag69
aS'variable_48'
p1189
ag8
ag6
ag241
ag242
aS'variable_1'
p1190
aS'->'
p1191
aS'variable_43'
p1192
ag69
aS'variable_49'
p1193
ag13
ag29
aS'variable_1'
p1194
aS'->'
p1195
aS'variable_62'
p1196
ag17
aS'variable_3'
p1197
aS'->'
p1198
aS'variable_47'
p1199
ag8
ag113
ag29
aS'variable_3'
p1200
aS'->'
p1201
aS'variable_63'
p1202
ag17
aS'variable_1'
p1203
aS'->'
p1204
aS'variable_43'
p1205
ag69
aS'variable_44'
p1206
ag272
ag17
ag205
ag29
aS'variable_3'
p1207
aS'->'
p1208
aS'variable_64'
p1209
ag17
aS'16'
p1210
ag8
aS'variable_3'
p1211
aS'->'
p1212
aS'variable_47'
p1213
ag29
aS'variable_3'
p1214
aS'->'
p1215
aS'variable_65'
p1216
ag17
aS'16'
p1217
ag8
aS'variable_3'
p1218
aS'->'
p1219
aS'variable_48'
p1220
ag29
aS'if'
p1221
ag6
aS'variable_1'
p1222
aS'->'
p1223
aS'variable_43'
p1224
ag69
aS'variable_66'
p1225
ag13
aS'variable_3'
p1226
aS'->'
p1227
aS'variable_17'
p1228
aS'->'
p1229
aS'variable_67'
p1230
ag17
aS'variable_1'
p1231
aS'->'
p1232
aS'variable_43'
p1233
ag69
aS'variable_68'
p1234
ag109
ag49
ag422
aS'variable_69'
p1235
ag424
aS'variable_70'
p1236
ag29
aS'if'
p1237
ag6
aS'variable_1'
p1238
aS'->'
p1239
aS'variable_43'
p1240
ag69
aS'variable_71'
p1241
ag13
aS'if'
p1242
ag6
aS'variable_3'
p1243
aS'->'
p1244
aS'variable_17'
p1245
aS'->'
p1246
aS'variable_72'
p1247
aS'!='
p1248
aS'variable_1'
p1249
aS'->'
p1250
aS'variable_43'
p1251
ag69
aS'variable_72'
p1252
ag13
aS'variable_16'
p1253
ag17
ag205
ag29
aS'variable_3'
p1254
aS'->'
p1255
aS'variable_17'
p1256
aS'->'
p1257
aS'variable_73'
p1258
ag17
aS'variable_1'
p1259
aS'->'
p1260
aS'variable_43'
p1261
ag69
aS'variable_73'
p1262
ag29
aS'variable_3'
p1263
aS'->'
p1264
aS'variable_17'
p1265
aS'->'
p1266
aS'variable_74'
p1267
ag17
aS'variable_1'
p1268
aS'->'
p1269
aS'variable_43'
p1270
ag69
aS'variable_74'
p1271
ag29
aS'variable_3'
p1272
aS'->'
p1273
aS'variable_17'
p1274
aS'->'
p1275
aS'variable_72'
p1276
ag17
aS'variable_1'
p1277
aS'->'
p1278
aS'variable_43'
p1279
ag69
aS'variable_72'
p1280
ag29
aS'if'
p1281
ag6
aS'variable_3'
p1282
aS'->'
p1283
aS'variable_57'
p1284
aS'&&'
p1285
ag6
aS'variable_16'
p1286
aS'||'
p1287
aS'variable_15'
p1288
ag13
ag13
aS'if'
p1289
ag6
aS'variable_1'
p1290
aS'!='
p1291
aS'variable_2'
p1292
ag13
aS'if'
p1293
ag6
ag6
aS'variable_8'
p1294
ag17
aS'func_7'
p1295
ag6
aS'variable_1'
p1296
ag13
ag13
ag272
ag49
ag13
aS'variable_3'
p1297
aS'->'
p1298
aS'variable_17'
p1299
aS'->'
p1300
aS'variable_75'
p1301
ag17
aS'variable_8'
p1302
ag29
aS'if'
p1303
ag6
ag6
aS'variable_8'
p1304
ag17
aS'func_8'
p1305
ag6
aS'variable_1'
p1306
ag10
ag205
ag13
ag13
ag272
ag49
ag13
aS'variable_1'
p1307
aS'->'
p1308
aS'variable_76'
p1309
ag17
ag205
ag29
aS'if'
p1310
ag6
ag58
aS'variable_3'
p1311
aS'->'
p1312
aS'variable_57'
p1313
ag13
aS'if'
p1314
ag6
aS'variable_1'
p1315
aS'!='
p1316
aS'variable_2'
p1317
ag13
aS'if'
p1318
ag6
ag6
aS'variable_8'
p1319
ag17
aS'func_9'
p1320
ag6
aS'variable_1'
p1321
ag13
ag13
ag272
ag49
ag13
aS'variable_3'
p1322
aS'->'
p1323
aS'variable_17'
p1324
aS'->'
p1325
aS'variable_75'
p1326
ag17
aS'variable_8'
p1327
ag29
aS'if'
p1328
ag6
ag6
aS'variable_8'
p1329
ag17
aS'func_10'
p1330
ag6
aS'variable_1'
p1331
ag10
ag49
ag13
ag13
ag272
ag49
ag13
aS'if'
p1332
ag6
aS'variable_1'
p1333
aS'=='
p1334
aS'variable_2'
p1335
aS'&&'
p1336
aS'variable_1'
p1337
aS'->'
p1338
aS'variable_77'
p1339
aS'!='
p1340
aS'variable_6'
p1341
ag13
aS'variable_1'
p1342
aS'->'
p1343
aS'variable_77'
p1344
ag17
aS'variable_6'
p1345
ag29
aS'variable_1'
p1346
aS'->'
p1347
aS'variable_78'
p1348
ag17
aS'func_11'
p1349
ag6
ag18
aS'variable_3'
p1350
aS'->'
p1351
aS'variable_28'
p1352
ag10
aS'variable_1'
p1353
aS'->'
p1354
aS'variable_43'
p1355
ag69
aS'variable_79'
p1356
ag13
ag29
aS'variable_1'
p1357
aS'->'
p1358
aS'variable_80'
p1359
ag17
ag49
ag29
aS'variable_1'
p1360
aS'->'
p1361
aS'variable_81'
p1362
ag17
ag49
ag29
aS'variable_13'
p1363
ag17
aS'variable_4'
p1364
aS'->'
p1365
aS'variable_82'
p1366
ag29
aS'variable_14'
p1367
ag17
aS'variable_4'
p1368
aS'->'
p1369
aS'variable_83'
p1370
ag29
aS'variable_3'
p1371
aS'->'
p1372
aS'variable_83'
p1373
ag17
aS'variable_1'
p1374
aS'->'
p1375
aS'variable_20'
p1376
aS'=='
p1377
ag49
ag29
aS'if'
p1378
ag6
aS'variable_1'
p1379
aS'->'
p1380
aS'variable_43'
p1381
ag69
aS'variable_49'
p1382
ag13
aS'variable_3'
p1383
aS'->'
p1384
aS'variable_82'
p1385
ag17
aS'variable_84'
p1386
ag29
aS'if'
p1387
ag6
ag58
aS'variable_1'
p1388
aS'->'
p1389
aS'variable_43'
p1390
ag69
aS'variable_85'
p1391
aS'&&'
p1392
aS'variable_9'
p1393
aS'=='
p1394
aS'variable_86'
p1395
ag13
aS'if'
p1396
ag6
aS'func_12'
p1397
ag6
ag18
aS'variable_3'
p1398
aS'->'
p1399
aS'variable_28'
p1400
ag13
ag13
aS'variable_3'
p1401
aS'->'
p1402
aS'variable_82'
p1403
ag17
aS'variable_87'
p1404
ag594
aS'func_13'
p1405
ag6
ag18
aS'variable_3'
p1406
aS'->'
p1407
aS'variable_28'
p1408
ag13
ag29
aS'variable_3'
p1409
aS'->'
p1410
aS'variable_82'
p1411
ag17
aS'variable_84'
p1412
ag29
aS'variable_1'
p1413
aS'->'
p1414
aS'variable_81'
p1415
ag17
aS'variable_1'
p1416
aS'->'
p1417
aS'variable_43'
p1418
ag69
aS'variable_88'
p1419
ag29
aS'variable_1'
p1420
aS'->'
p1421
aS'variable_89'
p1422
ag17
aS'variable_3'
p1423
aS'->'
p1424
aS'variable_82'
p1425
aS'!='
p1426
aS'variable_84'
p1427
ag29
aS'if'
p1428
ag6
aS'variable_2'
p1429
aS'->'
p1430
aS'variable_29'
p1431
aS'!='
p1432
ag49
ag13
aS'if'
p1433
ag6
aS'variable_1'
p1434
aS'->'
p1435
aS'variable_78'
p1436
aS'!='
p1437
aS'variable_1'
p1438
aS'->'
p1439
aS'variable_90'
p1440
aS'&&'
p1441
aS'variable_1'
p1442
aS'->'
p1443
aS'variable_90'
p1444
ag109
ag17
ag49
ag13
aS'int'
p1445
aS'variable_91'
p1446
ag17
aS'variable_1'
p1447
aS'->'
p1448
aS'variable_90'
p1449
ag29
aS'int'
p1450
aS'variable_92'
p1451
ag17
ag205
aS'<<'
p1452
aS'variable_1'
p1453
aS'->'
p1454
aS'variable_43'
p1455
ag69
aS'variable_79'
p1456
ag29
aS'if'
p1457
ag6
aS'variable_91'
p1458
ag109
aS'variable_1'
p1459
aS'->'
p1460
aS'variable_78'
p1461
ag13
aS'variable_91'
p1462
aS'-='
p1463
aS'variable_92'
p1464
ag29
aS'if'
p1465
ag6
ag6
aS'variable_1'
p1466
aS'->'
p1467
aS'variable_78'
p1468
ag242
aS'variable_91'
p1469
ag13
ag109
aS'variable_1'
p1470
aS'->'
p1471
aS'variable_43'
p1472
ag69
aS'variable_56'
p1473
ag13
aS'variable_91'
p1474
ag17
ag6
aS'variable_1'
p1475
aS'->'
p1476
aS'variable_78'
p1477
ag242
aS'variable_1'
p1478
aS'->'
p1479
aS'variable_43'
p1480
ag69
aS'variable_56'
p1481
ag13
ag242
ag205
ag29
aS'if'
p1482
ag6
aS'variable_91'
p1483
ag272
ag49
ag13
aS'variable_91'
p1484
aS'+='
p1485
aS'variable_92'
p1486
ag29
aS'variable_1'
p1487
aS'->'
p1488
aS'variable_90'
p1489
ag17
aS'variable_91'
p1490
ag29
aS'if'
p1491
ag6
aS'variable_4'
p1492
aS'->'
p1493
aS'variable_30'
p1494
ag13
aS'if'
p1495
ag6
ag58
aS'variable_93'
p1496
aS'||'
p1497
aS'variable_3'
p1498
aS'->'
p1499
aS'variable_82'
p1500
aS'=='
p1501
aS'variable_13'
p1502
ag13
aS'if'
p1503
ag6
aS'variable_4'
p1504
aS'->'
p1505
aS'variable_31'
p1506
aS'->'
p1507
aS'variable_78'
p1508
aS'!='
p1509
aS'variable_1'
p1510
aS'->'
p1511
aS'variable_78'
p1512
ag13
aS'if'
p1513
ag6
ag58
ag6
ag6
aS'variable_13'
p1514
aS'=='
p1515
aS'variable_87'
p1516
aS'&&'
p1517
aS'variable_3'
p1518
aS'->'
p1519
aS'variable_82'
p1520
aS'=='
p1521
aS'variable_94'
p1522
ag13
aS'||'
p1523
ag6
aS'variable_13'
p1524
aS'=='
p1525
aS'variable_94'
p1526
aS'&&'
p1527
aS'variable_3'
p1528
aS'->'
p1529
aS'variable_82'
p1530
aS'=='
p1531
aS'variable_87'
p1532
ag13
ag13
ag13
aS'if'
p1533
ag6
aS'variable_14'
p1534
aS'!='
p1535
aS'variable_3'
p1536
aS'->'
p1537
aS'variable_83'
p1538
ag13
aS'variable_3'
p1539
aS'->'
p1540
aS'variable_82'
p1541
ag17
aS'variable_13'
p1542
ag29
aS'variable_3'
p1543
aS'->'
p1544
aS'variable_83'
p1545
ag17
aS'variable_14'
p1546
ag29
aS'variable_4'
p1547
aS'->'
p1548
aS'variable_31'
p1549
aS'->'
p1550
aS'variable_95'
p1551
ag17
aS'variable_4'
p1552
ag29
aS'while'
p1553
ag6
aS'variable_1'
p1554
aS'->'
p1555
aS'variable_78'
p1556
aS'!='
p1557
aS'variable_1'
p1558
aS'->'
p1559
aS'variable_90'
p1560
aS'&&'
p1561
aS'variable_1'
p1562
aS'->'
p1563
aS'variable_90'
p1564
ag109
ag17
ag49
aS'&&'
p1565
ag58
aS'variable_4'
p1566
aS'->'
p1567
aS'variable_30'
p1568
aS'&&'
p1569
aS'variable_1'
p1570
aS'->'
p1571
aS'variable_78'
p1572
aS'!='
p1573
ag6
aS'variable_1'
p1574
aS'->'
p1575
aS'variable_90'
p1576
ag594
ag205
ag13
ag767
ag6
ag205
aS'<<'
p1577
aS'variable_1'
p1578
aS'->'
p1579
aS'variable_43'
p1580
ag69
aS'variable_79'
p1581
ag13
ag13
aS'if'
p1582
ag6
aS'func_14'
p1583
ag6
aS'variable_1'
p1584
ag13
ag272
ag49
ag13
aS'variable_1'
p1585
aS'->'
p1586
aS'variable_90'
p1587
aS'++'
p1588
ag29
aS'variable_1'
p1589
aS'->'
p1590
aS'variable_90'
p1591
ag767
ag17
ag205
aS'<<'
p1592
aS'variable_1'
p1593
aS'->'
p1594
aS'variable_43'
p1595
ag69
aS'variable_79'
p1596
ag29
aS'variable_3'
p1597
aS'->'
p1598
aS'variable_31'
p1599
aS'->'
p1600
aS'variable_78'
p1601
ag17
aS'variable_1'
p1602
aS'->'
p1603
aS'variable_90'
p1604
ag29
aS'if'
p1605
ag6
ag6
aS'variable_8'
p1606
ag17
aS'func_15'
p1607
ag6
aS'variable_1'
p1608
ag10
ag205
ag13
ag13
ag272
ag49
aS'&&'
p1609
aS'variable_3'
p1610
aS'->'
p1611
aS'variable_17'
p1612
aS'->'
p1613
aS'variable_96'
p1614
ag18
aS'variable_97'
p1615
ag13
aS'if'
p1616
ag6
aS'func_16'
p1617
ag6
aS'variable_1'
p1618
ag10
aS'variable_1'
p1619
aS'->'
p1620
aS'variable_98'
p1621
ag10
aS'variable_1'
p1622
aS'->'
p1623
aS'variable_99'
p1624
ag13
ag272
ag49
aS'&&'
p1625
ag6
aS'variable_3'
p1626
aS'->'
p1627
aS'variable_17'
p1628
aS'->'
p1629
aS'variable_96'
p1630
ag18
aS'variable_97'
p1631
ag13
ag13
aS'if'
p1632
ag6
aS'variable_4'
p1633
aS'->'
p1634
aS'variable_30'
p1635
ag13
aS'assert'
p1636
ag6
aS'variable_4'
p1637
aS'->'
p1638
aS'variable_31'
p1639
aS'->'
p1640
aS'variable_100'
p1641
ag69
aS'variable_101'
p1642
ag122
ag49
ag124
ag13
ag29
aa(lp1643
S'static'
p1644
aS'int'
p1645
aS'func_0'
p1646
ag6
aS'variable_0'
p1647
ag8
aS'variable_1'
p1648
ag10
aS'variable_0'
p1649
ag8
aS'variable_2'
p1650
ag13
aS'MpegEncContext'
p1651
ag8
aS'const'
p1652
aS'variable_3'
p1653
ag17
ag18
aS'variable_1'
p1654
aS'->'
p1655
aS'MpegEncContext'
p1656
ag8
aS'const'
p1657
aS'variable_4'
p1658
ag17
ag18
aS'variable_2'
p1659
aS'->'
p1660
aS'unsigned'
p1661
aS'int'
p1662
aS'variable_5'
p1663
ag29
aS'unsigned'
p1664
aS'int'
p1665
aS'variable_6'
p1666
ag29
aS'int'
p1667
aS'variable_7'
p1668
ag10
aS'variable_8'
p1669
ag29
aS'unsigned'
p1670
aS'int'
p1671
aS'variable_9'
p1672
ag10
aS'variable_10'
p1673
ag10
aS'variable_11'
p1674
ag10
aS'variable_12'
p1675
ag29
aS'int'
p1676
aS'variable_13'
p1677
ag10
aS'variable_14'
p1678
ag29
aS'int'
p1679
aS'variable_15'
p1680
ag29
aS'int'
p1681
aS'variable_16'
p1682
ag17
ag49
ag29
aS'if'
p1683
ag6
ag6
aS'variable_3'
p1684
aS'->'
p1685
aS'variable_17'
p1686
aS'->'
p1687
aS'variable_18'
p1688
ag18
aS'variable_19'
p1689
ag13
aS'&&'
p1690
ag58
aS'variable_1'
p1691
aS'->'
p1692
aS'variable_20'
p1693
aS'&&'
p1694
ag58
aS'variable_1'
p1695
aS'->'
p1696
aS'variable_21'
p1697
ag13
aS'variable_3'
p1698
aS'->'
p1699
aS'variable_22'
p1700
ag69
aS'variable_23'
p1701
ag17
aS'variable_3'
p1702
aS'->'
p1703
aS'variable_24'
p1704
ag69
aS'variable_25'
p1705
ag29
aS'variable_3'
p1706
aS'->'
p1707
aS'variable_22'
p1708
ag69
aS'variable_26'
p1709
ag17
aS'variable_3'
p1710
aS'->'
p1711
aS'variable_24'
p1712
ag69
aS'variable_27'
p1713
ag29
aS'variable_5'
p1714
ag17
aS'func_1'
p1715
ag6
ag18
aS'variable_3'
p1716
aS'->'
p1717
aS'variable_28'
p1718
ag13
ag29
aS'if'
p1719
ag6
aS'variable_5'
p1720
aS'=='
p1721
ag49
ag13
aS'variable_2'
p1722
aS'->'
p1723
aS'variable_29'
p1724
ag17
ag49
ag29
aS'if'
p1725
ag6
ag58
aS'variable_4'
p1726
aS'->'
p1727
aS'variable_30'
p1728
ag13
aS'variable_3'
p1729
aS'->'
p1730
aS'variable_31'
p1731
ag17
aS'NULL'
p1732
ag29
aS'variable_9'
p1733
ag17
aS'func_2'
p1734
ag6
ag18
aS'variable_3'
p1735
aS'->'
p1736
aS'variable_28'
p1737
ag13
ag29
aS'if'
p1738
ag6
aS'variable_9'
p1739
ag109
ag110
ag13
aS'if'
p1740
ag6
aS'variable_9'
p1741
ag109
ag113
ag13
aS'variable_9'
p1742
aS'-='
p1743
ag116
ag29
aS'variable_1'
p1744
aS'->'
p1745
aS'variable_32'
p1746
ag17
ag49
ag29
aS'variable_9'
p1747
ag17
aS'variable_33'
p1748
ag122
aS'variable_9'
p1749
ag124
ag29
aS'variable_1'
p1750
aS'->'
p1751
aS'variable_9'
p1752
ag17
aS'variable_9'
p1753
ag29
aS'variable_1'
p1754
aS'->'
p1755
aS'variable_34'
p1756
ag17
aS'variable_9'
p1757
ag18
ag133
ag29
aS'variable_3'
p1758
aS'->'
p1759
aS'variable_35'
p1760
ag17
aS'variable_1'
p1761
aS'->'
p1762
aS'variable_9'
p1763
ag29
aS'variable_6'
p1764
ag17
aS'func_3'
p1765
ag6
ag18
aS'variable_3'
p1766
aS'->'
p1767
aS'variable_28'
p1768
ag13
ag29
aS'if'
p1769
ag6
aS'variable_6'
p1770
ag109
ag17
aS'variable_36'
p1771
ag13
aS'if'
p1772
ag6
ag58
aS'variable_2'
p1773
aS'->'
p1774
aS'variable_37'
p1775
ag122
aS'variable_6'
p1776
ag124
ag13
aS'variable_1'
p1777
aS'->'
p1778
aS'variable_38'
p1779
ag17
ag8
aS'variable_2'
p1780
aS'->'
p1781
aS'variable_37'
p1782
ag122
aS'variable_6'
p1783
ag124
ag29
aS'if'
p1784
ag6
ag58
aS'variable_2'
p1785
aS'->'
p1786
aS'variable_39'
p1787
ag122
aS'variable_1'
p1788
aS'->'
p1789
aS'variable_38'
p1790
ag69
aS'variable_40'
p1791
ag124
ag13
aS'variable_41'
p1792
ag8
aS'variable_42'
p1793
ag17
aS'variable_2'
p1794
aS'->'
p1795
aS'variable_39'
p1796
ag122
aS'variable_1'
p1797
aS'->'
p1798
aS'variable_38'
p1799
ag69
aS'variable_40'
p1800
ag124
ag29
aS'variable_2'
p1801
aS'->'
p1802
aS'variable_39'
p1803
ag122
aS'variable_1'
p1804
aS'->'
p1805
aS'variable_38'
p1806
ag69
aS'variable_40'
p1807
ag124
aS'->'
p1808
aS'new'
p1809
ag17
aS'if'
p1810
ag6
aS'variable_1'
p1811
aS'->'
p1812
aS'variable_43'
p1813
ag69
aS'variable_44'
p1814
aS'!='
p1815
aS'variable_42'
p1816
aS'->'
p1817
aS'variable_44'
p1818
aS'||'
p1819
aS'variable_1'
p1820
aS'->'
p1821
aS'variable_43'
p1822
ag69
aS'variable_45'
p1823
aS'!='
p1824
aS'variable_42'
p1825
aS'->'
p1826
aS'variable_45'
p1827
ag13
aS'variable_16'
p1828
ag17
ag205
ag29
aS'variable_1'
p1829
aS'->'
p1830
aS'variable_46'
p1831
ag17
aS'variable_1'
p1832
aS'->'
p1833
aS'variable_38'
p1834
ag69
aS'variable_40'
p1835
ag29
aS'variable_1'
p1836
aS'->'
p1837
aS'variable_43'
p1838
ag17
ag8
aS'variable_2'
p1839
aS'->'
p1840
aS'variable_39'
p1841
ag122
aS'variable_1'
p1842
aS'->'
p1843
aS'variable_38'
p1844
ag69
aS'variable_40'
p1845
ag124
ag29
aS'if'
p1846
ag6
aS'variable_3'
p1847
aS'->'
p1848
aS'variable_47'
p1849
aS'!='
p1850
aS'variable_1'
p1851
aS'->'
p1852
aS'variable_43'
p1853
ag69
aS'variable_47'
p1854
aS'||'
p1855
aS'variable_3'
p1856
aS'->'
p1857
aS'variable_48'
p1858
aS'!='
p1859
aS'variable_1'
p1860
aS'->'
p1861
aS'variable_43'
p1862
ag69
aS'variable_48'
p1863
ag8
ag6
ag241
ag242
aS'variable_1'
p1864
aS'->'
p1865
aS'variable_43'
p1866
ag69
aS'variable_49'
p1867
ag13
aS'||'
p1868
aS'variable_3'
p1869
aS'->'
p1870
aS'variable_17'
p1871
aS'->'
p1872
aS'variable_50'
p1873
aS'!='
p1874
aS'variable_1'
p1875
aS'->'
p1876
aS'variable_43'
p1877
ag69
aS'variable_45'
p1878
aS'||'
p1879
aS'variable_1'
p1880
aS'->'
p1881
aS'variable_51'
p1882
aS'!='
p1883
aS'variable_1'
p1884
aS'->'
p1885
aS'variable_43'
p1886
ag69
aS'variable_44'
p1887
ag13
aS'variable_16'
p1888
ag17
ag205
ag29
aS'if'
p1889
ag6
ag6
aS'variable_8'
p1890
ag17
aS'func_4'
p1891
ag6
aS'variable_1'
p1892
ag13
ag13
ag272
ag49
ag13
aS'variable_3'
p1893
aS'->'
p1894
aS'variable_17'
p1895
aS'->'
p1896
aS'variable_52'
p1897
ag17
aS'func_5'
p1898
ag6
ag18
aS'variable_1'
p1899
aS'->'
p1900
aS'variable_43'
p1901
ag13
ag29
aS'variable_3'
p1902
aS'->'
p1903
aS'variable_17'
p1904
aS'->'
p1905
aS'variable_53'
p1906
ag17
aS'variable_1'
p1907
aS'->'
p1908
aS'variable_43'
p1909
ag69
aS'variable_54'
p1910
ag29
aS'variable_3'
p1911
aS'->'
p1912
aS'variable_17'
p1913
aS'->'
p1914
aS'variable_55'
p1915
ag17
aS'variable_1'
p1916
aS'->'
p1917
aS'variable_43'
p1918
ag69
aS'variable_56'
p1919
ag29
aS'variable_15'
p1920
ag17
ag6
aS'variable_3'
p1921
aS'->'
p1922
aS'variable_57'
p1923
aS'&&'
p1924
ag6
aS'16'
p1925
ag8
aS'variable_1'
p1926
aS'->'
p1927
aS'variable_43'
p1928
ag69
aS'variable_47'
p1929
aS'!='
p1930
aS'variable_3'
p1931
aS'->'
p1932
aS'variable_17'
p1933
aS'->'
p1934
aS'variable_58'
p1935
aS'||'
p1936
aS'16'
p1937
ag8
aS'variable_1'
p1938
aS'->'
p1939
aS'variable_43'
p1940
ag69
aS'variable_48'
p1941
ag8
ag6
ag241
ag242
aS'variable_1'
p1942
aS'->'
p1943
aS'variable_43'
p1944
ag69
aS'variable_49'
p1945
ag13
aS'!='
p1946
aS'variable_3'
p1947
aS'->'
p1948
aS'variable_17'
p1949
aS'->'
p1950
aS'variable_59'
p1951
aS'||'
p1952
aS'variable_3'
p1953
aS'->'
p1954
aS'variable_17'
p1955
aS'->'
p1956
aS'variable_50'
p1957
aS'!='
p1958
aS'variable_1'
p1959
aS'->'
p1960
aS'variable_43'
p1961
ag69
aS'variable_45'
p1962
aS'||'
p1963
aS'variable_1'
p1964
aS'->'
p1965
aS'variable_51'
p1966
aS'!='
p1967
aS'variable_1'
p1968
aS'->'
p1969
aS'variable_43'
p1970
ag69
aS'variable_44'
p1971
aS'||'
p1972
aS'func_6'
p1973
ag6
aS'variable_1'
p1974
aS'->'
p1975
aS'variable_43'
p1976
ag69
aS'variable_60'
p1977
ag10
aS'variable_3'
p1978
aS'->'
p1979
aS'variable_17'
p1980
aS'->'
p1981
aS'variable_61'
p1982
ag13
ag13
ag13
ag29
aS'variable_3'
p1983
aS'->'
p1984
aS'variable_47'
p1985
ag17
aS'variable_1'
p1986
aS'->'
p1987
aS'variable_43'
p1988
ag69
aS'variable_47'
p1989
ag29
aS'variable_3'
p1990
aS'->'
p1991
aS'variable_48'
p1992
ag17
aS'variable_1'
p1993
aS'->'
p1994
aS'variable_43'
p1995
ag69
aS'variable_48'
p1996
ag8
ag6
ag241
ag242
aS'variable_1'
p1997
aS'->'
p1998
aS'variable_43'
p1999
ag69
aS'variable_49'
p2000
ag13
ag29
aS'variable_1'
p2001
aS'->'
p2002
aS'variable_62'
p2003
ag17
aS'variable_3'
p2004
aS'->'
p2005
aS'variable_47'
p2006
ag8
ag113
ag29
aS'variable_3'
p2007
aS'->'
p2008
aS'variable_63'
p2009
ag17
aS'variable_1'
p2010
aS'->'
p2011
aS'variable_43'
p2012
ag69
aS'variable_44'
p2013
ag272
ag17
ag205
ag29
aS'variable_3'
p2014
aS'->'
p2015
aS'variable_64'
p2016
ag17
aS'16'
p2017
ag8
aS'variable_3'
p2018
aS'->'
p2019
aS'variable_47'
p2020
ag29
aS'variable_3'
p2021
aS'->'
p2022
aS'variable_65'
p2023
ag17
aS'16'
p2024
ag8
aS'variable_3'
p2025
aS'->'
p2026
aS'variable_48'
p2027
ag29
aS'if'
p2028
ag6
aS'variable_1'
p2029
aS'->'
p2030
aS'variable_43'
p2031
ag69
aS'variable_66'
p2032
ag13
aS'variable_3'
p2033
aS'->'
p2034
aS'variable_17'
p2035
aS'->'
p2036
aS'variable_67'
p2037
ag17
aS'variable_1'
p2038
aS'->'
p2039
aS'variable_43'
p2040
ag69
aS'variable_68'
p2041
ag109
ag49
ag422
aS'variable_69'
p2042
ag424
aS'variable_70'
p2043
ag29
aS'if'
p2044
ag6
aS'variable_1'
p2045
aS'->'
p2046
aS'variable_43'
p2047
ag69
aS'variable_71'
p2048
ag13
aS'if'
p2049
ag6
aS'variable_3'
p2050
aS'->'
p2051
aS'variable_17'
p2052
aS'->'
p2053
aS'variable_72'
p2054
aS'!='
p2055
aS'variable_1'
p2056
aS'->'
p2057
aS'variable_43'
p2058
ag69
aS'variable_72'
p2059
ag13
aS'variable_16'
p2060
ag17
ag205
ag29
aS'variable_3'
p2061
aS'->'
p2062
aS'variable_17'
p2063
aS'->'
p2064
aS'variable_73'
p2065
ag17
aS'variable_1'
p2066
aS'->'
p2067
aS'variable_43'
p2068
ag69
aS'variable_73'
p2069
ag29
aS'variable_3'
p2070
aS'->'
p2071
aS'variable_17'
p2072
aS'->'
p2073
aS'variable_74'
p2074
ag17
aS'variable_1'
p2075
aS'->'
p2076
aS'variable_43'
p2077
ag69
aS'variable_74'
p2078
ag29
aS'variable_3'
p2079
aS'->'
p2080
aS'variable_17'
p2081
aS'->'
p2082
aS'variable_72'
p2083
ag17
aS'variable_1'
p2084
aS'->'
p2085
aS'variable_43'
p2086
ag69
aS'variable_72'
p2087
ag29
aS'if'
p2088
ag6
aS'variable_3'
p2089
aS'->'
p2090
aS'variable_57'
p2091
aS'&&'
p2092
ag6
aS'variable_16'
p2093
aS'||'
p2094
aS'variable_15'
p2095
ag13
ag13
aS'if'
p2096
ag6
aS'variable_1'
p2097
aS'!='
p2098
aS'variable_2'
p2099
ag13
aS'if'
p2100
ag6
ag6
aS'variable_8'
p2101
ag17
aS'func_7'
p2102
ag6
aS'variable_1'
p2103
ag13
ag13
ag272
ag49
ag13
aS'variable_3'
p2104
aS'->'
p2105
aS'variable_17'
p2106
aS'->'
p2107
aS'variable_75'
p2108
ag17
aS'variable_8'
p2109
ag29
aS'if'
p2110
ag6
ag6
aS'variable_8'
p2111
ag17
aS'func_8'
p2112
ag6
aS'variable_1'
p2113
ag10
ag205
ag13
ag13
ag272
ag49
ag13
aS'variable_1'
p2114
aS'->'
p2115
aS'variable_76'
p2116
ag17
ag205
ag29
aS'if'
p2117
ag6
ag58
aS'variable_3'
p2118
aS'->'
p2119
aS'variable_57'
p2120
ag13
aS'if'
p2121
ag6
aS'variable_1'
p2122
aS'!='
p2123
aS'variable_2'
p2124
ag13
aS'if'
p2125
ag6
ag6
aS'variable_8'
p2126
ag17
aS'func_9'
p2127
ag6
aS'variable_1'
p2128
ag13
ag13
ag272
ag49
ag13
aS'variable_3'
p2129
aS'->'
p2130
aS'variable_17'
p2131
aS'->'
p2132
aS'variable_75'
p2133
ag17
aS'variable_8'
p2134
ag29
aS'if'
p2135
ag6
ag6
aS'variable_8'
p2136
ag17
aS'func_10'
p2137
ag6
aS'variable_1'
p2138
ag10
ag49
ag13
ag13
ag272
ag49
ag13
aS'if'
p2139
ag6
aS'variable_1'
p2140
aS'=='
p2141
aS'variable_2'
p2142
aS'&&'
p2143
aS'variable_1'
p2144
aS'->'
p2145
aS'variable_77'
p2146
aS'!='
p2147
aS'variable_6'
p2148
ag13
aS'variable_1'
p2149
aS'->'
p2150
aS'variable_77'
p2151
ag17
aS'variable_6'
p2152
ag29
aS'variable_1'
p2153
aS'->'
p2154
aS'variable_78'
p2155
ag17
aS'func_11'
p2156
ag6
ag18
aS'variable_3'
p2157
aS'->'
p2158
aS'variable_28'
p2159
ag10
aS'variable_1'
p2160
aS'->'
p2161
aS'variable_43'
p2162
ag69
aS'variable_79'
p2163
ag13
ag29
aS'variable_1'
p2164
aS'->'
p2165
aS'variable_80'
p2166
ag17
ag49
ag29
aS'variable_1'
p2167
aS'->'
p2168
aS'variable_81'
p2169
ag17
ag49
ag29
aS'variable_13'
p2170
ag17
aS'variable_4'
p2171
aS'->'
p2172
aS'variable_82'
p2173
ag29
aS'variable_14'
p2174
ag17
aS'variable_4'
p2175
aS'->'
p2176
aS'variable_83'
p2177
ag29
aS'variable_3'
p2178
aS'->'
p2179
aS'variable_83'
p2180
ag17
aS'variable_1'
p2181
aS'->'
p2182
aS'variable_20'
p2183
aS'=='
p2184
ag49
ag29
aS'if'
p2185
ag6
aS'variable_1'
p2186
aS'->'
p2187
aS'variable_43'
p2188
ag69
aS'variable_49'
p2189
ag13
aS'variable_3'
p2190
aS'->'
p2191
aS'variable_82'
p2192
ag17
aS'variable_84'
p2193
ag29
aS'if'
p2194
ag6
ag58
aS'variable_1'
p2195
aS'->'
p2196
aS'variable_43'
p2197
ag69
aS'variable_85'
p2198
aS'&&'
p2199
aS'variable_9'
p2200
aS'=='
p2201
aS'variable_86'
p2202
ag13
aS'if'
p2203
ag6
aS'func_12'
p2204
ag6
ag18
aS'variable_3'
p2205
aS'->'
p2206
aS'variable_28'
p2207
ag13
ag13
aS'variable_3'
p2208
aS'->'
p2209
aS'variable_82'
p2210
ag17
aS'variable_87'
p2211
ag594
aS'func_13'
p2212
ag6
ag18
aS'variable_3'
p2213
aS'->'
p2214
aS'variable_28'
p2215
ag13
ag29
aS'variable_3'
p2216
aS'->'
p2217
aS'variable_82'
p2218
ag17
aS'variable_84'
p2219
ag29
aS'variable_1'
p2220
aS'->'
p2221
aS'variable_81'
p2222
ag17
aS'variable_1'
p2223
aS'->'
p2224
aS'variable_43'
p2225
ag69
aS'variable_88'
p2226
ag29
aS'variable_1'
p2227
aS'->'
p2228
aS'variable_89'
p2229
ag17
aS'variable_3'
p2230
aS'->'
p2231
aS'variable_82'
p2232
aS'!='
p2233
aS'variable_84'
p2234
ag29
aS'if'
p2235
ag6
aS'variable_2'
p2236
aS'->'
p2237
aS'variable_29'
p2238
aS'!='
p2239
ag49
ag13
aS'if'
p2240
ag6
aS'variable_1'
p2241
aS'->'
p2242
aS'variable_78'
p2243
aS'!='
p2244
aS'variable_1'
p2245
aS'->'
p2246
aS'variable_90'
p2247
aS'&&'
p2248
aS'variable_1'
p2249
aS'->'
p2250
aS'variable_90'
p2251
ag109
ag17
ag49
ag13
aS'int'
p2252
aS'variable_91'
p2253
ag17
aS'variable_1'
p2254
aS'->'
p2255
aS'variable_90'
p2256
ag29
aS'int'
p2257
aS'variable_92'
p2258
ag17
ag205
aS'<<'
p2259
aS'variable_1'
p2260
aS'->'
p2261
aS'variable_43'
p2262
ag69
aS'variable_79'
p2263
ag29
aS'if'
p2264
ag6
aS'variable_91'
p2265
ag109
aS'variable_1'
p2266
aS'->'
p2267
aS'variable_78'
p2268
ag13
aS'variable_91'
p2269
aS'-='
p2270
aS'variable_92'
p2271
ag29
aS'if'
p2272
ag6
ag6
aS'variable_1'
p2273
aS'->'
p2274
aS'variable_78'
p2275
ag242
aS'variable_91'
p2276
ag13
ag109
aS'variable_1'
p2277
aS'->'
p2278
aS'variable_43'
p2279
ag69
aS'variable_56'
p2280
ag13
aS'variable_91'
p2281
ag17
ag6
aS'variable_1'
p2282
aS'->'
p2283
aS'variable_78'
p2284
ag242
aS'variable_1'
p2285
aS'->'
p2286
aS'variable_43'
p2287
ag69
aS'variable_56'
p2288
ag13
ag242
ag205
ag29
aS'if'
p2289
ag6
aS'variable_91'
p2290
ag272
ag49
ag13
aS'variable_91'
p2291
aS'+='
p2292
aS'variable_92'
p2293
ag29
aS'variable_1'
p2294
aS'->'
p2295
aS'variable_90'
p2296
ag17
aS'variable_91'
p2297
ag29
aS'if'
p2298
ag6
aS'variable_4'
p2299
aS'->'
p2300
aS'variable_30'
p2301
ag13
aS'if'
p2302
ag6
ag58
aS'variable_93'
p2303
aS'||'
p2304
aS'variable_3'
p2305
aS'->'
p2306
aS'variable_82'
p2307
aS'=='
p2308
aS'variable_13'
p2309
ag13
aS'if'
p2310
ag6
aS'variable_4'
p2311
aS'->'
p2312
aS'variable_31'
p2313
aS'->'
p2314
aS'variable_78'
p2315
aS'!='
p2316
aS'variable_1'
p2317
aS'->'
p2318
aS'variable_78'
p2319
ag13
aS'if'
p2320
ag6
ag58
ag6
ag6
aS'variable_13'
p2321
aS'=='
p2322
aS'variable_87'
p2323
aS'&&'
p2324
aS'variable_3'
p2325
aS'->'
p2326
aS'variable_82'
p2327
aS'=='
p2328
aS'variable_94'
p2329
ag13
aS'||'
p2330
ag6
aS'variable_13'
p2331
aS'=='
p2332
aS'variable_94'
p2333
aS'&&'
p2334
aS'variable_3'
p2335
aS'->'
p2336
aS'variable_82'
p2337
aS'=='
p2338
aS'variable_87'
p2339
ag13
ag13
ag13
aS'if'
p2340
ag6
aS'variable_14'
p2341
aS'!='
p2342
aS'variable_3'
p2343
aS'->'
p2344
aS'variable_83'
p2345
ag13
aS'variable_3'
p2346
aS'->'
p2347
aS'variable_82'
p2348
ag17
aS'variable_13'
p2349
ag29
aS'variable_3'
p2350
aS'->'
p2351
aS'variable_83'
p2352
ag17
aS'variable_14'
p2353
ag29
aS'variable_4'
p2354
aS'->'
p2355
aS'variable_31'
p2356
aS'->'
p2357
aS'variable_95'
p2358
ag17
aS'variable_4'
p2359
ag29
aS'while'
p2360
ag6
aS'variable_1'
p2361
aS'->'
p2362
aS'variable_78'
p2363
aS'!='
p2364
aS'variable_1'
p2365
aS'->'
p2366
aS'variable_90'
p2367
aS'&&'
p2368
aS'variable_1'
p2369
aS'->'
p2370
aS'variable_90'
p2371
ag109
ag17
ag49
aS'&&'
p2372
ag58
aS'variable_4'
p2373
aS'->'
p2374
aS'variable_30'
p2375
aS'&&'
p2376
aS'variable_1'
p2377
aS'->'
p2378
aS'variable_78'
p2379
aS'!='
p2380
ag6
aS'variable_1'
p2381
aS'->'
p2382
aS'variable_90'
p2383
ag594
ag205
ag13
ag767
ag6
ag205
aS'<<'
p2384
aS'variable_1'
p2385
aS'->'
p2386
aS'variable_43'
p2387
ag69
aS'variable_79'
p2388
ag13
ag13
aS'if'
p2389
ag6
aS'func_14'
p2390
ag6
aS'variable_1'
p2391
ag13
ag272
ag49
ag13
aS'variable_1'
p2392
aS'->'
p2393
aS'variable_90'
p2394
aS'++'
p2395
ag29
aS'variable_1'
p2396
aS'->'
p2397
aS'variable_90'
p2398
ag767
ag17
ag205
aS'<<'
p2399
aS'variable_1'
p2400
aS'->'
p2401
aS'variable_43'
p2402
ag69
aS'variable_79'
p2403
ag29
aS'variable_3'
p2404
aS'->'
p2405
aS'variable_31'
p2406
aS'->'
p2407
aS'variable_78'
p2408
ag17
aS'variable_1'
p2409
aS'->'
p2410
aS'variable_90'
p2411
ag29
aS'if'
p2412
ag6
ag6
aS'variable_8'
p2413
ag17
aS'func_15'
p2414
ag6
aS'variable_1'
p2415
ag10
ag205
ag13
ag13
ag272
ag49
aS'&&'
p2416
aS'variable_3'
p2417
aS'->'
p2418
aS'variable_17'
p2419
aS'->'
p2420
aS'variable_96'
p2421
ag18
aS'variable_97'
p2422
ag13
aS'if'
p2423
ag6
aS'func_16'
p2424
ag6
aS'variable_1'
p2425
ag10
aS'variable_1'
p2426
aS'->'
p2427
aS'variable_98'
p2428
ag10
aS'variable_1'
p2429
aS'->'
p2430
aS'variable_99'
p2431
ag13
ag272
ag49
aS'&&'
p2432
ag6
aS'variable_3'
p2433
aS'->'
p2434
aS'variable_17'
p2435
aS'->'
p2436
aS'variable_96'
p2437
ag18
aS'variable_97'
p2438
ag13
ag13
aS'if'
p2439
ag6
aS'variable_4'
p2440
aS'->'
p2441
aS'variable_30'
p2442
ag13
aS'assert'
p2443
ag6
aS'variable_4'
p2444
aS'->'
p2445
aS'variable_31'
p2446
ag13
ag29
aa(lp2447
S'static'
p2448
aS'int'
p2449
aS'func_0'
p2450
ag6
aS'variable_0'
p2451
ag8
aS'variable_1'
p2452
ag10
aS'variable_0'
p2453
ag8
aS'variable_2'
p2454
ag13
aS'MpegEncContext'
p2455
ag8
aS'const'
p2456
aS'variable_3'
p2457
ag17
ag18
aS'variable_1'
p2458
aS'->'
p2459
aS'MpegEncContext'
p2460
ag8
aS'const'
p2461
aS'variable_4'
p2462
ag17
ag18
aS'variable_2'
p2463
aS'->'
p2464
aS'unsigned'
p2465
aS'int'
p2466
aS'variable_5'
p2467
ag29
aS'unsigned'
p2468
aS'int'
p2469
aS'variable_6'
p2470
ag29
aS'int'
p2471
aS'variable_7'
p2472
ag10
aS'variable_8'
p2473
ag29
aS'unsigned'
p2474
aS'int'
p2475
aS'variable_9'
p2476
ag10
aS'variable_10'
p2477
ag10
aS'variable_11'
p2478
ag10
aS'variable_12'
p2479
ag29
aS'int'
p2480
aS'variable_13'
p2481
ag29
aS'int'
p2482
aS'variable_14'
p2483
ag17
ag49
ag29
aS'if'
p2484
ag6
ag6
aS'variable_3'
p2485
aS'->'
p2486
aS'variable_15'
p2487
aS'->'
p2488
aS'variable_16'
p2489
ag18
aS'variable_17'
p2490
ag13
aS'&&'
p2491
ag58
aS'variable_1'
p2492
aS'->'
p2493
aS'variable_18'
p2494
aS'&&'
p2495
ag58
aS'variable_1'
p2496
aS'->'
p2497
aS'variable_19'
p2498
ag13
aS'variable_3'
p2499
aS'->'
p2500
aS'variable_20'
p2501
ag69
aS'variable_21'
p2502
ag17
aS'variable_3'
p2503
aS'->'
p2504
aS'variable_22'
p2505
ag69
aS'variable_23'
p2506
ag29
aS'variable_3'
p2507
aS'->'
p2508
aS'variable_20'
p2509
ag69
aS'variable_24'
p2510
ag17
aS'variable_3'
p2511
aS'->'
p2512
aS'variable_22'
p2513
ag69
aS'variable_25'
p2514
ag29
aS'variable_5'
p2515
ag17
aS'func_1'
p2516
ag6
ag18
aS'variable_3'
p2517
aS'->'
p2518
aS'variable_26'
p2519
ag13
ag29
aS'if'
p2520
ag6
aS'variable_5'
p2521
aS'=='
p2522
ag49
ag13
aS'variable_2'
p2523
aS'->'
p2524
aS'variable_27'
p2525
ag17
ag49
ag29
aS'if'
p2526
ag6
ag58
aS'variable_4'
p2527
aS'->'
p2528
aS'variable_28'
p2529
ag13
aS'variable_3'
p2530
aS'->'
p2531
aS'variable_29'
p2532
ag17
aS'NULL'
p2533
ag29
aS'variable_9'
p2534
ag17
aS'func_2'
p2535
ag6
ag18
aS'variable_3'
p2536
aS'->'
p2537
aS'variable_26'
p2538
ag13
ag29
aS'if'
p2539
ag6
aS'variable_9'
p2540
ag109
ag110
ag13
aS'if'
p2541
ag6
aS'variable_9'
p2542
ag109
ag113
ag13
aS'variable_9'
p2543
aS'-='
p2544
ag116
ag29
aS'variable_1'
p2545
aS'->'
p2546
aS'variable_30'
p2547
ag17
ag49
ag29
aS'variable_9'
p2548
ag17
aS'variable_31'
p2549
ag122
aS'variable_9'
p2550
ag124
ag29
aS'variable_1'
p2551
aS'->'
p2552
aS'variable_9'
p2553
ag17
aS'variable_9'
p2554
ag29
aS'variable_1'
p2555
aS'->'
p2556
aS'variable_32'
p2557
ag17
aS'variable_9'
p2558
ag18
ag133
ag29
aS'variable_3'
p2559
aS'->'
p2560
aS'variable_33'
p2561
ag17
aS'variable_1'
p2562
aS'->'
p2563
aS'variable_9'
p2564
ag29
aS'variable_6'
p2565
ag17
aS'func_3'
p2566
ag6
ag18
aS'variable_3'
p2567
aS'->'
p2568
aS'variable_26'
p2569
ag13
ag29
aS'if'
p2570
ag6
aS'variable_6'
p2571
ag109
ag17
aS'variable_34'
p2572
ag13
aS'if'
p2573
ag6
ag58
aS'variable_2'
p2574
aS'->'
p2575
aS'variable_35'
p2576
ag122
aS'variable_6'
p2577
ag124
ag13
aS'variable_1'
p2578
aS'->'
p2579
aS'variable_36'
p2580
ag17
ag8
aS'variable_2'
p2581
aS'->'
p2582
aS'variable_35'
p2583
ag122
aS'variable_6'
p2584
ag124
ag29
aS'if'
p2585
ag6
ag58
aS'variable_2'
p2586
aS'->'
p2587
aS'variable_37'
p2588
ag122
aS'variable_1'
p2589
aS'->'
p2590
aS'variable_36'
p2591
ag69
aS'variable_38'
p2592
ag124
ag13
aS'variable_39'
p2593
ag8
aS'variable_40'
p2594
ag17
aS'variable_2'
p2595
aS'->'
p2596
aS'variable_37'
p2597
ag122
aS'variable_1'
p2598
aS'->'
p2599
aS'variable_36'
p2600
ag69
aS'variable_38'
p2601
ag124
ag29
aS'variable_2'
p2602
aS'->'
p2603
aS'variable_37'
p2604
ag122
aS'variable_1'
p2605
aS'->'
p2606
aS'variable_36'
p2607
ag69
aS'variable_38'
p2608
ag124
aS'->'
p2609
aS'new'
p2610
ag17
aS'if'
p2611
ag6
aS'variable_1'
p2612
aS'->'
p2613
aS'variable_41'
p2614
ag69
aS'variable_42'
p2615
aS'!='
p2616
aS'variable_40'
p2617
aS'->'
p2618
aS'variable_42'
p2619
aS'||'
p2620
aS'variable_1'
p2621
aS'->'
p2622
aS'variable_41'
p2623
ag69
aS'variable_43'
p2624
aS'!='
p2625
aS'variable_40'
p2626
aS'->'
p2627
aS'variable_43'
p2628
ag13
aS'variable_14'
p2629
ag17
ag205
ag29
aS'variable_1'
p2630
aS'->'
p2631
aS'variable_44'
p2632
ag17
aS'variable_1'
p2633
aS'->'
p2634
aS'variable_36'
p2635
ag69
aS'variable_38'
p2636
ag29
aS'variable_1'
p2637
aS'->'
p2638
aS'variable_41'
p2639
ag17
ag8
aS'variable_2'
p2640
aS'->'
p2641
aS'variable_37'
p2642
ag122
aS'variable_1'
p2643
aS'->'
p2644
aS'variable_36'
p2645
ag69
aS'variable_38'
p2646
ag124
ag29
aS'if'
p2647
ag6
aS'variable_3'
p2648
aS'->'
p2649
aS'variable_45'
p2650
aS'!='
p2651
aS'variable_1'
p2652
aS'->'
p2653
aS'variable_41'
p2654
ag69
aS'variable_45'
p2655
aS'||'
p2656
aS'variable_3'
p2657
aS'->'
p2658
aS'variable_46'
p2659
aS'!='
p2660
aS'variable_1'
p2661
aS'->'
p2662
aS'variable_41'
p2663
ag69
aS'variable_46'
p2664
ag8
ag6
ag241
ag242
aS'variable_1'
p2665
aS'->'
p2666
aS'variable_41'
p2667
ag69
aS'variable_47'
p2668
ag13
aS'||'
p2669
aS'variable_3'
p2670
aS'->'
p2671
aS'variable_15'
p2672
aS'->'
p2673
aS'variable_48'
p2674
aS'!='
p2675
aS'variable_1'
p2676
aS'->'
p2677
aS'variable_41'
p2678
ag69
aS'variable_43'
p2679
aS'||'
p2680
aS'variable_1'
p2681
aS'->'
p2682
aS'variable_49'
p2683
aS'!='
p2684
aS'variable_1'
p2685
aS'->'
p2686
aS'variable_41'
p2687
ag69
aS'variable_42'
p2688
ag13
aS'variable_14'
p2689
ag17
ag205
ag29
aS'if'
p2690
ag6
ag6
aS'variable_8'
p2691
ag17
aS'func_4'
p2692
ag6
aS'variable_1'
p2693
ag13
ag13
ag272
ag49
ag13
aS'variable_3'
p2694
aS'->'
p2695
aS'variable_15'
p2696
aS'->'
p2697
aS'variable_50'
p2698
ag17
aS'func_5'
p2699
ag6
ag18
aS'variable_1'
p2700
aS'->'
p2701
aS'variable_41'
p2702
ag13
ag29
aS'variable_3'
p2703
aS'->'
p2704
aS'variable_15'
p2705
aS'->'
p2706
aS'variable_51'
p2707
ag17
aS'variable_1'
p2708
aS'->'
p2709
aS'variable_41'
p2710
ag69
aS'variable_52'
p2711
ag29
aS'variable_3'
p2712
aS'->'
p2713
aS'variable_15'
p2714
aS'->'
p2715
aS'variable_53'
p2716
ag17
aS'variable_1'
p2717
aS'->'
p2718
aS'variable_41'
p2719
ag69
aS'variable_54'
p2720
ag29
aS'variable_13'
p2721
ag17
ag6
aS'variable_3'
p2722
aS'->'
p2723
aS'variable_55'
p2724
aS'&&'
p2725
ag6
aS'16'
p2726
ag8
aS'variable_1'
p2727
aS'->'
p2728
aS'variable_41'
p2729
ag69
aS'variable_45'
p2730
aS'!='
p2731
aS'variable_3'
p2732
aS'->'
p2733
aS'variable_15'
p2734
aS'->'
p2735
aS'variable_56'
p2736
aS'||'
p2737
aS'16'
p2738
ag8
aS'variable_1'
p2739
aS'->'
p2740
aS'variable_41'
p2741
ag69
aS'variable_46'
p2742
ag8
ag6
ag241
ag242
aS'variable_1'
p2743
aS'->'
p2744
aS'variable_41'
p2745
ag69
aS'variable_47'
p2746
ag13
aS'!='
p2747
aS'variable_3'
p2748
aS'->'
p2749
aS'variable_15'
p2750
aS'->'
p2751
aS'variable_57'
p2752
aS'||'
p2753
aS'variable_3'
p2754
aS'->'
p2755
aS'variable_15'
p2756
aS'->'
p2757
aS'variable_48'
p2758
aS'!='
p2759
aS'variable_1'
p2760
aS'->'
p2761
aS'variable_41'
p2762
ag69
aS'variable_43'
p2763
aS'||'
p2764
aS'variable_1'
p2765
aS'->'
p2766
aS'variable_49'
p2767
aS'!='
p2768
aS'variable_1'
p2769
aS'->'
p2770
aS'variable_41'
p2771
ag69
aS'variable_42'
p2772
aS'||'
p2773
aS'func_6'
p2774
ag6
aS'variable_1'
p2775
aS'->'
p2776
aS'variable_41'
p2777
ag69
aS'variable_58'
p2778
ag10
aS'variable_3'
p2779
aS'->'
p2780
aS'variable_15'
p2781
aS'->'
p2782
aS'variable_59'
p2783
ag13
ag13
ag13
ag29
aS'variable_3'
p2784
aS'->'
p2785
aS'variable_45'
p2786
ag17
aS'variable_1'
p2787
aS'->'
p2788
aS'variable_41'
p2789
ag69
aS'variable_45'
p2790
ag29
aS'variable_3'
p2791
aS'->'
p2792
aS'variable_46'
p2793
ag17
aS'variable_1'
p2794
aS'->'
p2795
aS'variable_41'
p2796
ag69
aS'variable_46'
p2797
ag8
ag6
ag241
ag242
aS'variable_1'
p2798
aS'->'
p2799
aS'variable_41'
p2800
ag69
aS'variable_47'
p2801
ag13
ag29
aS'variable_1'
p2802
aS'->'
p2803
aS'variable_60'
p2804
ag17
aS'variable_3'
p2805
aS'->'
p2806
aS'variable_45'
p2807
ag8
ag113
ag29
aS'variable_3'
p2808
aS'->'
p2809
aS'variable_61'
p2810
ag17
aS'variable_1'
p2811
aS'->'
p2812
aS'variable_41'
p2813
ag69
aS'variable_42'
p2814
ag272
ag17
ag205
ag29
aS'variable_3'
p2815
aS'->'
p2816
aS'variable_62'
p2817
ag17
aS'16'
p2818
ag8
aS'variable_3'
p2819
aS'->'
p2820
aS'variable_45'
p2821
ag29
aS'variable_3'
p2822
aS'->'
p2823
aS'variable_63'
p2824
ag17
aS'16'
p2825
ag8
aS'variable_3'
p2826
aS'->'
p2827
aS'variable_46'
p2828
ag29
aS'if'
p2829
ag6
aS'variable_1'
p2830
aS'->'
p2831
aS'variable_41'
p2832
ag69
aS'variable_64'
p2833
ag13
aS'variable_3'
p2834
aS'->'
p2835
aS'variable_15'
p2836
aS'->'
p2837
aS'variable_65'
p2838
ag17
aS'variable_1'
p2839
aS'->'
p2840
aS'variable_41'
p2841
ag69
aS'variable_66'
p2842
ag109
ag49
ag422
aS'variable_67'
p2843
ag424
aS'variable_68'
p2844
ag29
aS'if'
p2845
ag6
aS'variable_1'
p2846
aS'->'
p2847
aS'variable_41'
p2848
ag69
aS'variable_69'
p2849
ag13
aS'if'
p2850
ag6
aS'variable_3'
p2851
aS'->'
p2852
aS'variable_15'
p2853
aS'->'
p2854
aS'variable_70'
p2855
aS'!='
p2856
aS'variable_1'
p2857
aS'->'
p2858
aS'variable_41'
p2859
ag69
aS'variable_70'
p2860
ag13
aS'variable_14'
p2861
ag17
ag205
ag29
aS'variable_3'
p2862
aS'->'
p2863
aS'variable_15'
p2864
aS'->'
p2865
aS'variable_71'
p2866
ag17
aS'variable_1'
p2867
aS'->'
p2868
aS'variable_41'
p2869
ag69
aS'variable_71'
p2870
ag29
aS'variable_3'
p2871
aS'->'
p2872
aS'variable_15'
p2873
aS'->'
p2874
aS'variable_72'
p2875
ag17
aS'variable_1'
p2876
aS'->'
p2877
aS'variable_41'
p2878
ag69
aS'variable_72'
p2879
ag29
aS'variable_3'
p2880
aS'->'
p2881
aS'variable_15'
p2882
aS'->'
p2883
aS'variable_70'
p2884
ag17
aS'variable_1'
p2885
aS'->'
p2886
aS'variable_41'
p2887
ag69
aS'variable_70'
p2888
ag29
aS'if'
p2889
ag6
aS'variable_3'
p2890
aS'->'
p2891
aS'variable_55'
p2892
aS'&&'
p2893
ag6
aS'variable_14'
p2894
aS'||'
p2895
aS'variable_13'
p2896
ag13
ag13
aS'if'
p2897
ag6
aS'variable_1'
p2898
aS'!='
p2899
aS'variable_2'
p2900
ag13
aS'if'
p2901
ag6
ag6
aS'variable_8'
p2902
ag17
aS'func_7'
p2903
ag6
aS'variable_1'
p2904
ag13
ag13
ag272
ag49
ag13
aS'variable_3'
p2905
aS'->'
p2906
aS'variable_15'
p2907
aS'->'
p2908
aS'variable_73'
p2909
ag17
aS'variable_8'
p2910
ag29
aS'if'
p2911
ag6
ag6
aS'variable_8'
p2912
ag17
aS'func_8'
p2913
ag6
aS'variable_1'
p2914
ag10
ag205
ag13
ag13
ag272
ag49
ag13
aS'variable_1'
p2915
aS'->'
p2916
aS'variable_74'
p2917
ag17
ag205
ag29
aS'if'
p2918
ag6
ag58
aS'variable_3'
p2919
aS'->'
p2920
aS'variable_55'
p2921
ag13
aS'if'
p2922
ag6
aS'variable_1'
p2923
aS'!='
p2924
aS'variable_2'
p2925
ag13
aS'if'
p2926
ag6
ag6
aS'variable_8'
p2927
ag17
aS'func_9'
p2928
ag6
aS'variable_1'
p2929
ag13
ag13
ag272
ag49
ag13
aS'variable_3'
p2930
aS'->'
p2931
aS'variable_15'
p2932
aS'->'
p2933
aS'variable_73'
p2934
ag17
aS'variable_8'
p2935
ag29
aS'if'
p2936
ag6
ag6
aS'variable_8'
p2937
ag17
aS'func_10'
p2938
ag6
aS'variable_1'
p2939
ag10
ag49
ag13
ag13
ag272
ag49
ag13
aS'if'
p2940
ag6
aS'variable_1'
p2941
aS'=='
p2942
aS'variable_2'
p2943
aS'&&'
p2944
aS'variable_1'
p2945
aS'->'
p2946
aS'variable_75'
p2947
aS'!='
p2948
aS'variable_6'
p2949
ag13
aS'variable_1'
p2950
aS'->'
p2951
aS'variable_75'
p2952
ag17
aS'variable_6'
p2953
ag29
aS'variable_1'
p2954
aS'->'
p2955
aS'variable_76'
p2956
ag17
aS'func_11'
p2957
ag6
ag18
aS'variable_3'
p2958
aS'->'
p2959
aS'variable_26'
p2960
ag10
aS'variable_1'
p2961
aS'->'
p2962
aS'variable_41'
p2963
ag69
aS'variable_77'
p2964
ag13
ag29
aS'variable_1'
p2965
aS'->'
p2966
aS'variable_78'
p2967
ag17
ag49
ag29
aS'variable_1'
p2968
aS'->'
p2969
aS'variable_79'
p2970
ag17
ag49
ag29
aS'if'
p2971
ag6
aS'variable_1'
p2972
aS'->'
p2973
aS'variable_41'
p2974
ag69
aS'variable_47'
p2975
ag13
aS'if'
p2976
ag6
ag58
aS'variable_1'
p2977
aS'->'
p2978
aS'variable_41'
p2979
ag69
aS'variable_80'
p2980
aS'&&'
p2981
aS'variable_9'
p2982
aS'=='
p2983
aS'variable_81'
p2984
ag13
aS'if'
p2985
ag6
aS'variable_2'
p2986
aS'->'
p2987
aS'variable_27'
p2988
aS'!='
p2989
ag49
ag13
aS'if'
p2990
ag6
aS'variable_4'
p2991
aS'->'
p2992
aS'variable_28'
p2993
ag13
aS'assert'
p2994
ag6
aS'variable_4'
p2995
aS'->'
p2996
aS'variable_29'
p2997
aS'->'
p2998
aS'variable_82'
p2999
ag69
aS'variable_83'
p3000
aS'!='
p3001
aS'variable_84'
p3002
ag13
ag29
aa(lp3003
S'static'
p3004
aS'int'
p3005
aS'func_0'
p3006
ag6
aS'variable_0'
p3007
ag8
aS'variable_1'
p3008
ag10
aS'variable_0'
p3009
ag8
aS'variable_2'
p3010
ag13
aS'MpegEncContext'
p3011
ag8
aS'const'
p3012
aS'variable_3'
p3013
ag17
ag18
aS'variable_1'
p3014
aS'->'
p3015
aS'MpegEncContext'
p3016
ag8
aS'const'
p3017
aS'variable_4'
p3018
ag17
ag18
aS'variable_2'
p3019
aS'->'
p3020
aS'unsigned'
p3021
aS'int'
p3022
aS'variable_5'
p3023
ag29
aS'unsigned'
p3024
aS'int'
p3025
aS'variable_6'
p3026
ag29
aS'int'
p3027
aS'variable_7'
p3028
ag10
aS'variable_8'
p3029
ag29
aS'unsigned'
p3030
aS'int'
p3031
aS'variable_9'
p3032
ag10
aS'variable_10'
p3033
ag10
aS'variable_11'
p3034
ag10
aS'variable_12'
p3035
ag29
aS'int'
p3036
aS'variable_13'
p3037
ag29
aS'int'
p3038
aS'variable_14'
p3039
ag17
ag49
ag29
aS'if'
p3040
ag6
ag6
aS'variable_3'
p3041
aS'->'
p3042
aS'variable_15'
p3043
aS'->'
p3044
aS'variable_16'
p3045
ag18
aS'variable_17'
p3046
ag13
aS'&&'
p3047
ag58
aS'variable_1'
p3048
aS'->'
p3049
aS'variable_18'
p3050
aS'&&'
p3051
ag58
aS'variable_1'
p3052
aS'->'
p3053
aS'variable_19'
p3054
ag13
aS'variable_3'
p3055
aS'->'
p3056
aS'variable_20'
p3057
ag69
aS'variable_21'
p3058
ag17
aS'variable_3'
p3059
aS'->'
p3060
aS'variable_22'
p3061
ag69
aS'variable_23'
p3062
ag29
aS'variable_3'
p3063
aS'->'
p3064
aS'variable_20'
p3065
ag69
aS'variable_24'
p3066
ag17
aS'variable_3'
p3067
aS'->'
p3068
aS'variable_22'
p3069
ag69
aS'variable_25'
p3070
ag29
aS'variable_5'
p3071
ag17
aS'func_1'
p3072
ag6
ag18
aS'variable_3'
p3073
aS'->'
p3074
aS'variable_26'
p3075
ag13
ag29
aS'if'
p3076
ag6
aS'variable_5'
p3077
aS'=='
p3078
ag49
ag13
aS'variable_2'
p3079
aS'->'
p3080
aS'variable_27'
p3081
ag17
ag49
ag29
aS'if'
p3082
ag6
ag58
aS'variable_4'
p3083
aS'->'
p3084
aS'variable_28'
p3085
ag13
aS'variable_3'
p3086
aS'->'
p3087
aS'variable_29'
p3088
ag17
aS'NULL'
p3089
ag29
aS'variable_9'
p3090
ag17
aS'func_2'
p3091
ag6
ag18
aS'variable_3'
p3092
aS'->'
p3093
aS'variable_26'
p3094
ag13
ag29
aS'if'
p3095
ag6
aS'variable_9'
p3096
ag109
ag110
ag13
aS'if'
p3097
ag6
aS'variable_9'
p3098
ag109
ag113
ag13
aS'variable_9'
p3099
aS'-='
p3100
ag116
ag29
aS'variable_1'
p3101
aS'->'
p3102
aS'variable_30'
p3103
ag17
ag49
ag29
aS'variable_9'
p3104
ag17
aS'variable_31'
p3105
ag122
aS'variable_9'
p3106
ag124
ag29
aS'variable_1'
p3107
aS'->'
p3108
aS'variable_9'
p3109
ag17
aS'variable_9'
p3110
ag29
aS'variable_1'
p3111
aS'->'
p3112
aS'variable_32'
p3113
ag17
aS'variable_9'
p3114
ag18
ag133
ag29
aS'variable_3'
p3115
aS'->'
p3116
aS'variable_33'
p3117
ag17
aS'variable_1'
p3118
aS'->'
p3119
aS'variable_9'
p3120
ag29
aS'variable_6'
p3121
ag17
aS'func_3'
p3122
ag6
ag18
aS'variable_3'
p3123
aS'->'
p3124
aS'variable_26'
p3125
ag13
ag29
aS'if'
p3126
ag6
aS'variable_6'
p3127
ag109
ag17
aS'variable_34'
p3128
ag13
aS'if'
p3129
ag6
ag58
aS'variable_2'
p3130
aS'->'
p3131
aS'variable_35'
p3132
ag122
aS'variable_6'
p3133
ag124
ag13
aS'variable_1'
p3134
aS'->'
p3135
aS'variable_36'
p3136
ag17
ag8
aS'variable_2'
p3137
aS'->'
p3138
aS'variable_35'
p3139
ag122
aS'variable_6'
p3140
ag124
ag29
aS'if'
p3141
ag6
ag58
aS'variable_2'
p3142
aS'->'
p3143
aS'variable_37'
p3144
ag122
aS'variable_1'
p3145
aS'->'
p3146
aS'variable_36'
p3147
ag69
aS'variable_38'
p3148
ag124
ag13
aS'variable_39'
p3149
ag8
aS'variable_40'
p3150
ag17
aS'variable_2'
p3151
aS'->'
p3152
aS'variable_37'
p3153
ag122
aS'variable_1'
p3154
aS'->'
p3155
aS'variable_36'
p3156
ag69
aS'variable_38'
p3157
ag124
ag29
aS'variable_2'
p3158
aS'->'
p3159
aS'variable_37'
p3160
ag122
aS'variable_1'
p3161
aS'->'
p3162
aS'variable_36'
p3163
ag69
aS'variable_38'
p3164
ag124
aS'->'
p3165
aS'new'
p3166
ag17
aS'if'
p3167
ag6
aS'variable_1'
p3168
aS'->'
p3169
aS'variable_41'
p3170
ag69
aS'variable_42'
p3171
aS'!='
p3172
aS'variable_40'
p3173
aS'->'
p3174
aS'variable_42'
p3175
aS'||'
p3176
aS'variable_1'
p3177
aS'->'
p3178
aS'variable_41'
p3179
ag69
aS'variable_43'
p3180
aS'!='
p3181
aS'variable_40'
p3182
aS'->'
p3183
aS'variable_43'
p3184
ag13
aS'variable_14'
p3185
ag17
ag205
ag29
aS'variable_1'
p3186
aS'->'
p3187
aS'variable_44'
p3188
ag17
aS'variable_1'
p3189
aS'->'
p3190
aS'variable_36'
p3191
ag69
aS'variable_38'
p3192
ag29
aS'variable_1'
p3193
aS'->'
p3194
aS'variable_41'
p3195
ag17
ag8
aS'variable_2'
p3196
aS'->'
p3197
aS'variable_37'
p3198
ag122
aS'variable_1'
p3199
aS'->'
p3200
aS'variable_36'
p3201
ag69
aS'variable_38'
p3202
ag124
ag29
aS'if'
p3203
ag6
aS'variable_3'
p3204
aS'->'
p3205
aS'variable_45'
p3206
aS'!='
p3207
aS'variable_1'
p3208
aS'->'
p3209
aS'variable_41'
p3210
ag69
aS'variable_45'
p3211
aS'||'
p3212
aS'variable_3'
p3213
aS'->'
p3214
aS'variable_46'
p3215
aS'!='
p3216
aS'variable_1'
p3217
aS'->'
p3218
aS'variable_41'
p3219
ag69
aS'variable_46'
p3220
ag8
ag6
ag241
ag242
aS'variable_1'
p3221
aS'->'
p3222
aS'variable_41'
p3223
ag69
aS'variable_47'
p3224
ag13
aS'||'
p3225
aS'variable_3'
p3226
aS'->'
p3227
aS'variable_15'
p3228
aS'->'
p3229
aS'variable_48'
p3230
aS'!='
p3231
aS'variable_1'
p3232
aS'->'
p3233
aS'variable_41'
p3234
ag69
aS'variable_43'
p3235
aS'||'
p3236
aS'variable_1'
p3237
aS'->'
p3238
aS'variable_49'
p3239
aS'!='
p3240
aS'variable_1'
p3241
aS'->'
p3242
aS'variable_41'
p3243
ag69
aS'variable_42'
p3244
ag13
aS'variable_14'
p3245
ag17
ag205
ag29
aS'if'
p3246
ag6
ag6
aS'variable_8'
p3247
ag17
aS'func_4'
p3248
ag6
aS'variable_1'
p3249
ag13
ag13
ag272
ag49
ag13
aS'variable_3'
p3250
aS'->'
p3251
aS'variable_15'
p3252
aS'->'
p3253
aS'variable_50'
p3254
ag17
aS'func_5'
p3255
ag6
ag18
aS'variable_1'
p3256
aS'->'
p3257
aS'variable_41'
p3258
ag13
ag29
aS'variable_3'
p3259
aS'->'
p3260
aS'variable_15'
p3261
aS'->'
p3262
aS'variable_51'
p3263
ag17
aS'variable_1'
p3264
aS'->'
p3265
aS'variable_41'
p3266
ag69
aS'variable_52'
p3267
ag29
aS'variable_3'
p3268
aS'->'
p3269
aS'variable_15'
p3270
aS'->'
p3271
aS'variable_53'
p3272
ag17
aS'variable_1'
p3273
aS'->'
p3274
aS'variable_41'
p3275
ag69
aS'variable_54'
p3276
ag29
aS'variable_13'
p3277
ag17
ag6
aS'variable_3'
p3278
aS'->'
p3279
aS'variable_55'
p3280
aS'&&'
p3281
ag6
aS'16'
p3282
ag8
aS'variable_1'
p3283
aS'->'
p3284
aS'variable_41'
p3285
ag69
aS'variable_45'
p3286
aS'!='
p3287
aS'variable_3'
p3288
aS'->'
p3289
aS'variable_15'
p3290
aS'->'
p3291
aS'variable_56'
p3292
aS'||'
p3293
aS'16'
p3294
ag8
aS'variable_1'
p3295
aS'->'
p3296
aS'variable_41'
p3297
ag69
aS'variable_46'
p3298
ag8
ag6
ag241
ag242
aS'variable_1'
p3299
aS'->'
p3300
aS'variable_41'
p3301
ag69
aS'variable_47'
p3302
ag13
aS'!='
p3303
aS'variable_3'
p3304
aS'->'
p3305
aS'variable_15'
p3306
aS'->'
p3307
aS'variable_57'
p3308
aS'||'
p3309
aS'variable_3'
p3310
aS'->'
p3311
aS'variable_15'
p3312
aS'->'
p3313
aS'variable_48'
p3314
aS'!='
p3315
aS'variable_1'
p3316
aS'->'
p3317
aS'variable_41'
p3318
ag69
aS'variable_43'
p3319
aS'||'
p3320
aS'variable_1'
p3321
aS'->'
p3322
aS'variable_49'
p3323
aS'!='
p3324
aS'variable_1'
p3325
aS'->'
p3326
aS'variable_41'
p3327
ag69
aS'variable_42'
p3328
aS'||'
p3329
aS'func_6'
p3330
ag6
aS'variable_1'
p3331
aS'->'
p3332
aS'variable_41'
p3333
ag69
aS'variable_58'
p3334
ag10
aS'variable_3'
p3335
aS'->'
p3336
aS'variable_15'
p3337
aS'->'
p3338
aS'variable_59'
p3339
ag13
ag13
ag13
ag29
aS'variable_3'
p3340
aS'->'
p3341
aS'variable_45'
p3342
ag17
aS'variable_1'
p3343
aS'->'
p3344
aS'variable_41'
p3345
ag69
aS'variable_45'
p3346
ag29
aS'variable_3'
p3347
aS'->'
p3348
aS'variable_46'
p3349
ag17
aS'variable_1'
p3350
aS'->'
p3351
aS'variable_41'
p3352
ag69
aS'variable_46'
p3353
ag8
ag6
ag241
ag242
aS'variable_1'
p3354
aS'->'
p3355
aS'variable_41'
p3356
ag69
aS'variable_47'
p3357
ag13
ag29
aS'variable_1'
p3358
aS'->'
p3359
aS'variable_60'
p3360
ag17
aS'variable_3'
p3361
aS'->'
p3362
aS'variable_45'
p3363
ag8
ag113
ag29
aS'variable_3'
p3364
aS'->'
p3365
aS'variable_61'
p3366
ag17
aS'variable_1'
p3367
aS'->'
p3368
aS'variable_41'
p3369
ag69
aS'variable_42'
p3370
ag272
ag17
ag205
ag29
aS'variable_3'
p3371
aS'->'
p3372
aS'variable_62'
p3373
ag17
aS'16'
p3374
ag8
aS'variable_3'
p3375
aS'->'
p3376
aS'variable_45'
p3377
ag29
aS'variable_3'
p3378
aS'->'
p3379
aS'variable_63'
p3380
ag17
aS'16'
p3381
ag8
aS'variable_3'
p3382
aS'->'
p3383
aS'variable_46'
p3384
ag29
aS'if'
p3385
ag6
aS'variable_1'
p3386
aS'->'
p3387
aS'variable_41'
p3388
ag69
aS'variable_64'
p3389
ag13
aS'variable_3'
p3390
aS'->'
p3391
aS'variable_15'
p3392
aS'->'
p3393
aS'variable_65'
p3394
ag17
aS'variable_1'
p3395
aS'->'
p3396
aS'variable_41'
p3397
ag69
aS'variable_66'
p3398
ag109
ag49
ag422
aS'variable_67'
p3399
ag424
aS'variable_68'
p3400
ag29
aS'if'
p3401
ag6
aS'variable_1'
p3402
aS'->'
p3403
aS'variable_41'
p3404
ag69
aS'variable_69'
p3405
ag13
aS'if'
p3406
ag6
aS'variable_3'
p3407
aS'->'
p3408
aS'variable_15'
p3409
aS'->'
p3410
aS'variable_70'
p3411
aS'!='
p3412
aS'variable_1'
p3413
aS'->'
p3414
aS'variable_41'
p3415
ag69
aS'variable_70'
p3416
ag13
aS'variable_14'
p3417
ag17
ag205
ag29
aS'variable_3'
p3418
aS'->'
p3419
aS'variable_15'
p3420
aS'->'
p3421
aS'variable_71'
p3422
ag17
aS'variable_1'
p3423
aS'->'
p3424
aS'variable_41'
p3425
ag69
aS'variable_71'
p3426
ag29
aS'variable_3'
p3427
aS'->'
p3428
aS'variable_15'
p3429
aS'->'
p3430
aS'variable_72'
p3431
ag17
aS'variable_1'
p3432
aS'->'
p3433
aS'variable_41'
p3434
ag69
aS'variable_72'
p3435
ag29
aS'variable_3'
p3436
aS'->'
p3437
aS'variable_15'
p3438
aS'->'
p3439
aS'variable_70'
p3440
ag17
aS'variable_1'
p3441
aS'->'
p3442
aS'variable_41'
p3443
ag69
aS'variable_70'
p3444
ag29
aS'if'
p3445
ag6
aS'variable_3'
p3446
aS'->'
p3447
aS'variable_55'
p3448
aS'&&'
p3449
ag6
aS'variable_14'
p3450
aS'||'
p3451
aS'variable_13'
p3452
ag13
ag13
aS'if'
p3453
ag6
aS'variable_1'
p3454
aS'!='
p3455
aS'variable_2'
p3456
ag13
aS'if'
p3457
ag6
ag6
aS'variable_8'
p3458
ag17
aS'func_7'
p3459
ag6
aS'variable_1'
p3460
ag13
ag13
ag272
ag49
ag13
aS'variable_3'
p3461
aS'->'
p3462
aS'variable_15'
p3463
aS'->'
p3464
aS'variable_73'
p3465
ag17
aS'variable_8'
p3466
ag29
aS'if'
p3467
ag6
ag6
aS'variable_8'
p3468
ag17
aS'func_8'
p3469
ag6
aS'variable_1'
p3470
ag10
ag205
ag13
ag13
ag272
ag49
ag13
aS'variable_1'
p3471
aS'->'
p3472
aS'variable_74'
p3473
ag17
ag205
ag29
aS'if'
p3474
ag6
ag58
aS'variable_3'
p3475
aS'->'
p3476
aS'variable_55'
p3477
ag13
aS'if'
p3478
ag6
aS'variable_1'
p3479
aS'!='
p3480
aS'variable_2'
p3481
ag13
aS'if'
p3482
ag6
ag6
aS'variable_8'
p3483
ag17
aS'func_9'
p3484
ag6
aS'variable_1'
p3485
ag13
ag13
ag272
ag49
ag13
aS'variable_3'
p3486
aS'->'
p3487
aS'variable_15'
p3488
aS'->'
p3489
aS'variable_73'
p3490
ag17
aS'variable_8'
p3491
ag29
aS'if'
p3492
ag6
ag6
aS'variable_8'
p3493
ag17
aS'func_10'
p3494
ag6
aS'variable_1'
p3495
ag10
ag49
ag13
ag13
ag272
ag49
ag13
aS'if'
p3496
ag6
aS'variable_1'
p3497
aS'=='
p3498
aS'variable_2'
p3499
aS'&&'
p3500
aS'variable_1'
p3501
aS'->'
p3502
aS'variable_75'
p3503
aS'!='
p3504
aS'variable_6'
p3505
ag13
aS'variable_1'
p3506
aS'->'
p3507
aS'variable_75'
p3508
ag17
aS'variable_6'
p3509
ag29
aS'variable_1'
p3510
aS'->'
p3511
aS'variable_76'
p3512
ag17
aS'func_11'
p3513
ag6
ag18
aS'variable_3'
p3514
aS'->'
p3515
aS'variable_26'
p3516
ag10
aS'variable_1'
p3517
aS'->'
p3518
aS'variable_41'
p3519
ag69
aS'variable_77'
p3520
ag13
ag29
aS'variable_1'
p3521
aS'->'
p3522
aS'variable_78'
p3523
ag17
ag49
ag29
aS'variable_1'
p3524
aS'->'
p3525
aS'variable_79'
p3526
ag17
ag49
ag29
aS'if'
p3527
ag6
aS'variable_1'
p3528
aS'->'
p3529
aS'variable_41'
p3530
ag69
aS'variable_47'
p3531
ag13
aS'if'
p3532
ag6
ag58
aS'variable_1'
p3533
aS'->'
p3534
aS'variable_41'
p3535
ag69
aS'variable_80'
p3536
aS'&&'
p3537
aS'variable_9'
p3538
aS'=='
p3539
aS'variable_81'
p3540
ag13
aS'if'
p3541
ag6
aS'variable_2'
p3542
aS'->'
p3543
aS'variable_27'
p3544
aS'!='
p3545
ag49
ag13
aS'if'
p3546
ag6
aS'variable_4'
p3547
aS'->'
p3548
aS'variable_28'
p3549
ag13
aS'assert'
p3550
ag6
aS'variable_4'
p3551
aS'->'
p3552
aS'variable_29'
p3553
aS'->'
p3554
aS'variable_82'
p3555
ag69
aS'variable_83'
p3556
ag122
ag49
ag124
ag13
ag29
aa(lp3557
S'static'
p3558
aS'int'
p3559
aS'func_0'
p3560
ag6
aS'variable_0'
p3561
ag8
aS'variable_1'
p3562
ag10
aS'variable_0'
p3563
ag8
aS'variable_2'
p3564
ag13
aS'MpegEncContext'
p3565
ag8
aS'const'
p3566
aS'variable_3'
p3567
ag17
ag18
aS'variable_1'
p3568
aS'->'
p3569
aS'MpegEncContext'
p3570
ag8
aS'const'
p3571
aS'variable_4'
p3572
ag17
ag18
aS'variable_2'
p3573
aS'->'
p3574
aS'unsigned'
p3575
aS'int'
p3576
aS'variable_5'
p3577
ag29
aS'unsigned'
p3578
aS'int'
p3579
aS'variable_6'
p3580
ag29
aS'int'
p3581
aS'variable_7'
p3582
ag10
aS'variable_8'
p3583
ag29
aS'unsigned'
p3584
aS'int'
p3585
aS'variable_9'
p3586
ag10
aS'variable_10'
p3587
ag10
aS'variable_11'
p3588
ag10
aS'variable_12'
p3589
ag29
aS'int'
p3590
aS'variable_13'
p3591
ag29
aS'int'
p3592
aS'variable_14'
p3593
ag17
ag49
ag29
aS'if'
p3594
ag6
ag6
aS'variable_3'
p3595
aS'->'
p3596
aS'variable_15'
p3597
aS'->'
p3598
aS'variable_16'
p3599
ag18
aS'variable_17'
p3600
ag13
aS'&&'
p3601
ag58
aS'variable_1'
p3602
aS'->'
p3603
aS'variable_18'
p3604
aS'&&'
p3605
ag58
aS'variable_1'
p3606
aS'->'
p3607
aS'variable_19'
p3608
ag13
aS'variable_3'
p3609
aS'->'
p3610
aS'variable_20'
p3611
ag69
aS'variable_21'
p3612
ag17
aS'variable_3'
p3613
aS'->'
p3614
aS'variable_22'
p3615
ag69
aS'variable_23'
p3616
ag29
aS'variable_3'
p3617
aS'->'
p3618
aS'variable_20'
p3619
ag69
aS'variable_24'
p3620
ag17
aS'variable_3'
p3621
aS'->'
p3622
aS'variable_22'
p3623
ag69
aS'variable_25'
p3624
ag29
aS'variable_5'
p3625
ag17
aS'func_1'
p3626
ag6
ag18
aS'variable_3'
p3627
aS'->'
p3628
aS'variable_26'
p3629
ag13
ag29
aS'if'
p3630
ag6
aS'variable_5'
p3631
aS'=='
p3632
ag49
ag13
aS'variable_2'
p3633
aS'->'
p3634
aS'variable_27'
p3635
ag17
ag49
ag29
aS'if'
p3636
ag6
ag58
aS'variable_4'
p3637
aS'->'
p3638
aS'variable_28'
p3639
ag13
aS'variable_3'
p3640
aS'->'
p3641
aS'variable_29'
p3642
ag17
aS'NULL'
p3643
ag29
aS'variable_9'
p3644
ag17
aS'func_2'
p3645
ag6
ag18
aS'variable_3'
p3646
aS'->'
p3647
aS'variable_26'
p3648
ag13
ag29
aS'if'
p3649
ag6
aS'variable_9'
p3650
ag109
ag110
ag13
aS'if'
p3651
ag6
aS'variable_9'
p3652
ag109
ag113
ag13
aS'variable_9'
p3653
aS'-='
p3654
ag116
ag29
aS'variable_1'
p3655
aS'->'
p3656
aS'variable_30'
p3657
ag17
ag49
ag29
aS'variable_9'
p3658
ag17
aS'variable_31'
p3659
ag122
aS'variable_9'
p3660
ag124
ag29
aS'variable_1'
p3661
aS'->'
p3662
aS'variable_9'
p3663
ag17
aS'variable_9'
p3664
ag29
aS'variable_1'
p3665
aS'->'
p3666
aS'variable_32'
p3667
ag17
aS'variable_9'
p3668
ag18
ag133
ag29
aS'variable_3'
p3669
aS'->'
p3670
aS'variable_33'
p3671
ag17
aS'variable_1'
p3672
aS'->'
p3673
aS'variable_9'
p3674
ag29
aS'variable_6'
p3675
ag17
aS'func_3'
p3676
ag6
ag18
aS'variable_3'
p3677
aS'->'
p3678
aS'variable_26'
p3679
ag13
ag29
aS'if'
p3680
ag6
aS'variable_6'
p3681
ag109
ag17
aS'variable_34'
p3682
ag13
aS'if'
p3683
ag6
ag58
aS'variable_2'
p3684
aS'->'
p3685
aS'variable_35'
p3686
ag122
aS'variable_6'
p3687
ag124
ag13
aS'variable_1'
p3688
aS'->'
p3689
aS'variable_36'
p3690
ag17
ag8
aS'variable_2'
p3691
aS'->'
p3692
aS'variable_35'
p3693
ag122
aS'variable_6'
p3694
ag124
ag29
aS'if'
p3695
ag6
ag58
aS'variable_2'
p3696
aS'->'
p3697
aS'variable_37'
p3698
ag122
aS'variable_1'
p3699
aS'->'
p3700
aS'variable_36'
p3701
ag69
aS'variable_38'
p3702
ag124
ag13
aS'variable_39'
p3703
ag8
aS'variable_40'
p3704
ag17
aS'variable_2'
p3705
aS'->'
p3706
aS'variable_37'
p3707
ag122
aS'variable_1'
p3708
aS'->'
p3709
aS'variable_36'
p3710
ag69
aS'variable_38'
p3711
ag124
ag29
aS'variable_2'
p3712
aS'->'
p3713
aS'variable_37'
p3714
ag122
aS'variable_1'
p3715
aS'->'
p3716
aS'variable_36'
p3717
ag69
aS'variable_38'
p3718
ag124
aS'->'
p3719
aS'new'
p3720
ag17
aS'if'
p3721
ag6
aS'variable_1'
p3722
aS'->'
p3723
aS'variable_41'
p3724
ag69
aS'variable_42'
p3725
aS'!='
p3726
aS'variable_40'
p3727
aS'->'
p3728
aS'variable_42'
p3729
aS'||'
p3730
aS'variable_1'
p3731
aS'->'
p3732
aS'variable_41'
p3733
ag69
aS'variable_43'
p3734
aS'!='
p3735
aS'variable_40'
p3736
aS'->'
p3737
aS'variable_43'
p3738
ag13
aS'variable_14'
p3739
ag17
ag205
ag29
aS'variable_1'
p3740
aS'->'
p3741
aS'variable_44'
p3742
ag17
aS'variable_1'
p3743
aS'->'
p3744
aS'variable_36'
p3745
ag69
aS'variable_38'
p3746
ag29
aS'variable_1'
p3747
aS'->'
p3748
aS'variable_41'
p3749
ag17
ag8
aS'variable_2'
p3750
aS'->'
p3751
aS'variable_37'
p3752
ag122
aS'variable_1'
p3753
aS'->'
p3754
aS'variable_36'
p3755
ag69
aS'variable_38'
p3756
ag124
ag29
aS'if'
p3757
ag6
aS'variable_3'
p3758
aS'->'
p3759
aS'variable_45'
p3760
aS'!='
p3761
aS'variable_1'
p3762
aS'->'
p3763
aS'variable_41'
p3764
ag69
aS'variable_45'
p3765
aS'||'
p3766
aS'variable_3'
p3767
aS'->'
p3768
aS'variable_46'
p3769
aS'!='
p3770
aS'variable_1'
p3771
aS'->'
p3772
aS'variable_41'
p3773
ag69
aS'variable_46'
p3774
ag8
ag6
ag241
ag242
aS'variable_1'
p3775
aS'->'
p3776
aS'variable_41'
p3777
ag69
aS'variable_47'
p3778
ag13
aS'||'
p3779
aS'variable_3'
p3780
aS'->'
p3781
aS'variable_15'
p3782
aS'->'
p3783
aS'variable_48'
p3784
aS'!='
p3785
aS'variable_1'
p3786
aS'->'
p3787
aS'variable_41'
p3788
ag69
aS'variable_43'
p3789
aS'||'
p3790
aS'variable_1'
p3791
aS'->'
p3792
aS'variable_49'
p3793
aS'!='
p3794
aS'variable_1'
p3795
aS'->'
p3796
aS'variable_41'
p3797
ag69
aS'variable_42'
p3798
ag13
aS'variable_14'
p3799
ag17
ag205
ag29
aS'if'
p3800
ag6
ag6
aS'variable_8'
p3801
ag17
aS'func_4'
p3802
ag6
aS'variable_1'
p3803
ag13
ag13
ag272
ag49
ag13
aS'variable_3'
p3804
aS'->'
p3805
aS'variable_15'
p3806
aS'->'
p3807
aS'variable_50'
p3808
ag17
aS'func_5'
p3809
ag6
ag18
aS'variable_1'
p3810
aS'->'
p3811
aS'variable_41'
p3812
ag13
ag29
aS'variable_3'
p3813
aS'->'
p3814
aS'variable_15'
p3815
aS'->'
p3816
aS'variable_51'
p3817
ag17
aS'variable_1'
p3818
aS'->'
p3819
aS'variable_41'
p3820
ag69
aS'variable_52'
p3821
ag29
aS'variable_3'
p3822
aS'->'
p3823
aS'variable_15'
p3824
aS'->'
p3825
aS'variable_53'
p3826
ag17
aS'variable_1'
p3827
aS'->'
p3828
aS'variable_41'
p3829
ag69
aS'variable_54'
p3830
ag29
aS'variable_13'
p3831
ag17
ag6
aS'variable_3'
p3832
aS'->'
p3833
aS'variable_55'
p3834
aS'&&'
p3835
ag6
aS'16'
p3836
ag8
aS'variable_1'
p3837
aS'->'
p3838
aS'variable_41'
p3839
ag69
aS'variable_45'
p3840
aS'!='
p3841
aS'variable_3'
p3842
aS'->'
p3843
aS'variable_15'
p3844
aS'->'
p3845
aS'variable_56'
p3846
aS'||'
p3847
aS'16'
p3848
ag8
aS'variable_1'
p3849
aS'->'
p3850
aS'variable_41'
p3851
ag69
aS'variable_46'
p3852
ag8
ag6
ag241
ag242
aS'variable_1'
p3853
aS'->'
p3854
aS'variable_41'
p3855
ag69
aS'variable_47'
p3856
ag13
aS'!='
p3857
aS'variable_3'
p3858
aS'->'
p3859
aS'variable_15'
p3860
aS'->'
p3861
aS'variable_57'
p3862
aS'||'
p3863
aS'variable_3'
p3864
aS'->'
p3865
aS'variable_15'
p3866
aS'->'
p3867
aS'variable_48'
p3868
aS'!='
p3869
aS'variable_1'
p3870
aS'->'
p3871
aS'variable_41'
p3872
ag69
aS'variable_43'
p3873
aS'||'
p3874
aS'variable_1'
p3875
aS'->'
p3876
aS'variable_49'
p3877
aS'!='
p3878
aS'variable_1'
p3879
aS'->'
p3880
aS'variable_41'
p3881
ag69
aS'variable_42'
p3882
aS'||'
p3883
aS'func_6'
p3884
ag6
aS'variable_1'
p3885
aS'->'
p3886
aS'variable_41'
p3887
ag69
aS'variable_58'
p3888
ag10
aS'variable_3'
p3889
aS'->'
p3890
aS'variable_15'
p3891
aS'->'
p3892
aS'variable_59'
p3893
ag13
ag13
ag13
ag29
aS'variable_3'
p3894
aS'->'
p3895
aS'variable_45'
p3896
ag17
aS'variable_1'
p3897
aS'->'
p3898
aS'variable_41'
p3899
ag69
aS'variable_45'
p3900
ag29
aS'variable_3'
p3901
aS'->'
p3902
aS'variable_46'
p3903
ag17
aS'variable_1'
p3904
aS'->'
p3905
aS'variable_41'
p3906
ag69
aS'variable_46'
p3907
ag8
ag6
ag241
ag242
aS'variable_1'
p3908
aS'->'
p3909
aS'variable_41'
p3910
ag69
aS'variable_47'
p3911
ag13
ag29
aS'variable_1'
p3912
aS'->'
p3913
aS'variable_60'
p3914
ag17
aS'variable_3'
p3915
aS'->'
p3916
aS'variable_45'
p3917
ag8
ag113
ag29
aS'variable_3'
p3918
aS'->'
p3919
aS'variable_61'
p3920
ag17
aS'variable_1'
p3921
aS'->'
p3922
aS'variable_41'
p3923
ag69
aS'variable_42'
p3924
ag272
ag17
ag205
ag29
aS'variable_3'
p3925
aS'->'
p3926
aS'variable_62'
p3927
ag17
aS'16'
p3928
ag8
aS'variable_3'
p3929
aS'->'
p3930
aS'variable_45'
p3931
ag29
aS'variable_3'
p3932
aS'->'
p3933
aS'variable_63'
p3934
ag17
aS'16'
p3935
ag8
aS'variable_3'
p3936
aS'->'
p3937
aS'variable_46'
p3938
ag29
aS'if'
p3939
ag6
aS'variable_1'
p3940
aS'->'
p3941
aS'variable_41'
p3942
ag69
aS'variable_64'
p3943
ag13
aS'variable_3'
p3944
aS'->'
p3945
aS'variable_15'
p3946
aS'->'
p3947
aS'variable_65'
p3948
ag17
aS'variable_1'
p3949
aS'->'
p3950
aS'variable_41'
p3951
ag69
aS'variable_66'
p3952
ag109
ag49
ag422
aS'variable_67'
p3953
ag424
aS'variable_68'
p3954
ag29
aS'if'
p3955
ag6
aS'variable_1'
p3956
aS'->'
p3957
aS'variable_41'
p3958
ag69
aS'variable_69'
p3959
ag13
aS'if'
p3960
ag6
aS'variable_3'
p3961
aS'->'
p3962
aS'variable_15'
p3963
aS'->'
p3964
aS'variable_70'
p3965
aS'!='
p3966
aS'variable_1'
p3967
aS'->'
p3968
aS'variable_41'
p3969
ag69
aS'variable_70'
p3970
ag13
aS'variable_14'
p3971
ag17
ag205
ag29
aS'variable_3'
p3972
aS'->'
p3973
aS'variable_15'
p3974
aS'->'
p3975
aS'variable_71'
p3976
ag17
aS'variable_1'
p3977
aS'->'
p3978
aS'variable_41'
p3979
ag69
aS'variable_71'
p3980
ag29
aS'variable_3'
p3981
aS'->'
p3982
aS'variable_15'
p3983
aS'->'
p3984
aS'variable_72'
p3985
ag17
aS'variable_1'
p3986
aS'->'
p3987
aS'variable_41'
p3988
ag69
aS'variable_72'
p3989
ag29
aS'variable_3'
p3990
aS'->'
p3991
aS'variable_15'
p3992
aS'->'
p3993
aS'variable_70'
p3994
ag17
aS'variable_1'
p3995
aS'->'
p3996
aS'variable_41'
p3997
ag69
aS'variable_70'
p3998
ag29
aS'if'
p3999
ag6
aS'variable_3'
p4000
aS'->'
p4001
aS'variable_55'
p4002
aS'&&'
p4003
ag6
aS'variable_14'
p4004
aS'||'
p4005
aS'variable_13'
p4006
ag13
ag13
aS'if'
p4007
ag6
aS'variable_1'
p4008
aS'!='
p4009
aS'variable_2'
p4010
ag13
aS'if'
p4011
ag6
ag6
aS'variable_8'
p4012
ag17
aS'func_7'
p4013
ag6
aS'variable_1'
p4014
ag13
ag13
ag272
ag49
ag13
aS'variable_3'
p4015
aS'->'
p4016
aS'variable_15'
p4017
aS'->'
p4018
aS'variable_73'
p4019
ag17
aS'variable_8'
p4020
ag29
aS'if'
p4021
ag6
ag6
aS'variable_8'
p4022
ag17
aS'func_8'
p4023
ag6
aS'variable_1'
p4024
ag10
ag205
ag13
ag13
ag272
ag49
ag13
aS'variable_1'
p4025
aS'->'
p4026
aS'variable_74'
p4027
ag17
ag205
ag29
aS'if'
p4028
ag6
ag58
aS'variable_3'
p4029
aS'->'
p4030
aS'variable_55'
p4031
ag13
aS'if'
p4032
ag6
aS'variable_1'
p4033
aS'!='
p4034
aS'variable_2'
p4035
ag13
aS'if'
p4036
ag6
ag6
aS'variable_8'
p4037
ag17
aS'func_9'
p4038
ag6
aS'variable_1'
p4039
ag13
ag13
ag272
ag49
ag13
aS'variable_3'
p4040
aS'->'
p4041
aS'variable_15'
p4042
aS'->'
p4043
aS'variable_73'
p4044
ag17
aS'variable_8'
p4045
ag29
aS'if'
p4046
ag6
ag6
aS'variable_8'
p4047
ag17
aS'func_10'
p4048
ag6
aS'variable_1'
p4049
ag10
ag49
ag13
ag13
ag272
ag49
ag13
aS'if'
p4050
ag6
aS'variable_1'
p4051
aS'=='
p4052
aS'variable_2'
p4053
aS'&&'
p4054
aS'variable_1'
p4055
aS'->'
p4056
aS'variable_75'
p4057
aS'!='
p4058
aS'variable_6'
p4059
ag13
aS'variable_1'
p4060
aS'->'
p4061
aS'variable_75'
p4062
ag17
aS'variable_6'
p4063
ag29
aS'variable_1'
p4064
aS'->'
p4065
aS'variable_76'
p4066
ag17
aS'func_11'
p4067
ag6
ag18
aS'variable_3'
p4068
aS'->'
p4069
aS'variable_26'
p4070
ag10
aS'variable_1'
p4071
aS'->'
p4072
aS'variable_41'
p4073
ag69
aS'variable_77'
p4074
ag13
ag29
aS'variable_1'
p4075
aS'->'
p4076
aS'variable_78'
p4077
ag17
ag49
ag29
aS'variable_1'
p4078
aS'->'
p4079
aS'variable_79'
p4080
ag17
ag49
ag29
aS'if'
p4081
ag6
aS'variable_1'
p4082
aS'->'
p4083
aS'variable_41'
p4084
ag69
aS'variable_47'
p4085
ag13
aS'if'
p4086
ag6
ag58
aS'variable_1'
p4087
aS'->'
p4088
aS'variable_41'
p4089
ag69
aS'variable_80'
p4090
aS'&&'
p4091
aS'variable_9'
p4092
aS'=='
p4093
aS'variable_81'
p4094
ag13
aS'if'
p4095
ag6
aS'variable_2'
p4096
aS'->'
p4097
aS'variable_27'
p4098
aS'!='
p4099
ag49
ag13
aS'if'
p4100
ag6
aS'variable_4'
p4101
aS'->'
p4102
aS'variable_28'
p4103
ag13
aS'assert'
p4104
ag6
aS'variable_4'
p4105
aS'->'
p4106
aS'variable_29'
p4107
ag13
ag29
aaa(lp4108
I0
aI0
aI0
aI0
aI0
aI0
aa(lp4109
I1271
aI1271
aI1271
aI879
aI879
aI879
aa(lp4110
(lp4111
S'main'
p4112
aa(lp4113
g4112
aa(lp4114
g4112
aa(lp4115
g4112
aa(lp4116
g4112
aa(lp4117
g4112
aaa(lp4118
S'691 /home/SySeVR/data/CVE_2013_0867_VULN_decode_slice_header.c assert 359'
p4119
aS'692 /home/SySeVR/data/CVE_2013_0867_VULN_decode_slice_header.c assert 358'
p4120
aS'693 /home/SySeVR/data/CVE_2013_0867_VULN_decode_slice_header.c assert 357'
p4121
aS'694 /home/SySeVR/data/CVE_2013_0867_VULN_decode_slice_header.c assert 260'
p4122
aS'695 /home/SySeVR/data/CVE_2013_0867_VULN_decode_slice_header.c assert 259'
p4123
aS'696 /home/SySeVR/data/CVE_2013_0867_VULN_decode_slice_header.c assert 258'
p4124
aa.