(lp0
(lp1
(lp2
S'static'
p3
aS'ssize_t'
p4
aS'func_0'
p5
aS'('
p6
aS'struct'
p7
aS'variable_0'
p8
aS'*'
p9
aS'variable_0'
p10
aS','
p11
aS'void'
p12
ag9
aS'variable_1'
p13
ag11
aS'size_t'
p14
aS'variable_2'
p15
aS')'
p16
aS'struct'
p17
aS'variable_3'
p18
ag9
aS'variable_4'
p19
aS'['
p20
aS'variable_5'
p21
aS']'
p22
aS'='
p23
aS'struct'
p24
aS'.'
p25
aS'variable_7'
p26
ag23
aS'func_1'
p27
ag6
aS'variable_0'
p28
ag16
ag25
aS'variable_8'
p29
ag23
ag25
aS'variable_9'
p30
ag23
aS'variable_2'
p31
ag11
aS'struct'
p32
ag25
aS'variable_9'
p33
ag23
aS'variable_2'
p34
ag11
aS'struct'
p35
ag25
aS'variable_12'
p36
ag23
aS'&'
p37
aS'variable_13'
p38
ag20
aS'variable_14'
p39
ag22
ag25
aS'variable_15'
p40
ag23
ag37
ag25
aS'variable_16'
p41
ag23
ag37
aS'variable_17'
p42
ag11
aS'variable_18'
p43
ag23
ag6
aS'variable_2'
p44
aS'+'
p45
aS'variable_19'
p46
aS'-'
p47
aS'1'
p48
ag16
aS'>>'
p49
aS'variable_20'
p50
aS';'
p51
aS'if'
p52
ag6
aS'variable_18'
p53
aS'=='
p54
aS'0'
p55
ag16
aS'variable_18'
p56
ag23
ag48
ag51
aS'for'
p57
ag6
aS'variable_21'
p58
ag23
ag55
ag51
aS'variable_21'
p59
aS'<'
p60
aS'variable_18'
p61
ag51
aS'variable_21'
p62
aS'++'
p63
ag16
aS'variable_4'
p64
ag20
aS'variable_21'
p65
ag22
ag23
aS'func_2'
p66
ag6
aS'variable_22'
p67
ag16
ag51
aS'if'
p68
ag6
aS'!'
p69
aS'variable_4'
p70
ag20
aS'variable_21'
p71
ag22
ag16
aS'if'
p72
ag6
aS'variable_18'
p73
aS'>'
p74
ag48
ag16
aS'variable_17'
p75
ag25
aS'variable_23'
p76
ag23
aS'func_3'
p77
ag6
aS'variable_22'
p78
ag16
ag51
aS'if'
p79
ag6
ag69
aS'variable_17'
p80
ag25
aS'variable_23'
p81
ag16
aS'variable_24'
p82
ag25
aS'variable_9'
p83
ag23
aS'variable_18'
p84
ag9
aS'variable_19'
p85
ag51
aS'variable_24'
p86
ag25
aS'variable_25'
p87
ag23
ag55
ag51
aS'if'
p88
ag6
aS'variable_1'
p89
aS'=='
p90
aS'NULL'
p91
ag16
aS'variable_17'
p92
ag25
aS'variable_26'
p93
aS'|'
p94
ag23
aS'variable_27'
p95
ag51
aS'variable_28'
p96
ag23
aS'func_4'
p97
ag6
aS'func_5'
p98
ag6
aS'variable_0'
p99
ag16
aS'->'
p100
aS'variable_29'
p101
ag11
aS'func_6'
p102
ag6
aS'variable_0'
p103
ag16
ag11
ag37
aS'variable_30'
p104
ag11
ag37
aS'variable_24'
p105
ag25
aS'variable_31'
p106
ag11
ag37
aS'variable_17'
p107
ag25
aS'variable_32'
p108
ag11
ag55
ag16
ag51
aS'if'
p109
ag6
aS'variable_28'
p110
ag16
aS'variable_9'
p111
ag23
aS'variable_17'
p112
ag25
aS'variable_9'
p113
ag47
aS'variable_17'
p114
ag25
aS'variable_33'
p115
ag51
aS'if'
p116
ag6
aS'variable_9'
p117
ag74
aS'variable_24'
p118
ag25
aS'variable_9'
p119
ag16
aS'func_7'
p120
ag6
aS'variable_0'
p121
ag11
aS'NULL'
p122
ag11
aS'variable_9'
p123
ag16
ag51
aS'func_8'
p124
ag6
aS'variable_0'
p125
ag11
aS'variable_34'
p126
ag45
aS'variable_17'
p127
ag25
aS'variable_33'
p128
ag11
aS'variable_9'
p129
ag16
ag51
aS'if'
p130
ag6
aS'variable_9'
p131
ag74
aS'variable_2'
p132
ag16
aS'variable_28'
p133
ag23
aS'variable_9'
p134
ag51
aS'return'
p135
aS'variable_28'
p136
ag51
aa(lp137
S'static'
p138
aS'ssize_t'
p139
aS'func_0'
p140
ag6
aS'struct'
p141
aS'variable_0'
p142
ag9
aS'variable_0'
p143
ag11
aS'void'
p144
ag9
aS'variable_1'
p145
ag11
aS'size_t'
p146
aS'variable_2'
p147
ag16
aS'struct'
p148
aS'variable_3'
p149
ag9
aS'variable_4'
p150
ag20
aS'variable_5'
p151
ag22
ag23
aS'struct'
p152
ag25
aS'variable_7'
p153
ag23
aS'func_1'
p154
ag6
aS'variable_0'
p155
ag16
ag25
aS'variable_8'
p156
ag23
ag25
aS'variable_9'
p157
ag23
aS'variable_2'
p158
ag11
aS'struct'
p159
ag25
aS'variable_9'
p160
ag23
aS'variable_2'
p161
ag11
aS'variable_11'
p162
ag23
ag6
aS'variable_2'
p163
ag45
aS'variable_12'
p164
ag47
ag48
ag16
aS'>>'
p165
aS'variable_13'
p166
ag51
aS'if'
p167
ag6
aS'variable_11'
p168
aS'=='
p169
ag55
ag16
aS'variable_11'
p170
ag23
ag48
ag51
aS'for'
p171
ag6
aS'variable_14'
p172
ag23
ag55
ag51
aS'variable_14'
p173
ag60
aS'variable_11'
p174
ag51
aS'variable_14'
p175
aS'++'
p176
ag16
aS'variable_4'
p177
ag20
aS'variable_14'
p178
ag22
ag23
aS'func_2'
p179
ag6
aS'variable_15'
p180
ag16
ag51
aS'if'
p181
ag6
ag69
aS'variable_4'
p182
ag20
aS'variable_14'
p183
ag22
ag16
aS'if'
p184
ag6
aS'variable_11'
p185
ag74
ag48
ag16
aS'variable_16'
p186
ag25
aS'variable_17'
p187
ag23
aS'func_3'
p188
ag6
aS'variable_15'
p189
ag16
ag51
aS'if'
p190
ag6
ag69
aS'variable_16'
p191
ag25
aS'variable_17'
p192
ag16
aS'variable_18'
p193
ag25
aS'variable_9'
p194
ag23
aS'variable_11'
p195
ag9
aS'variable_12'
p196
ag51
aS'variable_18'
p197
ag25
aS'variable_19'
p198
ag23
ag55
ag51
aS'func_4'
p199
ag6
aS'"'
p200
aS'%'
p201
aS's'
p202
aS'buf'
p203
ag201
aS'p'
p204
aS'buflen'
p205
ag201
aS'zu'
p206
aS'npages'
p207
ag201
aS'd'
p208
aS'args'
p209
ag25
aS'acl_len'
p210
ag201
aS'zu'
p211
aS'\\'
p212
aS'n'
p213
ag200
ag11
aS'variable_20'
p214
ag11
aS'variable_1'
p215
ag11
aS'variable_2'
p216
ag11
aS'variable_11'
p217
ag11
aS'variable_18'
p218
ag25
aS'variable_9'
p219
ag16
ag51
aS'variable_21'
p220
ag23
aS'func_5'
p221
ag6
aS'func_6'
p222
ag6
aS'variable_0'
p223
ag16
aS'->'
p224
aS'variable_22'
p225
ag11
aS'func_7'
p226
ag6
aS'variable_0'
p227
ag16
ag11
ag37
aS'variable_23'
p228
ag11
ag37
aS'variable_18'
p229
ag25
aS'variable_24'
p230
ag11
ag37
aS'variable_16'
p231
ag25
aS'variable_25'
p232
ag11
ag55
ag16
ag51
aS'if'
p233
ag6
aS'variable_21'
p234
ag16
aS'if'
p235
ag6
aS'variable_9'
p236
ag74
aS'variable_18'
p237
ag25
aS'variable_9'
p238
ag16
aS'return'
p239
aS'variable_21'
p240
ag51
aa(lp241
S'static'
p242
aS'ssize_t'
p243
aS'func_0'
p244
ag6
aS'struct'
p245
aS'variable_0'
p246
ag9
aS'variable_0'
p247
ag11
aS'void'
p248
ag9
aS'variable_1'
p249
ag11
aS'size_t'
p250
aS'variable_2'
p251
ag16
aS'variable_3'
p252
ag23
ag6
aS'variable_2'
p253
ag45
aS'variable_4'
p254
ag47
ag48
ag16
aS'>>'
p255
aS'variable_5'
p256
ag51
aS'if'
p257
ag6
aS'variable_3'
p258
aS'=='
p259
ag55
ag16
aS'for'
p260
ag6
aS'variable_6'
p261
ag23
ag55
ag51
aS'variable_6'
p262
ag60
aS'variable_3'
p263
ag51
aS'variable_6'
p264
aS'++'
p265
ag16
aS'if'
p266
ag6
aS'variable_3'
p267
ag74
ag48
ag16
aS'variable_7'
p268
ag25
aS'variable_8'
p269
ag23
aS'variable_3'
p270
ag9
aS'variable_4'
p271
ag51
aS'variable_7'
p272
ag25
aS'variable_9'
p273
ag23
ag55
ag51
aS'func_1'
p274
ag6
ag200
ag201
ag202
aS'buf'
p275
ag201
ag204
aS'buflen'
p276
ag201
aS'zu'
p277
aS'npages'
p278
ag201
ag208
aS'args'
p279
ag25
aS'acl_len'
p280
ag201
aS'zu'
p281
ag212
ag213
ag200
ag11
aS'variable_10'
p282
ag11
aS'variable_1'
p283
ag11
aS'variable_2'
p284
ag11
aS'variable_3'
p285
ag11
aS'variable_7'
p286
ag25
aS'variable_8'
p287
ag16
ag51
aS'variable_11'
p288
ag23
aS'func_2'
p289
ag6
aS'func_3'
p290
ag6
aS'variable_0'
p291
ag16
aS'->'
p292
aS'variable_12'
p293
ag11
aS'func_4'
p294
ag6
aS'variable_0'
p295
ag16
ag11
ag37
aS'variable_13'
p296
ag11
ag37
aS'variable_7'
p297
ag25
aS'variable_14'
p298
ag11
ag37
aS'variable_15'
p299
ag25
aS'variable_16'
p300
ag11
ag55
ag16
ag51
aS'if'
p301
ag6
aS'variable_11'
p302
ag16
aS'if'
p303
ag6
aS'variable_8'
p304
ag74
aS'variable_7'
p305
ag25
aS'variable_8'
p306
ag16
aS'for'
p307
ag6
aS'variable_6'
p308
ag23
ag55
ag51
aS'variable_6'
p309
ag60
aS'variable_3'
p310
ag51
aS'variable_6'
p311
aS'++'
p312
ag16
aS'return'
p313
aS'variable_11'
p314
ag51
aaa(lp315
I0
aI0
aI0
aa(lp316
I214
aI129
aI26
aa(lp317
(lp318
S'main'
p319
aa(lp320
g319
aa(lp321
g319
aaa(lp322
S'299 /home/SySeVR/data/CVE_2012_2375_VULN___nfs4_get_acl_uncached.c acl_len = res . acl_len - res . acl_data_offset 52'
p323
aS'300 /home/SySeVR/data/CVE_2012_2375_VULN___nfs4_get_acl_uncached.c args . acl_len = npages * PAGE_SIZE 37'
p324
aS'301 /home/SySeVR/data/CVE_2012_2375_VULN___nfs4_get_acl_uncached.c npages = ( buflen + PAGE_SIZE - 1 ) >> PAGE_SHIFT 20'
p325
aa.