(lp0
(lp1
(lp2
S'static'
p3
aS'int'
p4
aS'func_0'
p5
aS'('
p6
aS'variable_0'
p7
aS'*'
p8
aS'variable_1'
p9
aS','
p10
aS'variable_2'
p11
ag8
aS'variable_3'
p12
ag10
aS'int'
p13
aS'variable_4'
p14
ag10
aS'int'
p15
aS'variable_5'
p16
ag10
aS'int'
p17
aS'variable_6'
p18
ag10
aS'const'
p19
aS'vqEntry'
p20
ag8
aS'variable_7'
p21
aS'['
p22
aS'2'
p23
aS']'
p24
ag10
aS'const'
p25
aS'uint8_t'
p26
ag8
ag8
aS'variable_8'
p27
ag10
aS'const'
p28
aS'uint8_t'
p29
ag8
aS'variable_9'
p30
aS')'
p31
aS'int'
p32
aS'variable_10'
p33
ag10
aS'variable_11'
p34
ag10
aS'variable_12'
p35
ag10
aS'variable_13'
p36
aS';'
p37
aS'int'
p38
aS'variable_14'
p39
aS'='
p40
aS'0'
p41
ag37
aS'uint8_t'
p42
aS'variable_15'
p43
ag10
ag8
aS'variable_16'
p44
ag10
ag8
aS'variable_17'
p45
ag37
aS'const'
p46
aS'vqEntry'
p47
ag8
aS'variable_18'
p48
ag37
aS'unsigned'
p49
aS'int'
p50
aS'variable_19'
p51
ag10
aS'variable_20'
p52
ag37
aS'for'
p53
ag6
aS'variable_11'
p54
ag40
ag41
ag37
aS'variable_11'
p55
aS'+'
p56
aS'variable_6'
p57
aS'<'
p58
aS'variable_1'
p59
aS'->'
p60
aS'variable_21'
p61
ag37
aS'variable_22'
p62
ag40
ag41
ag10
aS'variable_11'
p63
aS'+='
p64
aS'1'
p65
ag56
aS'variable_6'
p66
ag31
aS'for'
p67
ag6
aS'variable_10'
p68
ag40
ag41
ag37
aS'variable_10'
p69
ag56
aS'variable_5'
p70
ag58
aS'variable_1'
p71
aS'->'
p72
aS'variable_23'
p73
ag37
aS'variable_10'
p74
aS'+='
p75
ag65
ag56
aS'variable_5'
p76
ag31
aS'if'
p77
ag6
aS'variable_14'
p78
aS'>'
p79
ag41
ag31
aS'variable_14'
p80
aS'--'
p81
ag37
aS'for'
p82
ag6
aS'variable_12'
p83
ag40
ag41
ag37
aS'variable_12'
p84
ag58
aS'4'
p85
ag37
ag31
aS'variable_13'
p86
ag40
ag65
ag37
aS'variable_24'
p87
ag40
aS'variable_22'
p88
aS'&&'
p89
aS'!'
p90
aS'variable_12'
p91
ag37
aS'if'
p92
ag6
aS'variable_25'
p93
ag58
ag40
ag85
ag31
aS'variable_18'
p94
ag40
aS'variable_7'
p95
ag22
aS'variable_12'
p96
aS'&'
p97
ag65
ag24
ag37
aS'variable_18'
p98
ag40
aS'variable_7'
p99
ag22
ag65
ag24
ag37
aS'variable_15'
p100
ag40
aS'func_1'
p101
ag6
aS'variable_8'
p102
ag31
ag37
aS'if'
p103
ag6
aS'variable_15'
p104
ag58
aS'248'
p105
ag31
aS'if'
p106
ag6
aS'variable_15'
p107
ag58
aS'variable_18'
p108
aS'->'
p109
aS'variable_26'
p110
ag31
aS'variable_19'
p111
ag40
aS'func_2'
p112
ag6
aS'variable_8'
p113
ag31
ag37
aS'if'
p114
ag6
aS'variable_19'
p115
ag79
ag40
aS'variable_18'
p116
aS'->'
p117
aS'variable_26'
p118
aS'||'
p119
aS'variable_19'
p120
ag79
ag40
aS'248'
p121
ag31
aS'variable_15'
p122
aS'-='
p123
aS'variable_18'
p124
aS'->'
p125
aS'variable_26'
p126
ag37
aS'variable_19'
p127
ag40
aS'variable_15'
p128
aS'/'
p129
aS'variable_18'
p130
aS'->'
p131
aS'variable_27'
p132
ag37
aS'variable_20'
p133
ag40
aS'variable_15'
p134
aS'%'
p135
aS'variable_18'
p136
aS'->'
p137
aS'variable_27'
p138
ag37
aS'if'
p139
ag6
aS'variable_28'
p140
ag22
aS'variable_12'
p141
ag97
ag65
ag24
ag31
aS'func_3'
p142
ag6
aS'unsigned'
p143
aS'int'
p144
ag10
aS'variable_19'
p145
ag10
aS'variable_20'
p146
ag31
aS'switch'
p147
ag6
aS'variable_15'
p148
ag31
aS'variable_14'
p149
ag40
ag65
ag37
aS'variable_15'
p150
ag40
aS'253'
p151
ag37
aS'variable_13'
p152
ag40
aS'257'
p153
aS'-'
p154
aS'variable_15'
p155
ag154
aS'variable_12'
p156
ag37
aS'if'
p157
ag6
aS'variable_13'
p158
ag58
ag40
ag41
ag31
aS'variable_15'
p159
ag40
aS'func_4'
p160
ag6
aS'variable_8'
p161
ag31
ag37
aS'variable_14'
p162
ag40
ag6
aS'variable_15'
p163
ag97
aS'0x1F'
p164
ag31
ag154
ag65
ag37
aS'if'
p165
ag6
aS'variable_15'
p166
ag79
ag40
aS'64'
p167
aS'||'
p168
aS'variable_14'
p169
ag58
ag41
ag31
aS'variable_13'
p170
ag40
ag85
ag154
aS'variable_12'
p171
ag37
aS'variable_14'
p172
ag40
ag65
ag37
aS'if'
p173
ag6
aS'variable_12'
p174
ag31
aS'variable_13'
p175
ag40
ag85
ag37
aS'variable_12'
p176
aS'+='
p177
aS'variable_13'
p178
ag37
aS'variable_17'
p179
aS'+='
p180
aS'variable_29'
p181
ag8
ag6
aS'variable_13'
p182
aS'<<'
p183
aS'variable_6'
p184
ag31
ag37
aS'variable_16'
p185
aS'+='
p186
aS'variable_29'
p187
ag8
ag6
aS'variable_13'
p188
aS'<<'
p189
aS'variable_6'
p190
ag31
ag37
aa(lp191
S'static'
p192
aS'int'
p193
aS'func_0'
p194
ag6
aS'variable_0'
p195
ag8
aS'variable_1'
p196
ag10
aS'variable_2'
p197
ag8
aS'variable_3'
p198
ag10
aS'int'
p199
aS'variable_4'
p200
ag10
aS'int'
p201
aS'variable_5'
p202
ag10
aS'int'
p203
aS'variable_6'
p204
ag10
aS'const'
p205
aS'vqEntry'
p206
ag8
aS'variable_7'
p207
ag22
ag23
ag24
ag10
aS'const'
p208
aS'uint8_t'
p209
ag8
ag8
aS'variable_8'
p210
ag10
aS'const'
p211
aS'uint8_t'
p212
ag8
aS'variable_9'
p213
ag31
aS'int'
p214
aS'variable_10'
p215
ag10
aS'variable_11'
p216
ag10
aS'variable_12'
p217
ag10
aS'variable_13'
p218
ag37
aS'int'
p219
aS'variable_14'
p220
ag40
ag41
ag37
aS'uint8_t'
p221
aS'variable_15'
p222
ag10
ag8
aS'variable_16'
p223
ag10
ag8
aS'variable_17'
p224
ag37
aS'const'
p225
aS'vqEntry'
p226
ag8
aS'variable_18'
p227
ag37
aS'unsigned'
p228
aS'int'
p229
aS'variable_19'
p230
ag10
aS'variable_20'
p231
ag37
aS'for'
p232
ag6
aS'variable_11'
p233
ag40
ag41
ag37
aS'variable_11'
p234
ag56
aS'variable_6'
p235
ag58
aS'variable_1'
p236
aS'->'
p237
aS'variable_21'
p238
ag37
aS'variable_22'
p239
ag40
ag41
ag10
aS'variable_11'
p240
aS'+='
p241
ag65
ag56
aS'variable_6'
p242
ag31
aS'for'
p243
ag6
aS'variable_10'
p244
ag40
ag41
ag37
aS'variable_10'
p245
ag56
aS'variable_5'
p246
ag58
aS'variable_1'
p247
aS'->'
p248
aS'variable_23'
p249
ag37
aS'variable_10'
p250
aS'+='
p251
ag65
ag56
aS'variable_5'
p252
ag31
aS'if'
p253
ag6
aS'variable_14'
p254
ag79
ag41
ag31
aS'variable_14'
p255
aS'--'
p256
ag37
aS'for'
p257
ag6
aS'variable_12'
p258
ag40
ag41
ag37
aS'variable_12'
p259
ag58
ag85
ag37
ag31
aS'variable_13'
p260
ag40
ag65
ag37
aS'if'
p261
ag6
aS'variable_24'
p262
ag58
ag40
ag85
ag31
aS'variable_18'
p263
ag40
aS'variable_7'
p264
ag22
aS'variable_12'
p265
ag97
ag65
ag24
ag37
aS'variable_18'
p266
ag40
aS'variable_7'
p267
ag22
ag65
ag24
ag37
aS'variable_15'
p268
ag40
aS'func_1'
p269
ag6
aS'variable_8'
p270
ag31
ag37
aS'if'
p271
ag6
aS'variable_15'
p272
ag58
aS'248'
p273
ag31
aS'if'
p274
ag6
aS'variable_15'
p275
ag58
aS'variable_18'
p276
aS'->'
p277
aS'variable_25'
p278
ag31
aS'variable_19'
p279
ag40
aS'func_2'
p280
ag6
aS'variable_8'
p281
ag31
ag37
aS'if'
p282
ag6
aS'variable_19'
p283
ag79
ag40
aS'variable_18'
p284
aS'->'
p285
aS'variable_25'
p286
aS'||'
p287
aS'variable_19'
p288
ag79
ag40
aS'248'
p289
ag31
aS'variable_15'
p290
aS'-='
p291
aS'variable_18'
p292
aS'->'
p293
aS'variable_25'
p294
ag37
aS'variable_19'
p295
ag40
aS'variable_15'
p296
ag129
aS'variable_18'
p297
aS'->'
p298
aS'variable_26'
p299
ag37
aS'func_3'
p300
ag6
aS'unsigned'
p301
aS'int'
p302
ag10
aS'variable_19'
p303
ag10
aS'variable_20'
p304
ag31
aS'switch'
p305
ag6
aS'variable_15'
p306
ag31
aS'variable_14'
p307
ag40
ag65
ag37
aS'variable_15'
p308
ag40
aS'253'
p309
ag37
aS'variable_13'
p310
ag40
aS'257'
p311
ag154
aS'variable_15'
p312
ag154
aS'variable_12'
p313
ag37
aS'if'
p314
ag6
aS'variable_13'
p315
ag58
ag40
ag41
ag31
aS'variable_15'
p316
ag40
aS'func_4'
p317
ag6
aS'variable_8'
p318
ag31
ag37
aS'variable_14'
p319
ag40
ag6
aS'variable_15'
p320
ag97
aS'0x1F'
p321
ag31
ag154
ag65
ag37
aS'if'
p322
ag6
aS'variable_15'
p323
ag79
ag40
aS'64'
p324
aS'||'
p325
aS'variable_14'
p326
ag58
ag41
ag31
aS'variable_13'
p327
ag40
ag85
ag154
aS'variable_12'
p328
ag37
aS'variable_14'
p329
ag40
ag65
ag37
aS'if'
p330
ag6
aS'variable_12'
p331
ag31
aS'variable_13'
p332
ag40
ag85
ag37
aS'variable_12'
p333
aS'+='
p334
aS'variable_13'
p335
ag37
aaa(lp336
I0
aI0
aa(lp337
I269
aI216
aa(lp338
(lp339
S'main'
p340
aa(lp341
g340
aaa(lp342
S'305 /home/SySeVR/data/CVE_2012_2776_PATCHED_decode_cell_data.c num_lines = 257 - code - line 76'
p343
aS'306 /home/SySeVR/data/CVE_2012_2776_PATCHED_decode_cell_data.c dyad1 = code / delta_tab -> quad_exp 53'
p344
aa.