(lp0
(lp1
(lp2
S'static'
p3
aS'int'
p4
aS'func_0'
p5
aS'('
p6
aS'variable_0'
p7
aS'*'
p8
aS'variable_1'
p9
aS','
p10
aS'variable_2'
p11
ag8
aS'variable_3'
p12
aS')'
p13
aS'int'
p14
aS'variable_4'
p15
aS'='
p16
aS'variable_5'
p17
aS'->'
p18
aS'variable_6'
p19
aS'['
p20
aS'0'
p21
aS']'
p22
aS';'
p23
aS'int'
p24
aS'variable_7'
p25
ag16
aS'variable_4'
p26
ag8
aS'variable_1'
p27
aS'->'
p28
aS'variable_8'
p29
ag23
aS'if'
p30
ag6
aS'variable_9'
p31
aS'+'
p32
aS'variable_10'
p33
ag32
aS'variable_11'
p34
aS'>'
p35
aS'variable_7'
p36
aS'||'
p37
aS'func_1'
p38
ag6
aS'variable_3'
p39
ag13
aS'<'
p40
aS'variable_12'
p41
ag13
aS'if'
p42
ag6
aS'variable_9'
p43
ag32
aS'variable_10'
p44
ag32
aS'variable_11'
p45
ag35
aS'variable_7'
p46
ag13
aaa(lp47
I1
aa(lp48
I30
aa(lp49
(lp50
S'main'
p51
aaa(lp52
S'938 /home/SySeVR/data/CVE_2015_3395_VULN_msrle_decode_pal4.c int frame_size = row_dec * avctx -> height ; 10'
p53
aa.