(lp0
(lp1
(lp2
S'variable_0'
p3
aS'*'
p4
aS'func_0'
p5
aS'('
p6
aS'const'
p7
aS'char'
p8
ag4
aS'variable_1'
p9
aS','
p10
aS'const'
p11
aS'char'
p12
ag4
aS'variable_2'
p13
aS')'
p14
aS'variable_0'
p15
ag4
aS'variable_3'
p16
aS';'
p17
aS'int'
p18
aS'variable_4'
p19
ag17
aS'char'
p20
aS'variable_5'
p21
aS'['
p22
aS'1024'
p23
aS']'
p24
ag10
ag4
aS'variable_6'
p25
ag17
aS'variable_7'
p26
ag4
aS'variable_8'
p27
ag17
aS'if'
p28
ag6
aS'!'
p29
aS'variable_1'
p30
aS'||'
p31
ag29
aS'variable_2'
p32
aS'||'
p33
ag6
ag4
aS'variable_2'
p34
aS'!='
p35
aS"'"
p36
aS'r'
p37
ag36
aS'&&'
p38
ag4
aS'variable_2'
p39
aS'!='
p40
ag36
aS'w'
p41
ag36
aS'&&'
p42
ag4
aS'variable_2'
p43
aS'!='
p44
ag36
aS'a'
p45
ag36
aS'&&'
p46
ag4
aS'variable_2'
p47
aS'!='
p48
ag36
aS's'
p49
ag36
ag14
aS'||'
p50
ag6
ag4
aS'variable_2'
p51
aS'=='
p52
ag36
ag45
ag36
aS'&&'
p53
aS'isdigit'
p54
ag6
aS'variable_2'
p55
ag22
aS'1'
p56
ag24
aS'&'
p57
aS'255'
p58
ag14
ag14
ag14
aS'switch'
p59
ag6
ag4
aS'variable_2'
p60
ag14
aS'variable_4'
p61
aS'='
p62
aS'func_1'
p63
ag6
aS'variable_1'
p64
ag10
aS'variable_9'
p65
aS'|'
p66
aS'variable_10'
p67
ag66
aS'variable_11'
p68
ag66
aS'variable_12'
p69
ag66
aS'variable_13'
p70
ag10
aS'0666'
p71
ag14
ag17
aS'variable_4'
p72
ag62
aS'func_2'
p73
ag6
aS'variable_1'
p74
ag10
aS'variable_14'
p75
ag66
aS'variable_12'
p76
ag66
aS'variable_13'
p77
ag10
aS'0'
p78
ag14
ag17
aS'variable_4'
p79
ag62
aS'func_3'
p80
ag6
aS'variable_1'
p81
ag10
aS'variable_15'
p82
ag66
aS'variable_16'
p83
ag66
aS'variable_10'
p84
ag66
aS'variable_12'
p85
ag66
aS'variable_13'
p86
ag10
aS'0666'
p87
ag14
ag17
aS'if'
p88
ag6
ag6
aS'variable_6'
p89
ag62
aS'strrchr'
p90
ag6
aS'variable_5'
p91
ag10
ag36
aS':'
p92
ag36
ag14
ag14
aS'!='
p93
aS'NULL'
p94
ag14
ag4
aS'variable_6'
p95
aS'++'
p96
ag62
ag36
aS'\\'
p97
ag78
ag36
ag17
aS'if'
p98
ag6
ag6
aS'variable_8'
p99
ag62
aS'func_4'
p100
ag6
aS'variable_5'
p101
ag10
aS'variable_17'
p102
ag10
aS'variable_6'
p103
ag14
ag14
aS'=='
p104
aS'NULL'
p105
ag14
aS'if'
p106
ag6
ag29
aS'func_5'
p107
ag6
aS'variable_8'
p108
ag10
ag57
aS'variable_4'
p109
ag14
ag14
aS'if'
p110
ag6
aS'variable_4'
p111
aS'<'
p112
ag78
ag14
aS'if'
p113
ag6
ag6
aS'variable_3'
p114
ag62
aS'func_6'
p115
ag6
aS'variable_4'
p116
ag10
aS'variable_2'
p117
ag14
ag14
aS'=='
p118
aS'NULL'
p119
ag14
aS'if'
p120
ag6
ag4
aS'variable_2'
p121
aS'=='
p122
ag36
ag49
ag36
ag14
aS'func_7'
p123
ag6
aS'variable_4'
p124
ag14
ag17
aaa(lp125
I0
aa(lp126
I233
aa(lp127
(lp128
S'main'
p129
aaa(lp130
S'630 /home/SySeVR/data/CVE_2010_2431_VULN_cupsFileOpen.c close 87'
p131
aa.