(lp0
(lp1
(lp2
S'void'
p3
aS'func_0'
p4
aS'('
p5
aS'float'
p6
aS'variable_0'
p7
aS'['
p8
aS'256'
p9
aS']'
p10
aS','
p11
aS'float'
p12
aS'variable_1'
p13
ag8
aS'7'
p14
ag10
ag11
aS'int'
p15
aS'variable_2'
p16
aS')'
p17
aS'if'
p18
ag5
aS'variable_2'
p19
aS'=='
p20
aS'0'
p21
ag17
aS'if'
p22
ag5
aS'variable_2'
p23
aS'=='
p24
aS'1'
p25
ag17
aS'if'
p26
ag5
aS'variable_2'
p27
aS'=='
p28
aS'2'
p29
ag17
aS'if'
p30
ag5
aS'variable_2'
p31
aS'=='
p32
aS'3'
p33
ag17
aS'if'
p34
ag5
aS'variable_2'
p35
aS'=='
p36
aS'4'
p37
ag17
aS'assert'
p38
ag5
ag21
aS'&&'
p39
aS'"'
p40
aS'invalid'
p41
aS'parametric'
p42
aS'function'
p43
aS'type'
p44
aS'.'
p45
ag40
ag17
aS';'
p46
aaa(lp47
I0
aa(lp48
I48
aa(lp49
(lp50
S'main'
p51
aaa(lp52
S'657 /home/SySeVR/data/CVE_2012_1960_VULN_compute_curve_gamma_table_type_parametric.c assert 43'
p53
aa.