(lp0
(lp1
(lp2
S'void'
p3
aS'func_0'
p4
aS'('
p5
aS'float'
p6
aS'variable_0'
p7
aS'['
p8
aS'256'
p9
aS']'
p10
aS','
p11
aS'float'
p12
aS'variable_1'
p13
ag8
aS'7'
p14
ag10
ag11
aS'int'
p15
aS'variable_2'
p16
aS')'
p17
aS'size_t'
p18
aS'variable_3'
p19
aS';'
p20
aS'float'
p21
aS'variable_4'
p22
ag20
aS'float'
p23
aS'variable_5'
p24
ag11
aS'variable_6'
p25
ag11
aS'variable_7'
p26
ag11
aS'variable_8'
p27
ag11
aS'variable_9'
p28
ag20
aS'if'
p29
ag5
aS'variable_2'
p30
aS'=='
p31
aS'0'
p32
ag17
aS'variable_7'
p33
aS'='
p34
ag32
ag20
aS'variable_9'
p35
ag34
ag32
ag20
aS'variable_4'
p36
ag34
aS'-'
p37
aS'variable_10'
p38
ag20
aS'if'
p39
ag5
aS'variable_2'
p40
aS'=='
p41
aS'1'
p42
ag17
aS'variable_7'
p43
ag34
ag32
ag20
aS'variable_9'
p44
ag34
ag32
ag20
aS'variable_4'
p45
ag34
ag37
ag42
aS'*'
p46
aS'variable_1'
p47
ag8
aS'2'
p48
ag10
aS'/'
p49
aS'variable_1'
p50
ag8
ag42
ag10
ag20
aS'if'
p51
ag5
aS'variable_2'
p52
aS'=='
p53
ag48
ag17
aS'variable_7'
p54
ag34
ag32
ag20
aS'variable_9'
p55
ag34
aS'variable_1'
p56
ag8
aS'3'
p57
ag10
ag20
aS'variable_4'
p58
ag34
ag37
ag42
ag46
aS'variable_1'
p59
ag8
ag48
ag10
ag49
aS'variable_1'
p60
ag8
ag42
ag10
ag20
aS'if'
p61
ag5
aS'variable_2'
p62
aS'=='
p63
ag57
ag17
aS'variable_7'
p64
ag34
aS'variable_1'
p65
ag8
ag57
ag10
ag20
aS'variable_9'
p66
ag34
ag32
ag20
aS'variable_4'
p67
ag34
aS'variable_1'
p68
ag8
aS'4'
p69
ag10
ag20
aS'if'
p70
ag5
aS'variable_2'
p71
aS'=='
p72
ag69
ag17
aS'variable_7'
p73
ag34
aS'variable_1'
p74
ag8
ag57
ag10
ag20
aS'variable_9'
p75
ag34
aS'variable_1'
p76
ag8
aS'6'
p77
ag10
ag20
aS'variable_4'
p78
ag34
aS'variable_1'
p79
ag8
ag69
ag10
ag20
aS'variable_7'
p80
ag34
ag32
ag20
aS'variable_9'
p81
ag34
ag32
ag20
aS'variable_4'
p82
ag34
ag37
aS'variable_10'
p83
ag20
aS'for'
p84
ag5
aS'variable_3'
p85
ag34
ag32
ag20
aS'variable_3'
p86
aS'<'
p87
aS'256'
p88
ag20
aS'variable_3'
p89
aS'++'
p90
ag17
aS'if'
p91
ag5
aS'variable_3'
p92
aS'>'
p93
ag34
aS'variable_4'
p94
ag17
aS'variable_0'
p95
ag8
aS'variable_3'
p96
ag10
ag34
aS'variable_7'
p97
ag46
aS'variable_3'
p98
ag49
aS'255'
p99
aS'.'
p100
aS'+'
p101
aS'variable_9'
p102
ag20
aa(lp103
S'void'
p104
aS'func_0'
p105
ag5
aS'float'
p106
aS'variable_0'
p107
ag8
aS'256'
p108
ag10
ag11
aS'float'
p109
aS'variable_1'
p110
ag8
ag14
ag10
ag11
aS'int'
p111
aS'variable_2'
p112
ag17
aS'size_t'
p113
aS'variable_3'
p114
ag20
aS'float'
p115
aS'variable_4'
p116
ag20
aS'float'
p117
aS'variable_5'
p118
ag11
aS'variable_6'
p119
ag11
aS'variable_7'
p120
ag11
aS'variable_8'
p121
ag11
aS'variable_9'
p122
ag20
aS'float'
p123
aS'variable_10'
p124
ag34
aS'variable_1'
p125
ag8
ag32
ag10
ag20
aS'if'
p126
ag5
aS'variable_2'
p127
aS'=='
p128
ag32
ag17
aS'variable_5'
p129
ag34
ag42
ag20
aS'variable_6'
p130
ag34
ag32
ag20
aS'variable_7'
p131
ag34
ag32
ag20
aS'variable_8'
p132
ag34
ag32
ag20
aS'variable_4'
p133
ag34
ag37
aS'variable_11'
p134
ag20
aS'if'
p135
ag5
aS'variable_2'
p136
aS'=='
p137
ag42
ag17
aS'variable_5'
p138
ag34
aS'variable_1'
p139
ag8
ag42
ag10
ag20
aS'variable_6'
p140
ag34
aS'variable_1'
p141
ag8
ag48
ag10
ag20
aS'variable_7'
p142
ag34
ag32
ag20
aS'variable_8'
p143
ag34
ag32
ag20
aS'variable_4'
p144
ag34
ag37
ag42
ag46
aS'variable_1'
p145
ag8
ag48
ag10
ag49
aS'variable_1'
p146
ag8
ag42
ag10
ag20
aS'if'
p147
ag5
aS'variable_2'
p148
aS'=='
p149
ag48
ag17
aS'variable_5'
p150
ag34
aS'variable_1'
p151
ag8
ag42
ag10
ag20
aS'variable_6'
p152
ag34
aS'variable_1'
p153
ag8
ag48
ag10
ag20
aS'variable_7'
p154
ag34
ag32
ag20
aS'variable_8'
p155
ag34
aS'variable_1'
p156
ag8
ag57
ag10
ag20
aS'variable_4'
p157
ag34
ag37
ag42
ag46
aS'variable_1'
p158
ag8
ag48
ag10
ag49
aS'variable_1'
p159
ag8
ag42
ag10
ag20
aS'if'
p160
ag5
aS'variable_2'
p161
aS'=='
p162
ag57
ag17
aS'variable_5'
p163
ag34
aS'variable_1'
p164
ag8
ag42
ag10
ag20
aS'variable_6'
p165
ag34
aS'variable_1'
p166
ag8
ag48
ag10
ag20
aS'variable_7'
p167
ag34
aS'variable_1'
p168
ag8
ag57
ag10
ag20
aS'variable_8'
p169
ag34
ag37
aS'variable_7'
p170
ag20
aS'variable_4'
p171
ag34
aS'variable_1'
p172
ag8
ag69
ag10
ag20
aS'if'
p173
ag5
aS'variable_2'
p174
aS'=='
p175
ag69
ag17
aS'variable_5'
p176
ag34
aS'variable_1'
p177
ag8
ag42
ag10
ag20
aS'variable_6'
p178
ag34
aS'variable_1'
p179
ag8
ag48
ag10
ag20
aS'variable_7'
p180
ag34
aS'variable_1'
p181
ag8
ag57
ag10
ag20
aS'variable_8'
p182
ag34
aS'variable_1'
p183
ag8
aS'5'
p184
ag10
ag37
aS'variable_7'
p185
ag20
aS'variable_4'
p186
ag34
aS'variable_1'
p187
ag8
ag69
ag10
ag20
aS'variable_5'
p188
ag34
ag42
ag20
aS'variable_6'
p189
ag34
ag32
ag20
aS'variable_7'
p190
ag34
ag32
ag20
aS'variable_8'
p191
ag34
ag32
ag20
aS'variable_4'
p192
ag34
ag37
aS'variable_11'
p193
ag20
aS'for'
p194
ag5
aS'variable_3'
p195
ag34
ag32
ag20
aS'variable_3'
p196
ag87
aS'256'
p197
ag20
aS'variable_3'
p198
aS'++'
p199
ag17
aS'if'
p200
ag5
aS'variable_3'
p201
ag93
ag34
aS'variable_4'
p202
ag17
aS'variable_0'
p203
ag8
aS'variable_3'
p204
ag10
ag34
aS'pow'
p205
ag5
aS'variable_5'
p206
ag46
aS'variable_3'
p207
ag49
aS'255'
p208
ag100
ag101
aS'variable_6'
p209
ag11
aS'variable_10'
p210
ag17
ag101
aS'variable_7'
p211
ag101
aS'variable_8'
p212
ag20
aaa(lp213
I0
aI0
aa(lp214
I210
aI302
aa(lp215
(lp216
S'main'
p217
aa(lp218
g217
aaa(lp219
S'295 /home/SySeVR/data/CVE_2012_1960_VULN_compute_curve_gamma_table_type_parametric.c gamma_table [ X ] = c * X / 255. + f 58'
p220
aS'296 /home/SySeVR/data/CVE_2012_1960_VULN_compute_curve_gamma_table_type_parametric.c gamma_table [ X ] = pow ( a * X / 255. + b , y ) + c + e 56'
p221
aa.