(lp0
(lp1
(lp2
S'int'
p3
aS'func_0'
p4
aS'('
p5
aS'struct'
p6
aS'variable_0'
p7
aS'*'
p8
aS'variable_0'
p9
aS','
p10
aS'void'
p11
aS'variable_1'
p12
ag8
aS'variable_2'
p13
ag10
aS'int'
p14
aS'variable_3'
p15
aS')'
p16
aS'unsigned'
p17
aS'long'
p18
aS'variable_4'
p19
aS';'
p20
aS'void'
p21
ag8
aS'variable_5'
p22
ag20
aS'variable_5'
p23
aS'='
p24
aS'func_1'
p25
ag5
aS'variable_0'
p26
ag10
aS'variable_6'
p27
ag16
ag20
aS'if'
p28
ag5
aS'variable_3'
p29
ag16
aS'variable_4'
p30
ag24
aS'func_2'
p31
ag5
aS'variable_2'
p32
ag10
aS'variable_5'
p33
aS'+'
p34
aS'variable_7'
p35
ag10
aS'variable_8'
p36
ag16
ag20
aS'variable_4'
p37
ag24
aS'func_3'
p38
ag5
aS'variable_5'
p39
ag34
aS'variable_7'
p40
ag10
aS'variable_2'
p41
ag10
aS'variable_8'
p42
ag16
ag20
aS'if'
p43
ag5
aS'variable_4'
p44
ag16
aS'variable_5'
p45
ag24
aS'func_4'
p46
ag5
aS'variable_0'
p47
ag16
ag20
aS'if'
p48
ag5
aS'variable_3'
p49
ag16
aS'variable_4'
p50
ag24
aS'func_5'
p51
ag5
aS'variable_5'
p52
ag34
aS'variable_7'
p53
ag10
aS'variable_2'
p54
ag10
aS'variable_8'
p55
ag16
ag20
aS'if'
p56
ag5
aS'variable_4'
p57
ag16
aa(lp58
S'int'
p59
aS'func_0'
p60
ag5
aS'struct'
p61
aS'variable_0'
p62
ag8
aS'variable_0'
p63
ag10
aS'void'
p64
aS'variable_1'
p65
ag8
aS'variable_2'
p66
ag10
aS'int'
p67
aS'variable_3'
p68
ag16
aS'unsigned'
p69
aS'long'
p70
aS'variable_4'
p71
ag20
aS'void'
p72
ag8
aS'variable_5'
p73
ag20
aS'variable_5'
p74
ag24
aS'func_1'
p75
ag5
aS'variable_0'
p76
ag10
aS'variable_6'
p77
ag16
ag20
aS'if'
p78
ag5
aS'variable_3'
p79
ag16
aS'variable_4'
p80
ag24
aS'func_2'
p81
ag5
aS'variable_2'
p82
ag10
aS'variable_5'
p83
ag34
aS'variable_7'
p84
ag10
aS'variable_8'
p85
ag16
ag20
aS'variable_4'
p86
ag24
aS'func_3'
p87
ag5
aS'variable_5'
p88
ag34
aS'variable_7'
p89
ag10
aS'variable_2'
p90
ag10
aS'variable_8'
p91
ag16
ag20
aS'if'
p92
ag5
aS'variable_4'
p93
ag16
aS'variable_5'
p94
ag24
aS'func_4'
p95
ag5
aS'variable_0'
p96
ag16
ag20
aS'if'
p97
ag5
aS'variable_3'
p98
ag16
aS'variable_4'
p99
ag24
aS'func_5'
p100
ag5
aS'variable_2'
p101
ag10
aS'variable_5'
p102
ag34
aS'variable_7'
p103
ag10
aS'variable_8'
p104
ag16
ag20
aS'if'
p105
ag5
aS'variable_4'
p106
ag16
aa(lp107
S'int'
p108
aS'func_0'
p109
ag5
aS'struct'
p110
aS'variable_0'
p111
ag8
aS'variable_0'
p112
ag10
aS'void'
p113
aS'variable_1'
p114
ag8
aS'variable_2'
p115
ag10
aS'int'
p116
aS'variable_3'
p117
ag16
aS'unsigned'
p118
aS'long'
p119
aS'variable_4'
p120
ag20
aS'void'
p121
ag8
aS'variable_5'
p122
ag20
aS'variable_5'
p123
ag24
aS'func_1'
p124
ag5
aS'variable_0'
p125
ag10
aS'variable_6'
p126
ag16
ag20
aS'if'
p127
ag5
aS'variable_3'
p128
ag16
aS'variable_4'
p129
ag24
aS'func_2'
p130
ag5
aS'variable_5'
p131
ag34
aS'variable_7'
p132
ag10
aS'variable_2'
p133
ag10
aS'variable_8'
p134
ag16
ag20
aS'if'
p135
ag5
aS'variable_4'
p136
ag16
aS'if'
p137
ag5
aS'variable_4'
p138
ag16
aa(lp139
S'int'
p140
aS'func_0'
p141
ag5
aS'struct'
p142
aS'variable_0'
p143
ag8
aS'variable_0'
p144
ag10
aS'void'
p145
aS'variable_1'
p146
ag8
aS'variable_2'
p147
ag10
aS'int'
p148
aS'variable_3'
p149
ag16
aS'unsigned'
p150
aS'long'
p151
aS'variable_4'
p152
ag20
aS'void'
p153
ag8
aS'variable_5'
p154
ag20
aS'variable_5'
p155
ag24
aS'func_1'
p156
ag5
aS'variable_0'
p157
ag10
aS'variable_6'
p158
ag16
ag20
aS'if'
p159
ag5
aS'variable_3'
p160
ag16
aS'variable_4'
p161
ag24
aS'func_2'
p162
ag5
aS'variable_2'
p163
ag10
aS'variable_5'
p164
ag34
aS'variable_7'
p165
ag10
aS'variable_8'
p166
ag16
ag20
aS'if'
p167
ag5
aS'variable_4'
p168
ag16
aS'if'
p169
ag5
aS'variable_4'
p170
ag16
aaa(lp171
I1
aI1
aI1
aI1
aa(lp172
I91
aI91
aI50
aI50
aa(lp173
(lp174
S'main'
p175
aa(lp176
g175
aa(lp177
g175
aa(lp178
g175
aaa(lp179
S'162 /home/SySeVR/data/CVE_2010_3904_VULN_rds_page_copy_user.c ret = copy_from_user ( addr + offset , ptr , bytes ) 25'
p180
aS'163 /home/SySeVR/data/CVE_2010_3904_VULN_rds_page_copy_user.c ret = copy_to_user ( ptr , addr + offset , bytes ) 23'
p181
aS'164 /home/SySeVR/data/CVE_2010_3904_VULN_rds_page_copy_user.c ret = __copy_from_user_inatomic ( addr + offset , ptr , bytes ) 17'
p182
aS'165 /home/SySeVR/data/CVE_2010_3904_VULN_rds_page_copy_user.c ret = __copy_to_user_inatomic ( ptr , addr + offset , bytes ) 15'
p183
aa.