(lp0
(lp1
(lp2
S'func_0'
p3
aS'('
p4
aS'variable_0'
p5
aS'*'
p6
aS'variable_1'
p7
aS','
p8
aS'gint'
p9
aS'variable_2'
p10
ag8
aS'variable_3'
p11
ag6
aS'variable_4'
p12
ag8
aS'variable_5'
p13
ag6
aS'variable_6'
p14
ag8
aS'gint'
p15
aS'size'
p16
aS'variable_7'
p17
aS')'
p18
aS'variable_8'
p19
ag6
aS'variable_9'
p20
aS';'
p21
aS'variable_9'
p22
aS'='
p23
ag4
aS'dcerpc_info'
p24
ag6
ag18
aS'variable_10'
p25
aS'->'
p26
aS'variable_11'
p27
ag21
aS'variable_9'
p28
aS'->'
p29
aS'variable_11'
p30
ag23
aS'func_1'
p31
ag4
aS'variable_12'
p32
ag8
aS'1'
p33
ag18
ag21
aS'memset'
p34
ag4
aS'variable_9'
p35
aS'->'
p36
aS'variable_11'
p37
ag8
aS'0'
p38
ag8
aS'sizeof'
p39
ag4
aS'variable_12'
p40
ag18
ag18
ag21
aS'func_2'
p41
ag4
aS'variable_9'
p42
aS'->'
p43
aS'variable_11'
p44
ag18
ag21
aaa(lp45
I1
aa(lp46
I46
aa(lp47
(lp48
S'main'
p49
aaa(lp50
S'110 /home/SySeVR/data/CVE_2013_4922_VULN_dissect_dcom_ActivationProperties.c memset 25'
p51
aa.