(lp0
(lp1
(lp2
S'static'
p3
aS'size_t'
p4
aS'func_0'
p5
aS'('
p6
aS'char'
p7
aS'*'
p8
ag8
aS'variable_0'
p9
aS','
p10
aS'int'
p11
aS'variable_1'
p12
ag10
aS'const'
p13
aS'char'
p14
ag8
aS'variable_2'
p15
aS')'
p16
aS'const'
p17
aS'char'
p18
ag8
aS'variable_3'
p19
aS'='
p20
aS'func_1'
p21
ag6
aS'variable_1'
p22
ag16
aS';'
p23
aS'assert'
p24
ag6
aS'variable_3'
p25
aS'!='
p26
aS'NULL'
p27
ag16
ag23
aaa(lp28
I0
aa(lp29
I27
aa(lp30
(lp31
S'main'
p32
aaa(lp33
S'698 /home/SySeVR/data/CVE_2014_9743_PATCHED_httpd_HtmlError.c assert 4'
p34
aa.