(lp0
(lp1
(lp2
S'static'
p3
aS'gboolean'
p4
aS'func_0'
p5
aS'('
p6
aS'variable_0'
p7
aS'*'
p8
aS'variable_1'
p9
aS','
p10
aS'int'
p11
ag8
aS'variable_2'
p12
ag10
aS'variable_3'
p13
ag8
aS'variable_4'
p14
aS')'
p15
aS'int'
p16
aS'variable_5'
p17
aS';'
p18
aS'guint32'
p19
aS'variable_6'
p20
ag18
aS'guint8'
p21
aS'variable_7'
p22
aS'['
p23
aS'variable_8'
p24
aS']'
p25
ag18
aS'iptrace_1_0_phdr'
p26
aS'variable_9'
p27
ag18
aS'variable_5'
p28
aS'='
p29
aS'func_1'
p30
ag6
aS'variable_1'
p31
aS'->'
p32
aS'variable_10'
p33
ag10
aS'variable_7'
p34
ag10
aS'variable_8'
p35
ag10
aS'variable_2'
p36
ag10
aS'variable_11'
p37
ag15
ag18
aS'if'
p38
ag6
aS'variable_5'
p39
aS'<'
p40
ag29
aS'0'
p41
ag15
aS'variable_1'
p42
aS'->'
p43
aS'variable_4'
p44
aS'+='
p45
aS'variable_8'
p46
ag18
aS'variable_9'
p47
aS'.'
p48
aS'variable_12'
p49
ag29
aS'variable_7'
p50
ag23
aS'28'
p51
ag25
ag18
aS'variable_1'
p52
aS'->'
p53
aS'variable_13'
p54
ag48
aS'variable_14'
p55
ag29
aS'func_2'
p56
ag6
aS'variable_9'
p57
ag48
aS'variable_12'
p58
ag15
ag18
aS'variable_6'
p59
ag29
aS'func_3'
p60
ag6
aS'&'
p61
aS'variable_7'
p62
ag23
ag41
ag25
ag15
ag18
aS'if'
p63
ag6
aS'variable_6'
p64
ag40
aS'variable_15'
p65
ag15
aS'variable_6'
p66
aS'-='
p67
aS'variable_15'
p68
ag18
aS'if'
p69
ag6
aS'variable_1'
p70
aS'->'
p71
aS'variable_13'
p72
ag48
aS'variable_14'
p73
aS'=='
p74
aS'variable_16'
p75
ag15
aS'if'
p76
ag6
aS'variable_6'
p77
ag40
aS'3'
p78
ag15
ag8
aS'variable_11'
p79
ag29
aS'func_4'
p80
ag6
aS'"'
p81
aS'iptrace'
p82
aS':'
p83
aS'file'
p84
aS'has'
p85
aS'a'
p86
aS'%'
p87
aS'u'
p88
aS'-'
p89
aS'byte'
p90
aS'record'
p91
ag10
aS'too'
p92
aS'small'
p93
aS'to'
p94
aS'have'
p95
aS'even'
p96
ag86
aS'packet'
p97
aS'meta'
p98
ag89
aS'data'
p99
aS'header'
p100
ag81
ag10
aS'variable_6'
p101
aS'+'
p102
aS'variable_15'
p103
ag15
ag18
aaa(lp104
I0
aa(lp105
I152
aa(lp106
(lp107
S'main'
p108
aaa(lp109
S'277 /home/SySeVR/data/CVE_2012_0067_PATCHED_iptrace_read_1_0.c * err_info = g_strdup_printf ( "iptrace: file has a %u-byte record, too small to have even a packet meta-data header" , packet_size + IPTRACE_1_0_PDATA_SIZE ) 58'
p110
aa.