(lp0
(lp1
(lp2
S'int'
p3
aS'variable_0'
p4
aS','
p5
aS'const'
p6
aS'struct'
p7
aS'variable_1'
p8
aS'*'
p9
aS'variable_2'
p10
aS')'
p11
aS'if'
p12
aS'('
p13
aS'variable_0'
p14
aS'<'
p15
aS'sizeof'
p16
ag13
aS'struct'
p17
aS'variable_3'
p18
ag11
ag11
aS'if'
p19
ag13
aS'variable_4'
p20
aS'->'
p21
aS'variable_5'
p22
ag11
aS'if'
p23
ag13
aS'variable_0'
p24
ag15
aS'func_0'
p25
ag13
aS'&'
p26
aS'variable_4'
p27
aS'->'
p28
aS'variable_6'
p29
ag11
ag11
aS'variable_7'
p30
aS'->'
p31
aS'variable_8'
p32
aS'='
p33
aS'variable_4'
p34
aS';'
p35
aS'variable_7'
p36
aS'->'
p37
aS'variable_9'
p38
ag33
aS'func_1'
p39
ag13
ag26
aS'variable_4'
p40
aS'->'
p41
aS'variable_6'
p42
ag11
ag35
aS'variable_7'
p43
aS'->'
p44
aS'variable_10'
p45
ag33
aS'0'
p46
ag35
aS'variable_7'
p47
aS'->'
p48
aS'variable_11'
p49
ag33
aS'func_2'
p50
ag13
ag26
aS'variable_4'
p51
aS'->'
p52
aS'variable_12'
p53
ag11
ag35
aS'variable_7'
p54
aS'->'
p55
aS'variable_13'
p56
ag33
ag13
aS'uint8_t'
p57
ag9
ag11
aS'variable_4'
p58
aS'+'
p59
aS'sizeof'
p60
ag13
ag9
aS'variable_4'
p61
ag11
ag35
aS'variable_7'
p62
aS'->'
p63
aS'variable_14'
p64
ag33
ag46
ag35
aS'variable_7'
p65
aS'->'
p66
aS'variable_15'
p67
ag33
ag26
aS'variable_4'
p68
aS'->'
p69
aS'variable_12'
p70
ag35
aS'variable_7'
p71
aS'->'
p72
aS'variable_15'
p73
aS'++'
p74
ag35
aS'variable_7'
p75
aS'->'
p76
aS'variable_16'
p77
ag33
aS'variable_2'
p78
ag35
aS'variable_7'
p79
aS'->'
p80
aS'variable_17'
p81
ag33
ag26
aS'variable_18'
p82
ag35
aS'variable_7'
p83
aS'->'
p84
aS'variable_19'
p85
ag33
aS'1'
p86
ag35
aS'if'
p87
ag13
aS'variable_7'
p88
aS'->'
p89
aS'variable_11'
p90
ag26
ag13
ag86
aS'<<'
p91
aS'variable_20'
p92
ag11
ag11
aS'while'
p93
ag13
aS'func_3'
p94
ag13
aS'variable_7'
p95
aS'->'
p96
aS'variable_13'
p97
ag11
ag26
ag13
ag86
aS'<<'
p98
aS'variable_20'
p99
ag11
ag11
aS'variable_7'
p100
aS'->'
p101
aS'variable_13'
p102
aS'+='
p103
aS'sizeof'
p104
ag13
aS'variable_21'
p105
ag11
ag35
aS'if'
p106
ag13
ag13
aS'unsigned'
p107
aS'long'
p108
ag11
aS'variable_7'
p109
aS'->'
p110
aS'variable_13'
p111
aS'-'
p112
ag13
aS'unsigned'
p113
aS'long'
p114
ag11
aS'variable_7'
p115
aS'->'
p116
aS'variable_8'
p117
ag59
aS'sizeof'
p118
ag13
aS'variable_21'
p119
ag11
aS'>'
p120
ag13
aS'unsigned'
p121
aS'long'
p122
ag11
aS'variable_7'
p123
aS'->'
p124
aS'variable_9'
p125
ag11
aS'variable_7'
p126
aS'->'
p127
aS'variable_13'
p128
aS'+='
p129
aS'sizeof'
p130
ag13
aS'variable_21'
p131
ag11
ag35
aS'variable_7'
p132
aS'->'
p133
aS'variable_22'
p134
ag33
aS'variable_7'
p135
aS'->'
p136
aS'variable_13'
p137
ag35
aaa(lp138
I0
aa(lp139
I82
aa(lp140
(lp141
S'main'
p142
aaa(lp143
S'600 /home/SySeVR/data/CVE_2013_7027_PATCHED_ieee80211_radiotap_iterator_init.c iterator -> _arg = ( uint8_t * ) radiotap_header + sizeof ( * radiotap_header ) 22'
p144
aa.