(lp0
(lp1
(lp2
S'static'
p3
aS'int'
p4
aS'func_0'
p5
aS'('
p6
aS'variable_0'
p7
aS'*'
p8
aS'variable_1'
p9
aS','
p10
aS'int'
p11
ag8
aS'variable_2'
p12
ag10
aS'variable_3'
p13
ag8
aS'variable_4'
p14
aS')'
p15
aS'const'
p16
aS'uint8_t'
p17
ag8
aS'variable_5'
p18
aS'='
p19
aS'variable_4'
p20
aS'->'
p21
aS'variable_6'
p22
aS';'
p23
aS'int'
p24
aS'variable_7'
p25
ag19
aS'variable_4'
p26
aS'->'
p27
aS'variable_8'
p28
ag23
aS'variable_9'
p29
ag8
aS'variable_10'
p30
ag19
aS'variable_1'
p31
aS'->'
p32
aS'variable_11'
p33
ag23
aS'variable_12'
p34
ag8
aS'variable_13'
p35
ag23
aS'int'
p36
aS'variable_14'
p37
ag10
aS'variable_15'
p38
ag19
aS'variable_7'
p39
ag10
aS'variable_16'
p40
ag19
aS'0'
p41
ag23
aS'uint32_t'
p42
aS'variable_17'
p43
ag23
aS'int'
p44
aS'variable_18'
p45
ag10
aS'variable_19'
p46
ag10
aS'variable_20'
p47
ag10
aS'variable_21'
p48
ag10
aS'variable_22'
p49
ag23
aS'variable_10'
p50
aS'->'
p51
aS'variable_23'
p52
aS'->'
p53
aS'variable_24'
p54
ag19
aS'variable_10'
p55
aS'->'
p56
aS'variable_25'
p57
ag8
aS'variable_26'
p58
ag23
aS'if'
p59
ag6
ag6
aS'variable_22'
p60
ag19
aS'variable_1'
p61
aS'->'
p62
aS'func_1'
p63
ag6
aS'variable_1'
p64
ag10
aS'variable_10'
p65
aS'->'
p66
aS'variable_23'
p67
ag15
ag15
aS'<'
p68
ag41
ag15
aS'if'
p69
ag6
aS'variable_7'
p70
ag68
aS'variable_27'
p71
ag15
aS'variable_1'
p72
aS'->'
p73
aS'variable_28'
p74
ag19
ag41
ag23
aS'variable_21'
p75
ag19
ag41
ag23
aS'for'
p76
ag6
aS'variable_18'
p77
ag19
ag41
ag23
aS'variable_18'
p78
ag68
aS'variable_10'
p79
aS'->'
p80
aS'variable_25'
p81
ag23
aS'variable_18'
p82
aS'++'
p83
ag15
aS'variable_14'
p84
ag19
aS'func_2'
p85
ag6
aS'variable_5'
p86
ag15
aS'>>'
p87
aS'4'
p88
ag23
aS'variable_14'
p89
ag19
aS'func_3'
p90
ag6
aS'variable_14'
p91
ag10
aS'variable_15'
p92
ag10
aS'variable_29'
p93
ag15
ag23
aS'variable_13'
p94
ag19
aS'variable_10'
p95
aS'->'
p96
aS'variable_30'
p97
aS'['
p98
aS'variable_18'
p99
aS']'
p100
ag23
aS'assert'
p101
ag6
aS'variable_13'
p102
aS'!='
p103
aS'NULL'
p104
ag15
ag23
aS'if'
p105
ag6
aS'variable_14'
p106
ag68
aS'variable_27'
p107
ag15
aS'variable_17'
p108
ag19
ag6
aS'func_4'
p109
ag6
aS'variable_5'
p110
ag15
aS'&'
p111
aS'0x000fffff'
p112
ag15
aS'|'
p113
aS'variable_10'
p114
aS'->'
p115
aS'variable_31'
p116
ag23
aS'if'
p117
ag6
aS'func_5'
p118
ag6
aS'variable_17'
p119
ag15
ag68
ag41
ag15
aS'if'
p120
ag6
aS'variable_21'
p121
aS'+'
p122
aS'variable_13'
p123
aS'->'
p124
aS'variable_32'
p125
aS'>'
p126
aS'variable_1'
p127
aS'->'
p128
aS'variable_33'
p129
ag15
aS'variable_21'
p130
aS'+='
p131
aS'variable_13'
p132
aS'->'
p133
aS'variable_32'
p134
ag23
aS'variable_5'
p135
aS'+='
p136
aS'variable_14'
p137
ag23
aS'variable_15'
p138
aS'-='
p139
aS'variable_14'
p140
ag23
aS'variable_1'
p141
aS'->'
p142
aS'variable_28'
p143
aS'+='
p144
aS'variable_13'
p145
aS'->'
p146
aS'variable_28'
p147
ag23
aaa(lp148
I0
aa(lp149
I160
aa(lp150
(lp151
S'main'
p152
aaa(lp153
S'658 /home/SySeVR/data/CVE_2012_2797_PATCHED_decode_frame_mp3on4.c assert 36'
p154
aa.