(lp0
(lp1
(lp2
S'static'
p3
aS'int'
p4
aS'func_0'
p5
aS'('
p6
aS'variable_0'
p7
aS'*'
p8
aS'variable_1'
p9
aS','
p10
aS'int'
p11
ag8
aS'variable_2'
p12
ag10
aS'variable_3'
p13
ag8
aS'variable_4'
p14
aS')'
p15
aS'const'
p16
aS'uint8_t'
p17
ag8
aS'variable_5'
p18
aS'='
p19
aS'variable_4'
p20
aS'->'
p21
aS'variable_6'
p22
aS';'
p23
aS'int'
p24
aS'variable_7'
p25
ag19
aS'variable_4'
p26
aS'->'
p27
aS'variable_8'
p28
ag23
aS'variable_9'
p29
ag8
aS'variable_10'
p30
ag19
aS'variable_1'
p31
aS'->'
p32
aS'variable_11'
p33
ag23
aS'variable_12'
p34
ag8
aS'variable_13'
p35
ag23
aS'int'
p36
aS'variable_14'
p37
ag10
aS'variable_15'
p38
ag19
aS'variable_7'
p39
ag10
aS'variable_16'
p40
ag19
aS'0'
p41
ag23
aS'uint32_t'
p42
aS'variable_17'
p43
ag23
aS'variable_18'
p44
ag8
aS'variable_19'
p45
ag23
aS'variable_18'
p46
ag8
aS'variable_20'
p47
ag10
ag8
aS'variable_21'
p48
ag23
aS'int'
p49
aS'variable_22'
p50
ag10
aS'variable_23'
p51
ag10
aS'variable_24'
p52
ag10
aS'variable_25'
p53
ag10
aS'variable_26'
p54
ag23
aS'variable_10'
p55
aS'->'
p56
aS'variable_27'
p57
aS'->'
p58
aS'variable_28'
p59
ag19
aS'variable_10'
p60
aS'->'
p61
aS'variable_29'
p62
ag8
aS'variable_30'
p63
ag23
aS'if'
p64
ag6
ag6
aS'variable_26'
p65
ag19
aS'variable_1'
p66
aS'->'
p67
aS'func_1'
p68
ag6
aS'variable_1'
p69
ag10
aS'variable_10'
p70
aS'->'
p71
aS'variable_27'
p72
ag15
ag15
aS'<'
p73
ag41
ag15
aS'variable_19'
p74
ag19
ag6
aS'OUT_INT'
p75
ag8
ag15
aS'variable_10'
p76
aS'->'
p77
aS'variable_27'
p78
aS'->'
p79
aS'variable_6'
p80
aS'['
p81
ag41
aS']'
p82
ag23
aS'if'
p83
ag6
aS'variable_7'
p84
ag73
aS'variable_31'
p85
ag15
aS'variable_20'
p86
ag19
aS'variable_10'
p87
aS'->'
p88
aS'variable_29'
p89
aS'=='
p90
aS'1'
p91
aS'?'
p92
aS'variable_19'
p93
aS':'
p94
aS'variable_10'
p95
aS'->'
p96
aS'variable_32'
p97
ag23
aS'variable_1'
p98
aS'->'
p99
aS'variable_33'
p100
ag19
ag41
ag23
aS'variable_25'
p101
ag19
ag41
ag23
aS'for'
p102
ag6
aS'variable_22'
p103
ag19
ag41
ag23
aS'variable_22'
p104
ag73
aS'variable_10'
p105
aS'->'
p106
aS'variable_29'
p107
ag23
aS'variable_22'
p108
aS'++'
p109
ag15
aS'variable_14'
p110
ag19
aS'func_2'
p111
ag6
aS'variable_5'
p112
ag15
aS'>>'
p113
aS'4'
p114
ag23
aS'variable_14'
p115
ag19
aS'func_3'
p116
ag6
aS'variable_14'
p117
ag10
aS'variable_15'
p118
ag10
aS'variable_34'
p119
ag15
ag23
aS'variable_13'
p120
ag19
aS'variable_10'
p121
aS'->'
p122
aS'variable_35'
p123
ag81
aS'variable_22'
p124
ag82
ag23
aS'if'
p125
ag6
aS'variable_14'
p126
ag73
aS'variable_31'
p127
ag15
aS'variable_17'
p128
ag19
ag6
aS'func_4'
p129
ag6
aS'variable_5'
p130
ag15
aS'&'
p131
aS'0x000fffff'
p132
ag15
aS'|'
p133
aS'variable_10'
p134
aS'->'
p135
aS'variable_36'
p136
ag23
aS'if'
p137
ag6
aS'func_5'
p138
ag6
aS'variable_17'
p139
ag15
ag73
ag41
ag15
aS'if'
p140
ag6
aS'variable_25'
p141
aS'+'
p142
aS'variable_13'
p143
aS'->'
p144
aS'variable_37'
p145
aS'>'
p146
aS'variable_1'
p147
aS'->'
p148
aS'variable_38'
p149
ag15
aS'variable_25'
p150
aS'+='
p151
aS'variable_13'
p152
aS'->'
p153
aS'variable_37'
p154
ag23
aS'variable_16'
p155
aS'+='
p156
aS'func_6'
p157
ag6
aS'variable_13'
p158
ag10
aS'variable_20'
p159
ag10
aS'variable_5'
p160
ag10
aS'variable_14'
p161
ag15
ag23
aS'variable_5'
p162
aS'+='
p163
aS'variable_14'
p164
ag23
aS'variable_15'
p165
aS'-='
p166
aS'variable_14'
p167
ag23
aS'variable_1'
p168
aS'->'
p169
aS'variable_33'
p170
aS'+='
p171
aS'variable_13'
p172
aS'->'
p173
aS'variable_33'
p174
ag23
aS'variable_1'
p175
aS'->'
p176
aS'variable_39'
p177
ag19
aS'variable_10'
p178
aS'->'
p179
aS'variable_35'
p180
ag81
ag41
ag82
aS'->'
p181
aS'variable_39'
p182
ag23
aS'variable_10'
p183
aS'->'
p184
aS'variable_27'
p185
aS'->'
p186
aS'variable_28'
p187
ag19
aS'variable_16'
p188
aS'/'
p189
ag6
aS'variable_1'
p190
aS'->'
p191
aS'variable_38'
p192
ag8
aS'sizeof'
p193
ag6
aS'variable_18'
p194
ag15
ag15
ag23
ag8
ag6
aS'AVFrame'
p195
ag8
ag15
aS'variable_6'
p196
ag19
ag8
aS'variable_10'
p197
aS'->'
p198
aS'variable_27'
p199
ag23
aa(lp200
S'static'
p201
aS'int'
p202
aS'func_0'
p203
ag6
aS'variable_0'
p204
ag8
aS'variable_1'
p205
ag10
aS'int'
p206
ag8
aS'variable_2'
p207
ag10
aS'variable_3'
p208
ag8
aS'variable_4'
p209
ag15
aS'const'
p210
aS'uint8_t'
p211
ag8
aS'variable_5'
p212
ag19
aS'variable_4'
p213
aS'->'
p214
aS'variable_6'
p215
ag23
aS'int'
p216
aS'variable_7'
p217
ag19
aS'variable_4'
p218
aS'->'
p219
aS'variable_8'
p220
ag23
aS'variable_9'
p221
ag8
aS'variable_10'
p222
ag19
aS'variable_1'
p223
aS'->'
p224
aS'variable_11'
p225
ag23
aS'variable_12'
p226
ag8
aS'variable_13'
p227
ag23
aS'int'
p228
aS'variable_14'
p229
ag10
aS'variable_15'
p230
ag19
aS'variable_7'
p231
ag10
aS'variable_16'
p232
ag19
ag41
ag23
aS'uint32_t'
p233
aS'variable_17'
p234
ag23
aS'variable_18'
p235
ag8
aS'variable_19'
p236
ag23
aS'variable_18'
p237
ag8
aS'variable_20'
p238
ag10
ag8
aS'variable_21'
p239
ag23
aS'int'
p240
aS'variable_22'
p241
ag10
aS'variable_23'
p242
ag10
aS'variable_24'
p243
ag10
aS'variable_25'
p244
ag10
aS'variable_26'
p245
ag23
aS'variable_10'
p246
aS'->'
p247
aS'variable_27'
p248
aS'->'
p249
aS'variable_28'
p250
ag19
aS'variable_10'
p251
aS'->'
p252
aS'variable_29'
p253
ag8
aS'variable_30'
p254
ag23
aS'if'
p255
ag6
ag6
aS'variable_26'
p256
ag19
aS'variable_1'
p257
aS'->'
p258
aS'func_1'
p259
ag6
aS'variable_1'
p260
ag10
aS'variable_10'
p261
aS'->'
p262
aS'variable_27'
p263
ag15
ag15
ag73
ag41
ag15
aS'variable_19'
p264
ag19
ag6
aS'OUT_INT'
p265
ag8
ag15
aS'variable_10'
p266
aS'->'
p267
aS'variable_27'
p268
aS'->'
p269
aS'variable_6'
p270
ag81
ag41
ag82
ag23
aS'if'
p271
ag6
aS'variable_7'
p272
ag73
aS'variable_31'
p273
ag15
aS'variable_1'
p274
aS'->'
p275
aS'variable_32'
p276
ag19
ag41
ag23
aS'variable_25'
p277
ag19
ag41
ag23
aS'for'
p278
ag6
aS'variable_22'
p279
ag19
ag41
ag23
aS'variable_22'
p280
ag73
aS'variable_10'
p281
aS'->'
p282
aS'variable_29'
p283
ag23
aS'variable_22'
p284
aS'++'
p285
ag15
aS'variable_14'
p286
ag19
aS'func_2'
p287
ag6
aS'variable_5'
p288
ag15
aS'>>'
p289
ag114
ag23
aS'variable_14'
p290
ag19
aS'func_3'
p291
ag6
aS'variable_14'
p292
ag10
aS'variable_15'
p293
ag10
aS'variable_33'
p294
ag15
ag23
aS'variable_13'
p295
ag19
aS'variable_10'
p296
aS'->'
p297
aS'variable_34'
p298
ag81
aS'variable_22'
p299
ag82
ag23
aS'if'
p300
ag6
aS'variable_14'
p301
ag73
aS'variable_31'
p302
ag15
aS'variable_17'
p303
ag19
ag6
aS'func_4'
p304
ag6
aS'variable_5'
p305
ag15
ag131
aS'0x000fffff'
p306
ag15
ag133
aS'variable_10'
p307
aS'->'
p308
aS'variable_35'
p309
ag23
aS'if'
p310
ag6
aS'func_5'
p311
ag6
aS'variable_17'
p312
ag15
ag73
ag41
ag15
aS'if'
p313
ag6
aS'variable_25'
p314
ag142
aS'variable_13'
p315
aS'->'
p316
aS'variable_36'
p317
ag146
aS'variable_1'
p318
aS'->'
p319
aS'variable_37'
p320
ag15
aS'variable_25'
p321
aS'+='
p322
aS'variable_13'
p323
aS'->'
p324
aS'variable_36'
p325
ag23
aS'variable_5'
p326
aS'+='
p327
aS'variable_14'
p328
ag23
aS'variable_15'
p329
aS'-='
p330
aS'variable_14'
p331
ag23
aS'if'
p332
ag6
aS'variable_10'
p333
aS'->'
p334
aS'variable_29'
p335
ag146
ag91
ag15
aS'variable_21'
p336
ag19
aS'variable_19'
p337
ag142
aS'variable_10'
p338
aS'->'
p339
aS'variable_38'
p340
ag81
aS'variable_22'
p341
ag82
ag23
ag8
aS'variable_21'
p342
ag19
aS'variable_10'
p343
aS'->'
p344
aS'variable_39'
p345
ag81
aS'variable_23'
p346
ag82
ag23
aS'variable_21'
p347
aS'+='
p348
aS'variable_1'
p349
aS'->'
p350
aS'variable_37'
p351
ag23
aS'for'
p352
ag6
aS'variable_23'
p353
ag19
ag41
ag23
aS'variable_23'
p354
ag73
aS'variable_24'
p355
ag23
aS'variable_23'
p356
aS'++'
p357
ag15
aS'variable_21'
p358
ag81
ag41
ag82
ag19
aS'variable_10'
p359
aS'->'
p360
aS'variable_39'
p361
ag81
aS'variable_23'
p362
aS'++'
p363
ag82
ag23
aS'variable_21'
p364
ag81
ag91
ag82
ag19
aS'variable_10'
p365
aS'->'
p366
aS'variable_39'
p367
ag81
aS'variable_23'
p368
ag82
ag23
aS'variable_21'
p369
aS'+='
p370
aS'variable_1'
p371
aS'->'
p372
aS'variable_37'
p373
ag23
aS'variable_1'
p374
aS'->'
p375
aS'variable_32'
p376
aS'+='
p377
aS'variable_13'
p378
aS'->'
p379
aS'variable_32'
p380
ag23
aa(lp381
S'static'
p382
aS'int'
p383
aS'func_0'
p384
ag6
aS'variable_0'
p385
ag8
aS'variable_1'
p386
ag10
aS'int'
p387
ag8
aS'variable_2'
p388
ag10
aS'variable_3'
p389
ag8
aS'variable_4'
p390
ag15
aS'const'
p391
aS'uint8_t'
p392
ag8
aS'variable_5'
p393
ag19
aS'variable_4'
p394
aS'->'
p395
aS'variable_6'
p396
ag23
aS'int'
p397
aS'variable_7'
p398
ag19
aS'variable_4'
p399
aS'->'
p400
aS'variable_8'
p401
ag23
aS'variable_9'
p402
ag8
aS'variable_10'
p403
ag19
aS'variable_1'
p404
aS'->'
p405
aS'variable_11'
p406
ag23
aS'variable_12'
p407
ag8
aS'variable_13'
p408
ag23
aS'int'
p409
aS'variable_14'
p410
ag10
aS'variable_15'
p411
ag19
aS'variable_7'
p412
ag10
aS'variable_16'
p413
ag19
ag41
ag23
aS'uint32_t'
p414
aS'variable_17'
p415
ag23
aS'int'
p416
aS'variable_18'
p417
ag10
aS'variable_19'
p418
ag10
aS'variable_20'
p419
ag10
aS'variable_21'
p420
ag10
aS'variable_22'
p421
ag23
aS'variable_10'
p422
aS'->'
p423
aS'variable_23'
p424
aS'->'
p425
aS'variable_24'
p426
ag19
aS'variable_10'
p427
aS'->'
p428
aS'variable_25'
p429
ag8
aS'variable_26'
p430
ag23
aS'if'
p431
ag6
ag6
aS'variable_22'
p432
ag19
aS'variable_1'
p433
aS'->'
p434
aS'func_1'
p435
ag6
aS'variable_1'
p436
ag10
aS'variable_10'
p437
aS'->'
p438
aS'variable_23'
p439
ag15
ag15
ag73
ag41
ag15
aS'if'
p440
ag6
aS'variable_7'
p441
ag73
aS'variable_27'
p442
ag15
aS'variable_1'
p443
aS'->'
p444
aS'variable_28'
p445
ag19
ag41
ag23
aS'variable_21'
p446
ag19
ag41
ag23
aS'for'
p447
ag6
aS'variable_18'
p448
ag19
ag41
ag23
aS'variable_18'
p449
ag73
aS'variable_10'
p450
aS'->'
p451
aS'variable_25'
p452
ag23
aS'variable_18'
p453
aS'++'
p454
ag15
aS'variable_14'
p455
ag19
aS'func_2'
p456
ag6
aS'variable_5'
p457
ag15
aS'>>'
p458
ag114
ag23
aS'variable_14'
p459
ag19
aS'func_3'
p460
ag6
aS'variable_14'
p461
ag10
aS'variable_15'
p462
ag10
aS'variable_29'
p463
ag15
ag23
aS'variable_13'
p464
ag19
aS'variable_10'
p465
aS'->'
p466
aS'variable_30'
p467
ag81
aS'variable_18'
p468
ag82
ag23
aS'if'
p469
ag6
aS'variable_14'
p470
ag73
aS'variable_27'
p471
ag15
aS'variable_17'
p472
ag19
ag6
aS'func_4'
p473
ag6
aS'variable_5'
p474
ag15
ag131
aS'0x000fffff'
p475
ag15
ag133
aS'variable_10'
p476
aS'->'
p477
aS'variable_31'
p478
ag23
aS'if'
p479
ag6
aS'func_5'
p480
ag6
aS'variable_17'
p481
ag15
ag73
ag41
ag15
aS'if'
p482
ag6
aS'variable_21'
p483
ag142
aS'variable_13'
p484
aS'->'
p485
aS'variable_32'
p486
ag146
aS'variable_1'
p487
aS'->'
p488
aS'variable_33'
p489
ag15
aS'variable_21'
p490
aS'+='
p491
aS'variable_13'
p492
aS'->'
p493
aS'variable_32'
p494
ag23
aS'variable_5'
p495
aS'+='
p496
aS'variable_14'
p497
ag23
aS'variable_15'
p498
aS'-='
p499
aS'variable_14'
p500
ag23
aS'if'
p501
ag6
aS'variable_10'
p502
aS'->'
p503
aS'variable_25'
p504
ag146
ag91
ag15
aS'variable_20'
p505
ag19
aS'variable_13'
p506
aS'->'
p507
aS'variable_1'
p508
aS'->'
p509
aS'variable_34'
p510
ag8
aS'variable_13'
p511
aS'->'
p512
aS'variable_32'
p513
ag23
aS'for'
p514
ag6
aS'variable_19'
p515
ag19
ag41
ag23
aS'variable_19'
p516
ag73
aS'variable_20'
p517
ag23
aS'variable_19'
p518
aS'++'
p519
ag15
aS'for'
p520
ag6
aS'variable_19'
p521
ag19
ag41
ag23
aS'variable_19'
p522
ag73
aS'variable_20'
p523
ag23
aS'variable_19'
p524
aS'++'
p525
ag15
aS'variable_1'
p526
aS'->'
p527
aS'variable_28'
p528
aS'+='
p529
aS'variable_13'
p530
aS'->'
p531
aS'variable_28'
p532
ag23
aa(lp533
S'static'
p534
aS'int'
p535
aS'func_0'
p536
ag6
aS'variable_0'
p537
ag8
aS'variable_1'
p538
ag10
aS'int'
p539
ag8
aS'variable_2'
p540
ag10
aS'variable_3'
p541
ag8
aS'variable_4'
p542
ag15
aS'variable_5'
p543
ag8
aS'variable_6'
p544
ag19
aS'variable_1'
p545
aS'->'
p546
aS'variable_7'
p547
ag23
aS'variable_6'
p548
aS'->'
p549
aS'variable_8'
p550
aS'->'
p551
aS'variable_9'
p552
ag19
aS'variable_6'
p553
aS'->'
p554
aS'variable_10'
p555
ag8
aS'variable_11'
p556
ag23
aS'if'
p557
ag6
ag6
aS'variable_12'
p558
ag19
aS'variable_1'
p559
aS'->'
p560
aS'func_1'
p561
ag6
aS'variable_1'
p562
ag10
aS'variable_6'
p563
aS'->'
p564
aS'variable_8'
p565
ag15
ag15
ag73
ag41
ag15
aS'return'
p566
aS'variable_12'
p567
ag23
aS'variable_13'
p568
ag19
ag6
aS'OUT_INT'
p569
ag8
ag15
aS'variable_6'
p570
aS'->'
p571
aS'variable_8'
p572
aS'->'
p573
aS'variable_14'
p574
ag81
ag41
ag82
ag23
aS'variable_15'
p575
ag19
aS'variable_6'
p576
aS'->'
p577
aS'variable_10'
p578
aS'=='
p579
ag91
ag92
aS'variable_13'
p580
ag94
aS'variable_6'
p581
aS'->'
p582
aS'variable_16'
p583
ag23
aS'for'
p584
ag6
aS'variable_17'
p585
ag19
ag41
ag23
aS'variable_17'
p586
ag73
aS'variable_6'
p587
aS'->'
p588
aS'variable_10'
p589
ag23
aS'variable_17'
p590
aS'++'
p591
ag15
aS'variable_18'
p592
ag19
aS'variable_6'
p593
aS'->'
p594
aS'variable_19'
p595
ag81
aS'variable_17'
p596
ag82
ag23
aS'assert'
p597
ag6
aS'variable_18'
p598
aS'!='
p599
aS'NULL'
p600
ag15
ag23
aS'variable_20'
p601
ag19
ag6
aS'func_2'
p602
ag6
aS'variable_21'
p603
ag15
ag131
aS'0x000fffff'
p604
ag15
ag133
aS'variable_6'
p605
aS'->'
p606
aS'variable_22'
p607
ag23
aS'if'
p608
ag6
aS'func_3'
p609
ag6
aS'variable_20'
p610
ag15
ag73
ag41
ag15
aS'func_4'
p611
ag6
ag6
aS'MPADecodeHeader'
p612
ag8
ag15
aS'variable_18'
p613
ag10
aS'variable_20'
p614
ag15
ag23
aS'if'
p615
ag6
aS'variable_23'
p616
ag142
aS'variable_18'
p617
aS'->'
p618
aS'variable_24'
p619
ag146
aS'variable_1'
p620
aS'->'
p621
aS'variable_25'
p622
ag15
aS'variable_23'
p623
aS'+='
p624
aS'variable_18'
p625
aS'->'
p626
aS'variable_24'
p627
ag23
aS'variable_26'
p628
aS'+='
p629
aS'func_5'
p630
ag6
aS'variable_18'
p631
ag10
aS'variable_15'
p632
ag10
aS'variable_21'
p633
ag10
aS'variable_27'
p634
ag15
ag23
aS'if'
p635
ag6
aS'variable_6'
p636
aS'->'
p637
aS'variable_10'
p638
ag146
ag91
ag15
aS'variable_28'
p639
ag19
aS'variable_18'
p640
aS'->'
p641
aS'variable_1'
p642
aS'->'
p643
aS'variable_29'
p644
ag8
aS'variable_18'
p645
aS'->'
p646
aS'variable_24'
p647
ag23
aS'variable_30'
p648
ag19
aS'variable_13'
p649
ag142
aS'variable_6'
p650
aS'->'
p651
aS'variable_31'
p652
ag81
aS'variable_17'
p653
ag82
ag23
aS'if'
p654
ag6
aS'variable_18'
p655
aS'->'
p656
aS'variable_24'
p657
aS'=='
p658
ag91
ag15
aS'for'
p659
ag6
aS'variable_32'
p660
ag19
ag41
ag23
aS'variable_32'
p661
ag73
aS'variable_28'
p662
ag23
aS'variable_32'
p663
aS'++'
p664
ag15
ag8
aS'variable_30'
p665
ag19
aS'variable_6'
p666
aS'->'
p667
aS'variable_16'
p668
ag81
aS'variable_32'
p669
ag82
ag23
aS'variable_30'
p670
aS'+='
p671
aS'variable_1'
p672
aS'->'
p673
aS'variable_25'
p674
ag23
aS'for'
p675
ag6
aS'variable_32'
p676
ag19
ag41
ag23
aS'variable_32'
p677
ag73
aS'variable_28'
p678
ag23
aS'variable_32'
p679
aS'++'
p680
ag15
aS'variable_30'
p681
ag81
ag41
ag82
ag19
aS'variable_6'
p682
aS'->'
p683
aS'variable_16'
p684
ag81
aS'variable_32'
p685
aS'++'
p686
ag82
ag23
aS'variable_30'
p687
ag81
ag91
ag82
ag19
aS'variable_6'
p688
aS'->'
p689
aS'variable_16'
p690
ag81
aS'variable_32'
p691
ag82
ag23
aS'variable_30'
p692
aS'+='
p693
aS'variable_1'
p694
aS'->'
p695
aS'variable_25'
p696
ag23
aS'variable_1'
p697
aS'->'
p698
aS'variable_33'
p699
aS'+='
p700
aS'variable_18'
p701
aS'->'
p702
aS'variable_33'
p703
ag23
aS'variable_1'
p704
aS'->'
p705
aS'variable_34'
p706
ag19
aS'variable_6'
p707
aS'->'
p708
aS'variable_19'
p709
ag81
ag41
ag82
aS'->'
p710
aS'variable_34'
p711
ag23
aS'variable_6'
p712
aS'->'
p713
aS'variable_8'
p714
aS'->'
p715
aS'variable_9'
p716
ag19
aS'variable_26'
p717
ag189
ag6
aS'variable_1'
p718
aS'->'
p719
aS'variable_25'
p720
ag8
aS'sizeof'
p721
ag6
aS'variable_35'
p722
ag15
ag15
ag23
ag8
ag6
aS'AVFrame'
p723
ag8
ag15
aS'variable_14'
p724
ag19
ag8
aS'variable_6'
p725
aS'->'
p726
aS'variable_8'
p727
ag23
aaa(lp728
I0
aI0
aI0
aI0
aa(lp729
I306
aI259
aI234
aI34
aa(lp730
(lp731
S'main'
p732
aa(lp733
g732
aa(lp734
g732
aa(lp735
g732
aaa(lp736
S'312 /home/SySeVR/data/CVE_2012_2797_PATCHED_decode_frame_mp3on4.c s -> frame -> nb_samples = out_size / ( avctx -> channels * sizeof ( OUT_INT ) ) 83'
p737
aS'313 /home/SySeVR/data/CVE_2012_2797_PATCHED_decode_frame_mp3on4.c bp = out_samples + s -> coff [ fr ] 63'
p738
aS'314 /home/SySeVR/data/CVE_2012_2797_PATCHED_decode_frame_mp3on4.c n = m -> avctx -> frame_size * m -> nb_channels 61'
p739
aS'315 /home/SySeVR/data/CVE_2012_2797_PATCHED_decode_frame_mp3on4.c s -> frame -> nb_samples = s -> frames * MPA_FRAME_SIZE 15'
p740
aa.