(lp0
(lp1
(lp2
S'static'
p3
aS'int'
p4
aS'func_0'
p5
aS'('
p6
aS'struct'
p7
aS'variable_0'
p8
aS'*'
p9
aS'variable_1'
p10
aS','
p11
aS'struct'
p12
aS'variable_2'
p13
ag9
aS'variable_3'
p14
ag11
aS'struct'
p15
aS'variable_4'
p16
ag9
aS'variable_5'
p17
ag11
aS'int'
p18
ag9
aS'variable_6'
p19
ag11
aS'int'
p20
ag9
aS'variable_7'
p21
aS')'
p22
aS'const'
p23
aS'char'
p24
ag9
aS'variable_8'
p25
aS';'
p26
aS'const'
p27
aS'char'
p28
ag9
aS'variable_9'
p29
ag26
aS'const'
p30
aS'char'
p31
ag9
aS'variable_10'
p32
ag26
aS'uint32_t'
p33
aS'variable_11'
p34
ag26
aS'int'
p35
aS'variable_12'
p36
ag26
aS'int'
p37
aS'variable_13'
p38
ag26
aS'const'
p39
aS'char'
p40
ag9
aS'variable_14'
p41
ag26
aS'int'
p42
aS'variable_15'
p43
aS'='
p44
aS'0'
p45
ag26
aS'variable_9'
p46
ag44
aS'func_1'
p47
ag6
aS'variable_3'
p48
ag11
aS'"'
p49
aS'Cseq'
p50
ag49
ag22
ag26
aS'variable_8'
p51
ag44
aS'func_2'
p52
ag6
aS'variable_3'
p53
ag11
aS'variable_16'
p54
aS'['
p55
ag45
aS']'
p56
ag22
ag26
aS'variable_10'
p57
ag44
aS'func_3'
p58
ag6
aS'variable_3'
p59
ag11
ag49
aS'Via'
p60
ag49
ag11
aS'&'
p61
aS'variable_17'
p62
ag22
ag26
aS'if'
p63
ag6
aS'func_4'
p64
ag6
aS'variable_8'
p65
ag22
aS'||'
p66
aS'func_5'
p67
ag6
aS'variable_9'
p68
ag22
aS'||'
p69
aS'func_6'
p70
ag6
aS'variable_10'
p71
ag22
ag22
aS'variable_15'
p72
ag44
aS'1'
p73
ag26
aS'if'
p74
ag6
aS'!'
p75
aS'variable_15'
p76
aS'&&'
p77
aS'sscanf'
p78
ag6
aS'variable_9'
p79
ag11
ag49
aS'%'
p80
aS'30u'
p81
ag80
aS'n'
p82
ag49
ag11
ag61
aS'variable_11'
p83
ag11
ag61
aS'variable_12'
p84
ag22
aS'!='
p85
ag73
ag22
aS'variable_15'
p86
ag44
ag73
ag26
aS'if'
p87
ag6
aS'variable_15'
p88
ag22
aS'variable_14'
p89
ag44
aS'func_7'
p90
ag6
aS'func_8'
p91
ag6
aS'variable_3'
p92
ag11
aS'variable_18'
p93
ag22
ag22
ag26
aS'if'
p94
ag6
aS'variable_3'
p95
aS'->'
p96
aS'variable_19'
p97
aS'=='
p98
aS'variable_20'
p99
ag22
aS'if'
p100
ag6
aS'func_9'
p101
ag6
aS'variable_14'
p102
ag22
ag22
aS'if'
p103
ag6
aS'sscanf'
p104
ag6
aS'variable_14'
p105
ag11
ag49
ag80
aS'30d'
p106
ag80
ag82
ag49
ag11
ag61
aS'variable_13'
p107
ag11
ag61
aS'variable_12'
p108
ag22
aS'!='
p109
ag73
ag22
aS'if'
p110
ag6
aS'variable_13'
p111
aS'<'
p112
ag44
ag45
ag22
aS'func_10'
p113
ag6
aS'variable_21'
p114
ag11
ag49
aS'Invalid'
p115
aS'SIP'
p116
aS'response'
p117
aS'code'
p118
aS':'
p119
aS"'"
p120
ag80
aS'd'
p121
ag120
aS'\\'
p122
ag82
ag49
ag11
aS'variable_13'
p123
ag22
ag26
aS'if'
p124
ag6
ag6
aS'variable_13'
p125
aS'=='
p126
aS'200'
p127
ag22
aS'||'
p128
ag6
ag6
aS'variable_13'
p129
aS'>'
p130
ag44
aS'300'
p131
ag22
aS'&&'
p132
ag6
aS'variable_13'
p133
ag112
ag44
aS'399'
p134
ag22
ag22
ag22
aS'variable_22'
p135
aS'->'
p136
aS'variable_23'
p137
ag44
aS'func_11'
p138
ag6
aS'variable_13'
p139
ag22
ag26
aS'variable_22'
p140
aS'->'
p141
aS'variable_24'
p142
ag44
ag73
ag26
aS'func_12'
p143
ag6
aS'variable_1'
p144
aS'->'
p145
aS'variable_25'
p146
ag11
aS'variable_26'
p147
ag11
aS'variable_22'
p148
ag11
aS'variable_27'
p149
ag22
ag26
aS'func_13'
p150
ag6
aS'variable_1'
p151
aS'->'
p152
aS'variable_25'
p153
ag11
aS'variable_22'
p154
ag11
aS'variable_27'
p155
ag22
ag26
aS'func_14'
p156
ag6
aS'variable_1'
p157
ag11
aS'variable_13'
p158
ag11
aS'variable_14'
p159
aS'+'
p160
aS'variable_12'
p161
ag11
aS'variable_3'
p162
ag11
aS'variable_11'
p163
ag22
ag26
aa(lp164
S'static'
p165
aS'int'
p166
aS'func_0'
p167
ag6
aS'struct'
p168
aS'variable_0'
p169
ag9
aS'variable_1'
p170
ag11
aS'struct'
p171
aS'variable_2'
p172
ag9
aS'variable_3'
p173
ag11
aS'struct'
p174
aS'variable_4'
p175
ag9
aS'variable_5'
p176
ag11
aS'int'
p177
ag9
aS'variable_6'
p178
ag11
aS'int'
p179
ag9
aS'variable_7'
p180
ag22
aS'const'
p181
aS'char'
p182
ag9
aS'variable_8'
p183
ag26
aS'const'
p184
aS'char'
p185
ag9
aS'variable_9'
p186
ag26
aS'const'
p187
aS'char'
p188
ag9
aS'variable_10'
p189
ag26
aS'uint32_t'
p190
aS'variable_11'
p191
ag26
aS'int'
p192
aS'variable_12'
p193
ag26
aS'int'
p194
aS'variable_13'
p195
ag44
ag45
ag26
aS'variable_9'
p196
ag44
aS'func_1'
p197
ag6
aS'variable_3'
p198
ag11
ag49
aS'Cseq'
p199
ag49
ag22
ag26
aS'variable_8'
p200
ag44
aS'func_2'
p201
ag6
aS'variable_3'
p202
ag11
aS'variable_14'
p203
ag55
ag45
ag56
ag22
ag26
aS'variable_10'
p204
ag44
aS'func_3'
p205
ag6
aS'variable_3'
p206
ag11
ag49
aS'Via'
p207
ag49
ag11
ag61
aS'variable_15'
p208
ag22
ag26
aS'if'
p209
ag6
aS'func_4'
p210
ag6
aS'variable_8'
p211
ag22
aS'||'
p212
aS'func_5'
p213
ag6
aS'variable_9'
p214
ag22
aS'||'
p215
aS'func_6'
p216
ag6
aS'variable_10'
p217
ag22
ag22
aS'variable_13'
p218
ag44
ag73
ag26
aS'if'
p219
ag6
ag75
aS'variable_13'
p220
aS'&&'
p221
aS'sscanf'
p222
ag6
aS'variable_9'
p223
ag11
ag49
ag80
aS'30u'
p224
ag80
ag82
ag49
ag11
ag61
aS'variable_11'
p225
ag11
ag61
aS'variable_12'
p226
ag22
aS'!='
p227
ag73
ag22
aaa(lp228
I0
aI0
aa(lp229
I181
aI116
aa(lp230
(lp231
S'main'
p232
aa(lp233
g232
aaa(lp234
S'880 /home/SySeVR/data/CVE_2013_5641_PATCHED_handle_incoming.c sscanf 68'
p235
aS'881 /home/SySeVR/data/CVE_2013_5641_PATCHED_handle_incoming.c sscanf 37'
p236
aa.