(lp0
I-1668938598741182959
aI-3957191035477975883
aI3691425196436521748
aI2149018798071695845
aI-8780217485960484346
aI589224143960976746
aI-3837545097701197003
aI-5688531657195127861
aI2551073163489944934
aI1348257148401539725
aI4622842736965839080
aI-8278483536502355450
aI2003626618526800365
aI8352422894313406686
aI5838887587220205661
aI5243549695568054912
aI-8868896709174544641
aI7503867234798655557
aI-3708702686294790530
aI3256857128491975318
aI3256857128491975318
aI242289937884412514
aI5003289583011869623
aI-7677323306569101545
aI4655797940429597496
aI1739152155602967062
aI-199760266896818704
aI-1265711788600358007
aI5493055284615061634
aI-2370299513776543556
aI7979499772268955170
aI3055477816556644168
aI3856881641460313304
aI-9111989771038326876
aI363966021467513400
aI-107449062145647692
aI-55371985446670693
aI-4419576577837707982
aI-4190960784341330699
aI8750921216590527635
aI8750921216590527635
aI2922001181944268721
aI-3525379625681303643
aI-8962651297700901498
aI3500108328875393792
aI2222886940277791158
aI-682486833061081449
aI2541378343295154523
aI-3590693900927673711
aI2541378343295154523
aI-5446416146726176839
aI-2327023103096201387
aI2371916655024036355
aI-3023705156420524287
aI2371916655024036355
aI4532518353286433525
aI2267570771128451015
aI-7996322127179334804
aI7671405375843317379
aI9218137860499658753
aI2403348758102456550
aI4665775389463373707
aI4845214418244228802
aI5960559826818679117
aI-6109187923711226347
aI2039360399661302353
aI8636845403040338821
aI-8102711636270422952
aI2697162385410606335
aI1358107714394011221
aI3336402632369978930
aI3078679780778765498
aI1483629964289537407
aI8066077620383189203
aI-3884216822992223968
aI-3884216822992223968
aI-3884216822992223968
aI-2811467411134285072
aI-2811467411134285072
aI-2811467411134285072
aI7853520504762369681
aI6538239981923240501
aI-6707987186250691969
aI-8984360257236130313
aI-893860534012321052
aI-1669254342431715108
aI6763957519695949598
aI4474627628147016250
aI-4950604151301936241
aI7660620414431583263
aI-4950604151301936241
aI5472006771360697517
aI-1947162130062849993
aI7010047327607194864
aI7086573396831271348
aI2212721551477269144
aI1752292628541251791
aI-6717115436120435931
aI606911905117596465
aI7072679686930705509
aI1061484541851120400
aI4080402516014391294
aI-8069739064694340263
aI-2473193322211653643
aI6455468468954363932
aI6455468468954363932
aI1456145456200681962
aI7002615397657201701
aI-5947202912203973111
aI-9147668443616684037
aI1819780681033406907
aI7833094145199507248
aI-341223374934820708
aI4322620635611058807
aI7572396158845730256
aI5605536559490068144
aI-6507442241360713861
aI-8890481459788567773
aI-2794105979165160713
aI-6250934206973873174
aI1730436584441746119
aI3609832292262081311
aI1730436584441746119
aI5737253853104750381
aI-6197920844878562988
aI-7203756227615617513
aI4471743124914379775
aI-6659937268176902909
aI4537271876981108404
aI2429783737208347776
aI-6285826211508155796
aI7693794133067829454
aI1981178789594565832
aI-6869324248373110502
aI-4355226971157779437
aI-2294964936648567125
aI-2294964936648567125
aI-2294964936648567125
aI-2294964936648567125
aI6661357597472384705
aI6661357597472384705
aI-2294964936648567125
aI-2294964936648567125
aI-3888284542112088672
aI6378880846357071866
aI-303877125019262616
aI9080165789545131670
aI9107470967401376502
aI-8051596072826330688
aI-2870471102832630258
aI-1372397633944879773
aI4860961066256075843
aI112807807676453740
aI2812093864054334084
aI8816727903649574377
aI5461661716402448855
aI-6448072947790366681
aI1397171101433775926
aI1835292367785869182
aI8639897228167908029
aI2675951890891756901
aI2153616541026759658
aI-6338321610598966338
aI-2104702059605953073
aI-5418397868471476987
aI7625075949539121365
aI6042305913543709038
aI4735242209306914511
aI3192374896583522360
aI-5010185106933273180
aI8630376898595031192
aI7238179077851329298
aI2780433351353896209
aI3078679780778765498
aI453264180432965582
aI5328758611413756196
aI-841551661888884833
aI-841551661888884833
aI1450891657302082569
aI1450891657302082569
aI-2102545675415401728
aI-4251525436714715943
aI-1782553710093633169
aI-3456654213793736906
aI-484624333196840514
aI3800807897933739161
aI-8795738912075610973
aI4962942511416938760
aI2675951890891756901
aI-494296252242942360
aI3503792682828361485
aI-8874166555049053027
aI-877182592973747658
aI-8504341068559441420
aI-8182883399128733008
aI1232138119993360342
aI-6758317640003965820
aI101785054161918716
aI2963909570170614907
aI-8036452496529531598
aI-4825737691610917756
aI823374746154041140
aI8022686136184278262
aI7602921011625321084
aI-577649516663186460
aI3689804300755740507
aI-369043710146496384
aI-1829706747697835818
aI-7835176493669941258
aI-6463565046400782176
aI9054572563301867294
aI-8017444487353864758
aI6945155065825555664
aI-244393338279373751
aI-244393338279373751
aI3919179011632365933
aI-7933580649782407309
aI1625756433079394669
aI5285794128488850653
aI6175207318552740720
aI7321882959639360180
aI-2544268393879465842
aI-7300708985505236140
aI-693573959011870439
aI2292760425951923610
aI4753411127704188907
aI-3957191035477975883
aI8584178286779134078
aI1745640509534419647
aI6252176859642336813
aI-6074800387790795695
aI3208040939480833336
aI4325640918892430858
aI-7930113694640875407
aI-7930113694640875407
aI-7930113694640875407
aI5425181433742449820
aI5425181433742449820
aI-5444383775046482767
aI-6990060545684155459
aI4748056948861024747
aI-9042242175336658589
aI8436813144248240343
aI-7052938291054172669
aI696833784740805093
aI4726271289533585385
aI-2017748508818928708
aI-5884471582840066970
aI1733837422787768092
aI-8981424932624143002
aI7015894798377589633
aI-6693231718239834820
aI-5557256798424790532
aI6664815196278948158
aI7980550143149217345
aI391613344261343272
aI4210962792840840753
aI-1684495877247430469
aI2038752493052677780
aI8894846993785900205
aI-4080824570462681448
aI6996604888220970215
aI7179752277469827345
aI6901348640804413260
aI-2654856969647397022
aI-2523573204684839714
aI-814801486413093716
aI-761240952012940159
aI-761240952012940159
aI8336564826940981648
aI8336564826940981648
aI-1763805660025842229
aI-4254260065425957599
aI-555531312065997111
aI6924566659075650781
aI7002103195100132251
aI-7236140752092027854
aI-8293389668364308757
aI2546766094332140466
aI8092866568958222339
aI4076726582035250943
aI-526705041411172381
aI-526705041411172381
aI-526705041411172381
aI-526705041411172381
aI-3999282257918765503
aI-3999282257918765503
aI4076726582035250943
aI-526705041411172381
aI-526705041411172381
aI-526705041411172381
aI-526705041411172381
aI5251989072797760523
aI-8397895084542829872
aI7643247426904693064
aI1948689993454251841
aI-3822097194163246915
aI386233280435879490
aI386233280435879490
aI3224701463300528530
aI4043645255115218780
aI4043645255115218780
aI2793588385262018168
aI-1201398481561226885
aI4497915841191495529
aI7706054334161309964
aI5808963146109256659
aI8297807849426779686
aI-3880157761123296532
aI-6323145106438261181
aI-3104521648277299636
aI-7070557848940491480
aI1410489591879666060
aI-6034548023284514487
aI2168958530901683446
aI-7294533880042740578
aI932190056264841582
aI6765264274565755488
aI-5436195308061079406
aI-301948280689286103
aI7839422902202044364
aI-5612843039042122497
aI-3788398450638064934
aI105967809939892639
aI3757459592735486097
aI35387694606667661
aI5995871249807934170
aI947104981349230535
aI3764210935282066745
aI-3217444911603390087
aI8110501604037505089
aI3145761408318234741
aI1736055006828964745
aI-6991910498474545353
aI-6991910498474545353
aI-5922778471066273976
aI-6431441448394149683
aI-4185129444496480577
aI75295533259788034
aI-5702469199528432789
aI-4959287347471763724
aI5794640099001904765
aI6621954102220704659
aI-68908770840996757
aI-4190960784341330699
aI-4190960784341330699
aI6874095972211195485
aI-1402919693947042518
aI6874095972211195485
aI8423305259357381928
aI4379630667242890883
aI-4294679027811015150
aI8575283688527277651
aI-6395717334592254127
aI-4009907689691731178
aI4307817301029667002
aI4307817301029667002
aI4307817301029667002
aI-4009907689691731178
aI4307817301029667002
aI4307817301029667002
aI4307817301029667002
aI-3999282257918765503
aI-3999282257918765503
aI6112781245636451909
aI-6944017692847482696
aI4139082735995046976
aI4139082735995046976
aI-6632973782617165161
aI-4452722976442075514
aI-6489396769996049788
aI2552924838850186951
aI1954328212345934575
aI-9090762900077274272
aI5201263885156232638
aI613826692678238216
aI-4866895765540276545
aI-4866895765540276545
aI-635932217005680932
aI-635932217005680932
aI1645285780613897583
aI1645285780613897583
aI1907841048761647517
aI6171418390407703672
aI-3765197422615345144
aI-3765197422615345144
aI-989305494218269766
aI1899245276508214195
aI62398050983371794
aI981779779856602200
aI5498034926461918939
aI-2467557311976237329
aI-2467557311976237329
aI-3621499907408277895
aI-5932296298127099123
aI-5068723973825560228
aI2739018233632118829
aI7662911087702279799
aI-7914269014209938816
aI2321084026172162426
aI321911780875934256
aI7442699882526378053
aI981779779856602200
aI8109450407714005320
aI6349233278314446886
aI7377242259299347593
aI3215446163039036807
aI2634652023986286732
aI-2082167916018024514
aI2028279657302078515
aI-503868702132909948
aI-2582058840392739893
aI7717889257929195310
aI-8946047681982244819
aI2131782889354939718
aI-3804914854067145405
aI4050881947062550572
aI-99317806704125466
aI-4167448042788872701
aI5967605864459651003
aI-622114201454321696
aI-5606558467340476886
aI6644931430405274260
aI-1922073741910291158
aI-3804914854067145405
aI7832659383865047579
aI-7422165753504121249
aI-134580432936745314
aI2744548520395713050
aI-9157080333427589431
aI7858122639445646895
aI7401320029708415492
aI-2059871465573730918
aI-714103653405717475
aI1333003927890944080
aI-6645161407140754003
aI-682486833061081449
aI-4132494786330741233
aI2735363457065700729
aI-5795387544042929362
aI6944402382434947191
aI30192584439285776
aI848300307883381427
aI2398569137211373692
aI5946740489795326900
aI-3979908352528373835
aI6569660289600326542
aI3920079015723939604
aI-1222969590693686006
aI6010601253159188207
aI-1230768630690040496
aI4836887025415210344
aI-9048917978275579020
aI696833784740805093
aI506821569803658058
aI-8883005419390153622
aI-2017748508818928708
aI1562750741725519321
aI4569975501575851532
aI-7087382184368242771
aI-2250958271937532337
aI-2250958271937532337
aI1413370010752285911
aI3783139935737404177
aI1549040189851514669
aI-3528054635677011824
aI-6522615335127970527
aI-2741454226454827054
aI5144121476239677109
aI2935972572288295905
aI-8595624866377042780
aI6255508713647200098
aI5572014673175999560
aI4595391879113898437
aI-6875774301418678723
aI-3638845743221603750
aI-2170279479878789892
aI8359656249722160217
aI7238179077851329298
aI1658149202227342065
aI2780433351353896209
aI7391069312441431266
aI7391069312441431266
aI1634556052960921092
aI4755716124166787026
aI5917044584452443393
aI5917044584452443393
aI8356110027878105769
aI1118349114795595561
aI3112728460673783132
aI-7681467830157830650
aI4226270325508087489
aI2064983327754782823
aI-7007121241486959101
aI-5470463328918011423
aI-5281891039474045593
aI5527726262355531136
aI4709066723041483731
aI-212487557655015564
aI2624269076700667451
aI-5922346564254375847
aI-4829381759033970101
aI-2848621064973922706
aI4185337215477022498
aI-6395717334592254127
aI-3578315761637554220
aI2895821402728605987
aI-6822630878668974531
aI-1212365260355195768
aI2895821402728605987
aI-6822630878668974531
aI-1212365260355195768
aI-3912217083265000288
aI380469382233578562
aI-3507696824440332723
aI1752916548808401169
aI2212721551477269144
aI1752292628541251791
aI7578375576320001868
aI8806020119554956354
aI8806020119554956354
aI8806020119554956354
aI8806020119554956354
aI-4730632623595349107
aI-4730632623595349107
aI-4730632623595349107
aI-4730632623595349107
aI-7000820763286906849
aI-9116650837918659685
aI-9116650837918659685
aI-9116650837918659685
aI-9116650837918659685
aI-9116650837918659685
aI-9116650837918659685
aI8997914510174564551
aI8997914510174564551
aI-3119574261452359414
aI-7130831165882402766
aI-5947202912203973111
aI-8873505090844983498
aI-5315514650536884525
aI6203924071806715385
aI-4594820204889253244
aI5569513155370562466
aI-2047416381696207197
aI452477972755760666
aI3748632525703699212
aI1807200050957693207
aI8685442650358866102
aI-175190838491175570
aI5530942775520118268
aI-5651509301552942648
aI-6436124066954985779
aI3400775940023878957
aI9150086136110049218
aI165784272174658876
aI5716289494472564663
aI-181684817318769247
aI259360349050075314
aI1392175619784858989
aI8013178459763210759
aI-4724629935826399730
aI-850004351929230427
aI4650744845929236057
aI460482037183912605
aI6435864613065084453
aI-2148999662713314924
aI3805171760407542202
aI-2148999662713314924
aI-5618275907634391763
aI-7026463733904574721
aI-5690147904592026189
aI8145160949789968380
aI-7828730858302954887
aI-2191777298315245229
aI-2294964936648567125
aI-2294964936648567125
aI-2294964936648567125
aI-2294964936648567125
aI6661357597472384705
aI6661357597472384705
aI-2294964936648567125
aI-2294964936648567125
aI-4246415477056160754
aI-4246415477056160754
aI-1366527267979284521
aI-4636300418155230964
aI-4636300418155230964
aI-2575047160486359677
aI-2575047160486359677
aI6676811074723472413
aI6676811074723472413
aI3962395522936567784
aI3962395522936567784
aI-9048461048833612408
aI-9048461048833612408
aI-8298178107242140557
aI-8298178107242140557
aI6271231120650393466
aI6271231120650393466
aI-8242794062278948079
aI-8242794062278948079
aI-2543132942923168429
aI-2543132942923168429
aI-8049903174468074480
aI-8049903174468074480
aI-2846626645395746075
aI-2846626645395746075
aI6750786340277247894
aI6750786340277247894
aI4386244869838272781
aI5939139146133724796
aI3281405943456531095
aI4386244869838272781
aI5939139146133724796
aI3281405943456531095
aI-9010151416305648392
aI4215682228328565494
aI2227386441793137683
aI4003447621673070403
aI7432541672687017778
aI3259557129239331486
aI-6572493835412990607
aI5722224222776438320
aI-8426072770831970599
aI-5360842474744451141
aI2648968027435373494
aI-8230457949100468894
aI-8230457949100468894
aI8757066860083400062
aI4120988665632421243
aI-3468543319619177697
aI4962884872315689534
aI-8246949388284854245
aI-1358570739542568143
aI718015136369556826
aI-7075359996960154287
aI-9165435401191084149
aI-8556277503713476706
aI-9156443191611186224
aI-3492758900361388942
aI-5623440988312342426
aI-6919085370658961839
aI2826566548168446469
aI-5467888378272561651
aI3228556083704707292
aI-6305508417205934649
aI5262791056367897145
aI-3868557136002921689
aI-2848366317780662107
aI7680890728245207922
aI-3934388388943842570
aI3795816807098993135
aI-5841300791215209368
aI-8780217485960484346
aI-5867507437685093899
aI6630657561400742166
aI2171514771614582751
aI-2594091346137146821
aI-6703499117860958953
aI727103296255893445
aI-4282907345855400415
aI-1589043423281982510
aI-5731553210502305862
aI-7218176039899511512
aI705763517963079358
aI7194201509366166074
aI-1589043423281982510
aI241487410485345963
aI2822391367585085361
aI3451996285290139015
aI-3182689421423590191
aI-9169093278240039872
aI3197412768241628062
aI-5927231586045178672
aI-6138400747626584315
aI8139665915003377583
aI3194299006078135789
aI6882200691719700657
aI-3363161201742174933
aI-5559009711156826126
aI5929096307204894733
aI-3488001252677525897
aI5639045631210558246
aI7944129748081371913
aI-930547940425159957
aI3171605283891538546
aI3145874955217127297
aI-5065397385521263221
aI-4397648933022262862
aI-6971892549259780209
aI-2295862009192259023
aI2673416262808751532
aI768437461836416127
aI-7616113815585274567
aI-3786308209228808348
aI-2515696030207545620
aI5716667038531282803
aI-1792326351359951106
aI3208040939480833336
aI6195461815241810866
aI-7930113694640875407
aI2408613704777139152
aI6216131390028898621
aI1948931447160590433
aI7720591023730835512
aI4237757934503500420
aI-3326164414833937377
aI9088175307775546132
aI-1684495877247430469
aI2133333185877495368
aI-2654856969647397022
aI3437544391914031715
aI-4124600972029565896
aI3197125626653132847
aI-5768848335491869307
aI1073425941761083003
aI8790616824052686758
aI-8975586958050329629
aI-6803350282203620713
aI7680890728245207922
aI3795816807098993135
aI5967605864459651003
aI-622114201454321696
aI2744548520395713050
aI-9157080333427589431
aI795381669581697446
aI-947945467055385941
aI3705428054451923756
aI7211922891936864935
aI2789147602597028052
aI-354686417824496613
aI-354686417824496613
aI-8686280793880611236
aI-8686280793880611236
aI-8686280793880611236
aI-8686280793880611236
aI3772143618497242356
aI5862180331649980396
aI7695271553504765756
aI-3256470016459701015
aI-970268477570505771
aI5050403948487317542
aI3743908765846382162
aI-5735441243866090819
aI-4338316190101498077
aI2623367572380903870
aI2827123352611837021
aI-8211971597544586471
aI-6828405406008934684
aI-8482551105093738811
aI1998058441524214719
aI7276443797680637101
aI-3344488877486539778
aI92504256264185834
aI-3051103849212731547
aI5202428688006710221
aI2414910212307704738
aI1226297759602751960
aI-6944684913126886957
aI8293072501702470461
aI-6931274346106686966
aI-4954706389274177210
aI-4954706389274177210
aI-4954706389274177210
aI-4954706389274177210
aI-5424130256780013116
aI3009127014508681420
aI-4237760054664748673
aI4001861124222807395
aI-3369079415947239548
aI-9023543843942347200
aI4043645255115218780
aI-3567651549344996785
aI-3567651549344996785
aI37844748509813331
aI37844748509813331
aI-1561638058561961390
aI-8477560018892227491
aI4881654992137383605
aI-6506334359647002047
aI3460431981073059648
aI3460431981073059648
aI-6209069359149379927
aI-6209069359149379927
aI-6209069359149379927
aI-6209069359149379927
aI2208046968890879219
aI2208046968890879219
aI2208046968890879219
aI6729766855271394382
aI6729766855271394382
aI6972690217845955083
aI6278830524172016615
aI-1555736614017024121
aI-6707385015059691835
aI-7636090562024297722
aI-8095658614190514970
aI-7560905167998853255
aI-7560905167998853255
aI-3450521384971439914
aI-3412805728787895693
aI7857976115027824292
aI3740420441342486048
aI4269465578170842802
aI1097194548232745793
aI-6293193730112846035
aI-6293193730112846035
aI6653871276911693562
aI-7930113694640875407
aI-7930113694640875407
aI-5444383775046482767
aI-6990060545684155459
aI4748056948861024747
aI-9042242175336658589
aI-8837058813225296300
aI-7231583404501301617
aI3330300580951084462
aI6093306776647389000
aI3330300580951084462
aI6093306776647389000
aI3330300580951084462
aI6093306776647389000
aI3330300580951084462
aI6093306776647389000
aI3330300580951084462
aI6093306776647389000
aI-9051266795917609213
aI5133356215752836866
aI-9051266795917609213
aI5133356215752836866
aI-9051266795917609213
aI-9051266795917609213
aI-7475581541060951961
aI-9051266795917609213
aI-9051266795917609213
aI4233900088629676097
aI4233900088629676097
aI4233900088629676097
aI-1684495877247430469
aI-6857562448113351264
aI-1038663072839829902
aI-2440564435552189739
aI2588620051680215492
aI-2440564435552189739
aI2588620051680215492
aI-2440564435552189739
aI2588620051680215492
aI-439500825420080516
aI-853527377502772460
aI-439500825420080516
aI-853527377502772460
aI-439500825420080516
aI-853527377502772460
aI-439500825420080516
aI-439500825420080516
aI8291055334822791975
aI-439500825420080516
aI-439500825420080516
aI8639897228167908029
aI-3578315761637554220
aI-3672258763094213411
aI1660824609237345737
aI-3957191035477975883
aI8634412548623158584
aI-8926262508584895451
aI4343490024359816344
aI742983155367898600
aI-2375362381410228496
aI5784804184178051285
aI3366017865388292379
aI-5422326458147720352
aI-3168364130010956795
aI4466260545431648514
aI-6582020658862430316
aI-2696316795105413019
aI-2062038727764985254
aI6893041179552797920
aI511962914090253719
aI2025682008640681563
aI8127905279644658809
aI-4954706389274177210
aI-4954706389274177210
aI1253389762847336851
aI-4954706389274177210
aI-4954706389274177210
aI6195990210458158425
aI-4954706389274177210
aI-4954706389274177210
aI-5729141907980549727
aI-4954706389274177210
aI-4954706389274177210
aI5612344211224954344
aI7244196022554269693
aI6639350060938811432
aI5472996543943602577
aI-2042946777199871617
aI6800378756222143164
aI-5655383123627957139
aI4882077266082910018
aI7766151989103347291
aI5726142655631822700
aI2994665471728227897
aI3624708082823258492
aI2395670577517024405
aI-698790673636178838
aI-753080054472694313
aI-2498420497957458944
aI-1592571980223256676
aI-3870897657096574074
aI8085185980764673324
aI-7809220233308845749
aI1868825821877512755
aI1868825821877512755
aI-6007879843698939521
aI-8030009147482934965
aI-8030009147482934965
a.