(lp0
I-2754131419413958467
aI7411688461567465571
aI1354383701635561281
aI-6581937299551488381
aI-2542603402898524996
aI-68908770840996757
aI7387663254101176337
aI2806470932915668885
aI-8691695974894516106
aI6660240628707581333
aI-1699861199335449609
aI-772636670482908431
aI6519002722500018336
aI-1623268794268796376
aI6377020786691121007
aI-6405063954707889887
aI-9102158359825874616
aI-2113852864430494463
aI8497394990303947450
aI-5419682543577837928
aI-5525560941725135487
aI-655986294444033692
aI-655986294444033692
aI1465920924767175906
aI-6173865669960012103
aI-8998818466458459202
aI-4205545523484866269
aI5839878962861907691
aI2223696651486360708
aI8095526504931531952
aI8095526504931531952
aI8095526504931531952
aI5356618330610200224
aI2564118224499511961
aI-5522631498719027560
aI-2487996068314863034
aI766114335817756605
aI-7813917577533114586
aI1988279381407808269
aI-8656462229524351879
aI-5242397868559640765
aI7420384996538451456
aI-3210004689972655784
aI7977935240269338141
aI-8071250247487051559
aI2340537906512746364
aI-8301128110654299721
aI-4661067945817880783
aI-4661067945817880783
aI341147412870609861
aI4083285700625609569
aI4507385427176285167
aI4083285700625609569
aI4507385427176285167
aI6249480034295509596
aI-6970191527259872070
aI6893041179552797920
aI4083285700625609569
aI4507385427176285167
aI-8250825014656117448
aI-6851288323242565936
aI7928209006933003277
aI5158893718133057
aI2757250429495417236
aI5158893718133057
aI1414973288915097558
aI1784248461426932469
aI1784248461426932469
aI1784248461426932469
aI1784248461426932469
aI7392648812261520414
aI-285207230839747088
aI-8933349697292757807
aI-8450117889603867905
aI5044043256432361071
aI-1177805360767208716
aI-8703493332744126177
aI8494411976547527474
aI-6390179866654325848
aI4070453249462862031
aI1844956785295578666
aI2860533706355020605
aI6443357680036418607
aI5293482794561066306
aI7480884338693835306
aI8199539322857084407
aI3560896910396388709
aI7280519332749162374
aI-4705373025297274993
aI-7692401506079212212
aI-7054528635760511194
aI-4516046083784223589
aI-6035415237437795146
aI5350524268300299372
aI-8763195155958339071
aI2550002514946310539
aI8753443509885197928
aI-6261033878777712252
aI-5828512702341005248
aI-1219538103757276516
aI-4038446569765633313
aI4418916810026134543
aI-6208700989470981599
aI-1903335829288650422
aI5523142030980149333
aI-971299635578674773
aI3100452234078624892
aI-2632768072175427392
aI-4864420033773629390
aI4387055635398435871
aI-1441077391743690686
aI-4579494882720435568
aI-7945952872070539613
aI-433038282570641525
aI-500762778742232135
aI8682125704577312286
aI856739243994822167
aI5612679327366895585
aI1090491763285149895
aI-2775777845055445881
aI88218764284290729
aI88218764284290729
aI8654466697659066643
aI9151310026501209894
aI-3060517237541115567
aI606397527516226607
aI-3490804438760555607
aI5720268437952447031
aI-3490804438760555607
aI-1154095825614024544
aI-2521117898278822760
aI5198209850857638660
aI-1740091673068062514
aI4070735006888383791
aI-2058507785648126806
aI-621839946775579225
aI1969344097840803896
aI-345845491003005706
aI-2804449431672125801
aI-4270692179302253981
aI-352837671513526
aI-2906134876372047683
aI-5827564346000993061
aI-2574338270339890603
aI9186430435522144543
aI8933608433702674170
aI8513634188062791840
aI-2901694876548643524
aI2005595053859446298
aI5900970747265621482
aI7784264244746101595
aI1258341516275173737
aI781973668482439926
aI-2779905573073395563
aI7505257349005432285
aI6939856857233076147
aI1161627327257919269
aI7768955098169762090
aI5813635215721436951
aI-4330897283525761196
aI-6801583712165823139
aI-8325208565969106639
aI-1443545107525066482
aI-6968574486790548834
aI-7998348877801418342
aI-8106404032472386220
aI358174221340191168
aI-2961083890980214196
aI-2714879422156536243
aI-526305620305507541
aI-566769019282639276
aI-1726124081684846497
aI8417471167928101922
aI-283503240237417110
aI-6744266766669052795
aI-1671632845854666781
aI2878835254881438261
aI8725664167999163913
aI4953453268678414365
aI-8920342415770924843
aI-6694734813955230910
aI-6694734813955230910
aI-2537694892916582718
aI7331630740877372783
aI-5132276575202283540
aI4840843926625830952
aI-6758837375087737583
aI1357579790971254073
aI-3373979914315282320
aI-3198457560873258987
aI2707880430677479137
aI5599844069938365753
aI1722714782206984504
aI7900832824636835593
aI-7269840653115404693
aI2696451554333443995
aI-3536415892948644465
aI1113879560735149372
aI-1831090919381942019
aI-2140842266604050338
aI-5284860801457804750
aI-2721502357877575683
aI6180638656246684539
aI5201575850979092861
aI-1197881620719074941
aI-6150736362952713965
aI-8258387415612723322
aI115131764756004392
aI8683799404173679825
aI3225157524758442341
aI-6722517176920625190
aI937767889808416751
aI-4895096078148323993
aI6630315126883650380
aI7572396158845730256
aI-2267185974304715252
aI8870052321396855420
aI-4832079173449459143
aI5032712452234029185
aI5277640326215987395
aI-2201517135657627014
aI-8219701361910841673
aI8052507253037032546
aI1181088005094065365
aI5737253853104750381
aI-6197920844878562988
aI2228259270362402745
aI-1127078875613293108
aI-1127078875613293108
aI3451175799751362342
aI8564083121579152832
aI430891650814022702
aI7330988994176610807
aI761860138401805250
aI-3963713466600536924
aI1020975106173390553
aI-77809417868355799
aI-261266691895808
aI7967255244101656183
aI-3963713466600536924
aI-9040774896282563369
aI-2605405535969914915
aI-2786411523492455157
aI5355118101858157811
aI-1444139312166446033
aI2306647281320517437
aI-8247918261028278925
aI-7264674768237509743
aI-6669969241154910059
aI8526921119567067845
aI6676903841083666280
aI8242866532412981616
aI6676903841083666280
aI-3101721304881260381
aI-7914076521639037046
aI-6648153543442670378
aI1202290265907987269
aI3294405510135800895
aI4527074596837670247
aI-6377185671413304203
aI-6377185671413304203
aI-6208208762025932676
aI-3980918285756108323
aI-3921627216770459662
aI961307932422718457
aI-8031522865876331169
aI7523781182793679598
aI-5737794795405151442
aI7146386313858356265
aI-959617582617364392
aI-255866164228517501
aI-585257590811876558
aI-5630920347054064639
aI-1728355596533579501
aI8557845021787685805
aI5926150937109860560
aI5945338832732701900
aI5802347673822943911
aI1638060723957397469
aI-1454585398388941770
aI-9077736376249489397
aI-1612948059217314100
aI-6840918188627452398
aI-6078142444155442121
aI-8483303373721719243
aI-9206736287695603569
aI3042518035193156300
aI-7992507134348772077
aI-199760266896818704
aI-4935361744637188237
aI-6206836941024172732
aI8614751071133106895
aI-7249051552527600931
aI-6367216851833171360
aI6075008602655537222
aI-6496067804507307441
aI-6737817711851325588
aI-3076222940974607518
aI4212975729150973428
aI3931284872361151313
aI6500901615849550850
aI2226510786944797821
aI-8894940164820993232
aI6354681203620581563
aI3445557084451928948
aI-1438488303311384502
aI2207275936991302787
aI-8583957890278352209
aI-7372989291752179048
aI1793860243413042048
aI4441769768064252826
aI7153617066301095660
aI5882255629250766442
aI4721813701503029694
a.