(lp0
I-1265711788600358007
aI-5075779506802733391
aI906211367631643444
aI3175755005553530085
aI-1394288981306371703
aI727819127810748580
aI-4301383490876707343
aI622805838635935527
aI2552753425778320541
aI7676510030283674037
aI4832080416319733502
aI-1298945268488905062
aI4197134577176101702
aI2291059657168028090
aI-1019898514590218618
aI-2198886044512309526
aI-880704782871362256
aI-3716716073204674628
aI-875338079920098943
aI2203215845110532613
aI3829865157190366014
aI5395547144558332429
aI-3023980085631587864
aI6608668566829951294
aI3796777876133358290
aI-1844193131998737185
aI586109908842407348
aI9202855068393333111
aI-1361065373431093057
aI-7011840764121898357
aI562732817317053414
aI562732817317053414
aI-7611628716104607768
aI-7257882997999057218
aI-7779831056329785281
aI7270019517749320058
aI981779779856602200
aI981779779856602200
aI2900157148070234726
aI4800949909265717708
aI1088169098172753822
aI4832513284125645262
aI8750921216590527635
aI8750921216590527635
aI-2339889720296473949
aI-3787423291537894273
aI4325640918892430858
aI-7027659782323517980
aI6686338232170870326
aI2793748154798089587
aI-5572736187008648149
aI-6746028668448876148
aI-2997647354570892273
aI-8993266808930649889
aI2941813079764217754
aI715272002037124904
aI7787640567491449346
aI-6311446174188906939
aI715272002037124904
aI7787640567491449346
aI6606770504839974455
aI5683422573472049979
aI-7700900212113226071
aI3367906412258014104
aI-3526085674144066325
aI-6967077440790188262
aI-3526085674144066325
aI-6967077440790188262
aI-579352693653696923
aI-579352693653696923
aI-579352693653696923
aI-579352693653696923
aI5390865691447282839
aI-7788585011472620600
aI6378018544967531386
aI-1839694585942335086
aI-2128691263110292961
aI4597871270505388513
aI4597871270505388513
aI6023768051569587812
aI-2748899058164324535
aI-2898727876373063025
aI-2898727876373063025
aI-8839276367083188602
aI-2903960468590524450
aI-2651694017767854923
aI-2651694017767854923
aI-2651694017767854923
aI-6278359576660906424
aI-6278359576660906424
aI2455715912722183504
aI3564468533660075315
aI2455715912722183504
aI-1757823417261921849
aI-4204015261662915341
aI-4204015261662915341
aI4739390188007425086
aI756406399718495898
aI1918842885192729495
aI-2735374122915775816
aI1918842885192729495
aI-5090626559208994575
aI2923061468529439892
aI-1108517189715634804
aI-1108517189715634804
aI-3400362451093037045
aI7312533957964998433
aI2222886940277791158
aI-2131757163578352447
aI-5350065090103474036
aI-4435950578729769194
aI-2958819292589609894
aI-5029891511275503959
aI7566546872940825954
aI-5876496144541124047
aI890396334462354506
aI6111591977716455085
aI-364429713777027993
aI7884137143868193417
aI-3313543122001365573
aI-165723332536407536
aI6284721687542650513
aI74077665985017413
aI6428030267899719497
aI1636313015795756888
aI6415460717607285253
aI-3782278823098434519
aI-3782278823098434519
aI6057394228817161647
aI-4515999179048911932
aI5936225603233147551
aI-6089331125958454348
aI-8001787546755085121
aI-8391421285371441398
aI4080532911811033549
aI-111771559206426579
aI1649111794190508609
aI-6243885225980479662
aI-4084480240765746254
aI-4084480240765746254
aI-6619970750863706073
aI-8604301874211633254
aI5116582967024638796
aI-6619970750863706073
aI-6243885225980479662
aI4993567009981774722
aI4993567009981774722
aI7842959951032758453
aI-9035677223007448089
aI7842959951032758453
aI238345116485507814
aI-7968248347178341417
aI1902404858966763341
aI8882684312636482046
aI-664574264086536344
aI-8850618835475455189
aI-599873016266575023
aI-5051741965285205036
aI198648423024491542
aI-8811041909777780950
aI-9117682925516779261
aI-4084417090201739905
aI7677414443393936138
aI431693133116885977
aI-3842995078221681286
aI-3744597804261002000
aI5985883383969550960
aI-4372784882482723028
aI2978683432116426004
aI-3092474655290325871
aI7888296458243690931
aI-5045378544613799176
aI7185962993023926803
aI4087846848820946071
aI3250111324317428126
aI3544471389194117071
aI1288635108075885990
aI-7774340395555831736
aI9069681423754980003
aI9069681423754980003
aI8463806578934492802
aI-6918889106749020698
aI-8781361345182659534
aI6697438426992715139
aI4409802699686762296
aI7894189835341281977
aI5889074985811090496
aI-353374865018179365
aI-885538586024489844
aI-3197090778355992270
aI6119583016812338781
aI2559641300550728589
aI-4877989059692590289
aI-7005617060274637046
aI-529564093458823415
aI325385572711974525
aI-1425734591609765074
aI-611533378698433174
aI6411954436527336496
aI-7639214168085824584
aI-7468181298993906179
aI4402389379272744477
aI-4672988907605928481
aI-6773174958552207053
aI3158923006775373843
aI-8840385814828813496
aI4995673172824710081
aI4995673172824710081
aI4995673172824710081
aI4995673172824710081
aI-2822430734249672627
aI4150226517305814240
aI-7080318506842684091
aI-7080318506842684091
aI-7080318506842684091
aI-7080318506842684091
aI-1467394739309087039
aI6112331280533250562
aI8359656249722160217
aI8359656249722160217
aI8359656249722160217
aI8359656249722160217
aI8359656249722160217
aI8359656249722160217
aI8359656249722160217
aI8359656249722160217
aI8359656249722160217
aI8359656249722160217
aI8359656249722160217
aI8359656249722160217
aI8359656249722160217
aI8359656249722160217
aI8359656249722160217
aI8359656249722160217
aI8359656249722160217
aI8359656249722160217
aI8359656249722160217
aI8359656249722160217
aI8359656249722160217
aI-7570384036820974320
aI8359656249722160217
aI8359656249722160217
aI8359656249722160217
aI8359656249722160217
aI9159960489762152894
aI6521269863625075770
aI-4390494130266576049
aI-8222121964668721714
aI-8222121964668721714
aI7170039243129342756
aI9142770849328056013
aI9142770849328056013
aI5920881572165378187
aI5920881572165378187
aI5920881572165378187
aI5920881572165378187
aI-398384374458880074
aI-5930895728748590561
aI-8785085590479188693
aI-8785085590479188693
aI-8785085590479188693
aI5465499223092969732
aI5465499223092969732
aI-451523000085394560
aI-5149338590467906388
aI-5149338590467906388
aI-5149338590467906388
aI-6607716718339959739
aI-6607716718339959739
aI-2761911611013317563
aI-6620539279683758938
aI-4246700876656119239
aI8702498269295045231
aI4750474160274329078
aI-29804669685335021
aI-3670129368892307052
aI-1317115982455687182
aI3606178632113379465
aI7592948236454320706
aI6042766761895510875
aI6042766761895510875
aI6394221683466895160
aI1784248461426932469
aI6394221683466895160
aI6394221683466895160
aI6394221683466895160
aI-5802631641805908236
aI-5802631641805908236
aI1340872962732462699
aI-9062025517803584692
aI5807423759999277602
aI-5984400383824689129
aI-4600961531293052911
aI1442335232649325626
aI7549659687698698277
aI-2362913919786945814
aI8066077620383189203
aI4834244274055014404
aI-1376741735423362775
aI3072563925325529325
aI1723865575278545607
aI-799288309402408831
aI-3420160852048559322
aI-5951178769246847751
aI-3345440506874173922
aI-6664525619760105384
aI-3884216822992223968
aI-2811467411134285072
aI7473099899883074312
aI346354366277150532
aI-438202695622046434
aI5019839579499004867
aI4680408089751674481
aI1610398853892987758
aI-4520790709619743357
aI-8773957851648906219
aI8087079606938682900
aI-8134288916953645538
aI-4673302136522877173
aI5645247724238164087
aI5645247724238164087
aI5645247724238164087
aI5645247724238164087
aI5645247724238164087
aI5645247724238164087
aI5645247724238164087
aI5645247724238164087
aI816395053897558623
aI4673582992168666092
aI-2538325251187987875
aI7360301124938763028
aI1442321817328140560
aI5238735122614418551
aI-7384535061832350703
aI2415746542523937645
aI1378404395669739487
aI-2115083219744334406
aI6664171036341426956
aI-650584991470804202
aI611063183295609985
aI-1162781921376982782
aI-8915454011695184481
aI3946605986523175942
aI-2412041158035436396
aI-5882151892606104954
aI-7869259011709610278
aI1912746203339681507
aI6814239783791174617
aI-2976240301313677171
aI2678476234215272900
aI548063286931550091
aI-5332369445110012208
aI-8990712807066783244
aI6989721866748808405
aI-2473865377739810728
aI-780085723805120699
aI7738604463691165301
aI-484451257060410990
aI-309679939471608612
aI-6276988982821227723
aI3809904429042783290
aI4348710197963765073
aI-8521946706014678538
aI-6946505552025628330
aI8550191101853506778
aI9216265619798344196
aI5407623682386279678
aI-1786727577425413289
aI-2978315507458005838
aI3921463876794561991
aI-6447912258557617196
aI-5990711657517031582
aI-6447912258557617196
aI88218764284290729
aI6306819016542029993
aI1530624458658471755
aI93856907398880637
aI-1269046205788204459
aI5678562589285178846
aI-6130052517166519681
aI8508331405978911456
aI2039994488572738802
aI-1240770822453328023
aI7166514048843684815
aI1629988842355360947
aI8968602457129526163
aI-4259931179364007121
aI2128368694990682918
aI992174367181064251
aI992174367181064251
aI6424976551225441370
aI-6781986334388057045
aI7389792465325444828
aI-193871638831683050
aI-1891833163440522515
aI6216158955763581087
aI-6621507485957816716
aI830407401809695223
aI5774489588919804626
aI5774489588919804626
aI-4508977161032742356
aI5774489588919804626
aI5774489588919804626
aI-4508977161032742356
aI-6749182973570416319
aI8608419694605666640
aI6456720202732178328
aI8395859013437777509
aI1980832190440410899
aI-3722144995244691420
aI539112532016724170
aI739896537088242221
aI8449324525229399831
aI-2538812923984789089
aI1414391601514123654
aI1937735893212094445
aI4806114327391633773
aI8633370252205761365
aI8633370252205761365
aI320024218152284581
aI-1359576173966678239
aI-4445957387632557345
aI1063371539863885246
aI3598259881429635747
aI-7237741658036351226
aI7303241011353410108
aI-2584001189492500550
aI-7871800727920884158
aI-3671439590923601832
aI-4096998366329181938
aI7641150564494388793
aI953956603625940563
aI404013205135564024
aI404013205135564024
aI-9033714476016514555
aI-2804567542015733445
aI-4503437207797427351
aI-4503437207797427351
aI7777096026284068211
aI1568097380566185123
aI-9014547154544935255
aI-1975270505999868330
aI-5149938842660558362
aI4721890328685731752
aI-73022193741523603
aI-4798986357557206162
aI-8832999493002312213
aI-7266270811637821514
aI2694846511724624297
aI-8298451046768953173
aI-7825908863416886057
aI6924566659075650781
aI-5561012585866340154
aI-5710917278031379410
aI5388498400646327803
aI3329505886101944530
aI2877467163665496025
aI-4980255609828368682
aI-8194381501670992257
aI1995940814885006965
aI212072912029479829
aI-4916550128687233778
aI-6371205248376608642
aI-2739056155740579570
aI1493557684588242712
aI-1418918883198137959
aI-6371205248376608642
aI-2739056155740579570
aI1493557684588242712
aI-7547380932723110175
aI-7547380932723110175
aI4065656018162147703
aI677989017662363990
aI-6103069556470909727
aI3420162922572065001
aI1228105038953808170
aI8204747291081225955
aI-5349575095304179162
aI9048232409558237158
aI174869306917427607
aI6455510506833865203
aI-5494013631979451303
aI4985204822669518018
aI-2419535437962982887
aI6512871576588203778
aI2071584237743616489
aI-783642775512811162
aI-7740866098908159469
aI9030947643045191432
aI4990689610703095309
aI7331630740877372783
aI5530075722869171814
aI1726425506347897330
aI7743506112869730535
aI-1706608783339766582
aI-4496133992663814310
aI-4496133992663814310
aI-412996034787536441
aI-6371205248376608642
aI-2739056155740579570
aI2025510312871036762
aI-412996034787536441
aI-6371205248376608642
aI-2739056155740579570
aI1493557684588242712
aI-1734025850293689206
aI2073022617068914183
aI3262891998078319707
aI3262891998078319707
aI-3970842195518023645
aI1480795349783405549
aI8308269592202685451
aI6051929704602788036
aI-3126424238179117167
aI432565419141260775
aI-6181131104557166448
aI-6944017692847482696
aI-8731413220175124982
aI-5441463869206934638
aI-5170696553100522523
aI-540295061667871479
aI7480256803972869994
aI-1180039214412131689
aI-8736556415620242831
aI-3263588783038384880
aI-9103312870488287897
aI-7916816073591865896
aI2718668549631495114
aI-7861643043849480652
aI-59118445363908119
aI5629864006107421635
aI4001359783995743373
aI-7040929403348218579
aI3261784747673582612
aI159592820480437202
aI7093053071740924908
aI-5476438030245774541
aI5022087050800314469
aI6951409909664423482
aI8472239223883019658
aI-6849540365195816421
aI1004308331119664747
aI-5894599835599886195
aI452477972755760666
aI-3301246432551842026
aI-4037619073759569491
aI773564819168604535
aI3748632525703699212
aI-5862744121934962996
aI-7967134795661340241
aI125550468542566246
aI2942666038344771309
aI1570668838462340138
aI292633015723792980
aI292633015723792980
aI292633015723792980
aI292633015723792980
aI-1841432907451502094
aI-1841432907451502094
aI-1841432907451502094
aI-1841432907451502094
aI2434671465406786739
aI-8522318441621874037
aI-8522318441621874037
aI-8522318441621874037
aI-8522318441621874037
aI6478245731322300876
aI4510597000002053484
aI4014602840458913995
aI4535941214501338037
aI4014602840458913995
aI4014602840458913995
aI4014602840458913995
aI8053869508424187448
aI300427659212826055
aI2525498754056062137
aI300427659212826055
aI300427659212826055
aI300427659212826055
aI1829273085682500345
aI1527742752847853995
aI6570489056641421564
aI6570489056641421564
aI6570489056641421564
aI6570489056641421564
aI-4958588330414128543
aI-6179772314657502609
aI-6179772314657502609
aI-6179772314657502609
aI-6179772314657502609
aI4531600824124392328
aI2608063686555635327
aI2608063686555635327
aI5530942775520118268
aI-6182867113368506400
aI6477731361601783407
aI-8915649346933634897
aI1504094668000624378
aI4832080416319733502
aI2594502166681490756
aI-8740668867416514109
aI5177905884952030869
aI-1222696146279984632
aI-8686928922973188610
aI-709849102663562491
aI-8996087351107537227
aI4991153714070532460
aI4832190285792504362
aI4730963573503280811
aI6026512373224861747
aI-6618264722730153068
aI4747461072666090342
aI4654956971951014557
aI-2249821719944182729
aI-6481220851315948956
aI-4442690084185954777
aI-6293193730112846035
aI6796299624571319136
aI6435864613065084453
aI2789295235480933025
aI7702170853434518719
aI7702170853434518719
aI7702170853434518719
aI7702170853434518719
aI-3930713985972815567
aI-5567995410922801711
aI-3930713985972815567
aI-3123085193019358444
aI-4653989052523176305
aI3280417197918417733
aI3280417197918417733
aI2271330310533513379
aI4738000270462856193
aI-5647133938263742710
aI5978148415797086367
aI-3888284542112088672
aI5495689639434627672
aI5495689639434627672
aI3091275355633911496
aI-3129001109167982935
aI9088953584204087252
aI-2349166131369185967
aI-3541255973940222379
aI-5997402770911712750
aI-6975882564736114185
aI2402596052341878274
aI-2770839366643680181
aI3349163599533184866
aI-8416389513804832955
aI-2221837421054792221
aI6591449279776386944
aI-2903636168000299962
aI6591449279776386944
aI3839092030966776178
aI2569686137502427811
aI2569686137502427811
aI6794539328517911560
aI5928262628053635974
aI-6280757379810062361
aI-436291222834036989
aI4003447621673070403
aI5331444552457708041
aI-6396640845655568041
aI3259557129239331486
aI-6396640845655568041
aI-8118726966389025568
aI-7019985816614749655
aI1554039889391550382
aI960085094093940763
aI431484894017973327
aI-69473195563560769
aI8505387449248368654
aI7148894352748392316
aI-8054437455435672231
aI6208662169818524534
aI5638834905225191279
aI8079899382754764453
aI4149065448194618252
aI1907841048761647517
aI-3581076352035430464
aI3995925677361226818
aI2638835055152926335
aI6171418390407703672
aI43986443970975306
aI7611324534340617988
aI-5492519903059667111
aI-8089932011697046224
aI-794249343836227537
aI-3808662625240779182
aI-3496301534951864534
aI3811258831036354025
aI-3742136884744807842
aI1750799754185522849
aI-4733765924076460380
aI3633850517730072492
aI-4850999146709253594
aI-5589723591679516354
aI-3767202249199743368
aI-1010996788024497479
aI7934305170783586958
aI-8217320328536113814
aI1190951234790987829
aI2034103174043917288
aI-8230457949100468894
aI2034103174043917288
aI-8230457949100468894
aI2034103174043917288
aI736697906910347290
aI7238895540124494779
aI2034103174043917288
aI-8230457949100468894
aI2034103174043917288
aI-8230457949100468894
aI2034103174043917288
aI736697906910347290
aI7238895540124494779
aI7342988070006413281
aI-198042953371748495
aI-2081130900434579405
aI-8533135805147509935
aI7790137195139828312
aI-3407292242979944996
aI-1265711788600358007
aI-1219764892082217786
aI-5904279490110367241
aI1290304501038004149
aI-2700978493522085863
aI1290304501038004149
aI2787794097915159773
aI4040681654378690042
aI4040681654378690042
aI2637146546940289666
aI-1033555348270835773
aI-1394584160400260849
aI-8668741614823580746
aI-5906758187086872599
aI-8958426200256158655
aI5509791131403513549
aI-1293846427123882714
aI6728194972549034414
aI-991356943758127241
aI-4275446759922436683
aI8769063328416458382
aI7686679029216354777
aI-5098256411280420378
aI-5098256411280420378
aI4542203386297001737
aI-6730887257673239400
aI-4111215882379342265
aI-4204058270809469770
aI-4111215882379342265
aI-4204058270809469770
aI-1505935911955169566
aI-4019723420676176857
aI3671174765215363311
aI2397332009487115411
aI1494679831091481894
aI-1301465810049886548
aI9069681423754980003
aI4115190503857338875
aI6969247508502355994
aI-8781361345182659534
aI-4705273822880560431
aI-9186580592596660156
aI-2078800933107342784
aI-1323972272480482643
aI1597920288219862843
aI-2028973326666822145
aI5920881572165378187
aI7961360242330987451
aI8304530495134742762
aI-8535780475277889362
aI6559067319907405355
aI7249085477208416995
aI-2902852108037560809
aI-8238319200675924330
aI-4255417597182381886
aI8087079606938682900
aI3203497354165581714
aI-6025590538925426871
aI-5218433057505931163
aI4018239462896520568
aI6178003977555552174
aI-8134288916953645538
aI-6716627470929663260
aI2435634342906411685
aI2590812496368642905
aI3480548766345564950
aI-6209962708111089806
aI1231016436299371421
aI8280489625643584325
aI2576276048561408673
aI88218764284290729
aI4641924077113570590
aI6482571054079375871
aI6873685132308773068
aI5843065636826344945
aI6387236278442959540
aI-1001076745566202380
aI-4826484954616537011
aI-4033116003351134034
aI-1680177674701988986
aI-2554890371712344796
aI6101209626420530685
aI-3805708903492606938
aI1618188427212555280
aI5343169133807574709
aI-4100623286650208540
aI-4100623286650208540
aI3626211426264487546
aI6573765638704286108
aI6573765638704286108
aI3905331630559246644
aI6426485983500513092
aI-1675103846777720463
aI-5983153241942207334
aI-4619448718052531374
aI-8585251571736434869
aI-553843897584163180
aI-1661138426370377091
aI7879125923332919239
aI8010674250551793677
aI-1661138426370377091
aI7879125923332919239
aI8010674250551793677
aI-6874858425049978912
aI6671165345044761727
aI4065656018162147703
aI4065656018162147703
aI6646007692927036322
aI2715658050255201812
aI-286421224449437665
aI6953523960567450073
aI-1980941028701049381
aI7733826698665122726
aI-6838121424416195739
aI5251989072797760523
aI-5199645103347206714
aI-2045968996244854085
aI8218695838203331432
aI-4166733662395997046
aI7563440569150089592
aI4031816337607304367
aI3630306477412337611
aI3630306477412337611
aI-8643872589219172423
aI-8643872589219172423
aI992154783837080221
aI992154783837080221
aI-4736153402050957539
aI-4736153402050957539
aI8355602221080696858
aI2724637261620489836
aI2724637261620489836
aI-3258794828982861037
aI-5730023802502697068
aI5448763189377876299
aI-6555119215545769533
aI4014602840458913995
aI4014602840458913995
aI4014602840458913995
aI4014602840458913995
aI-4194535628649958743
aI-2579805527678537140
aI6200636120586865953
aI-6332374286171107481
aI300427659212826055
aI300427659212826055
aI300427659212826055
aI300427659212826055
aI5530942775520118268
aI5530942775520118268
aI4490551965240894009
aI-441005001631828513
aI4490551965240894009
aI335957964575102057
aI4149300838962024958
aI4149300838962024958
aI-1855428399641871370
aI8022263889748150159
aI1594193378851540965
aI5264454352948894956
aI785139328477461822
aI-496644735822733458
aI-4175433742753542994
aI3914986676633225838
aI4456050360126574834
aI8414600427802723517
aI35659977969763223
aI-1723636519291861293
aI-1377054245894627235
aI6994081818044078432
aI6483127042877888708
aI9118272743332019975
aI-7395557915036765261
aI-7395557915036765261
aI-7395557915036765261
aI-5632994890983605326
aI-8213518665738388224
aI-7203756227615617513
aI-7032044675986721711
aI7027745255720963936
aI4537271876981108404
aI3947387906678984159
aI-7026463733904574721
aI2429783737208347776
aI6965652681503442606
aI7693794133067829454
aI-5690147904592026189
aI-1754296479832652738
aI-6119328108902289549
aI-6860527803087253677
aI5311183013514692616
aI-8457707336035286037
aI-5812257593372730637
aI282533473393271619
aI6876779458172183152
aI2816742032477589154
aI6876779458172183152
aI2816742032477589154
aI-5412129459232404210
aI6800108887883070448
aI6876779458172183152
aI2816742032477589154
aI-852092313095531506
aI4253779416789980402
aI-3888284542112088672
aI-6916409321715942233
aI-3820126345564910388
aI-5998112325427767214
aI8530977710239088823
aI128697350115882096
aI3377609603357005026
aI8530977710239088823
aI128697350115882096
aI7850762092522625017
aI6116540118203320528
aI5950323633132540738
aI5267763082575767366
aI-462369807786325502
aI2868539066819734278
aI-3765197422615345144
aI4978543220153488442
aI-3765197422615345144
aI4978543220153488442
a.