(lp0
I-1023103455470479659
aI-1023103455470479659
aI653571296349470531
aI18797962474671183
aI8760632867951689861
aI8381115240455111542
aI-8640788932519229821
aI4383243549585099237
aI8791860874263941591
aI-6414161432088562078
aI-3393857776305852460
aI5473648573361824072
aI-9197366314861943215
aI-2074830873574648114
aI-911337869620959196
aI5801242881443351001
aI-8938663630773880549
aI-6514577306812612809
aI7700558493529322482
aI1290304501038004149
aI-2700978493522085863
aI-1678668805422731847
aI790062228901035091
aI-4088869880832205970
aI1290304501038004149
aI2787794097915159773
aI4040681654378690042
aI4040681654378690042
aI2637146546940289666
aI-1033555348270835773
aI-1394584160400260849
aI-8668741614823580746
aI-2252460188464489173
aI8535241040116200473
aI1426865784808010307
aI-71199807758797599
aI2823228380834469507
aI-1874592273216128864
aI3131682487670580336
aI4216240990550565696
aI-8558588716821125423
aI-8434434870959644105
aI5971774423417346068
aI-671430768841231916
aI-4926721388132954640
aI271060720838618163
aI6552933239949816990
aI-8916021572234286351
aI3507544603015218772
aI-367756799059019881
aI-6840532490632183181
aI284888261597959547
aI-2555412295990686490
aI3440429051564164110
aI2031051695558846090
aI-1480909680267878862
aI7391692629926413266
aI2038005459506599802
aI689956537933314740
aI-5393372666007265598
aI-8364674753877379577
aI-5066459235146249624
aI8054736239945724595
aI3325909084386511126
aI-8175470606972007645
aI-1916548809272337202
aI3834517618093309545
aI-1525954071728662591
aI7163530769443074997
aI2120601657391988361
aI-7751858658529099374
aI2765774734740721983
aI3529810712007884041
aI8247959485866554665
aI7235966493351663055
aI8246248710334246065
aI2009235859209578797
aI-7130133853552438882
aI5319458782700426770
aI-3721654260968518636
aI-5451196600014738149
aI-3721866642608584211
aI-68908770840996757
aI-7329661771166600752
aI-7923333400706493617
aI8423624784036515598
aI8299984615711487920
aI7887887657577094670
aI6362490903726098726
aI-8991685123323909341
aI-2658487792166822732
aI-3833727984086314863
aI-8038646926635068137
aI1107257667624440283
aI6421092041165976922
aI-6257636598847391533
aI1209893575883187477
aI-4993579930883797534
aI8431119083756045957
aI6450173917833147807
aI-3587469177634107596
aI-8928814836028821162
aI-4638230471625839967
aI-7487088372206042440
aI-7487088372206042440
aI5865500820558941111
aI8992241251742733990
aI-2662309264812223508
aI-1657330611422151173
aI-3373377981225615603
aI-5465242250262881375
aI728475264874944721
aI-8323099198125104419
aI7103111483444944337
aI8967382648391322513
aI3787409197452688907
aI7402418669247055672
aI939238457247541405
aI-4033747227122220366
aI-1470235030910983954
aI8666779836714387312
aI3212154866092930115
aI-4889842515033189423
aI-4627639455788615201
aI-6546944764171091816
aI-1400758260510145424
aI2329541073304644591
aI-1705955135876392388
aI-8830910131820160819
aI-1221928178301424502
aI1835533341453779462
aI4232176136944108889
aI-6494176710424077465
aI4278040924411878284
aI6805101695970714924
aI-4974008604918859395
aI9034195713271219687
aI-883567567238736593
aI-9164116342730405761
aI-883567567238736593
aI8378086969355244913
aI-8925337364181445590
aI3069118550171015735
aI768138190265503106
aI-6729322618372543409
aI6660240628707581333
aI2091648306038797626
aI-2888341054654054890
aI-2888341054654054890
aI-8479499184203999600
aI-67702765458374954
aI-4004678952448198115
aI-5725956732269362972
aI3857978617553566552
aI8199492186052508293
aI6915189975628351175
aI7955957518581175477
aI7552985728735990093
aI-5845916383316332803
aI-6050417055294729095
aI1533528188712849441
aI8251971171938973097
aI-8044021742075664581
aI-2930149213364478817
aI2746796148111584627
aI1533528188712849441
aI8251971171938973097
aI-8044021742075664581
aI-7634390201676832894
aI926172901153685792
aI-4150262045836156985
aI2837146299237325129
aI-5994943538219942515
aI-4079825544861250409
aI5022489707300378162
aI6611217444843936473
aI-9102158359825874616
aI-307987177569763688
aI6195461815241810866
aI8109450407714005320
aI-4136099359181871006
aI-6714718109434735229
aI-5079157984750741329
aI4620231941408059714
aI-6350254886282157852
aI2467772937122871952
aI9087293906044863440
aI-2332834458763314786
aI1558230390195282318
aI-4809290355467506942
aI-4170428047581831941
aI-2847258301491128433
aI2467772937122871952
aI9087293906044863440
aI-2332834458763314786
aI1558230390195282318
aI-4809290355467506942
aI-4170428047581831941
aI-2847258301491128433
aI-2739600938022205602
aI-5908905789904619811
aI-1346758605804563526
aI-5037304158514179997
aI-1741967390393940042
aI-6590272437532884175
aI-3413209830413639843
aI-1916148191245207895
aI-959575457279456625
aI-2100901212891044490
aI-4959594547690003094
aI-7996350743814046631
aI4650702834398841297
aI7650620426995866607
aI-4746473055418435316
aI-4543291574241108422
aI2287008074032330259
aI3602524311411147582
aI9069666564890398596
aI5542250238955725704
aI-1272474825558482889
aI5572402272995843263
aI-6068681411040744219
aI1685195424717195085
aI9069666564890398596
aI-9213294611577016626
aI-6994855015879530361
aI5542250238955725704
aI8866981907853817376
aI8866981907853817376
aI4456422736070117636
aI-5617230955483686527
aI4791578587943561593
aI-8972699136723890737
aI-8972699136723890737
aI-7023345696458204176
aI2222732503470559438
aI-1539936921424055077
aI-3281571864710316043
aI-8659004882948907849
aI-1144692963395371245
aI-6025853916673239886
aI-599360189631691486
aI968739302782992909
aI4173918587458926557
aI1964302589260587443
aI-8074008140707912681
aI684062649547577776
aI-6025853916673239886
aI-1315684523411330870
aI968739302782992909
aI6279161724092279344
aI7004305091402470850
aI-2636342062554337204
aI-7027569059683873429
aI2742840906833752029
aI-4256453008931848271
aI6403171755578787596
aI-1013933849260443468
aI-3971834938363831993
aI9067185224790837956
aI-5098256411280420378
aI-7520926308402879407
aI8280400157113655765
aI-5098256411280420378
aI6565088297714449616
aI-4837261643260554457
aI-54596869627996627
aI5703999850034499418
aI-3218217087039695734
aI8881899100155258490
aI-4795167449488763987
aI-3996801546226556056
aI-411411890103385712
aI-6828165962772503195
aI2117184339874945944
aI-3428312691858324104
aI-6828165962772503195
aI2117184339874945944
aI-3428312691858324104
aI2929551983720269292
aI4889607743779626078
aI5787956433125478709
aI942721423164185400
aI8387657447472288166
aI-712444094185518033
aI-8014471757903585239
aI750563544580042172
aI4919401036328607143
aI-5936268810736626714
aI2379537539961019973
aI7916553216008048877
aI8169116500437746770
aI7857155801822032499
aI6632653720486315097
aI4542203386297001737
aI-6740182145349275409
aI-303249186884032211
aI3283336142042735940
aI-6339713645514279439
aI4657445088589885756
aI-7543722450431961792
aI-6730887257673239400
aI-6740182145349275409
aI-303249186884032211
aI-9151833167883826259
aI-6339713645514279439
aI4657445088589885756
aI-7543722450431961792
aI-1419726799240587839
aI-2675352226508501629
aI2055347437826506804
aI1251272411276235916
aI5935973349890065303
aI-8774826645257564468
aI8626272419935071155
aI6606770776601898819
aI-7069763649966168210
aI-5987435880090336600
aI-4284232505950059554
aI2741111296361143145
aI6606770776601898819
aI5556041557363603684
aI-5464953383904974058
aI-949908868668856300
aI-599606065145527464
aI-555024638690552344
aI-6949765489482006502
aI-8556277503713476706
aI-1992717303350287900
aI499715082442081313
aI3377176539675294142
aI-1619802595960516302
aI-4724319748590552086
aI2999163765456497408
aI-3417778542894463293
aI-1858101574283813681
aI-2157271883182936286
aI6140924858269942150
aI-6555349032175213637
aI2741520959393932862
aI7004232934574107510
aI-6555349032175213637
aI2741520959393932862
aI7004232934574107510
aI-1415263157055450020
aI-3463231429693526908
aI-1025630135216994795
aI-1224994567127519763
aI8565441723966371640
aI-6384790592895463326
aI4814780448970462980
aI-5369656112499696478
aI-540524028180063925
aI150280257329471598
aI6379721925749073293
aI887072207385887477
aI-6132833023377473860
aI-5555289833330554741
aI7717435056414232921
aI5465727831080841785
aI-4204058270809469770
aI-4204058270809469770
aI-6822286704646984244
aI-4204058270809469770
aI-7986700172532760308
aI-7986700172532760308
aI-6046587929009159029
aI6711183679024523526
aI-2027532716172467726
aI7140977168260587646
aI755083912115505163
aI3652006788269277943
aI-8802779037296695183
aI-2255535446592661623
aI-3971345518482783540
aI-9121418126765383494
aI-6301274065131687375
aI-3280422551671073815
aI-3342344172926188880
aI-7456105316314160454
aI-1672160694265134035
aI-9037104613219744382
aI-5313339167668579731
aI-6530078920748052394
aI7176414834118730564
aI5539467869280867223
aI2277193523177268440
aI5539467869280867223
aI2277193523177268440
aI-1484159417902317281
aI3245555969333149852
aI-712328279856935422
aI-5258539552091811744
aI-7698732542504212984
aI-4530783064491523462
aI7775068630694178681
aI-5031329531237307551
aI-6425506804779078845
aI-8355317938515310211
aI-6677602237171127039
aI-4731387400857580638
aI4571261733356881181
aI-3934751567861126330
aI7129529431015370068
aI4069472242530286864
aI1111095049465379221
aI1465920924767175906
aI284765306138923794
aI-1648130969873782408
aI1430421164146455290
aI6253570367124218115
aI-8461261308646087101
aI4555012435111776535
aI6361469334241973950
aI-8998818466458459202
aI1099746140124021959
aI3047000110357481104
aI2042976816661401286
aI985125272329351424
aI5057173916084466821
aI-3552016079434342140
aI6705249946277780951
aI-4077470906850710618
aI2778618046403655212
aI3760678988475586324
aI-7551872422379861605
aI-4019723420676176857
aI1204490053913575461
aI-9197152727172348988
aI3671174765215363311
aI4559303661184071325
aI-5976676980224705542
aI5829549254389309802
aI2733393445635770191
aI-2574981192098259672
aI2841585053941144331
aI7630960780325046292
aI3964372009912633716
aI-2339036270923634751
aI-67686807147704274
aI-2224900249832075464
aI8409142962974252152
aI-340961852621496269
aI8249077243099234028
aI-1533628071316123858
aI-6670395050587280890
aI-3050587610540458069
aI-6346563978234912161
aI-5883671050089522311
aI-6258638034127255862
aI-7636800109272001059
aI-6658427032176791209
aI-5213338719212758337
aI-751843501975397413
aI-1518390105730692989
aI4892358363990101851
aI-547388652633506045
aI-3722340567316740473
aI5995879010605709949
aI-8725647890381622059
aI-6658427032176791209
aI-5213338719212758337
aI-751843501975397413
aI-2817945005203881605
aI-8456152403134838142
aI-3885012318553448541
aI3688193247241556468
aI5989742290557331528
aI-4440802304170338335
aI7288451606302262221
aI-4666883391503748794
aI5846052534027961379
aI-8149628240740056784
aI6949263688092990890
aI3259367194162982303
aI-1866183766199531125
aI-8149628240740056784
aI-5306611701541847078
aI7736983792369608275
aI-8583747108853888060
aI-3536323870176779347
aI8298991478956831350
aI4248037084189494463
aI6352984585803863401
aI-2601537622585255404
aI7243214091649244716
aI-5829461366103789983
aI2619130744934175687
aI762633716542207822
aI216858870908573641
aI-6115887777451413202
aI-6424575573341576980
aI-4866498516365762938
aI-2223328502721188686
aI1721013715024347498
aI2712800543817575860
aI-6371991069534803936
aI762633716542207822
aI-6216560603423533623
aI-4263306783966050433
aI1040054968748286220
aI6323136268011272542
aI5268116865476519836
aI-7594462633675083360
aI4697912547324295142
aI762633716542207822
aI-6216560603423533623
aI-4263306783966050433
aI5932402235638040112
aI-2494715436463649382
aI-2223328502721188686
aI1721013715024347498
aI2712800543817575860
aI1780697113686288676
aI762633716542207822
aI216858870908573641
aI7667444793856806695
aI3573835764083606155
aI-6215777534038452399
aI44784278166308230
aI7220851495339457771
aI-2580589297324534915
aI8436813144248240343
aI8436813144248240343
aI8436813144248240343
aI6717200732103527319
aI-6680453502610503924
aI-7748549963585495887
aI-1477253592372682455
aI-3570178227363711368
aI-5926196775050744835
aI-5926196775050744835
aI6554459902667290017
aI7762215934307187171
aI-8786024186543180702
aI-4454850241180459468
aI4604373123140778050
aI-1085902820136813824
aI-4868388786495308814
aI-9121157385468147892
aI-5127920387844145319
aI2873063323549651197
aI-8338983854213968544
aI2221493908528416900
aI-5400875274000230744
aI-5224254821869985049
aI7110686872428565255
aI-2330101815331361123
aI3623219600669336335
aI3623219600669336335
aI2176664710873370001
aI-9112306629111196568
aI3289030829132364080
aI-7166778660029736048
aI9014158228832007549
aI-2906362270805994055
aI7244967621922310919
aI4821448983616242835
aI4868492032718960248
aI-7151906470266864783
aI8696556804919862508
aI8978435141660268694
aI2396413394057197419
aI-5743837847022133263
aI-4485227191547686667
aI-4439397534285260522
aI-4109911429619414162
aI-3120724754187644125
aI7195566291451620790
aI4007976887441871830
aI5347926483858677419
aI1402557592415558303
aI-3440602415892538943
aI9191393431068853041
aI3982848888284443729
aI4501306455678535252
aI6827825290854975722
aI6473936805479571680
aI-866249675873323879
aI163890991250188964
aI-7435945329346135779
aI-7435945329346135779
aI-7968185429668838729
aI-7578476496690754231
aI696833784740805093
aI696833784740805093
aI696833784740805093
aI3563232989473740505
aI-552181322436553331
aI2670839387280108760
aI5274491817753621148
aI-2017748508818928708
aI-2017748508818928708
aI-2017748508818928708
aI7580330274993140986
aI3623767086796998218
aI2564118224499511961
aI-1301465810049886548
aI-2487996068314863034
aI6969247508502355994
aI2114419222134687711
aI2114419222134687711
aI-6063738939917960945
aI-7475026905928202217
aI-204378682098173750
aI-1741625677317669772
aI-3607589694666968033
aI-98655350520151333
aI5978359007929505399
aI-8893695186697429919
aI-3113428354095808108
aI-7087382184368242771
aI-2250958271937532337
aI6682841723034157671
aI6682841723034157671
aI1541288860725555995
aI7625507094440772737
aI8018172199922242108
aI-5712674994588943741
aI1725081720302643014
aI-4289696942970948778
aI-568623458661926626
aI7975825321953306493
aI6343708804887704434
aI8094126582456974618
aI-1771525418103961958
aI3529180351141033097
aI-1616820001946252509
aI-4511936634631120360
aI-8257183327631107736
aI8338712805257730495
aI3699588966048754576
aI6473936805479571680
aI-866249675873323879
aI163890991250188964
aI-3197090778355992270
aI-4758436720996303030
aI8902019040728712942
aI-2359040756634787188
aI-9017693404511036905
aI-2216844436347642885
aI7421837683151724825
aI-2216844436347642885
aI2857423211227246552
aI4920173902437302152
aI-7741022846984874690
aI-2938301045406116051
aI7404575416237137987
aI6013120122331757235
aI-8168567580547034099
aI-8181876862447392289
aI4908239239440076023
aI-2305088086406511294
aI2842922715241788284
aI391040015584640094
aI7420384996538451456
aI7369113119462357959
aI-4250253081214386051
aI-3455991693231347645
aI-1702189714088268568
aI-7301044106708377418
aI1557100067851608986
aI2180194678348622099
aI-1414846601477193776
aI-6092172928931046646
aI2024783113883354308
aI5759330898663232358
aI7359764878601225814
aI-1556823831797498940
aI1285975033798405147
aI6754001029112040034
aI-3030771704509919641
aI-8093832349338863966
aI213945616966331359
aI5791689176207016740
aI543244762029600769
aI-6048723052371853654
aI-1159075464190558405
aI4622446098078144931
aI531954304601088987
aI-2110206138249568799
aI-5299814480842088162
aI-6951477384353144511
aI5439182253559088269
aI-1803159718289397870
aI446241208761022209
aI8499491324353471225
aI2746788324292590053
aI5713727776731062315
aI7601380445276125632
aI-812998785216788454
aI-7086455350656182600
aI5415937161474824006
aI-7505084426570820275
aI3325353646579664413
aI-3676099174199612877
aI5679125866499947845
aI4208583719795596895
aI-4510895219804174049
aI1594711512520586046
aI-5425818122828161772
aI376247550420011170
aI1889676906651397066
aI-906426334935689432
aI-1234903312990917276
aI-7141908578189608624
aI5565086291524516402
aI5565086291524516402
aI-2886770907352979161
aI-3420993423371342384
aI9018683841489290172
aI4137453847898911673
aI5340378286722601660
aI1084409962238735573
aI5376609535866245706
aI-9041626206680491374
aI1733135999463943219
aI-62716706514101611
aI7347389381490179460
aI1161341543360055539
aI7861109792434854636
aI-3971522057505309005
aI-8191495631133093223
aI-7057282823622656408
aI534101865408405138
aI-2078800933107342784
aI-1055901698164165505
aI5799946817464651158
aI8250308577953038550
aI-4184300953092303408
aI2274964742330975986
aI6674852264718352458
aI-5890005673402259280
aI-3441240798842563609
aI-6525706182211893077
aI7811416535481552744
aI6911646895663968163
aI6452782529333312529
aI-4712597249796644532
aI-4845618372339205351
aI-6176637376111566624
aI6613195831512480422
aI-7469054156631014713
aI1753427723132623720
aI-1194755525959740446
aI-3665669422796923396
aI-1526455155274826926
aI5989649497196300449
aI-1737608376736017507
aI-2203692503652583349
aI-1737608376736017507
aI-4570646578562563981
aI-5342771253514017151
aI8039665473770061949
aI-3907679891796538067
aI-6863851065972990263
aI4212509177045407430
aI-4307794854130334474
aI-6926938531471697840
aI-22219947452107221
aI5410132344525368299
aI7795846502627970326
aI5288950948432089786
aI7795846502627970326
aI5288950948432089786
aI2366132464697404534
aI131460833560339242
aI-8973594071449400802
aI-426512844023754062
aI-7778451026378501193
aI-1892858097829372088
aI6254058104666892842
aI-2020192347621422591
aI8745644034255282877
aI2754838975271141713
aI8745644034255282877
aI2754838975271141713
aI5278929072882427987
aI-3852588650628958337
aI-6764537734898900839
aI-2599323547021988179
aI-7778451026378501193
aI-1892858097829372088
aI-4427291297965180602
aI-9162107188053851859
aI5505863830570760324
aI-2814024400953744112
aI-6955466106062721770
aI2557163334334953357
aI-7638028913640916220
aI2236095482664883819
aI-8982692468183064475
aI-8700178874325868069
aI-7638028913640916220
aI2236095482664883819
aI500943015358706555
aI578459077846742247
aI-3810815129884832934
aI4646216507298432399
aI-4006967948707687370
aI8872682332021499262
aI8939823232813921451
aI-8906063688936939493
aI4955304591299688562
aI-7774588017057299263
aI-2531441314003169598
aI8383352130973020784
aI7723627607551876107
aI-1601141010934583121
aI-4359686702191497241
aI9180944828861326051
aI3368107686525244086
aI-1954793673836777229
aI4680353447229651598
aI8884234269337950076
aI-1912214736127391642
aI3603225518132741959
aI7775799414523687106
aI-7972786749251547925
aI9013860333620880170
aI-177571123847755555
aI-5636353213053494119
aI8221607315252347144
aI-1996281376442037868
aI-5447215743028667464
aI8372517966790609720
aI-2089208036365106796
aI-2708154303436011802
aI-4129807777224149284
aI-4483153930103286855
aI2568488262949061104
aI-4763210534598748039
aI4723027800777772008
aI4617363706573053526
aI-433394683840874556
aI-5777666734322430204
aI3430281437392859003
aI3755791583500173494
aI-7852067706694482348
aI2010956997222630208
aI6916097983741502823
aI6941516200116475993
aI-5467888378272561651
aI-5364306046314461671
aI2210016887034860840
aI3228556083704707292
aI-5192993171022848038
aI7968493484261041089
aI-3084204275595218091
aI-9114308765427096162
aI-2164116054752785354
aI-6150118780124781224
aI6602834441172471148
aI6602834441172471148
aI3231299704195671744
aI-189736369289297270
aI-8501515557163610601
aI-4566866773370099557
aI-8766829967493438021
aI1634060556651125338
aI4412090856909495826
aI4271899291719592764
aI8507868488573218972
aI-8872949357791677075
aI-189736369289297270
aI-8501515557163610601
aI-4566866773370099557
aI-8766829967493438021
aI-9156479061199117978
aI-315282632631290752
aI1751817511105022474
aI484089412849253156
aI8771268904609331413
aI2663064339053725508
aI7947866472012176757
aI-6436603922282626797
aI-8655415593927222806
aI242489148297637353
aI-356724138984255658
aI3473309477064544232
aI-6532071510127135478
aI8190410344776951721
aI-5427774192149865104
aI-7049347531503577594
aI3337714381398144407
aI709817026308667752
aI6851945705919384017
aI-8246261028483530561
aI6851945705919384017
aI-8785085590479188693
aI3289122696857558081
aI7961360242330987451
aI-3719161341592487650
aI-5149338590467906388
aI-5394715784811200800
aI8304530495134742762
aI-6951020490338184463
aI3132094374982541544
aI-8732724312453088077
aI7265109896287638348
aI-6763941005162268256
aI-4041406443429548212
aI7469710008330697995
aI-1982701760091006785
aI-9020262427854538564
aI9189977959844210563
aI6602834441172471148
aI-6763941005162268256
aI-1760168746598881536
aI-5180618974919995843
aI-1982701760091006785
aI-9020262427854538564
aI-4981970764023965103
aI6024667268439014500
aI-3536144581048688472
aI-7534865129318332845
aI1056056427159416759
aI4146847488654120597
aI-5695046988366796041
aI2738355982108951065
aI8744097740141184438
aI4023479471042798942
aI1623703180869510306
aI6419642198254924130
aI2817369831074120621
aI-6489971855159992555
aI3490625323483402720
aI1997459749212343779
aI-2134611439556744499
aI758789065975466658
aI-4462634585773842941
aI-8250825014656117448
aI-9041404809889824193
aI-7336851135816986879
aI-7833443990744006647
aI-4071056323440260670
aI2225916393154636784
aI-1528226707229222522
aI4998035252710104209
aI-4169428019463419929
aI-485307096201387934
aI-6912219198085028833
aI-6773931710498353199
aI-3261631075198619428
aI7704227623783756946
aI3925836956630986525
aI-7764597558755828644
aI3679280050661280715
aI3679280050661280715
aI8041751301407545300
aI1222664361364082802
aI8086636195562891606
aI808988578333097730
aI-539636871603794002
aI3143411181835592408
aI-8935966790067693499
aI-6646776523157374383
aI3922830687367501154
aI-8535780475277889362
aI7983446671887405690
aI2711405330016052734
aI3777986959328817864
aI127078573708052440
aI-1896667514922036723
aI-6398799326360973102
aI7715949734183011900
aI7138302011163990460
aI-8238808602545058255
aI8852291122921621515
aI4952907030271397760
aI-8992735487239419485
aI5983754299169415893
aI3716060128411458483
aI1478827358112352263
aI-5165839646753512405
aI-5796998295054618289
aI-5939176594719775012
aI-6898045826893324502
aI-1168849020545210031
aI4021324817623025737
aI4779130616042130103
aI212859441405737350
aI-7628194183051545764
aI9196946250552448445
aI9000889394573656437
aI5008253371653199014
aI-3262683882087625826
aI5567900207534048800
aI4274756772306727752
aI7185834837002222740
aI3295673434404907679
aI-5313339167668579731
aI5979780920497960745
aI-5304010571073014820
aI-697504608284318173
aI-2770107609561549800
aI6559067319907405355
aI-8633184794398944104
aI-829559446040931488
aI-6379992319088598763
aI8009152226999364458
aI-25181215451144173
aI-6905718015698225120
aI-2226269574581686719
aI6237655490049677306
aI-4284752371943222285
aI-8450117889603867905
aI-8687784747184169626
aI2048736669520362038
aI7119659538527698783
aI2093100184550759958
aI-7522657087870170494
aI2193592757867116806
aI-2773576895465787917
aI5093133231197866162
aI5579520718221213603
aI-8975655477975903725
aI990546205424953428
aI6478601791303365341
aI3177185082226366199
aI-7084035439666018585
aI-2613510470780891302
aI-6603780000419216391
aI-5644551225960057464
aI-2868195471333927570
aI-4784606394247103009
aI14963682092637149
aI7326161264760921297
aI7888428569248868560
aI-6468078793569120578
aI-6524394175822875337
aI-1104727066863018875
aI-5592839356818473355
aI-7836805277411410417
aI-3631354996244875981
aI-8006088132655012141
aI5216978444233907098
aI5096827300094573250
aI-3848102932619663578
aI-3866103625220689298
aI5961429666137963805
aI7836643186633624188
aI474897124064947045
aI6056456276224342592
aI4917521169038444393
aI7476266013355397760
aI6056456276224342592
aI4917521169038444393
aI-7053089858386484058
aI-314331384677950042
aI6204939654263030362
aI4119095756128268399
aI-7369551608776706802
aI3255121341150568733
aI5236138377205144551
aI5431459154920158200
aI-401279668544411688
aI-8222749639386781865
aI6992673793720235525
aI4119095756128268399
aI-7369551608776706802
aI3255121341150568733
aI5236138377205144551
aI5431459154920158200
aI-7777657630039899163
aI-6188405911900417108
aI3768197612015169615
aI-1251053615285471860
aI-4343306744400848494
aI-1912912635471553125
aI6346596075286804284
aI4307442114536505569
aI-4425752393473487749
aI-7847090944099999618
aI-1272159738630981756
aI-7076022893879878334
aI-4813585735996311939
aI3907644796478216267
aI-4425752393473487749
aI-7847090944099999618
aI-1272159738630981756
aI-4869700249573855773
aI3632028643796279984
aI1081475394188667606
aI1885956109670386851
aI-6414017708086618680
aI8975859002747750821
aI-6815754649473676989
aI-3929475461357796820
aI-2259544451919403544
aI71989568962774293
aI7054337352940592903
aI7132833276910139200
aI-5490299615921445939
aI-2241577790442027126
aI7321823869191716640
aI-1968412239716926595
aI9022971154858319459
aI5175008095295720598
aI6980792914578240336
aI3764604659250833899
aI2285077226326997086
aI-4080605226555643891
aI23894534697680139
aI999600174199807910
aI-6039398846456731850
aI187401015498027041
aI5203029721444438331
aI-3995290989438099050
aI3057450466040631561
aI3555312032050249876
aI2292003141316994806
aI-5579115599142665531
aI-7162955670830989495
aI9032348553797047812
aI-6887856559381269948
aI-1965337381036760316
aI-6671504816657558582
aI8118612307456776499
aI-3792016548774560297
aI3402984273808863007
aI6578601815038988509
aI5703800532039454344
aI342785468584939566
aI5689615417735042549
aI1301946940448802442
aI-1162192983518102735
aI1301946940448802442
aI6948220391714621378
aI-8669460532760477810
aI-6557934643933298355
aI-3561761496278250828
aI-4282848049167729586
aI2956708942372255771
aI-1821489100621915920
aI-2620876100355804612
aI-4520790709619743357
aI4955473691448485691
aI-7769902614924338294
aI-5597524309884638544
aI2359590377247834874
aI415323176452201403
aI-1606262697302238731
aI3417428007595343850
aI-1941889824018715909
aI-4630687882715343966
aI-5416156972437487566
aI-2029756264315826853
aI5612896985142997018
aI-2263381174641150566
aI-2448729414273279876
aI-462578680812053778
aI1609714151029532623
aI7445161305287404214
aI-7731881128537048136
aI1380787481300589947
aI6795946980430761493
aI2375031418853794483
aI-5184717431234156323
aI6863296992588361072
aI2375031418853794483
aI-5184717431234156323
aI-3863701757344371906
aI-6937035497765744598
aI-7282525845281552454
aI-5407679892503629086
aI-2982802209696035848
aI5554956654415723468
aI-2451974734967130444
aI8802285406084612012
aI-8725290217530362824
aI-8427483225281872383
aI8802285406084612012
aI-8750563629575324542
aI4252357655197583172
aI-4169368767175781346
aI1231016436299371421
aI-883453983418720596
aI1136044180998586915
aI6535759339222043688
aI-1149725998349014047
aI-4025789487502268812
aI4082255134239271493
aI2360769932345119256
aI-3090337576117992630
aI-8132997677732874010
aI7270290861647102829
aI-770820109233113183
aI2123582998994441115
aI2552839497095859659
aI-3302431117084769023
aI3908961989193305128
aI8703082648520780448
aI-447900529228816401
aI-1081175403750408577
aI-9109080862059538139
aI-3361471148006099134
aI-1707293101756857789
aI-6535269347950746283
aI-825442349549265980
aI-5458541528412661912
aI-1274391116313776846
aI-3235429614737078334
aI8301719483950862286
aI-72014748264087099
aI5609549561393767612
aI131000744066505459
aI3851228420601136355
aI1597181962508187122
aI-1903335829288650422
aI-1750342208536422430
aI1966522870776422155
aI-9200808147580609474
aI5523142030980149333
aI-3588254046545882808
aI4233496465865181233
aI1341649073783454919
aI-2199791247869485257
aI3100452234078624892
aI9052117766680068445
aI-8555277825340762402
aI-1364981162923716680
aI-3068249577517542724
aI2199986551757976025
aI5334452646932734024
aI4178608485680449725
aI6318016360185982730
aI-5643712549078021276
aI2536285108384706696
aI6679020915120832309
aI3659596782612254662
aI-6413031676424067384
aI8104478097747330194
aI7797623501890041295
aI912355594247016925
aI4301790108549420526
aI-9054135076875503248
aI1923918799843180700
aI-364031280108957700
aI2053784189670448189
aI-547240085951277519
aI-1508724577720011649
aI6882595399138796696
aI-780948433201836882
aI8682125704577312286
aI3057371772485249959
aI199037848959336284
aI-2042946777199871617
aI-286078317345710716
aI-1661905085760354614
aI-8532721983712164737
aI-3583088851880180757
aI-337300280603904505
aI6980454312564304277
aI-2707366731815559361
aI2311950333793673788
aI636762089128420604
aI-6418419140672224124
aI-5112359782594349445
aI-5177158790010173770
aI-5118358591914841586
aI6379877428488703406
aI-2812680384096208672
aI2110377703503630723
aI-2834696090785978952
aI6789356809809896113
aI-5692339100976187020
aI7956982511531084801
aI2727149207531284736
aI-7892855258214605212
aI-2108807768817172410
aI2622784416013595765
aI7094217125156140855
aI1451304824275631824
aI8870495137810816814
aI3584091344339230580
aI1178332927015187018
aI3584091344339230580
aI1178332927015187018
aI2622955492942761037
aI-5147359206743809613
aI-2877230294570831240
aI2622955492942761037
aI-5147359206743809613
aI4656258849366019653
aI-7541654376068568772
aI3852621586948699397
aI-4249834800989448964
aI-7761453574196440678
aI-278601781884113677
aI-4249834800989448964
aI-1842293494383770513
aI7224556376830599248
aI7210454262816613625
aI7224556376830599248
aI-8845759282461166458
aI5407623682386279678
aI8239023980812361048
aI-1786727577425413289
aI1195455148516672613
aI4828642946306984766
aI3578099989164518880
aI-2191396164174243750
aI-2363740358177251858
aI4895168691700547614
aI-2452824144357544245
aI-2289322164811710534
aI4799297057347650077
aI5141903631687900611
aI-3223027128440596067
aI4001856196121646579
aI6915110417789229740
aI8231687937696328215
aI88218764284290729
aI88218764284290729
aI88218764284290729
aI88218764284290729
aI8654466697659066643
aI-7853730106386324688
aI8544647882706614227
aI8544647882706614227
aI8544647882706614227
aI8544647882706614227
aI8544647882706614227
aI8544647882706614227
aI8544647882706614227
aI8544647882706614227
aI1852303953001233338
aI1852303953001233338
aI1852303953001233338
aI1852303953001233338
aI1852303953001233338
aI1852303953001233338
aI1852303953001233338
aI1852303953001233338
aI4412752149779129030
aI4412752149779129030
aI4412752149779129030
aI4412752149779129030
aI4412752149779129030
aI4412752149779129030
aI4412752149779129030
aI4412752149779129030
aI6412091693666436633
aI6412091693666436633
aI6412091693666436633
aI6412091693666436633
aI6412091693666436633
aI6412091693666436633
aI6412091693666436633
aI6412091693666436633
aI-1938052302147825944
aI7657941049959661301
aI-4959857756845886210
aI2605185333038115061
aI9218978191451545573
aI1604202020819598232
aI1414456894109849583
aI-489358357752941316
aI8364676532674362385
aI-5786724221563297765
aI534503775389161293
aI5751757410319570784
aI-8501069123086206235
aI7413260380504100074
aI697932706362411669
aI-7676992837916496070
aI1730427962769830705
aI454617643382635710
aI2592665113086787532
aI8196038762813985336
aI-4515525295360949182
aI295801786507027553
aI6008820344877916658
aI2021853587888395968
aI-8577336545846738849
aI3929178279415018737
aI5843065636826344945
aI-5770851815733921867
aI1923806039074044648
aI-5978234895790207321
aI4485678063042983759
aI5736288736468891929
aI6387236278442959540
aI-3449295525678106228
aI-697528953199253655
aI6492780336976601974
aI5581690163747259590
aI7344537316274125798
aI3768502469074060390
aI-2945944245031032322
aI6718931660719739178
aI-1001076745566202380
aI-4826484954616537011
aI-1433744552733555658
aI5618838181747096385
aI5618838181747096385
aI-1433744552733555658
aI7156838528101774326
aI345523944507980576
aI-3136789713254658465
aI5814781615192945374
aI7781704700847825773
aI2018039110803906871
aI7781704700847825773
aI7781704700847825773
aI-8522783839159087447
aI5768310904772038270
aI2018039110803906871
aI5768310904772038270
aI5768310904772038270
aI5256809381360506483
aI5256809381360506483
aI992304066777901651
aI-8576515682096457990
aI-1729854058352629420
aI-3852991640380871029
aI88887060416811022
aI-3852991640380871029
aI7351181269399777321
aI-2554890371712344796
aI-4767180978703778774
aI1934427714754616665
aI-3266316609255333603
aI-5034213194651480809
aI8185492607154208005
aI5155247954546610398
aI-6883203525502401827
aI-3380211148069326630
aI-7711524295114170687
aI5066881106545773206
aI251009261446971297
aI706549511436327229
aI251009261446971297
aI8053606490913219764
aI-6111836105033399302
aI6557914161634830996
aI-3634458185102445756
aI1976194255871050961
aI-3805708903492606938
aI1618188427212555280
aI334860812816907386
aI-7536770696488328483
aI-8187140878338334262
aI-7139072754165662165
aI-5717543914585890046
aI4822031863513824899
aI-7618849521639518455
aI7295005885345070945
aI-6844023302167474510
aI-6670807109993219273
aI8878503854025688183
aI7830402371285634375
aI-5405428472921331313
aI-2004985872832394758
aI-852635412180242871
aI-4611130792464637151
aI-632284159503568964
aI-1765043494703644892
aI-498839187654902648
aI-4100623286650208540
aI4761967112335735366
aI-498839187654902648
aI-4100623286650208540
aI4761967112335735366
aI7276478968320656215
aI-3635121315731743462
aI-339924089475679909
aI5567931275525371142
aI-4068898133467282610
aI263017849852774900
aI-5862162146348098685
aI263017849852774900
aI-5862162146348098685
aI957909197765251662
aI3626211426264487546
aI6573765638704286108
aI-4000268697309183334
aI2993700256636561498
aI8147881201122635618
aI-6600610577291587742
aI5271978614935302271
aI1894488884964253123
aI-1276592598980574405
aI7327596860569906829
aI2010268138676014371
aI2426446880593497674
aI5091818275505477643
aI-8488804554605290235
aI3975699294648930760
aI5347823832838845489
aI-4953792691650069914
aI3657903054549272319
aI6008898563965420346
aI-2845568935228923346
aI8493215494305157110
aI-488359841431261250
aI-1091523064149580917
aI2101448580458828802
aI-8413001691645829953
aI-1617946467761600707
aI7450475082651111332
aI-2609232603455409794
aI3751317731385331110
aI-8796597610034418959
aI-2730708592776877345
aI5411954744027604657
aI-2213348364299325810
aI-5376692628412033256
aI-8108329922812802478
aI-7405539839225289369
aI-2352500089830224172
aI-7454614493635168777
aI-8435297800313294677
aI-9191220015010289604
aI5644646828219507846
aI5385608241252092941
aI-2013410301556198940
aI-489304488295846414
aI4966209796648130573
aI4282151025053045475
aI-6972576842708495486
aI160980140537592726
aI2854175554944413914
aI7381989443651513206
aI-537420836994430244
aI-4746685318711517972
aI-2948595795874249432
aI-7532480839266259989
aI1898098056430585873
aI6325423269975578696
aI-2849607938844375495
aI-9127312138630837356
aI-9196558128848493312
aI-120583367495504598
aI2194302140571918871
aI-5754127153286304656
aI7182387337165173784
aI96396988354263856
aI96396988354263856
aI7114897863142301460
aI-4902656046095763432
aI1738777886292692834
aI-4916550128687233778
aI-4912780774958332715
aI-5572144723750415239
aI-31836718779747910
aI-6033662968870854269
aI1632954590628107229
aI-7316086783879286617
aI-7316086783879286617
aI4022537488910859127
aI-4353603671194853965
aI2105372188621774933
aI-1418918883198137959
aI-4912780774958332715
aI-8385114125869655215
aI-4172423635720611134
aI-8801762672148890019
aI-2041183798529778862
aI-242942263681315493
aI-6825132582107954762
aI-2166875390127144414
aI-4743338066430790932
aI-4902062490293046961
aI4533757442638022066
aI-3608176509989523233
aI225037058804260624
aI-5987816632911723035
aI6572527937261337437
aI4227301430654313835
aI-5997620043769831630
aI-2579856462785795789
aI-2164575606574390705
aI12832026960252697
aI-7239269167805294416
aI2237645716947267718
aI5929112667632297756
aI-5972982235096729135
aI-4686618146851223044
aI-2579856462785795789
aI-2164575606574390705
aI12832026960252697
aI-7239269167805294416
aI2237645716947267718
aI5929112667632297756
aI-7897622814683323166
aI-4686618146851223044
aI-1059007475033096016
aI-3905153971188785679
aI-6449355581595617765
aI-7652443157461338802
aI2398436380525030786
aI5046842540762004686
aI5046842540762004686
aI5892163726041586810
aI-7929163358540291209
aI-2883344780206081302
aI1778225640188687
aI1778225640188687
aI-3941611200940612589
aI4988648361236306756
aI-7230751780509495360
aI-9044328967394037049
aI-7135607811040836040
aI5132780026678767194
aI-668361556676916443
aI-8594296917838530489
aI-1220565311506004612
aI7768955098169762090
aI-6398779859146269541
aI-798342774280646986
aI3437544391914031715
aI8195034374448220911
aI-7298744047418531640
aI6609240031674558252
aI-244073928643188409
aI3595030570999609890
aI-4841069068680900366
aI6353373162638579876
aI-526305620305507541
aI-2215753356973467142
aI-1509541777101191199
aI-4124600972029565896
aI528650410877953922
aI-1461254257656067543
aI7385139416792258829
aI-6515160444576414548
aI-8920342415770924843
aI-9166100184406945882
aI4844119926253511904
aI1642263277935774434
aI8475375610322774386
aI-6591229779376465034
aI-5689786154447272329
aI-2883566452384563082
aI2061944380308232438
aI2681176514843462035
aI-2136615830016121086
aI-2717182331508597693
aI-6861364026284540718
aI-651192822414278226
aI-4447085051987404837
aI-8817141694041715785
aI-8817141694041715785
aI4713852634738660379
aI-3006508842464392694
aI-1262166357345808317
aI-8296987064473726422
aI8900417703922981888
aI-3009802964119225376
aI3118459600762300744
aI-8074183224459032213
aI4017426753749598986
aI-5608725704786434045
aI6392255650219785014
aI8900417703922981888
aI-3009802964119225376
aI3118459600762300744
aI-732931983551620650
aI-6305995732156296779
aI8827486956913628134
aI8623818584567845927
aI-5050579547315737793
aI8892086467991885906
aI2757694554443606933
aI6834622815070675319
aI-2488766295364573352
aI-7361365040480257215
aI3567716522774332910
aI-8303360284878817351
aI-6511611944070014112
aI4609307441539976190
aI2531858876265660857
aI-1163690275267683884
aI-694824638962150936
aI-5936171901120766407
aI-1791176550927959162
aI-4484851574687342658
aI3507958052977841935
aI-7666056922830827129
aI3236268474533574928
aI4427142099176490843
aI5158771809305682035
aI3507958052977841935
aI-7666056922830827129
aI3236268474533574928
aI4427142099176490843
aI2421388784279942092
aI1726425506347897330
aI-6288672175280157648
aI8736583384625305177
aI-8796902405760068601
aI1802785113319382772
aI-1310024094585151254
aI3138663213469092000
aI-799495666388425689
aI-1414867373405920156
aI-1094871666986590767
aI-5029205056296365971
aI5251989072797760523
aI3138663213469092000
aI4282951515262891985
aI-1414867373405920156
aI-1094871666986590767
aI4015441153997046438
aI-6646850933007550841
aI-201190001296632206
aI4352156543752361566
aI-4610160870676887575
aI-4610160870676887575
aI-2918847714002792595
aI-5563750894130956551
aI-4811729383456456153
aI-412996034787536441
aI7932302228973432308
aI-3676917488420467721
aI6530431204919299588
aI2291728218469101717
aI-1998901137077111157
aI96396988354263856
aI96396988354263856
aI7114897863142301460
aI-5563750894130956551
aI-4811729383456456153
aI-412996034787536441
aI-4912780774958332715
aI-7019899995411764912
aI6026113560156634737
aI-5199645103347206714
aI3490267348528398495
aI-1734025850293689206
aI-72542563496211661
aI-2045968996244854085
aI-1751766910072337211
aI2073022617068914183
aI-6035381147560991055
aI7926369361997203779
aI-656281002314735332
aI-59178467534450054
aI7806984785935271557
aI6400594115265294444
aI8273097501561455459
aI-7286208125102725883
aI2964791580418044171
aI5103828101160151232
aI-8953771639724162200
aI-3798379907358610307
aI5932542050481345702
aI7823122764928060410
aI7057982608260967455
aI-3577369181141033737
aI-5983513402635827409
aI-5978447904446085018
aI7057982608260967455
aI-3577369181141033737
aI4790155517786196964
aI4510365538479576204
aI4191323238858060210
aI-3190268900581220305
aI5194755196851025886
aI4677900038490255430
aI-3385972050923098815
aI-4907746953618473087
aI-8206500450587074889
aI-3478021605824856543
aI7596625999875213408
aI-6989376415769803093
aI-3203872135671274432
aI4378850118649195664
aI-1789780940744481275
aI2294705429099146447
aI-9148321847739112326
aI6003092002387749005
aI6003092002387749005
aI-2945969630309897188
aI-6129841465192507458
aI-6867768878732096508
aI2758459552468760488
aI161402080294918998
aI656890313482900684
aI656890313482900684
aI-6695518758829822359
aI-519206539486513997
aI6133459938733634317
aI4714567951836824335
aI-80532771656202023
aI7778694180416618428
aI-2119725395638913308
aI51202320688619898
aI-976201449374764007
aI2141776994342585246
aI-1712788493994598702
aI-976201449374764007
aI-7924985552286349099
aI-1712788493994598702
aI4824785313732801911
aI5846156762649479198
aI5256991969026811394
aI-9103312870488287897
aI-1540071414453343865
aI3442873740818390525
aI1735953794736999842
aI2707880430677479137
aI6704818561354722475
aI5083499930229333314
aI-5873635009169258207
aI-4368907000744473324
aI-4036584681968743092
aI7607270042792667201
aI-1108864026884154584
aI1980444297890876039
aI-2050870163817990946
aI-4658504123274588627
aI-8489065312351562211
aI-7566662892803430490
aI4141975344995329958
aI7401340914209173036
aI-2066351264457064383
aI-1030324703622286247
aI6295880287704252581
aI-289397031461890863
aI-5513350810624420375
aI-2719501671076912495
aI-4640630232443776438
aI753672574192845301
aI-8343335674525160554
aI2344611412733299541
aI-45856339906493361
aI4129145121503490191
aI-4784956808496457122
aI-3999466569305820260
aI7446992778004870389
aI-2193829217666668018
aI-7542648897890970146
aI3662967819689500604
aI-3934438332728781880
aI5238678339204222528
aI-1106031069184634370
aI6144091487348756796
aI-4583740917135984448
aI1413099854370513716
aI-6674878696335064383
aI-9171803736052267204
aI-5009411475991651236
aI-7421931888051125621
aI5884637909596452640
aI3228886576976678378
aI-8796233002442640082
aI8376720045579690890
aI3228886576976678378
aI-8796233002442640082
aI8804730063688095351
aI6320845208843060711
aI7428216067383653938
aI-5144515858939725491
aI197432578827520520
aI-2442047895361591865
aI-2839870211023917798
aI7952233499469657255
aI-6046802824605850
aI-7330977972812174141
aI2236400048175443712
aI6436123605421079555
aI-1821529791748513773
aI-7986382413084467484
aI-2713729171116874866
aI-3273590899036673005
aI2527263150250134307
aI-7196774062299217182
aI-5433221153757844632
aI-2892798820282112767
aI4533027837583975630
aI9127661473916028211
aI4151692860523628535
aI-3095792425958873763
aI481926774241773101
aI-3273590899036673005
aI2527263150250134307
aI-7196774062299217182
aI-5433221153757844632
aI6871971154228127538
aI5033877426993848351
aI4516402605128641885
aI756476335984578960
aI6764181207033047306
aI999264214063324724
aI-8768857114459558139
aI8022349291449171915
aI-8263070606804108923
aI-4320871415400979228
aI-7509368735303940205
aI-3439392837155779003
aI7258728359567581362
aI-2245749412943113734
aI2994496428316165225
aI-2766595806466100294
aI5265202055830098734
aI-7126425307036191511
aI3875085588587898988
aI-3539261465361614748
aI7506592070294731257
aI6689993642880838531
aI-4523227894375234425
aI6957484115222130391
aI6992256384499395392
aI-3656713289782761878
aI1773383113859996035
aI4362715724253719949
aI4402425702785037604
aI-7115986424354282198
aI9132278557003486601
aI-752497405009312281
aI4895112350356885368
aI8218940362539584440
aI4489136075974306557
aI934868850049793525
aI7377983362499572365
aI5612460796877358579
aI-4245590727379862784
aI7626286437710616182
aI53940051543819672
aI-6691493214926360670
aI-3697045406137811005
aI-932718779177516732
aI5600802676770424180
aI7095847220733289605
aI-746840018776371235
aI-1260158142473077589
aI7851931303227107491
aI5921979611068593504
aI905535302066910688
aI53940051543819672
aI-6694248226896892566
aI-3697045406137811005
aI-932718779177516732
aI5600802676770424180
aI7095847220733289605
aI-746840018776371235
aI-1260158142473077589
aI7851931303227107491
aI5921979611068593504
aI-3471516095753960203
aI1118656193045308810
aI-1852345480699973154
aI8446204250794449737
aI-5483890058347216353
aI6818150453728276499
aI-3353691956606052541
aI-8969992492150682976
aI7643247426904693064
aI-450483082062162095
aI-8097938565342929577
aI5950154822069901617
aI3579206600472588011
aI7850530369353099525
aI4621221967487952719
aI1184523884011792631
aI-2592805218555258316
aI-8427453201140613237
aI-3496318749405040466
aI-7285036779717666132
aI-4725648085350312954
aI-4389192307481799741
aI-4101183237253428747
aI1763297518992267362
aI-3758674869249436480
aI-8061934760021879716
aI1089757757509860571
aI8014863831438319465
aI1589536287957139168
aI5472596515509777838
aI-2811188359086055959
aI3456146765168787144
aI-5171969420961888863
aI-5864117070284622938
aI4303233277400084098
aI-144418717438061509
aI5939494091169413034
aI-2735329007104751212
aI-5454601240768822613
aI-287407399414156291
aI-2060204625889085242
aI7420170206892824753
aI110072991207886981
aI6046021487985147834
aI6538320964981761154
aI3343968637338965259
aI-5985779013284827720
aI722601583982251314
aI-9118865395604940812
aI-6674603960672848376
aI-516241176737463301
aI-8816766752561747097
aI-6474212562956851566
aI-7585841785825976841
aI7394834816615390486
aI-4826980133647700665
aI-516241176737463301
aI-8816766752561747097
aI-6474212562956851566
aI-7585841785825976841
aI7394834816615390486
aI-39744288278307741
aI-3345227776175862817
aI42931778997550764
aI2568591762247022314
aI1620908387245791917
aI-8139370169678893997
aI7360906727574957777
aI6951409909664423482
aI-1910428546355616362
aI-4126616761910973995
aI122565705917781922
aI115131764756004392
aI8683799404173679825
aI-8827859151281999573
aI5716128535793710543
aI8562837727026718206
aI8145627647312673554
aI-2439319056303019817
aI-4783786690220889057
aI-4870655774897650956
aI-6229256512189190047
aI325743552636812779
aI-9182425110157089562
aI-380365864223524180
aI-8294373232553221246
aI-6849540365195816421
aI-1455450569630793903
aI8082105577177368110
aI8823804605420903697
aI3225157524758442341
aI-6722517176920625190
aI9187794227067804262
aI-5870267599497548276
aI-1435879739731000389
aI-4203997010811207513
aI-3355597930896054836
aI-1842660412778631110
aI551984964644726824
aI-6080752445937061017
aI1823448266647182048
aI-4965682519994872361
aI3796994210660205274
aI-6230280986180018339
aI-4835499160007164716
aI937767889808416751
aI-4895096078148323993
aI6125355569464147873
aI-966818871035983302
aI2549747815721836451
aI5704858968438000704
aI-569606421234752648
aI3078761053142859766
aI-5929912213521194760
aI7130325664923715617
aI366823764205474605
aI-4203898036069111179
aI-1543957990797376529
aI-2899637178776572717
aI-6060824618231688320
aI9128266316222207138
aI-1916775209650572109
aI-5176206223185198710
aI1751394285812098185
aI4393435713143855022
aI8939590623832327536
aI2678713915537948988
aI8089991543062206234
aI-3422683559832801820
aI5824236676785676763
aI-7770924526611110466
aI7744174065482461435
aI-3266510397310095399
aI4662946820566768194
aI8143737492523912427
aI-8396463621499411102
aI9045410653881381724
aI9050024420958320408
aI-5071281811953150790
aI-5184289286425679703
aI-6679091888172913880
aI2093878361661058229
aI-3002905524622342533
aI-8062911890940363199
aI2862684396113462575
aI-8416773644239551682
aI2291482411734124902
aI-3278094899283879779
aI2093001265737406935
aI-7131199346438698078
aI2710147012831642841
aI5460036874880971499
aI5460036874880971499
aI4669406060689855968
aI-8214817991654535015
aI-550249982548468681
aI1744439471579546948
aI4669406060689855968
aI5733136888390166600
aI-6912333626898413962
aI292633015723792980
aI1665371997711513068
aI-3258794828982861037
aI-5730023802502697068
aI5448763189377876299
aI-6555119215545769533
aI4014602840458913995
aI4014602840458913995
aI4014602840458913995
aI-4194535628649958743
aI-2579805527678537140
aI6200636120586865953
aI-6332374286171107481
aI300427659212826055
aI300427659212826055
aI300427659212826055
aI-7018398584426706839
aI-6222714360886787799
aI2309735523156969132
aI5263996419038672476
aI1330271926321119865
aI-3047895560534768704
aI5530942775520118268
aI5530942775520118268
aI2016563122238489237
aI5336328927873256620
aI3536311918955562407
aI5013918693294558672
aI4490551965240894009
aI-441005001631828513
aI365516579604043996
aI8701690747426587255
aI201627319701670802
aI4490551965240894009
aI335957964575102057
aI4149300838962024958
aI4149300838962024958
aI-1855428399641871370
aI8022263889748150159
aI1594193378851540965
aI5264454352948894956
aI-7243356384574439232
aI1785879388757667043
aI-3536532783204884620
aI-3815775329330758101
aI-9180641819300820618
aI-8994030920228369278
aI2312066639042410871
aI-3815775329330758101
aI4729118549249556975
aI1815949559085953272
aI-1489252263601035074
aI-7849550414606516124
aI-7104509112363328595
aI4706102724096012577
aI-5230347791553264359
aI-4302882120697508516
aI-4634001472472992118
aI-3154957513079647166
aI134099301369858037
aI-1271545497259662392
aI-3154957513079647166
aI-350732951203231252
aI-5925280333987398887
aI-7950872045372845915
aI7107219813690316509
aI6865135857713733710
aI-6372426403229565113
aI-7368093252955914352
aI-5386696201653760586
aI6245038248298053208
aI-2890658352138717041
aI-6372426403229565113
aI-6668002285992136720
aI-6813900694330329809
aI-4655789910682069215
aI702768849828783154
aI1543315044631435766
aI2483798390612674476
aI-1824761288319237843
aI-117384087849994045
aI2032795324887634945
aI-6890814596004388370
aI4740259750289888531
aI-2613596889078885483
aI-7415297862872159959
aI-2412398901670657553
aI-6683780211946076392
aI7524002298460967066
aI-2254054176955980004
aI-1472409350447337866
aI1130058386291055794
aI-3090688808708921141
aI-6287555831851351369
aI-9075851311338808452
aI-754545330303313934
aI-3610884528442989998
aI1922253919445782559
aI7063865214941345832
aI-8996581294281458576
aI-2975209025411318491
aI-9155328618802396985
aI8370736737190400455
aI-4742591989509968209
aI785139328477461822
aI-496644735822733458
aI-2758837214371056234
aI8642164909268704072
aI3355184019559448941
aI3696756353550410001
aI6661766865042027144
aI466383439774707016
aI-7309586234813333033
aI-2676898260667573090
aI1258273114202043334
aI15521193110115478
aI8898803111317464373
aI-263390933761254240
aI1023892894077139090
aI-3998343527787262812
aI5297518683933883554
aI-5112019837072638777
aI-6339359441502317770
aI-1776517929352652191
aI1198990012573372997
aI-1444952868992532996
aI3001398996818047956
aI-2399744112625321096
aI7573139431015665815
aI1201380209137983092
aI-4745074342917358345
aI-1148181357202949275
aI-3522595333029907149
aI-642065916965886171
aI-12984627472076954
aI5501166571600097478
aI-2447111627770711514
aI2977936690296409240
aI7148237251553009650
aI-5315457065084145815
aI4821906682665047511
aI756385688183587460
aI161818036319943697
aI-1331389700844800054
aI486571631074732059
aI-3685820003707653563
aI-519258583421711594
aI877120607796741333
aI-3529201973346260900
aI-5699184266928438247
aI635442406228226893
aI1059845061181164907
aI7598447637076904527
aI5555442854851374849
aI3967390786906890459
aI4671379170783434754
aI-1353632852674755116
aI7584514888039448411
aI-8028049990879857057
aI7929665248664878253
aI-4652609751648453902
aI5584652979199508879
aI4779212580836644103
aI7584514888039448411
aI2491418654267880317
aI7929665248664878253
aI-4652609751648453902
aI-3502104260822932169
aI520826807434518497
aI-3664226107897787747
aI2387917110034540667
aI9211339979662329562
aI-6195046023751209205
aI-3713444348915291
aI3165115634162455035
aI-6485363994668249795
aI-6937051352960059356
aI-4769872108442771949
aI7027413320111425530
aI4383191737873994152
aI4822764015632981762
aI8852595360756433395
aI-8170706930985337916
aI1439927007424241145
aI2259687080062129273
aI7239125867705034677
aI-4512991350564392834
aI-2149834640458363557
aI9038192372535987660
aI267912628272553812
aI-6552434414757365861
aI8578617798569540068
aI7252319857938855137
aI176929047759751399
aI4650744845929236057
aI-898269327924978291
aI-6328976815736562459
aI6594392102057626850
aI-6293193730112846035
aI-6293193730112846035
aI677332856425604143
aI8064388953198482419
aI-4360774278337740879
aI4671473114313770872
aI-7540531039804855912
aI-2787802609383196785
aI-2258420595890016708
aI6435864613065084453
aI6435864613065084453
aI6435864613065084453
aI6435864613065084453
aI6435864613065084453
aI8379789932328448695
aI-443995184726696510
aI-3907316490538142451
aI-4577506677678993438
aI7929496802132802627
aI-8664836228002596269
aI2418540493288036716
aI5130206089310077556
aI9118272743332019975
aI-7395557915036765261
aI-7395557915036765261
aI-7395557915036765261
aI-5830098426096526224
aI-1734619414791444677
aI6856727432585998086
aI3716176518484814090
aI8308666052691205443
aI3668134913138337234
aI3716176518484814090
aI-3934977860939317558
aI-2965751233176864072
aI3716176518484814090
aI8308666052691205443
aI3668134913138337234
aI-6258815075153153207
aI-263140647748723950
aI5157625820144295360
aI-1220333910819131936
aI6873116299167443043
aI8559896069570837285
aI3445581673228890927
aI-3919403043459886494
aI-7980796551174736924
aI8318769165724267545
aI-5632994890983605326
aI-8213518665738388224
aI-7203756227615617513
aI-7032044675986721711
aI7027745255720963936
aI4537271876981108404
aI3947387906678984159
aI-7026463733904574721
aI2429783737208347776
aI6965652681503442606
aI7693794133067829454
aI-5690147904592026189
aI-8773396173892195797
aI-1754296479832652738
aI-6119328108902289549
aI-6860527803087253677
aI5311183013514692616
aI-5812257593372730637
aI7627116697386645129
aI3915327211042270662
aI-812531952400655159
aI5394753679132373967
aI-6694712794420605417
aI-1386737823655008370
aI-1386737823655008370
aI5090233800250491233
aI6117239341140105355
aI2648246810451839484
aI-2664175473997412179
aI-4098502727077618289
aI6752955978409836343
aI9010703221747923617
aI-6928374273223322279
aI-6880458531641957590
aI-4258823056573695000
aI6876779458172183152
aI2816742032477589154
aI-7144680605381092657
aI-5481516612027930379
aI6876779458172183152
aI2816742032477589154
aI-7144680605381092657
aI-5481516612027930379
aI-5412129459232404210
aI6800108887883070448
aI-3466900998949721841
aI7858014766425421337
aI6876779458172183152
aI2816742032477589154
aI-7144680605381092657
aI-5481516612027930379
aI-6241547319490076606
aI-5072678372324253817
aI2611414124359923699
aI1102558909670371851
aI-6241547319490076606
aI-5072678372324253817
aI2611414124359923699
aI1102558909670371851
aI-1045092739565367763
aI5666446304313386942
aI-1107752780776662168
aI-5402471311074523631
aI-7133713689579749967
aI-2969033748583544761
aI-8363539170534699294
aI448388984950875678
aI3961292555694141861
aI1439815035901676951
aI5000461595106254482
aI8536406715475308067
aI-4013458879657995247
aI1824153208221486859
aI6654284230753516402
aI-3708419079389015618
aI1139545743158428199
aI2344493527897561310
aI7976170395093006982
aI-825974947566161370
aI-207792600859687271
aI643849021132969883
aI-3049507072191999171
aI3486457190317561337
aI2820223643703008764
aI-7358377673744346897
aI-1530705942194098892
aI-7227398637709805536
aI4107827417779529097
aI6511377184361671468
aI3022415448222304490
aI2741434660466336423
aI-5726640369687612573
aI-1190935157126003376
aI-8185191452928243774
aI-4466121557776976022
aI6744868096553775081
aI6739050531188372956
aI5796662442304898478
aI7236922440398200754
aI6177195336162817395
aI7614301591211586219
aI1550380296540710570
aI3993241428014093995
aI-8847651482760626985
aI-8866955702004940637
aI-8026215990595275743
aI-5933520378358132759
aI-5770840206250262986
aI1637545977758232367
aI-4540314843082333920
aI-4075538249507811827
aI-5998112325427767214
aI-785414908133586042
aI5402999271882960558
aI2920836916676793352
aI2098686000635425317
aI6978727746284948344
aI-2619410001072748386
aI2098686000635425317
aI6978727746284948344
aI-2619410001072748386
aI867002721045798103
aI-7653402315858464663
aI1034199696722699015
aI-77809417868355799
aI-261266691895808
aI7967255244101656183
aI-3963713466600536924
aI5355118101858157811
aI-1444139312166446033
aI2306647281320517437
aI-7264674768237509743
aI-6669969241154910059
aI8526921119567067845
aI6676903841083666280
aI-7914076521639037046
aI-6648153543442670378
aI3294405510135800895
aI4527074596837670247
aI-6377185671413304203
aI961307932422718457
aI-8031522865876331169
aI6439403839807852565
aI9146931370296242448
aI4610420681591269962
aI-7274283289241420361
aI8702447378786943770
aI-3912328948796485751
aI-4664016039165770771
aI-7639642082362398185
aI-4664016039165770771
aI1904738116420363593
aI-1267811512116169960
aI3521325171379836620
aI7700718979384363278
aI-6189685771411206228
aI5608531179768406246
aI-4943745741987740930
aI5278078220024482266
aI2061383001230018365
aI-4185129444496480577
aI5716667038531282803
aI-1792326351359951106
aI-2581386984811850144
aI7528954205944592255
aI-251950303646989502
aI-7850700281552314060
aI1927349722640524718
aI-5965560603617179654
aI2468608565910665257
aI-6898532298298298733
aI-775463146963266747
aI4672487516743065636
aI5926150937109860560
aI-3723185531170542012
aI1696106623019683826
aI3197125626653132847
aI-3419000366665622569
aI-1894242197122437137
aI-3957191035477975883
aI-753080054472694313
aI-6229954481972765508
aI7527067813291133277
aI-8932442406636310996
aI-7913338731839906641
aI-8962009509973716549
aI-4506726783948483151
aI-8398931517994470470
aI-6073235694002261953
aI-7503682739696905318
aI8355430835150141052
aI3084450142788238026
aI-1983820270214888013
aI-911921103201616307
aI-1642826022372254431
aI-4695623133503129525
aI4989583471491648788
aI8347781652706614760
aI-5774592388644566798
aI1855048687877351282
aI4947489532379692703
aI-7616860733803716609
aI109842698310211505
aI4653526026586798005
aI-4922056033795875859
aI-3632727318324678650
aI-2990674714684486375
aI4094817180160233702
aI7799470890786838016
aI-7222017797481602573
aI8290177995389763937
aI1325472721906855555
aI-7249051552527600931
aI4119215018255236541
aI-5847683973215363255
aI-6367216851833171360
aI-1763327022637472775
aI-4004844304572349075
aI8366710674585544088
aI-671050894498989510
aI2458847776975026093
aI721497941392061064
aI-1662263359412036723
aI-164781168616671224
aI6485408041925964384
aI4573665499244917725
aI-8072765720138845797
aI-7510901140728225141
aI8035341971077367867
aI6668088568200246568
aI5275419141307133312
aI267302799688765907
aI6966328957712107965
aI2451447556275476112
aI-6496067804507307441
aI7746391627753750895
aI369396195006630718
aI-5427337114289556664
aI3997747675225638506
aI-7335871425872669899
aI-6737817711851325588
aI197612349907092300
aI-442693437820631077
aI-3230076163856627311
aI-7079598236902946404
aI8699176156318048906
aI-5302134166814383196
aI2462873853603165120
aI5572534044017008071
aI-3566664777856500265
aI8283764897666452463
aI-3278759651861104350
aI-2843741704123768976
aI5211721408456624208
aI5795873473913240146
aI-7129797660499586578
aI725528875936125773
aI-3599370914522116843
aI8619254873394794533
aI4121708998557243696
aI8093862976030769818
aI-8321659504958988629
aI6971207484677709463
aI1595920054996758198
aI-8376091098889786962
aI292984277873743129
aI6461270153265786468
aI8817412723012612389
aI9176448124908928663
aI-5602743277300200982
aI7472336642009606528
aI-6429590724433309287
aI3914129389464155779
aI2739590353224264820
aI2918989159198048963
aI-4932210821460805801
aI7044255090080994226
aI-4318572526066071896
aI-7110108100123572103
aI-2134666908022939010
aI-703064544447744165
aI-4318572526066071896
aI-7110108100123572103
aI-2134666908022939010
aI1475437032457649353
aI7265929670317452538
aI6388070250381259697
aI2496146120317271748
aI751116697041580155
aI-7473779356775077148
aI-9071888243221266627
aI9180860736978147650
aI6766687723568083056
aI1488649022894668580
aI5598079804893453062
aI-7890790418258797938
aI-4207706509698026499
aI2138380042300013810
aI-4357253539600548063
aI-1825888258698079096
aI3840016693104832398
aI-3325899757327485931
aI-4577416082730475075
aI-3774883006751443512
aI-573918407040083739
aI-8830623477979920481
aI6219533948720452933
aI653571296349470531
aI-370092612175469578
aI-3729896343152425135
aI7798379065263913118
aI7482650059845773929
aI-9146117568840101143
aI5664380904897501505
aI-4521605956000654929
aI-4932254555584616708
aI-5434681959271700014
aI-2853377437255827062
aI8875425814525793351
aI-6998017545588792120
aI289503813606582856
aI-173757510338583116
aI-907697131306688137
aI1032776708808832350
aI-5714431849677412045
aI-8267629664192074653
aI3049191567411169374
aI-8155702444997013632
aI7496494443892133764
aI9173985432832938216
aI6500901615849550850
aI-8894940164820993232
aI-2967000431767230044
aI2884322872912037176
aI6172077252890934000
aI-4892177915911468078
aI-7561590159356678364
aI-5042526107586518245
aI5887280025517412167
aI845319753748925335
aI-6982271506581360925
aI-2367051679309056061
aI2739018233632118829
aI-1384657809613020378
aI292450912276713794
aI-4036313116567654749
aI-870901320301004196
aI-870901320301004196
aI-7527659619248850763
aI-6529826058415783786
aI-870901320301004196
aI4689478653210269125
aI483525276617271649
aI-5066459235146249624
aI-2418635535139032848
aI3834517618093309545
aI7387906628125784745
aI-6746536332537433840
aI7966120686384510875
aI-518710161550891046
aI-2779661106680801738
aI2454524388284181598
aI4987960779508520953
aI6100318870668934139
aI2009235859209578797
aI-7130133853552438882
aI5319458782700426770
aI-6563495302391912223
aI7689589885616200058
aI5946669514246244798
aI-1036769216208293122
aI-7923333400706493617
aI1806550435772484939
aI5867879442225925308
aI-4008758168194619237
aI8299984615711487920
aI-595250368804380261
aI-8521844557644990538
aI495007973259811190
aI-24981703842919985
aI979732807991256382
aI-4381479244014538570
aI-727439008626649003
aI8221134875620136473
aI-4381479244014538570
aI108637135653097741
aI-2241990497240258048
aI-7566354349846033347
aI7678894169115586623
aI-2964928818109240920
aI-3883279492411076788
aI3366269210631014371
aI-6774415497584513912
aI-6774415497584513912
aI-6461263994130218587
aI-1481038506741044490
aI1985999257050615416
aI5311068913634979921
aI-8587625801743293705
aI-2301330465912834292
aI1985999257050615416
aI-4135535142668886993
aI-8775664393077710443
aI2918261808690716108
aI7947597522289331634
aI5395547144558332429
aI-7707033827968742613
aI6608668566829951294
aI5178469311985160495
aI-8790903640730747528
aI-7647071393418597333
aI4417292859311406006
aI5461988978456454580
aI-921880326272591392
aI3060919999518835449
aI2651190588100599312
aI-5003552896231545200
aI6507415420007441450
aI363883856524771628
aI5880523686374179540
aI6507415420007441450
aI363883856524771628
aI5880523686374179540
aI5407858904569611447
aI-4195765326074793255
aI522106109846682935
aI418841473287065859
aI3069118550171015735
aI9164935171199594323
aI-3823017165278035122
aI-5166403565944182780
aI7004143432782439580
aI7427884831246076411
aI-7615014321767468512
aI-1957119365251651862
aI8945618126097823070
aI-1957119365251651862
aI8945618126097823070
aI8488040678623000512
aI346343856010306708
aI-978533220958204998
aI-4366643183410429891
aI293921094388183193
aI-8080207634554483464
aI7773568868588605871
aI784211552959418824
aI-7497021956948444843
aI2643877312785471640
aI-1043093386440414665
aI2783169580231541939
aI7773568868588605871
aI-3428597421768942829
aI5730178947698964954
aI-6165705649383877628
aI2515424295416138213
aI6353833657978144134
aI4832513284125645262
aI3268910832520267528
aI6473460861748327946
aI986881529057181299
aI3242668517733046046
aI8137337155434349636
aI4589920912850073467
aI-8246945271860984382
aI8550345463886189977
aI7064746035615103336
aI-7931096829617508459
aI4634896473389807672
aI-421737078115163628
aI7064746035615103336
aI-6075124973340594558
aI7881646781992357982
aI-569125428470504747
aI8827211746868404882
aI7881646781992357982
aI-569125428470504747
aI8827211746868404882
aI-2322585251085038507
aI3821748395309109758
aI-1247728181610359728
aI2391321778323510473
aI75705575695871630
aI5910764162517917869
aI-8783566606258834068
aI305330138457629750
aI-325741206873163893
aI7716661384947908583
aI1567267245262521066
aI-6569950974875700003
aI-818400210053702642
aI6302049514721740671
aI-5684983414306033238
aI5121117398055308061
aI-5133689116329350672
aI-6116233907202893268
aI5121117398055308061
aI5289385993893644349
aI4514014502019041100
aI-5901807607167975828
aI849296204211713993
aI-5901807607167975828
aI-6816069521453472855
aI5121117398055308061
aI1685195424717195085
aI-8873902264503742937
aI-5901807607167975828
aI849296204211713993
aI-5901807607167975828
aI-8425517066477221870
aI8831447631956386918
aI5545662829659286971
aI-5901807607167975828
aI-6816069521453472855
aI-3574531774961235409
aI-3113630012041631834
aI-3574531774961235409
aI-3525379625681303643
aI-8962651297700901498
aI-5560228435422333137
aI-4024870513485159672
aI5671696243188011942
aI-8373542778123157081
aI-5718024671532435669
aI6956575450881334007
aI6259567128790623358
aI7551292788308168401
aI2381071259361536748
aI-5250300140675594852
aI7551292788308168401
aI7708730713755372088
aI-7927743784825187934
aI-2907135841461845508
aI8162902347708984073
aI3186042795867670141
aI-3272913494770753630
aI-6907938606551254057
aI-6816919050836446517
aI-3272913494770753630
aI-2508603066119558826
aI-2201640622135813662
aI-8257215913562141536
aI-4794126829452056091
aI2742840906833752029
aI-3071988488120725316
aI-3071988488120725316
aI-8123210426915757980
aI-3995562321857097192
aI-8123210426915757980
aI-5854131652031803324
aI-2019799286836066600
aI-3718919524000853035
aI3912644198326769000
aI-3180280364135157271
aI5081669963849743407
aI4657828432912364009
aI-5799296275147184499
aI6913484576255532879
aI4305416824099306391
aI-8591803801465786649
aI1423931162636409502
aI4305416824099306391
aI7047276115266604722
aI-8438182402775675939
aI-6145781448392464443
aI-4071998106548572194
aI-7345550152856070613
aI218603003893346957
aI207224207223427705
aI-372051601857274699
aI-6243274340472314669
aI-4755606530719091529
aI5714990093852960119
aI-2495721278324084768
aI-38964275957919428
aI5714990093852960119
aI5722697543223333397
aI-38964275957919428
aI1499526635298419072
aI-6890793327612627808
aI-6787347946909063563
aI1265759813028281530
aI-7033887913376315988
aI7419678192726286087
aI-494675438269337345
aI2934716819084191916
aI-3647689104293750302
aI-391704932507043019
aI-5342568590422195870
aI5722815365834900285
aI-1556846032804151850
aI4876933494049472971
aI-1354995449158016725
aI-1556846032804151850
aI-2307708512948907299
aI3289594093730296082
aI-2473612400500735282
aI2830387903657544755
aI1626100831959193734
aI8297177362814597781
aI8297177362814597781
aI-634483587148642826
aI-3556909357620386918
aI499715082442081313
aI4220746128736344201
aI-1059141494158075022
aI4463151437916952250
aI4797355998997833729
aI-1059141494158075022
aI6155516688800184122
aI-4245656335561269879
aI2999163765456497408
aI-3417778542894463293
aI-1858101574283813681
aI-2157271883182936286
aI6378018544967531386
aI2488085740114460352
aI3403143522418033870
aI3795407440034837441
aI7004232934574107510
aI3795407440034837441
aI7004232934574107510
aI-1721315134888735083
aI-8412435911599693040
aI-8442377698556202202
aI-5104564256796006460
aI-7382656027960198187
aI4729857675409371085
aI-1972031735432582619
aI5225189057687385369
aI-912806226005054980
aI3711595158635510747
aI-7434726363814261347
aI8351784777046593175
aI-6484101699442113618
aI2106529280655271828
aI-8272293338612385261
aI1149274018513977698
aI1059950888448265163
aI150280257329471598
aI269456716966973473
aI1059950888448265163
aI887072207385887477
aI1364081362444735188
aI7277609661029761143
aI8391080190845876876
aI-4973037814966578913
aI-4640423434404388433
aI2322559409936348096
aI-4640423434404388433
aI3157193989524119848
aI-8515830611275827576
aI4417131622487460805
aI-2287785231132824190
aI-3421339729139367828
aI6715700448755965893
aI4853277675599252292
aI-8802779037296695183
aI-2800288047479917254
aI-1221544583324845147
aI-1248257857486241064
aI-4297246455207439257
aI972077633610617706
aI5044830200767000677
aI4496240710034482028
aI-2868274144029165910
aI-7456105316314160454
aI8217563317162534306
aI8800063912894616884
aI1806454133631520963
aI3191496669651804935
aI-2456602193910188970
aI-2456602193910188970
aI2975950492501321648
aI6570845366553001624
aI-501719200085308534
aI-8574742200086017678
aI5537739126791903191
aI-501719200085308534
aI-319472909617061722
aI-5910300396641985175
aI2949123904183936866
aI4688818061310600596
aI6754886920027167883
aI2286134869172678084
aI2008186289942068831
aI7966635893574636027
aI9125272024908465322
aI8646730185578715227
aI6243344273140073806
aI5045124239370357168
aI5631353476221311900
aI2844000902164000576
aI-390206216501324553
aI6075737508522214986
aI-2052200258241587336
aI9045770607401497689
aI-7551872422379861605
aI-8668941622015052452
aI5846896952865942089
aI5846896952865942089
aI-2608111313987772175
aI-3963222524999497658
aI4927132140021121680
aI-3658889940531498094
aI6311025095773839187
aI-2692104933366593170
aI7838621548838201963
aI6311025095773839187
aI-2692104933366593170
aI7838621548838201963
aI-2224900249832075464
aI-340961852621496269
aI8376428574348270328
aI5211372330855779883
aI6908037204044674908
aI-8032441359179339613
aI-2635463179793162829
aI-4090287444588780263
aI4892358363990101851
aI-4090287444588780263
aI6205878295082236001
aI5995879010605709949
aI6205878295082236001
aI5211372330855779883
aI-8703978553243330716
aI-8032441359179339613
aI-2635463179793162829
aI5805963389216583025
aI-8456152403134838142
aI5805963389216583025
aI6418785550828922306
aI-451593154748627270
aI-8830823743500913808
aI3334639126482929581
aI-2179542494731855389
aI-6480915968417517636
aI-4657238380430865986
aI8073505164750278120
aI8378762730205037662
aI2136268114837869368
aI-4779185193744974709
aI8333328901197542280
aI8378762730205037662
aI2136268114837869368
aI-8329747697553924757
aI-5159489860734151624
aI8378762730205037662
aI2136268114837869368
aI-1866751572935650517
aI-6781652650684365279
aI8378762730205037662
aI2136268114837869368
aI3028190761258464746
aI2596122193797191830
aI-1977546276492214084
aI6585247821116333456
aI7446427184801061108
aI-7854636580389098293
aI-3052672793729709537
aI5858103289110098172
aI-5143369482188259624
aI1690024119952976536
aI2889861154251284298
aI8266843715977098835
aI2862322670424936252
aI2889861154251284298
aI-7867909017317810152
aI2246182928093634148
aI2889861154251284298
aI4352141869275036198
aI-8355503768159921265
aI2889861154251284298
aI5429643521556508471
aI-6530473817123377807
aI1254313849320184670
aI-6787005859314227658
aI-4421857452372519311
aI-3888541098994063278
aI2162261455251934092
aI-1112897611328542154
aI-3764888694063630022
aI-81900437941051183
aI-6995145611143063175
aI8036638571646153744
aI-6680453502610503924
aI6563510291737125826
aI7866281213359584844
aI-3570178227363711368
aI-1477253592372682455
aI3244030523176221267
aI3074522200999669277
aI-5926196775050744835
aI-1845949471708203535
aI7327328356722159758
aI7762215934307187171
aI3537408037495119630
aI6390623099771522955
aI3124790843233646507
aI-5400875274000230744
aI-3248649444143669810
aI-2557239842323096938
aI-4571484066421410215
aI-2638413436661046803
aI-6530435304875776471
aI2780602008995653081
aI3623219600669336335
aI-4393188111770648894
aI7500847669995181995
aI3636068003845811340
aI3317185590970387583
aI-586359257032627020
aI-4321863369136699223
aI6764819107882798139
aI-3519660294128730460
aI7883249458437342650
aI5787643956304546135
aI1838103201223949502
aI8289789008787193654
aI-4384195464561025382
aI8289789008787193654
aI8729435365882001792
aI5250416003924881252
aI5939163325426307731
aI7872761922638097471
aI6768819602559013846
aI-8778343119238693051
aI-9044893834887895006
aI-1604082757364068772
aI-277892726179836634
aI1402557592415558303
aI-277892726179836634
aI9191393431068853041
aI-2186083899821745206
aI3371786964584582581
aI-2186083899821745206
aI-8543361377590867683
aI-1549121826864343219
aI8454670002627056924
aI7611029660034050428
aI5271512117155533844
aI-8384375671835309719
aI8454670002627056924
aI7611029660034050428
aI5271512117155533844
aI-5547269259349394305
aI-8982404927848496766
aI-3989519882690801337
aI-2275416969312169663
aI8261202651381175424
aI-2908727890902236704
aI6762276040480095752
aI-552181322436553331
aI-2516381742754701111
aI8230172785412451728
aI5468015029352246629
aI3623767086796998218
aI-4030484126045086490
aI6004175409990447516
aI-1904688074416420656
aI8156384114611180621
aI7398988172327320820
aI4082196284022006965
aI5459368412323677249
aI-8732947172820773357
aI-1789701900065665605
aI2336574868688806352
aI-2821620190629039623
aI-6280512596156341235
aI4516710500960426863
aI2833289719394728576
aI7358997313646730444
aI-2181903945380103708
aI-5360339016034610607
aI-5360339016034610607
aI-2237385288692541701
aI-8223681017006680920
aI1236451435608212022
aI-8764606026162142369
aI-6671397754172396787
aI6487643822864233525
aI7382360608914339679
aI-5640165644015764986
aI6682841723034157671
aI-3447450830391789659
aI1009749402482801546
aI1009749402482801546
aI-4120793664700019720
aI2009058747589865915
aI-3223007783734059816
aI-2418893086309682324
aI7184523408605997345
aI7470084504353817664
aI-8290736248363284795
aI7470084504353817664
aI-886855827275519467
aI-5360632011557166164
aI-5657634036939260103
aI-5360632011557166164
aI9037934414193228525
aI1419872097250313074
aI20649470419828507
aI-6853596573122747746
aI2285174329631038030
aI-8537308899073087973
aI6215436258192765315
aI-275838814347638270
aI-2186083899821745206
aI-8543361377590867683
aI8902019040728712942
aI6999507652958247904
aI-5866014542074949587
aI2739633289727138232
aI-160820791204787140
aI-5866014542074949587
aI-3199181243682112610
aI-390543502368109310
aI-4084086455618159488
aI-4720888361271674645
aI4660088252752154812
aI-8036788348827262401
aI5757833944299496109
aI3783861132241759937
aI5056192470014160786
aI-3604537245812175027
aI7300293950315160294
aI-6948462975460262507
aI-1092298315023967993
aI-1414846601477193776
aI-5677856580321182789
aI9536486287981374
aI1770485902718955241
aI-7065182083676394024
aI6246068741699681082
aI5629464633704701442
aI1106128697465964647
aI4531793807429951424
aI4531793807429951424
aI-3896956629422296285
aI-3896956629422296285
aI-3358926037350555430
aI-6453669034068141561
aI4474719477853920368
aI-4042649012328889277
aI-8861251897979961168
aI-4042649012328889277
aI8045330873922845128
aI-481730260082518181
aI2563632823135473927
aI7091450546957881499
aI2275989389161673257
aI-8491451538286849416
aI7063448219441114805
aI-8491451538286849416
aI7063448219441114805
aI5422735847586247796
aI3843825438771612196
aI-4281815613634352232
aI-5684189485245250243
aI3253198748162483295
aI7871577290407834466
aI1121754618482341787
aI-8191495631133093223
aI-1058616678522336652
aI-5890005673402259280
aI-6525706182211893077
aI8517467813984877779
aI6216750040108464600
aI9164294203847306407
aI7950150021926930246
aI545714343633608330
aI7865670986301305931
aI-6645095399392675959
aI-2296259774067485854
aI-1838535523729516760
aI5137009152616633897
aI-5994636629169387577
aI6656127031787022872
aI330524286186401081
aI2868512106673247488
aI4225202012242167380
aI-7573260789824362224
aI-17892524171552377
aI-618183442436899345
aI5410132344525368299
aI-1892858097829372088
aI1068169773866288016
aI-7938757939984505777
aI-879377898732872177
aI-1892858097829372088
aI1068169773866288016
aI-7938757939984505777
aI-6404958730750630714
aI-7661020012727232231
aI1877473670499811672
aI7382829567949657428
aI365195280199590676
aI-4490924738820441727
aI-7614327400327390393
aI-8700178874325868069
aI578459077846742247
aI3246599165346485468
aI4390595761023954186
aI-2660542549455024072
aI962748705507090956
aI-3425582214141104219
aI4354884889486046230
aI-1733162478844093448
aI-5606311080880828507
aI-8237068113329337170
aI-710766356995911190
aI9177404110350387839
aI1058313813962157978
aI-4229348395819778882
aI5954964430583250974
aI-710766356995911190
aI9177404110350387839
aI4853668712633576293
aI-8170751528681509749
aI-6097496290126629570
aI382021385663748916
aI2680991764934785974
aI-6184326771314393089
aI382021385663748916
aI2680991764934785974
aI3560044823511562894
aI4131156121270191431
aI1632676461675313194
aI-5723176674716165417
aI-5780886974232499061
aI-2469159768011496180
aI9201739108032823468
aI4074668543008712971
aI-6424590729742848953
aI-2918789896695984594
aI6602834441172471148
aI4074668543008712971
aI-6424590729742848953
aI-2918789896695984594
aI6602834441172471148
aI3089434417767082693
aI-4566866773370099557
aI-4998652052851172091
aI7623795179956010103
aI3089434417767082693
aI-4566866773370099557
aI7990130911844810122
aI7623795179956010103
aI4390478193953527645
aI4390478193953527645
aI2663064339053725508
aI7947866472012176757
aI2352403682486030697
aI2247337111127348881
aI-2056853225876267100
aI4945544558455729062
aI-2298211347471995602
aI-7060934870168067873
aI-7264861707822113922
aI-7049347531503577594
aI4091906176258309353
aI3337714381398144407
aI3149925310106620646
aI2956150600429400409
aI6354681203620581563
aI926362982187396549
aI2157587869856936720
aI3445557084451928948
aI1455635978600005180
aI-151879395692932860
aI-4854779249162010770
aI7342348767165590041
aI4058259144407814683
aI5138057111056812353
aI-4397708160728907545
aI-287915610700895078
aI9091022291472062914
aI3132094374982541544
aI2191038568973041497
aI6861790232027923065
aI-3639081849411229751
aI5884204912871946942
aI-6763941005162268256
aI-9020262427854538564
aI4074668543008712971
aI-5631166415936699332
aI979547487817294185
aI6602834441172471148
aI4681054076574574227
aI5884204912871946942
aI-6763941005162268256
aI-9020262427854538564
aI7428885030940622995
aI-8655279445737495956
aI3083846978084893
aI-4659897382601517320
aI8907224309458124440
aI-3160376977884467943
aI-5250156779833087637
aI1562657764571836330
aI-2786498024317288392
aI-2942946491084326235
aI-1291969768113692139
aI-8852266659462480105
aI558867602273406997
aI2109736058814645916
aI680135934753090231
aI-3537541904032463909
aI4936027353869787936
aI8677606363762582923
aI-6470610609173783148
aI1624435987594489912
aI-1675123593703806599
aI7978596021110338823
aI-5157442201457244664
aI8978609915381094661
aI1483629964289537407
aI1889766608145984943
aI-7119867791859534541
aI-1094434038069224804
aI-2152841639948424451
aI-2152841639948424451
aI-7351787558786672822
aI5306340832060727470
aI-6009347801454395542
aI3853590744375554785
aI-5889217059547620730
aI-233001527074792931
aI8418989563991980096
aI3853590744375554785
aI-8118687659379988409
aI6283485428689413165
aI8418989563991980096
aI4393107555011268439
aI8095121886728262149
aI-701507687402924785
aI3972641953912025018
aI5669798445272120924
aI-3431637124451439789
aI8191478123569716810
aI-7709527000096130125
aI7640727946875401989
aI7665475735888910830
aI-2627781434869958898
aI-3516879767914517914
aI127078573708052440
aI-2319332593434070526
aI-4879886399027727466
aI-1366621705428608708
aI-8304842533045139322
aI-1045691139701440636
aI-2112960204223893703
aI2572538647366179370
aI-4192413917522487571
aI1282458864008904452
aI-3134853358716039130
aI2217583639998261603
aI4894343348909595062
aI8301689006449400201
aI-5657398048334957796
aI5124941421131388675
aI2022084024155183493
aI5321888498095433911
aI-2336659514610695223
aI-2245605877193643681
aI7425097386084730114
aI-829559446040931488
aI4071469438325063082
aI7883985064751890559
aI-5986140169096615243
aI8009152226999364458
aI7883985064751890559
aI-5986140169096615243
aI-6905718015698225120
aI-2226269574581686719
aI-1436910679358982166
aI6237655490049677306
aI-8870885095784469745
aI-312540603474523773
aI7169856874943628369
aI-8687784747184169626
aI5499472462886348926
aI-2332430610190603650
aI-3288014147469086888
aI7439844773425861622
aI2516555440263727857
aI-3652295624579621721
aI-7774368572215880699
aI-5968226198734685837
aI-8379249170062192750
aI1679190914954471431
aI-323142874674878835
aI4650308761085230601
aI-8046074712901691593
aI-6729229710992852910
aI2457492181517364735
aI1797552568429783250
aI-6494384943355532456
aI6580670781423279313
aI4822488152883853283
aI1754525856964587058
aI7802348400341801147
aI3919254870983109256
aI-3047647217385839014
aI-7490309757980176732
aI-3047647217385839014
aI-7515848551384393572
aI-7728249778534263369
aI-3702789518012862213
aI6478851072832767754
aI6580670781423279313
aI4822488152883853283
aI88879542040553372
aI7605034919140723432
aI3824781306016116069
aI-6680687631097667959
aI-2643652411669623571
aI-4523383494052380661
aI-3709632294774074091
aI-2643652411669623571
aI-4523383494052380661
aI8430359960935812809
aI-636814738004774477
aI-7319515411626813741
aI237343126876244575
aI-7319515411626813741
aI-1255061656890274647
aI-4196175811715159210
aI-4915552955975947737
aI-1764593965071655103
aI8940872450790445025
aI-4196175811715159210
aI-4915552955975947737
aI6267908837107242498
aI4021562253722310438
aI-6449729185275547597
aI-1237343167587982162
aI-7743912468893963074
aI606720575773644967
aI4456326941171886638
aI6998460461386053951
aI8184578997190621964
aI-2374773377814914715
aI7609462316889939224
aI-2602769847764353341
aI-3860426589525564352
aI-1843657638613129464
aI-7593812188235191404
aI3054805643559818313
aI3689967404867501967
aI-8235527456829853232
aI-8254652024590908559
aI3935915533186168886
aI6058742940406281584
aI-4606612364133729035
aI-3163025997641126160
aI-1177890708000565041
aI-994108226295867987
aI992466449542990296
aI-97872049821763241
aI-8342845624453869774
aI736423856874173368
aI3580503685258631211
aI2029415334079045188
aI2517389988007621671
aI5600060951884010465
aI-1628203170601211036
aI1520828784998629119
aI3273893527506522722
aI-712407504218459772
aI-5662069988214089957
aI64889288545000767
aI7454925077290224171
aI4441769768064252826
aI-3480429842510915605
aI-2405590027774611727
aI-1732338000189501824
aI-4898929224769812387
aI1996115236045790988
aI-8495729516275591099
aI1960472527587234253
aI-5121507744851390579
aI-8999071878817816835
aI-4974313612426493728
aI1009038655811932426
aI8905976041770874542
aI1960472527587234253
aI4921400745303124283
aI4923603713609635962
aI8905976041770874542
aI1960472527587234253
aI4921400745303124283
aI-990920494984719970
aI4967868455868656903
aI-1083569339467624419
aI-795547391561921342
aI-6681380772429725087
aI-424623557268043221
aI5581060037540007784
aI9011963643165198851
aI7062977682661338311
aI-48074766074858091
aI-4452610291354144866
aI5860175983504752632
aI8202971475952158619
aI3054867834274246680
aI3097632313051733161
aI-9165427705139208437
aI-8028203178496514634
aI-3093394954331584225
aI4900089885586892892
aI7263929341009058285
aI4638376367373396758
aI-7902958844455187082
aI4900089885586892892
aI1958219770757417384
aI-3921717428591505020
aI-1741665560835220454
aI-7852300253632059612
aI1352385086093752896
aI4408848263667474390
aI-5915262356054073610
aI-6740881284057853543
aI-4213085699911149986
aI5402980135672224884
aI1175965212128260702
aI-5791512154888017812
aI-3996960771943078348
aI8065522751670626342
aI8065522751670626342
aI8065522751670626342
aI1175965212128260702
aI-5791512154888017812
aI-3996960771943078348
aI-2570351461037552785
aI5366905114878662898
aI-5580861974367186191
aI1539281035797256122
aI-8134704379112135248
aI4234373436068185374
aI4182615815169449377
aI49011106277781354
aI6060845851368103405
aI-6246595568504704784
aI-8000332362889713429
aI8690119433055798141
aI-5580861974367186191
aI1539281035797256122
aI8869536984857253066
aI-2726495204250780728
aI1212729523521948245
aI-4529056002067406446
aI-7830514282008120283
aI-7010040177873388180
aI-1149725998349014047
aI-5270706765271658845
aI2360769932345119256
aI-9190511427889834312
aI-3662301643447756946
aI-401233640860689775
aI6708324980413350645
aI-3675389179432927236
aI9114929474796807562
aI-36337694939212530
aI7177763462188791208
aI-8682161533818858091
aI1696470154026472206
aI-8682161533818858091
aI2354650524234799766
aI7449554055250267801
aI2354650524234799766
aI-7886977797637567804
aI-4124660966711684599
aI-7886977797637567804
aI82588552569718570
aI82588552569718570
aI82588552569718570
aI82588552569718570
aI82588552569718570
aI82588552569718570
aI82588552569718570
aI82588552569718570
aI108549164387880720
aI108549164387880720
aI108549164387880720
aI108549164387880720
aI108549164387880720
aI108549164387880720
aI108549164387880720
aI108549164387880720
aI7397191053065832298
aI7397191053065832298
aI7348849293428752625
aI7348849293428752625
aI-934126650473760975
aI-4323896892694610591
aI7400126340609973378
aI-2888028876132283679
aI4910875412379945624
aI-7523107438063674013
aI8934963574729398481
aI-2236402940650199362
aI1874275209116086653
aI9187623562431510908
aI940764212636350468
aI-427415838465863126
aI-741908214610411203
aI7224410218052111393
aI1529326041226499407
aI9052117766680068445
aI3706565440850154338
aI-8491768784334284428
aI-8555277825340762402
aI-7175156620310506810
aI1071212134351835083
aI1071212134351835083
aI1447218343336171924
aI-3550022425125795502
aI-3550022425125795502
aI8739992792306047622
aI1071212134351835083
aI1071212134351835083
aI-2184210981168015711
aI-4520142812056377110
aI-1928608697830914616
aI-8458803071965754648
aI-6359006975406221919
aI4178608485680449725
aI1864014231704986744
aI52310721728953025
aI-5961796536772237362
aI5824493543686724235
aI-639094666159652150
aI6738026098246299821
aI5262849625870950166
aI7501657748896766662
aI-8811555547157846540
aI2297397672338529764
aI1991232694112603613
aI4474852410630286381
aI1735117295901590731
aI5319908248515906102
aI-8638622235361397807
aI178663334291542831
aI-7129006362408743072
aI966604425574732680
aI8508204781220244818
aI-7592291962932480004
aI2028417677579151447
aI-263135453715270369
aI-263135453715270369
aI-4854517090146120458
aI-4854517090146120458
aI-3028180993024157180
aI4705887478444433449
aI1178332927015187018
aI4283971826240846967
aI6049871655666234592
aI1178332927015187018
aI-2877230294570831240
aI4656258849366019653
aI8223523973994634063
aI-1473286845806916328
aI-4249834800989448964
aI-2099746847421410978
aI6772872843812274421
aI-1473286845806916328
aI-4249834800989448964
aI-2099746847421410978
aI4476884475698454289
aI2883314361479409178
aI4476884475698454289
aI2883314361479409178
aI-1094350844991225624
aI-8929533698914467417
aI9189609128192536216
aI7842794083678991472
aI-1094350844991225624
aI-3014900049926994332
aI9189609128192536216
aI-7328631308952851807
aI2622114708753429941
aI9216925707158083237
aI-4999273031657115489
aI-3285322709188507019
aI4895168691700547614
aI1168853762049252637
aI5437076438292433425
aI-2548108018326832586
aI-2548108018326832586
aI-7603130594358113212
aI-1481344720925776115
aI-6678278266368242807
aI-7447642473345128750
aI-1558563450152548641
aI417550274217379427
aI2543664076737025562
aI4946974457854611601
aI-1943214648880233011
aI-3056547265477026949
aI8939869373303298952
aI-467881081353797546
aI-467881081353797546
aI-467881081353797546
aI-467881081353797546
aI-467881081353797546
aI-467881081353797546
aI-467881081353797546
aI-467881081353797546
aI-6295646936874342784
aI-6295646936874342784
aI-6295646936874342784
aI-6295646936874342784
aI-6295646936874342784
aI-6295646936874342784
aI-6295646936874342784
aI-6295646936874342784
aI-6433145748420619379
aI-6433145748420619379
aI-6433145748420619379
aI-6433145748420619379
aI-6433145748420619379
aI-6433145748420619379
aI-6433145748420619379
aI-6433145748420619379
aI-9044350063288411117
aI-3025607463476330441
aI-3362797273311028457
aI2270342917614455814
aI1551746783401398309
aI4394563795077302235
aI6946429676172552454
aI-2845833010555403713
aI-5099004894081410511
aI-2953347617999167258
aI-8114944030862151116
aI-5686888817629127392
aI8766304363242234611
aI-6112062005346977551
aI-5686888817629127392
aI8766304363242234611
aI8214197727063971252
aI450167581705653510
aI1427695175824653827
aI-8493230890737550247
aI7921959412701825766
aI-3479947765142920463
aI7019764453753979387
aI5867581115594492674
aI4958434113952202972
aI7470589690563242828
aI-8659689067112172468
aI-1164747590309654123
aI-3339844898155995641
aI-3828413191816085476
aI5440737648354519495
aI-140550918453775861
aI-3250847294730852518
aI1044469369443041421
aI-5607612648184410125
aI4978317627602684107
aI-4750147024834309081
aI-8064045223178343619
aI-2112456801626565941
aI3013981996600736054
aI-7773828540130530957
aI1491556856515820905
aI3742010193041139764
aI7816422057753968706
aI-2904072421383408462
aI-6749672295871641732
aI6895879736952398789
aI2589343804933590349
aI-5596044449862965382
aI3612863050756317743
aI-6681380772429725087
aI6319096618545190503
aI-6474056059053786869
aI8963802486018335824
aI-8917076946517501770
aI530991574930526301
aI5862670825634610535
aI-3571459605892102220
aI-9210549006152201124
aI-2769150462694917138
aI-4662455667974104247
aI-3651898106015250638
aI-368746779147335242
aI8953773022864260356
aI4077614933502601858
aI-5238394194181654538
aI1311567506894048127
aI2626745975209018472
aI-6399903681159268410
aI-5238394194181654538
aI1311567506894048127
aI2626745975209018472
aI-6530209586016096958
aI-7440052264487187959
aI-3983847566605685321
aI973010391106772998
aI-8730522749319291546
aI-7440052264487187959
aI-3983847566605685321
aI2388714705516589162
aI-6612675734993402215
aI-330387551857153370
aI-5105968058830869519
aI42353847535131289
aI-4261949279213322891
aI4917163515059936915
aI42353847535131289
aI-4261949279213322891
aI4917163515059936915
aI-6889945694165692078
aI5838974011003199748
aI5838974011003199748
aI5679832472748474268
aI4741972572207476216
aI6653975615893625742
aI-8613977675319842894
aI6830796689095393257
aI-516469751291236188
aI2639346552479381956
aI-2398974576091808514
aI-6876502164198858912
aI-8314235987975885873
aI-5099222250807631291
aI-8136484652952695993
aI-6015350584281080
aI-603738671112125869
aI-6495539234905240974
aI4618382824269716720
aI-5406728844189393759
aI-4740654704980693176
aI-2263302751163992786
aI1721152068838818415
aI-4740654704980693176
aI-2263302751163992786
aI2495514796329829618
aI-5819406223926722505
aI5145595729602610781
aI121178003572243287
aI7328214102354887311
aI-6739292793317328295
aI-4508931141317346633
aI-639377111210005299
aI-6681500229049528104
aI1386961168163507190
aI-2691675707163591406
aI2480432796452090500
aI-3453057007981100082
aI3352032109115598892
aI2878887436861713761
aI-4482002923813375240
aI6346111383996989151
aI8886988575988948843
aI8136074418712370046
aI1618737871025223167
aI-1676094613179664487
aI-7565656980624642281
aI-7375103649203519018
aI1618737871025223167
aI-1676094613179664487
aI590896315041945104
aI-7375103649203519018
aI7984662114337938410
aI7798057575700703153
aI3022868830605807092
aI803887114085445331
aI3395162756379550907
aI2235416330641464635
aI4318263968545004535
aI996906399712997660
aI2235416330641464635
aI-6873218843688976768
aI5855747932863436365
aI-2337426276481479502
aI7565237437549085847
aI5855747932863436365
aI-1622193110434791221
aI8354239005263976148
aI7359464577978433815
aI6765662950695930081
aI-101918835456307658
aI7625927509051419702
aI664105630966337786
aI-6801870015051782202
aI1034102895036113995
aI-2920371059769667510
aI9007646643046695979
aI-6159263012563607138
aI7574646898817137891
aI-7170545965136726157
aI-2009144496976137089
aI-1492176652925852600
aI1872408832296266524
aI-4228452213731368787
aI6147745688405867882
aI-536435773658372425
aI6147745688405867882
aI-536435773658372425
aI333244150938078160
aI-4068358300345734541
aI6116236563766615596
aI6475822693076596272
aI6116236563766615596
aI4696237304951517292
aI-8377366993241237848
aI-176411854223878873
aI-732931983551620650
aI-584239043545679697
aI5871218296674186358
aI-6305995732156296779
aI854225618286017513
aI-7637743134525619029
aI2878959750969671909
aI-3982026578624143209
aI5216538384819050779
aI-6729916475781253091
aI3922650934252885866
aI4341192687421491347
aI8108784376196855900
aI-7642648851175202285
aI516919724682581190
aI7260501248517390347
aI7260501248517390347
aI-8542128945522845697
aI-4450427230495047362
aI3304272545222170983
aI1444567232057269941
aI-2344399642362408312
aI2879105816435099184
aI5671747485926061111
aI6128554754320689922
aI-5936171901120766407
aI-5862020283748124131
aI-4481404557462524770
aI7249318580390185737
aI4066730549742735208
aI-5862020283748124131
aI-1771297716552121386
aI7249318580390185737
aI-9171739376539637236
aI8862925398048073052
aI5302625766269112067
aI3463601166147830550
aI-5910120801557720278
aI-8425978016411654645
aI4292508416395368047
aI-3338307915658456575
aI-5700880629154585390
aI6576643301929774966
aI9160916640170823964
aI4307817301029667002
aI-2552619690398236969
aI9160916640170823964
aI-9116650837918659685
aI-3886695813616686186
aI9160916640170823964
aI4307817301029667002
aI-2552619690398236969
aI9160916640170823964
aI-9116650837918659685
aI-3886695813616686186
aI811014645582303089
aI1802785113319382772
aI-5892850701836966761
aI4076726582035250943
aI-8674441370823364578
aI-1094871666986590767
aI-1354605970061295
aI-5892850701836966761
aI4076726582035250943
aI-2686997860644562594
aI-1094871666986590767
aI-1354605970061295
aI-5239036932164765271
aI5495447537200836314
aI-5239036932164765271
aI-3270466103290703169
aI-3513755392590199546
aI8810736054212388489
aI634527152079215857
aI-2494171690508261805
aI1618737871025223167
aI7898748510074745278
aI4274350933325351736
aI-1702919448556049070
aI7208460278844581726
aI1335395397409460399
aI2491847394238039718
aI6855495969023643457
aI4162063352216870749
aI6533707796221905358
aI7876263840155345391
aI-8966768258901247356
aI-5334244823178999043
aI8408626972000471452
aI-8178126700785512874
aI-6528118631256508750
aI-4402088499714056219
aI4772220694432927625
aI-4402088499714056219
aI4708343368167901885
aI3613275273646202264
aI-6262612895498614550
aI1015280652973651646
aI-3397600688278642371
aI-5659443289401317719
aI5232946242162576189
aI3769365807913103841
aI-8049721892513048030
aI7253150271295113219
aI-410362417118124750
aI-824251628990943240
aI-8049721892513048030
aI7253150271295113219
aI6926769477085628084
aI1269424677098756754
aI1269424677098756754
aI-6944824646687730589
aI-780316795519940938
aI4129979827498746010
aI1093810176566812080
aI6546841367235346009
aI-7583761113263716190
aI-4448628959989686689
aI-798764977673749892
aI-2079871805989869977
aI-702966432652265095
aI-7986644502908935036
aI-2966403725224652328
aI3129802658010502419
aI9131724038291755938
aI-3906237553329019741
aI-7325207637090679832
aI-2498244381440326231
aI-4051348566970624134
aI-3174839066835361764
aI7685633436450230623
aI7810613628664402275
aI-5224692862162226470
aI-5321088805704213129
aI-524715057468426228
aI-80532771656202023
aI7778694180416618428
aI-758031065319129796
aI-4209050259475239356
aI7919990381306890303
aI-3649270676709437976
aI7919990381306890303
aI-3649270676709437976
aI-6264306489005143284
aI-1157660149431823831
aI8513733838310430611
aI8513733838310430611
aI-1338980119644798743
aI-2493339839504940056
aI-2493339839504940056
aI-5494377612693594076
aI-4140043215378284348
aI-1157660149431823831
aI8513733838310430611
aI8513733838310430611
aI-7203302202947702506
aI-3759350387490873128
aI-4966605582051763374
aI220228767289610015
aI3442873740818390525
aI5453306267746498565
aI8177105074442611939
aI-4990173570897226725
aI-3543733510793048694
aI-4990173570897226725
aI7400949485382471116
aI7400949485382471116
aI-6149721968136850755
aI6704818561354722475
aI-8518344697445127639
aI5083499930229333314
aI2111649350761654540
aI-5873635009169258207
aI-4368907000744473324
aI970539895122293350
aI-4036584681968743092
aI5053900822536267318
aI7607270042792667201
aI8891566116954634395
aI-1108864026884154584
aI6971744810332081931
aI-4463671289485561586
aI-3686553259580532917
aI1981990207459980839
aI-8538976761704571509
aI-6830549332825377835
aI-5995815855163386998
aI-2390966788137768491
aI-7474796694780190785
aI2317144707314889002
aI-1922696518028058249
aI7572534710720847061
aI-6662196718493751489
aI-8697140877345311012
aI-6662196718493751489
aI7572534710720847061
aI-6662196718493751489
aI3754745083338920679
aI-6662196718493751489
aI5318890562092975059
aI-618401081280061979
aI7700910897130598631
aI-618401081280061979
aI-78510114020887147
aI-78510114020887147
aI-7770631865312331913
aI-78510114020887147
aI1672884988571075302
aI1672884988571075302
aI797403566011573291
aI1672884988571075302
aI-5502529861757519962
aI-6374610844767358366
aI-5453563056811436228
aI3686556511479742589
aI5577070546906896721
aI1271197877041695399
aI8008475978466202500
aI-6450555459936743100
aI-843267526439410467
aI-7808087682230250771
aI-4953130890439915022
aI-7200302763269224735
aI5228186738217461172
aI-7796988255092407670
aI-8748135130280852999
aI-5024768453592155103
aI-5519440595256408668
aI-7772330669771585556
aI-3276988066414419314
aI-3684541086456383522
aI1672439200575900217
aI7670269819694740657
aI-5678305301545582990
aI3215908204505546516
aI3067512858366986985
aI-785813579542964427
aI-4260562979205718490
aI4768846068561929675
aI4165866494773080463
aI7807072294309099802
aI-4783019397806632145
aI9051696016999992485
aI351122812918429788
aI6206461321177974624
aI-6588527855481126884
aI-6203505152598913929
aI-4816561769800991057
aI7779725724737579226
aI7779725724737579226
aI-1958314804411064868
aI-8969872199382386665
aI-7776420453436911127
aI-5654696147358321013
aI4591690159986824736
aI-2491676075866761254
aI-5572820377392332820
aI2550711602471797774
aI-5572820377392332820
aI1398059957080533243
aI-1473199163449589551
aI-5901538410861920135
aI5532606507998825083
aI-1570670909799297313
aI-1423800853982794069
aI-775404154687930851
aI2918260107480500187
aI-1775864260732620974
aI-8538996120980582560
aI-760058165036527051
aI-103764709457457446
aI-144418717438061509
aI-2735329007104751212
aI7167421893512793263
aI-7373100795315780937
aI-3975741617347263593
aI4412729747086588276
aI7075165049671878092
aI2415408467394104712
aI-5516503878649423393
aI-9116962086944154797
aI5942989302815137443
aI-6647557540956826085
aI-1495464346753628263
aI-1214227081583083961
aI-4415015152545373365
aI-516241176737463301
aI-1214227081583083961
aI-4415015152545373365
aI-516241176737463301
aI-3133013606691861221
aI4651357435468118325
aI3846444893746370010
aI-8202377073262446060
aI-4907633177965892041
aI6703709932754753656
aI-8799591366296367912
aI7542900826672688653
aI-4919798318348413548
aI-4919798318348413548
aI-6698429000864890288
aI-1649637788824182128
aI6929931535868271465
aI-6730684345538880521
aI1237612620107136077
aI2557128788996784383
aI2557128788996784383
aI-2124314026649182109
aI2396636695582482482
aI2396636695582482482
aI-4137775561424820964
aI-4137775561424820964
aI-5520517623473604296
aI3421745708381963705
aI3421745708381963705
aI2083998673508158330
aI2745645322787637979
aI-1586095210242762084
aI-6691832986098397969
aI-6691832986098397969
aI-6691832986098397969
aI9101063470058330472
aI-2036179989107476412
aI-1540169046970012442
aI-8685819832981653687
aI4236206205834507213
aI7218682390628215175
aI4288643399657628413
aI9083715147459247998
aI-1540169046970012442
aI-5973124905809721902
aI1938661544072708282
aI6969369534837378620
aI-8527062598740139250
aI-3047895560534768704
aI3490346667560191707
aI-1364994241399268520
aI1824680796617499890
aI1009891079743089979
aI-550053865399576738
aI-3476229674630725705
aI-8243895043819914756
aI2551291183304084643
aI6834104582363520362
aI6443438113239992323
aI6834104582363520362
aI-4758530913358915774
aI938130778359369749
aI7555254908736353921
aI-1403403175089299541
aI-2612304140768467242
aI-2612304140768467242
aI-2612304140768467242
aI-2612304140768467242
aI-2181694335153838903
aI-4951329544280683019
aI-4951329544280683019
aI-4951329544280683019
aI-4951329544280683019
aI6638716539389549374
aI-6740850114289112728
aI2768658104207745455
aI5027454183578513199
aI-6817783935032966757
aI-9090297216487737143
aI-8300632530455302938
aI1942015652459873936
aI4088806600789264234
aI8354398943772901148
aI7595480742859331051
aI-5195625095062809406
aI-8200518557675912460
aI-3219431843077566693
aI7595480742859331051
aI954346464300268125
aI7107219813690316509
aI-2443398949373302255
aI-6226291058222054213
aI6245038248298053208
aI3369927392540586328
aI-1525927912046146629
aI-4655789910682069215
aI3369927392540586328
aI-5196378729986009136
aI5598991928237084189
aI-7917336373775108327
aI-1953956837392453188
aI-3127068820820181509
aI-7917336373775108327
aI4108354597575519754
aI7524002298460967066
aI3742554622494929001
aI4117969860653895434
aI-6544489979679176559
aI-4196341630398542736
aI7982062966572395217
aI6236595430700592278
aI-6878503069396847873
aI-3378619839050019618
aI-310012071738837067
aI-3309301942958344012
aI3903524587920337741
aI-9221369681222955470
aI-3014994929424561910
aI-9177175895466816695
aI6747175860628832380
aI2360753362287808707
aI-1546634510210263712
aI3517148867281488812
aI5903586495792523215
aI-5577901173223048946
aI6464895780716209287
aI1452647273277395020
aI-885735452244892886
aI6717605408007894436
aI-1619441282422245706
aI5840209403182093725
aI-5566680113627786118
aI-7407956807425095235
aI-1237947337445506917
aI6058203135211245077
aI-7418547653125552693
aI8276600642139541190
aI3806937121475473516
aI1455832058649921043
aI-6906955633733318748
aI3025325328047280199
aI-905089661998523886
aI-4745074342917358345
aI-6541471387680285149
aI-7211962306898996510
aI-5003239261704514134
aI-6021121582642135275
aI5223073616884614920
aI6851987666967843502
aI7499096673134879184
aI5845203648415175497
aI5820556045199390802
aI-490596165471054648
aI-7111332730145347817
aI-1356620247216570494
aI166499989961176071
aI495184204243039827
aI4667286746999133128
aI-2109190142916523117
aI-1579917371831780303
aI-2109190142916523117
aI-1579917371831780303
aI4982797713376755486
aI756385688183587460
aI-5551491815862128538
aI7342457640970522524
aI-5697268675240613200
aI877120607796741333
aI-683894983308431066
aI-2742605963705665193
aI-5918979354928814209
aI-218639126010380830
aI6333379272003187046
aI-8255087466422516608
aI6333379272003187046
aI-90081756131630763
aI-2742605963705665193
aI-9173322891677905049
aI-218639126010380830
aI-7794489161275884022
aI639980969214093594
aI-3607700607815896047
aI9211339979662329562
aI-3713444348915291
aI-9100305813758742460
aI5902730574368730539
aI-3528046977674395473
aI1289700478272340447
aI3859674815063184287
aI7860182974419748901
aI8186730326772951678
aI495896967483376344
aI9038192372535987660
aI4887715577210686662
aI-4810941828158487518
aI-8091091793306847208
aI-2653231464223803449
aI4612745405198311750
aI-2792869898304910971
aI-6159369965590890232
aI-20835929509647473
aI-7034555457338036109
aI-4669820251872220263
aI-6964738571320084920
aI8621834206517697836
aI7348840490020970860
aI1479377729755997390
aI6328109276164894770
aI6236095974941245067
aI-6778570862267389304
aI-7034555457338036109
aI2286041770628709299
aI3809069547621865942
aI8621834206517697836
aI-947601473641881822
aI6844579795887066427
aI8570308497864180684
aI7196046947514274815
aI8368428519085784783
aI-1208409761586018352
aI6594392102057626850
aI-995706384283011340
aI4671473114313770872
aI-6984086525808316049
aI2422008162436401852
aI1223138355131499300
aI-2592311589822145085
aI-2067995926741661246
aI3616995274871745408
aI-4217110817986861948
aI-1759640977885628926
aI5607013903794051625
aI-1984404435988041665
aI-1984404435988041665
aI3612241317821637327
aI8562120006509759785
aI8348873698337276730
aI-574097585666226191
aI4186890903158798792
aI-2359898569395147840
aI-5458187515777858331
aI-3196393859616687731
aI8388539253028858684
aI-9139153760429394881
aI2963750671773738840
aI8114042361269446922
aI-8030140811296443458
aI1446913511455128392
aI5280233712609928849
aI3668134913138337234
aI8055042137093427239
aI5112613519317299479
aI5280233712609928849
aI3668134913138337234
aI161516345934716599
aI-1220333910819131936
aI-3789318383240730627
aI-7920097009299180825
aI-5188310174297554052
aI-3062198068608291877
aI5514642006270028831
aI-4174016123033235061
aI-6561363133675076432
aI-8104574680512999378
aI-4142637551661531271
aI5540494455800409953
aI-2573772342176768377
aI6133303901471837388
aI1311567506894048127
aI-1780493783624125900
aI-2169584944894879272
aI521785184920926518
aI-8365642239972175107
aI-2496072219969113733
aI3301214169228280619
aI-2169584944894879272
aI521785184920926518
aI-4741629848660236542
aI3208179159164402455
aI-7607264830124228371
aI-1469462352523018992
aI-4712317401246541693
aI-6564961824723039224
aI5570281816660949382
aI388325170844825922
aI-5227200915650183902
aI-2658129981874844253
aI3170104578588900715
aI8272300926945295036
aI-7144680605381092657
aI-5481516612027930379
aI8272300926945295036
aI-7144680605381092657
aI-5481516612027930379
aI375627686422221740
aI-3466900998949721841
aI7858014766425421337
aI8272300926945295036
aI-7144680605381092657
aI-5481516612027930379
aI6538932007444016352
aI-4898556513751521175
aI-6273346816672310572
aI4950498669385884699
aI6538932007444016352
aI4850919807643374220
aI-6273346816672310572
aI4950498669385884699
aI-3756774392571392969
aI-2772449423832089824
aI7997067489967744859
aI-3564888959465344127
aI-6611459088710389112
aI-4013458879657995247
aI7066564961068993782
aI7976170395093006982
aI355199308189048457
aI5738198911652006802
aI-1220446645712721293
aI2869566597014394764
aI3043755771559072523
aI2634294114295964174
aI-6381443142570810175
aI5102434959777315842
aI-1286415563897219414
aI-6194770836135919577
aI-2742605963705665193
aI-2742605963705665193
aI-4320525820276796757
aI-2742605963705665193
aI-2742605963705665193
aI-2742605963705665193
aI3531939805479398004
aI8471022793824695723
aI4107827417779529097
aI6511377184361671468
aI-5726640369687612573
aI-4466121557776976022
aI746216473367484744
aI-5776167278672462970
aI-8593319562101787590
aI-3059340204421394180
aI6133303901471837388
aI2427389536627688242
aI-1035995246908144795
aI-6184844807808534044
aI7129163203441514894
aI4625750152623792665
aI5238412174132671354
aI7161048398301690545
aI4721813701503029694
aI939191097498051331
aI-2619410001072748386
aI-2361345270673684232
aI-2619410001072748386
aI-4035919111506355191
aI907423474282352884
aI-1650890315304022406
aI-2040274511537502192
aI-2040274511537502192
aI2443003437179527926
aI-2549577208326926608
aI-2325973424078138647
aI8574354807996314817
aI-4599419778079662303
aI-4221599302137149561
aI-7750431025438132384
aI6545147579786001520
aI-6126121267592007290
aI8988530100533356114
aI-6682387915240249353
aI-8424142511460471502
aI-7428388259268629532
aI3849152957937082534
aI8395879463423187327
aI3156972384531065410
aI-6458922713000177951
aI-6382710480710632907
aI-4185129444496480577
aI5762848657522526409
aI-1448757157061839870
aI-3658294143883163784
aI-6667828376116768985
aI-2919803647297432346
aI1927349722640524718
aI2471915349734149813
aI-177852057366679436
aI-177852057366679436
aI8415511208391443813
aI-4528464609682717660
aI-439487464390385057
aI-5039233628220978906
aI1432410924079857100
aI-3369373246365824898
aI4032779920620163566
aI-1942158639536838613
aI6241921952273637216
aI4801612318334255349
aI-7030063989424332828
aI9164219932763906380
aI-1493913902541009304
aI2981399573514596403
aI5807671162385110426
aI-5655633400603363486
aI1730016956460131087
aI-7798491879950361122
aI148011747514811287
aI7008039488447396176
aI-1498091228890662577
aI-61085087285232080
aI-5847683973215363255
aI7008039488447396176
aI-1498091228890662577
aI8700933261465069081
aI-4004844304572349075
aI-4256537236591331889
aI6966328957712107965
aI-8597361440839972025
aI4810291796756906209
aI-9141710913086065041
aI1131166863688131816
aI-6100597372724937920
aI1403332337769681484
aI672617443102526898
aI8098609002239737622
aI5174728880252752986
aI-6415339355553809088
aI9177958971331779282
aI4612150391712623711
aI-6708719142182724196
aI-3371285174473991108
aI5441883619647853727
aI-2995394425162931263
aI2358700060366864786
aI7017858334331209248
aI-2474168494056047837
aI-8062566749376635024
aI3100793158993848912
aI-5952991824018950539
aI-1601542612873485649
aI7303262581219540264
aI5674114791512281196
aI8070047852289282775
aI-8396006699176662402
aI5115373676846412154
aI8070047852289282775
aI6303701947745914231
aI-4524547524863320919
aI-2868232689392978649
aI5580737698019414402
aI8127165261709606662
aI3401736758110352261
aI-389785817432297639
aI6132851419595579889
aI-1756203682995749524
aI8381553270706432718
aI6010814443028755019
aI-3044055421834126426
aI-894374056209496160
aI1505451258793739525
aI6816641559083636769
a.