(lp0
(lp1
(lp2
S'static'
p3
aS'int'
p4
aS'func_0'
p5
aS'('
p6
aS'variable_0'
p7
aS'*'
p8
ag8
aS'variable_1'
p9
aS','
p10
aS'int'
p11
ag8
aS'variable_2'
p12
aS')'
p13
aS'struct'
p14
aS'variable_3'
p15
ag8
aS'variable_4'
p16
aS';'
p17
aS'variable_0'
p18
ag8
aS'variable_5'
p19
ag10
ag8
aS'variable_6'
p20
ag10
ag8
aS'variable_7'
p21
ag17
aS'uint16_t'
p22
aS'variable_8'
p23
aS'='
p24
aS'0'
p25
ag17
aS'if'
p26
ag6
ag8
aS'variable_2'
p27
aS'>'
p28
ag24
aS'sizeof'
p29
ag6
aS'variable_8'
p30
ag13
ag13
aS'variable_8'
p31
ag24
aS'func_1'
p32
ag6
ag8
aS'variable_1'
p33
ag13
ag17
ag8
aS'variable_2'
p34
aS'-='
p35
aS'sizeof'
p36
ag6
aS'variable_8'
p37
ag13
ag17
ag8
aS'variable_1'
p38
aS'+='
p39
aS'sizeof'
p40
ag6
aS'variable_8'
p41
ag13
ag17
aS'if'
p42
ag6
aS'variable_8'
p43
aS'=='
p44
ag25
aS'||'
p45
aS'variable_8'
p46
ag28
ag8
aS'variable_2'
p47
ag13
aS'variable_5'
p48
ag24
ag8
aS'variable_1'
p49
ag17
aS'variable_6'
p50
ag24
aS'variable_5'
p51
aS'+'
p52
aS'variable_8'
p53
ag17
aS'variable_5'
p54
aS'+='
p55
aS'variable_9'
p56
ag17
aS'if'
p57
ag6
ag6
aS'variable_6'
p58
aS'-'
p59
aS'variable_5'
p60
ag13
aS'<'
p61
aS'12'
p62
ag13
aS'variable_5'
p63
aS'++'
p64
ag17
aS'variable_5'
p65
aS'+='
p66
aS'8'
p67
ag17
aS'variable_5'
p68
aS'+='
p69
aS'2'
p70
ag17
aS'variable_5'
p71
aS'+='
p72
ag70
ag17
aS'while'
p73
ag6
aS'variable_5'
p74
ag61
ag24
aS'variable_6'
p75
ag59
ag70
ag13
aS'struct'
p76
aS'variable_10'
p77
ag8
aS'variable_11'
p78
ag24
ag6
aS'void'
p79
ag8
ag13
aS'variable_5'
p80
ag17
aS'if'
p81
ag6
aS'variable_5'
p82
ag52
aS'variable_11'
p83
aS'->'
p84
aS'variable_12'
p85
ag28
aS'variable_6'
p86
ag13
aS'switch'
p87
ag6
aS'variable_11'
p88
aS'->'
p89
aS'variable_13'
p90
ag13
aS'variable_4'
p91
ag24
ag6
aS'struct'
p92
aS'ieeetypes_countryinfoset'
p93
ag8
ag13
aS'variable_5'
p94
ag17
aS'if'
p95
ag6
aS'variable_4'
p96
aS'->'
p97
aS'variable_12'
p98
ag61
aS'sizeof'
p99
ag6
aS'variable_4'
p100
aS'->'
p101
aS'variable_14'
p102
ag13
aS'||'
p103
aS'variable_4'
p104
aS'->'
p105
aS'variable_12'
p106
ag28
aS'254'
p107
ag13
aS'if'
p108
ag6
aS'variable_11'
p109
aS'->'
p110
aS'variable_12'
p111
ag28
ag24
aS'4'
p112
aS'&&'
p113
aS'variable_11'
p114
aS'->'
p115
aS'variable_15'
p116
aS'['
p117
ag25
aS']'
p118
aS'=='
p119
aS'0x00'
p120
aS'&&'
p121
aS'variable_11'
p122
aS'->'
p123
aS'variable_15'
p124
ag117
aS'1'
p125
ag118
aS'=='
p126
aS'0x50'
p127
aS'&&'
p128
aS'variable_11'
p129
aS'->'
p130
aS'variable_15'
p131
ag117
ag70
ag118
aS'=='
p132
aS'0xf2'
p133
aS'&&'
p134
aS'variable_11'
p135
aS'->'
p136
aS'variable_15'
p137
ag117
aS'3'
p138
ag118
aS'=='
p139
aS'0x01'
p140
ag13
aS'if'
p141
ag6
aS'variable_11'
p142
aS'->'
p143
aS'variable_12'
p144
ag28
ag24
aS'variable_16'
p145
aS'&&'
p146
aS'variable_11'
p147
aS'->'
p148
aS'variable_15'
p149
ag117
ag25
ag118
aS'=='
p150
aS'0x00'
p151
aS'&&'
p152
aS'variable_11'
p153
aS'->'
p154
aS'variable_15'
p155
ag117
ag125
ag118
aS'=='
p156
aS'0x50'
p157
aS'&&'
p158
aS'variable_11'
p159
aS'->'
p160
aS'variable_15'
p161
ag117
ag70
ag118
aS'=='
p162
aS'0x43'
p163
aS'&&'
p164
aS'variable_11'
p165
aS'->'
p166
aS'variable_15'
p167
ag117
ag138
ag118
aS'=='
p168
aS'0x04'
p169
ag13
aS'variable_17'
p170
aS'->'
p171
aS'variable_18'
p172
ag24
ag125
ag17
aS'variable_17'
p173
aS'->'
p174
aS'variable_19'
p175
ag24
aS'min'
p176
ag6
aS'variable_11'
p177
aS'->'
p178
aS'variable_12'
p179
ag52
ag70
ag10
aS'variable_20'
p180
ag13
ag17
aS'memcpy'
p181
ag6
aS'variable_17'
p182
aS'->'
p183
aS'variable_21'
p184
ag10
aS'variable_11'
p185
ag10
aS'variable_17'
p186
aS'->'
p187
aS'variable_19'
p188
ag13
ag17
aS'func_2'
p189
ag6
aS'variable_22'
p190
ag10
aS'"'
p191
aS'process_bss'
p192
aS':'
p193
aS'RSN_IE'
p194
ag191
ag10
aS'variable_17'
p195
aS'->'
p196
aS'variable_21'
p197
ag10
aS'variable_11'
p198
aS'->'
p199
aS'variable_12'
p200
ag13
ag17
aS'variable_5'
p201
aS'+='
p202
aS'variable_11'
p203
aS'->'
p204
aS'variable_12'
p205
ag52
ag70
ag17
aS'variable_17'
p206
aS'->'
p207
aS'variable_23'
p208
ag24
aS'variable_24'
p209
ag17
aS'func_3'
p210
ag6
aS'variable_17'
p211
aS'->'
p212
aS'variable_25'
p213
ag10
aS'sizeof'
p214
ag6
aS'variable_17'
p215
aS'->'
p216
aS'variable_25'
p217
ag13
ag13
ag17
aa(lp218
S'static'
p219
aS'int'
p220
aS'func_0'
p221
ag6
aS'variable_0'
p222
ag8
ag8
aS'variable_1'
p223
ag10
aS'int'
p224
ag8
aS'variable_2'
p225
ag13
aS'struct'
p226
aS'variable_3'
p227
ag8
aS'variable_4'
p228
ag17
aS'struct'
p229
aS'variable_5'
p230
ag8
aS'variable_6'
p231
ag17
aS'struct'
p232
aS'variable_7'
p233
ag8
aS'variable_8'
p234
ag17
aS'variable_0'
p235
ag8
aS'variable_9'
p236
ag10
ag8
aS'variable_10'
p237
ag10
ag8
aS'variable_11'
p238
ag17
aS'uint16_t'
p239
aS'variable_12'
p240
ag24
ag25
ag17
aS'if'
p241
ag6
ag8
aS'variable_2'
p242
ag28
ag24
aS'sizeof'
p243
ag6
aS'variable_12'
p244
ag13
ag13
aS'variable_12'
p245
ag24
aS'func_1'
p246
ag6
ag8
aS'variable_1'
p247
ag13
ag17
ag8
aS'variable_2'
p248
aS'-='
p249
aS'sizeof'
p250
ag6
aS'variable_12'
p251
ag13
ag17
ag8
aS'variable_1'
p252
aS'+='
p253
aS'sizeof'
p254
ag6
aS'variable_12'
p255
ag13
ag17
aS'if'
p256
ag6
aS'variable_12'
p257
aS'=='
p258
ag25
aS'||'
p259
aS'variable_12'
p260
ag28
ag8
aS'variable_2'
p261
ag13
aS'variable_9'
p262
ag24
ag8
aS'variable_1'
p263
ag17
aS'variable_10'
p264
ag24
aS'variable_9'
p265
ag52
aS'variable_12'
p266
ag17
aS'variable_9'
p267
aS'+='
p268
aS'variable_13'
p269
ag17
aS'if'
p270
ag6
ag6
aS'variable_10'
p271
ag59
aS'variable_9'
p272
ag13
ag61
aS'12'
p273
ag13
aS'variable_9'
p274
aS'++'
p275
ag17
aS'variable_9'
p276
aS'+='
p277
ag67
ag17
aS'variable_9'
p278
aS'+='
p279
ag70
ag17
aS'variable_9'
p280
aS'+='
p281
ag70
ag17
aS'while'
p282
ag6
aS'variable_9'
p283
ag61
ag24
aS'variable_10'
p284
ag59
ag70
ag13
aS'struct'
p285
aS'variable_14'
p286
ag8
aS'variable_15'
p287
ag24
ag6
aS'void'
p288
ag8
ag13
aS'variable_9'
p289
ag17
aS'if'
p290
ag6
aS'variable_9'
p291
ag52
aS'variable_15'
p292
aS'->'
p293
aS'variable_16'
p294
ag28
aS'variable_10'
p295
ag13
aS'switch'
p296
ag6
aS'variable_15'
p297
aS'->'
p298
aS'variable_17'
p299
ag13
aS'variable_4'
p300
ag24
ag6
aS'struct'
p301
aS'ieeetypes_dsparamset'
p302
ag8
ag13
aS'variable_9'
p303
ag17
aS'variable_18'
p304
aS'->'
p305
aS'variable_19'
p306
ag24
aS'variable_4'
p307
aS'->'
p308
aS'variable_20'
p309
ag17
aS'variable_6'
p310
ag24
ag6
aS'struct'
p311
aS'ieeetypes_ibssparamset'
p312
ag8
ag13
aS'variable_9'
p313
ag17
aS'variable_18'
p314
aS'->'
p315
aS'variable_21'
p316
ag24
aS'func_2'
p317
ag6
aS'variable_6'
p318
aS'->'
p319
aS'variable_21'
p320
ag13
ag17
aS'variable_8'
p321
ag24
ag6
aS'struct'
p322
aS'ieeetypes_countryinfoset'
p323
ag8
ag13
aS'variable_9'
p324
ag17
aS'if'
p325
ag6
aS'variable_8'
p326
aS'->'
p327
aS'variable_16'
p328
ag61
aS'sizeof'
p329
ag6
aS'variable_8'
p330
aS'->'
p331
aS'variable_22'
p332
ag13
aS'||'
p333
aS'variable_8'
p334
aS'->'
p335
aS'variable_16'
p336
ag28
aS'254'
p337
ag13
aS'memcpy'
p338
ag6
aS'&'
p339
aS'variable_18'
p340
aS'->'
p341
aS'variable_23'
p342
ag10
aS'variable_8'
p343
ag10
aS'variable_8'
p344
aS'->'
p345
aS'variable_16'
p346
ag52
ag70
ag13
ag17
aS'if'
p347
ag6
aS'variable_15'
p348
aS'->'
p349
aS'variable_16'
p350
ag28
ag24
ag112
aS'&&'
p351
aS'variable_15'
p352
aS'->'
p353
aS'variable_24'
p354
ag117
ag25
ag118
aS'=='
p355
aS'0x00'
p356
aS'&&'
p357
aS'variable_15'
p358
aS'->'
p359
aS'variable_24'
p360
ag117
ag125
ag118
aS'=='
p361
aS'0x50'
p362
aS'&&'
p363
aS'variable_15'
p364
aS'->'
p365
aS'variable_24'
p366
ag117
ag70
ag118
aS'=='
p367
aS'0xf2'
p368
aS'&&'
p369
aS'variable_15'
p370
aS'->'
p371
aS'variable_24'
p372
ag117
ag138
ag118
aS'=='
p373
aS'0x01'
p374
ag13
aS'variable_18'
p375
aS'->'
p376
aS'variable_25'
p377
ag24
aS'min'
p378
ag6
aS'variable_15'
p379
aS'->'
p380
aS'variable_16'
p381
ag52
ag70
ag10
aS'variable_26'
p382
ag13
ag17
aS'memcpy'
p383
ag6
aS'variable_18'
p384
aS'->'
p385
aS'variable_27'
p386
ag10
aS'variable_15'
p387
ag10
aS'variable_18'
p388
aS'->'
p389
aS'variable_25'
p390
ag13
ag17
aS'func_3'
p391
ag6
aS'variable_28'
p392
ag10
ag191
aS'WPA'
p393
aS'IE'
p394
ag191
ag10
aS'variable_18'
p395
aS'->'
p396
aS'variable_27'
p397
ag10
aS'variable_15'
p398
aS'->'
p399
aS'variable_16'
p400
ag13
ag17
aS'variable_9'
p401
aS'+='
p402
aS'variable_15'
p403
aS'->'
p404
aS'variable_16'
p405
ag52
ag70
ag17
aa(lp406
S'static'
p407
aS'int'
p408
aS'func_0'
p409
ag6
aS'variable_0'
p410
ag8
ag8
aS'variable_1'
p411
ag10
aS'int'
p412
ag8
aS'variable_2'
p413
ag13
aS'struct'
p414
aS'variable_3'
p415
ag8
aS'variable_4'
p416
ag17
aS'struct'
p417
aS'variable_5'
p418
ag8
aS'variable_6'
p419
ag17
aS'struct'
p420
aS'variable_7'
p421
ag8
aS'variable_8'
p422
ag17
aS'variable_0'
p423
ag8
aS'variable_9'
p424
ag10
ag8
aS'variable_10'
p425
ag10
ag8
aS'variable_11'
p426
ag17
aS'uint8_t'
p427
aS'variable_12'
p428
ag24
ag25
ag10
aS'variable_13'
p429
ag24
ag25
ag10
aS'variable_14'
p430
ag24
ag25
ag17
aS'uint16_t'
p431
aS'variable_15'
p432
ag24
ag25
ag17
aS'if'
p433
ag6
ag8
aS'variable_2'
p434
ag28
ag24
aS'sizeof'
p435
ag6
aS'variable_15'
p436
ag13
ag13
aS'variable_15'
p437
ag24
aS'func_1'
p438
ag6
ag8
aS'variable_1'
p439
ag13
ag17
ag8
aS'variable_2'
p440
aS'-='
p441
aS'sizeof'
p442
ag6
aS'variable_15'
p443
ag13
ag17
ag8
aS'variable_1'
p444
aS'+='
p445
aS'sizeof'
p446
ag6
aS'variable_15'
p447
ag13
ag17
aS'if'
p448
ag6
aS'variable_15'
p449
aS'=='
p450
ag25
aS'||'
p451
aS'variable_15'
p452
ag28
ag8
aS'variable_2'
p453
ag13
aS'variable_9'
p454
ag24
ag8
aS'variable_1'
p455
ag17
aS'variable_10'
p456
ag24
aS'variable_9'
p457
ag52
aS'variable_15'
p458
ag17
aS'memcpy'
p459
ag6
aS'variable_16'
p460
aS'->'
p461
aS'variable_17'
p462
ag10
aS'variable_9'
p463
ag10
aS'variable_18'
p464
ag13
ag17
aS'variable_9'
p465
aS'+='
p466
aS'variable_18'
p467
ag17
aS'if'
p468
ag6
ag6
aS'variable_10'
p469
ag59
aS'variable_9'
p470
ag13
ag61
aS'12'
p471
ag13
aS'variable_16'
p472
aS'->'
p473
aS'variable_19'
p474
ag24
ag8
aS'variable_9'
p475
ag17
aS'variable_9'
p476
aS'++'
p477
ag17
aS'variable_9'
p478
aS'+='
p479
ag67
ag17
aS'variable_16'
p480
aS'->'
p481
aS'variable_20'
p482
ag24
aS'func_2'
p483
ag6
aS'variable_9'
p484
ag13
ag17
aS'variable_9'
p485
aS'+='
p486
ag70
ag17
aS'variable_16'
p487
aS'->'
p488
aS'variable_21'
p489
ag24
aS'func_3'
p490
ag6
aS'variable_9'
p491
ag13
ag17
aS'variable_9'
p492
aS'+='
p493
ag70
ag17
aS'if'
p494
ag6
aS'variable_16'
p495
aS'->'
p496
aS'variable_21'
p497
ag339
aS'variable_22'
p498
ag13
aS'variable_16'
p499
aS'->'
p500
aS'variable_23'
p501
ag24
aS'variable_24'
p502
ag17
aS'variable_16'
p503
aS'->'
p504
aS'variable_23'
p505
ag24
aS'variable_25'
p506
ag17
aS'while'
p507
ag6
aS'variable_9'
p508
ag61
ag24
aS'variable_10'
p509
ag59
ag70
ag13
aS'struct'
p510
aS'variable_26'
p511
ag8
aS'variable_27'
p512
ag24
ag6
aS'void'
p513
ag8
ag13
aS'variable_9'
p514
ag17
aS'if'
p515
ag6
aS'variable_9'
p516
ag52
aS'variable_27'
p517
aS'->'
p518
aS'variable_28'
p519
ag28
aS'variable_10'
p520
ag13
aS'switch'
p521
ag6
aS'variable_27'
p522
aS'->'
p523
aS'variable_29'
p524
ag13
aS'variable_16'
p525
aS'->'
p526
aS'variable_30'
p527
ag24
aS'func_4'
p528
ag6
aS'int'
p529
ag10
aS'32'
p530
ag10
aS'variable_27'
p531
aS'->'
p532
aS'variable_28'
p533
ag13
ag17
aS'variable_14'
p534
ag24
aS'func_5'
p535
ag6
aS'variable_0'
p536
ag10
aS'variable_31'
p537
ag10
aS'variable_27'
p538
aS'->'
p539
aS'variable_28'
p540
ag13
ag17
aS'variable_13'
p541
ag24
ag125
ag17
aS'variable_4'
p542
ag24
ag6
aS'struct'
p543
aS'ieeetypes_dsparamset'
p544
ag8
ag13
aS'variable_9'
p545
ag17
aS'variable_16'
p546
aS'->'
p547
aS'variable_32'
p548
ag24
aS'variable_4'
p549
aS'->'
p550
aS'variable_33'
p551
ag17
aS'variable_6'
p552
ag24
ag6
aS'struct'
p553
aS'ieeetypes_ibssparamset'
p554
ag8
ag13
aS'variable_9'
p555
ag17
aS'variable_16'
p556
aS'->'
p557
aS'variable_34'
p558
ag24
aS'func_6'
p559
ag6
aS'variable_6'
p560
aS'->'
p561
aS'variable_34'
p562
ag13
ag17
aS'variable_8'
p563
ag24
ag6
aS'struct'
p564
aS'ieeetypes_countryinfoset'
p565
ag8
ag13
aS'variable_9'
p566
ag17
aS'if'
p567
ag6
aS'variable_8'
p568
aS'->'
p569
aS'variable_28'
p570
ag61
aS'sizeof'
p571
ag6
aS'variable_8'
p572
aS'->'
p573
aS'variable_35'
p574
ag13
aS'||'
p575
aS'variable_8'
p576
aS'->'
p577
aS'variable_28'
p578
ag28
aS'254'
p579
ag13
aS'memcpy'
p580
ag6
ag339
aS'variable_16'
p581
aS'->'
p582
aS'variable_36'
p583
ag10
aS'variable_8'
p584
ag10
aS'variable_8'
p585
aS'->'
p586
aS'variable_28'
p587
ag52
ag70
ag13
ag17
aS'if'
p588
ag6
aS'!'
p589
aS'variable_13'
p590
ag13
aS'variable_12'
p591
ag24
aS'variable_27'
p592
aS'->'
p593
aS'variable_28'
p594
ag17
aS'if'
p595
ag6
aS'variable_14'
p596
ag52
aS'variable_12'
p597
ag28
aS'variable_31'
p598
ag13
aS'variable_12'
p599
ag24
aS'variable_31'
p600
ag59
aS'variable_14'
p601
ag17
aS'variable_11'
p602
ag24
aS'variable_16'
p603
aS'->'
p604
aS'variable_37'
p605
ag52
aS'variable_14'
p606
ag17
aS'memcpy'
p607
ag6
aS'variable_11'
p608
ag10
aS'variable_27'
p609
aS'->'
p610
aS'variable_38'
p611
ag10
aS'variable_12'
p612
ag13
ag17
aS'if'
p613
ag6
aS'variable_27'
p614
aS'->'
p615
aS'variable_28'
p616
ag28
ag24
ag112
aS'&&'
p617
aS'variable_27'
p618
aS'->'
p619
aS'variable_38'
p620
ag117
ag25
ag118
aS'=='
p621
aS'0x00'
p622
aS'&&'
p623
aS'variable_27'
p624
aS'->'
p625
aS'variable_38'
p626
ag117
ag125
ag118
aS'=='
p627
aS'0x50'
p628
aS'&&'
p629
aS'variable_27'
p630
aS'->'
p631
aS'variable_38'
p632
ag117
ag70
ag118
aS'=='
p633
aS'0xf2'
p634
aS'&&'
p635
aS'variable_27'
p636
aS'->'
p637
aS'variable_38'
p638
ag117
ag138
ag118
aS'=='
p639
aS'0x01'
p640
ag13
aS'variable_16'
p641
aS'->'
p642
aS'variable_39'
p643
ag24
aS'min'
p644
ag6
aS'variable_27'
p645
aS'->'
p646
aS'variable_28'
p647
ag52
ag70
ag10
aS'variable_40'
p648
ag13
ag17
aS'if'
p649
ag6
aS'variable_27'
p650
aS'->'
p651
aS'variable_28'
p652
ag28
ag24
aS'variable_41'
p653
aS'&&'
p654
aS'variable_27'
p655
aS'->'
p656
aS'variable_38'
p657
ag117
ag25
ag118
aS'=='
p658
aS'0x00'
p659
aS'&&'
p660
aS'variable_27'
p661
aS'->'
p662
aS'variable_38'
p663
ag117
ag125
ag118
aS'=='
p664
aS'0x50'
p665
aS'&&'
p666
aS'variable_27'
p667
aS'->'
p668
aS'variable_38'
p669
ag117
ag70
ag118
aS'=='
p670
aS'0x43'
p671
aS'&&'
p672
aS'variable_27'
p673
aS'->'
p674
aS'variable_38'
p675
ag117
ag138
ag118
aS'=='
p676
aS'0x04'
p677
ag13
aS'variable_16'
p678
aS'->'
p679
aS'variable_42'
p680
ag24
ag125
ag17
aS'variable_16'
p681
aS'->'
p682
aS'variable_43'
p683
ag24
aS'min'
p684
ag6
aS'variable_27'
p685
aS'->'
p686
aS'variable_28'
p687
ag52
ag70
ag10
aS'variable_40'
p688
ag13
ag17
aS'variable_9'
p689
aS'+='
p690
aS'variable_27'
p691
aS'->'
p692
aS'variable_28'
p693
ag52
ag70
ag17
aa(lp694
S'static'
p695
aS'int'
p696
aS'func_0'
p697
ag6
aS'variable_0'
p698
ag8
ag8
aS'variable_1'
p699
ag10
aS'int'
p700
ag8
aS'variable_2'
p701
ag13
aS'struct'
p702
aS'variable_3'
p703
ag8
aS'variable_4'
p704
ag17
aS'struct'
p705
aS'variable_5'
p706
ag8
aS'variable_6'
p707
ag17
aS'struct'
p708
aS'variable_7'
p709
ag8
aS'variable_8'
p710
ag17
aS'variable_0'
p711
ag8
aS'variable_9'
p712
ag10
ag8
aS'variable_10'
p713
ag10
ag8
aS'variable_11'
p714
ag17
aS'uint16_t'
p715
aS'variable_12'
p716
ag24
ag25
ag17
aS'if'
p717
ag6
ag8
aS'variable_2'
p718
ag28
ag24
aS'sizeof'
p719
ag6
aS'variable_12'
p720
ag13
ag13
aS'variable_12'
p721
ag24
aS'func_1'
p722
ag6
ag8
aS'variable_1'
p723
ag13
ag17
ag8
aS'variable_2'
p724
aS'-='
p725
aS'sizeof'
p726
ag6
aS'variable_12'
p727
ag13
ag17
ag8
aS'variable_1'
p728
aS'+='
p729
aS'sizeof'
p730
ag6
aS'variable_12'
p731
ag13
ag17
aS'if'
p732
ag6
aS'variable_12'
p733
aS'=='
p734
ag25
aS'||'
p735
aS'variable_12'
p736
ag28
ag8
aS'variable_2'
p737
ag13
aS'variable_9'
p738
ag24
ag8
aS'variable_1'
p739
ag17
aS'variable_10'
p740
ag24
aS'variable_9'
p741
ag52
aS'variable_12'
p742
ag17
aS'variable_9'
p743
aS'+='
p744
aS'variable_13'
p745
ag17
aS'if'
p746
ag6
ag6
aS'variable_10'
p747
ag59
aS'variable_9'
p748
ag13
ag61
aS'12'
p749
ag13
aS'variable_9'
p750
aS'++'
p751
ag17
aS'variable_9'
p752
aS'+='
p753
ag67
ag17
aS'variable_9'
p754
aS'+='
p755
ag70
ag17
aS'variable_9'
p756
aS'+='
p757
ag70
ag17
aS'while'
p758
ag6
aS'variable_9'
p759
ag61
ag24
aS'variable_10'
p760
ag59
ag70
ag13
aS'struct'
p761
aS'variable_14'
p762
ag8
aS'variable_15'
p763
ag24
ag6
aS'void'
p764
ag8
ag13
aS'variable_9'
p765
ag17
aS'if'
p766
ag6
aS'variable_9'
p767
ag52
aS'variable_15'
p768
aS'->'
p769
aS'variable_16'
p770
ag28
aS'variable_10'
p771
ag13
aS'switch'
p772
ag6
aS'variable_15'
p773
aS'->'
p774
aS'variable_17'
p775
ag13
aS'memcpy'
p776
ag6
aS'variable_18'
p777
aS'->'
p778
aS'variable_19'
p779
ag10
aS'variable_15'
p780
aS'->'
p781
aS'variable_20'
p782
ag10
aS'variable_21'
p783
ag13
ag17
aS'memmove'
p784
ag6
ag339
aS'variable_18'
p785
aS'->'
p786
aS'variable_22'
p787
aS'.'
p788
aS'variable_23'
p789
ag10
aS'variable_24'
p790
ag10
aS'sizeof'
p791
ag6
aS'struct'
p792
aS'variable_25'
p793
ag13
ag13
ag17
aS'variable_4'
p794
ag24
ag6
aS'struct'
p795
aS'ieeetypes_dsparamset'
p796
ag8
ag13
aS'variable_9'
p797
ag17
aS'variable_18'
p798
aS'->'
p799
aS'variable_26'
p800
ag24
aS'variable_4'
p801
aS'->'
p802
aS'variable_27'
p803
ag17
aS'memcpy'
p804
ag6
ag339
aS'variable_18'
p805
aS'->'
p806
aS'variable_22'
p807
ag788
aS'variable_28'
p808
ag10
aS'variable_4'
p809
ag10
aS'sizeof'
p810
ag6
aS'struct'
p811
aS'variable_3'
p812
ag13
ag13
ag17
aS'memcpy'
p813
ag6
ag339
aS'variable_18'
p814
aS'->'
p815
aS'variable_29'
p816
ag788
aS'variable_30'
p817
ag10
aS'variable_31'
p818
ag10
aS'sizeof'
p819
ag6
aS'struct'
p820
aS'variable_32'
p821
ag13
ag13
ag17
aS'variable_6'
p822
ag24
ag6
aS'struct'
p823
aS'ieeetypes_ibssparamset'
p824
ag8
ag13
aS'variable_9'
p825
ag17
aS'variable_18'
p826
aS'->'
p827
aS'variable_33'
p828
ag24
aS'func_2'
p829
ag6
aS'variable_6'
p830
aS'->'
p831
aS'variable_33'
p832
ag13
ag17
aS'memmove'
p833
ag6
ag339
aS'variable_18'
p834
aS'->'
p835
aS'variable_29'
p836
ag788
aS'variable_34'
p837
ag10
aS'variable_6'
p838
ag10
aS'sizeof'
p839
ag6
aS'struct'
p840
aS'variable_5'
p841
ag13
ag13
ag17
aS'variable_8'
p842
ag24
ag6
aS'struct'
p843
aS'ieeetypes_countryinfoset'
p844
ag8
ag13
aS'variable_9'
p845
ag17
aS'if'
p846
ag6
aS'variable_8'
p847
aS'->'
p848
aS'variable_16'
p849
ag61
aS'sizeof'
p850
ag6
aS'variable_8'
p851
aS'->'
p852
aS'variable_35'
p853
ag13
aS'||'
p854
aS'variable_8'
p855
aS'->'
p856
aS'variable_16'
p857
ag28
aS'254'
p858
ag13
aS'memcpy'
p859
ag6
ag339
aS'variable_18'
p860
aS'->'
p861
aS'variable_36'
p862
ag10
aS'variable_8'
p863
ag10
aS'variable_8'
p864
aS'->'
p865
aS'variable_16'
p866
ag52
ag70
ag13
ag17
aS'variable_11'
p867
ag24
aS'variable_18'
p868
aS'->'
p869
aS'variable_19'
p870
ag52
aS'variable_21'
p871
ag17
aS'memcpy'
p872
ag6
aS'variable_11'
p873
ag10
aS'variable_15'
p874
aS'->'
p875
aS'variable_20'
p876
ag10
aS'variable_37'
p877
ag13
ag17
aS'variable_18'
p878
aS'->'
p879
aS'variable_38'
p880
ag24
aS'min'
p881
ag6
aS'variable_15'
p882
aS'->'
p883
aS'variable_16'
p884
ag52
ag70
ag10
aS'variable_39'
p885
ag13
ag17
aS'memcpy'
p886
ag6
aS'variable_18'
p887
aS'->'
p888
aS'variable_40'
p889
ag10
aS'variable_15'
p890
ag10
aS'variable_18'
p891
aS'->'
p892
aS'variable_38'
p893
ag13
ag17
aS'func_3'
p894
ag6
aS'variable_41'
p895
ag10
ag191
aS'WPA'
p896
aS'IE'
p897
ag191
ag10
aS'variable_18'
p898
aS'->'
p899
aS'variable_40'
p900
ag10
aS'variable_15'
p901
aS'->'
p902
aS'variable_16'
p903
ag13
ag17
aS'variable_9'
p904
aS'+='
p905
aS'variable_15'
p906
aS'->'
p907
aS'variable_16'
p908
ag52
ag70
ag17
aa(lp909
S'static'
p910
aS'int'
p911
aS'func_0'
p912
ag6
aS'variable_0'
p913
ag8
ag8
aS'variable_1'
p914
ag10
aS'int'
p915
ag8
aS'variable_2'
p916
ag13
aS'struct'
p917
aS'variable_3'
p918
ag8
aS'variable_4'
p919
ag17
aS'struct'
p920
aS'variable_5'
p921
ag8
aS'variable_6'
p922
ag17
aS'struct'
p923
aS'variable_7'
p924
ag8
aS'variable_8'
p925
ag17
aS'struct'
p926
aS'variable_9'
p927
ag8
aS'variable_10'
p928
ag17
aS'variable_0'
p929
ag8
aS'variable_11'
p930
ag10
ag8
aS'variable_12'
p931
ag10
ag8
aS'variable_13'
p932
ag17
aS'uint16_t'
p933
aS'variable_14'
p934
ag24
ag25
ag17
aS'if'
p935
ag6
ag8
aS'variable_2'
p936
ag28
ag24
aS'sizeof'
p937
ag6
aS'variable_14'
p938
ag13
ag13
aS'variable_14'
p939
ag24
aS'func_1'
p940
ag6
ag8
aS'variable_1'
p941
ag13
ag17
ag8
aS'variable_2'
p942
aS'-='
p943
aS'sizeof'
p944
ag6
aS'variable_14'
p945
ag13
ag17
ag8
aS'variable_1'
p946
aS'+='
p947
aS'sizeof'
p948
ag6
aS'variable_14'
p949
ag13
ag17
aS'if'
p950
ag6
aS'variable_14'
p951
aS'=='
p952
ag25
aS'||'
p953
aS'variable_14'
p954
ag28
ag8
aS'variable_2'
p955
ag13
aS'variable_11'
p956
ag24
ag8
aS'variable_1'
p957
ag17
aS'variable_12'
p958
ag24
aS'variable_11'
p959
ag52
aS'variable_14'
p960
ag17
aS'memcpy'
p961
ag6
aS'variable_15'
p962
aS'->'
p963
aS'variable_16'
p964
ag10
aS'variable_11'
p965
ag10
aS'variable_17'
p966
ag13
ag17
aS'variable_11'
p967
aS'+='
p968
aS'variable_17'
p969
ag17
aS'if'
p970
ag6
ag6
aS'variable_12'
p971
ag59
aS'variable_11'
p972
ag13
ag61
aS'12'
p973
ag13
aS'variable_15'
p974
aS'->'
p975
aS'variable_18'
p976
ag24
ag8
aS'variable_11'
p977
ag17
aS'variable_11'
p978
aS'++'
p979
ag17
aS'variable_11'
p980
aS'+='
p981
ag67
ag17
aS'variable_15'
p982
aS'->'
p983
aS'variable_19'
p984
ag24
aS'func_2'
p985
ag6
aS'variable_11'
p986
ag13
ag17
aS'variable_11'
p987
aS'+='
p988
ag70
ag17
aS'variable_15'
p989
aS'->'
p990
aS'variable_20'
p991
ag24
aS'func_3'
p992
ag6
aS'variable_11'
p993
ag13
ag17
aS'variable_11'
p994
aS'+='
p995
ag70
ag17
aS'if'
p996
ag6
aS'variable_15'
p997
aS'->'
p998
aS'variable_20'
p999
ag339
aS'variable_21'
p1000
ag13
aS'variable_15'
p1001
aS'->'
p1002
aS'variable_22'
p1003
ag24
aS'variable_23'
p1004
ag17
aS'variable_15'
p1005
aS'->'
p1006
aS'variable_22'
p1007
ag24
aS'variable_24'
p1008
ag17
aS'while'
p1009
ag6
aS'variable_11'
p1010
ag61
ag24
aS'variable_12'
p1011
ag59
ag70
ag13
aS'struct'
p1012
aS'variable_25'
p1013
ag8
aS'variable_26'
p1014
ag24
ag6
aS'void'
p1015
ag8
ag13
aS'variable_11'
p1016
ag17
aS'if'
p1017
ag6
aS'variable_11'
p1018
ag52
aS'variable_26'
p1019
aS'->'
p1020
aS'variable_27'
p1021
ag28
aS'variable_12'
p1022
ag13
aS'switch'
p1023
ag6
aS'variable_26'
p1024
aS'->'
p1025
aS'variable_28'
p1026
ag13
aS'variable_15'
p1027
aS'->'
p1028
aS'variable_29'
p1029
ag24
aS'func_4'
p1030
ag6
aS'int'
p1031
ag10
aS'32'
p1032
ag10
aS'variable_26'
p1033
aS'->'
p1034
aS'variable_27'
p1035
ag13
ag17
aS'variable_4'
p1036
ag24
ag6
aS'struct'
p1037
aS'ieeetypes_dsparamset'
p1038
ag8
ag13
aS'variable_11'
p1039
ag17
aS'variable_15'
p1040
aS'->'
p1041
aS'variable_30'
p1042
ag24
aS'variable_4'
p1043
aS'->'
p1044
aS'variable_31'
p1045
ag17
aS'variable_6'
p1046
ag24
ag6
aS'struct'
p1047
aS'ieeetypes_cfparamset'
p1048
ag8
ag13
aS'variable_11'
p1049
ag17
aS'memcpy'
p1050
ag6
ag339
aS'variable_15'
p1051
aS'->'
p1052
aS'variable_32'
p1053
ag788
aS'variable_33'
p1054
ag10
aS'variable_6'
p1055
ag10
aS'sizeof'
p1056
ag6
aS'struct'
p1057
aS'variable_5'
p1058
ag13
ag13
ag17
aS'variable_8'
p1059
ag24
ag6
aS'struct'
p1060
aS'ieeetypes_ibssparamset'
p1061
ag8
ag13
aS'variable_11'
p1062
ag17
aS'variable_15'
p1063
aS'->'
p1064
aS'variable_34'
p1065
ag24
aS'func_5'
p1066
ag6
aS'variable_8'
p1067
aS'->'
p1068
aS'variable_34'
p1069
ag13
ag17
aS'memmove'
p1070
ag6
ag339
aS'variable_15'
p1071
aS'->'
p1072
aS'variable_32'
p1073
ag788
aS'variable_35'
p1074
ag10
aS'variable_8'
p1075
ag10
aS'sizeof'
p1076
ag6
aS'struct'
p1077
aS'variable_7'
p1078
ag13
ag13
ag17
aS'variable_10'
p1079
ag24
ag6
aS'struct'
p1080
aS'ieeetypes_countryinfoset'
p1081
ag8
ag13
aS'variable_11'
p1082
ag17
aS'if'
p1083
ag6
aS'variable_10'
p1084
aS'->'
p1085
aS'variable_27'
p1086
ag61
aS'sizeof'
p1087
ag6
aS'variable_10'
p1088
aS'->'
p1089
aS'variable_36'
p1090
ag13
aS'||'
p1091
aS'variable_10'
p1092
aS'->'
p1093
aS'variable_27'
p1094
ag28
aS'254'
p1095
ag13
aS'memcpy'
p1096
ag6
ag339
aS'variable_15'
p1097
aS'->'
p1098
aS'variable_37'
p1099
ag10
aS'variable_10'
p1100
ag10
aS'variable_10'
p1101
aS'->'
p1102
aS'variable_27'
p1103
ag52
ag70
ag13
ag17
aS'if'
p1104
ag6
aS'variable_26'
p1105
aS'->'
p1106
aS'variable_27'
p1107
ag28
ag24
ag112
aS'&&'
p1108
aS'variable_26'
p1109
aS'->'
p1110
aS'variable_38'
p1111
ag117
ag25
ag118
aS'=='
p1112
aS'0x00'
p1113
aS'&&'
p1114
aS'variable_26'
p1115
aS'->'
p1116
aS'variable_38'
p1117
ag117
ag125
ag118
aS'=='
p1118
aS'0x50'
p1119
aS'&&'
p1120
aS'variable_26'
p1121
aS'->'
p1122
aS'variable_38'
p1123
ag117
ag70
ag118
aS'=='
p1124
aS'0xf2'
p1125
aS'&&'
p1126
aS'variable_26'
p1127
aS'->'
p1128
aS'variable_38'
p1129
ag117
ag138
ag118
aS'=='
p1130
aS'0x01'
p1131
ag13
aS'variable_15'
p1132
aS'->'
p1133
aS'variable_39'
p1134
ag24
aS'min'
p1135
ag6
aS'variable_26'
p1136
aS'->'
p1137
aS'variable_27'
p1138
ag52
ag70
ag10
aS'variable_40'
p1139
ag13
ag17
aS'if'
p1140
ag6
aS'variable_26'
p1141
aS'->'
p1142
aS'variable_27'
p1143
ag28
ag24
aS'variable_41'
p1144
aS'&&'
p1145
aS'variable_26'
p1146
aS'->'
p1147
aS'variable_38'
p1148
ag117
ag25
ag118
aS'=='
p1149
aS'0x00'
p1150
aS'&&'
p1151
aS'variable_26'
p1152
aS'->'
p1153
aS'variable_38'
p1154
ag117
ag125
ag118
aS'=='
p1155
aS'0x50'
p1156
aS'&&'
p1157
aS'variable_26'
p1158
aS'->'
p1159
aS'variable_38'
p1160
ag117
ag70
ag118
aS'=='
p1161
aS'0x43'
p1162
aS'&&'
p1163
aS'variable_26'
p1164
aS'->'
p1165
aS'variable_38'
p1166
ag117
ag138
ag118
aS'=='
p1167
aS'0x04'
p1168
ag13
aS'variable_15'
p1169
aS'->'
p1170
aS'variable_42'
p1171
ag24
ag125
ag17
aS'variable_15'
p1172
aS'->'
p1173
aS'variable_43'
p1174
ag24
aS'min'
p1175
ag6
aS'variable_26'
p1176
aS'->'
p1177
aS'variable_27'
p1178
ag52
ag70
ag10
aS'variable_40'
p1179
ag13
ag17
aS'variable_11'
p1180
aS'+='
p1181
aS'variable_26'
p1182
aS'->'
p1183
aS'variable_27'
p1184
ag52
ag70
ag17
aa(lp1185
S'static'
p1186
aS'int'
p1187
aS'func_0'
p1188
ag6
aS'variable_0'
p1189
ag8
ag8
aS'variable_1'
p1190
ag10
aS'int'
p1191
ag8
aS'variable_2'
p1192
ag13
aS'struct'
p1193
aS'variable_3'
p1194
ag8
aS'variable_4'
p1195
ag17
aS'struct'
p1196
aS'variable_5'
p1197
ag8
aS'variable_6'
p1198
ag17
aS'struct'
p1199
aS'variable_7'
p1200
ag8
aS'variable_8'
p1201
ag17
aS'struct'
p1202
aS'variable_9'
p1203
ag8
aS'variable_10'
p1204
ag17
aS'variable_0'
p1205
ag8
aS'variable_11'
p1206
ag10
ag8
aS'variable_12'
p1207
ag10
ag8
aS'variable_13'
p1208
ag17
aS'uint16_t'
p1209
aS'variable_14'
p1210
ag24
ag25
ag17
aS'if'
p1211
ag6
ag8
aS'variable_2'
p1212
ag28
ag24
aS'sizeof'
p1213
ag6
aS'variable_14'
p1214
ag13
ag13
aS'variable_14'
p1215
ag24
aS'func_1'
p1216
ag6
ag8
aS'variable_1'
p1217
ag13
ag17
ag8
aS'variable_2'
p1218
aS'-='
p1219
aS'sizeof'
p1220
ag6
aS'variable_14'
p1221
ag13
ag17
ag8
aS'variable_1'
p1222
aS'+='
p1223
aS'sizeof'
p1224
ag6
aS'variable_14'
p1225
ag13
ag17
aS'if'
p1226
ag6
aS'variable_14'
p1227
aS'=='
p1228
ag25
aS'||'
p1229
aS'variable_14'
p1230
ag28
ag8
aS'variable_2'
p1231
ag13
aS'variable_11'
p1232
ag24
ag8
aS'variable_1'
p1233
ag17
aS'variable_12'
p1234
ag24
aS'variable_11'
p1235
ag52
aS'variable_14'
p1236
ag17
aS'memcpy'
p1237
ag6
aS'variable_15'
p1238
aS'->'
p1239
aS'variable_16'
p1240
ag10
aS'variable_11'
p1241
ag10
aS'variable_17'
p1242
ag13
ag17
aS'variable_11'
p1243
aS'+='
p1244
aS'variable_17'
p1245
ag17
aS'if'
p1246
ag6
ag6
aS'variable_12'
p1247
ag59
aS'variable_11'
p1248
ag13
ag61
aS'12'
p1249
ag13
aS'variable_15'
p1250
aS'->'
p1251
aS'variable_18'
p1252
ag24
ag8
aS'variable_11'
p1253
ag17
aS'variable_11'
p1254
aS'++'
p1255
ag17
aS'variable_11'
p1256
aS'+='
p1257
ag67
ag17
aS'variable_15'
p1258
aS'->'
p1259
aS'variable_19'
p1260
ag24
aS'func_2'
p1261
ag6
aS'variable_11'
p1262
ag13
ag17
aS'variable_11'
p1263
aS'+='
p1264
ag70
ag17
aS'variable_15'
p1265
aS'->'
p1266
aS'variable_20'
p1267
ag24
aS'func_3'
p1268
ag6
aS'variable_11'
p1269
ag13
ag17
aS'variable_11'
p1270
aS'+='
p1271
ag70
ag17
aS'if'
p1272
ag6
aS'variable_15'
p1273
aS'->'
p1274
aS'variable_20'
p1275
ag339
aS'variable_21'
p1276
ag13
aS'variable_15'
p1277
aS'->'
p1278
aS'variable_22'
p1279
ag24
aS'variable_23'
p1280
ag17
aS'variable_15'
p1281
aS'->'
p1282
aS'variable_22'
p1283
ag24
aS'variable_24'
p1284
ag17
aS'while'
p1285
ag6
aS'variable_11'
p1286
ag61
ag24
aS'variable_12'
p1287
ag59
ag70
ag13
aS'struct'
p1288
aS'variable_25'
p1289
ag8
aS'variable_26'
p1290
ag24
ag6
aS'void'
p1291
ag8
ag13
aS'variable_11'
p1292
ag17
aS'if'
p1293
ag6
aS'variable_11'
p1294
ag52
aS'variable_26'
p1295
aS'->'
p1296
aS'variable_27'
p1297
ag28
aS'variable_12'
p1298
ag13
aS'switch'
p1299
ag6
aS'variable_26'
p1300
aS'->'
p1301
aS'variable_28'
p1302
ag13
aS'variable_15'
p1303
aS'->'
p1304
aS'variable_29'
p1305
ag24
aS'func_4'
p1306
ag6
aS'int'
p1307
ag10
aS'32'
p1308
ag10
aS'variable_26'
p1309
aS'->'
p1310
aS'variable_27'
p1311
ag13
ag17
aS'variable_4'
p1312
ag24
ag6
aS'struct'
p1313
aS'ieeetypes_fhparamset'
p1314
ag8
ag13
aS'variable_11'
p1315
ag17
aS'memmove'
p1316
ag6
ag339
aS'variable_15'
p1317
aS'->'
p1318
aS'variable_30'
p1319
ag788
aS'variable_31'
p1320
ag10
aS'variable_4'
p1321
ag10
aS'sizeof'
p1322
ag6
aS'struct'
p1323
aS'variable_3'
p1324
ag13
ag13
ag17
aS'variable_6'
p1325
ag24
ag6
aS'struct'
p1326
aS'ieeetypes_dsparamset'
p1327
ag8
ag13
aS'variable_11'
p1328
ag17
aS'variable_15'
p1329
aS'->'
p1330
aS'variable_32'
p1331
ag24
aS'variable_6'
p1332
aS'->'
p1333
aS'variable_33'
p1334
ag17
aS'memcpy'
p1335
ag6
ag339
aS'variable_15'
p1336
aS'->'
p1337
aS'variable_30'
p1338
ag788
aS'variable_34'
p1339
ag10
aS'variable_6'
p1340
ag10
aS'sizeof'
p1341
ag6
aS'struct'
p1342
aS'variable_5'
p1343
ag13
ag13
ag17
aS'variable_8'
p1344
ag24
ag6
aS'struct'
p1345
aS'ieeetypes_ibssparamset'
p1346
ag8
ag13
aS'variable_11'
p1347
ag17
aS'variable_15'
p1348
aS'->'
p1349
aS'variable_35'
p1350
ag24
aS'func_5'
p1351
ag6
aS'variable_8'
p1352
aS'->'
p1353
aS'variable_35'
p1354
ag13
ag17
aS'variable_10'
p1355
ag24
ag6
aS'struct'
p1356
aS'ieeetypes_countryinfoset'
p1357
ag8
ag13
aS'variable_11'
p1358
ag17
aS'if'
p1359
ag6
aS'variable_10'
p1360
aS'->'
p1361
aS'variable_27'
p1362
ag61
aS'sizeof'
p1363
ag6
aS'variable_10'
p1364
aS'->'
p1365
aS'variable_36'
p1366
ag13
aS'||'
p1367
aS'variable_10'
p1368
aS'->'
p1369
aS'variable_27'
p1370
ag28
aS'254'
p1371
ag13
aS'memcpy'
p1372
ag6
ag339
aS'variable_15'
p1373
aS'->'
p1374
aS'variable_37'
p1375
ag10
aS'variable_10'
p1376
ag10
aS'variable_10'
p1377
aS'->'
p1378
aS'variable_27'
p1379
ag52
ag70
ag13
ag17
aS'if'
p1380
ag6
aS'variable_26'
p1381
aS'->'
p1382
aS'variable_27'
p1383
ag28
ag24
ag112
aS'&&'
p1384
aS'variable_26'
p1385
aS'->'
p1386
aS'variable_38'
p1387
ag117
ag25
ag118
aS'=='
p1388
aS'0x00'
p1389
aS'&&'
p1390
aS'variable_26'
p1391
aS'->'
p1392
aS'variable_38'
p1393
ag117
ag125
ag118
aS'=='
p1394
aS'0x50'
p1395
aS'&&'
p1396
aS'variable_26'
p1397
aS'->'
p1398
aS'variable_38'
p1399
ag117
ag70
ag118
aS'=='
p1400
aS'0xf2'
p1401
aS'&&'
p1402
aS'variable_26'
p1403
aS'->'
p1404
aS'variable_38'
p1405
ag117
ag138
ag118
aS'=='
p1406
aS'0x01'
p1407
ag13
aS'variable_15'
p1408
aS'->'
p1409
aS'variable_39'
p1410
ag24
aS'min'
p1411
ag6
aS'variable_26'
p1412
aS'->'
p1413
aS'variable_27'
p1414
ag52
ag70
ag10
aS'variable_40'
p1415
ag13
ag17
aS'if'
p1416
ag6
aS'variable_26'
p1417
aS'->'
p1418
aS'variable_27'
p1419
ag28
ag24
aS'variable_41'
p1420
aS'&&'
p1421
aS'variable_26'
p1422
aS'->'
p1423
aS'variable_38'
p1424
ag117
ag25
ag118
aS'=='
p1425
aS'0x00'
p1426
aS'&&'
p1427
aS'variable_26'
p1428
aS'->'
p1429
aS'variable_38'
p1430
ag117
ag125
ag118
aS'=='
p1431
aS'0x50'
p1432
aS'&&'
p1433
aS'variable_26'
p1434
aS'->'
p1435
aS'variable_38'
p1436
ag117
ag70
ag118
aS'=='
p1437
aS'0x43'
p1438
aS'&&'
p1439
aS'variable_26'
p1440
aS'->'
p1441
aS'variable_38'
p1442
ag117
ag138
ag118
aS'=='
p1443
aS'0x04'
p1444
ag13
aS'variable_15'
p1445
aS'->'
p1446
aS'variable_42'
p1447
ag24
ag125
ag17
aS'variable_15'
p1448
aS'->'
p1449
aS'variable_43'
p1450
ag24
aS'min'
p1451
ag6
aS'variable_26'
p1452
aS'->'
p1453
aS'variable_27'
p1454
ag52
ag70
ag10
aS'variable_40'
p1455
ag13
ag17
aS'variable_11'
p1456
aS'+='
p1457
aS'variable_26'
p1458
aS'->'
p1459
aS'variable_27'
p1460
ag52
ag70
ag17
aa(lp1461
S'static'
p1462
aS'int'
p1463
aS'func_0'
p1464
ag6
aS'variable_0'
p1465
ag8
ag8
aS'variable_1'
p1466
ag10
aS'int'
p1467
ag8
aS'variable_2'
p1468
ag13
aS'struct'
p1469
aS'variable_3'
p1470
ag8
aS'variable_4'
p1471
ag17
aS'struct'
p1472
aS'variable_5'
p1473
ag8
aS'variable_6'
p1474
ag17
aS'struct'
p1475
aS'variable_7'
p1476
ag8
aS'variable_8'
p1477
ag17
aS'variable_0'
p1478
ag8
aS'variable_9'
p1479
ag10
ag8
aS'variable_10'
p1480
ag10
ag8
aS'variable_11'
p1481
ag17
aS'uint16_t'
p1482
aS'variable_12'
p1483
ag24
ag25
ag17
aS'if'
p1484
ag6
ag8
aS'variable_2'
p1485
ag28
ag24
aS'sizeof'
p1486
ag6
aS'variable_12'
p1487
ag13
ag13
aS'variable_12'
p1488
ag24
aS'func_1'
p1489
ag6
ag8
aS'variable_1'
p1490
ag13
ag17
ag8
aS'variable_2'
p1491
aS'-='
p1492
aS'sizeof'
p1493
ag6
aS'variable_12'
p1494
ag13
ag17
ag8
aS'variable_1'
p1495
aS'+='
p1496
aS'sizeof'
p1497
ag6
aS'variable_12'
p1498
ag13
ag17
aS'if'
p1499
ag6
aS'variable_12'
p1500
aS'=='
p1501
ag25
aS'||'
p1502
aS'variable_12'
p1503
ag28
ag8
aS'variable_2'
p1504
ag13
aS'variable_9'
p1505
ag24
ag8
aS'variable_1'
p1506
ag17
aS'variable_10'
p1507
ag24
aS'variable_9'
p1508
ag52
aS'variable_12'
p1509
ag17
aS'memcpy'
p1510
ag6
aS'variable_13'
p1511
aS'->'
p1512
aS'variable_14'
p1513
ag10
aS'variable_9'
p1514
ag10
aS'variable_15'
p1515
ag13
ag17
aS'variable_9'
p1516
aS'+='
p1517
aS'variable_15'
p1518
ag17
aS'if'
p1519
ag6
ag6
aS'variable_10'
p1520
ag59
aS'variable_9'
p1521
ag13
ag61
aS'12'
p1522
ag13
aS'variable_13'
p1523
aS'->'
p1524
aS'variable_16'
p1525
ag24
ag8
aS'variable_9'
p1526
ag17
aS'variable_9'
p1527
aS'++'
p1528
ag17
aS'variable_9'
p1529
aS'+='
p1530
ag67
ag17
aS'variable_13'
p1531
aS'->'
p1532
aS'variable_17'
p1533
ag24
aS'func_2'
p1534
ag6
aS'variable_9'
p1535
ag13
ag17
aS'variable_9'
p1536
aS'+='
p1537
ag70
ag17
aS'variable_13'
p1538
aS'->'
p1539
aS'variable_18'
p1540
ag24
aS'func_3'
p1541
ag6
aS'variable_9'
p1542
ag13
ag17
aS'variable_9'
p1543
aS'+='
p1544
ag70
ag17
aS'if'
p1545
ag6
aS'variable_13'
p1546
aS'->'
p1547
aS'variable_18'
p1548
ag339
aS'variable_19'
p1549
ag13
aS'variable_13'
p1550
aS'->'
p1551
aS'variable_20'
p1552
ag24
aS'variable_21'
p1553
ag17
aS'variable_13'
p1554
aS'->'
p1555
aS'variable_20'
p1556
ag24
aS'variable_22'
p1557
ag17
aS'while'
p1558
ag6
aS'variable_9'
p1559
ag61
ag24
aS'variable_10'
p1560
ag59
ag70
ag13
aS'struct'
p1561
aS'variable_23'
p1562
ag8
aS'variable_24'
p1563
ag24
ag6
aS'void'
p1564
ag8
ag13
aS'variable_9'
p1565
ag17
aS'if'
p1566
ag6
aS'variable_9'
p1567
ag52
aS'variable_24'
p1568
aS'->'
p1569
aS'variable_25'
p1570
ag28
aS'variable_10'
p1571
ag13
aS'switch'
p1572
ag6
aS'variable_24'
p1573
aS'->'
p1574
aS'variable_26'
p1575
ag13
aS'variable_13'
p1576
aS'->'
p1577
aS'variable_27'
p1578
ag24
aS'func_4'
p1579
ag6
aS'int'
p1580
ag10
aS'32'
p1581
ag10
aS'variable_24'
p1582
aS'->'
p1583
aS'variable_25'
p1584
ag13
ag17
aS'memcpy'
p1585
ag6
aS'variable_13'
p1586
aS'->'
p1587
aS'variable_28'
p1588
ag10
aS'variable_24'
p1589
aS'->'
p1590
aS'variable_29'
p1591
ag10
aS'variable_13'
p1592
aS'->'
p1593
aS'variable_27'
p1594
ag13
ag17
aS'variable_30'
p1595
ag24
aS'func_5'
p1596
ag6
aS'variable_0'
p1597
ag10
aS'variable_31'
p1598
ag10
aS'variable_24'
p1599
aS'->'
p1600
aS'variable_25'
p1601
ag13
ag17
aS'memcpy'
p1602
ag6
aS'variable_13'
p1603
aS'->'
p1604
aS'variable_32'
p1605
ag10
aS'variable_24'
p1606
aS'->'
p1607
aS'variable_29'
p1608
ag10
aS'variable_30'
p1609
ag13
ag17
aS'variable_4'
p1610
ag24
ag6
aS'struct'
p1611
aS'ieeetypes_dsparamset'
p1612
ag8
ag13
aS'variable_9'
p1613
ag17
aS'variable_13'
p1614
aS'->'
p1615
aS'variable_33'
p1616
ag24
aS'variable_4'
p1617
aS'->'
p1618
aS'variable_34'
p1619
ag17
aS'variable_6'
p1620
ag24
ag6
aS'struct'
p1621
aS'ieeetypes_ibssparamset'
p1622
ag8
ag13
aS'variable_9'
p1623
ag17
aS'variable_13'
p1624
aS'->'
p1625
aS'variable_35'
p1626
ag24
aS'func_6'
p1627
ag6
aS'variable_6'
p1628
aS'->'
p1629
aS'variable_35'
p1630
ag13
ag17
aS'variable_8'
p1631
ag24
ag6
aS'struct'
p1632
aS'ieeetypes_countryinfoset'
p1633
ag8
ag13
aS'variable_9'
p1634
ag17
aS'if'
p1635
ag6
aS'variable_8'
p1636
aS'->'
p1637
aS'variable_25'
p1638
ag61
aS'sizeof'
p1639
ag6
aS'variable_8'
p1640
aS'->'
p1641
aS'variable_36'
p1642
ag13
aS'||'
p1643
aS'variable_8'
p1644
aS'->'
p1645
aS'variable_25'
p1646
ag28
aS'254'
p1647
ag13
aS'memcpy'
p1648
ag6
ag339
aS'variable_13'
p1649
aS'->'
p1650
aS'variable_37'
p1651
ag10
aS'variable_8'
p1652
ag10
aS'variable_8'
p1653
aS'->'
p1654
aS'variable_25'
p1655
ag52
ag70
ag13
ag17
aS'if'
p1656
ag6
aS'variable_24'
p1657
aS'->'
p1658
aS'variable_25'
p1659
ag28
ag24
ag112
aS'&&'
p1660
aS'variable_24'
p1661
aS'->'
p1662
aS'variable_29'
p1663
ag117
ag25
ag118
aS'=='
p1664
aS'0x00'
p1665
aS'&&'
p1666
aS'variable_24'
p1667
aS'->'
p1668
aS'variable_29'
p1669
ag117
ag125
ag118
aS'=='
p1670
aS'0x50'
p1671
aS'&&'
p1672
aS'variable_24'
p1673
aS'->'
p1674
aS'variable_29'
p1675
ag117
ag70
ag118
aS'=='
p1676
aS'0xf2'
p1677
aS'&&'
p1678
aS'variable_24'
p1679
aS'->'
p1680
aS'variable_29'
p1681
ag117
ag138
ag118
aS'=='
p1682
aS'0x01'
p1683
ag13
aS'variable_13'
p1684
aS'->'
p1685
aS'variable_38'
p1686
ag24
aS'min'
p1687
ag6
aS'variable_24'
p1688
aS'->'
p1689
aS'variable_25'
p1690
ag52
ag70
ag10
aS'variable_39'
p1691
ag13
ag17
aS'if'
p1692
ag6
aS'variable_24'
p1693
aS'->'
p1694
aS'variable_25'
p1695
ag28
ag24
aS'variable_40'
p1696
aS'&&'
p1697
aS'variable_24'
p1698
aS'->'
p1699
aS'variable_29'
p1700
ag117
ag25
ag118
aS'=='
p1701
aS'0x00'
p1702
aS'&&'
p1703
aS'variable_24'
p1704
aS'->'
p1705
aS'variable_29'
p1706
ag117
ag125
ag118
aS'=='
p1707
aS'0x50'
p1708
aS'&&'
p1709
aS'variable_24'
p1710
aS'->'
p1711
aS'variable_29'
p1712
ag117
ag70
ag118
aS'=='
p1713
aS'0x43'
p1714
aS'&&'
p1715
aS'variable_24'
p1716
aS'->'
p1717
aS'variable_29'
p1718
ag117
ag138
ag118
aS'=='
p1719
aS'0x04'
p1720
ag13
aS'variable_13'
p1721
aS'->'
p1722
aS'variable_41'
p1723
ag24
ag125
ag17
aS'variable_13'
p1724
aS'->'
p1725
aS'variable_42'
p1726
ag24
aS'min'
p1727
ag6
aS'variable_24'
p1728
aS'->'
p1729
aS'variable_25'
p1730
ag52
ag70
ag10
aS'variable_39'
p1731
ag13
ag17
aS'variable_9'
p1732
aS'+='
p1733
aS'variable_24'
p1734
aS'->'
p1735
aS'variable_25'
p1736
ag52
ag70
ag17
aa(lp1737
S'static'
p1738
aS'int'
p1739
aS'func_0'
p1740
ag6
aS'variable_0'
p1741
ag8
ag8
aS'variable_1'
p1742
ag10
aS'int'
p1743
ag8
aS'variable_2'
p1744
ag13
aS'struct'
p1745
aS'variable_3'
p1746
ag8
aS'variable_4'
p1747
ag17
aS'variable_0'
p1748
ag8
aS'variable_5'
p1749
ag10
ag8
aS'variable_6'
p1750
ag10
ag8
aS'variable_7'
p1751
ag17
aS'uint16_t'
p1752
aS'variable_8'
p1753
ag24
ag25
ag17
aS'if'
p1754
ag6
ag8
aS'variable_2'
p1755
ag28
ag24
aS'sizeof'
p1756
ag6
aS'variable_8'
p1757
ag13
ag13
aS'variable_8'
p1758
ag24
aS'func_1'
p1759
ag6
ag8
aS'variable_1'
p1760
ag13
ag17
ag8
aS'variable_2'
p1761
aS'-='
p1762
aS'sizeof'
p1763
ag6
aS'variable_8'
p1764
ag13
ag17
ag8
aS'variable_1'
p1765
aS'+='
p1766
aS'sizeof'
p1767
ag6
aS'variable_8'
p1768
ag13
ag17
aS'if'
p1769
ag6
aS'variable_8'
p1770
aS'=='
p1771
ag25
aS'||'
p1772
aS'variable_8'
p1773
ag28
ag8
aS'variable_2'
p1774
ag13
aS'variable_5'
p1775
ag24
ag8
aS'variable_1'
p1776
ag17
aS'variable_6'
p1777
ag24
aS'variable_5'
p1778
ag52
aS'variable_8'
p1779
ag17
aS'memcpy'
p1780
ag6
aS'variable_9'
p1781
aS'->'
p1782
aS'variable_10'
p1783
ag10
aS'variable_5'
p1784
ag10
aS'variable_11'
p1785
ag13
ag17
aS'variable_5'
p1786
aS'+='
p1787
aS'variable_11'
p1788
ag17
aS'if'
p1789
ag6
ag6
aS'variable_6'
p1790
ag59
aS'variable_5'
p1791
ag13
ag61
aS'12'
p1792
ag13
aS'variable_9'
p1793
aS'->'
p1794
aS'variable_12'
p1795
ag24
ag8
aS'variable_5'
p1796
ag17
aS'variable_5'
p1797
aS'++'
p1798
ag17
aS'variable_5'
p1799
aS'+='
p1800
ag67
ag17
aS'variable_9'
p1801
aS'->'
p1802
aS'variable_13'
p1803
ag24
aS'func_2'
p1804
ag6
aS'variable_5'
p1805
ag13
ag17
aS'variable_5'
p1806
aS'+='
p1807
ag70
ag17
aS'variable_9'
p1808
aS'->'
p1809
aS'variable_14'
p1810
ag24
aS'func_3'
p1811
ag6
aS'variable_5'
p1812
ag13
ag17
aS'variable_5'
p1813
aS'+='
p1814
ag70
ag17
aS'if'
p1815
ag6
aS'variable_9'
p1816
aS'->'
p1817
aS'variable_14'
p1818
ag339
aS'variable_15'
p1819
ag13
aS'variable_9'
p1820
aS'->'
p1821
aS'variable_16'
p1822
ag24
aS'variable_17'
p1823
ag17
aS'while'
p1824
ag6
aS'variable_5'
p1825
ag61
ag24
aS'variable_6'
p1826
ag59
ag70
ag13
aS'struct'
p1827
aS'variable_18'
p1828
ag8
aS'variable_19'
p1829
ag24
ag6
aS'void'
p1830
ag8
ag13
aS'variable_5'
p1831
ag17
aS'if'
p1832
ag6
aS'variable_5'
p1833
ag52
aS'variable_19'
p1834
aS'->'
p1835
aS'variable_20'
p1836
ag28
aS'variable_6'
p1837
ag13
aS'switch'
p1838
ag6
aS'variable_19'
p1839
aS'->'
p1840
aS'variable_21'
p1841
ag13
aS'variable_9'
p1842
aS'->'
p1843
aS'variable_22'
p1844
ag24
aS'func_4'
p1845
ag6
aS'int'
p1846
ag10
aS'32'
p1847
ag10
aS'variable_19'
p1848
aS'->'
p1849
aS'variable_20'
p1850
ag13
ag17
aS'memcpy'
p1851
ag6
aS'variable_9'
p1852
aS'->'
p1853
aS'variable_23'
p1854
ag10
aS'variable_19'
p1855
aS'->'
p1856
aS'variable_24'
p1857
ag10
aS'variable_9'
p1858
aS'->'
p1859
aS'variable_22'
p1860
ag13
ag17
aS'func_5'
p1861
ag6
ag191
aS'got'
p1862
aS'SSID'
p1863
aS'IE'
p1864
ag193
aS"'"
p1865
aS'%'
p1866
aS's'
p1867
ag1865
ag10
aS'len'
p1868
ag1866
aS'u'
p1869
aS'\\'
p1870
aS'n'
p1871
ag191
ag10
aS'func_6'
p1872
ag6
aS'variable_9'
p1873
aS'->'
p1874
aS'variable_23'
p1875
ag10
aS'variable_9'
p1876
aS'->'
p1877
aS'variable_22'
p1878
ag13
ag10
aS'variable_9'
p1879
aS'->'
p1880
aS'variable_22'
p1881
ag13
ag17
aS'memcpy'
p1882
ag6
aS'variable_9'
p1883
aS'->'
p1884
aS'variable_25'
p1885
ag10
aS'variable_19'
p1886
aS'->'
p1887
aS'variable_24'
p1888
ag10
aS'variable_26'
p1889
ag13
ag17
aS'variable_4'
p1890
ag24
ag6
aS'struct'
p1891
aS'ieeetypes_countryinfoset'
p1892
ag8
ag13
aS'variable_5'
p1893
ag17
aS'if'
p1894
ag6
aS'variable_4'
p1895
aS'->'
p1896
aS'variable_20'
p1897
ag61
aS'sizeof'
p1898
ag6
aS'variable_4'
p1899
aS'->'
p1900
aS'variable_27'
p1901
ag13
aS'||'
p1902
aS'variable_4'
p1903
aS'->'
p1904
aS'variable_20'
p1905
ag28
aS'254'
p1906
ag13
aS'variable_5'
p1907
aS'+='
p1908
aS'variable_19'
p1909
aS'->'
p1910
aS'variable_20'
p1911
ag52
ag70
ag17
aa(lp1912
S'static'
p1913
aS'int'
p1914
aS'func_0'
p1915
ag6
aS'variable_0'
p1916
ag8
ag8
aS'variable_1'
p1917
ag10
aS'int'
p1918
ag8
aS'variable_2'
p1919
ag13
aS'variable_0'
p1920
ag8
aS'variable_3'
p1921
ag10
ag8
aS'variable_4'
p1922
ag10
ag8
aS'variable_5'
p1923
ag17
aS'uint16_t'
p1924
aS'variable_6'
p1925
ag24
ag25
ag17
aS'if'
p1926
ag6
ag8
aS'variable_2'
p1927
ag28
ag24
aS'sizeof'
p1928
ag6
aS'variable_6'
p1929
ag13
ag13
aS'variable_6'
p1930
ag24
aS'func_1'
p1931
ag6
ag8
aS'variable_1'
p1932
ag13
ag17
ag8
aS'variable_2'
p1933
aS'-='
p1934
aS'sizeof'
p1935
ag6
aS'variable_6'
p1936
ag13
ag17
ag8
aS'variable_1'
p1937
aS'+='
p1938
aS'sizeof'
p1939
ag6
aS'variable_6'
p1940
ag13
ag17
aS'if'
p1941
ag6
aS'variable_6'
p1942
aS'=='
p1943
ag25
aS'||'
p1944
aS'variable_6'
p1945
ag28
ag8
aS'variable_2'
p1946
ag13
aS'variable_3'
p1947
ag24
ag8
aS'variable_1'
p1948
ag17
aS'memcpy'
p1949
ag6
aS'variable_7'
p1950
aS'->'
p1951
aS'variable_8'
p1952
ag10
aS'variable_3'
p1953
ag10
aS'variable_9'
p1954
ag13
ag17
aS'func_2'
p1955
ag6
ag191
aS'process_bss'
p1956
ag193
aS'BSSID'
p1957
ag1866
ag1867
ag1870
ag1871
ag191
ag10
aS'func_3'
p1958
ag6
aS'variable_10'
p1959
ag10
aS'variable_7'
p1960
aS'->'
p1961
aS'variable_8'
p1962
ag13
ag13
ag17
aS'variable_7'
p1963
aS'->'
p1964
aS'variable_11'
p1965
ag24
ag8
aS'variable_3'
p1966
ag17
aS'variable_7'
p1967
aS'->'
p1968
aS'variable_12'
p1969
ag24
aS'func_4'
p1970
ag6
aS'variable_3'
p1971
ag13
ag17
aS'variable_7'
p1972
aS'->'
p1973
aS'variable_13'
p1974
ag24
aS'func_5'
p1975
ag6
aS'variable_3'
p1976
ag13
ag17
aS'func_6'
p1977
ag6
ag191
aS'process_bss'
p1978
ag193
aS'capabilities'
p1979
aS'0x'
p1980
ag1866
aS'04x'
p1981
ag1870
ag1871
ag191
ag10
aS'variable_7'
p1982
aS'->'
p1983
aS'variable_13'
p1984
ag13
ag17
aS'if'
p1985
ag6
aS'variable_7'
p1986
aS'->'
p1987
aS'variable_13'
p1988
ag339
aS'variable_14'
p1989
ag13
aS'if'
p1990
ag6
aS'variable_7'
p1991
aS'->'
p1992
aS'variable_13'
p1993
ag339
aS'variable_15'
p1994
ag13
aS'variable_7'
p1995
aS'->'
p1996
aS'variable_16'
p1997
ag24
aS'variable_17'
p1998
ag17
aS'memcpy'
p1999
ag6
aS'variable_7'
p2000
aS'->'
p2001
aS'variable_18'
p2002
ag10
aS'variable_19'
p2003
aS'->'
p2004
aS'variable_20'
p2005
ag10
aS'variable_21'
p2006
ag13
ag17
aS'memmove'
p2007
ag6
ag339
aS'variable_7'
p2008
aS'->'
p2009
aS'variable_22'
p2010
ag788
aS'variable_23'
p2011
ag10
aS'variable_24'
p2012
ag10
aS'sizeof'
p2013
ag6
aS'struct'
p2014
aS'variable_25'
p2015
ag13
ag13
ag17
aS'memcpy'
p2016
ag6
ag339
aS'variable_7'
p2017
aS'->'
p2018
aS'variable_22'
p2019
ag788
aS'variable_26'
p2020
ag10
aS'variable_27'
p2021
ag10
aS'sizeof'
p2022
ag6
aS'struct'
p2023
aS'variable_28'
p2024
ag13
ag13
ag17
aS'memcpy'
p2025
ag6
ag339
aS'variable_7'
p2026
aS'->'
p2027
aS'variable_29'
p2028
ag788
aS'variable_30'
p2029
ag10
aS'variable_31'
p2030
ag10
aS'sizeof'
p2031
ag6
aS'struct'
p2032
aS'variable_32'
p2033
ag13
ag13
ag17
aS'memmove'
p2034
ag6
ag339
aS'variable_7'
p2035
aS'->'
p2036
aS'variable_29'
p2037
ag788
aS'variable_33'
p2038
ag10
aS'variable_34'
p2039
ag10
aS'sizeof'
p2040
ag6
aS'struct'
p2041
aS'variable_35'
p2042
ag13
ag13
ag17
aS'variable_5'
p2043
ag24
aS'variable_7'
p2044
aS'->'
p2045
aS'variable_18'
p2046
ag52
aS'variable_21'
p2047
ag17
aS'memcpy'
p2048
ag6
aS'variable_5'
p2049
ag10
aS'variable_19'
p2050
aS'->'
p2051
aS'variable_20'
p2052
ag10
aS'variable_36'
p2053
ag13
ag17
aaa(lp2054
I0
aI0
aI0
aI0
aI0
aI0
aI0
aI0
aI0
aa(lp2055
I291
aI304
aI379
aI314
aI266
aI284
aI263
aI219
aI79
aa(lp2056
(lp2057
S'main'
p2058
aa(lp2059
g2058
aa(lp2060
g2058
aa(lp2061
g2058
aa(lp2062
g2058
aa(lp2063
g2058
aa(lp2064
g2058
aa(lp2065
g2058
aa(lp2066
g2058
aaa(lp2067
S'416 /home/SySeVR/data/CVE_2008_5134_PATCHED_lbs_process_bss.c memcpy 198'
p2068
aS'417 /home/SySeVR/data/CVE_2008_5134_PATCHED_lbs_process_bss.c memcpy 179'
p2069
aS'418 /home/SySeVR/data/CVE_2008_5134_PATCHED_lbs_process_bss.c memcpy 171'
p2070
aS'419 /home/SySeVR/data/CVE_2008_5134_PATCHED_lbs_process_bss.c memcpy 149'
p2071
aS'420 /home/SySeVR/data/CVE_2008_5134_PATCHED_lbs_process_bss.c memcpy 125'
p2072
aS'421 /home/SySeVR/data/CVE_2008_5134_PATCHED_lbs_process_bss.c memcpy 118'
p2073
aS'422 /home/SySeVR/data/CVE_2008_5134_PATCHED_lbs_process_bss.c memcpy 103'
p2074
aS'423 /home/SySeVR/data/CVE_2008_5134_PATCHED_lbs_process_bss.c memcpy 95'
p2075
aS'424 /home/SySeVR/data/CVE_2008_5134_PATCHED_lbs_process_bss.c memcpy 39'
p2076
aa.