(lp0
(lp1
(lp2
S'static'
p3
aS'int'
p4
aS'func_0'
p5
aS'('
p6
aS'variable_0'
p7
aS'*'
p8
ag8
aS'variable_1'
p9
aS','
p10
aS'int'
p11
ag8
aS'variable_2'
p12
aS')'
p13
aS'struct'
p14
aS'variable_3'
p15
ag8
aS'variable_4'
p16
aS';'
p17
aS'struct'
p18
aS'variable_5'
p19
ag8
aS'variable_6'
p20
ag17
aS'struct'
p21
aS'variable_7'
p22
ag8
aS'variable_8'
p23
ag17
aS'variable_0'
p24
ag8
aS'variable_9'
p25
ag10
ag8
aS'variable_10'
p26
ag10
ag8
aS'variable_11'
p27
ag17
aS'uint8_t'
p28
aS'variable_12'
p29
aS'='
p30
aS'0'
p31
ag10
aS'variable_13'
p32
ag30
ag31
ag10
aS'variable_14'
p33
ag30
ag31
ag17
aS'uint16_t'
p34
aS'variable_15'
p35
ag30
ag31
ag17
aS'if'
p36
ag6
ag8
aS'variable_2'
p37
aS'>'
p38
ag30
aS'sizeof'
p39
ag6
aS'variable_15'
p40
ag13
ag13
aS'variable_15'
p41
ag30
aS'func_1'
p42
ag6
ag8
aS'variable_1'
p43
ag13
ag17
ag8
aS'variable_2'
p44
aS'-='
p45
aS'sizeof'
p46
ag6
aS'variable_15'
p47
ag13
ag17
ag8
aS'variable_1'
p48
aS'+='
p49
aS'sizeof'
p50
ag6
aS'variable_15'
p51
ag13
ag17
aS'if'
p52
ag6
aS'variable_15'
p53
aS'=='
p54
ag31
aS'||'
p55
aS'variable_15'
p56
ag38
ag8
aS'variable_2'
p57
ag13
aS'variable_9'
p58
ag30
ag8
aS'variable_1'
p59
ag17
aS'variable_10'
p60
ag30
aS'variable_9'
p61
aS'+'
p62
aS'variable_15'
p63
ag17
aS'memcpy'
p64
ag6
aS'variable_16'
p65
aS'->'
p66
aS'variable_17'
p67
ag10
aS'variable_9'
p68
ag10
aS'variable_18'
p69
ag13
ag17
aS'variable_9'
p70
aS'+='
p71
aS'variable_18'
p72
ag17
aS'if'
p73
ag6
ag6
aS'variable_10'
p74
aS'-'
p75
aS'variable_9'
p76
ag13
aS'<'
p77
aS'12'
p78
ag13
aS'variable_16'
p79
aS'->'
p80
aS'variable_19'
p81
ag30
ag8
aS'variable_9'
p82
ag17
aS'variable_9'
p83
aS'++'
p84
ag17
aS'variable_9'
p85
aS'+='
p86
aS'8'
p87
ag17
aS'variable_16'
p88
aS'->'
p89
aS'variable_20'
p90
ag30
aS'func_2'
p91
ag6
aS'variable_9'
p92
ag13
ag17
aS'variable_9'
p93
aS'+='
p94
aS'2'
p95
ag17
aS'variable_16'
p96
aS'->'
p97
aS'variable_21'
p98
ag30
aS'func_3'
p99
ag6
aS'variable_9'
p100
ag13
ag17
aS'variable_9'
p101
aS'+='
p102
ag95
ag17
aS'if'
p103
ag6
aS'variable_16'
p104
aS'->'
p105
aS'variable_21'
p106
aS'&'
p107
aS'variable_22'
p108
ag13
aS'variable_16'
p109
aS'->'
p110
aS'variable_23'
p111
ag30
aS'variable_24'
p112
ag17
aS'variable_16'
p113
aS'->'
p114
aS'variable_23'
p115
ag30
aS'variable_25'
p116
ag17
aS'while'
p117
ag6
aS'variable_9'
p118
ag77
ag30
aS'variable_10'
p119
ag75
ag95
ag13
aS'struct'
p120
aS'variable_26'
p121
ag8
aS'variable_27'
p122
ag30
ag6
aS'void'
p123
ag8
ag13
aS'variable_9'
p124
ag17
aS'if'
p125
ag6
aS'variable_9'
p126
ag62
aS'variable_27'
p127
aS'->'
p128
aS'variable_28'
p129
ag38
aS'variable_10'
p130
ag13
aS'switch'
p131
ag6
aS'variable_27'
p132
aS'->'
p133
aS'variable_29'
p134
ag13
aS'variable_16'
p135
aS'->'
p136
aS'variable_30'
p137
ag30
aS'func_4'
p138
ag6
aS'int'
p139
ag10
aS'32'
p140
ag10
aS'variable_27'
p141
aS'->'
p142
aS'variable_28'
p143
ag13
ag17
aS'variable_14'
p144
ag30
aS'func_5'
p145
ag6
aS'variable_0'
p146
ag10
aS'variable_31'
p147
ag10
aS'variable_27'
p148
aS'->'
p149
aS'variable_28'
p150
ag13
ag17
aS'variable_13'
p151
ag30
aS'1'
p152
ag17
aS'variable_4'
p153
ag30
ag6
aS'struct'
p154
aS'ieeetypes_dsparamset'
p155
ag8
ag13
aS'variable_9'
p156
ag17
aS'variable_16'
p157
aS'->'
p158
aS'variable_32'
p159
ag30
aS'variable_4'
p160
aS'->'
p161
aS'variable_33'
p162
ag17
aS'variable_6'
p163
ag30
ag6
aS'struct'
p164
aS'ieeetypes_ibssparamset'
p165
ag8
ag13
aS'variable_9'
p166
ag17
aS'variable_16'
p167
aS'->'
p168
aS'variable_34'
p169
ag30
aS'func_6'
p170
ag6
aS'variable_6'
p171
aS'->'
p172
aS'variable_34'
p173
ag13
ag17
aS'variable_8'
p174
ag30
ag6
aS'struct'
p175
aS'ieeetypes_countryinfoset'
p176
ag8
ag13
aS'variable_9'
p177
ag17
aS'if'
p178
ag6
aS'variable_8'
p179
aS'->'
p180
aS'variable_28'
p181
ag77
aS'sizeof'
p182
ag6
aS'variable_8'
p183
aS'->'
p184
aS'variable_35'
p185
ag13
aS'||'
p186
aS'variable_8'
p187
aS'->'
p188
aS'variable_28'
p189
ag38
aS'254'
p190
ag13
aS'memcpy'
p191
ag6
ag107
aS'variable_16'
p192
aS'->'
p193
aS'variable_36'
p194
ag10
aS'variable_8'
p195
ag10
aS'variable_8'
p196
aS'->'
p197
aS'variable_28'
p198
ag62
ag95
ag13
ag17
aS'if'
p199
ag6
aS'!'
p200
aS'variable_13'
p201
ag13
aS'variable_11'
p202
ag30
aS'variable_16'
p203
aS'->'
p204
aS'variable_37'
p205
ag62
aS'variable_14'
p206
ag17
aS'memcpy'
p207
ag6
aS'variable_11'
p208
ag10
aS'variable_27'
p209
aS'->'
p210
aS'variable_38'
p211
ag10
aS'variable_12'
p212
ag13
ag17
aS'if'
p213
ag6
aS'variable_27'
p214
aS'->'
p215
aS'variable_28'
p216
ag38
ag30
aS'4'
p217
aS'&&'
p218
aS'variable_27'
p219
aS'->'
p220
aS'variable_38'
p221
aS'['
p222
ag31
aS']'
p223
aS'=='
p224
aS'0x00'
p225
aS'&&'
p226
aS'variable_27'
p227
aS'->'
p228
aS'variable_38'
p229
ag222
ag152
ag223
aS'=='
p230
aS'0x50'
p231
aS'&&'
p232
aS'variable_27'
p233
aS'->'
p234
aS'variable_38'
p235
ag222
ag95
ag223
aS'=='
p236
aS'0xf2'
p237
aS'&&'
p238
aS'variable_27'
p239
aS'->'
p240
aS'variable_38'
p241
ag222
aS'3'
p242
ag223
aS'=='
p243
aS'0x01'
p244
ag13
aS'variable_16'
p245
aS'->'
p246
aS'variable_39'
p247
ag30
aS'min'
p248
ag6
aS'variable_27'
p249
aS'->'
p250
aS'variable_28'
p251
ag62
ag95
ag10
aS'variable_40'
p252
ag13
ag17
aS'if'
p253
ag6
aS'variable_27'
p254
aS'->'
p255
aS'variable_28'
p256
ag38
ag30
aS'variable_41'
p257
aS'&&'
p258
aS'variable_27'
p259
aS'->'
p260
aS'variable_38'
p261
ag222
ag31
ag223
aS'=='
p262
aS'0x00'
p263
aS'&&'
p264
aS'variable_27'
p265
aS'->'
p266
aS'variable_38'
p267
ag222
ag152
ag223
aS'=='
p268
aS'0x50'
p269
aS'&&'
p270
aS'variable_27'
p271
aS'->'
p272
aS'variable_38'
p273
ag222
ag95
ag223
aS'=='
p274
aS'0x43'
p275
aS'&&'
p276
aS'variable_27'
p277
aS'->'
p278
aS'variable_38'
p279
ag222
ag242
ag223
aS'=='
p280
aS'0x04'
p281
ag13
aS'variable_16'
p282
aS'->'
p283
aS'variable_42'
p284
ag30
ag152
ag17
aS'variable_16'
p285
aS'->'
p286
aS'variable_43'
p287
ag30
aS'min'
p288
ag6
aS'variable_27'
p289
aS'->'
p290
aS'variable_28'
p291
ag62
ag95
ag10
aS'variable_40'
p292
ag13
ag17
aS'variable_9'
p293
aS'+='
p294
aS'variable_27'
p295
aS'->'
p296
aS'variable_28'
p297
ag62
ag95
ag17
aa(lp298
S'static'
p299
aS'int'
p300
aS'func_0'
p301
ag6
aS'variable_0'
p302
ag8
ag8
aS'variable_1'
p303
ag10
aS'int'
p304
ag8
aS'variable_2'
p305
ag13
aS'struct'
p306
aS'variable_3'
p307
ag8
aS'variable_4'
p308
ag17
aS'variable_0'
p309
ag8
aS'variable_5'
p310
ag10
ag8
aS'variable_6'
p311
ag10
ag8
aS'variable_7'
p312
ag17
aS'uint8_t'
p313
aS'variable_8'
p314
ag30
ag31
ag10
aS'variable_9'
p315
ag30
ag31
ag10
aS'variable_10'
p316
ag30
ag31
ag17
aS'uint16_t'
p317
aS'variable_11'
p318
ag30
ag31
ag17
aS'if'
p319
ag6
ag8
aS'variable_2'
p320
ag38
ag30
aS'sizeof'
p321
ag6
aS'variable_11'
p322
ag13
ag13
aS'variable_11'
p323
ag30
aS'func_1'
p324
ag6
ag8
aS'variable_1'
p325
ag13
ag17
ag8
aS'variable_2'
p326
aS'-='
p327
aS'sizeof'
p328
ag6
aS'variable_11'
p329
ag13
ag17
ag8
aS'variable_1'
p330
aS'+='
p331
aS'sizeof'
p332
ag6
aS'variable_11'
p333
ag13
ag17
aS'if'
p334
ag6
aS'variable_11'
p335
aS'=='
p336
ag31
aS'||'
p337
aS'variable_11'
p338
ag38
ag8
aS'variable_2'
p339
ag13
aS'variable_5'
p340
ag30
ag8
aS'variable_1'
p341
ag17
aS'variable_6'
p342
ag30
aS'variable_5'
p343
ag62
aS'variable_11'
p344
ag17
aS'variable_5'
p345
aS'+='
p346
aS'variable_12'
p347
ag17
aS'if'
p348
ag6
ag6
aS'variable_6'
p349
ag75
aS'variable_5'
p350
ag13
ag77
aS'12'
p351
ag13
aS'variable_5'
p352
aS'++'
p353
ag17
aS'variable_5'
p354
aS'+='
p355
ag87
ag17
aS'variable_5'
p356
aS'+='
p357
ag95
ag17
aS'variable_5'
p358
aS'+='
p359
ag95
ag17
aS'while'
p360
ag6
aS'variable_5'
p361
ag77
ag30
aS'variable_6'
p362
ag75
ag95
ag13
aS'struct'
p363
aS'variable_13'
p364
ag8
aS'variable_14'
p365
ag30
ag6
aS'void'
p366
ag8
ag13
aS'variable_5'
p367
ag17
aS'if'
p368
ag6
aS'variable_5'
p369
ag62
aS'variable_14'
p370
aS'->'
p371
aS'variable_15'
p372
ag38
aS'variable_6'
p373
ag13
aS'switch'
p374
ag6
aS'variable_14'
p375
aS'->'
p376
aS'variable_16'
p377
ag13
aS'variable_10'
p378
ag30
aS'func_2'
p379
ag6
aS'variable_0'
p380
ag10
aS'variable_17'
p381
ag10
aS'variable_14'
p382
aS'->'
p383
aS'variable_15'
p384
ag13
ag17
aS'variable_9'
p385
ag30
ag152
ag17
aS'variable_4'
p386
ag30
ag6
aS'struct'
p387
aS'ieeetypes_countryinfoset'
p388
ag8
ag13
aS'variable_5'
p389
ag17
aS'if'
p390
ag6
aS'variable_4'
p391
aS'->'
p392
aS'variable_15'
p393
ag77
aS'sizeof'
p394
ag6
aS'variable_4'
p395
aS'->'
p396
aS'variable_18'
p397
ag13
aS'||'
p398
aS'variable_4'
p399
aS'->'
p400
aS'variable_15'
p401
ag38
aS'254'
p402
ag13
aS'if'
p403
ag6
ag200
aS'variable_9'
p404
ag13
aS'variable_8'
p405
ag30
aS'variable_14'
p406
aS'->'
p407
aS'variable_15'
p408
ag17
aS'if'
p409
ag6
aS'variable_10'
p410
ag62
aS'variable_8'
p411
ag38
aS'variable_17'
p412
ag13
aS'variable_8'
p413
ag30
aS'variable_17'
p414
ag75
aS'variable_10'
p415
ag17
aS'memcpy'
p416
ag6
aS'variable_7'
p417
ag10
aS'variable_14'
p418
aS'->'
p419
aS'variable_19'
p420
ag10
aS'variable_8'
p421
ag13
ag17
aS'variable_5'
p422
aS'+='
p423
aS'variable_14'
p424
aS'->'
p425
aS'variable_15'
p426
ag62
ag95
ag17
aa(lp427
S'static'
p428
aS'int'
p429
aS'func_0'
p430
ag6
aS'variable_0'
p431
ag8
ag8
aS'variable_1'
p432
ag10
aS'int'
p433
ag8
aS'variable_2'
p434
ag13
aS'variable_0'
p435
ag8
aS'variable_3'
p436
ag10
ag8
aS'variable_4'
p437
ag10
ag8
aS'variable_5'
p438
ag17
aS'uint16_t'
p439
aS'variable_6'
p440
ag30
ag31
ag17
aS'if'
p441
ag6
ag8
aS'variable_2'
p442
ag38
ag30
aS'sizeof'
p443
ag6
aS'variable_6'
p444
ag13
ag13
aS'variable_6'
p445
ag30
aS'func_1'
p446
ag6
ag8
aS'variable_1'
p447
ag13
ag17
ag8
aS'variable_2'
p448
aS'-='
p449
aS'sizeof'
p450
ag6
aS'variable_6'
p451
ag13
ag17
ag8
aS'variable_1'
p452
aS'+='
p453
aS'sizeof'
p454
ag6
aS'variable_6'
p455
ag13
ag17
aS'if'
p456
ag6
aS'variable_6'
p457
aS'=='
p458
ag31
aS'||'
p459
aS'variable_6'
p460
ag38
ag8
aS'variable_2'
p461
ag13
aS'variable_3'
p462
ag30
ag8
aS'variable_1'
p463
ag17
aS'variable_4'
p464
ag30
aS'variable_3'
p465
ag62
aS'variable_6'
p466
ag17
aS'if'
p467
ag6
ag6
aS'variable_4'
p468
ag75
aS'variable_3'
p469
ag13
ag77
aS'12'
p470
ag13
aS'func_2'
p471
ag6
aS'"'
p472
aS'process_bss'
p473
aS':'
p474
aS'IE'
p475
aS'len'
p476
aS'%'
p477
aS'zd'
p478
aS'\\'
p479
aS'n'
p480
ag472
ag10
aS'variable_4'
p481
ag75
aS'variable_3'
p482
ag13
ag17
aS'func_3'
p483
ag6
aS'variable_7'
p484
ag10
ag472
aS'process_bss'
p485
ag474
aS'IE'
p486
aS'info'
p487
ag472
ag10
aS'variable_3'
p488
ag10
aS'variable_4'
p489
ag75
aS'variable_3'
p490
ag13
ag17
aS'while'
p491
ag6
aS'variable_3'
p492
ag77
ag30
aS'variable_4'
p493
ag75
ag95
ag13
aS'if'
p494
ag6
aS'variable_3'
p495
ag62
aS'variable_8'
p496
aS'->'
p497
aS'variable_9'
p498
ag38
aS'variable_4'
p499
ag13
aaa(lp500
I0
aI0
aI0
aa(lp501
I357
aI235
aI83
aa(lp502
(lp503
S'main'
p504
aa(lp505
g504
aa(lp506
g504
aaa(lp507
S'55 /home/SySeVR/data/CVE_2008_5134_PATCHED_lbs_process_bss.c p = bss -> rates + n_basic_rates 170'
p508
aS'56 /home/SySeVR/data/CVE_2008_5134_PATCHED_lbs_process_bss.c n_ex_rates = MAX_RATES - n_basic_rates 168'
p509
aS'57 /home/SySeVR/data/CVE_2008_5134_PATCHED_lbs_process_bss.c end = pos + beaconsize 33'
p510
aa.