(lp0
(lp1
(lp2
S'NS_IMETHODIMP'
p3
aS'variable_0'
p4
aS':'
p5
ag5
aS'func_0'
p6
aS'('
p7
aS'const'
p8
aS'char'
p9
aS'*'
p10
aS'variable_1'
p11
aS','
p12
aS'variable_2'
p13
ag10
aS'variable_3'
p14
ag12
aS'variable_4'
p15
ag10
aS'variable_5'
p16
ag12
aS'variable_2'
p17
ag10
aS'variable_6'
p18
aS')'
p19
aS'const'
p20
aS'unsigned'
p21
aS'char'
p22
ag10
aS'variable_7'
p23
aS'='
p24
ag7
aS'unsigned'
p25
aS'char'
p26
ag10
ag19
aS'variable_1'
p27
aS'+'
p28
ag10
aS'variable_3'
p29
aS';'
p30
aS'const'
p31
aS'unsigned'
p32
aS'char'
p33
ag10
aS'variable_8'
p34
ag24
ag7
aS'unsigned'
p35
aS'char'
p36
ag10
ag19
aS'variable_1'
p37
ag30
aS'variable_4'
p38
ag10
aS'variable_9'
p39
ag24
aS'variable_5'
p40
ag28
ag10
aS'variable_6'
p41
ag30
aS'variable_4'
p42
ag10
aS'variable_10'
p43
ag24
aS'variable_5'
p44
ag30
aS'nsresult'
p45
aS'variable_11'
p46
ag30
aS'PRInt32'
p47
aS'variable_12'
p48
ag30
aS'while'
p49
ag7
aS'variable_8'
p50
aS'<'
p51
aS'variable_7'
p52
ag19
aS'switch'
p53
ag7
aS'variable_13'
p54
ag19
aS'if'
p55
ag7
aS'variable_14'
p56
aS'=='
p57
ag10
aS'variable_8'
p58
ag19
aS'variable_13'
p59
ag24
aS'variable_15'
p60
ag30
aS'if'
p61
ag7
aS'func_1'
p62
ag7
aS'variable_10'
p63
ag12
aS'variable_9'
p64
ag12
aS'1'
p65
ag19
ag19
ag10
aS'variable_10'
p66
aS'++'
p67
ag24
ag7
aS'0x80'
p68
aS'&'
p69
ag10
aS'variable_8'
p70
ag19
aS'?'
p71
aS'0xFFFD'
p72
ag5
ag7
aS'variable_4'
p73
ag19
ag10
aS'variable_8'
p74
ag30
aS'variable_13'
p75
ag24
aS'variable_16'
p76
ag30
aS'if'
p77
ag7
aS"'"
p78
aS'$'
p79
ag78
aS'=='
p80
ag10
aS'variable_8'
p81
ag19
aS'variable_13'
p82
ag24
aS'variable_17'
p83
ag30
aS'if'
p84
ag7
aS'func_2'
p85
ag7
aS'variable_10'
p86
ag12
aS'variable_9'
p87
ag12
aS'2'
p88
ag19
ag19
ag10
aS'variable_10'
p89
aS'++'
p90
ag24
ag7
aS'variable_4'
p91
ag19
aS'variable_14'
p92
ag30
ag10
aS'variable_10'
p93
aS'++'
p94
ag24
ag7
aS'0x80'
p95
ag69
ag10
aS'variable_8'
p96
ag19
ag71
aS'0xFFFD'
p97
ag5
ag7
aS'variable_4'
p98
ag19
ag10
aS'variable_8'
p99
ag30
aS'variable_13'
p100
ag24
aS'variable_16'
p101
ag30
aS'if'
p102
ag7
ag78
ag19
ag78
aS'=='
p103
ag10
aS'variable_8'
p104
ag19
aS'variable_13'
p105
ag24
aS'variable_18'
p106
ag30
aS'if'
p107
ag7
ag78
ag10
ag78
aS'=='
p108
ag10
aS'variable_8'
p109
ag19
aS'variable_13'
p110
ag24
aS'variable_19'
p111
ag30
aS'if'
p112
ag7
ag78
ag28
ag78
aS'=='
p113
ag10
aS'variable_8'
p114
ag19
aS'variable_13'
p115
ag24
aS'variable_20'
p116
ag30
aS'if'
p117
ag7
aS'func_3'
p118
ag7
aS'variable_10'
p119
ag12
aS'variable_9'
p120
ag12
aS'3'
p121
ag19
ag19
ag10
aS'variable_10'
p122
aS'++'
p123
ag24
ag7
aS'variable_4'
p124
ag19
aS'variable_14'
p125
ag30
ag10
aS'variable_10'
p126
aS'++'
p127
ag24
ag7
aS'variable_4'
p128
ag19
ag78
ag79
ag78
ag30
ag10
aS'variable_10'
p129
aS'++'
p130
ag24
ag7
aS'0x80'
p131
ag69
ag10
aS'variable_8'
p132
ag19
ag71
aS'0xFFFD'
p133
ag5
ag7
aS'variable_4'
p134
ag19
ag10
aS'variable_8'
p135
ag30
aS'variable_13'
p136
ag24
aS'variable_16'
p137
ag30
aS'if'
p138
ag7
ag78
aS'A'
p139
ag78
aS'=='
p140
ag10
aS'variable_8'
p141
ag19
aS'variable_13'
p142
ag24
aS'variable_21'
p143
ag30
aS'if'
p144
ag7
ag78
aS'G'
p145
ag78
aS'=='
p146
ag10
aS'variable_8'
p147
ag19
aS'variable_13'
p148
ag24
aS'variable_22'
p149
ag30
aS'if'
p150
ag7
aS'func_4'
p151
ag7
aS'variable_10'
p152
ag12
aS'variable_9'
p153
ag12
aS'4'
p154
ag19
ag19
ag10
aS'variable_10'
p155
aS'++'
p156
ag24
ag7
aS'variable_4'
p157
ag19
aS'variable_14'
p158
ag30
ag10
aS'variable_10'
p159
aS'++'
p160
ag24
ag7
aS'variable_4'
p161
ag19
ag78
ag79
ag78
ag30
ag10
aS'variable_10'
p162
aS'++'
p163
ag24
ag7
aS'variable_4'
p164
ag19
ag78
ag19
ag78
ag30
ag10
aS'variable_10'
p165
aS'++'
p166
ag24
ag7
aS'0x80'
p167
ag69
ag10
aS'variable_8'
p168
ag19
ag71
aS'0xFFFD'
p169
ag5
ag7
aS'variable_4'
p170
ag19
ag10
aS'variable_8'
p171
ag30
aS'variable_13'
p172
ag24
aS'variable_16'
p173
ag30
aS'if'
p174
ag7
aS'variable_23'
p175
aS'=='
p176
ag10
aS'variable_8'
p177
ag19
aS'variable_13'
p178
ag24
aS'variable_24'
p179
ag30
aS'variable_25'
p180
ag24
aS'0'
p181
ag30
aS'if'
p182
ag7
aS'func_5'
p183
ag7
aS'variable_10'
p184
ag12
aS'variable_9'
p185
ag12
aS'5'
p186
ag19
ag19
ag10
aS'variable_10'
p187
aS'++'
p188
ag24
ag7
aS'variable_4'
p189
ag19
aS'variable_14'
p190
ag30
ag10
aS'variable_10'
p191
aS'++'
p192
ag24
ag7
aS'variable_4'
p193
ag19
ag78
ag79
ag78
ag30
ag10
aS'variable_10'
p194
aS'++'
p195
ag24
ag7
aS'variable_4'
p196
ag19
ag78
ag19
ag78
ag30
ag10
aS'variable_10'
p197
aS'++'
p198
ag24
ag7
aS'variable_4'
p199
ag19
ag78
ag139
ag78
ag30
ag10
aS'variable_10'
p200
aS'++'
p201
ag24
ag7
aS'0x80'
p202
ag69
ag10
aS'variable_8'
p203
ag19
ag71
aS'0xFFFD'
p204
ag5
ag7
aS'variable_4'
p205
ag19
ag10
aS'variable_8'
p206
ag30
aS'variable_13'
p207
ag24
aS'variable_16'
p208
ag30
aS'if'
p209
ag7
aS'variable_26'
p210
aS'=='
p211
ag10
aS'variable_8'
p212
ag19
aS'variable_13'
p213
ag24
aS'variable_27'
p214
ag30
aS'if'
p215
ag7
aS'variable_25'
p216
aS'=='
p217
ag181
ag19
aS'if'
p218
ag7
aS'func_6'
p219
ag7
aS'variable_10'
p220
ag12
aS'variable_9'
p221
ag12
ag65
ag19
ag19
ag10
aS'variable_10'
p222
aS'++'
p223
ag24
aS'0xFFFD'
p224
ag30
aS'variable_25'
p225
ag24
ag181
ag30
aS'if'
p226
ag7
aS'variable_14'
p227
aS'=='
p228
ag10
aS'variable_8'
p229
ag19
aS'variable_13'
p230
ag24
aS'variable_15'
p231
ag30
aS'if'
p232
ag7
aS'0x20'
p233
ag51
ag10
aS'variable_8'
p234
aS'&&'
p235
ag10
aS'variable_8'
p236
ag51
aS'0x7f'
p237
ag19
aS'variable_28'
p238
ag24
ag10
aS'variable_8'
p239
ag30
aS'variable_13'
p240
ag24
aS'variable_29'
p241
ag30
aS'if'
p242
ag7
aS'func_7'
p243
ag7
aS'variable_10'
p244
ag12
aS'variable_9'
p245
ag12
ag65
ag19
ag19
ag10
aS'variable_10'
p246
aS'++'
p247
ag24
ag7
aS'0x80'
p248
ag69
ag10
aS'variable_8'
p249
ag19
ag71
aS'0xFFFD'
p250
ag5
ag7
aS'variable_4'
p251
ag19
ag10
aS'variable_8'
p252
ag30
aS'if'
p253
ag7
aS'0x20'
p254
ag51
ag10
aS'variable_8'
p255
aS'&&'
p256
ag10
aS'variable_8'
p257
ag51
aS'0x7f'
p258
ag19
aS'unsigned'
p259
aS'char'
p260
aS'variable_30'
p261
aS'['
p262
ag88
aS']'
p263
ag30
aS'PRInt32'
p264
aS'variable_31'
p265
ag24
ag88
ag30
aS'variable_30'
p266
ag262
ag181
ag263
ag24
aS'variable_28'
p267
aS'|'
p268
aS'0x80'
p269
ag30
aS'variable_30'
p270
ag262
ag65
ag263
ag24
ag10
aS'variable_8'
p271
ag268
aS'0x80'
p272
ag30
aS'variable_12'
p273
ag24
aS'variable_9'
p274
aS'-'
p275
aS'variable_10'
p276
ag30
aS'variable_11'
p277
ag24
aS'func_8'
p278
ag7
aS'variable_30'
p279
ag12
aS'variable_31'
p280
ag12
aS'variable_10'
p281
ag12
ag69
aS'variable_12'
p282
ag19
ag30
aS'if'
p283
ag7
aS'variable_11'
p284
aS'=='
p285
aS'variable_32'
p286
ag19
aS'if'
p287
ag7
aS'func_9'
p288
ag7
aS'variable_11'
p289
ag19
ag19
aS'variable_10'
p290
aS'+='
p291
aS'variable_12'
p292
ag30
aS'if'
p293
ag7
aS'func_10'
p294
ag7
aS'variable_10'
p295
ag12
aS'variable_9'
p296
ag12
ag88
ag19
ag19
ag10
aS'variable_10'
p297
aS'++'
p298
ag24
ag7
aS'variable_4'
p299
ag19
aS'variable_28'
p300
ag30
ag10
aS'variable_10'
p301
aS'++'
p302
ag24
ag7
aS'0x80'
p303
ag69
ag10
aS'variable_8'
p304
ag19
ag71
aS'0xFFFD'
p305
ag5
ag7
aS'variable_4'
p306
ag19
ag10
aS'variable_8'
p307
ag30
aS'variable_13'
p308
ag24
aS'variable_24'
p309
ag30
aS'if'
p310
ag7
aS'variable_23'
p311
aS'=='
p312
ag10
aS'variable_8'
p313
ag19
aS'variable_13'
p314
ag24
aS'variable_24'
p315
ag30
aS'variable_25'
p316
ag24
ag181
ag30
aS'if'
p317
ag7
aS'variable_14'
p318
aS'=='
p319
ag10
aS'variable_8'
p320
ag19
aS'variable_13'
p321
ag24
aS'variable_15'
p322
ag30
aS'if'
p323
ag7
aS'func_11'
p324
ag7
aS'variable_10'
p325
ag12
aS'variable_9'
p326
ag12
ag65
ag19
ag19
ag10
aS'variable_10'
p327
aS'++'
p328
ag24
ag7
aS'0x80'
p329
ag69
ag10
aS'variable_8'
p330
ag19
ag71
aS'0xFFFD'
p331
ag5
ag7
aS'variable_4'
p332
ag19
ag10
aS'variable_8'
p333
ag30
aS'variable_13'
p334
ag24
aS'variable_27'
p335
ag30
aS'if'
p336
ag7
aS'variable_23'
p337
aS'=='
p338
ag10
aS'variable_8'
p339
ag19
aS'variable_13'
p340
ag24
aS'variable_33'
p341
ag30
aS'variable_25'
p342
ag24
ag181
ag30
aS'if'
p343
ag7
aS'func_12'
p344
ag7
aS'variable_10'
p345
ag12
aS'variable_9'
p346
ag12
ag186
ag19
ag19
ag10
aS'variable_10'
p347
aS'++'
p348
ag24
ag7
aS'variable_4'
p349
ag19
aS'variable_14'
p350
ag30
ag10
aS'variable_10'
p351
aS'++'
p352
ag24
ag7
aS'variable_4'
p353
ag19
ag78
ag79
ag78
ag30
ag10
aS'variable_10'
p354
aS'++'
p355
ag24
ag7
aS'variable_4'
p356
ag19
ag78
ag19
ag78
ag30
ag10
aS'variable_10'
p357
aS'++'
p358
ag24
ag7
aS'variable_4'
p359
ag19
ag78
ag145
ag78
ag30
ag10
aS'variable_10'
p360
aS'++'
p361
ag24
ag7
aS'0x80'
p362
ag69
ag10
aS'variable_8'
p363
ag19
ag71
aS'0xFFFD'
p364
ag5
ag7
aS'variable_4'
p365
ag19
ag10
aS'variable_8'
p366
ag30
aS'variable_13'
p367
ag24
aS'variable_16'
p368
ag30
aS'if'
p369
ag7
aS'variable_26'
p370
aS'=='
p371
ag10
aS'variable_8'
p372
ag19
aS'variable_13'
p373
ag24
aS'variable_34'
p374
ag30
aS'if'
p375
ag7
aS'variable_25'
p376
aS'=='
p377
ag181
ag19
aS'if'
p378
ag7
aS'func_13'
p379
ag7
aS'variable_10'
p380
ag12
aS'variable_9'
p381
ag12
ag65
ag19
ag19
ag10
aS'variable_10'
p382
aS'++'
p383
ag24
aS'0xFFFD'
p384
ag30
aS'variable_25'
p385
ag24
ag181
ag30
aS'if'
p386
ag7
aS'variable_14'
p387
aS'=='
p388
ag10
aS'variable_8'
p389
ag19
aS'variable_13'
p390
ag24
aS'variable_15'
p391
ag30
aS'if'
p392
ag7
aS'0x20'
p393
ag51
ag10
aS'variable_8'
p394
aS'&&'
p395
ag10
aS'variable_8'
p396
ag51
aS'0x7f'
p397
ag19
aS'variable_28'
p398
ag24
ag10
aS'variable_8'
p399
ag30
aS'variable_13'
p400
ag24
aS'variable_35'
p401
ag30
aS'if'
p402
ag7
aS'func_14'
p403
ag7
aS'variable_10'
p404
ag12
aS'variable_9'
p405
ag12
ag65
ag19
ag19
ag10
aS'variable_10'
p406
aS'++'
p407
ag24
ag7
aS'0x80'
p408
ag69
ag10
aS'variable_8'
p409
ag19
ag71
aS'0xFFFD'
p410
ag5
ag7
aS'variable_4'
p411
ag19
ag10
aS'variable_8'
p412
ag30
aS'if'
p413
ag7
aS'0x20'
p414
ag51
ag10
aS'variable_8'
p415
aS'&&'
p416
ag10
aS'variable_8'
p417
ag51
aS'0x7f'
p418
ag19
aS'unsigned'
p419
aS'char'
p420
aS'variable_36'
p421
ag262
ag154
ag263
ag30
aS'PRInt32'
p422
aS'variable_37'
p423
ag24
ag88
ag30
aS'variable_36'
p424
ag262
ag181
ag263
ag24
aS'variable_28'
p425
ag268
aS'0x80'
p426
ag30
aS'variable_36'
p427
ag262
ag65
ag263
ag24
ag10
aS'variable_8'
p428
ag268
aS'0x80'
p429
ag30
aS'variable_12'
p430
ag24
aS'variable_9'
p431
ag275
aS'variable_10'
p432
ag30
aS'variable_11'
p433
ag24
aS'func_15'
p434
ag7
aS'variable_36'
p435
ag12
aS'variable_37'
p436
ag12
aS'variable_10'
p437
ag12
ag69
aS'variable_12'
p438
ag19
ag30
aS'if'
p439
ag7
aS'variable_11'
p440
aS'=='
p441
aS'variable_32'
p442
ag19
aS'if'
p443
ag7
aS'func_16'
p444
ag7
aS'variable_11'
p445
ag19
ag19
aS'variable_10'
p446
aS'+='
p447
aS'variable_12'
p448
ag30
aS'if'
p449
ag7
aS'func_17'
p450
ag7
aS'variable_10'
p451
ag12
aS'variable_9'
p452
ag12
ag88
ag19
ag19
ag10
aS'variable_10'
p453
aS'++'
p454
ag24
ag7
aS'variable_4'
p455
ag19
aS'variable_28'
p456
ag30
ag10
aS'variable_10'
p457
aS'++'
p458
ag24
ag7
aS'0x80'
p459
ag69
ag10
aS'variable_8'
p460
ag19
ag71
aS'0xFFFD'
p461
ag5
ag7
aS'variable_4'
p462
ag19
ag10
aS'variable_8'
p463
ag30
aS'variable_13'
p464
ag24
aS'variable_33'
p465
ag30
aS'if'
p466
ag7
aS'variable_23'
p467
aS'=='
p468
ag10
aS'variable_8'
p469
ag19
aS'variable_13'
p470
ag24
aS'variable_33'
p471
ag30
aS'variable_25'
p472
ag24
ag181
ag30
aS'if'
p473
ag7
aS'variable_14'
p474
aS'=='
p475
ag10
aS'variable_8'
p476
ag19
aS'variable_13'
p477
ag24
aS'variable_15'
p478
ag30
aS'if'
p479
ag7
aS'func_18'
p480
ag7
aS'variable_10'
p481
ag12
aS'variable_9'
p482
ag12
ag65
ag19
ag19
ag10
aS'variable_10'
p483
aS'++'
p484
ag24
ag7
aS'0x80'
p485
ag69
ag10
aS'variable_8'
p486
ag19
ag71
aS'0xFFFD'
p487
ag5
ag7
aS'variable_4'
p488
ag19
ag10
aS'variable_8'
p489
ag30
aS'variable_13'
p490
ag24
aS'variable_34'
p491
ag30
aS'if'
p492
ag7
ag78
aS'H'
p493
ag78
aS'=='
p494
ag10
aS'variable_8'
p495
ag19
aS'variable_13'
p496
ag24
aS'variable_38'
p497
ag30
aS'if'
p498
ag7
aS'func_19'
p499
ag7
aS'variable_10'
p500
ag12
aS'variable_9'
p501
ag12
ag154
ag19
ag19
ag10
aS'variable_10'
p502
aS'++'
p503
ag24
ag7
aS'variable_4'
p504
ag19
aS'variable_14'
p505
ag30
ag10
aS'variable_10'
p506
aS'++'
p507
ag24
ag7
aS'variable_4'
p508
ag19
ag78
ag79
ag78
ag30
ag10
aS'variable_10'
p509
aS'++'
p510
ag24
ag7
aS'variable_4'
p511
ag19
ag78
ag10
ag78
ag30
ag10
aS'variable_10'
p512
aS'++'
p513
ag24
ag7
aS'0x80'
p514
ag69
ag10
aS'variable_8'
p515
ag19
ag71
aS'0xFFFD'
p516
ag5
ag7
aS'variable_4'
p517
ag19
ag10
aS'variable_8'
p518
ag30
aS'variable_13'
p519
ag24
aS'variable_16'
p520
ag30
aS'if'
p521
ag7
aS'variable_14'
p522
aS'=='
p523
ag10
aS'variable_8'
p524
ag19
aS'variable_13'
p525
ag24
aS'variable_39'
p526
ag30
aS'if'
p527
ag7
aS'func_20'
p528
ag7
aS'variable_10'
p529
ag12
aS'variable_9'
p530
ag12
ag186
ag19
ag19
ag10
aS'variable_10'
p531
aS'++'
p532
ag24
ag7
aS'variable_4'
p533
ag19
aS'variable_14'
p534
ag30
ag10
aS'variable_10'
p535
aS'++'
p536
ag24
ag7
aS'variable_4'
p537
ag19
ag78
ag79
ag78
ag30
ag10
aS'variable_10'
p538
aS'++'
p539
ag24
ag7
aS'variable_4'
p540
ag19
ag78
ag10
ag78
ag30
ag10
aS'variable_10'
p541
aS'++'
p542
ag24
ag7
aS'variable_4'
p543
ag19
ag78
ag493
ag78
ag30
ag10
aS'variable_10'
p544
aS'++'
p545
ag24
ag7
aS'0x80'
p546
ag69
ag10
aS'variable_8'
p547
ag19
ag71
aS'0xFFFD'
p548
ag5
ag7
aS'variable_4'
p549
ag19
ag10
aS'variable_8'
p550
ag30
aS'variable_13'
p551
ag24
aS'variable_16'
p552
ag30
aS'if'
p553
ag7
aS'variable_40'
p554
aS'=='
p555
ag10
aS'variable_8'
p556
ag19
aS'variable_13'
p557
ag24
aS'variable_41'
p558
ag30
aS'variable_25'
p559
ag24
ag181
ag30
aS'if'
p560
ag7
ag78
ag79
ag78
aS'=='
p561
ag10
aS'variable_8'
p562
ag19
aS'variable_13'
p563
ag24
aS'variable_17'
p564
ag30
aS'if'
p565
ag7
aS'func_21'
p566
ag7
aS'variable_10'
p567
ag12
aS'variable_9'
p568
ag12
aS'6'
p569
ag19
ag19
ag10
aS'variable_10'
p570
aS'++'
p571
ag24
ag7
aS'variable_4'
p572
ag19
aS'variable_14'
p573
ag30
ag10
aS'variable_10'
p574
aS'++'
p575
ag24
ag7
aS'variable_4'
p576
ag19
ag78
ag79
ag78
ag30
ag10
aS'variable_10'
p577
aS'++'
p578
ag24
ag7
aS'variable_4'
p579
ag19
ag78
ag10
ag78
ag30
ag10
aS'variable_10'
p580
aS'++'
p581
ag24
ag7
aS'variable_4'
p582
ag19
ag78
ag493
ag78
ag30
ag10
aS'variable_10'
p583
aS'++'
p584
ag24
ag7
aS'variable_4'
p585
ag19
aS'variable_14'
p586
ag30
ag10
aS'variable_10'
p587
aS'++'
p588
ag24
ag7
aS'0x80'
p589
ag69
ag10
aS'variable_8'
p590
ag19
ag71
aS'0xFFFD'
p591
ag5
ag7
aS'variable_4'
p592
ag19
ag10
aS'variable_8'
p593
ag30
aS'variable_13'
p594
ag24
aS'variable_16'
p595
ag30
aS'if'
p596
ag7
aS'variable_26'
p597
aS'=='
p598
ag10
aS'variable_8'
p599
ag19
aS'variable_13'
p600
ag24
aS'variable_42'
p601
ag30
aS'if'
p602
ag7
aS'variable_25'
p603
aS'=='
p604
ag181
ag19
aS'if'
p605
ag7
aS'func_22'
p606
ag7
aS'variable_10'
p607
ag12
aS'variable_9'
p608
ag12
ag65
ag19
ag19
ag10
aS'variable_10'
p609
aS'++'
p610
ag24
aS'0xFFFD'
p611
ag30
aS'variable_25'
p612
ag24
ag181
ag30
aS'if'
p613
ag7
aS'variable_14'
p614
aS'=='
p615
ag10
aS'variable_8'
p616
ag19
aS'variable_13'
p617
ag24
aS'variable_39'
p618
ag30
aS'if'
p619
ag7
aS'0x20'
p620
ag51
ag10
aS'variable_8'
p621
aS'&&'
p622
ag10
aS'variable_8'
p623
ag51
aS'0x7f'
p624
ag19
aS'variable_28'
p625
ag24
ag10
aS'variable_8'
p626
ag30
aS'variable_13'
p627
ag24
aS'variable_43'
p628
ag30
aS'if'
p629
ag7
aS'func_23'
p630
ag7
aS'variable_10'
p631
ag12
aS'variable_9'
p632
ag12
ag65
ag19
ag19
ag10
aS'variable_10'
p633
aS'++'
p634
ag24
ag7
aS'0x80'
p635
ag69
ag10
aS'variable_8'
p636
ag19
ag71
aS'0xFFFD'
p637
ag5
ag7
aS'variable_4'
p638
ag19
ag10
aS'variable_8'
p639
ag30
aS'if'
p640
ag7
aS'0x20'
p641
ag51
ag10
aS'variable_8'
p642
aS'&&'
p643
ag10
aS'variable_8'
p644
ag51
aS'0x7f'
p645
ag19
aS'unsigned'
p646
aS'char'
p647
aS'variable_36'
p648
ag262
ag154
ag263
ag30
aS'PRInt32'
p649
aS'variable_37'
p650
ag24
ag154
ag30
aS'variable_36'
p651
ag262
ag181
ag263
ag24
ag7
aS'unsigned'
p652
aS'char'
p653
ag19
aS'variable_44'
p654
ag30
aS'variable_36'
p655
ag262
ag65
ag263
ag24
ag7
aS'unsigned'
p656
aS'char'
p657
ag19
ag7
aS'variable_45'
p658
ag28
ag88
ag19
ag30
aS'variable_36'
p659
ag262
ag88
ag263
ag24
aS'variable_28'
p660
ag268
aS'0x80'
p661
ag30
aS'variable_36'
p662
ag262
ag121
ag263
ag24
ag10
aS'variable_8'
p663
ag268
aS'0x80'
p664
ag30
aS'variable_12'
p665
ag24
aS'variable_9'
p666
ag275
aS'variable_10'
p667
ag30
aS'variable_11'
p668
ag24
aS'func_24'
p669
ag7
aS'variable_36'
p670
ag12
aS'variable_37'
p671
ag12
aS'variable_10'
p672
ag12
ag69
aS'variable_12'
p673
ag19
ag30
aS'if'
p674
ag7
aS'variable_11'
p675
aS'=='
p676
aS'variable_32'
p677
ag19
aS'if'
p678
ag7
aS'func_25'
p679
ag7
aS'variable_11'
p680
ag19
ag19
aS'variable_10'
p681
aS'+='
p682
aS'variable_12'
p683
ag30
aS'if'
p684
ag7
aS'func_26'
p685
ag7
aS'variable_10'
p686
ag12
aS'variable_9'
p687
ag12
ag88
ag19
ag19
ag10
aS'variable_10'
p688
aS'++'
p689
ag24
ag7
aS'variable_4'
p690
ag19
aS'variable_28'
p691
ag30
ag10
aS'variable_10'
p692
aS'++'
p693
ag24
ag7
aS'0x80'
p694
ag69
ag10
aS'variable_8'
p695
ag19
ag71
aS'0xFFFD'
p696
ag5
ag7
aS'variable_4'
p697
ag19
ag10
aS'variable_8'
p698
ag30
aS'variable_13'
p699
ag24
aS'variable_41'
p700
ag30
aS'if'
p701
ag7
aS'variable_14'
p702
aS'=='
p703
ag10
aS'variable_8'
p704
ag19
aS'variable_13'
p705
ag24
aS'variable_46'
p706
ag30
aS'if'
p707
ag7
aS'func_27'
p708
ag7
aS'variable_10'
p709
ag12
aS'variable_9'
p710
ag12
ag65
ag19
ag19
ag10
aS'variable_10'
p711
aS'++'
p712
ag24
ag7
aS'0x80'
p713
ag69
ag10
aS'variable_8'
p714
ag19
ag71
aS'0xFFFD'
p715
ag5
ag7
aS'variable_4'
p716
ag19
ag10
aS'variable_8'
p717
ag30
aS'variable_13'
p718
ag24
aS'variable_42'
p719
ag30
aS'if'
p720
ag7
aS'variable_40'
p721
aS'=='
p722
ag10
aS'variable_8'
p723
ag19
aS'variable_13'
p724
ag24
aS'variable_41'
p725
ag30
aS'variable_25'
p726
ag24
ag181
ag30
aS'if'
p727
ag7
ag78
ag79
ag78
aS'=='
p728
ag10
aS'variable_8'
p729
ag19
aS'variable_13'
p730
ag24
aS'variable_17'
p731
ag30
aS'if'
p732
ag7
aS'func_28'
p733
ag7
aS'variable_10'
p734
ag12
aS'variable_9'
p735
ag12
ag65
ag19
ag19
ag10
aS'variable_10'
p736
aS'++'
p737
ag24
ag7
aS'0x80'
p738
ag69
ag10
aS'variable_8'
p739
ag19
ag71
aS'0xFFFD'
p740
ag5
ag7
aS'variable_4'
p741
ag19
ag10
aS'variable_8'
p742
ag30
aS'variable_13'
p743
ag24
aS'variable_42'
p744
ag30
aS'if'
p745
ag7
ag78
aS'I'
p746
ag78
ag51
ag24
ag10
aS'variable_8'
p747
aS'&&'
p748
ag10
aS'variable_8'
p749
ag51
ag24
ag78
aS'M'
p750
ag78
ag19
aS'variable_13'
p751
ag24
aS'variable_47'
p752
ag30
aS'variable_48'
p753
ag24
ag10
aS'variable_8'
p754
ag275
ag78
ag746
ag78
ag28
ag121
ag30
aS'if'
p755
ag7
aS'func_29'
p756
ag7
aS'variable_10'
p757
ag12
aS'variable_9'
p758
ag12
ag154
ag19
ag19
ag10
aS'variable_10'
p759
aS'++'
p760
ag24
ag7
aS'variable_4'
p761
ag19
aS'variable_14'
p762
ag30
ag10
aS'variable_10'
p763
aS'++'
p764
ag24
ag7
aS'variable_4'
p765
ag19
ag78
ag79
ag78
ag30
ag10
aS'variable_10'
p766
aS'++'
p767
ag24
ag7
aS'variable_4'
p768
ag19
ag78
ag28
ag78
ag30
ag10
aS'variable_10'
p769
aS'++'
p770
ag24
ag7
aS'0x80'
p771
ag69
ag10
aS'variable_8'
p772
ag19
ag71
aS'0xFFFD'
p773
ag5
ag7
aS'variable_4'
p774
ag19
ag10
aS'variable_8'
p775
ag30
aS'variable_13'
p776
ag24
aS'variable_16'
p777
ag30
aS'if'
p778
ag7
aS'variable_14'
p779
aS'=='
p780
ag10
aS'variable_8'
p781
ag19
aS'variable_13'
p782
ag24
aS'variable_49'
p783
ag30
aS'if'
p784
ag7
aS'func_30'
p785
ag7
aS'variable_10'
p786
ag12
aS'variable_9'
p787
ag12
ag186
ag19
ag19
ag10
aS'variable_10'
p788
aS'++'
p789
ag24
ag7
aS'variable_4'
p790
ag19
aS'variable_14'
p791
ag30
ag10
aS'variable_10'
p792
aS'++'
p793
ag24
ag7
aS'variable_4'
p794
ag19
ag78
ag79
ag78
ag30
ag10
aS'variable_10'
p795
aS'++'
p796
ag24
ag7
aS'variable_4'
p797
ag19
ag78
ag28
ag78
ag30
ag10
aS'variable_10'
p798
aS'++'
p799
ag24
ag7
aS'variable_4'
p800
ag19
ag78
ag746
ag78
ag28
aS'variable_48'
p801
ag275
ag121
ag30
ag10
aS'variable_10'
p802
aS'++'
p803
ag24
ag7
aS'0x80'
p804
ag69
ag10
aS'variable_8'
p805
ag19
ag71
aS'0xFFFD'
p806
ag5
ag7
aS'variable_4'
p807
ag19
ag10
aS'variable_8'
p808
ag30
aS'variable_13'
p809
ag24
aS'variable_16'
p810
ag30
aS'if'
p811
ag7
aS'variable_50'
p812
aS'=='
p813
ag10
aS'variable_8'
p814
ag19
aS'variable_13'
p815
ag24
aS'variable_51'
p816
ag30
aS'variable_25'
p817
ag24
ag181
ag30
aS'if'
p818
ag7
ag78
ag79
ag78
aS'=='
p819
ag10
aS'variable_8'
p820
ag19
aS'variable_13'
p821
ag24
aS'variable_17'
p822
ag30
aS'if'
p823
ag7
aS'func_31'
p824
ag7
aS'variable_10'
p825
ag12
aS'variable_9'
p826
ag12
ag569
ag19
ag19
ag10
aS'variable_10'
p827
aS'++'
p828
ag24
ag7
aS'variable_4'
p829
ag19
aS'variable_14'
p830
ag30
ag10
aS'variable_10'
p831
aS'++'
p832
ag24
ag7
aS'variable_4'
p833
ag19
ag78
ag79
ag78
ag30
ag10
aS'variable_10'
p834
aS'++'
p835
ag24
ag7
aS'variable_4'
p836
ag19
ag78
ag28
ag78
ag30
ag10
aS'variable_10'
p837
aS'++'
p838
ag24
ag7
aS'variable_4'
p839
ag19
ag78
ag746
ag78
ag28
aS'variable_48'
p840
ag275
ag121
ag30
ag10
aS'variable_10'
p841
aS'++'
p842
ag24
ag7
aS'variable_4'
p843
ag19
aS'variable_14'
p844
ag30
ag10
aS'variable_10'
p845
aS'++'
p846
ag24
ag7
aS'0x80'
p847
ag69
ag10
aS'variable_8'
p848
ag19
ag71
aS'0xFFFD'
p849
ag5
ag7
aS'variable_4'
p850
ag19
ag10
aS'variable_8'
p851
ag30
aS'variable_13'
p852
ag24
aS'variable_16'
p853
ag30
aS'if'
p854
ag7
aS'variable_26'
p855
aS'=='
p856
ag10
aS'variable_8'
p857
ag19
aS'variable_13'
p858
ag24
aS'variable_52'
p859
ag30
aS'if'
p860
ag7
aS'variable_25'
p861
aS'=='
p862
ag181
ag19
aS'if'
p863
ag7
aS'func_32'
p864
ag7
aS'variable_10'
p865
ag12
aS'variable_9'
p866
ag12
ag65
ag19
ag19
ag10
aS'variable_10'
p867
aS'++'
p868
ag24
aS'0xFFFD'
p869
ag30
aS'variable_25'
p870
ag24
ag181
ag30
aS'if'
p871
ag7
aS'variable_14'
p872
aS'=='
p873
ag10
aS'variable_8'
p874
ag19
aS'variable_13'
p875
ag24
aS'variable_49'
p876
ag30
aS'if'
p877
ag7
aS'0x20'
p878
ag51
ag10
aS'variable_8'
p879
aS'&&'
p880
ag10
aS'variable_8'
p881
ag51
aS'0x7f'
p882
ag19
aS'variable_28'
p883
ag24
ag10
aS'variable_8'
p884
ag30
aS'variable_13'
p885
ag24
aS'variable_53'
p886
ag30
aS'if'
p887
ag7
aS'func_33'
p888
ag7
aS'variable_10'
p889
ag12
aS'variable_9'
p890
ag12
ag65
ag19
ag19
ag10
aS'variable_10'
p891
aS'++'
p892
ag24
ag7
aS'0x80'
p893
ag69
ag10
aS'variable_8'
p894
ag19
ag71
aS'0xFFFD'
p895
ag5
ag7
aS'variable_4'
p896
ag19
ag10
aS'variable_8'
p897
ag30
aS'if'
p898
ag7
aS'0x20'
p899
ag51
ag10
aS'variable_8'
p900
aS'&&'
p901
ag10
aS'variable_8'
p902
ag51
aS'0x7f'
p903
ag19
aS'unsigned'
p904
aS'char'
p905
aS'variable_36'
p906
ag262
ag154
ag263
ag30
aS'PRInt32'
p907
aS'variable_37'
p908
ag24
ag154
ag30
aS'variable_36'
p909
ag262
ag181
ag263
ag24
ag7
aS'unsigned'
p910
aS'char'
p911
ag19
aS'variable_44'
p912
ag30
aS'variable_36'
p913
ag262
ag65
ag263
ag24
ag7
aS'unsigned'
p914
aS'char'
p915
ag19
ag7
aS'variable_45'
p916
ag28
aS'variable_48'
p917
ag19
ag30
aS'variable_36'
p918
ag262
ag88
ag263
ag24
aS'variable_28'
p919
ag268
aS'0x80'
p920
ag30
aS'variable_36'
p921
ag262
ag121
ag263
ag24
ag10
aS'variable_8'
p922
ag268
aS'0x80'
p923
ag30
aS'variable_12'
p924
ag24
aS'variable_9'
p925
ag275
aS'variable_10'
p926
ag30
aS'variable_11'
p927
ag24
aS'func_34'
p928
ag7
aS'variable_36'
p929
ag12
aS'variable_37'
p930
ag12
aS'variable_10'
p931
ag12
ag69
aS'variable_12'
p932
ag19
ag30
aS'if'
p933
ag7
aS'variable_11'
p934
aS'=='
p935
aS'variable_32'
p936
ag19
aS'if'
p937
ag7
aS'func_35'
p938
ag7
aS'variable_11'
p939
ag19
ag19
aS'variable_10'
p940
aS'+='
p941
aS'variable_12'
p942
ag30
aS'if'
p943
ag7
aS'func_36'
p944
ag7
aS'variable_10'
p945
ag12
aS'variable_9'
p946
ag12
ag88
ag19
ag19
ag10
aS'variable_10'
p947
aS'++'
p948
ag24
ag7
aS'variable_4'
p949
ag19
aS'variable_28'
p950
ag30
ag10
aS'variable_10'
p951
aS'++'
p952
ag24
ag7
aS'0x80'
p953
ag69
ag10
aS'variable_8'
p954
ag19
ag71
aS'0xFFFD'
p955
ag5
ag7
aS'variable_4'
p956
ag19
ag10
aS'variable_8'
p957
ag30
aS'variable_13'
p958
ag24
aS'variable_51'
p959
ag30
aS'if'
p960
ag7
aS'variable_14'
p961
aS'=='
p962
ag10
aS'variable_8'
p963
ag19
aS'variable_13'
p964
ag24
aS'variable_54'
p965
ag30
aS'if'
p966
ag7
aS'func_37'
p967
ag7
aS'variable_10'
p968
ag12
aS'variable_9'
p969
ag12
ag65
ag19
ag19
ag10
aS'variable_10'
p970
aS'++'
p971
ag24
ag7
aS'0x80'
p972
ag69
ag10
aS'variable_8'
p973
ag19
ag71
aS'0xFFFD'
p974
ag5
ag7
aS'variable_4'
p975
ag19
ag10
aS'variable_8'
p976
ag30
aS'variable_13'
p977
ag24
aS'variable_52'
p978
ag30
aS'if'
p979
ag7
aS'variable_50'
p980
aS'=='
p981
ag10
aS'variable_8'
p982
ag19
aS'variable_13'
p983
ag24
aS'variable_51'
p984
ag30
aS'variable_25'
p985
ag24
ag181
ag30
aS'if'
p986
ag7
ag78
ag79
ag78
aS'=='
p987
ag10
aS'variable_8'
p988
ag19
aS'variable_13'
p989
ag24
aS'variable_17'
p990
ag30
aS'if'
p991
ag7
aS'func_38'
p992
ag7
aS'variable_10'
p993
ag12
aS'variable_9'
p994
ag12
ag65
ag19
ag19
ag10
aS'variable_10'
p995
aS'++'
p996
ag24
ag7
aS'0x80'
p997
ag69
ag10
aS'variable_8'
p998
ag19
ag71
aS'0xFFFD'
p999
ag5
ag7
aS'variable_4'
p1000
ag19
ag10
aS'variable_8'
p1001
ag30
aS'variable_13'
p1002
ag24
aS'variable_52'
p1003
ag30
aS'variable_8'
p1004
aS'++'
p1005
ag30
ag10
aS'variable_6'
p1006
ag24
aS'variable_10'
p1007
ag275
aS'variable_5'
p1008
ag30
aa(lp1009
S'NS_IMETHODIMP'
p1010
aS'variable_0'
p1011
ag5
ag5
aS'func_0'
p1012
ag7
aS'const'
p1013
aS'char'
p1014
ag10
aS'variable_1'
p1015
ag12
aS'variable_2'
p1016
ag10
aS'variable_3'
p1017
ag12
aS'variable_4'
p1018
ag10
aS'variable_5'
p1019
ag12
aS'variable_2'
p1020
ag10
aS'variable_6'
p1021
ag19
aS'const'
p1022
aS'unsigned'
p1023
aS'char'
p1024
ag10
aS'variable_7'
p1025
ag24
ag7
aS'unsigned'
p1026
aS'char'
p1027
ag10
ag19
aS'variable_1'
p1028
ag28
ag10
aS'variable_3'
p1029
ag30
aS'const'
p1030
aS'unsigned'
p1031
aS'char'
p1032
ag10
aS'variable_8'
p1033
ag24
ag7
aS'unsigned'
p1034
aS'char'
p1035
ag10
ag19
aS'variable_1'
p1036
ag30
aS'variable_4'
p1037
ag10
aS'variable_9'
p1038
ag24
aS'variable_5'
p1039
ag28
ag10
aS'variable_6'
p1040
ag30
aS'variable_4'
p1041
ag10
aS'variable_10'
p1042
ag24
aS'variable_5'
p1043
ag30
aS'nsresult'
p1044
aS'variable_11'
p1045
ag30
aS'PRInt32'
p1046
aS'variable_12'
p1047
ag30
aS'while'
p1048
ag7
aS'variable_8'
p1049
ag51
aS'variable_7'
p1050
ag19
aS'switch'
p1051
ag7
aS'variable_13'
p1052
ag19
aS'if'
p1053
ag7
aS'variable_14'
p1054
aS'=='
p1055
ag10
aS'variable_8'
p1056
ag19
aS'variable_13'
p1057
ag24
aS'variable_15'
p1058
ag30
aS'if'
p1059
ag7
aS'func_1'
p1060
ag7
aS'variable_10'
p1061
ag12
aS'variable_9'
p1062
ag12
ag65
ag19
ag19
ag10
aS'variable_10'
p1063
aS'++'
p1064
ag24
ag7
aS'0x80'
p1065
ag69
ag10
aS'variable_8'
p1066
ag19
ag71
aS'0xFFFD'
p1067
ag5
ag7
aS'variable_4'
p1068
ag19
ag10
aS'variable_8'
p1069
ag30
aS'variable_13'
p1070
ag24
aS'variable_16'
p1071
ag30
aS'if'
p1072
ag7
ag78
ag79
ag78
aS'=='
p1073
ag10
aS'variable_8'
p1074
ag19
aS'variable_13'
p1075
ag24
aS'variable_17'
p1076
ag30
aS'if'
p1077
ag7
aS'func_2'
p1078
ag7
aS'variable_10'
p1079
ag12
aS'variable_9'
p1080
ag12
ag88
ag19
ag19
ag10
aS'variable_10'
p1081
aS'++'
p1082
ag24
ag7
aS'variable_4'
p1083
ag19
aS'variable_14'
p1084
ag30
ag10
aS'variable_10'
p1085
aS'++'
p1086
ag24
ag7
aS'0x80'
p1087
ag69
ag10
aS'variable_8'
p1088
ag19
ag71
aS'0xFFFD'
p1089
ag5
ag7
aS'variable_4'
p1090
ag19
ag10
aS'variable_8'
p1091
ag30
aS'variable_13'
p1092
ag24
aS'variable_16'
p1093
ag30
aS'if'
p1094
ag7
ag78
ag19
ag78
aS'=='
p1095
ag10
aS'variable_8'
p1096
ag19
aS'variable_13'
p1097
ag24
aS'variable_18'
p1098
ag30
aS'if'
p1099
ag7
ag78
ag10
ag78
aS'=='
p1100
ag10
aS'variable_8'
p1101
ag19
aS'variable_13'
p1102
ag24
aS'variable_19'
p1103
ag30
aS'if'
p1104
ag7
ag78
ag28
ag78
aS'=='
p1105
ag10
aS'variable_8'
p1106
ag19
aS'variable_13'
p1107
ag24
aS'variable_20'
p1108
ag30
aS'if'
p1109
ag7
aS'func_3'
p1110
ag7
aS'variable_10'
p1111
ag12
aS'variable_9'
p1112
ag12
ag121
ag19
ag19
ag10
aS'variable_10'
p1113
aS'++'
p1114
ag24
ag7
aS'variable_4'
p1115
ag19
aS'variable_14'
p1116
ag30
ag10
aS'variable_10'
p1117
aS'++'
p1118
ag24
ag7
aS'variable_4'
p1119
ag19
ag78
ag79
ag78
ag30
ag10
aS'variable_10'
p1120
aS'++'
p1121
ag24
ag7
aS'0x80'
p1122
ag69
ag10
aS'variable_8'
p1123
ag19
ag71
aS'0xFFFD'
p1124
ag5
ag7
aS'variable_4'
p1125
ag19
ag10
aS'variable_8'
p1126
ag30
aS'variable_13'
p1127
ag24
aS'variable_16'
p1128
ag30
aS'if'
p1129
ag7
ag78
ag139
ag78
aS'=='
p1130
ag10
aS'variable_8'
p1131
ag19
aS'variable_13'
p1132
ag24
aS'variable_21'
p1133
ag30
aS'if'
p1134
ag7
ag78
ag145
ag78
aS'=='
p1135
ag10
aS'variable_8'
p1136
ag19
aS'variable_13'
p1137
ag24
aS'variable_22'
p1138
ag30
aS'if'
p1139
ag7
aS'func_4'
p1140
ag7
aS'variable_10'
p1141
ag12
aS'variable_9'
p1142
ag12
ag154
ag19
ag19
ag10
aS'variable_10'
p1143
aS'++'
p1144
ag24
ag7
aS'variable_4'
p1145
ag19
aS'variable_14'
p1146
ag30
ag10
aS'variable_10'
p1147
aS'++'
p1148
ag24
ag7
aS'variable_4'
p1149
ag19
ag78
ag79
ag78
ag30
ag10
aS'variable_10'
p1150
aS'++'
p1151
ag24
ag7
aS'variable_4'
p1152
ag19
ag78
ag19
ag78
ag30
ag10
aS'variable_10'
p1153
aS'++'
p1154
ag24
ag7
aS'0x80'
p1155
ag69
ag10
aS'variable_8'
p1156
ag19
ag71
aS'0xFFFD'
p1157
ag5
ag7
aS'variable_4'
p1158
ag19
ag10
aS'variable_8'
p1159
ag30
aS'variable_13'
p1160
ag24
aS'variable_16'
p1161
ag30
aS'if'
p1162
ag7
aS'variable_23'
p1163
aS'=='
p1164
ag10
aS'variable_8'
p1165
ag19
aS'variable_13'
p1166
ag24
aS'variable_24'
p1167
ag30
aS'variable_25'
p1168
ag24
ag181
ag30
aS'if'
p1169
ag7
aS'func_5'
p1170
ag7
aS'variable_10'
p1171
ag12
aS'variable_9'
p1172
ag12
ag186
ag19
ag19
ag10
aS'variable_10'
p1173
aS'++'
p1174
ag24
ag7
aS'variable_4'
p1175
ag19
aS'variable_14'
p1176
ag30
ag10
aS'variable_10'
p1177
aS'++'
p1178
ag24
ag7
aS'variable_4'
p1179
ag19
ag78
ag79
ag78
ag30
ag10
aS'variable_10'
p1180
aS'++'
p1181
ag24
ag7
aS'variable_4'
p1182
ag19
ag78
ag19
ag78
ag30
ag10
aS'variable_10'
p1183
aS'++'
p1184
ag24
ag7
aS'variable_4'
p1185
ag19
ag78
ag139
ag78
ag30
ag10
aS'variable_10'
p1186
aS'++'
p1187
ag24
ag7
aS'0x80'
p1188
ag69
ag10
aS'variable_8'
p1189
ag19
ag71
aS'0xFFFD'
p1190
ag5
ag7
aS'variable_4'
p1191
ag19
ag10
aS'variable_8'
p1192
ag30
aS'variable_13'
p1193
ag24
aS'variable_16'
p1194
ag30
aS'if'
p1195
ag7
aS'variable_26'
p1196
aS'=='
p1197
ag10
aS'variable_8'
p1198
ag19
aS'variable_13'
p1199
ag24
aS'variable_27'
p1200
ag30
aS'if'
p1201
ag7
aS'variable_25'
p1202
aS'=='
p1203
ag181
ag19
aS'if'
p1204
ag7
aS'func_6'
p1205
ag7
aS'variable_10'
p1206
ag12
aS'variable_9'
p1207
ag12
ag65
ag19
ag19
ag10
aS'variable_10'
p1208
aS'++'
p1209
ag24
aS'0xFFFD'
p1210
ag30
aS'variable_25'
p1211
ag24
ag181
ag30
aS'if'
p1212
ag7
aS'variable_14'
p1213
aS'=='
p1214
ag10
aS'variable_8'
p1215
ag19
aS'variable_13'
p1216
ag24
aS'variable_15'
p1217
ag30
aS'if'
p1218
ag7
aS'0x20'
p1219
ag51
ag10
aS'variable_8'
p1220
aS'&&'
p1221
ag10
aS'variable_8'
p1222
ag51
aS'0x7f'
p1223
ag19
aS'variable_28'
p1224
ag24
ag10
aS'variable_8'
p1225
ag30
aS'variable_13'
p1226
ag24
aS'variable_29'
p1227
ag30
aS'if'
p1228
ag7
aS'func_7'
p1229
ag7
aS'variable_10'
p1230
ag12
aS'variable_9'
p1231
ag12
ag65
ag19
ag19
ag10
aS'variable_10'
p1232
aS'++'
p1233
ag24
ag7
aS'0x80'
p1234
ag69
ag10
aS'variable_8'
p1235
ag19
ag71
aS'0xFFFD'
p1236
ag5
ag7
aS'variable_4'
p1237
ag19
ag10
aS'variable_8'
p1238
ag30
aS'if'
p1239
ag7
aS'0x20'
p1240
ag51
ag10
aS'variable_8'
p1241
aS'&&'
p1242
ag10
aS'variable_8'
p1243
ag51
aS'0x7f'
p1244
ag19
aS'unsigned'
p1245
aS'char'
p1246
aS'variable_30'
p1247
ag262
ag88
ag263
ag30
aS'PRInt32'
p1248
aS'variable_31'
p1249
ag24
ag88
ag30
aS'variable_30'
p1250
ag262
ag181
ag263
ag24
aS'variable_28'
p1251
ag268
aS'0x80'
p1252
ag30
aS'variable_30'
p1253
ag262
ag65
ag263
ag24
ag10
aS'variable_8'
p1254
ag268
aS'0x80'
p1255
ag30
aS'variable_12'
p1256
ag24
aS'variable_9'
p1257
ag275
aS'variable_10'
p1258
ag30
aS'variable_11'
p1259
ag24
aS'func_8'
p1260
ag7
aS'variable_30'
p1261
ag12
aS'variable_31'
p1262
ag12
aS'variable_10'
p1263
ag12
ag69
aS'variable_12'
p1264
ag19
ag30
aS'if'
p1265
ag7
aS'variable_11'
p1266
aS'=='
p1267
aS'variable_32'
p1268
ag19
aS'if'
p1269
ag7
aS'func_9'
p1270
ag7
aS'variable_11'
p1271
ag19
ag19
aS'variable_10'
p1272
aS'+='
p1273
aS'variable_12'
p1274
ag30
aS'if'
p1275
ag7
aS'func_10'
p1276
ag7
aS'variable_10'
p1277
ag12
aS'variable_9'
p1278
ag12
ag88
ag19
ag19
ag10
aS'variable_10'
p1279
aS'++'
p1280
ag24
ag7
aS'variable_4'
p1281
ag19
aS'variable_28'
p1282
ag30
ag10
aS'variable_10'
p1283
aS'++'
p1284
ag24
ag7
aS'0x80'
p1285
ag69
ag10
aS'variable_8'
p1286
ag19
ag71
aS'0xFFFD'
p1287
ag5
ag7
aS'variable_4'
p1288
ag19
ag10
aS'variable_8'
p1289
ag30
aS'variable_13'
p1290
ag24
aS'variable_24'
p1291
ag30
aS'if'
p1292
ag7
aS'variable_23'
p1293
aS'=='
p1294
ag10
aS'variable_8'
p1295
ag19
aS'variable_13'
p1296
ag24
aS'variable_24'
p1297
ag30
aS'variable_25'
p1298
ag24
ag181
ag30
aS'if'
p1299
ag7
aS'variable_14'
p1300
aS'=='
p1301
ag10
aS'variable_8'
p1302
ag19
aS'variable_13'
p1303
ag24
aS'variable_15'
p1304
ag30
aS'if'
p1305
ag7
aS'func_11'
p1306
ag7
aS'variable_10'
p1307
ag12
aS'variable_9'
p1308
ag12
ag65
ag19
ag19
ag10
aS'variable_10'
p1309
aS'++'
p1310
ag24
ag7
aS'0x80'
p1311
ag69
ag10
aS'variable_8'
p1312
ag19
ag71
aS'0xFFFD'
p1313
ag5
ag7
aS'variable_4'
p1314
ag19
ag10
aS'variable_8'
p1315
ag30
aS'variable_13'
p1316
ag24
aS'variable_27'
p1317
ag30
aS'if'
p1318
ag7
aS'variable_23'
p1319
aS'=='
p1320
ag10
aS'variable_8'
p1321
ag19
aS'variable_13'
p1322
ag24
aS'variable_33'
p1323
ag30
aS'variable_25'
p1324
ag24
ag181
ag30
aS'if'
p1325
ag7
aS'func_12'
p1326
ag7
aS'variable_10'
p1327
ag12
aS'variable_9'
p1328
ag12
ag186
ag19
ag19
ag10
aS'variable_10'
p1329
aS'++'
p1330
ag24
ag7
aS'variable_4'
p1331
ag19
aS'variable_14'
p1332
ag30
ag10
aS'variable_10'
p1333
aS'++'
p1334
ag24
ag7
aS'variable_4'
p1335
ag19
ag78
ag79
ag78
ag30
ag10
aS'variable_10'
p1336
aS'++'
p1337
ag24
ag7
aS'variable_4'
p1338
ag19
ag78
ag19
ag78
ag30
ag10
aS'variable_10'
p1339
aS'++'
p1340
ag24
ag7
aS'variable_4'
p1341
ag19
ag78
ag145
ag78
ag30
ag10
aS'variable_10'
p1342
aS'++'
p1343
ag24
ag7
aS'0x80'
p1344
ag69
ag10
aS'variable_8'
p1345
ag19
ag71
aS'0xFFFD'
p1346
ag5
ag7
aS'variable_4'
p1347
ag19
ag10
aS'variable_8'
p1348
ag30
aS'variable_13'
p1349
ag24
aS'variable_16'
p1350
ag30
aS'if'
p1351
ag7
aS'variable_26'
p1352
aS'=='
p1353
ag10
aS'variable_8'
p1354
ag19
aS'variable_13'
p1355
ag24
aS'variable_34'
p1356
ag30
aS'if'
p1357
ag7
aS'variable_25'
p1358
aS'=='
p1359
ag181
ag19
aS'if'
p1360
ag7
aS'func_13'
p1361
ag7
aS'variable_10'
p1362
ag12
aS'variable_9'
p1363
ag12
ag65
ag19
ag19
ag10
aS'variable_10'
p1364
aS'++'
p1365
ag24
aS'0xFFFD'
p1366
ag30
aS'variable_25'
p1367
ag24
ag181
ag30
aS'if'
p1368
ag7
aS'variable_14'
p1369
aS'=='
p1370
ag10
aS'variable_8'
p1371
ag19
aS'variable_13'
p1372
ag24
aS'variable_15'
p1373
ag30
aS'if'
p1374
ag7
aS'0x20'
p1375
ag51
ag10
aS'variable_8'
p1376
aS'&&'
p1377
ag10
aS'variable_8'
p1378
ag51
aS'0x7f'
p1379
ag19
aS'variable_28'
p1380
ag24
ag10
aS'variable_8'
p1381
ag30
aS'variable_13'
p1382
ag24
aS'variable_35'
p1383
ag30
aS'if'
p1384
ag7
aS'func_14'
p1385
ag7
aS'variable_10'
p1386
ag12
aS'variable_9'
p1387
ag12
ag65
ag19
ag19
ag10
aS'variable_10'
p1388
aS'++'
p1389
ag24
ag7
aS'0x80'
p1390
ag69
ag10
aS'variable_8'
p1391
ag19
ag71
aS'0xFFFD'
p1392
ag5
ag7
aS'variable_4'
p1393
ag19
ag10
aS'variable_8'
p1394
ag30
aS'if'
p1395
ag7
aS'0x20'
p1396
ag51
ag10
aS'variable_8'
p1397
aS'&&'
p1398
ag10
aS'variable_8'
p1399
ag51
aS'0x7f'
p1400
ag19
aS'unsigned'
p1401
aS'char'
p1402
aS'variable_36'
p1403
ag262
ag154
ag263
ag30
aS'PRInt32'
p1404
aS'variable_37'
p1405
ag24
ag88
ag30
aS'variable_36'
p1406
ag262
ag181
ag263
ag24
aS'variable_28'
p1407
ag268
aS'0x80'
p1408
ag30
aS'variable_36'
p1409
ag262
ag65
ag263
ag24
ag10
aS'variable_8'
p1410
ag268
aS'0x80'
p1411
ag30
aS'variable_12'
p1412
ag24
aS'variable_9'
p1413
ag275
aS'variable_10'
p1414
ag30
aS'variable_11'
p1415
ag24
aS'func_15'
p1416
ag7
aS'variable_36'
p1417
ag12
aS'variable_37'
p1418
ag12
aS'variable_10'
p1419
ag12
ag69
aS'variable_12'
p1420
ag19
ag30
aS'if'
p1421
ag7
aS'variable_11'
p1422
aS'=='
p1423
aS'variable_32'
p1424
ag19
aS'if'
p1425
ag7
aS'func_16'
p1426
ag7
aS'variable_11'
p1427
ag19
ag19
aS'variable_10'
p1428
aS'+='
p1429
aS'variable_12'
p1430
ag30
aS'if'
p1431
ag7
aS'func_17'
p1432
ag7
aS'variable_10'
p1433
ag12
aS'variable_9'
p1434
ag12
ag88
ag19
ag19
ag10
aS'variable_10'
p1435
aS'++'
p1436
ag24
ag7
aS'variable_4'
p1437
ag19
aS'variable_28'
p1438
ag30
ag10
aS'variable_10'
p1439
aS'++'
p1440
ag24
ag7
aS'0x80'
p1441
ag69
ag10
aS'variable_8'
p1442
ag19
ag71
aS'0xFFFD'
p1443
ag5
ag7
aS'variable_4'
p1444
ag19
ag10
aS'variable_8'
p1445
ag30
aS'variable_13'
p1446
ag24
aS'variable_33'
p1447
ag30
aS'if'
p1448
ag7
aS'variable_23'
p1449
aS'=='
p1450
ag10
aS'variable_8'
p1451
ag19
aS'variable_13'
p1452
ag24
aS'variable_33'
p1453
ag30
aS'variable_25'
p1454
ag24
ag181
ag30
aS'if'
p1455
ag7
aS'variable_14'
p1456
aS'=='
p1457
ag10
aS'variable_8'
p1458
ag19
aS'variable_13'
p1459
ag24
aS'variable_15'
p1460
ag30
aS'if'
p1461
ag7
aS'func_18'
p1462
ag7
aS'variable_10'
p1463
ag12
aS'variable_9'
p1464
ag12
ag65
ag19
ag19
ag10
aS'variable_10'
p1465
aS'++'
p1466
ag24
ag7
aS'0x80'
p1467
ag69
ag10
aS'variable_8'
p1468
ag19
ag71
aS'0xFFFD'
p1469
ag5
ag7
aS'variable_4'
p1470
ag19
ag10
aS'variable_8'
p1471
ag30
aS'variable_13'
p1472
ag24
aS'variable_34'
p1473
ag30
aS'if'
p1474
ag7
ag78
ag493
ag78
aS'=='
p1475
ag10
aS'variable_8'
p1476
ag19
aS'variable_13'
p1477
ag24
aS'variable_38'
p1478
ag30
aS'if'
p1479
ag7
aS'func_19'
p1480
ag7
aS'variable_10'
p1481
ag12
aS'variable_9'
p1482
ag12
ag154
ag19
ag19
ag10
aS'variable_10'
p1483
aS'++'
p1484
ag24
ag7
aS'variable_4'
p1485
ag19
aS'variable_14'
p1486
ag30
ag10
aS'variable_10'
p1487
aS'++'
p1488
ag24
ag7
aS'variable_4'
p1489
ag19
ag78
ag79
ag78
ag30
ag10
aS'variable_10'
p1490
aS'++'
p1491
ag24
ag7
aS'variable_4'
p1492
ag19
ag78
ag10
ag78
ag30
ag10
aS'variable_10'
p1493
aS'++'
p1494
ag24
ag7
aS'0x80'
p1495
ag69
ag10
aS'variable_8'
p1496
ag19
ag71
aS'0xFFFD'
p1497
ag5
ag7
aS'variable_4'
p1498
ag19
ag10
aS'variable_8'
p1499
ag30
aS'variable_13'
p1500
ag24
aS'variable_16'
p1501
ag30
aS'if'
p1502
ag7
aS'variable_14'
p1503
aS'=='
p1504
ag10
aS'variable_8'
p1505
ag19
aS'variable_13'
p1506
ag24
aS'variable_39'
p1507
ag30
aS'if'
p1508
ag7
aS'func_20'
p1509
ag7
aS'variable_10'
p1510
ag12
aS'variable_9'
p1511
ag12
ag186
ag19
ag19
ag10
aS'variable_10'
p1512
aS'++'
p1513
ag24
ag7
aS'variable_4'
p1514
ag19
aS'variable_14'
p1515
ag30
ag10
aS'variable_10'
p1516
aS'++'
p1517
ag24
ag7
aS'variable_4'
p1518
ag19
ag78
ag79
ag78
ag30
ag10
aS'variable_10'
p1519
aS'++'
p1520
ag24
ag7
aS'variable_4'
p1521
ag19
ag78
ag10
ag78
ag30
ag10
aS'variable_10'
p1522
aS'++'
p1523
ag24
ag7
aS'variable_4'
p1524
ag19
ag78
ag493
ag78
ag30
ag10
aS'variable_10'
p1525
aS'++'
p1526
ag24
ag7
aS'0x80'
p1527
ag69
ag10
aS'variable_8'
p1528
ag19
ag71
aS'0xFFFD'
p1529
ag5
ag7
aS'variable_4'
p1530
ag19
ag10
aS'variable_8'
p1531
ag30
aS'variable_13'
p1532
ag24
aS'variable_16'
p1533
ag30
aS'if'
p1534
ag7
aS'variable_40'
p1535
aS'=='
p1536
ag10
aS'variable_8'
p1537
ag19
aS'variable_13'
p1538
ag24
aS'variable_41'
p1539
ag30
aS'variable_25'
p1540
ag24
ag181
ag30
aS'if'
p1541
ag7
ag78
ag79
ag78
aS'=='
p1542
ag10
aS'variable_8'
p1543
ag19
aS'variable_13'
p1544
ag24
aS'variable_17'
p1545
ag30
aS'if'
p1546
ag7
aS'func_21'
p1547
ag7
aS'variable_10'
p1548
ag12
aS'variable_9'
p1549
ag12
ag569
ag19
ag19
ag10
aS'variable_10'
p1550
aS'++'
p1551
ag24
ag7
aS'variable_4'
p1552
ag19
aS'variable_14'
p1553
ag30
ag10
aS'variable_10'
p1554
aS'++'
p1555
ag24
ag7
aS'variable_4'
p1556
ag19
ag78
ag79
ag78
ag30
ag10
aS'variable_10'
p1557
aS'++'
p1558
ag24
ag7
aS'variable_4'
p1559
ag19
ag78
ag10
ag78
ag30
ag10
aS'variable_10'
p1560
aS'++'
p1561
ag24
ag7
aS'variable_4'
p1562
ag19
ag78
ag493
ag78
ag30
ag10
aS'variable_10'
p1563
aS'++'
p1564
ag24
ag7
aS'variable_4'
p1565
ag19
aS'variable_14'
p1566
ag30
ag10
aS'variable_10'
p1567
aS'++'
p1568
ag24
ag7
aS'0x80'
p1569
ag69
ag10
aS'variable_8'
p1570
ag19
ag71
aS'0xFFFD'
p1571
ag5
ag7
aS'variable_4'
p1572
ag19
ag10
aS'variable_8'
p1573
ag30
aS'variable_13'
p1574
ag24
aS'variable_16'
p1575
ag30
aS'if'
p1576
ag7
aS'variable_26'
p1577
aS'=='
p1578
ag10
aS'variable_8'
p1579
ag19
aS'variable_13'
p1580
ag24
aS'variable_42'
p1581
ag30
aS'if'
p1582
ag7
aS'variable_25'
p1583
aS'=='
p1584
ag181
ag19
aS'if'
p1585
ag7
aS'func_22'
p1586
ag7
aS'variable_10'
p1587
ag12
aS'variable_9'
p1588
ag12
ag65
ag19
ag19
ag10
aS'variable_10'
p1589
aS'++'
p1590
ag24
aS'0xFFFD'
p1591
ag30
aS'variable_25'
p1592
ag24
ag181
ag30
aS'if'
p1593
ag7
aS'variable_14'
p1594
aS'=='
p1595
ag10
aS'variable_8'
p1596
ag19
aS'variable_13'
p1597
ag24
aS'variable_39'
p1598
ag30
aS'if'
p1599
ag7
aS'0x20'
p1600
ag51
ag10
aS'variable_8'
p1601
aS'&&'
p1602
ag10
aS'variable_8'
p1603
ag51
aS'0x7f'
p1604
ag19
aS'variable_28'
p1605
ag24
ag10
aS'variable_8'
p1606
ag30
aS'variable_13'
p1607
ag24
aS'variable_43'
p1608
ag30
aS'if'
p1609
ag7
aS'func_23'
p1610
ag7
aS'variable_10'
p1611
ag12
aS'variable_9'
p1612
ag12
ag65
ag19
ag19
ag10
aS'variable_10'
p1613
aS'++'
p1614
ag24
ag7
aS'0x80'
p1615
ag69
ag10
aS'variable_8'
p1616
ag19
ag71
aS'0xFFFD'
p1617
ag5
ag7
aS'variable_4'
p1618
ag19
ag10
aS'variable_8'
p1619
ag30
aS'if'
p1620
ag7
aS'0x20'
p1621
ag51
ag10
aS'variable_8'
p1622
aS'&&'
p1623
ag10
aS'variable_8'
p1624
ag51
aS'0x7f'
p1625
ag19
aS'unsigned'
p1626
aS'char'
p1627
aS'variable_36'
p1628
ag262
ag154
ag263
ag30
aS'PRInt32'
p1629
aS'variable_37'
p1630
ag24
ag154
ag30
aS'variable_36'
p1631
ag262
ag181
ag263
ag24
ag7
aS'unsigned'
p1632
aS'char'
p1633
ag19
aS'variable_44'
p1634
ag30
aS'variable_36'
p1635
ag262
ag65
ag263
ag24
ag7
aS'unsigned'
p1636
aS'char'
p1637
ag19
ag7
aS'variable_45'
p1638
ag28
ag88
ag19
ag30
aS'variable_36'
p1639
ag262
ag88
ag263
ag24
aS'variable_28'
p1640
ag268
aS'0x80'
p1641
ag30
aS'variable_36'
p1642
ag262
ag121
ag263
ag24
ag10
aS'variable_8'
p1643
ag268
aS'0x80'
p1644
ag30
aS'variable_12'
p1645
ag24
aS'variable_9'
p1646
ag275
aS'variable_10'
p1647
ag30
aS'variable_11'
p1648
ag24
aS'func_24'
p1649
ag7
aS'variable_36'
p1650
ag12
aS'variable_37'
p1651
ag12
aS'variable_10'
p1652
ag12
ag69
aS'variable_12'
p1653
ag19
ag30
aS'if'
p1654
ag7
aS'variable_11'
p1655
aS'=='
p1656
aS'variable_32'
p1657
ag19
aS'if'
p1658
ag7
aS'func_25'
p1659
ag7
aS'variable_11'
p1660
ag19
ag19
aS'variable_10'
p1661
aS'+='
p1662
aS'variable_12'
p1663
ag30
aS'if'
p1664
ag7
aS'func_26'
p1665
ag7
aS'variable_10'
p1666
ag12
aS'variable_9'
p1667
ag12
ag88
ag19
ag19
ag10
aS'variable_10'
p1668
aS'++'
p1669
ag24
ag7
aS'variable_4'
p1670
ag19
aS'variable_28'
p1671
ag30
ag10
aS'variable_10'
p1672
aS'++'
p1673
ag24
ag7
aS'0x80'
p1674
ag69
ag10
aS'variable_8'
p1675
ag19
ag71
aS'0xFFFD'
p1676
ag5
ag7
aS'variable_4'
p1677
ag19
ag10
aS'variable_8'
p1678
ag30
aS'variable_13'
p1679
ag24
aS'variable_41'
p1680
ag30
aS'if'
p1681
ag7
aS'variable_14'
p1682
aS'=='
p1683
ag10
aS'variable_8'
p1684
ag19
aS'variable_13'
p1685
ag24
aS'variable_46'
p1686
ag30
aS'if'
p1687
ag7
aS'func_27'
p1688
ag7
aS'variable_10'
p1689
ag12
aS'variable_9'
p1690
ag12
ag65
ag19
ag19
ag10
aS'variable_10'
p1691
aS'++'
p1692
ag24
ag7
aS'0x80'
p1693
ag69
ag10
aS'variable_8'
p1694
ag19
ag71
aS'0xFFFD'
p1695
ag5
ag7
aS'variable_4'
p1696
ag19
ag10
aS'variable_8'
p1697
ag30
aS'variable_13'
p1698
ag24
aS'variable_42'
p1699
ag30
aS'if'
p1700
ag7
aS'variable_40'
p1701
aS'=='
p1702
ag10
aS'variable_8'
p1703
ag19
aS'variable_13'
p1704
ag24
aS'variable_41'
p1705
ag30
aS'variable_25'
p1706
ag24
ag181
ag30
aS'if'
p1707
ag7
ag78
ag79
ag78
aS'=='
p1708
ag10
aS'variable_8'
p1709
ag19
aS'variable_13'
p1710
ag24
aS'variable_17'
p1711
ag30
aS'if'
p1712
ag7
aS'func_28'
p1713
ag7
aS'variable_10'
p1714
ag12
aS'variable_9'
p1715
ag12
ag65
ag19
ag19
ag10
aS'variable_10'
p1716
aS'++'
p1717
ag24
ag7
aS'0x80'
p1718
ag69
ag10
aS'variable_8'
p1719
ag19
ag71
aS'0xFFFD'
p1720
ag5
ag7
aS'variable_4'
p1721
ag19
ag10
aS'variable_8'
p1722
ag30
aS'variable_13'
p1723
ag24
aS'variable_42'
p1724
ag30
aS'if'
p1725
ag7
ag78
ag746
ag78
ag51
ag24
ag10
aS'variable_8'
p1726
aS'&&'
p1727
ag10
aS'variable_8'
p1728
ag51
ag24
ag78
ag750
ag78
ag19
aS'variable_13'
p1729
ag24
aS'variable_47'
p1730
ag30
aS'variable_48'
p1731
ag24
ag10
aS'variable_8'
p1732
ag275
ag78
ag746
ag78
ag28
ag121
ag30
aS'if'
p1733
ag7
aS'func_29'
p1734
ag7
aS'variable_10'
p1735
ag12
aS'variable_9'
p1736
ag12
ag154
ag19
ag19
ag10
aS'variable_10'
p1737
aS'++'
p1738
ag24
ag7
aS'variable_4'
p1739
ag19
aS'variable_14'
p1740
ag30
ag10
aS'variable_10'
p1741
aS'++'
p1742
ag24
ag7
aS'variable_4'
p1743
ag19
ag78
ag79
ag78
ag30
ag10
aS'variable_10'
p1744
aS'++'
p1745
ag24
ag7
aS'variable_4'
p1746
ag19
ag78
ag28
ag78
ag30
ag10
aS'variable_10'
p1747
aS'++'
p1748
ag24
ag7
aS'0x80'
p1749
ag69
ag10
aS'variable_8'
p1750
ag19
ag71
aS'0xFFFD'
p1751
ag5
ag7
aS'variable_4'
p1752
ag19
ag10
aS'variable_8'
p1753
ag30
aS'variable_13'
p1754
ag24
aS'variable_16'
p1755
ag30
aS'if'
p1756
ag7
aS'variable_14'
p1757
aS'=='
p1758
ag10
aS'variable_8'
p1759
ag19
aS'variable_13'
p1760
ag24
aS'variable_49'
p1761
ag30
aS'if'
p1762
ag7
aS'func_30'
p1763
ag7
aS'variable_10'
p1764
ag12
aS'variable_9'
p1765
ag12
ag186
ag19
ag19
ag10
aS'variable_10'
p1766
aS'++'
p1767
ag24
ag7
aS'variable_4'
p1768
ag19
aS'variable_14'
p1769
ag30
ag10
aS'variable_10'
p1770
aS'++'
p1771
ag24
ag7
aS'variable_4'
p1772
ag19
ag78
ag79
ag78
ag30
ag10
aS'variable_10'
p1773
aS'++'
p1774
ag24
ag7
aS'variable_4'
p1775
ag19
ag78
ag28
ag78
ag30
ag10
aS'variable_10'
p1776
aS'++'
p1777
ag24
ag7
aS'variable_4'
p1778
ag19
ag78
ag746
ag78
ag28
aS'variable_48'
p1779
ag275
ag121
ag30
ag10
aS'variable_10'
p1780
aS'++'
p1781
ag24
ag7
aS'0x80'
p1782
ag69
ag10
aS'variable_8'
p1783
ag19
ag71
aS'0xFFFD'
p1784
ag5
ag7
aS'variable_4'
p1785
ag19
ag10
aS'variable_8'
p1786
ag30
aS'variable_13'
p1787
ag24
aS'variable_16'
p1788
ag30
aS'if'
p1789
ag7
aS'variable_50'
p1790
aS'=='
p1791
ag10
aS'variable_8'
p1792
ag19
aS'variable_13'
p1793
ag24
aS'variable_51'
p1794
ag30
aS'variable_25'
p1795
ag24
ag181
ag30
aS'if'
p1796
ag7
ag78
ag79
ag78
aS'=='
p1797
ag10
aS'variable_8'
p1798
ag19
aS'variable_13'
p1799
ag24
aS'variable_17'
p1800
ag30
aS'if'
p1801
ag7
aS'func_31'
p1802
ag7
aS'variable_10'
p1803
ag12
aS'variable_9'
p1804
ag12
ag569
ag19
ag19
ag10
aS'variable_10'
p1805
aS'++'
p1806
ag24
ag7
aS'variable_4'
p1807
ag19
aS'variable_14'
p1808
ag30
ag10
aS'variable_10'
p1809
aS'++'
p1810
ag24
ag7
aS'variable_4'
p1811
ag19
ag78
ag79
ag78
ag30
ag10
aS'variable_10'
p1812
aS'++'
p1813
ag24
ag7
aS'variable_4'
p1814
ag19
ag78
ag28
ag78
ag30
ag10
aS'variable_10'
p1815
aS'++'
p1816
ag24
ag7
aS'variable_4'
p1817
ag19
ag78
ag746
ag78
ag28
aS'variable_48'
p1818
ag275
ag121
ag30
ag10
aS'variable_10'
p1819
aS'++'
p1820
ag24
ag7
aS'variable_4'
p1821
ag19
aS'variable_14'
p1822
ag30
ag10
aS'variable_10'
p1823
aS'++'
p1824
ag24
ag7
aS'0x80'
p1825
ag69
ag10
aS'variable_8'
p1826
ag19
ag71
aS'0xFFFD'
p1827
ag5
ag7
aS'variable_4'
p1828
ag19
ag10
aS'variable_8'
p1829
ag30
aS'variable_13'
p1830
ag24
aS'variable_16'
p1831
ag30
aS'if'
p1832
ag7
aS'variable_26'
p1833
aS'=='
p1834
ag10
aS'variable_8'
p1835
ag19
aS'variable_13'
p1836
ag24
aS'variable_52'
p1837
ag30
aS'if'
p1838
ag7
aS'variable_25'
p1839
aS'=='
p1840
ag181
ag19
aS'if'
p1841
ag7
aS'func_32'
p1842
ag7
aS'variable_10'
p1843
ag12
aS'variable_9'
p1844
ag12
ag65
ag19
ag19
ag10
aS'variable_10'
p1845
aS'++'
p1846
ag24
aS'0xFFFD'
p1847
ag30
aS'variable_25'
p1848
ag24
ag181
ag30
aS'if'
p1849
ag7
aS'variable_14'
p1850
aS'=='
p1851
ag10
aS'variable_8'
p1852
ag19
aS'variable_13'
p1853
ag24
aS'variable_49'
p1854
ag30
aS'if'
p1855
ag7
aS'0x20'
p1856
ag51
ag10
aS'variable_8'
p1857
aS'&&'
p1858
ag10
aS'variable_8'
p1859
ag51
aS'0x7f'
p1860
ag19
aS'variable_28'
p1861
ag24
ag10
aS'variable_8'
p1862
ag30
aS'variable_13'
p1863
ag24
aS'variable_53'
p1864
ag30
aS'if'
p1865
ag7
aS'func_33'
p1866
ag7
aS'variable_10'
p1867
ag12
aS'variable_9'
p1868
ag12
ag65
ag19
ag19
ag10
aS'variable_10'
p1869
aS'++'
p1870
ag24
ag7
aS'0x80'
p1871
ag69
ag10
aS'variable_8'
p1872
ag19
ag71
aS'0xFFFD'
p1873
ag5
ag7
aS'variable_4'
p1874
ag19
ag10
aS'variable_8'
p1875
ag30
aS'if'
p1876
ag7
aS'0x20'
p1877
ag51
ag10
aS'variable_8'
p1878
aS'&&'
p1879
ag10
aS'variable_8'
p1880
ag51
aS'0x7f'
p1881
ag19
aS'unsigned'
p1882
aS'char'
p1883
aS'variable_36'
p1884
ag262
ag154
ag263
ag30
aS'PRInt32'
p1885
aS'variable_37'
p1886
ag24
ag154
ag30
aS'variable_36'
p1887
ag262
ag181
ag263
ag24
ag7
aS'unsigned'
p1888
aS'char'
p1889
ag19
aS'variable_44'
p1890
ag30
aS'variable_36'
p1891
ag262
ag65
ag263
ag24
ag7
aS'unsigned'
p1892
aS'char'
p1893
ag19
ag7
aS'variable_45'
p1894
ag28
aS'variable_48'
p1895
ag19
ag30
aS'variable_36'
p1896
ag262
ag88
ag263
ag24
aS'variable_28'
p1897
ag268
aS'0x80'
p1898
ag30
aS'variable_36'
p1899
ag262
ag121
ag263
ag24
ag10
aS'variable_8'
p1900
ag268
aS'0x80'
p1901
ag30
aS'variable_12'
p1902
ag24
aS'variable_9'
p1903
ag275
aS'variable_10'
p1904
ag30
aS'variable_11'
p1905
ag24
aS'func_34'
p1906
ag7
aS'variable_36'
p1907
ag12
aS'variable_37'
p1908
ag12
aS'variable_10'
p1909
ag12
ag69
aS'variable_12'
p1910
ag19
ag30
aS'if'
p1911
ag7
aS'variable_11'
p1912
aS'=='
p1913
aS'variable_32'
p1914
ag19
aS'if'
p1915
ag7
aS'func_35'
p1916
ag7
aS'variable_11'
p1917
ag19
ag19
aS'variable_10'
p1918
aS'+='
p1919
aS'variable_12'
p1920
ag30
aS'if'
p1921
ag7
aS'func_36'
p1922
ag7
aS'variable_10'
p1923
ag12
aS'variable_9'
p1924
ag12
ag88
ag19
ag19
ag10
aS'variable_10'
p1925
aS'++'
p1926
ag24
ag7
aS'variable_4'
p1927
ag19
aS'variable_28'
p1928
ag30
ag10
aS'variable_10'
p1929
aS'++'
p1930
ag24
ag7
aS'0x80'
p1931
ag69
ag10
aS'variable_8'
p1932
ag19
ag71
aS'0xFFFD'
p1933
ag5
ag7
aS'variable_4'
p1934
ag19
ag10
aS'variable_8'
p1935
ag30
aS'variable_13'
p1936
ag24
aS'variable_51'
p1937
ag30
aS'if'
p1938
ag7
aS'variable_14'
p1939
aS'=='
p1940
ag10
aS'variable_8'
p1941
ag19
aS'variable_13'
p1942
ag24
aS'variable_54'
p1943
ag30
aS'if'
p1944
ag7
aS'func_37'
p1945
ag7
aS'variable_10'
p1946
ag12
aS'variable_9'
p1947
ag12
ag65
ag19
ag19
ag10
aS'variable_10'
p1948
aS'++'
p1949
ag24
ag7
aS'0x80'
p1950
ag69
ag10
aS'variable_8'
p1951
ag19
ag71
aS'0xFFFD'
p1952
ag5
ag7
aS'variable_4'
p1953
ag19
ag10
aS'variable_8'
p1954
ag30
aS'variable_13'
p1955
ag24
aS'variable_52'
p1956
ag30
aS'if'
p1957
ag7
aS'variable_50'
p1958
aS'=='
p1959
ag10
aS'variable_8'
p1960
ag19
aS'variable_13'
p1961
ag24
aS'variable_51'
p1962
ag30
aS'variable_25'
p1963
ag24
ag181
ag30
aS'if'
p1964
ag7
ag78
ag79
ag78
aS'=='
p1965
ag10
aS'variable_8'
p1966
ag19
aS'variable_13'
p1967
ag24
aS'variable_17'
p1968
ag30
aS'if'
p1969
ag7
aS'func_38'
p1970
ag7
aS'variable_10'
p1971
ag12
aS'variable_9'
p1972
ag12
ag65
ag19
ag19
ag10
aS'variable_10'
p1973
aS'++'
p1974
ag24
ag7
aS'0x80'
p1975
ag69
ag10
aS'variable_8'
p1976
ag19
ag71
aS'0xFFFD'
p1977
ag5
ag7
aS'variable_4'
p1978
ag19
ag10
aS'variable_8'
p1979
ag30
aS'variable_13'
p1980
ag24
aS'variable_52'
p1981
ag30
aS'variable_8'
p1982
aS'++'
p1983
ag30
ag10
aS'variable_6'
p1984
ag24
aS'variable_10'
p1985
ag275
aS'variable_5'
p1986
ag30
ag10
aS'variable_6'
p1987
ag24
aS'variable_10'
p1988
ag275
aS'variable_5'
p1989
ag30
aa(lp1990
S'NS_IMETHODIMP'
p1991
aS'variable_0'
p1992
ag5
ag5
aS'func_0'
p1993
ag7
aS'const'
p1994
aS'char'
p1995
ag10
aS'variable_1'
p1996
ag12
aS'variable_2'
p1997
ag10
aS'variable_3'
p1998
ag12
aS'variable_4'
p1999
ag10
aS'variable_5'
p2000
ag12
aS'variable_2'
p2001
ag10
aS'variable_6'
p2002
ag19
aS'const'
p2003
aS'unsigned'
p2004
aS'char'
p2005
ag10
aS'variable_7'
p2006
ag24
ag7
aS'unsigned'
p2007
aS'char'
p2008
ag10
ag19
aS'variable_1'
p2009
ag28
ag10
aS'variable_3'
p2010
ag30
aS'const'
p2011
aS'unsigned'
p2012
aS'char'
p2013
ag10
aS'variable_8'
p2014
ag24
ag7
aS'unsigned'
p2015
aS'char'
p2016
ag10
ag19
aS'variable_1'
p2017
ag30
aS'variable_4'
p2018
ag10
aS'variable_9'
p2019
ag24
aS'variable_5'
p2020
ag28
ag10
aS'variable_6'
p2021
ag30
aS'variable_4'
p2022
ag10
aS'variable_10'
p2023
ag24
aS'variable_5'
p2024
ag30
aS'nsresult'
p2025
aS'variable_11'
p2026
ag30
aS'PRInt32'
p2027
aS'variable_12'
p2028
ag30
aS'while'
p2029
ag7
aS'variable_8'
p2030
ag51
aS'variable_7'
p2031
ag19
aS'switch'
p2032
ag7
aS'variable_13'
p2033
ag19
aS'if'
p2034
ag7
aS'variable_14'
p2035
aS'=='
p2036
ag10
aS'variable_8'
p2037
ag19
aS'variable_13'
p2038
ag24
aS'variable_15'
p2039
ag30
aS'if'
p2040
ag7
aS'func_1'
p2041
ag7
aS'variable_10'
p2042
ag12
aS'variable_9'
p2043
ag12
ag65
ag19
ag19
ag10
aS'variable_10'
p2044
aS'++'
p2045
ag24
ag7
aS'0x80'
p2046
ag69
ag10
aS'variable_8'
p2047
ag19
ag71
aS'0xFFFD'
p2048
ag5
ag7
aS'variable_4'
p2049
ag19
ag10
aS'variable_8'
p2050
ag30
aS'variable_13'
p2051
ag24
aS'variable_16'
p2052
ag30
aS'if'
p2053
ag7
ag78
ag79
ag78
aS'=='
p2054
ag10
aS'variable_8'
p2055
ag19
aS'variable_13'
p2056
ag24
aS'variable_17'
p2057
ag30
aS'if'
p2058
ag7
aS'func_2'
p2059
ag7
aS'variable_10'
p2060
ag12
aS'variable_9'
p2061
ag12
ag88
ag19
ag19
ag10
aS'variable_10'
p2062
aS'++'
p2063
ag24
ag7
aS'variable_4'
p2064
ag19
aS'variable_14'
p2065
ag30
ag10
aS'variable_10'
p2066
aS'++'
p2067
ag24
ag7
aS'0x80'
p2068
ag69
ag10
aS'variable_8'
p2069
ag19
ag71
aS'0xFFFD'
p2070
ag5
ag7
aS'variable_4'
p2071
ag19
ag10
aS'variable_8'
p2072
ag30
aS'variable_13'
p2073
ag24
aS'variable_16'
p2074
ag30
aS'if'
p2075
ag7
ag78
ag19
ag78
aS'=='
p2076
ag10
aS'variable_8'
p2077
ag19
aS'variable_13'
p2078
ag24
aS'variable_18'
p2079
ag30
aS'if'
p2080
ag7
ag78
ag10
ag78
aS'=='
p2081
ag10
aS'variable_8'
p2082
ag19
aS'variable_13'
p2083
ag24
aS'variable_19'
p2084
ag30
aS'if'
p2085
ag7
ag78
ag28
ag78
aS'=='
p2086
ag10
aS'variable_8'
p2087
ag19
aS'variable_13'
p2088
ag24
aS'variable_20'
p2089
ag30
aS'if'
p2090
ag7
aS'func_3'
p2091
ag7
aS'variable_10'
p2092
ag12
aS'variable_9'
p2093
ag12
ag121
ag19
ag19
ag10
aS'variable_10'
p2094
aS'++'
p2095
ag24
ag7
aS'variable_4'
p2096
ag19
aS'variable_14'
p2097
ag30
ag10
aS'variable_10'
p2098
aS'++'
p2099
ag24
ag7
aS'variable_4'
p2100
ag19
ag78
ag79
ag78
ag30
ag10
aS'variable_10'
p2101
aS'++'
p2102
ag24
ag7
aS'0x80'
p2103
ag69
ag10
aS'variable_8'
p2104
ag19
ag71
aS'0xFFFD'
p2105
ag5
ag7
aS'variable_4'
p2106
ag19
ag10
aS'variable_8'
p2107
ag30
aS'variable_13'
p2108
ag24
aS'variable_16'
p2109
ag30
aS'if'
p2110
ag7
ag78
ag139
ag78
aS'=='
p2111
ag10
aS'variable_8'
p2112
ag19
aS'variable_13'
p2113
ag24
aS'variable_21'
p2114
ag30
aS'if'
p2115
ag7
ag78
ag145
ag78
aS'=='
p2116
ag10
aS'variable_8'
p2117
ag19
aS'variable_13'
p2118
ag24
aS'variable_22'
p2119
ag30
aS'if'
p2120
ag7
aS'func_4'
p2121
ag7
aS'variable_10'
p2122
ag12
aS'variable_9'
p2123
ag12
ag154
ag19
ag19
ag10
aS'variable_10'
p2124
aS'++'
p2125
ag24
ag7
aS'variable_4'
p2126
ag19
aS'variable_14'
p2127
ag30
ag10
aS'variable_10'
p2128
aS'++'
p2129
ag24
ag7
aS'variable_4'
p2130
ag19
ag78
ag79
ag78
ag30
ag10
aS'variable_10'
p2131
aS'++'
p2132
ag24
ag7
aS'variable_4'
p2133
ag19
ag78
ag19
ag78
ag30
ag10
aS'variable_10'
p2134
aS'++'
p2135
ag24
ag7
aS'0x80'
p2136
ag69
ag10
aS'variable_8'
p2137
ag19
ag71
aS'0xFFFD'
p2138
ag5
ag7
aS'variable_4'
p2139
ag19
ag10
aS'variable_8'
p2140
ag30
aS'variable_13'
p2141
ag24
aS'variable_16'
p2142
ag30
aS'if'
p2143
ag7
aS'variable_23'
p2144
aS'=='
p2145
ag10
aS'variable_8'
p2146
ag19
aS'variable_13'
p2147
ag24
aS'variable_24'
p2148
ag30
aS'variable_25'
p2149
ag24
ag181
ag30
aS'if'
p2150
ag7
aS'func_5'
p2151
ag7
aS'variable_10'
p2152
ag12
aS'variable_9'
p2153
ag12
ag186
ag19
ag19
ag10
aS'variable_10'
p2154
aS'++'
p2155
ag24
ag7
aS'variable_4'
p2156
ag19
aS'variable_14'
p2157
ag30
ag10
aS'variable_10'
p2158
aS'++'
p2159
ag24
ag7
aS'variable_4'
p2160
ag19
ag78
ag79
ag78
ag30
ag10
aS'variable_10'
p2161
aS'++'
p2162
ag24
ag7
aS'variable_4'
p2163
ag19
ag78
ag19
ag78
ag30
ag10
aS'variable_10'
p2164
aS'++'
p2165
ag24
ag7
aS'variable_4'
p2166
ag19
ag78
ag139
ag78
ag30
ag10
aS'variable_10'
p2167
aS'++'
p2168
ag24
ag7
aS'0x80'
p2169
ag69
ag10
aS'variable_8'
p2170
ag19
ag71
aS'0xFFFD'
p2171
ag5
ag7
aS'variable_4'
p2172
ag19
ag10
aS'variable_8'
p2173
ag30
aS'variable_13'
p2174
ag24
aS'variable_16'
p2175
ag30
aS'if'
p2176
ag7
aS'variable_26'
p2177
aS'=='
p2178
ag10
aS'variable_8'
p2179
ag19
aS'variable_13'
p2180
ag24
aS'variable_27'
p2181
ag30
aS'if'
p2182
ag7
aS'variable_25'
p2183
aS'=='
p2184
ag181
ag19
aS'if'
p2185
ag7
aS'func_6'
p2186
ag7
aS'variable_10'
p2187
ag12
aS'variable_9'
p2188
ag12
ag65
ag19
ag19
ag10
aS'variable_10'
p2189
aS'++'
p2190
ag24
aS'0xFFFD'
p2191
ag30
aS'variable_25'
p2192
ag24
ag181
ag30
aS'if'
p2193
ag7
aS'variable_14'
p2194
aS'=='
p2195
ag10
aS'variable_8'
p2196
ag19
aS'variable_13'
p2197
ag24
aS'variable_15'
p2198
ag30
aS'if'
p2199
ag7
aS'0x20'
p2200
ag51
ag10
aS'variable_8'
p2201
aS'&&'
p2202
ag10
aS'variable_8'
p2203
ag51
aS'0x7f'
p2204
ag19
aS'variable_28'
p2205
ag24
ag10
aS'variable_8'
p2206
ag30
aS'variable_13'
p2207
ag24
aS'variable_29'
p2208
ag30
aS'if'
p2209
ag7
aS'func_7'
p2210
ag7
aS'variable_10'
p2211
ag12
aS'variable_9'
p2212
ag12
ag65
ag19
ag19
ag10
aS'variable_10'
p2213
aS'++'
p2214
ag24
ag7
aS'0x80'
p2215
ag69
ag10
aS'variable_8'
p2216
ag19
ag71
aS'0xFFFD'
p2217
ag5
ag7
aS'variable_4'
p2218
ag19
ag10
aS'variable_8'
p2219
ag30
aS'if'
p2220
ag7
aS'0x20'
p2221
ag51
ag10
aS'variable_8'
p2222
aS'&&'
p2223
ag10
aS'variable_8'
p2224
ag51
aS'0x7f'
p2225
ag19
aS'unsigned'
p2226
aS'char'
p2227
aS'variable_30'
p2228
ag262
ag88
ag263
ag30
aS'PRInt32'
p2229
aS'variable_31'
p2230
ag24
ag88
ag30
aS'variable_30'
p2231
ag262
ag181
ag263
ag24
aS'variable_28'
p2232
ag268
aS'0x80'
p2233
ag30
aS'variable_30'
p2234
ag262
ag65
ag263
ag24
ag10
aS'variable_8'
p2235
ag268
aS'0x80'
p2236
ag30
aS'variable_12'
p2237
ag24
aS'variable_9'
p2238
ag275
aS'variable_10'
p2239
ag30
aS'variable_11'
p2240
ag24
aS'func_8'
p2241
ag7
aS'variable_30'
p2242
ag12
aS'variable_31'
p2243
ag12
aS'variable_10'
p2244
ag12
ag69
aS'variable_12'
p2245
ag19
ag30
aS'if'
p2246
ag7
aS'variable_11'
p2247
aS'=='
p2248
aS'variable_32'
p2249
ag19
aS'if'
p2250
ag7
aS'func_9'
p2251
ag7
aS'variable_11'
p2252
ag19
ag19
aS'variable_10'
p2253
aS'+='
p2254
aS'variable_12'
p2255
ag30
aS'if'
p2256
ag7
aS'func_10'
p2257
ag7
aS'variable_10'
p2258
ag12
aS'variable_9'
p2259
ag12
ag88
ag19
ag19
ag10
aS'variable_10'
p2260
aS'++'
p2261
ag24
ag7
aS'variable_4'
p2262
ag19
aS'variable_28'
p2263
ag30
ag10
aS'variable_10'
p2264
aS'++'
p2265
ag24
ag7
aS'0x80'
p2266
ag69
ag10
aS'variable_8'
p2267
ag19
ag71
aS'0xFFFD'
p2268
ag5
ag7
aS'variable_4'
p2269
ag19
ag10
aS'variable_8'
p2270
ag30
aS'variable_13'
p2271
ag24
aS'variable_24'
p2272
ag30
aS'if'
p2273
ag7
aS'variable_23'
p2274
aS'=='
p2275
ag10
aS'variable_8'
p2276
ag19
aS'variable_13'
p2277
ag24
aS'variable_24'
p2278
ag30
aS'variable_25'
p2279
ag24
ag181
ag30
aS'if'
p2280
ag7
aS'variable_14'
p2281
aS'=='
p2282
ag10
aS'variable_8'
p2283
ag19
aS'variable_13'
p2284
ag24
aS'variable_15'
p2285
ag30
aS'if'
p2286
ag7
aS'func_11'
p2287
ag7
aS'variable_10'
p2288
ag12
aS'variable_9'
p2289
ag12
ag65
ag19
ag19
ag10
aS'variable_10'
p2290
aS'++'
p2291
ag24
ag7
aS'0x80'
p2292
ag69
ag10
aS'variable_8'
p2293
ag19
ag71
aS'0xFFFD'
p2294
ag5
ag7
aS'variable_4'
p2295
ag19
ag10
aS'variable_8'
p2296
ag30
aS'variable_13'
p2297
ag24
aS'variable_27'
p2298
ag30
aS'if'
p2299
ag7
aS'variable_23'
p2300
aS'=='
p2301
ag10
aS'variable_8'
p2302
ag19
aS'variable_13'
p2303
ag24
aS'variable_33'
p2304
ag30
aS'variable_25'
p2305
ag24
ag181
ag30
aS'if'
p2306
ag7
aS'func_12'
p2307
ag7
aS'variable_10'
p2308
ag12
aS'variable_9'
p2309
ag12
ag186
ag19
ag19
ag10
aS'variable_10'
p2310
aS'++'
p2311
ag24
ag7
aS'variable_4'
p2312
ag19
aS'variable_14'
p2313
ag30
ag10
aS'variable_10'
p2314
aS'++'
p2315
ag24
ag7
aS'variable_4'
p2316
ag19
ag78
ag79
ag78
ag30
ag10
aS'variable_10'
p2317
aS'++'
p2318
ag24
ag7
aS'variable_4'
p2319
ag19
ag78
ag19
ag78
ag30
ag10
aS'variable_10'
p2320
aS'++'
p2321
ag24
ag7
aS'variable_4'
p2322
ag19
ag78
ag145
ag78
ag30
ag10
aS'variable_10'
p2323
aS'++'
p2324
ag24
ag7
aS'0x80'
p2325
ag69
ag10
aS'variable_8'
p2326
ag19
ag71
aS'0xFFFD'
p2327
ag5
ag7
aS'variable_4'
p2328
ag19
ag10
aS'variable_8'
p2329
ag30
aS'variable_13'
p2330
ag24
aS'variable_16'
p2331
ag30
aS'if'
p2332
ag7
aS'variable_26'
p2333
aS'=='
p2334
ag10
aS'variable_8'
p2335
ag19
aS'variable_13'
p2336
ag24
aS'variable_34'
p2337
ag30
aS'if'
p2338
ag7
aS'variable_25'
p2339
aS'=='
p2340
ag181
ag19
aS'if'
p2341
ag7
aS'func_13'
p2342
ag7
aS'variable_10'
p2343
ag12
aS'variable_9'
p2344
ag12
ag65
ag19
ag19
ag10
aS'variable_10'
p2345
aS'++'
p2346
ag24
aS'0xFFFD'
p2347
ag30
aS'variable_25'
p2348
ag24
ag181
ag30
aS'if'
p2349
ag7
aS'variable_14'
p2350
aS'=='
p2351
ag10
aS'variable_8'
p2352
ag19
aS'variable_13'
p2353
ag24
aS'variable_15'
p2354
ag30
aS'if'
p2355
ag7
aS'0x20'
p2356
ag51
ag10
aS'variable_8'
p2357
aS'&&'
p2358
ag10
aS'variable_8'
p2359
ag51
aS'0x7f'
p2360
ag19
aS'variable_28'
p2361
ag24
ag10
aS'variable_8'
p2362
ag30
aS'variable_13'
p2363
ag24
aS'variable_35'
p2364
ag30
aS'if'
p2365
ag7
aS'func_14'
p2366
ag7
aS'variable_10'
p2367
ag12
aS'variable_9'
p2368
ag12
ag65
ag19
ag19
ag10
aS'variable_10'
p2369
aS'++'
p2370
ag24
ag7
aS'0x80'
p2371
ag69
ag10
aS'variable_8'
p2372
ag19
ag71
aS'0xFFFD'
p2373
ag5
ag7
aS'variable_4'
p2374
ag19
ag10
aS'variable_8'
p2375
ag30
aS'if'
p2376
ag7
aS'0x20'
p2377
ag51
ag10
aS'variable_8'
p2378
aS'&&'
p2379
ag10
aS'variable_8'
p2380
ag51
aS'0x7f'
p2381
ag19
aS'unsigned'
p2382
aS'char'
p2383
aS'variable_36'
p2384
ag262
ag154
ag263
ag30
aS'PRInt32'
p2385
aS'variable_37'
p2386
ag24
ag88
ag30
aS'variable_36'
p2387
ag262
ag181
ag263
ag24
aS'variable_28'
p2388
ag268
aS'0x80'
p2389
ag30
aS'variable_36'
p2390
ag262
ag65
ag263
ag24
ag10
aS'variable_8'
p2391
ag268
aS'0x80'
p2392
ag30
aS'variable_12'
p2393
ag24
aS'variable_9'
p2394
ag275
aS'variable_10'
p2395
ag30
aS'variable_11'
p2396
ag24
aS'func_15'
p2397
ag7
aS'variable_36'
p2398
ag12
aS'variable_37'
p2399
ag12
aS'variable_10'
p2400
ag12
ag69
aS'variable_12'
p2401
ag19
ag30
aS'if'
p2402
ag7
aS'variable_11'
p2403
aS'=='
p2404
aS'variable_32'
p2405
ag19
aS'if'
p2406
ag7
aS'func_16'
p2407
ag7
aS'variable_11'
p2408
ag19
ag19
aS'variable_10'
p2409
aS'+='
p2410
aS'variable_12'
p2411
ag30
aS'if'
p2412
ag7
aS'func_17'
p2413
ag7
aS'variable_10'
p2414
ag12
aS'variable_9'
p2415
ag12
ag88
ag19
ag19
ag10
aS'variable_10'
p2416
aS'++'
p2417
ag24
ag7
aS'variable_4'
p2418
ag19
aS'variable_28'
p2419
ag30
ag10
aS'variable_10'
p2420
aS'++'
p2421
ag24
ag7
aS'0x80'
p2422
ag69
ag10
aS'variable_8'
p2423
ag19
ag71
aS'0xFFFD'
p2424
ag5
ag7
aS'variable_4'
p2425
ag19
ag10
aS'variable_8'
p2426
ag30
aS'variable_13'
p2427
ag24
aS'variable_33'
p2428
ag30
aS'if'
p2429
ag7
aS'variable_23'
p2430
aS'=='
p2431
ag10
aS'variable_8'
p2432
ag19
aS'variable_13'
p2433
ag24
aS'variable_33'
p2434
ag30
aS'variable_25'
p2435
ag24
ag181
ag30
aS'if'
p2436
ag7
aS'variable_14'
p2437
aS'=='
p2438
ag10
aS'variable_8'
p2439
ag19
aS'variable_13'
p2440
ag24
aS'variable_15'
p2441
ag30
aS'if'
p2442
ag7
aS'func_18'
p2443
ag7
aS'variable_10'
p2444
ag12
aS'variable_9'
p2445
ag12
ag65
ag19
ag19
ag10
aS'variable_10'
p2446
aS'++'
p2447
ag24
ag7
aS'0x80'
p2448
ag69
ag10
aS'variable_8'
p2449
ag19
ag71
aS'0xFFFD'
p2450
ag5
ag7
aS'variable_4'
p2451
ag19
ag10
aS'variable_8'
p2452
ag30
aS'variable_13'
p2453
ag24
aS'variable_34'
p2454
ag30
aS'if'
p2455
ag7
ag78
ag493
ag78
aS'=='
p2456
ag10
aS'variable_8'
p2457
ag19
aS'variable_13'
p2458
ag24
aS'variable_38'
p2459
ag30
aS'if'
p2460
ag7
aS'func_19'
p2461
ag7
aS'variable_10'
p2462
ag12
aS'variable_9'
p2463
ag12
ag154
ag19
ag19
ag10
aS'variable_10'
p2464
aS'++'
p2465
ag24
ag7
aS'variable_4'
p2466
ag19
aS'variable_14'
p2467
ag30
ag10
aS'variable_10'
p2468
aS'++'
p2469
ag24
ag7
aS'variable_4'
p2470
ag19
ag78
ag79
ag78
ag30
ag10
aS'variable_10'
p2471
aS'++'
p2472
ag24
ag7
aS'variable_4'
p2473
ag19
ag78
ag10
ag78
ag30
ag10
aS'variable_10'
p2474
aS'++'
p2475
ag24
ag7
aS'0x80'
p2476
ag69
ag10
aS'variable_8'
p2477
ag19
ag71
aS'0xFFFD'
p2478
ag5
ag7
aS'variable_4'
p2479
ag19
ag10
aS'variable_8'
p2480
ag30
aS'variable_13'
p2481
ag24
aS'variable_16'
p2482
ag30
aS'if'
p2483
ag7
aS'variable_14'
p2484
aS'=='
p2485
ag10
aS'variable_8'
p2486
ag19
aS'variable_13'
p2487
ag24
aS'variable_39'
p2488
ag30
aS'if'
p2489
ag7
aS'func_20'
p2490
ag7
aS'variable_10'
p2491
ag12
aS'variable_9'
p2492
ag12
ag186
ag19
ag19
ag10
aS'variable_10'
p2493
aS'++'
p2494
ag24
ag7
aS'variable_4'
p2495
ag19
aS'variable_14'
p2496
ag30
ag10
aS'variable_10'
p2497
aS'++'
p2498
ag24
ag7
aS'variable_4'
p2499
ag19
ag78
ag79
ag78
ag30
ag10
aS'variable_10'
p2500
aS'++'
p2501
ag24
ag7
aS'variable_4'
p2502
ag19
ag78
ag10
ag78
ag30
ag10
aS'variable_10'
p2503
aS'++'
p2504
ag24
ag7
aS'variable_4'
p2505
ag19
ag78
ag493
ag78
ag30
ag10
aS'variable_10'
p2506
aS'++'
p2507
ag24
ag7
aS'0x80'
p2508
ag69
ag10
aS'variable_8'
p2509
ag19
ag71
aS'0xFFFD'
p2510
ag5
ag7
aS'variable_4'
p2511
ag19
ag10
aS'variable_8'
p2512
ag30
aS'variable_13'
p2513
ag24
aS'variable_16'
p2514
ag30
aS'if'
p2515
ag7
aS'variable_40'
p2516
aS'=='
p2517
ag10
aS'variable_8'
p2518
ag19
aS'variable_13'
p2519
ag24
aS'variable_41'
p2520
ag30
aS'variable_25'
p2521
ag24
ag181
ag30
aS'if'
p2522
ag7
ag78
ag79
ag78
aS'=='
p2523
ag10
aS'variable_8'
p2524
ag19
aS'variable_13'
p2525
ag24
aS'variable_17'
p2526
ag30
aS'if'
p2527
ag7
aS'func_21'
p2528
ag7
aS'variable_10'
p2529
ag12
aS'variable_9'
p2530
ag12
ag569
ag19
ag19
ag10
aS'variable_10'
p2531
aS'++'
p2532
ag24
ag7
aS'variable_4'
p2533
ag19
aS'variable_14'
p2534
ag30
ag10
aS'variable_10'
p2535
aS'++'
p2536
ag24
ag7
aS'variable_4'
p2537
ag19
ag78
ag79
ag78
ag30
ag10
aS'variable_10'
p2538
aS'++'
p2539
ag24
ag7
aS'variable_4'
p2540
ag19
ag78
ag10
ag78
ag30
ag10
aS'variable_10'
p2541
aS'++'
p2542
ag24
ag7
aS'variable_4'
p2543
ag19
ag78
ag493
ag78
ag30
ag10
aS'variable_10'
p2544
aS'++'
p2545
ag24
ag7
aS'variable_4'
p2546
ag19
aS'variable_14'
p2547
ag30
ag10
aS'variable_10'
p2548
aS'++'
p2549
ag24
ag7
aS'0x80'
p2550
ag69
ag10
aS'variable_8'
p2551
ag19
ag71
aS'0xFFFD'
p2552
ag5
ag7
aS'variable_4'
p2553
ag19
ag10
aS'variable_8'
p2554
ag30
aS'variable_13'
p2555
ag24
aS'variable_16'
p2556
ag30
aS'if'
p2557
ag7
aS'variable_26'
p2558
aS'=='
p2559
ag10
aS'variable_8'
p2560
ag19
aS'variable_13'
p2561
ag24
aS'variable_42'
p2562
ag30
aS'if'
p2563
ag7
aS'variable_25'
p2564
aS'=='
p2565
ag181
ag19
aS'if'
p2566
ag7
aS'func_22'
p2567
ag7
aS'variable_10'
p2568
ag12
aS'variable_9'
p2569
ag12
ag65
ag19
ag19
ag10
aS'variable_10'
p2570
aS'++'
p2571
ag24
aS'0xFFFD'
p2572
ag30
aS'variable_25'
p2573
ag24
ag181
ag30
aS'if'
p2574
ag7
aS'variable_14'
p2575
aS'=='
p2576
ag10
aS'variable_8'
p2577
ag19
aS'variable_13'
p2578
ag24
aS'variable_39'
p2579
ag30
aS'if'
p2580
ag7
aS'0x20'
p2581
ag51
ag10
aS'variable_8'
p2582
aS'&&'
p2583
ag10
aS'variable_8'
p2584
ag51
aS'0x7f'
p2585
ag19
aS'variable_28'
p2586
ag24
ag10
aS'variable_8'
p2587
ag30
aS'variable_13'
p2588
ag24
aS'variable_43'
p2589
ag30
aS'if'
p2590
ag7
aS'func_23'
p2591
ag7
aS'variable_10'
p2592
ag12
aS'variable_9'
p2593
ag12
ag65
ag19
ag19
ag10
aS'variable_10'
p2594
aS'++'
p2595
ag24
ag7
aS'0x80'
p2596
ag69
ag10
aS'variable_8'
p2597
ag19
ag71
aS'0xFFFD'
p2598
ag5
ag7
aS'variable_4'
p2599
ag19
ag10
aS'variable_8'
p2600
ag30
aS'if'
p2601
ag7
aS'0x20'
p2602
ag51
ag10
aS'variable_8'
p2603
aS'&&'
p2604
ag10
aS'variable_8'
p2605
ag51
aS'0x7f'
p2606
ag19
aS'unsigned'
p2607
aS'char'
p2608
aS'variable_36'
p2609
ag262
ag154
ag263
ag30
aS'PRInt32'
p2610
aS'variable_37'
p2611
ag24
ag154
ag30
aS'variable_36'
p2612
ag262
ag181
ag263
ag24
ag7
aS'unsigned'
p2613
aS'char'
p2614
ag19
aS'variable_44'
p2615
ag30
aS'variable_36'
p2616
ag262
ag65
ag263
ag24
ag7
aS'unsigned'
p2617
aS'char'
p2618
ag19
ag7
aS'variable_45'
p2619
ag28
ag88
ag19
ag30
aS'variable_36'
p2620
ag262
ag88
ag263
ag24
aS'variable_28'
p2621
ag268
aS'0x80'
p2622
ag30
aS'variable_36'
p2623
ag262
ag121
ag263
ag24
ag10
aS'variable_8'
p2624
ag268
aS'0x80'
p2625
ag30
aS'variable_12'
p2626
ag24
aS'variable_9'
p2627
ag275
aS'variable_10'
p2628
ag30
aS'variable_11'
p2629
ag24
aS'func_24'
p2630
ag7
aS'variable_36'
p2631
ag12
aS'variable_37'
p2632
ag12
aS'variable_10'
p2633
ag12
ag69
aS'variable_12'
p2634
ag19
ag30
aS'if'
p2635
ag7
aS'variable_11'
p2636
aS'=='
p2637
aS'variable_32'
p2638
ag19
aS'if'
p2639
ag7
aS'func_25'
p2640
ag7
aS'variable_11'
p2641
ag19
ag19
aS'variable_10'
p2642
aS'+='
p2643
aS'variable_12'
p2644
ag30
aS'if'
p2645
ag7
aS'func_26'
p2646
ag7
aS'variable_10'
p2647
ag12
aS'variable_9'
p2648
ag12
ag88
ag19
ag19
ag10
aS'variable_10'
p2649
aS'++'
p2650
ag24
ag7
aS'variable_4'
p2651
ag19
aS'variable_28'
p2652
ag30
ag10
aS'variable_10'
p2653
aS'++'
p2654
ag24
ag7
aS'0x80'
p2655
ag69
ag10
aS'variable_8'
p2656
ag19
ag71
aS'0xFFFD'
p2657
ag5
ag7
aS'variable_4'
p2658
ag19
ag10
aS'variable_8'
p2659
ag30
aS'variable_13'
p2660
ag24
aS'variable_41'
p2661
ag30
aS'if'
p2662
ag7
aS'variable_14'
p2663
aS'=='
p2664
ag10
aS'variable_8'
p2665
ag19
aS'variable_13'
p2666
ag24
aS'variable_46'
p2667
ag30
aS'if'
p2668
ag7
aS'func_27'
p2669
ag7
aS'variable_10'
p2670
ag12
aS'variable_9'
p2671
ag12
ag65
ag19
ag19
ag10
aS'variable_10'
p2672
aS'++'
p2673
ag24
ag7
aS'0x80'
p2674
ag69
ag10
aS'variable_8'
p2675
ag19
ag71
aS'0xFFFD'
p2676
ag5
ag7
aS'variable_4'
p2677
ag19
ag10
aS'variable_8'
p2678
ag30
aS'variable_13'
p2679
ag24
aS'variable_42'
p2680
ag30
aS'if'
p2681
ag7
aS'variable_40'
p2682
aS'=='
p2683
ag10
aS'variable_8'
p2684
ag19
aS'variable_13'
p2685
ag24
aS'variable_41'
p2686
ag30
aS'variable_25'
p2687
ag24
ag181
ag30
aS'if'
p2688
ag7
ag78
ag79
ag78
aS'=='
p2689
ag10
aS'variable_8'
p2690
ag19
aS'variable_13'
p2691
ag24
aS'variable_17'
p2692
ag30
aS'if'
p2693
ag7
aS'func_28'
p2694
ag7
aS'variable_10'
p2695
ag12
aS'variable_9'
p2696
ag12
ag65
ag19
ag19
ag10
aS'variable_10'
p2697
aS'++'
p2698
ag24
ag7
aS'0x80'
p2699
ag69
ag10
aS'variable_8'
p2700
ag19
ag71
aS'0xFFFD'
p2701
ag5
ag7
aS'variable_4'
p2702
ag19
ag10
aS'variable_8'
p2703
ag30
aS'variable_13'
p2704
ag24
aS'variable_42'
p2705
ag30
aS'if'
p2706
ag7
ag78
ag746
ag78
ag51
ag24
ag10
aS'variable_8'
p2707
aS'&&'
p2708
ag10
aS'variable_8'
p2709
ag51
ag24
ag78
ag750
ag78
ag19
aS'variable_13'
p2710
ag24
aS'variable_47'
p2711
ag30
aS'variable_48'
p2712
ag24
ag10
aS'variable_8'
p2713
ag275
ag78
ag746
ag78
ag28
ag121
ag30
aS'if'
p2714
ag7
aS'func_29'
p2715
ag7
aS'variable_10'
p2716
ag12
aS'variable_9'
p2717
ag12
ag154
ag19
ag19
ag10
aS'variable_10'
p2718
aS'++'
p2719
ag24
ag7
aS'variable_4'
p2720
ag19
aS'variable_14'
p2721
ag30
ag10
aS'variable_10'
p2722
aS'++'
p2723
ag24
ag7
aS'variable_4'
p2724
ag19
ag78
ag79
ag78
ag30
ag10
aS'variable_10'
p2725
aS'++'
p2726
ag24
ag7
aS'variable_4'
p2727
ag19
ag78
ag28
ag78
ag30
ag10
aS'variable_10'
p2728
aS'++'
p2729
ag24
ag7
aS'0x80'
p2730
ag69
ag10
aS'variable_8'
p2731
ag19
ag71
aS'0xFFFD'
p2732
ag5
ag7
aS'variable_4'
p2733
ag19
ag10
aS'variable_8'
p2734
ag30
aS'variable_13'
p2735
ag24
aS'variable_16'
p2736
ag30
aS'if'
p2737
ag7
aS'variable_14'
p2738
aS'=='
p2739
ag10
aS'variable_8'
p2740
ag19
aS'variable_13'
p2741
ag24
aS'variable_49'
p2742
ag30
aS'if'
p2743
ag7
aS'func_30'
p2744
ag7
aS'variable_10'
p2745
ag12
aS'variable_9'
p2746
ag12
ag186
ag19
ag19
ag10
aS'variable_10'
p2747
aS'++'
p2748
ag24
ag7
aS'variable_4'
p2749
ag19
aS'variable_14'
p2750
ag30
ag10
aS'variable_10'
p2751
aS'++'
p2752
ag24
ag7
aS'variable_4'
p2753
ag19
ag78
ag79
ag78
ag30
ag10
aS'variable_10'
p2754
aS'++'
p2755
ag24
ag7
aS'variable_4'
p2756
ag19
ag78
ag28
ag78
ag30
ag10
aS'variable_10'
p2757
aS'++'
p2758
ag24
ag7
aS'variable_4'
p2759
ag19
ag78
ag746
ag78
ag28
aS'variable_48'
p2760
ag275
ag121
ag30
ag10
aS'variable_10'
p2761
aS'++'
p2762
ag24
ag7
aS'0x80'
p2763
ag69
ag10
aS'variable_8'
p2764
ag19
ag71
aS'0xFFFD'
p2765
ag5
ag7
aS'variable_4'
p2766
ag19
ag10
aS'variable_8'
p2767
ag30
aS'variable_13'
p2768
ag24
aS'variable_16'
p2769
ag30
aS'if'
p2770
ag7
aS'variable_50'
p2771
aS'=='
p2772
ag10
aS'variable_8'
p2773
ag19
aS'variable_13'
p2774
ag24
aS'variable_51'
p2775
ag30
aS'variable_25'
p2776
ag24
ag181
ag30
aS'if'
p2777
ag7
ag78
ag79
ag78
aS'=='
p2778
ag10
aS'variable_8'
p2779
ag19
aS'variable_13'
p2780
ag24
aS'variable_17'
p2781
ag30
aS'if'
p2782
ag7
aS'func_31'
p2783
ag7
aS'variable_10'
p2784
ag12
aS'variable_9'
p2785
ag12
ag569
ag19
ag19
ag10
aS'variable_10'
p2786
aS'++'
p2787
ag24
ag7
aS'variable_4'
p2788
ag19
aS'variable_14'
p2789
ag30
ag10
aS'variable_10'
p2790
aS'++'
p2791
ag24
ag7
aS'variable_4'
p2792
ag19
ag78
ag79
ag78
ag30
ag10
aS'variable_10'
p2793
aS'++'
p2794
ag24
ag7
aS'variable_4'
p2795
ag19
ag78
ag28
ag78
ag30
ag10
aS'variable_10'
p2796
aS'++'
p2797
ag24
ag7
aS'variable_4'
p2798
ag19
ag78
ag746
ag78
ag28
aS'variable_48'
p2799
ag275
ag121
ag30
ag10
aS'variable_10'
p2800
aS'++'
p2801
ag24
ag7
aS'variable_4'
p2802
ag19
aS'variable_14'
p2803
ag30
ag10
aS'variable_10'
p2804
aS'++'
p2805
ag24
ag7
aS'0x80'
p2806
ag69
ag10
aS'variable_8'
p2807
ag19
ag71
aS'0xFFFD'
p2808
ag5
ag7
aS'variable_4'
p2809
ag19
ag10
aS'variable_8'
p2810
ag30
aS'variable_13'
p2811
ag24
aS'variable_16'
p2812
ag30
aS'if'
p2813
ag7
aS'variable_26'
p2814
aS'=='
p2815
ag10
aS'variable_8'
p2816
ag19
aS'variable_13'
p2817
ag24
aS'variable_52'
p2818
ag30
aS'if'
p2819
ag7
aS'variable_25'
p2820
aS'=='
p2821
ag181
ag19
aS'if'
p2822
ag7
aS'func_32'
p2823
ag7
aS'variable_10'
p2824
ag12
aS'variable_9'
p2825
ag12
ag65
ag19
ag19
ag10
aS'variable_10'
p2826
aS'++'
p2827
ag24
aS'0xFFFD'
p2828
ag30
aS'variable_25'
p2829
ag24
ag181
ag30
aS'if'
p2830
ag7
aS'variable_14'
p2831
aS'=='
p2832
ag10
aS'variable_8'
p2833
ag19
aS'variable_13'
p2834
ag24
aS'variable_49'
p2835
ag30
aS'if'
p2836
ag7
aS'0x20'
p2837
ag51
ag10
aS'variable_8'
p2838
aS'&&'
p2839
ag10
aS'variable_8'
p2840
ag51
aS'0x7f'
p2841
ag19
aS'variable_28'
p2842
ag24
ag10
aS'variable_8'
p2843
ag30
aS'variable_13'
p2844
ag24
aS'variable_53'
p2845
ag30
aS'if'
p2846
ag7
aS'func_33'
p2847
ag7
aS'variable_10'
p2848
ag12
aS'variable_9'
p2849
ag12
ag65
ag19
ag19
ag10
aS'variable_10'
p2850
aS'++'
p2851
ag24
ag7
aS'0x80'
p2852
ag69
ag10
aS'variable_8'
p2853
ag19
ag71
aS'0xFFFD'
p2854
ag5
ag7
aS'variable_4'
p2855
ag19
ag10
aS'variable_8'
p2856
ag30
aS'if'
p2857
ag7
aS'0x20'
p2858
ag51
ag10
aS'variable_8'
p2859
aS'&&'
p2860
ag10
aS'variable_8'
p2861
ag51
aS'0x7f'
p2862
ag19
aS'unsigned'
p2863
aS'char'
p2864
aS'variable_36'
p2865
ag262
ag154
ag263
ag30
aS'PRInt32'
p2866
aS'variable_37'
p2867
ag24
ag154
ag30
aS'variable_36'
p2868
ag262
ag181
ag263
ag24
ag7
aS'unsigned'
p2869
aS'char'
p2870
ag19
aS'variable_44'
p2871
ag30
aS'variable_36'
p2872
ag262
ag65
ag263
ag24
ag7
aS'unsigned'
p2873
aS'char'
p2874
ag19
ag7
aS'variable_45'
p2875
ag28
aS'variable_48'
p2876
ag19
ag30
aS'variable_36'
p2877
ag262
ag88
ag263
ag24
aS'variable_28'
p2878
ag268
aS'0x80'
p2879
ag30
aS'variable_36'
p2880
ag262
ag121
ag263
ag24
ag10
aS'variable_8'
p2881
ag268
aS'0x80'
p2882
ag30
aS'variable_12'
p2883
ag24
aS'variable_9'
p2884
ag275
aS'variable_10'
p2885
ag30
aS'variable_11'
p2886
ag24
aS'func_34'
p2887
ag7
aS'variable_36'
p2888
ag12
aS'variable_37'
p2889
ag12
aS'variable_10'
p2890
ag12
ag69
aS'variable_12'
p2891
ag19
ag30
aS'if'
p2892
ag7
aS'variable_11'
p2893
aS'=='
p2894
aS'variable_32'
p2895
ag19
aS'if'
p2896
ag7
aS'func_35'
p2897
ag7
aS'variable_11'
p2898
ag19
ag19
aS'variable_10'
p2899
aS'+='
p2900
aS'variable_12'
p2901
ag30
aS'if'
p2902
ag7
aS'func_36'
p2903
ag7
aS'variable_10'
p2904
ag12
aS'variable_9'
p2905
ag12
ag88
ag19
ag19
ag10
aS'variable_10'
p2906
aS'++'
p2907
ag24
ag7
aS'variable_4'
p2908
ag19
aS'variable_28'
p2909
ag30
ag10
aS'variable_10'
p2910
aS'++'
p2911
ag24
ag7
aS'0x80'
p2912
ag69
ag10
aS'variable_8'
p2913
ag19
ag71
aS'0xFFFD'
p2914
ag5
ag7
aS'variable_4'
p2915
ag19
ag10
aS'variable_8'
p2916
ag30
aS'variable_13'
p2917
ag24
aS'variable_51'
p2918
ag30
aS'if'
p2919
ag7
aS'variable_14'
p2920
aS'=='
p2921
ag10
aS'variable_8'
p2922
ag19
aS'variable_13'
p2923
ag24
aS'variable_54'
p2924
ag30
aS'if'
p2925
ag7
aS'func_37'
p2926
ag7
aS'variable_10'
p2927
ag12
aS'variable_9'
p2928
ag12
ag65
ag19
ag19
ag10
aS'variable_10'
p2929
aS'++'
p2930
ag24
ag7
aS'0x80'
p2931
ag69
ag10
aS'variable_8'
p2932
ag19
ag71
aS'0xFFFD'
p2933
ag5
ag7
aS'variable_4'
p2934
ag19
ag10
aS'variable_8'
p2935
ag30
aS'variable_13'
p2936
ag24
aS'variable_52'
p2937
ag30
aS'if'
p2938
ag7
aS'variable_50'
p2939
aS'=='
p2940
ag10
aS'variable_8'
p2941
ag19
aS'variable_13'
p2942
ag24
aS'variable_51'
p2943
ag30
aS'variable_25'
p2944
ag24
ag181
ag30
aS'if'
p2945
ag7
ag78
ag79
ag78
aS'=='
p2946
ag10
aS'variable_8'
p2947
ag19
aS'variable_13'
p2948
ag24
aS'variable_17'
p2949
ag30
aS'if'
p2950
ag7
aS'func_38'
p2951
ag7
aS'variable_10'
p2952
ag12
aS'variable_9'
p2953
ag12
ag65
ag19
ag19
ag10
aS'variable_10'
p2954
aS'++'
p2955
ag24
ag7
aS'0x80'
p2956
ag69
ag10
aS'variable_8'
p2957
ag19
ag71
aS'0xFFFD'
p2958
ag5
ag7
aS'variable_4'
p2959
ag19
ag10
aS'variable_8'
p2960
ag30
aS'variable_13'
p2961
ag24
aS'variable_52'
p2962
ag30
aS'variable_8'
p2963
aS'++'
p2964
ag30
ag10
aS'variable_6'
p2965
ag24
aS'variable_10'
p2966
ag275
aS'variable_5'
p2967
ag30
ag10
aS'variable_6'
p2968
ag24
aS'variable_10'
p2969
ag275
aS'variable_5'
p2970
ag30
ag10
aS'variable_6'
p2971
ag24
aS'variable_10'
p2972
ag275
aS'variable_5'
p2973
ag30
aa(lp2974
S'NS_IMETHODIMP'
p2975
aS'variable_0'
p2976
ag5
ag5
aS'func_0'
p2977
ag7
aS'const'
p2978
aS'char'
p2979
ag10
aS'variable_1'
p2980
ag12
aS'variable_2'
p2981
ag10
aS'variable_3'
p2982
ag12
aS'variable_4'
p2983
ag10
aS'variable_5'
p2984
ag12
aS'variable_2'
p2985
ag10
aS'variable_6'
p2986
ag19
aS'const'
p2987
aS'unsigned'
p2988
aS'char'
p2989
ag10
aS'variable_7'
p2990
ag24
ag7
aS'unsigned'
p2991
aS'char'
p2992
ag10
ag19
aS'variable_1'
p2993
ag28
ag10
aS'variable_3'
p2994
ag30
aS'const'
p2995
aS'unsigned'
p2996
aS'char'
p2997
ag10
aS'variable_8'
p2998
ag24
ag7
aS'unsigned'
p2999
aS'char'
p3000
ag10
ag19
aS'variable_1'
p3001
ag30
aS'variable_4'
p3002
ag10
aS'variable_9'
p3003
ag24
aS'variable_5'
p3004
ag28
ag10
aS'variable_6'
p3005
ag30
aS'variable_4'
p3006
ag10
aS'variable_10'
p3007
ag24
aS'variable_5'
p3008
ag30
aS'nsresult'
p3009
aS'variable_11'
p3010
ag30
aS'PRInt32'
p3011
aS'variable_12'
p3012
ag30
aS'while'
p3013
ag7
aS'variable_8'
p3014
ag51
aS'variable_7'
p3015
ag19
aS'switch'
p3016
ag7
aS'variable_13'
p3017
ag19
aS'if'
p3018
ag7
aS'variable_14'
p3019
aS'=='
p3020
ag10
aS'variable_8'
p3021
ag19
aS'variable_13'
p3022
ag24
aS'variable_15'
p3023
ag30
aS'if'
p3024
ag7
aS'func_1'
p3025
ag7
aS'variable_10'
p3026
ag12
aS'variable_9'
p3027
ag12
ag65
ag19
ag19
ag10
aS'variable_10'
p3028
aS'++'
p3029
ag24
ag7
aS'0x80'
p3030
ag69
ag10
aS'variable_8'
p3031
ag19
ag71
aS'0xFFFD'
p3032
ag5
ag7
aS'variable_4'
p3033
ag19
ag10
aS'variable_8'
p3034
ag30
aS'variable_13'
p3035
ag24
aS'variable_16'
p3036
ag30
aS'if'
p3037
ag7
ag78
ag79
ag78
aS'=='
p3038
ag10
aS'variable_8'
p3039
ag19
aS'variable_13'
p3040
ag24
aS'variable_17'
p3041
ag30
aS'if'
p3042
ag7
aS'func_2'
p3043
ag7
aS'variable_10'
p3044
ag12
aS'variable_9'
p3045
ag12
ag88
ag19
ag19
ag10
aS'variable_10'
p3046
aS'++'
p3047
ag24
ag7
aS'variable_4'
p3048
ag19
aS'variable_14'
p3049
ag30
ag10
aS'variable_10'
p3050
aS'++'
p3051
ag24
ag7
aS'0x80'
p3052
ag69
ag10
aS'variable_8'
p3053
ag19
ag71
aS'0xFFFD'
p3054
ag5
ag7
aS'variable_4'
p3055
ag19
ag10
aS'variable_8'
p3056
ag30
aS'variable_13'
p3057
ag24
aS'variable_16'
p3058
ag30
aS'if'
p3059
ag7
ag78
ag19
ag78
aS'=='
p3060
ag10
aS'variable_8'
p3061
ag19
aS'variable_13'
p3062
ag24
aS'variable_18'
p3063
ag30
aS'if'
p3064
ag7
ag78
ag10
ag78
aS'=='
p3065
ag10
aS'variable_8'
p3066
ag19
aS'variable_13'
p3067
ag24
aS'variable_19'
p3068
ag30
aS'if'
p3069
ag7
ag78
ag28
ag78
aS'=='
p3070
ag10
aS'variable_8'
p3071
ag19
aS'variable_13'
p3072
ag24
aS'variable_20'
p3073
ag30
aS'if'
p3074
ag7
aS'func_3'
p3075
ag7
aS'variable_10'
p3076
ag12
aS'variable_9'
p3077
ag12
ag121
ag19
ag19
ag10
aS'variable_10'
p3078
aS'++'
p3079
ag24
ag7
aS'variable_4'
p3080
ag19
aS'variable_14'
p3081
ag30
ag10
aS'variable_10'
p3082
aS'++'
p3083
ag24
ag7
aS'variable_4'
p3084
ag19
ag78
ag79
ag78
ag30
ag10
aS'variable_10'
p3085
aS'++'
p3086
ag24
ag7
aS'0x80'
p3087
ag69
ag10
aS'variable_8'
p3088
ag19
ag71
aS'0xFFFD'
p3089
ag5
ag7
aS'variable_4'
p3090
ag19
ag10
aS'variable_8'
p3091
ag30
aS'variable_13'
p3092
ag24
aS'variable_16'
p3093
ag30
aS'if'
p3094
ag7
ag78
ag139
ag78
aS'=='
p3095
ag10
aS'variable_8'
p3096
ag19
aS'variable_13'
p3097
ag24
aS'variable_21'
p3098
ag30
aS'if'
p3099
ag7
ag78
ag145
ag78
aS'=='
p3100
ag10
aS'variable_8'
p3101
ag19
aS'variable_13'
p3102
ag24
aS'variable_22'
p3103
ag30
aS'if'
p3104
ag7
aS'func_4'
p3105
ag7
aS'variable_10'
p3106
ag12
aS'variable_9'
p3107
ag12
ag154
ag19
ag19
ag10
aS'variable_10'
p3108
aS'++'
p3109
ag24
ag7
aS'variable_4'
p3110
ag19
aS'variable_14'
p3111
ag30
ag10
aS'variable_10'
p3112
aS'++'
p3113
ag24
ag7
aS'variable_4'
p3114
ag19
ag78
ag79
ag78
ag30
ag10
aS'variable_10'
p3115
aS'++'
p3116
ag24
ag7
aS'variable_4'
p3117
ag19
ag78
ag19
ag78
ag30
ag10
aS'variable_10'
p3118
aS'++'
p3119
ag24
ag7
aS'0x80'
p3120
ag69
ag10
aS'variable_8'
p3121
ag19
ag71
aS'0xFFFD'
p3122
ag5
ag7
aS'variable_4'
p3123
ag19
ag10
aS'variable_8'
p3124
ag30
aS'variable_13'
p3125
ag24
aS'variable_16'
p3126
ag30
aS'if'
p3127
ag7
aS'variable_23'
p3128
aS'=='
p3129
ag10
aS'variable_8'
p3130
ag19
aS'variable_13'
p3131
ag24
aS'variable_24'
p3132
ag30
aS'variable_25'
p3133
ag24
ag181
ag30
aS'if'
p3134
ag7
aS'func_5'
p3135
ag7
aS'variable_10'
p3136
ag12
aS'variable_9'
p3137
ag12
ag186
ag19
ag19
ag10
aS'variable_10'
p3138
aS'++'
p3139
ag24
ag7
aS'variable_4'
p3140
ag19
aS'variable_14'
p3141
ag30
ag10
aS'variable_10'
p3142
aS'++'
p3143
ag24
ag7
aS'variable_4'
p3144
ag19
ag78
ag79
ag78
ag30
ag10
aS'variable_10'
p3145
aS'++'
p3146
ag24
ag7
aS'variable_4'
p3147
ag19
ag78
ag19
ag78
ag30
ag10
aS'variable_10'
p3148
aS'++'
p3149
ag24
ag7
aS'variable_4'
p3150
ag19
ag78
ag139
ag78
ag30
ag10
aS'variable_10'
p3151
aS'++'
p3152
ag24
ag7
aS'0x80'
p3153
ag69
ag10
aS'variable_8'
p3154
ag19
ag71
aS'0xFFFD'
p3155
ag5
ag7
aS'variable_4'
p3156
ag19
ag10
aS'variable_8'
p3157
ag30
aS'variable_13'
p3158
ag24
aS'variable_16'
p3159
ag30
aS'if'
p3160
ag7
aS'variable_26'
p3161
aS'=='
p3162
ag10
aS'variable_8'
p3163
ag19
aS'variable_13'
p3164
ag24
aS'variable_27'
p3165
ag30
aS'if'
p3166
ag7
aS'variable_25'
p3167
aS'=='
p3168
ag181
ag19
aS'if'
p3169
ag7
aS'func_6'
p3170
ag7
aS'variable_10'
p3171
ag12
aS'variable_9'
p3172
ag12
ag65
ag19
ag19
ag10
aS'variable_10'
p3173
aS'++'
p3174
ag24
aS'0xFFFD'
p3175
ag30
aS'variable_25'
p3176
ag24
ag181
ag30
aS'if'
p3177
ag7
aS'variable_14'
p3178
aS'=='
p3179
ag10
aS'variable_8'
p3180
ag19
aS'variable_13'
p3181
ag24
aS'variable_15'
p3182
ag30
aS'if'
p3183
ag7
aS'0x20'
p3184
ag51
ag10
aS'variable_8'
p3185
aS'&&'
p3186
ag10
aS'variable_8'
p3187
ag51
aS'0x7f'
p3188
ag19
aS'variable_28'
p3189
ag24
ag10
aS'variable_8'
p3190
ag30
aS'variable_13'
p3191
ag24
aS'variable_29'
p3192
ag30
aS'if'
p3193
ag7
aS'func_7'
p3194
ag7
aS'variable_10'
p3195
ag12
aS'variable_9'
p3196
ag12
ag65
ag19
ag19
ag10
aS'variable_10'
p3197
aS'++'
p3198
ag24
ag7
aS'0x80'
p3199
ag69
ag10
aS'variable_8'
p3200
ag19
ag71
aS'0xFFFD'
p3201
ag5
ag7
aS'variable_4'
p3202
ag19
ag10
aS'variable_8'
p3203
ag30
aS'if'
p3204
ag7
aS'0x20'
p3205
ag51
ag10
aS'variable_8'
p3206
aS'&&'
p3207
ag10
aS'variable_8'
p3208
ag51
aS'0x7f'
p3209
ag19
aS'unsigned'
p3210
aS'char'
p3211
aS'variable_30'
p3212
ag262
ag88
ag263
ag30
aS'PRInt32'
p3213
aS'variable_31'
p3214
ag24
ag88
ag30
aS'variable_30'
p3215
ag262
ag181
ag263
ag24
aS'variable_28'
p3216
ag268
aS'0x80'
p3217
ag30
aS'variable_30'
p3218
ag262
ag65
ag263
ag24
ag10
aS'variable_8'
p3219
ag268
aS'0x80'
p3220
ag30
aS'variable_12'
p3221
ag24
aS'variable_9'
p3222
ag275
aS'variable_10'
p3223
ag30
aS'variable_11'
p3224
ag24
aS'func_8'
p3225
ag7
aS'variable_30'
p3226
ag12
aS'variable_31'
p3227
ag12
aS'variable_10'
p3228
ag12
ag69
aS'variable_12'
p3229
ag19
ag30
aS'if'
p3230
ag7
aS'variable_11'
p3231
aS'=='
p3232
aS'variable_32'
p3233
ag19
aS'if'
p3234
ag7
aS'func_9'
p3235
ag7
aS'variable_11'
p3236
ag19
ag19
aS'variable_10'
p3237
aS'+='
p3238
aS'variable_12'
p3239
ag30
aS'if'
p3240
ag7
aS'func_10'
p3241
ag7
aS'variable_10'
p3242
ag12
aS'variable_9'
p3243
ag12
ag88
ag19
ag19
ag10
aS'variable_10'
p3244
aS'++'
p3245
ag24
ag7
aS'variable_4'
p3246
ag19
aS'variable_28'
p3247
ag30
ag10
aS'variable_10'
p3248
aS'++'
p3249
ag24
ag7
aS'0x80'
p3250
ag69
ag10
aS'variable_8'
p3251
ag19
ag71
aS'0xFFFD'
p3252
ag5
ag7
aS'variable_4'
p3253
ag19
ag10
aS'variable_8'
p3254
ag30
aS'variable_13'
p3255
ag24
aS'variable_24'
p3256
ag30
aS'if'
p3257
ag7
aS'variable_23'
p3258
aS'=='
p3259
ag10
aS'variable_8'
p3260
ag19
aS'variable_13'
p3261
ag24
aS'variable_24'
p3262
ag30
aS'variable_25'
p3263
ag24
ag181
ag30
aS'if'
p3264
ag7
aS'variable_14'
p3265
aS'=='
p3266
ag10
aS'variable_8'
p3267
ag19
aS'variable_13'
p3268
ag24
aS'variable_15'
p3269
ag30
aS'if'
p3270
ag7
aS'func_11'
p3271
ag7
aS'variable_10'
p3272
ag12
aS'variable_9'
p3273
ag12
ag65
ag19
ag19
ag10
aS'variable_10'
p3274
aS'++'
p3275
ag24
ag7
aS'0x80'
p3276
ag69
ag10
aS'variable_8'
p3277
ag19
ag71
aS'0xFFFD'
p3278
ag5
ag7
aS'variable_4'
p3279
ag19
ag10
aS'variable_8'
p3280
ag30
aS'variable_13'
p3281
ag24
aS'variable_27'
p3282
ag30
aS'if'
p3283
ag7
aS'variable_23'
p3284
aS'=='
p3285
ag10
aS'variable_8'
p3286
ag19
aS'variable_13'
p3287
ag24
aS'variable_33'
p3288
ag30
aS'variable_25'
p3289
ag24
ag181
ag30
aS'if'
p3290
ag7
aS'func_12'
p3291
ag7
aS'variable_10'
p3292
ag12
aS'variable_9'
p3293
ag12
ag186
ag19
ag19
ag10
aS'variable_10'
p3294
aS'++'
p3295
ag24
ag7
aS'variable_4'
p3296
ag19
aS'variable_14'
p3297
ag30
ag10
aS'variable_10'
p3298
aS'++'
p3299
ag24
ag7
aS'variable_4'
p3300
ag19
ag78
ag79
ag78
ag30
ag10
aS'variable_10'
p3301
aS'++'
p3302
ag24
ag7
aS'variable_4'
p3303
ag19
ag78
ag19
ag78
ag30
ag10
aS'variable_10'
p3304
aS'++'
p3305
ag24
ag7
aS'variable_4'
p3306
ag19
ag78
ag145
ag78
ag30
ag10
aS'variable_10'
p3307
aS'++'
p3308
ag24
ag7
aS'0x80'
p3309
ag69
ag10
aS'variable_8'
p3310
ag19
ag71
aS'0xFFFD'
p3311
ag5
ag7
aS'variable_4'
p3312
ag19
ag10
aS'variable_8'
p3313
ag30
aS'variable_13'
p3314
ag24
aS'variable_16'
p3315
ag30
aS'if'
p3316
ag7
aS'variable_26'
p3317
aS'=='
p3318
ag10
aS'variable_8'
p3319
ag19
aS'variable_13'
p3320
ag24
aS'variable_34'
p3321
ag30
aS'if'
p3322
ag7
aS'variable_25'
p3323
aS'=='
p3324
ag181
ag19
aS'if'
p3325
ag7
aS'func_13'
p3326
ag7
aS'variable_10'
p3327
ag12
aS'variable_9'
p3328
ag12
ag65
ag19
ag19
ag10
aS'variable_10'
p3329
aS'++'
p3330
ag24
aS'0xFFFD'
p3331
ag30
aS'variable_25'
p3332
ag24
ag181
ag30
aS'if'
p3333
ag7
aS'variable_14'
p3334
aS'=='
p3335
ag10
aS'variable_8'
p3336
ag19
aS'variable_13'
p3337
ag24
aS'variable_15'
p3338
ag30
aS'if'
p3339
ag7
aS'0x20'
p3340
ag51
ag10
aS'variable_8'
p3341
aS'&&'
p3342
ag10
aS'variable_8'
p3343
ag51
aS'0x7f'
p3344
ag19
aS'variable_28'
p3345
ag24
ag10
aS'variable_8'
p3346
ag30
aS'variable_13'
p3347
ag24
aS'variable_35'
p3348
ag30
aS'if'
p3349
ag7
aS'func_14'
p3350
ag7
aS'variable_10'
p3351
ag12
aS'variable_9'
p3352
ag12
ag65
ag19
ag19
ag10
aS'variable_10'
p3353
aS'++'
p3354
ag24
ag7
aS'0x80'
p3355
ag69
ag10
aS'variable_8'
p3356
ag19
ag71
aS'0xFFFD'
p3357
ag5
ag7
aS'variable_4'
p3358
ag19
ag10
aS'variable_8'
p3359
ag30
aS'if'
p3360
ag7
aS'0x20'
p3361
ag51
ag10
aS'variable_8'
p3362
aS'&&'
p3363
ag10
aS'variable_8'
p3364
ag51
aS'0x7f'
p3365
ag19
aS'unsigned'
p3366
aS'char'
p3367
aS'variable_36'
p3368
ag262
ag154
ag263
ag30
aS'PRInt32'
p3369
aS'variable_37'
p3370
ag24
ag88
ag30
aS'variable_36'
p3371
ag262
ag181
ag263
ag24
aS'variable_28'
p3372
ag268
aS'0x80'
p3373
ag30
aS'variable_36'
p3374
ag262
ag65
ag263
ag24
ag10
aS'variable_8'
p3375
ag268
aS'0x80'
p3376
ag30
aS'variable_12'
p3377
ag24
aS'variable_9'
p3378
ag275
aS'variable_10'
p3379
ag30
aS'variable_11'
p3380
ag24
aS'func_15'
p3381
ag7
aS'variable_36'
p3382
ag12
aS'variable_37'
p3383
ag12
aS'variable_10'
p3384
ag12
ag69
aS'variable_12'
p3385
ag19
ag30
aS'if'
p3386
ag7
aS'variable_11'
p3387
aS'=='
p3388
aS'variable_32'
p3389
ag19
aS'if'
p3390
ag7
aS'func_16'
p3391
ag7
aS'variable_11'
p3392
ag19
ag19
aS'variable_10'
p3393
aS'+='
p3394
aS'variable_12'
p3395
ag30
aS'if'
p3396
ag7
aS'func_17'
p3397
ag7
aS'variable_10'
p3398
ag12
aS'variable_9'
p3399
ag12
ag88
ag19
ag19
ag10
aS'variable_10'
p3400
aS'++'
p3401
ag24
ag7
aS'variable_4'
p3402
ag19
aS'variable_28'
p3403
ag30
ag10
aS'variable_10'
p3404
aS'++'
p3405
ag24
ag7
aS'0x80'
p3406
ag69
ag10
aS'variable_8'
p3407
ag19
ag71
aS'0xFFFD'
p3408
ag5
ag7
aS'variable_4'
p3409
ag19
ag10
aS'variable_8'
p3410
ag30
aS'variable_13'
p3411
ag24
aS'variable_33'
p3412
ag30
aS'if'
p3413
ag7
aS'variable_23'
p3414
aS'=='
p3415
ag10
aS'variable_8'
p3416
ag19
aS'variable_13'
p3417
ag24
aS'variable_33'
p3418
ag30
aS'variable_25'
p3419
ag24
ag181
ag30
aS'if'
p3420
ag7
aS'variable_14'
p3421
aS'=='
p3422
ag10
aS'variable_8'
p3423
ag19
aS'variable_13'
p3424
ag24
aS'variable_15'
p3425
ag30
aS'if'
p3426
ag7
aS'func_18'
p3427
ag7
aS'variable_10'
p3428
ag12
aS'variable_9'
p3429
ag12
ag65
ag19
ag19
ag10
aS'variable_10'
p3430
aS'++'
p3431
ag24
ag7
aS'0x80'
p3432
ag69
ag10
aS'variable_8'
p3433
ag19
ag71
aS'0xFFFD'
p3434
ag5
ag7
aS'variable_4'
p3435
ag19
ag10
aS'variable_8'
p3436
ag30
aS'variable_13'
p3437
ag24
aS'variable_34'
p3438
ag30
aS'if'
p3439
ag7
ag78
ag493
ag78
aS'=='
p3440
ag10
aS'variable_8'
p3441
ag19
aS'variable_13'
p3442
ag24
aS'variable_38'
p3443
ag30
aS'if'
p3444
ag7
aS'func_19'
p3445
ag7
aS'variable_10'
p3446
ag12
aS'variable_9'
p3447
ag12
ag154
ag19
ag19
ag10
aS'variable_10'
p3448
aS'++'
p3449
ag24
ag7
aS'variable_4'
p3450
ag19
aS'variable_14'
p3451
ag30
ag10
aS'variable_10'
p3452
aS'++'
p3453
ag24
ag7
aS'variable_4'
p3454
ag19
ag78
ag79
ag78
ag30
ag10
aS'variable_10'
p3455
aS'++'
p3456
ag24
ag7
aS'variable_4'
p3457
ag19
ag78
ag10
ag78
ag30
ag10
aS'variable_10'
p3458
aS'++'
p3459
ag24
ag7
aS'0x80'
p3460
ag69
ag10
aS'variable_8'
p3461
ag19
ag71
aS'0xFFFD'
p3462
ag5
ag7
aS'variable_4'
p3463
ag19
ag10
aS'variable_8'
p3464
ag30
aS'variable_13'
p3465
ag24
aS'variable_16'
p3466
ag30
aS'if'
p3467
ag7
aS'variable_14'
p3468
aS'=='
p3469
ag10
aS'variable_8'
p3470
ag19
aS'variable_13'
p3471
ag24
aS'variable_39'
p3472
ag30
aS'if'
p3473
ag7
aS'func_20'
p3474
ag7
aS'variable_10'
p3475
ag12
aS'variable_9'
p3476
ag12
ag186
ag19
ag19
ag10
aS'variable_10'
p3477
aS'++'
p3478
ag24
ag7
aS'variable_4'
p3479
ag19
aS'variable_14'
p3480
ag30
ag10
aS'variable_10'
p3481
aS'++'
p3482
ag24
ag7
aS'variable_4'
p3483
ag19
ag78
ag79
ag78
ag30
ag10
aS'variable_10'
p3484
aS'++'
p3485
ag24
ag7
aS'variable_4'
p3486
ag19
ag78
ag10
ag78
ag30
ag10
aS'variable_10'
p3487
aS'++'
p3488
ag24
ag7
aS'variable_4'
p3489
ag19
ag78
ag493
ag78
ag30
ag10
aS'variable_10'
p3490
aS'++'
p3491
ag24
ag7
aS'0x80'
p3492
ag69
ag10
aS'variable_8'
p3493
ag19
ag71
aS'0xFFFD'
p3494
ag5
ag7
aS'variable_4'
p3495
ag19
ag10
aS'variable_8'
p3496
ag30
aS'variable_13'
p3497
ag24
aS'variable_16'
p3498
ag30
aS'if'
p3499
ag7
aS'variable_40'
p3500
aS'=='
p3501
ag10
aS'variable_8'
p3502
ag19
aS'variable_13'
p3503
ag24
aS'variable_41'
p3504
ag30
aS'variable_25'
p3505
ag24
ag181
ag30
aS'if'
p3506
ag7
ag78
ag79
ag78
aS'=='
p3507
ag10
aS'variable_8'
p3508
ag19
aS'variable_13'
p3509
ag24
aS'variable_17'
p3510
ag30
aS'if'
p3511
ag7
aS'func_21'
p3512
ag7
aS'variable_10'
p3513
ag12
aS'variable_9'
p3514
ag12
ag569
ag19
ag19
ag10
aS'variable_10'
p3515
aS'++'
p3516
ag24
ag7
aS'variable_4'
p3517
ag19
aS'variable_14'
p3518
ag30
ag10
aS'variable_10'
p3519
aS'++'
p3520
ag24
ag7
aS'variable_4'
p3521
ag19
ag78
ag79
ag78
ag30
ag10
aS'variable_10'
p3522
aS'++'
p3523
ag24
ag7
aS'variable_4'
p3524
ag19
ag78
ag10
ag78
ag30
ag10
aS'variable_10'
p3525
aS'++'
p3526
ag24
ag7
aS'variable_4'
p3527
ag19
ag78
ag493
ag78
ag30
ag10
aS'variable_10'
p3528
aS'++'
p3529
ag24
ag7
aS'variable_4'
p3530
ag19
aS'variable_14'
p3531
ag30
ag10
aS'variable_10'
p3532
aS'++'
p3533
ag24
ag7
aS'0x80'
p3534
ag69
ag10
aS'variable_8'
p3535
ag19
ag71
aS'0xFFFD'
p3536
ag5
ag7
aS'variable_4'
p3537
ag19
ag10
aS'variable_8'
p3538
ag30
aS'variable_13'
p3539
ag24
aS'variable_16'
p3540
ag30
aS'if'
p3541
ag7
aS'variable_26'
p3542
aS'=='
p3543
ag10
aS'variable_8'
p3544
ag19
aS'variable_13'
p3545
ag24
aS'variable_42'
p3546
ag30
aS'if'
p3547
ag7
aS'variable_25'
p3548
aS'=='
p3549
ag181
ag19
aS'if'
p3550
ag7
aS'func_22'
p3551
ag7
aS'variable_10'
p3552
ag12
aS'variable_9'
p3553
ag12
ag65
ag19
ag19
ag10
aS'variable_10'
p3554
aS'++'
p3555
ag24
aS'0xFFFD'
p3556
ag30
aS'variable_25'
p3557
ag24
ag181
ag30
aS'if'
p3558
ag7
aS'variable_14'
p3559
aS'=='
p3560
ag10
aS'variable_8'
p3561
ag19
aS'variable_13'
p3562
ag24
aS'variable_39'
p3563
ag30
aS'if'
p3564
ag7
aS'0x20'
p3565
ag51
ag10
aS'variable_8'
p3566
aS'&&'
p3567
ag10
aS'variable_8'
p3568
ag51
aS'0x7f'
p3569
ag19
aS'variable_28'
p3570
ag24
ag10
aS'variable_8'
p3571
ag30
aS'variable_13'
p3572
ag24
aS'variable_43'
p3573
ag30
aS'if'
p3574
ag7
aS'func_23'
p3575
ag7
aS'variable_10'
p3576
ag12
aS'variable_9'
p3577
ag12
ag65
ag19
ag19
ag10
aS'variable_10'
p3578
aS'++'
p3579
ag24
ag7
aS'0x80'
p3580
ag69
ag10
aS'variable_8'
p3581
ag19
ag71
aS'0xFFFD'
p3582
ag5
ag7
aS'variable_4'
p3583
ag19
ag10
aS'variable_8'
p3584
ag30
aS'if'
p3585
ag7
aS'0x20'
p3586
ag51
ag10
aS'variable_8'
p3587
aS'&&'
p3588
ag10
aS'variable_8'
p3589
ag51
aS'0x7f'
p3590
ag19
aS'unsigned'
p3591
aS'char'
p3592
aS'variable_36'
p3593
ag262
ag154
ag263
ag30
aS'PRInt32'
p3594
aS'variable_37'
p3595
ag24
ag154
ag30
aS'variable_36'
p3596
ag262
ag181
ag263
ag24
ag7
aS'unsigned'
p3597
aS'char'
p3598
ag19
aS'variable_44'
p3599
ag30
aS'variable_36'
p3600
ag262
ag65
ag263
ag24
ag7
aS'unsigned'
p3601
aS'char'
p3602
ag19
ag7
aS'variable_45'
p3603
ag28
ag88
ag19
ag30
aS'variable_36'
p3604
ag262
ag88
ag263
ag24
aS'variable_28'
p3605
ag268
aS'0x80'
p3606
ag30
aS'variable_36'
p3607
ag262
ag121
ag263
ag24
ag10
aS'variable_8'
p3608
ag268
aS'0x80'
p3609
ag30
aS'variable_12'
p3610
ag24
aS'variable_9'
p3611
ag275
aS'variable_10'
p3612
ag30
aS'variable_11'
p3613
ag24
aS'func_24'
p3614
ag7
aS'variable_36'
p3615
ag12
aS'variable_37'
p3616
ag12
aS'variable_10'
p3617
ag12
ag69
aS'variable_12'
p3618
ag19
ag30
aS'if'
p3619
ag7
aS'variable_11'
p3620
aS'=='
p3621
aS'variable_32'
p3622
ag19
aS'if'
p3623
ag7
aS'func_25'
p3624
ag7
aS'variable_11'
p3625
ag19
ag19
aS'variable_10'
p3626
aS'+='
p3627
aS'variable_12'
p3628
ag30
aS'if'
p3629
ag7
aS'func_26'
p3630
ag7
aS'variable_10'
p3631
ag12
aS'variable_9'
p3632
ag12
ag88
ag19
ag19
ag10
aS'variable_10'
p3633
aS'++'
p3634
ag24
ag7
aS'variable_4'
p3635
ag19
aS'variable_28'
p3636
ag30
ag10
aS'variable_10'
p3637
aS'++'
p3638
ag24
ag7
aS'0x80'
p3639
ag69
ag10
aS'variable_8'
p3640
ag19
ag71
aS'0xFFFD'
p3641
ag5
ag7
aS'variable_4'
p3642
ag19
ag10
aS'variable_8'
p3643
ag30
aS'variable_13'
p3644
ag24
aS'variable_41'
p3645
ag30
aS'if'
p3646
ag7
aS'variable_14'
p3647
aS'=='
p3648
ag10
aS'variable_8'
p3649
ag19
aS'variable_13'
p3650
ag24
aS'variable_46'
p3651
ag30
aS'if'
p3652
ag7
aS'func_27'
p3653
ag7
aS'variable_10'
p3654
ag12
aS'variable_9'
p3655
ag12
ag65
ag19
ag19
ag10
aS'variable_10'
p3656
aS'++'
p3657
ag24
ag7
aS'0x80'
p3658
ag69
ag10
aS'variable_8'
p3659
ag19
ag71
aS'0xFFFD'
p3660
ag5
ag7
aS'variable_4'
p3661
ag19
ag10
aS'variable_8'
p3662
ag30
aS'variable_13'
p3663
ag24
aS'variable_42'
p3664
ag30
aS'if'
p3665
ag7
aS'variable_40'
p3666
aS'=='
p3667
ag10
aS'variable_8'
p3668
ag19
aS'variable_13'
p3669
ag24
aS'variable_41'
p3670
ag30
aS'variable_25'
p3671
ag24
ag181
ag30
aS'if'
p3672
ag7
ag78
ag79
ag78
aS'=='
p3673
ag10
aS'variable_8'
p3674
ag19
aS'variable_13'
p3675
ag24
aS'variable_17'
p3676
ag30
aS'if'
p3677
ag7
aS'func_28'
p3678
ag7
aS'variable_10'
p3679
ag12
aS'variable_9'
p3680
ag12
ag65
ag19
ag19
ag10
aS'variable_10'
p3681
aS'++'
p3682
ag24
ag7
aS'0x80'
p3683
ag69
ag10
aS'variable_8'
p3684
ag19
ag71
aS'0xFFFD'
p3685
ag5
ag7
aS'variable_4'
p3686
ag19
ag10
aS'variable_8'
p3687
ag30
aS'variable_13'
p3688
ag24
aS'variable_42'
p3689
ag30
aS'if'
p3690
ag7
ag78
ag746
ag78
ag51
ag24
ag10
aS'variable_8'
p3691
aS'&&'
p3692
ag10
aS'variable_8'
p3693
ag51
ag24
ag78
ag750
ag78
ag19
aS'variable_13'
p3694
ag24
aS'variable_47'
p3695
ag30
aS'variable_48'
p3696
ag24
ag10
aS'variable_8'
p3697
ag275
ag78
ag746
ag78
ag28
ag121
ag30
aS'if'
p3698
ag7
aS'func_29'
p3699
ag7
aS'variable_10'
p3700
ag12
aS'variable_9'
p3701
ag12
ag154
ag19
ag19
ag10
aS'variable_10'
p3702
aS'++'
p3703
ag24
ag7
aS'variable_4'
p3704
ag19
aS'variable_14'
p3705
ag30
ag10
aS'variable_10'
p3706
aS'++'
p3707
ag24
ag7
aS'variable_4'
p3708
ag19
ag78
ag79
ag78
ag30
ag10
aS'variable_10'
p3709
aS'++'
p3710
ag24
ag7
aS'variable_4'
p3711
ag19
ag78
ag28
ag78
ag30
ag10
aS'variable_10'
p3712
aS'++'
p3713
ag24
ag7
aS'0x80'
p3714
ag69
ag10
aS'variable_8'
p3715
ag19
ag71
aS'0xFFFD'
p3716
ag5
ag7
aS'variable_4'
p3717
ag19
ag10
aS'variable_8'
p3718
ag30
aS'variable_13'
p3719
ag24
aS'variable_16'
p3720
ag30
aS'if'
p3721
ag7
aS'variable_14'
p3722
aS'=='
p3723
ag10
aS'variable_8'
p3724
ag19
aS'variable_13'
p3725
ag24
aS'variable_49'
p3726
ag30
aS'if'
p3727
ag7
aS'func_30'
p3728
ag7
aS'variable_10'
p3729
ag12
aS'variable_9'
p3730
ag12
ag186
ag19
ag19
ag10
aS'variable_10'
p3731
aS'++'
p3732
ag24
ag7
aS'variable_4'
p3733
ag19
aS'variable_14'
p3734
ag30
ag10
aS'variable_10'
p3735
aS'++'
p3736
ag24
ag7
aS'variable_4'
p3737
ag19
ag78
ag79
ag78
ag30
ag10
aS'variable_10'
p3738
aS'++'
p3739
ag24
ag7
aS'variable_4'
p3740
ag19
ag78
ag28
ag78
ag30
ag10
aS'variable_10'
p3741
aS'++'
p3742
ag24
ag7
aS'variable_4'
p3743
ag19
ag78
ag746
ag78
ag28
aS'variable_48'
p3744
ag275
ag121
ag30
ag10
aS'variable_10'
p3745
aS'++'
p3746
ag24
ag7
aS'0x80'
p3747
ag69
ag10
aS'variable_8'
p3748
ag19
ag71
aS'0xFFFD'
p3749
ag5
ag7
aS'variable_4'
p3750
ag19
ag10
aS'variable_8'
p3751
ag30
aS'variable_13'
p3752
ag24
aS'variable_16'
p3753
ag30
aS'if'
p3754
ag7
aS'variable_50'
p3755
aS'=='
p3756
ag10
aS'variable_8'
p3757
ag19
aS'variable_13'
p3758
ag24
aS'variable_51'
p3759
ag30
aS'variable_25'
p3760
ag24
ag181
ag30
aS'if'
p3761
ag7
ag78
ag79
ag78
aS'=='
p3762
ag10
aS'variable_8'
p3763
ag19
aS'variable_13'
p3764
ag24
aS'variable_17'
p3765
ag30
aS'if'
p3766
ag7
aS'func_31'
p3767
ag7
aS'variable_10'
p3768
ag12
aS'variable_9'
p3769
ag12
ag569
ag19
ag19
ag10
aS'variable_10'
p3770
aS'++'
p3771
ag24
ag7
aS'variable_4'
p3772
ag19
aS'variable_14'
p3773
ag30
ag10
aS'variable_10'
p3774
aS'++'
p3775
ag24
ag7
aS'variable_4'
p3776
ag19
ag78
ag79
ag78
ag30
ag10
aS'variable_10'
p3777
aS'++'
p3778
ag24
ag7
aS'variable_4'
p3779
ag19
ag78
ag28
ag78
ag30
ag10
aS'variable_10'
p3780
aS'++'
p3781
ag24
ag7
aS'variable_4'
p3782
ag19
ag78
ag746
ag78
ag28
aS'variable_48'
p3783
ag275
ag121
ag30
ag10
aS'variable_10'
p3784
aS'++'
p3785
ag24
ag7
aS'variable_4'
p3786
ag19
aS'variable_14'
p3787
ag30
ag10
aS'variable_10'
p3788
aS'++'
p3789
ag24
ag7
aS'0x80'
p3790
ag69
ag10
aS'variable_8'
p3791
ag19
ag71
aS'0xFFFD'
p3792
ag5
ag7
aS'variable_4'
p3793
ag19
ag10
aS'variable_8'
p3794
ag30
aS'variable_13'
p3795
ag24
aS'variable_16'
p3796
ag30
aS'if'
p3797
ag7
aS'variable_26'
p3798
aS'=='
p3799
ag10
aS'variable_8'
p3800
ag19
aS'variable_13'
p3801
ag24
aS'variable_52'
p3802
ag30
aS'if'
p3803
ag7
aS'variable_25'
p3804
aS'=='
p3805
ag181
ag19
aS'if'
p3806
ag7
aS'func_32'
p3807
ag7
aS'variable_10'
p3808
ag12
aS'variable_9'
p3809
ag12
ag65
ag19
ag19
ag10
aS'variable_10'
p3810
aS'++'
p3811
ag24
aS'0xFFFD'
p3812
ag30
aS'variable_25'
p3813
ag24
ag181
ag30
aS'if'
p3814
ag7
aS'variable_14'
p3815
aS'=='
p3816
ag10
aS'variable_8'
p3817
ag19
aS'variable_13'
p3818
ag24
aS'variable_49'
p3819
ag30
aS'if'
p3820
ag7
aS'0x20'
p3821
ag51
ag10
aS'variable_8'
p3822
aS'&&'
p3823
ag10
aS'variable_8'
p3824
ag51
aS'0x7f'
p3825
ag19
aS'variable_28'
p3826
ag24
ag10
aS'variable_8'
p3827
ag30
aS'variable_13'
p3828
ag24
aS'variable_53'
p3829
ag30
aS'if'
p3830
ag7
aS'func_33'
p3831
ag7
aS'variable_10'
p3832
ag12
aS'variable_9'
p3833
ag12
ag65
ag19
ag19
ag10
aS'variable_10'
p3834
aS'++'
p3835
ag24
ag7
aS'0x80'
p3836
ag69
ag10
aS'variable_8'
p3837
ag19
ag71
aS'0xFFFD'
p3838
ag5
ag7
aS'variable_4'
p3839
ag19
ag10
aS'variable_8'
p3840
ag30
aS'if'
p3841
ag7
aS'0x20'
p3842
ag51
ag10
aS'variable_8'
p3843
aS'&&'
p3844
ag10
aS'variable_8'
p3845
ag51
aS'0x7f'
p3846
ag19
aS'unsigned'
p3847
aS'char'
p3848
aS'variable_36'
p3849
ag262
ag154
ag263
ag30
aS'PRInt32'
p3850
aS'variable_37'
p3851
ag24
ag154
ag30
aS'variable_36'
p3852
ag262
ag181
ag263
ag24
ag7
aS'unsigned'
p3853
aS'char'
p3854
ag19
aS'variable_44'
p3855
ag30
aS'variable_36'
p3856
ag262
ag65
ag263
ag24
ag7
aS'unsigned'
p3857
aS'char'
p3858
ag19
ag7
aS'variable_45'
p3859
ag28
aS'variable_48'
p3860
ag19
ag30
aS'variable_36'
p3861
ag262
ag88
ag263
ag24
aS'variable_28'
p3862
ag268
aS'0x80'
p3863
ag30
aS'variable_36'
p3864
ag262
ag121
ag263
ag24
ag10
aS'variable_8'
p3865
ag268
aS'0x80'
p3866
ag30
aS'variable_12'
p3867
ag24
aS'variable_9'
p3868
ag275
aS'variable_10'
p3869
ag30
aS'variable_11'
p3870
ag24
aS'func_34'
p3871
ag7
aS'variable_36'
p3872
ag12
aS'variable_37'
p3873
ag12
aS'variable_10'
p3874
ag12
ag69
aS'variable_12'
p3875
ag19
ag30
aS'if'
p3876
ag7
aS'variable_11'
p3877
aS'=='
p3878
aS'variable_32'
p3879
ag19
aS'if'
p3880
ag7
aS'func_35'
p3881
ag7
aS'variable_11'
p3882
ag19
ag19
aS'variable_10'
p3883
aS'+='
p3884
aS'variable_12'
p3885
ag30
aS'if'
p3886
ag7
aS'func_36'
p3887
ag7
aS'variable_10'
p3888
ag12
aS'variable_9'
p3889
ag12
ag88
ag19
ag19
ag10
aS'variable_10'
p3890
aS'++'
p3891
ag24
ag7
aS'variable_4'
p3892
ag19
aS'variable_28'
p3893
ag30
ag10
aS'variable_10'
p3894
aS'++'
p3895
ag24
ag7
aS'0x80'
p3896
ag69
ag10
aS'variable_8'
p3897
ag19
ag71
aS'0xFFFD'
p3898
ag5
ag7
aS'variable_4'
p3899
ag19
ag10
aS'variable_8'
p3900
ag30
aS'variable_13'
p3901
ag24
aS'variable_51'
p3902
ag30
aS'if'
p3903
ag7
aS'variable_14'
p3904
aS'=='
p3905
ag10
aS'variable_8'
p3906
ag19
aS'variable_13'
p3907
ag24
aS'variable_54'
p3908
ag30
aS'if'
p3909
ag7
aS'func_37'
p3910
ag7
aS'variable_10'
p3911
ag12
aS'variable_9'
p3912
ag12
ag65
ag19
ag19
ag10
aS'variable_10'
p3913
aS'++'
p3914
ag24
ag7
aS'0x80'
p3915
ag69
ag10
aS'variable_8'
p3916
ag19
ag71
aS'0xFFFD'
p3917
ag5
ag7
aS'variable_4'
p3918
ag19
ag10
aS'variable_8'
p3919
ag30
aS'variable_13'
p3920
ag24
aS'variable_52'
p3921
ag30
aS'if'
p3922
ag7
aS'variable_50'
p3923
aS'=='
p3924
ag10
aS'variable_8'
p3925
ag19
aS'variable_13'
p3926
ag24
aS'variable_51'
p3927
ag30
aS'variable_25'
p3928
ag24
ag181
ag30
aS'if'
p3929
ag7
ag78
ag79
ag78
aS'=='
p3930
ag10
aS'variable_8'
p3931
ag19
aS'variable_13'
p3932
ag24
aS'variable_17'
p3933
ag30
aS'if'
p3934
ag7
aS'func_38'
p3935
ag7
aS'variable_10'
p3936
ag12
aS'variable_9'
p3937
ag12
ag65
ag19
ag19
ag10
aS'variable_10'
p3938
aS'++'
p3939
ag24
ag7
aS'0x80'
p3940
ag69
ag10
aS'variable_8'
p3941
ag19
ag71
aS'0xFFFD'
p3942
ag5
ag7
aS'variable_4'
p3943
ag19
ag10
aS'variable_8'
p3944
ag30
aS'variable_13'
p3945
ag24
aS'variable_52'
p3946
ag30
aS'variable_8'
p3947
aS'++'
p3948
ag30
aaa(lp3949
I0
aI0
aI0
aI0
aa(lp3950
I2418
aI2425
aI2227
aI2197
aa(lp3951
(lp3952
S'main'
p3953
aa(lp3954
g3953
aa(lp3955
g3953
aa(lp3956
g3953
aaa(lp3957
S'279 /home/SySeVR/data/CVE_2012_0477_PATCHED_nsISO2022CNToUnicode__Convert.c * aDestLen = dest - aDest 518'
p3958
aS'280 /home/SySeVR/data/CVE_2012_0477_PATCHED_nsISO2022CNToUnicode__Convert.c * aDestLen = dest - aDest 512'
p3959
aS'282 /home/SySeVR/data/CVE_2012_0477_PATCHED_nsISO2022CNToUnicode__Convert.c aLen = destEnd - dest 454'
p3960
aS'283 /home/SySeVR/data/CVE_2012_0477_PATCHED_nsISO2022CNToUnicode__Convert.c cns [ 1 ] = ( unsigned char ) ( PMASK + mPlaneID ) 450'
p3961
aa.