(lp0
(lp1
(lp2
S'void'
p3
aS'func_0'
p4
aS'('
p5
aS'float'
p6
aS'variable_0'
p7
aS'['
p8
aS'256'
p9
aS']'
p10
aS','
p11
aS'float'
p12
aS'variable_1'
p13
ag8
aS'7'
p14
ag10
ag11
aS'int'
p15
aS'variable_2'
p16
aS')'
p17
aS'size_t'
p18
aS'variable_3'
p19
aS';'
p20
aS'float'
p21
aS'variable_4'
p22
ag20
aS'float'
p23
aS'variable_5'
p24
ag11
aS'variable_6'
p25
ag11
aS'variable_7'
p26
ag11
aS'variable_8'
p27
ag11
aS'variable_9'
p28
ag20
aS'if'
p29
ag5
aS'variable_2'
p30
aS'=='
p31
aS'0'
p32
ag17
aS'variable_7'
p33
aS'='
p34
ag32
ag20
aS'variable_9'
p35
ag34
ag32
ag20
aS'variable_4'
p36
ag34
aS'-'
p37
aS'variable_10'
p38
ag20
aS'if'
p39
ag5
aS'variable_2'
p40
aS'=='
p41
aS'1'
p42
ag17
aS'variable_7'
p43
ag34
ag32
ag20
aS'variable_9'
p44
ag34
ag32
ag20
aS'variable_4'
p45
ag34
ag37
ag42
aS'*'
p46
aS'variable_1'
p47
ag8
aS'2'
p48
ag10
aS'/'
p49
aS'variable_1'
p50
ag8
ag42
ag10
ag20
aS'if'
p51
ag5
aS'variable_2'
p52
aS'=='
p53
ag48
ag17
aS'variable_7'
p54
ag34
ag32
ag20
aS'variable_9'
p55
ag34
aS'variable_1'
p56
ag8
aS'3'
p57
ag10
ag20
aS'variable_4'
p58
ag34
ag37
ag42
ag46
aS'variable_1'
p59
ag8
ag48
ag10
ag49
aS'variable_1'
p60
ag8
ag42
ag10
ag20
aS'if'
p61
ag5
aS'variable_2'
p62
aS'=='
p63
ag57
ag17
aS'variable_7'
p64
ag34
aS'variable_1'
p65
ag8
ag57
ag10
ag20
aS'variable_9'
p66
ag34
ag32
ag20
aS'variable_4'
p67
ag34
aS'variable_1'
p68
ag8
aS'4'
p69
ag10
ag20
aS'if'
p70
ag5
aS'variable_2'
p71
aS'=='
p72
ag69
ag17
aS'variable_7'
p73
ag34
aS'variable_1'
p74
ag8
ag57
ag10
ag20
aS'variable_9'
p75
ag34
aS'variable_1'
p76
ag8
aS'6'
p77
ag10
ag20
aS'variable_4'
p78
ag34
aS'variable_1'
p79
ag8
ag69
ag10
ag20
aS'variable_7'
p80
ag34
ag32
ag20
aS'variable_9'
p81
ag34
ag32
ag20
aS'variable_4'
p82
ag34
ag37
aS'variable_10'
p83
ag20
aS'for'
p84
ag5
aS'variable_3'
p85
ag34
ag32
ag20
aS'variable_3'
p86
aS'<'
p87
aS'256'
p88
ag20
aS'variable_3'
p89
aS'++'
p90
ag17
aS'if'
p91
ag5
aS'variable_3'
p92
aS'>'
p93
ag34
aS'variable_4'
p94
ag17
aS'variable_0'
p95
ag8
aS'variable_3'
p96
ag10
ag34
aS'func_1'
p97
ag5
aS'variable_7'
p98
ag46
aS'variable_3'
p99
ag49
aS'255'
p100
aS'.'
p101
aS'+'
p102
aS'variable_9'
p103
ag17
ag20
aa(lp104
S'void'
p105
aS'func_0'
p106
ag5
aS'float'
p107
aS'variable_0'
p108
ag8
aS'256'
p109
ag10
ag11
aS'float'
p110
aS'variable_1'
p111
ag8
ag14
ag10
ag11
aS'int'
p112
aS'variable_2'
p113
ag17
aS'size_t'
p114
aS'variable_3'
p115
ag20
aS'float'
p116
aS'variable_4'
p117
ag20
aS'float'
p118
aS'variable_5'
p119
ag11
aS'variable_6'
p120
ag11
aS'variable_7'
p121
ag11
aS'variable_8'
p122
ag11
aS'variable_9'
p123
ag20
aS'float'
p124
aS'variable_10'
p125
ag34
aS'variable_1'
p126
ag8
ag32
ag10
ag20
aS'if'
p127
ag5
aS'variable_2'
p128
aS'=='
p129
ag32
ag17
aS'variable_5'
p130
ag34
ag42
ag20
aS'variable_6'
p131
ag34
ag32
ag20
aS'variable_7'
p132
ag34
ag32
ag20
aS'variable_8'
p133
ag34
ag32
ag20
aS'variable_4'
p134
ag34
ag37
aS'variable_11'
p135
ag20
aS'if'
p136
ag5
aS'variable_2'
p137
aS'=='
p138
ag42
ag17
aS'variable_5'
p139
ag34
aS'variable_1'
p140
ag8
ag42
ag10
ag20
aS'variable_6'
p141
ag34
aS'variable_1'
p142
ag8
ag48
ag10
ag20
aS'variable_7'
p143
ag34
ag32
ag20
aS'variable_8'
p144
ag34
ag32
ag20
aS'variable_4'
p145
ag34
ag37
ag42
ag46
aS'variable_1'
p146
ag8
ag48
ag10
ag49
aS'variable_1'
p147
ag8
ag42
ag10
ag20
aS'if'
p148
ag5
aS'variable_2'
p149
aS'=='
p150
ag48
ag17
aS'variable_5'
p151
ag34
aS'variable_1'
p152
ag8
ag42
ag10
ag20
aS'variable_6'
p153
ag34
aS'variable_1'
p154
ag8
ag48
ag10
ag20
aS'variable_7'
p155
ag34
ag32
ag20
aS'variable_8'
p156
ag34
aS'variable_1'
p157
ag8
ag57
ag10
ag20
aS'variable_4'
p158
ag34
ag37
ag42
ag46
aS'variable_1'
p159
ag8
ag48
ag10
ag49
aS'variable_1'
p160
ag8
ag42
ag10
ag20
aS'if'
p161
ag5
aS'variable_2'
p162
aS'=='
p163
ag57
ag17
aS'variable_5'
p164
ag34
aS'variable_1'
p165
ag8
ag42
ag10
ag20
aS'variable_6'
p166
ag34
aS'variable_1'
p167
ag8
ag48
ag10
ag20
aS'variable_7'
p168
ag34
aS'variable_1'
p169
ag8
ag57
ag10
ag20
aS'variable_8'
p170
ag34
ag37
aS'variable_7'
p171
ag20
aS'variable_4'
p172
ag34
aS'variable_1'
p173
ag8
ag69
ag10
ag20
aS'if'
p174
ag5
aS'variable_2'
p175
aS'=='
p176
ag69
ag17
aS'variable_5'
p177
ag34
aS'variable_1'
p178
ag8
ag42
ag10
ag20
aS'variable_6'
p179
ag34
aS'variable_1'
p180
ag8
ag48
ag10
ag20
aS'variable_7'
p181
ag34
aS'variable_1'
p182
ag8
ag57
ag10
ag20
aS'variable_8'
p183
ag34
aS'variable_1'
p184
ag8
aS'5'
p185
ag10
ag37
aS'variable_7'
p186
ag20
aS'variable_4'
p187
ag34
aS'variable_1'
p188
ag8
ag69
ag10
ag20
aS'variable_5'
p189
ag34
ag42
ag20
aS'variable_6'
p190
ag34
ag32
ag20
aS'variable_7'
p191
ag34
ag32
ag20
aS'variable_8'
p192
ag34
ag32
ag20
aS'variable_4'
p193
ag34
ag37
aS'variable_11'
p194
ag20
aS'for'
p195
ag5
aS'variable_3'
p196
ag34
ag32
ag20
aS'variable_3'
p197
ag87
aS'256'
p198
ag20
aS'variable_3'
p199
aS'++'
p200
ag17
aS'if'
p201
ag5
aS'variable_3'
p202
ag93
ag34
aS'variable_4'
p203
ag17
aS'variable_0'
p204
ag8
aS'variable_3'
p205
ag10
ag34
aS'func_1'
p206
ag5
aS'pow'
p207
ag5
aS'variable_5'
p208
ag46
aS'variable_3'
p209
ag49
aS'255'
p210
ag101
ag102
aS'variable_6'
p211
ag11
aS'variable_10'
p212
ag17
ag102
aS'variable_7'
p213
ag102
aS'variable_8'
p214
ag17
ag20
aaa(lp215
I0
aI0
aa(lp216
I213
aI300
aa(lp217
(lp218
S'main'
p219
aa(lp220
g219
aaa(lp221
S'293 /home/SySeVR/data/CVE_2012_1960_PATCHED_compute_curve_gamma_table_type_parametric.c gamma_table [ X ] = clamp_float ( c * X / 255. + f ) 58'
p222
aS'294 /home/SySeVR/data/CVE_2012_1960_PATCHED_compute_curve_gamma_table_type_parametric.c gamma_table [ X ] = clamp_float ( pow ( a * X / 255. + b , y ) + c + e ) 56'
p223
aa.