(lp0
(lp1
(lp2
S'variable_0'
p3
aS':'
p4
ag4
aS'func_0'
p5
aS'('
p6
aS'variable_1'
p7
aS'*'
p8
aS'variable_2'
p9
aS'<'
p10
aS'variable_3'
p11
aS'>'
p12
aS'&'
p13
aS'variable_4'
p14
aS')'
p15
aS'const'
p16
aS'nsStyleDisplay'
p17
ag8
aS'variable_5'
p18
aS'='
p19
aS'variable_6'
p20
aS'->'
p21
aS'func_1'
p22
ag6
ag15
aS';'
p23
aS'TimeStamp'
p24
aS'variable_7'
p25
ag19
aS'variable_8'
p26
aS'->'
p27
aS'func_2'
p28
ag6
ag15
aS'->'
p29
aS'func_3'
p30
ag6
ag15
ag23
aS'for'
p31
ag6
aS'uint32_t'
p32
aS'variable_9'
p33
ag19
aS'0'
p34
aS','
p35
aS'variable_10'
p36
ag19
aS'variable_9'
p37
aS'!='
p38
aS'variable_10'
p39
ag23
aS'++'
p40
aS'variable_9'
p41
ag15
aS'const'
p42
aS'variable_11'
p43
ag13
aS'variable_12'
p44
ag19
aS'variable_5'
p45
aS'->'
p46
aS'variable_13'
p47
aS'['
p48
aS'variable_9'
p49
aS']'
p50
ag23
aS'variable_3'
p51
ag13
aS'variable_14'
p52
ag19
ag8
aS'variable_4'
p53
aS'.'
p54
aS'func_4'
p55
ag6
ag15
ag23
aS'variable_14'
p56
ag54
aS'variable_15'
p57
ag19
aS'variable_12'
p58
ag54
aS'func_5'
p59
ag6
ag15
ag23
aS'variable_14'
p60
ag54
aS'variable_16'
p61
ag19
aS'variable_12'
p62
ag54
aS'func_6'
p63
ag6
ag15
ag23
aS'variable_14'
p64
ag54
aS'variable_17'
p65
ag19
aS'variable_12'
p66
ag54
aS'func_7'
p67
ag6
ag15
ag23
aS'variable_14'
p68
ag54
aS'variable_18'
p69
ag19
aS'variable_12'
p70
ag54
aS'func_8'
p71
ag6
ag15
ag23
aS'variable_14'
p72
ag54
aS'variable_19'
p73
ag19
aS'variable_12'
p74
ag54
aS'func_9'
p75
ag6
ag15
ag23
aS'variable_14'
p76
ag54
aS'variable_20'
p77
ag19
aS'variable_7'
p78
aS'+'
p79
aS'variable_21'
p80
ag4
ag4
aS'func_10'
p81
ag6
aS'variable_12'
p82
ag54
aS'func_11'
p83
ag6
ag15
ag15
ag23
aS'if'
p84
ag6
aS'variable_14'
p85
ag54
aS'func_12'
p86
ag6
ag15
ag15
aS'variable_14'
p87
ag54
aS'variable_22'
p88
ag19
aS'variable_7'
p89
ag23
aS'variable_14'
p90
ag54
aS'variable_22'
p91
ag19
aS'func_13'
p92
ag6
ag15
ag23
aS'variable_14'
p93
ag54
aS'variable_23'
p94
ag19
aS'variable_21'
p95
ag4
ag4
aS'func_14'
p96
ag6
aS'variable_12'
p97
ag54
aS'func_15'
p98
ag6
ag15
ag15
ag23
aS'variable_24'
p99
ag8
aS'variable_25'
p100
ag19
aS'func_16'
p101
ag6
aS'variable_14'
p102
ag54
aS'variable_15'
p103
ag15
ag23
aS'if'
p104
ag6
aS'!'
p105
aS'variable_25'
p106
ag15
aS'for'
p107
ag6
aS'uint32_t'
p108
aS'variable_26'
p109
ag19
ag34
ag35
aS'variable_27'
p110
ag19
aS'variable_26'
p111
aS'!='
p112
aS'variable_27'
p113
ag23
aS'++'
p114
aS'variable_26'
p115
ag15
aS'variable_28'
p116
ag4
ag4
aS'variable_29'
p117
ag8
aS'variable_30'
p118
ag19
aS'variable_25'
p119
aS'->'
p120
aS'func_17'
p121
ag6
aS'variable_26'
p122
ag15
ag23
aS'func_18'
p123
ag6
aS'variable_30'
p124
ag35
aS'"'
p125
aS'must'
p126
aS'have'
p127
aS'rule'
p128
ag125
ag15
ag23
aS'func_19'
p129
ag6
aS'variable_30'
p130
aS'->'
p131
aS'func_20'
p132
ag6
ag15
aS'=='
p133
aS'variable_28'
p134
ag4
ag4
aS'variable_29'
p135
ag4
ag4
aS'variable_31'
p136
ag35
ag125
aS'must'
p137
aS'be'
p138
aS'keyframe'
p139
aS'rule'
p140
ag125
ag15
ag23
aS'variable_32'
p141
aS'->'
p142
aS'variable_33'
p143
ag19
aS'variable_26'
p144
ag23
aS'variable_32'
p145
aS'->'
p146
aS'variable_34'
p147
ag19
aS'variable_35'
p148
ag23
aS'variable_36'
p149
ag13
aS'variable_37'
p150
ag19
ag8
aS'variable_14'
p151
ag54
aS'variable_38'
p152
ag54
aS'func_21'
p153
ag6
ag15
ag23
aS'variable_37'
p154
ag54
aS'variable_39'
p155
ag19
aS'variable_40'
p156
ag23
aS'variable_41'
p157
ag19
aS'variable_41'
p158
aS'&&'
p159
aS'func_22'
p160
ag6
aS'variable_37'
p161
ag54
aS'variable_42'
p162
ag35
aS'variable_40'
p163
ag35
aS'variable_12'
p164
ag35
aS'variable_43'
p165
aS'->'
p166
aS'variable_44'
p167
ag35
aS'variable_45'
p168
ag35
aS'variable_43'
p169
aS'->'
p170
aS'variable_34'
p171
aS'->'
p172
aS'func_23'
p173
ag6
ag15
ag35
aS'variable_46'
p174
ag54
aS'variable_44'
p175
ag35
aS'variable_47'
p176
ag15
ag23
aS'variable_41'
p177
ag19
aS'variable_41'
p178
aS'&&'
p179
aS'func_24'
p180
ag6
aS'variable_37'
p181
ag54
aS'variable_42'
p182
ag35
aS'variable_40'
p183
ag35
aS'variable_12'
p184
ag35
ag34
ag54
aS'0f'
p185
ag35
aS'variable_6'
p186
ag35
aS'variable_48'
p187
ag35
aS'variable_46'
p188
ag54
aS'variable_44'
p189
ag35
aS'variable_47'
p190
ag15
ag23
aS'variable_41'
p191
ag19
aS'variable_41'
p192
aS'&&'
p193
aS'func_25'
p194
ag6
aS'variable_37'
p195
ag54
aS'variable_42'
p196
ag35
aS'variable_40'
p197
ag35
aS'variable_12'
p198
ag35
aS'variable_43'
p199
aS'->'
p200
aS'variable_44'
p201
ag35
aS'variable_45'
p202
ag35
aS'variable_43'
p203
aS'->'
p204
aS'variable_34'
p205
aS'->'
p206
aS'func_26'
p207
ag6
ag15
ag35
aS'1'
p208
ag54
aS'0f'
p209
ag35
aS'variable_6'
p210
ag15
ag23
aS'if'
p211
ag6
ag105
aS'variable_41'
p212
ag15
aS'variable_14'
p213
ag54
aS'variable_38'
p214
ag54
aS'func_27'
p215
ag6
aS'variable_14'
p216
ag54
aS'variable_38'
p217
ag54
aS'func_28'
p218
ag6
ag15
aS'-'
p219
ag208
ag15
ag23
aaa(lp220
I1
aa(lp221
I142
aa(lp222
(lp223
S'main'
p224
aaa(lp225
S'482 /home/SySeVR/data/CVE_2013_1722_VULN_nsAnimationManager__BuildAnimations.c aDest . mStartTime = now + TimeDuration :: FromMilliseconds ( aSrc . GetDelay ( ) ) 22'
p226
aa.