(lp0
(lp1
(lp2
S'struct'
p3
aS'variable_0'
p4
aS'*'
p5
aS'func_0'
p6
aS'('
p7
aS'const'
p8
aS'const'
p9
aS'gfp_t'
p10
aS'variable_1'
p11
aS','
p12
aS'int'
p13
aS'variable_2'
p14
aS')'
p15
aS'union'
p16
aS'sctp_params'
p17
aS'variable_3'
p18
aS';'
p19
aS'int'
p20
aS'variable_4'
p21
ag19
aS'variable_5'
p22
ag5
aS'variable_6'
p23
ag19
aS'int'
p24
aS'variable_7'
p25
ag19
aS'size_t'
p26
aS'variable_8'
p27
ag19
aS'variable_3'
p28
aS'='
p29
aS'func_1'
p30
ag7
aS'&'
p31
aS'variable_9'
p32
aS'->'
p33
aS'variable_10'
p34
aS'.'
p35
aS'variable_11'
p36
ag12
ag31
aS'variable_4'
p37
ag12
aS'variable_1'
p38
ag15
ag19
aS'variable_6'
p39
ag29
aS'func_2'
p40
ag7
aS'variable_9'
p41
aS'->'
p42
aS'variable_12'
p43
ag12
aS'variable_9'
p44
ag12
aS'variable_13'
p45
ag12
ag31
aS'variable_7'
p46
ag12
aS'variable_3'
p47
ag35
aS'variable_14'
p48
ag12
aS'variable_4'
p49
ag15
ag19
aS'if'
p50
ag7
aS'!'
p51
aS'variable_6'
p52
ag15
aS'variable_8'
p53
ag29
aS'sizeof'
p54
ag7
aS'variable_15'
p55
ag15
aS'+'
p56
aS'variable_4'
p57
ag56
aS'variable_7'
p58
ag56
aS'variable_2'
p59
ag19
aS'variable_8'
p60
aS'+='
p61
aS'sizeof'
p62
ag7
aS'variable_16'
p63
ag15
ag19
aS'variable_8'
p64
aS'+='
p65
aS'sizeof'
p66
ag7
aS'variable_17'
p67
ag15
ag19
aS'variable_8'
p68
aS'+='
p69
aS'sizeof'
p70
ag7
aS'variable_18'
p71
ag15
ag19
aS'variable_8'
p72
aS'+='
p73
aS'func_3'
p74
ag7
aS'variable_19'
p75
aS'->'
p76
aS'variable_20'
p77
ag15
ag19
aS'variable_8'
p78
aS'+='
p79
aS'func_4'
p80
ag7
aS'variable_21'
p81
aS'->'
p82
aS'variable_20'
p83
ag15
ag19
aS'variable_8'
p84
aS'+='
p85
aS'func_5'
p86
ag7
aS'variable_22'
p87
aS'->'
p88
aS'variable_20'
p89
ag15
ag19
aS'variable_8'
p90
aS'+='
p91
aS'sizeof'
p92
ag7
aS'variable_23'
p93
ag15
ag56
aS'variable_24'
p94
ag19
aS'variable_25'
p95
ag29
aS'func_6'
p96
ag7
aS'variable_9'
p97
ag12
aS'variable_26'
p98
ag12
aS'0'
p99
ag12
aS'variable_8'
p100
ag15
ag19
aS'if'
p101
ag7
ag51
aS'variable_25'
p102
ag15
aS'variable_25'
p103
aS'->'
p104
aS'variable_27'
p105
ag29
aS'variable_13'
p106
aS'->'
p107
aS'variable_27'
p108
ag19
aS'variable_25'
p109
aS'->'
p110
aS'variable_28'
p111
ag35
aS'variable_29'
p112
ag29
aS'func_7'
p113
ag7
aS'variable_25'
p114
ag12
aS'sizeof'
p115
ag7
aS'variable_15'
p116
ag15
ag12
ag31
aS'variable_15'
p117
ag15
ag19
aS'variable_25'
p118
aS'->'
p119
aS'variable_30'
p120
ag35
aS'variable_14'
p121
ag29
aS'func_8'
p122
ag7
aS'variable_25'
p123
ag12
aS'variable_4'
p124
ag12
aS'variable_3'
p125
ag35
aS'variable_14'
p126
ag15
ag19
aS'func_9'
p127
ag7
aS'variable_25'
p128
ag12
aS'variable_7'
p129
ag12
aS'variable_6'
p130
ag15
ag19
aS'func_10'
p131
ag7
aS'variable_25'
p132
ag12
aS'sizeof'
p133
ag7
aS'variable_16'
p134
ag15
ag12
ag31
aS'variable_16'
p135
ag15
ag19
aS'func_11'
p136
ag7
aS'variable_25'
p137
ag12
aS'sizeof'
p138
ag7
aS'variable_23'
p139
ag15
ag12
ag31
aS'variable_31'
p140
ag15
ag19
aS'func_12'
p141
ag7
aS'variable_25'
p142
ag12
aS'variable_24'
p143
ag12
aS'variable_32'
p144
ag15
ag19
aS'func_13'
p145
ag7
aS'variable_25'
p146
ag12
aS'sizeof'
p147
ag7
aS'variable_17'
p148
ag15
ag12
ag31
aS'variable_17'
p149
ag15
ag19
aS'func_14'
p150
ag7
aS'variable_25'
p151
ag12
aS'sizeof'
p152
ag7
aS'variable_18'
p153
ag15
ag12
ag31
aS'variable_18'
p154
ag15
ag19
aS'func_15'
p155
ag7
aS'variable_25'
p156
ag12
aS'func_16'
p157
ag7
aS'variable_19'
p158
aS'->'
p159
aS'variable_20'
p160
ag15
ag12
aS'variable_19'
p161
ag15
ag19
aS'func_17'
p162
ag7
aS'variable_25'
p163
ag12
aS'func_18'
p164
ag7
aS'variable_21'
p165
aS'->'
p166
aS'variable_20'
p167
ag15
ag12
aS'variable_21'
p168
ag15
ag19
aS'func_19'
p169
ag7
aS'variable_25'
p170
ag12
aS'func_20'
p171
ag7
aS'variable_22'
p172
aS'->'
p173
aS'variable_20'
p174
ag15
ag12
aS'variable_22'
p175
ag15
ag19
aS'variable_25'
p176
aS'->'
p177
aS'variable_9'
p178
ag29
ag7
aS'struct'
p179
aS'sctp_association'
p180
ag5
ag15
aS'variable_9'
p181
ag19
aS'variable_25'
p182
aS'->'
p183
aS'variable_27'
p184
ag29
aS'variable_13'
p185
aS'->'
p186
aS'variable_27'
p187
ag19
aS'return'
p188
aS'variable_25'
p189
ag19
aaa(lp190
I1
aa(lp191
I87
aa(lp192
(lp193
S'main'
p194
aaa(lp195
S'202 /home/SySeVR/data/CVE_2011_1573_VULN_sctp_make_init_ack.c chunksize = sizeof ( initack ) + addrs_len + cookie_len + unkparam_len 44'
p196
aa.