(lp0
(lp1
(lp2
S'int'
p3
aS'func_0'
p4
aS'('
p5
aS'variable_0'
p6
aS'*'
p7
aS'variable_1'
p8
aS','
p9
aS'int'
p10
aS'variable_2'
p11
ag7
aS'variable_3'
p12
ag9
aS'void'
p13
aS'variable_2'
p14
ag7
aS'variable_4'
p15
ag9
aS'void'
p16
aS'variable_2'
p17
ag7
aS'variable_5'
p18
ag9
aS'size_t'
p19
aS'variable_6'
p20
ag9
aS'void'
p21
ag7
ag7
aS'variable_7'
p22
aS')'
p23
aS'size_t'
p24
aS'variable_8'
p25
ag9
aS'variable_9'
p26
aS';'
p27
aS'if'
p28
ag5
aS'!'
p29
aS'variable_1'
p30
aS'->'
p31
aS'variable_10'
p32
aS'||'
p33
ag29
aS'variable_1'
p34
aS'->'
p35
aS'variable_11'
p36
ag23
aS'if'
p37
ag5
aS'variable_4'
p38
aS'&&'
p39
aS'variable_12'
p40
ag23
aS'if'
p41
ag5
aS'func_1'
p42
ag5
aS'variable_9'
p43
ag9
aS'variable_12'
p44
ag23
ag23
aS'if'
p45
ag5
aS'variable_9'
p46
ag23
aS'variable_8'
p47
aS'='
p48
aS'strlen'
p49
ag5
aS'variable_1'
p50
aS'->'
p51
aS'variable_10'
p52
ag23
aS'+'
p53
aS'1'
p54
ag27
aS'if'
p55
ag5
aS'variable_9'
p56
aS'>'
p57
aS'variable_8'
p58
ag23
aS'variable_9'
p59
ag48
aS'variable_8'
p60
ag27
aS'if'
p61
ag5
aS'variable_9'
p62
ag57
ag48
aS'variable_1'
p63
aS'->'
p64
aS'variable_11'
p65
ag23
aS'if'
p66
ag5
aS'func_2'
p67
ag5
aS'variable_4'
p68
ag9
aS'variable_1'
p69
aS'->'
p70
aS'variable_10'
p71
ag9
aS'variable_9'
p72
ag23
ag23
aS'if'
p73
ag5
aS'func_3'
p74
ag5
aS'variable_9'
p75
ag9
aS'variable_12'
p76
ag23
ag23
aaa(lp77
I0
aa(lp78
I69
aa(lp79
(lp80
S'main'
p81
aaa(lp82
S'231 /home/SySeVR/data/CVE_2005_4618_PATCHED_sysctl_string.c strlen 14'
p83
aa.