(lp0
(lp1
(lp2
S'static'
p3
aS'variable_0'
p4
aS'*'
p5
aS'func_0'
p6
aS'('
p7
aS'struct'
p8
aS'variable_1'
p9
ag5
aS'variable_2'
p10
aS','
p11
aS'u32'
p12
aS'variable_3'
p13
aS')'
p14
aS'unsigned'
p15
aS'int'
p16
aS'variable_4'
p17
aS'='
p18
ag7
aS'char'
p19
ag5
ag14
aS'variable_2'
p20
aS'->'
p21
aS'variable_5'
p22
aS'-'
p23
ag7
aS'char'
p24
ag5
ag14
aS'variable_2'
p25
aS'->'
p26
aS'variable_6'
p27
aS';'
p28
aS'variable_0'
p29
ag5
aS'variable_6'
p30
ag28
aS'if'
p31
ag7
aS'variable_4'
p32
aS'+'
p33
aS'variable_2'
p34
aS'->'
p35
aS'variable_7'
p36
aS'<'
p37
aS'variable_3'
p38
ag14
aS'if'
p39
ag7
aS'variable_4'
p40
ag33
aS'variable_8'
p41
ag37
aS'variable_3'
p42
ag14
aS'if'
p43
ag7
aS'variable_3'
p44
ag37
ag18
aS'sizeof'
p45
ag7
aS'variable_2'
p46
aS'->'
p47
aS'variable_9'
p48
ag14
ag14
aS'variable_6'
p49
ag18
aS'variable_2'
p50
aS'->'
p51
aS'variable_9'
p52
ag28
aS'variable_6'
p53
ag18
aS'variable_2'
p54
aS'->'
p55
aS'variable_10'
p56
ag18
aS'kmalloc'
p57
ag7
aS'variable_3'
p58
ag11
aS'variable_11'
p59
ag14
ag28
aS'if'
p60
ag7
aS'!'
p61
aS'variable_6'
p62
ag14
aS'memcpy'
p63
ag7
aS'variable_6'
p64
ag11
aS'variable_2'
p65
aS'->'
p66
aS'variable_6'
p67
ag11
aS'variable_4'
p68
ag14
ag28
aS'variable_2'
p69
aS'->'
p70
aS'variable_6'
p71
ag18
aS'func_1'
p72
ag7
aS'variable_2'
p73
aS'->'
p74
aS'variable_12'
p75
aS'['
p76
aS'0'
p77
aS']'
p78
ag14
ag28
aS'variable_2'
p79
aS'->'
p80
aS'variable_12'
p81
aS'++'
p82
ag28
aS'if'
p83
ag7
aS'variable_2'
p84
aS'->'
p85
aS'variable_7'
p86
ag37
aS'variable_8'
p87
ag14
aS'variable_2'
p88
aS'->'
p89
aS'variable_5'
p90
ag18
aS'variable_2'
p91
aS'->'
p92
aS'variable_6'
p93
ag33
ag7
aS'variable_2'
p94
aS'->'
p95
aS'variable_7'
p96
aS'>>'
p97
aS'2'
p98
ag14
ag28
aS'variable_2'
p99
aS'->'
p100
aS'variable_7'
p101
ag18
ag77
ag28
aS'variable_2'
p102
aS'->'
p103
aS'variable_5'
p104
ag18
aS'variable_2'
p105
aS'->'
p106
aS'variable_6'
p107
ag33
ag7
aS'variable_8'
p108
aS'>>'
p109
ag98
ag14
ag28
aS'variable_2'
p110
aS'->'
p111
aS'variable_7'
p112
aS'-='
p113
aS'variable_8'
p114
ag28
aS'memcpy'
p115
ag7
ag7
ag7
aS'char'
p116
ag5
ag14
aS'variable_6'
p117
ag14
ag33
aS'variable_4'
p118
ag11
aS'variable_2'
p119
aS'->'
p120
aS'variable_6'
p121
ag11
ag7
aS'variable_3'
p122
ag23
aS'variable_4'
p123
ag14
ag14
ag28
aa(lp124
S'static'
p125
aS'variable_0'
p126
ag5
aS'func_0'
p127
ag7
aS'struct'
p128
aS'variable_1'
p129
ag5
aS'variable_2'
p130
ag11
aS'u32'
p131
aS'variable_3'
p132
ag14
aS'unsigned'
p133
aS'int'
p134
aS'variable_4'
p135
ag18
ag7
aS'char'
p136
ag5
ag14
aS'variable_2'
p137
aS'->'
p138
aS'variable_5'
p139
ag23
ag7
aS'char'
p140
ag5
ag14
aS'variable_2'
p141
aS'->'
p142
aS'variable_6'
p143
ag28
aS'variable_0'
p144
ag5
aS'variable_6'
p145
ag28
aS'if'
p146
ag7
aS'variable_4'
p147
ag33
aS'variable_2'
p148
aS'->'
p149
aS'variable_7'
p150
ag37
aS'variable_3'
p151
ag14
aS'if'
p152
ag7
aS'variable_4'
p153
ag33
aS'variable_8'
p154
ag37
aS'variable_3'
p155
ag14
aS'if'
p156
ag7
aS'variable_3'
p157
ag37
ag18
aS'sizeof'
p158
ag7
aS'variable_2'
p159
aS'->'
p160
aS'variable_9'
p161
ag14
ag14
aS'variable_6'
p162
ag18
aS'variable_2'
p163
aS'->'
p164
aS'variable_9'
p165
ag28
aS'variable_6'
p166
ag18
aS'variable_2'
p167
aS'->'
p168
aS'variable_10'
p169
ag18
aS'kmalloc'
p170
ag7
aS'variable_3'
p171
ag11
aS'variable_11'
p172
ag14
ag28
aS'if'
p173
ag7
ag61
aS'variable_6'
p174
ag14
aS'memcpy'
p175
ag7
aS'variable_6'
p176
ag11
aS'variable_2'
p177
aS'->'
p178
aS'variable_6'
p179
ag11
aS'variable_4'
p180
ag14
ag28
aS'memcpy'
p181
ag7
ag7
ag7
aS'char'
p182
ag5
ag14
aS'variable_6'
p183
ag14
ag33
aS'variable_4'
p184
ag11
aS'variable_2'
p185
aS'->'
p186
aS'variable_6'
p187
ag11
ag7
aS'variable_3'
p188
ag23
aS'variable_4'
p189
ag14
ag14
ag28
aS'return'
p190
aS'variable_6'
p191
ag28
aaa(lp192
I0
aI0
aa(lp193
I170
aI90
aa(lp194
(lp195
S'main'
p196
aa(lp197
g196
aaa(lp198
S'438 /home/SySeVR/data/CVE_2010_2521_PATCHED_read_buf.c memcpy 38'
p199
aS'439 /home/SySeVR/data/CVE_2010_2521_PATCHED_read_buf.c memcpy 27'
p200
aa.