(lp0
(lp1
(lp2
S'static'
p3
aS'void'
p4
aS'func_0'
p5
aS'('
p6
aS'variable_0'
p7
aS'*'
p8
aS'variable_1'
p9
aS')'
p10
aS'if'
p11
ag6
aS'variable_1'
p12
aS'->'
p13
aS'variable_2'
p14
aS'<'
p15
aS'24'
p16
ag10
aS'int'
p17
aS'variable_3'
p18
aS','
p19
aS'variable_4'
p20
ag19
aS'variable_5'
p21
ag19
aS'variable_6'
p22
aS';'
p23
aS'int'
p24
aS'variable_4'
p25
ag19
aS'variable_7'
p26
ag19
aS'variable_8'
p27
ag19
aS'variable_9'
p28
ag19
aS'variable_10'
p29
ag23
aS'int'
p30
aS'variable_11'
p31
aS'='
p32
aS'variable_1'
p33
aS'->'
p34
aS'variable_12'
p35
ag23
aS'int'
p36
aS'variable_13'
p37
ag32
aS'!'
p38
aS'variable_1'
p39
aS'->'
p40
aS'variable_12'
p41
ag23
aS'for'
p42
ag6
aS'variable_4'
p43
ag32
aS'0'
p44
ag19
aS'variable_8'
p45
ag32
aS'-'
p46
aS'16'
p47
ag23
aS'variable_8'
p48
ag15
aS'16'
p49
ag23
aS'variable_8'
p50
aS'++'
p51
ag10
aS'int'
p52
aS'variable_14'
p53
ag32
aS'variable_1'
p54
aS'->'
p55
aS'variable_15'
p56
aS'['
p57
aS'variable_11'
p58
aS']'
p59
ag57
aS'variable_8'
p60
aS'&'
p61
aS'255'
p62
ag59
ag23
aS'int'
p63
aS'variable_16'
p64
ag32
aS'variable_17'
p65
ag46
aS'variable_14'
p66
ag23
aS'if'
p67
ag6
aS'variable_16'
p68
ag15
aS'2'
p69
aS'||'
p70
ag38
aS'variable_14'
p71
ag10
aS'for'
p72
ag6
aS'variable_7'
p73
ag32
ag46
aS'16'
p74
ag23
aS'variable_7'
p75
ag15
aS'16'
p76
ag23
aS'variable_7'
p77
aS'++'
p78
ag10
aS'int'
p79
aS'variable_18'
p80
ag32
aS'variable_1'
p81
aS'->'
p82
aS'variable_15'
p83
ag57
aS'variable_13'
p84
ag59
ag57
aS'variable_7'
p85
ag61
aS'255'
p86
ag59
ag23
aS'int'
p87
aS'variable_19'
p88
ag32
aS'variable_16'
p89
ag46
aS'variable_18'
p90
ag23
aS'if'
p91
ag6
aS'variable_19'
p92
ag15
aS'1'
p93
aS'||'
p94
ag38
aS'variable_18'
p95
ag10
aS'if'
p96
ag6
aS'variable_20'
p97
aS'>'
p98
aS'variable_19'
p99
aS'||'
p100
ag38
aS'variable_20'
p101
ag10
aa(lp102
S'static'
p103
aS'void'
p104
aS'func_0'
p105
ag6
aS'variable_0'
p106
ag8
aS'variable_1'
p107
ag10
aS'if'
p108
ag6
aS'variable_1'
p109
aS'->'
p110
aS'variable_2'
p111
ag15
aS'24'
p112
ag10
aS'int'
p113
aS'variable_3'
p114
ag19
aS'variable_4'
p115
ag19
aS'variable_5'
p116
ag19
aS'variable_6'
p117
ag23
aS'int'
p118
aS'variable_4'
p119
ag19
aS'variable_7'
p120
ag19
aS'variable_8'
p121
ag19
aS'variable_9'
p122
ag19
aS'variable_10'
p123
ag23
aS'int'
p124
aS'variable_11'
p125
ag32
aS'variable_1'
p126
aS'->'
p127
aS'variable_12'
p128
ag23
aS'for'
p129
ag6
aS'variable_4'
p130
ag32
ag44
ag19
aS'variable_8'
p131
ag32
ag46
aS'16'
p132
ag23
aS'variable_8'
p133
ag15
aS'16'
p134
ag23
aS'variable_8'
p135
aS'++'
p136
ag10
aS'int'
p137
aS'variable_13'
p138
ag32
aS'variable_1'
p139
aS'->'
p140
aS'variable_14'
p141
ag57
aS'variable_11'
p142
ag59
ag57
aS'variable_8'
p143
ag61
aS'255'
p144
ag59
ag23
aS'int'
p145
aS'variable_15'
p146
ag32
aS'variable_16'
p147
ag46
aS'variable_13'
p148
ag23
aS'if'
p149
ag6
aS'variable_15'
p150
ag15
ag69
aS'||'
p151
ag38
aS'variable_13'
p152
ag10
aS'int'
p153
aS'variable_17'
p154
ag32
aS'variable_15'
p155
ag46
aS'variable_18'
p156
ag23
aS'if'
p157
ag6
aS'variable_17'
p158
ag15
ag93
aS'||'
p159
ag38
aS'variable_18'
p160
ag10
aS'if'
p161
ag6
aS'variable_19'
p162
ag98
aS'variable_17'
p163
aS'||'
p164
ag38
aS'variable_19'
p165
ag10
aa(lp166
S'static'
p167
aS'void'
p168
aS'func_0'
p169
ag6
aS'variable_0'
p170
ag8
aS'variable_1'
p171
ag10
aS'if'
p172
ag6
aS'variable_1'
p173
aS'->'
p174
aS'variable_2'
p175
ag15
aS'24'
p176
ag10
aS'int'
p177
aS'variable_3'
p178
ag19
aS'variable_4'
p179
ag19
aS'variable_5'
p180
ag19
aS'variable_6'
p181
ag23
aS'for'
p182
ag6
aS'variable_3'
p183
ag32
ag44
ag23
aS'variable_3'
p184
ag15
aS'3'
p185
ag23
aS'variable_3'
p186
aS'++'
p187
ag10
aS'for'
p188
ag6
aS'variable_4'
p189
ag32
aS'variable_5'
p190
ag32
ag44
ag23
aS'variable_5'
p191
ag15
aS'256'
p192
ag23
aS'variable_5'
p193
aS'++'
p194
ag10
aS'int'
p195
aS'variable_7'
p196
ag32
aS'variable_1'
p197
aS'->'
p198
aS'variable_8'
p199
ag57
ag44
ag59
ag57
aS'variable_5'
p200
ag59
ag23
aS'int'
p201
aS'variable_9'
p202
ag32
aS'variable_10'
p203
ag46
aS'variable_7'
p204
ag23
aS'if'
p205
ag6
aS'variable_9'
p206
ag15
ag32
ag44
aS'||'
p207
ag38
aS'variable_7'
p208
ag10
aS'if'
p209
ag6
aS'variable_11'
p210
ag98
aS'variable_9'
p211
aS'||'
p212
ag38
aS'variable_11'
p213
ag10
aaa(lp214
I0
aI0
aI0
aa(lp215
I135
aI82
aI72
aa(lp216
(lp217
S'main'
p218
aa(lp219
g218
aa(lp220
g218
aaa(lp221
S'813 /home/SySeVR/data/CVE_2013_0868_PATCHED_generate_joint_tables.c int limit1 = limit0 - len1 ; 45'
p222
aS'814 /home/SySeVR/data/CVE_2013_0868_PATCHED_generate_joint_tables.c int limit0 = VLC_BITS - len0 ; 40'
p223
aS'815 /home/SySeVR/data/CVE_2013_0868_PATCHED_generate_joint_tables.c int limit = VLC_BITS - len0 ; 11'
p224
aa.