(lp0
(lp1
(lp2
S'static'
p3
aS'int'
p4
aS'func_0'
p5
aS'('
p6
aS'unsigned'
p7
aS'long'
p8
aS'variable_0'
p9
aS')'
p10
aS'struct'
p11
aS'variable_1'
p12
aS'*'
p13
aS'variable_2'
p14
aS'='
p15
aS'func_1'
p16
ag6
aS'variable_3'
p17
aS','
p18
aS'struct'
p19
aS'variable_1'
p20
ag18
aS'variable_3'
p21
ag10
aS'struct'
p22
aS'variable_4'
p23
ag13
aS'variable_5'
p24
ag18
ag13
aS'variable_6'
p25
aS';'
p26
aS'struct'
p27
aS'variable_7'
p28
ag13
aS'variable_8'
p29
ag15
aS'variable_9'
p30
ag26
aS'dma_addr_t'
p31
aS'variable_10'
p32
ag18
aS'variable_11'
p33
ag26
aS'u32'
p34
aS'variable_12'
p35
ag18
aS'variable_13'
p36
ag18
aS'variable_14'
p37
ag26
aS'int'
p38
aS'variable_15'
p39
ag18
aS'variable_16'
p40
ag18
aS'variable_17'
p41
ag26
aS'int'
p42
aS'variable_18'
p43
ag18
aS'variable_19'
p44
ag18
aS'variable_20'
p45
ag18
aS'variable_21'
p46
ag18
aS'variable_22'
p47
ag26
aS'variable_20'
p48
ag15
aS'variable_8'
p49
aS'->'
p50
aS'variable_23'
p51
aS'/'
p52
aS'variable_2'
p53
aS'->'
p54
aS'variable_3'
p55
aS'.'
p56
aS'variable_21'
p57
ag26
aS'variable_21'
p58
ag15
aS'max'
p59
ag6
aS'variable_2'
p60
aS'->'
p61
aS'variable_3'
p62
ag56
aS'variable_21'
p63
ag18
ag6
aS'size_t'
p64
ag10
aS'8'
p65
ag10
ag26
aS'variable_13'
p66
ag15
aS'func_2'
p67
ag6
aS'variable_21'
p68
ag18
aS'sizeof'
p69
ag6
ag13
aS'variable_5'
p70
ag10
ag10
ag26
aS'variable_18'
p71
ag15
aS'variable_0'
p72
aS'>>'
p73
aS'variable_24'
p74
ag26
aS'variable_19'
p75
ag15
aS'variable_0'
p76
aS'&'
p77
aS'~'
p78
aS'variable_25'
p79
ag26
aS'variable_22'
p80
ag15
aS'variable_8'
p81
aS'->'
p82
aS'variable_26'
p83
ag52
aS'variable_20'
p84
ag26
aS'for'
p85
ag6
aS'variable_15'
p86
ag15
aS'0'
p87
ag26
aS'variable_15'
p88
aS'<'
p89
aS'variable_20'
p90
ag26
aS'variable_15'
p91
aS'++'
p92
ag10
aS'variable_12'
p93
ag15
aS'func_3'
p94
ag6
aS'variable_22'
p95
aS'+'
p96
aS'variable_19'
p97
ag18
aS'variable_27'
p98
ag10
ag96
aS'1'
p99
ag26
aS'variable_5'
p100
ag15
aS'func_4'
p101
ag6
ag77
aS'variable_2'
p102
aS'->'
p103
aS'variable_28'
p104
ag18
aS'variable_12'
p105
ag96
aS'variable_13'
p106
ag18
ag77
aS'variable_10'
p107
ag10
ag26
aS'if'
p108
ag6
aS'variable_5'
p109
aS'=='
p110
aS'NULL'
p111
ag10
aS'variable_5'
p112
aS'->'
p113
aS'variable_29'
p114
ag15
aS'func_5'
p115
ag6
aS'variable_30'
p116
aS'|'
p117
aS'variable_31'
p118
ag10
ag26
aS'if'
p119
ag6
aS'variable_8'
p120
aS'->'
p121
aS'variable_32'
p122
aS'&&'
p123
aS'variable_15'
p124
aS'=='
p125
ag87
ag10
aS'variable_5'
p126
aS'->'
p127
aS'variable_29'
p128
ag117
ag15
aS'func_6'
p129
ag6
aS'variable_33'
p130
ag10
ag26
aS'variable_5'
p131
aS'->'
p132
aS'variable_34'
p133
ag15
aS'func_7'
p134
ag6
aS'variable_21'
p135
ag10
ag26
aS'variable_5'
p136
aS'->'
p137
aS'variable_35'
p138
ag15
aS'variable_5'
p139
aS'->'
p140
aS'variable_34'
p141
ag26
aS'variable_5'
p142
aS'->'
p143
aS'variable_36'
p144
ag15
ag87
ag26
aS'variable_5'
p145
aS'->'
p146
aS'variable_37'
p147
ag15
aS'func_8'
p148
ag6
aS'variable_10'
p149
ag96
ag6
aS'variable_12'
p150
ag13
aS'sizeof'
p151
ag6
ag13
aS'variable_5'
p152
ag10
ag10
ag10
ag26
aS'variable_14'
p153
ag15
aS'variable_22'
p154
ag26
aS'variable_6'
p155
ag15
aS'variable_5'
p156
ag26
aS'for'
p157
ag6
aS'variable_16'
p158
ag15
ag99
ag26
aS'variable_16'
p159
ag89
aS'variable_12'
p160
ag26
aS'variable_16'
p161
aS'++'
p162
ag10
aS'variable_6'
p163
aS'++'
p164
ag26
aS'variable_6'
p165
aS'->'
p166
aS'variable_29'
p167
ag15
aS'func_9'
p168
ag6
aS'variable_30'
p169
ag117
aS'variable_31'
p170
ag10
ag26
aS'if'
p171
ag6
aS'variable_19'
p172
ag96
aS'variable_14'
p173
ag89
aS'variable_27'
p174
ag10
aS'variable_17'
p175
ag15
aS'variable_14'
p176
ag26
aS'variable_17'
p177
ag15
aS'variable_27'
p178
aS'-'
p179
aS'variable_19'
p180
ag26
aS'variable_6'
p181
aS'->'
p182
aS'variable_34'
p183
ag15
aS'func_10'
p184
ag6
aS'variable_17'
p185
ag10
ag26
aS'variable_6'
p186
aS'->'
p187
aS'variable_35'
p188
ag15
aS'variable_6'
p189
aS'->'
p190
aS'variable_34'
p191
ag26
aS'variable_6'
p192
aS'->'
p193
aS'variable_36'
p194
ag15
ag87
ag26
aS'variable_11'
p195
ag15
aS'func_11'
p196
ag6
aS'variable_38'
p197
aS'->'
p198
aS'variable_39'
p199
aS'['
p200
aS'variable_18'
p201
aS']'
p202
ag10
ag26
aS'variable_6'
p203
aS'->'
p204
aS'variable_37'
p205
ag15
aS'func_12'
p206
ag6
aS'variable_11'
p207
ag96
aS'variable_19'
p208
ag10
ag26
aS'variable_19'
p209
ag15
ag6
aS'variable_19'
p210
ag96
aS'variable_17'
p211
ag10
ag77
ag78
aS'variable_25'
p212
ag26
aS'variable_14'
p213
aS'-='
p214
aS'variable_17'
p215
ag26
aS'if'
p216
ag6
aS'variable_19'
p217
aS'=='
p218
ag87
ag10
aS'variable_18'
p219
aS'++'
p220
ag26
aS'variable_6'
p221
aS'->'
p222
aS'variable_29'
p223
ag15
aS'func_13'
p224
ag6
aS'variable_30'
p225
ag117
aS'variable_40'
p226
ag117
aS'variable_41'
p227
ag10
ag26
aS'variable_6'
p228
aS'->'
p229
aS'variable_29'
p230
ag117
ag15
aS'func_14'
p231
ag6
aS'variable_42'
p232
ag10
ag26
aa(lp233
S'static'
p234
aS'int'
p235
aS'func_0'
p236
ag6
aS'unsigned'
p237
aS'long'
p238
aS'variable_0'
p239
ag10
aS'struct'
p240
aS'variable_1'
p241
ag13
aS'variable_2'
p242
ag15
aS'func_1'
p243
ag6
aS'variable_3'
p244
ag18
aS'struct'
p245
aS'variable_1'
p246
ag18
aS'variable_3'
p247
ag10
aS'struct'
p248
aS'variable_4'
p249
ag13
aS'variable_5'
p250
ag18
ag13
aS'variable_6'
p251
ag26
aS'struct'
p252
aS'variable_7'
p253
ag13
aS'variable_8'
p254
ag15
aS'variable_9'
p255
ag26
aS'dma_addr_t'
p256
aS'variable_10'
p257
ag18
aS'variable_11'
p258
ag26
aS'u32'
p259
aS'variable_12'
p260
ag18
aS'variable_13'
p261
ag18
aS'variable_14'
p262
ag26
aS'int'
p263
aS'variable_15'
p264
ag18
aS'variable_16'
p265
ag18
aS'variable_17'
p266
ag26
aS'int'
p267
aS'variable_18'
p268
ag18
aS'variable_19'
p269
ag18
aS'variable_20'
p270
ag18
aS'variable_21'
p271
ag18
aS'variable_22'
p272
ag26
aS'variable_20'
p273
ag15
aS'variable_8'
p274
aS'->'
p275
aS'variable_23'
p276
ag52
aS'variable_2'
p277
aS'->'
p278
aS'variable_3'
p279
ag56
aS'variable_21'
p280
ag26
aS'variable_21'
p281
ag15
aS'max'
p282
ag6
aS'variable_2'
p283
aS'->'
p284
aS'variable_3'
p285
ag56
aS'variable_21'
p286
ag18
ag6
aS'size_t'
p287
ag10
ag65
ag10
ag26
aS'variable_13'
p288
ag15
aS'func_2'
p289
ag6
aS'variable_21'
p290
ag18
aS'sizeof'
p291
ag6
ag13
aS'variable_5'
p292
ag10
ag10
ag26
aS'variable_19'
p293
ag15
aS'variable_0'
p294
ag77
ag78
aS'variable_24'
p295
ag26
aS'variable_22'
p296
ag15
aS'variable_8'
p297
aS'->'
p298
aS'variable_25'
p299
ag52
aS'variable_20'
p300
ag26
aS'for'
p301
ag6
aS'variable_15'
p302
ag15
ag87
ag26
aS'variable_15'
p303
ag89
aS'variable_20'
p304
ag26
aS'variable_15'
p305
aS'++'
p306
ag10
aS'variable_12'
p307
ag15
aS'func_3'
p308
ag6
aS'variable_22'
p309
ag96
aS'variable_19'
p310
ag18
aS'variable_26'
p311
ag10
ag96
ag99
ag26
aS'variable_5'
p312
ag15
aS'func_4'
p313
ag6
ag77
aS'variable_2'
p314
aS'->'
p315
aS'variable_27'
p316
ag18
aS'variable_12'
p317
ag96
aS'variable_13'
p318
ag18
ag77
aS'variable_10'
p319
ag10
ag26
aS'if'
p320
ag6
aS'variable_5'
p321
aS'=='
p322
aS'NULL'
p323
ag10
aS'variable_5'
p324
aS'->'
p325
aS'variable_28'
p326
ag15
aS'func_5'
p327
ag6
aS'variable_29'
p328
ag117
aS'variable_30'
p329
ag10
ag26
aS'if'
p330
ag6
aS'variable_8'
p331
aS'->'
p332
aS'variable_31'
p333
aS'&&'
p334
aS'variable_15'
p335
aS'=='
p336
ag87
ag10
aS'variable_5'
p337
aS'->'
p338
aS'variable_28'
p339
ag117
ag15
aS'func_6'
p340
ag6
aS'variable_32'
p341
ag10
ag26
aS'variable_5'
p342
aS'->'
p343
aS'variable_33'
p344
ag15
aS'func_7'
p345
ag6
aS'variable_21'
p346
ag10
ag26
aS'variable_5'
p347
aS'->'
p348
aS'variable_34'
p349
ag15
aS'variable_5'
p350
aS'->'
p351
aS'variable_33'
p352
ag26
aS'variable_5'
p353
aS'->'
p354
aS'variable_35'
p355
ag15
ag87
ag26
aS'variable_5'
p356
aS'->'
p357
aS'variable_36'
p358
ag15
aS'func_8'
p359
ag6
aS'variable_10'
p360
ag96
ag6
aS'variable_12'
p361
ag13
aS'sizeof'
p362
ag6
ag13
aS'variable_5'
p363
ag10
ag10
ag10
ag26
aS'variable_14'
p364
ag15
aS'variable_22'
p365
ag26
aS'variable_6'
p366
ag15
aS'variable_5'
p367
ag26
aS'for'
p368
ag6
aS'variable_16'
p369
ag15
ag99
ag26
aS'variable_16'
p370
ag89
aS'variable_12'
p371
ag26
aS'variable_16'
p372
aS'++'
p373
ag10
aS'variable_6'
p374
aS'++'
p375
ag26
aS'variable_6'
p376
aS'->'
p377
aS'variable_28'
p378
ag15
aS'func_9'
p379
ag6
aS'variable_29'
p380
ag117
aS'variable_30'
p381
ag10
ag26
aS'if'
p382
ag6
aS'variable_19'
p383
ag96
aS'variable_14'
p384
ag89
aS'variable_26'
p385
ag10
aS'variable_17'
p386
ag15
aS'variable_14'
p387
ag26
aS'variable_17'
p388
ag15
aS'variable_26'
p389
ag179
aS'variable_19'
p390
ag26
aS'variable_6'
p391
aS'->'
p392
aS'variable_33'
p393
ag15
aS'func_10'
p394
ag6
aS'variable_17'
p395
ag10
ag26
aS'variable_6'
p396
aS'->'
p397
aS'variable_34'
p398
ag15
aS'variable_6'
p399
aS'->'
p400
aS'variable_33'
p401
ag26
aS'variable_6'
p402
aS'->'
p403
aS'variable_35'
p404
ag15
ag87
ag26
aS'variable_6'
p405
aS'->'
p406
aS'variable_36'
p407
ag15
aS'func_11'
p408
ag6
aS'variable_11'
p409
ag96
aS'variable_19'
p410
ag10
ag26
aS'variable_19'
p411
ag15
ag6
aS'variable_19'
p412
ag96
aS'variable_17'
p413
ag10
ag77
ag78
aS'variable_24'
p414
ag26
aS'variable_14'
p415
aS'-='
p416
aS'variable_17'
p417
ag26
aS'variable_6'
p418
aS'->'
p419
aS'variable_28'
p420
ag15
aS'func_12'
p421
ag6
aS'variable_29'
p422
ag117
aS'variable_37'
p423
ag117
aS'variable_38'
p424
ag10
ag26
aS'variable_6'
p425
aS'->'
p426
aS'variable_28'
p427
ag117
ag15
aS'func_13'
p428
ag6
aS'variable_39'
p429
ag10
ag26
aS'func_14'
p430
ag6
ag77
aS'variable_2'
p431
aS'->'
p432
aS'variable_27'
p433
ag18
aS'variable_5'
p434
ag18
aS'variable_12'
p435
ag18
aS'variable_13'
p436
ag10
ag26
aa(lp437
S'static'
p438
aS'int'
p439
aS'func_0'
p440
ag6
aS'unsigned'
p441
aS'long'
p442
aS'variable_0'
p443
ag10
aS'struct'
p444
aS'variable_1'
p445
ag13
aS'variable_2'
p446
ag15
aS'func_1'
p447
ag6
aS'variable_3'
p448
ag18
aS'struct'
p449
aS'variable_1'
p450
ag18
aS'variable_3'
p451
ag10
aS'struct'
p452
aS'variable_4'
p453
ag13
aS'variable_5'
p454
ag18
ag13
aS'variable_6'
p455
ag26
aS'struct'
p456
aS'variable_7'
p457
ag13
aS'variable_8'
p458
ag15
aS'variable_9'
p459
ag26
aS'u32'
p460
aS'variable_10'
p461
ag18
aS'variable_11'
p462
ag18
aS'variable_12'
p463
ag26
aS'int'
p464
aS'variable_13'
p465
ag18
aS'variable_14'
p466
ag18
aS'variable_15'
p467
ag26
aS'int'
p468
aS'variable_16'
p469
ag18
aS'variable_17'
p470
ag18
aS'variable_18'
p471
ag18
aS'variable_19'
p472
ag18
aS'variable_20'
p473
ag26
aS'variable_18'
p474
ag15
aS'variable_8'
p475
aS'->'
p476
aS'variable_21'
p477
ag52
aS'variable_2'
p478
aS'->'
p479
aS'variable_3'
p480
ag56
aS'variable_19'
p481
ag26
aS'variable_19'
p482
ag15
aS'max'
p483
ag6
aS'variable_2'
p484
aS'->'
p485
aS'variable_3'
p486
ag56
aS'variable_19'
p487
ag18
ag6
aS'size_t'
p488
ag10
ag65
ag10
ag26
aS'variable_11'
p489
ag15
aS'func_2'
p490
ag6
aS'variable_19'
p491
ag18
aS'sizeof'
p492
ag6
ag13
aS'variable_5'
p493
ag10
ag10
ag26
aS'variable_17'
p494
ag15
aS'variable_0'
p495
ag77
ag78
aS'variable_22'
p496
ag26
aS'variable_20'
p497
ag15
aS'variable_8'
p498
aS'->'
p499
aS'variable_23'
p500
ag52
aS'variable_18'
p501
ag26
aS'for'
p502
ag6
aS'variable_13'
p503
ag15
ag87
ag26
aS'variable_13'
p504
ag89
aS'variable_18'
p505
ag26
aS'variable_13'
p506
aS'++'
p507
ag10
aS'variable_10'
p508
ag15
aS'func_3'
p509
ag6
aS'variable_20'
p510
ag96
aS'variable_17'
p511
ag18
aS'variable_24'
p512
ag10
ag96
ag99
ag26
aS'variable_5'
p513
ag15
aS'func_4'
p514
ag6
ag77
aS'variable_2'
p515
aS'->'
p516
aS'variable_25'
p517
ag18
aS'variable_10'
p518
ag96
aS'variable_11'
p519
ag18
ag77
aS'variable_26'
p520
ag10
ag26
aS'if'
p521
ag6
aS'variable_5'
p522
aS'=='
p523
aS'NULL'
p524
ag10
aS'variable_5'
p525
aS'->'
p526
aS'variable_27'
p527
ag15
aS'func_5'
p528
ag6
aS'variable_28'
p529
ag117
aS'variable_29'
p530
ag10
ag26
aS'variable_5'
p531
aS'->'
p532
aS'variable_27'
p533
ag117
ag15
aS'func_6'
p534
ag6
aS'variable_30'
p535
ag10
ag26
aS'variable_5'
p536
aS'->'
p537
aS'variable_31'
p538
ag15
aS'func_7'
p539
ag6
aS'variable_19'
p540
ag10
ag26
aS'variable_5'
p541
aS'->'
p542
aS'variable_32'
p543
ag15
aS'variable_5'
p544
aS'->'
p545
aS'variable_31'
p546
ag26
aS'variable_5'
p547
aS'->'
p548
aS'variable_33'
p549
ag15
ag87
ag26
aS'variable_5'
p550
aS'->'
p551
aS'variable_34'
p552
ag15
aS'func_8'
p553
ag6
aS'variable_26'
p554
ag96
ag6
aS'variable_10'
p555
ag13
aS'sizeof'
p556
ag6
ag13
aS'variable_5'
p557
ag10
ag10
ag10
ag26
aS'variable_12'
p558
ag15
aS'variable_20'
p559
ag26
aS'variable_6'
p560
ag15
aS'variable_5'
p561
ag26
aS'for'
p562
ag6
aS'variable_14'
p563
ag15
ag99
ag26
aS'variable_14'
p564
ag89
aS'variable_10'
p565
ag26
aS'variable_14'
p566
aS'++'
p567
ag10
aS'variable_6'
p568
aS'++'
p569
ag26
aS'variable_6'
p570
aS'->'
p571
aS'variable_27'
p572
ag15
aS'func_9'
p573
ag6
aS'variable_28'
p574
ag117
aS'variable_29'
p575
ag10
ag26
aS'if'
p576
ag6
aS'variable_17'
p577
ag96
aS'variable_12'
p578
ag89
aS'variable_24'
p579
ag10
aS'variable_15'
p580
ag15
aS'variable_12'
p581
ag26
aS'variable_15'
p582
ag15
aS'variable_24'
p583
ag179
aS'variable_17'
p584
ag26
aS'variable_6'
p585
aS'->'
p586
aS'variable_31'
p587
ag15
aS'func_10'
p588
ag6
aS'variable_15'
p589
ag10
ag26
aS'variable_6'
p590
aS'->'
p591
aS'variable_32'
p592
ag15
aS'variable_6'
p593
aS'->'
p594
aS'variable_31'
p595
ag26
aS'variable_6'
p596
aS'->'
p597
aS'variable_33'
p598
ag15
ag87
ag26
aS'variable_6'
p599
aS'->'
p600
aS'variable_34'
p601
ag15
aS'func_11'
p602
ag6
aS'variable_35'
p603
ag96
aS'variable_17'
p604
ag10
ag26
aS'variable_17'
p605
ag15
ag6
aS'variable_17'
p606
ag96
aS'variable_15'
p607
ag10
ag77
ag78
aS'variable_22'
p608
ag26
aS'variable_12'
p609
aS'-='
p610
aS'variable_15'
p611
ag26
aS'variable_6'
p612
aS'->'
p613
aS'variable_27'
p614
ag15
aS'func_12'
p615
ag6
aS'variable_28'
p616
ag117
aS'variable_36'
p617
ag117
aS'variable_37'
p618
ag10
ag26
aS'variable_6'
p619
aS'->'
p620
aS'variable_27'
p621
ag117
ag15
aS'func_13'
p622
ag6
aS'variable_38'
p623
ag10
ag26
aS'func_14'
p624
ag6
ag77
aS'variable_2'
p625
aS'->'
p626
aS'variable_25'
p627
ag18
aS'variable_5'
p628
ag18
aS'variable_10'
p629
ag18
aS'variable_11'
p630
ag10
ag26
aa(lp631
S'static'
p632
aS'int'
p633
aS'func_0'
p634
ag6
aS'unsigned'
p635
aS'long'
p636
aS'variable_0'
p637
ag10
aS'struct'
p638
aS'variable_1'
p639
ag13
aS'variable_2'
p640
ag15
aS'func_1'
p641
ag6
aS'variable_3'
p642
ag18
aS'struct'
p643
aS'variable_1'
p644
ag18
aS'variable_3'
p645
ag10
aS'struct'
p646
aS'variable_4'
p647
ag13
aS'variable_5'
p648
ag15
aS'variable_6'
p649
ag26
aS'int'
p650
aS'variable_7'
p651
ag18
aS'variable_8'
p652
ag18
aS'variable_9'
p653
ag18
aS'variable_10'
p654
ag18
aS'variable_11'
p655
ag26
aS'variable_9'
p656
ag15
aS'variable_5'
p657
aS'->'
p658
aS'variable_12'
p659
ag52
aS'variable_2'
p660
aS'->'
p661
aS'variable_3'
p662
ag56
aS'variable_10'
p663
ag26
aS'variable_11'
p664
ag15
aS'variable_5'
p665
aS'->'
p666
aS'variable_13'
p667
ag52
aS'variable_9'
p668
ag26
aS'variable_14'
p669
ag15
aS'func_2'
p670
ag6
aS'variable_11'
p671
ag96
aS'variable_8'
p672
ag18
aS'variable_15'
p673
ag10
ag96
ag99
ag26
aS'variable_16'
p674
ag15
aS'func_3'
p675
ag6
ag77
aS'variable_2'
p676
aS'->'
p677
aS'variable_17'
p678
ag18
aS'variable_14'
p679
ag96
aS'variable_18'
p680
ag18
ag77
aS'variable_19'
p681
ag10
ag26
aS'if'
p682
ag6
aS'variable_16'
p683
aS'=='
p684
aS'NULL'
p685
ag10
aS'variable_16'
p686
aS'->'
p687
aS'variable_20'
p688
ag15
aS'func_4'
p689
ag6
aS'variable_21'
p690
ag117
aS'variable_22'
p691
ag10
ag26
aS'variable_16'
p692
aS'->'
p693
aS'variable_20'
p694
ag117
ag15
aS'func_5'
p695
ag6
aS'variable_23'
p696
ag10
ag26
aS'variable_16'
p697
aS'->'
p698
aS'variable_24'
p699
ag15
aS'func_6'
p700
ag6
aS'variable_10'
p701
ag10
ag26
aS'variable_16'
p702
aS'->'
p703
aS'variable_25'
p704
ag15
aS'variable_16'
p705
aS'->'
p706
aS'variable_24'
p707
ag26
aS'variable_16'
p708
aS'->'
p709
aS'variable_26'
p710
ag15
ag87
ag26
aS'variable_16'
p711
aS'->'
p712
aS'variable_27'
p713
ag15
aS'func_7'
p714
ag6
aS'variable_19'
p715
ag96
ag6
aS'variable_14'
p716
ag13
aS'sizeof'
p717
ag6
ag13
aS'variable_16'
p718
ag10
ag10
ag10
ag26
aS'variable_28'
p719
ag15
aS'variable_11'
p720
ag26
aS'variable_29'
p721
ag15
aS'variable_16'
p722
ag26
aS'for'
p723
ag6
aS'variable_30'
p724
ag15
ag99
ag26
aS'variable_30'
p725
ag89
aS'variable_14'
p726
ag26
aS'variable_30'
p727
aS'++'
p728
ag10
aS'variable_29'
p729
aS'++'
p730
ag26
aS'variable_29'
p731
aS'->'
p732
aS'variable_20'
p733
ag15
aS'func_8'
p734
ag6
aS'variable_21'
p735
ag117
aS'variable_22'
p736
ag10
ag26
aS'if'
p737
ag6
aS'variable_8'
p738
ag96
aS'variable_28'
p739
ag89
aS'variable_15'
p740
ag10
aS'variable_31'
p741
ag15
aS'variable_28'
p742
ag26
aS'variable_31'
p743
ag15
aS'variable_15'
p744
ag179
aS'variable_8'
p745
ag26
aS'variable_29'
p746
aS'->'
p747
aS'variable_24'
p748
ag15
aS'func_9'
p749
ag6
aS'variable_31'
p750
ag10
ag26
aS'variable_29'
p751
aS'->'
p752
aS'variable_25'
p753
ag15
aS'variable_29'
p754
aS'->'
p755
aS'variable_24'
p756
ag26
aS'variable_29'
p757
aS'->'
p758
aS'variable_26'
p759
ag15
ag87
ag26
aS'variable_29'
p760
aS'->'
p761
aS'variable_27'
p762
ag15
aS'func_10'
p763
ag6
aS'variable_32'
p764
ag96
aS'variable_8'
p765
ag10
ag26
aS'variable_8'
p766
ag15
ag6
aS'variable_8'
p767
ag96
aS'variable_31'
p768
ag10
ag77
ag78
aS'variable_33'
p769
ag26
aS'variable_28'
p770
aS'-='
p771
aS'variable_31'
p772
ag26
aS'if'
p773
ag6
aS'variable_8'
p774
aS'=='
p775
ag87
ag10
aS'variable_29'
p776
aS'->'
p777
aS'variable_20'
p778
ag15
aS'func_11'
p779
ag6
aS'variable_21'
p780
ag117
aS'variable_34'
p781
ag117
aS'variable_35'
p782
ag10
ag26
aS'variable_29'
p783
aS'->'
p784
aS'variable_20'
p785
ag117
ag15
aS'func_12'
p786
ag6
aS'variable_36'
p787
ag10
ag26
aS'func_13'
p788
ag6
ag77
aS'variable_2'
p789
aS'->'
p790
aS'variable_17'
p791
ag18
aS'variable_16'
p792
ag18
aS'variable_14'
p793
ag18
aS'variable_18'
p794
ag10
ag26
aa(lp795
S'static'
p796
aS'int'
p797
aS'func_0'
p798
ag6
aS'unsigned'
p799
aS'long'
p800
aS'variable_0'
p801
ag10
aS'struct'
p802
aS'variable_1'
p803
ag13
aS'variable_2'
p804
ag15
aS'func_1'
p805
ag6
aS'variable_3'
p806
ag18
aS'struct'
p807
aS'variable_1'
p808
ag18
aS'variable_3'
p809
ag10
aS'struct'
p810
aS'variable_4'
p811
ag13
aS'variable_5'
p812
ag15
aS'variable_6'
p813
ag26
aS'int'
p814
aS'variable_7'
p815
ag18
aS'variable_8'
p816
ag18
aS'variable_9'
p817
ag18
aS'variable_10'
p818
ag18
aS'variable_11'
p819
ag26
aS'variable_9'
p820
ag15
aS'variable_5'
p821
aS'->'
p822
aS'variable_12'
p823
ag52
aS'variable_2'
p824
aS'->'
p825
aS'variable_3'
p826
ag56
aS'variable_10'
p827
ag26
aS'variable_11'
p828
ag15
aS'variable_5'
p829
aS'->'
p830
aS'variable_13'
p831
ag52
aS'variable_9'
p832
ag26
aS'for'
p833
ag6
aS'variable_14'
p834
ag15
ag87
ag26
aS'variable_14'
p835
ag89
aS'variable_9'
p836
ag26
aS'variable_14'
p837
aS'++'
p838
ag10
aS'variable_15'
p839
ag15
aS'func_2'
p840
ag6
aS'variable_11'
p841
ag96
aS'variable_8'
p842
ag18
aS'variable_16'
p843
ag10
ag96
ag99
ag26
aS'variable_17'
p844
ag15
aS'func_3'
p845
ag6
ag77
aS'variable_2'
p846
aS'->'
p847
aS'variable_18'
p848
ag18
aS'variable_15'
p849
ag96
aS'variable_19'
p850
ag18
ag77
aS'variable_20'
p851
ag10
ag26
aS'if'
p852
ag6
aS'variable_17'
p853
aS'=='
p854
aS'NULL'
p855
ag10
aS'variable_17'
p856
aS'->'
p857
aS'variable_21'
p858
ag15
aS'func_4'
p859
ag6
aS'variable_22'
p860
ag117
aS'variable_23'
p861
ag10
ag26
aS'variable_17'
p862
aS'->'
p863
aS'variable_21'
p864
ag117
ag15
aS'func_5'
p865
ag6
aS'variable_24'
p866
ag10
ag26
aS'variable_17'
p867
aS'->'
p868
aS'variable_25'
p869
ag15
aS'func_6'
p870
ag6
aS'variable_10'
p871
ag10
ag26
aS'variable_17'
p872
aS'->'
p873
aS'variable_26'
p874
ag15
aS'variable_17'
p875
aS'->'
p876
aS'variable_25'
p877
ag26
aS'variable_17'
p878
aS'->'
p879
aS'variable_27'
p880
ag15
ag87
ag26
aS'variable_17'
p881
aS'->'
p882
aS'variable_28'
p883
ag15
aS'func_7'
p884
ag6
aS'variable_20'
p885
ag96
ag6
aS'variable_15'
p886
ag13
aS'sizeof'
p887
ag6
ag13
aS'variable_17'
p888
ag10
ag10
ag10
ag26
aS'variable_29'
p889
ag15
aS'variable_11'
p890
ag26
aS'variable_30'
p891
ag15
aS'variable_17'
p892
ag26
aS'for'
p893
ag6
aS'variable_31'
p894
ag15
ag99
ag26
aS'variable_31'
p895
ag89
aS'variable_15'
p896
ag26
aS'variable_31'
p897
aS'++'
p898
ag10
aS'variable_30'
p899
aS'++'
p900
ag26
aS'variable_30'
p901
aS'->'
p902
aS'variable_21'
p903
ag15
aS'func_8'
p904
ag6
aS'variable_22'
p905
ag117
aS'variable_23'
p906
ag10
ag26
aS'if'
p907
ag6
aS'variable_8'
p908
ag96
aS'variable_29'
p909
ag89
aS'variable_16'
p910
ag10
aS'variable_32'
p911
ag15
aS'variable_29'
p912
ag26
aS'variable_32'
p913
ag15
aS'variable_16'
p914
ag179
aS'variable_8'
p915
ag26
aS'variable_30'
p916
aS'->'
p917
aS'variable_25'
p918
ag15
aS'func_9'
p919
ag6
aS'variable_32'
p920
ag10
ag26
aS'variable_30'
p921
aS'->'
p922
aS'variable_26'
p923
ag15
aS'variable_30'
p924
aS'->'
p925
aS'variable_25'
p926
ag26
aS'variable_30'
p927
aS'->'
p928
aS'variable_27'
p929
ag15
ag87
ag26
aS'variable_30'
p930
aS'->'
p931
aS'variable_28'
p932
ag15
aS'func_10'
p933
ag6
aS'variable_33'
p934
ag96
aS'variable_8'
p935
ag10
ag26
aS'variable_8'
p936
ag15
ag6
aS'variable_8'
p937
ag96
aS'variable_32'
p938
ag10
ag77
ag78
aS'variable_34'
p939
ag26
aS'variable_29'
p940
aS'-='
p941
aS'variable_32'
p942
ag26
aS'if'
p943
ag6
aS'variable_8'
p944
aS'=='
p945
ag87
ag10
aS'variable_30'
p946
aS'->'
p947
aS'variable_21'
p948
ag15
aS'func_11'
p949
ag6
aS'variable_22'
p950
ag117
aS'variable_35'
p951
ag117
aS'variable_36'
p952
ag10
ag26
aS'if'
p953
ag6
aS'variable_5'
p954
aS'->'
p955
aS'variable_37'
p956
aS'&&'
p957
aS'variable_14'
p958
aS'=='
p959
aS'variable_9'
p960
ag179
ag99
ag10
aS'variable_30'
p961
aS'->'
p962
aS'variable_21'
p963
ag117
ag15
aS'func_12'
p964
ag6
aS'variable_38'
p965
ag10
ag26
aS'func_13'
p966
ag6
ag77
aS'variable_2'
p967
aS'->'
p968
aS'variable_18'
p969
ag18
aS'variable_17'
p970
ag18
aS'variable_15'
p971
ag18
aS'variable_19'
p972
ag10
ag26
aaa(lp973
I0
aI0
aI0
aI0
aI0
aa(lp974
I351
aI244
aI162
aI61
aI53
aa(lp975
(lp976
S'main'
p977
aa(lp978
g977
aa(lp979
g977
aa(lp980
g977
aa(lp981
g977
aaa(lp982
S'92 /home/SySeVR/data/CVE_2009_4138_PATCHED_ohci_queue_iso_receive_packet_per_buffer.c pd -> data_address = cpu_to_le32 ( page_bus + offset ) 60'
p983
aS'94 /home/SySeVR/data/CVE_2009_4138_PATCHED_ohci_queue_iso_receive_packet_per_buffer.c d -> data_address = cpu_to_le32 ( d_bus + ( z * sizeof ( * d ) ) ) 42'
p984
aS'95 /home/SySeVR/data/CVE_2009_4138_PATCHED_ohci_queue_iso_receive_packet_per_buffer.c d = context_get_descriptors ( & ctx -> context , z + header_z , & d_bus ) 30'
p985
aS'97 /home/SySeVR/data/CVE_2009_4138_PATCHED_ohci_queue_iso_receive_packet_per_buffer.c payload_per_buffer = p -> payload_length / packet_count 25'
p986
aS'98 /home/SySeVR/data/CVE_2009_4138_PATCHED_ohci_queue_iso_receive_packet_per_buffer.c packet_count = p -> header_length / ctx -> base . header_size 18'
p987
aa.