(lp0
(lp1
(lp2
S'func_0'
p3
aS'('
p4
aS'register'
p5
aS'struct'
p6
aS'variable_0'
p7
aS'*'
p8
aS'variable_1'
p9
aS','
p10
aS'int'
p11
aS'variable_2'
p12
aS')'
p13
aS'variable_3'
p14
ag8
aS'variable_4'
p15
aS'='
p16
aS'variable_1'
p17
aS'->'
p18
aS'variable_4'
p19
aS';'
p20
aS'register'
p21
aS'struct'
p22
aS'variable_5'
p23
ag8
aS'register'
p24
aS'struct'
p25
aS'variable_6'
p26
ag8
aS'variable_7'
p27
ag20
aS'int'
p28
aS'variable_8'
p29
ag20
aS'struct'
p30
aS'variable_9'
p31
ag8
aS'variable_10'
p32
ag20
aS'if'
p33
ag4
aS'variable_2'
p34
aS'>'
p35
aS'sizeof'
p36
ag4
aS'struct'
p37
aS'variable_5'
p38
ag13
ag13
aS'variable_2'
p39
ag16
aS'sizeof'
p40
ag4
aS'struct'
p41
aS'variable_5'
p42
ag13
ag20
aS'variable_5'
p43
ag16
aS'func_1'
p44
ag4
aS'variable_1'
p45
ag10
aS'struct'
p46
aS'ip'
p47
ag8
ag13
aS'variable_7'
p48
ag16
ag4
aS'struct'
p49
aS'udphdr'
p50
ag8
ag13
ag4
ag4
aS'variable_11'
p51
ag13
aS'variable_5'
p52
aS'+'
p53
aS'variable_2'
p54
ag13
ag20
aS'variable_8'
p55
ag16
aS'func_2'
p56
ag4
ag4
aS'variable_12'
p57
ag13
aS'variable_7'
p58
aS'->'
p59
aS'variable_13'
p60
ag13
ag20
aS'if'
p61
ag4
aS'variable_5'
p62
aS'->'
p63
aS'variable_14'
p64
aS'!='
p65
aS'variable_8'
p66
ag13
aS'if'
p67
ag4
aS'variable_8'
p68
ag35
aS'variable_5'
p69
aS'->'
p70
aS'variable_14'
p71
ag13
aS'variable_5'
p72
aS'->'
p73
aS'variable_14'
p74
ag16
aS'variable_8'
p75
ag20
aS'if'
p76
ag4
aS'variable_7'
p77
aS'->'
p78
aS'variable_15'
p79
ag13
ag4
ag4
aS'struct'
p80
aS'ipovly'
p81
ag8
ag13
aS'variable_5'
p82
ag13
aS'->'
p83
aS'variable_16'
p84
ag16
aS'0'
p85
ag20
ag4
ag4
aS'struct'
p86
aS'ipovly'
p87
ag8
ag13
aS'variable_5'
p88
ag13
aS'->'
p89
aS'variable_17'
p90
ag16
aS'variable_7'
p91
aS'->'
p92
aS'variable_13'
p93
ag20
aS'if'
p94
ag4
aS'func_3'
p95
ag4
aS'variable_1'
p96
ag10
aS'variable_8'
p97
ag53
aS'sizeof'
p98
ag4
aS'struct'
p99
aS'variable_5'
p100
ag13
ag13
ag13
aS'if'
p101
ag4
aS'func_4'
p102
ag4
aS'variable_7'
p103
aS'->'
p104
aS'variable_18'
p105
ag13
aS'=='
p106
aS'variable_19'
p107
ag13
aS'if'
p108
ag4
aS'variable_4'
p109
aS'->'
p110
aS'variable_20'
p111
ag13
aS'if'
p112
ag4
aS'func_5'
p113
ag4
aS'variable_7'
p114
aS'->'
p115
aS'variable_18'
p116
ag13
aS'=='
p117
aS'variable_21'
p118
ag13
aS'variable_10'
p119
ag16
aS'variable_4'
p120
aS'->'
p121
aS'variable_22'
p122
ag20
aS'if'
p123
ag4
aS'variable_10'
p124
aS'->'
p125
aS'variable_23'
p126
aS'!='
p127
aS'variable_7'
p128
aS'->'
p129
aS'variable_24'
p130
aS'||'
p131
aS'variable_10'
p132
aS'->'
p133
aS'variable_25'
p134
aS'.'
p135
aS'variable_26'
p136
aS'!='
p137
aS'variable_5'
p138
aS'->'
p139
aS'variable_27'
p140
ag135
aS'variable_26'
p141
ag13
aS'struct'
p142
aS'variable_9'
p143
ag8
aS'variable_28'
p144
ag20
aS'for'
p145
ag4
aS'variable_28'
p146
ag16
aS'variable_4'
p147
aS'->'
p148
aS'variable_29'
p149
ag135
aS'variable_30'
p150
ag20
aS'variable_28'
p151
aS'!='
p152
aS'variable_28'
p153
ag16
aS'variable_28'
p154
aS'->'
p155
aS'variable_30'
p156
ag13
aS'if'
p157
ag4
aS'variable_28'
p158
aS'->'
p159
aS'variable_23'
p160
aS'=='
p161
aS'variable_7'
p162
aS'->'
p163
aS'variable_24'
p164
aS'&&'
p165
aS'variable_28'
p166
aS'->'
p167
aS'variable_25'
p168
ag135
aS'variable_26'
p169
aS'=='
p170
aS'variable_5'
p171
aS'->'
p172
aS'variable_27'
p173
ag135
aS'variable_26'
p174
ag13
aS'variable_10'
p175
ag16
aS'variable_28'
p176
ag20
aS'if'
p177
ag4
aS'variable_28'
p178
aS'=='
p179
aS'&'
p180
aS'variable_4'
p181
aS'->'
p182
aS'variable_29'
p183
ag13
aS'variable_10'
p184
ag16
aS'NULL'
p185
ag20
aS'variable_4'
p186
aS'->'
p187
aS'variable_22'
p188
ag16
aS'variable_10'
p189
ag20
aS'if'
p190
ag4
aS'variable_10'
p191
aS'=='
p192
aS'NULL'
p193
ag13
aS'variable_10'
p194
ag16
aS'func_6'
p195
ag4
aS'variable_4'
p196
ag13
ag20
aS'if'
p197
ag4
aS'!'
p198
aS'variable_10'
p199
ag13
aS'if'
p200
ag4
aS'func_7'
p201
ag4
aS'variable_10'
p202
ag13
aS'=='
p203
aS'-'
p204
aS'1'
p205
ag13
aS'variable_10'
p206
aS'->'
p207
aS'variable_25'
p208
ag16
aS'variable_5'
p209
aS'->'
p210
aS'variable_27'
p211
ag20
aS'variable_10'
p212
aS'->'
p213
aS'variable_23'
p214
ag16
aS'variable_7'
p215
aS'->'
p216
aS'variable_24'
p217
ag20
aS'if'
p218
ag4
ag4
aS'variable_10'
p219
aS'->'
p220
aS'variable_31'
p221
ag16
aS'func_8'
p222
ag4
aS'variable_10'
p223
ag13
ag13
aS'=='
p224
ag85
ag13
aS'variable_10'
p225
aS'->'
p226
aS'variable_31'
p227
ag16
aS'variable_5'
p228
aS'->'
p229
aS'variable_32'
p230
ag20
aS'variable_10'
p231
aS'->'
p232
aS'variable_33'
p233
ag16
aS'variable_5'
p234
aS'->'
p235
aS'variable_34'
p236
ag20
aS'variable_10'
p237
aS'->'
p238
aS'variable_35'
p239
ag16
aS'variable_7'
p240
aS'->'
p241
aS'variable_18'
p242
ag20
aS'variable_2'
p243
aS'+='
p244
aS'sizeof'
p245
ag4
aS'struct'
p246
aS'variable_6'
p247
ag13
ag20
aS'variable_1'
p248
aS'->'
p249
aS'variable_36'
p250
aS'-='
p251
aS'variable_2'
p252
ag20
aS'variable_1'
p253
aS'->'
p254
aS'variable_37'
p255
aS'+='
p256
aS'variable_2'
p257
ag20
aS'if'
p258
ag4
aS'func_9'
p259
ag4
aS'variable_10'
p260
ag10
aS'variable_1'
p261
ag13
aS'=='
p262
ag204
ag205
ag13
aS'variable_1'
p263
aS'->'
p264
aS'variable_36'
p265
aS'+='
p266
aS'variable_2'
p267
ag20
aS'variable_1'
p268
aS'->'
p269
aS'variable_37'
p270
aS'-='
p271
aS'variable_2'
p272
ag20
aS'func_10'
p273
ag4
aS'variable_1'
p274
ag10
aS'variable_38'
p275
ag10
aS'variable_39'
p276
ag10
ag85
ag10
aS'strerror'
p277
ag4
aS'variable_40'
p278
ag13
ag13
ag20
aa(lp279
S'func_0'
p280
ag4
aS'register'
p281
aS'struct'
p282
aS'variable_0'
p283
ag8
aS'variable_1'
p284
ag10
aS'int'
p285
aS'variable_2'
p286
ag13
aS'variable_3'
p287
ag8
aS'variable_4'
p288
ag16
aS'variable_1'
p289
aS'->'
p290
aS'variable_4'
p291
ag20
aS'register'
p292
aS'struct'
p293
aS'variable_5'
p294
ag8
aS'register'
p295
aS'struct'
p296
aS'variable_6'
p297
ag8
aS'variable_7'
p298
ag20
aS'int'
p299
aS'variable_8'
p300
ag20
aS'struct'
p301
aS'variable_9'
p302
ag8
aS'variable_10'
p303
ag20
aS'if'
p304
ag4
aS'variable_2'
p305
ag35
aS'sizeof'
p306
ag4
aS'struct'
p307
aS'variable_5'
p308
ag13
ag13
aS'variable_2'
p309
ag16
aS'sizeof'
p310
ag4
aS'struct'
p311
aS'variable_5'
p312
ag13
ag20
aS'variable_5'
p313
ag16
aS'func_1'
p314
ag4
aS'variable_1'
p315
ag10
aS'struct'
p316
aS'ip'
p317
ag8
ag13
aS'variable_7'
p318
ag16
ag4
aS'struct'
p319
aS'udphdr'
p320
ag8
ag13
ag4
ag4
aS'variable_11'
p321
ag13
aS'variable_5'
p322
ag53
aS'variable_2'
p323
ag13
ag20
aS'variable_8'
p324
ag16
aS'func_2'
p325
ag4
ag4
aS'variable_12'
p326
ag13
aS'variable_7'
p327
aS'->'
p328
aS'variable_13'
p329
ag13
ag20
aS'if'
p330
ag4
aS'variable_5'
p331
aS'->'
p332
aS'variable_14'
p333
aS'!='
p334
aS'variable_8'
p335
ag13
aS'if'
p336
ag4
aS'variable_8'
p337
ag35
aS'variable_5'
p338
aS'->'
p339
aS'variable_14'
p340
ag13
aS'variable_5'
p341
aS'->'
p342
aS'variable_14'
p343
ag16
aS'variable_8'
p344
ag20
aS'if'
p345
ag4
aS'variable_7'
p346
aS'->'
p347
aS'variable_15'
p348
ag13
ag4
ag4
aS'struct'
p349
aS'ipovly'
p350
ag8
ag13
aS'variable_5'
p351
ag13
aS'->'
p352
aS'variable_16'
p353
ag16
ag85
ag20
ag4
ag4
aS'struct'
p354
aS'ipovly'
p355
ag8
ag13
aS'variable_5'
p356
ag13
aS'->'
p357
aS'variable_17'
p358
ag16
aS'variable_7'
p359
aS'->'
p360
aS'variable_13'
p361
ag20
aS'if'
p362
ag4
aS'func_3'
p363
ag4
aS'variable_1'
p364
ag10
aS'variable_8'
p365
ag53
aS'sizeof'
p366
ag4
aS'struct'
p367
aS'variable_5'
p368
ag13
ag13
ag13
aS'if'
p369
ag4
aS'func_4'
p370
ag4
aS'variable_7'
p371
aS'->'
p372
aS'variable_18'
p373
ag13
aS'=='
p374
aS'variable_19'
p375
ag13
aS'if'
p376
ag4
aS'variable_4'
p377
aS'->'
p378
aS'variable_20'
p379
ag13
aS'if'
p380
ag4
aS'func_5'
p381
ag4
aS'variable_7'
p382
aS'->'
p383
aS'variable_18'
p384
ag13
aS'=='
p385
aS'variable_21'
p386
ag13
aS'variable_10'
p387
ag16
aS'variable_4'
p388
aS'->'
p389
aS'variable_22'
p390
ag20
aS'if'
p391
ag4
aS'variable_10'
p392
aS'->'
p393
aS'variable_23'
p394
aS'!='
p395
aS'variable_7'
p396
aS'->'
p397
aS'variable_24'
p398
aS'||'
p399
aS'variable_10'
p400
aS'->'
p401
aS'variable_25'
p402
ag135
aS'variable_26'
p403
aS'!='
p404
aS'variable_5'
p405
aS'->'
p406
aS'variable_27'
p407
ag135
aS'variable_26'
p408
ag13
aS'struct'
p409
aS'variable_9'
p410
ag8
aS'variable_28'
p411
ag20
aS'for'
p412
ag4
aS'variable_28'
p413
ag16
aS'variable_4'
p414
aS'->'
p415
aS'variable_29'
p416
ag135
aS'variable_30'
p417
ag20
aS'variable_28'
p418
aS'!='
p419
aS'variable_28'
p420
ag16
aS'variable_28'
p421
aS'->'
p422
aS'variable_30'
p423
ag13
aS'if'
p424
ag4
aS'variable_28'
p425
aS'->'
p426
aS'variable_23'
p427
aS'=='
p428
aS'variable_7'
p429
aS'->'
p430
aS'variable_24'
p431
aS'&&'
p432
aS'variable_28'
p433
aS'->'
p434
aS'variable_25'
p435
ag135
aS'variable_26'
p436
aS'=='
p437
aS'variable_5'
p438
aS'->'
p439
aS'variable_27'
p440
ag135
aS'variable_26'
p441
ag13
aS'variable_10'
p442
ag16
aS'variable_28'
p443
ag20
aS'if'
p444
ag4
aS'variable_28'
p445
aS'=='
p446
ag180
aS'variable_4'
p447
aS'->'
p448
aS'variable_29'
p449
ag13
aS'variable_10'
p450
ag16
aS'NULL'
p451
ag20
aS'variable_4'
p452
aS'->'
p453
aS'variable_22'
p454
ag16
aS'variable_10'
p455
ag20
aS'if'
p456
ag4
aS'variable_10'
p457
aS'=='
p458
aS'NULL'
p459
ag13
aS'variable_10'
p460
ag16
aS'func_6'
p461
ag4
aS'variable_4'
p462
ag13
ag20
aS'if'
p463
ag4
ag198
aS'variable_10'
p464
ag13
aS'if'
p465
ag4
aS'func_7'
p466
ag4
aS'variable_10'
p467
ag13
aS'=='
p468
ag204
ag205
ag13
aS'variable_10'
p469
aS'->'
p470
aS'variable_25'
p471
ag16
aS'variable_5'
p472
aS'->'
p473
aS'variable_27'
p474
ag20
aS'variable_10'
p475
aS'->'
p476
aS'variable_23'
p477
ag16
aS'variable_7'
p478
aS'->'
p479
aS'variable_24'
p480
ag20
aS'if'
p481
ag4
ag4
aS'variable_10'
p482
aS'->'
p483
aS'variable_31'
p484
ag16
aS'func_8'
p485
ag4
aS'variable_10'
p486
ag13
ag13
aS'=='
p487
ag85
ag13
aS'variable_10'
p488
aS'->'
p489
aS'variable_31'
p490
ag16
aS'variable_5'
p491
aS'->'
p492
aS'variable_32'
p493
ag20
aS'variable_10'
p494
aS'->'
p495
aS'variable_33'
p496
ag16
aS'variable_5'
p497
aS'->'
p498
aS'variable_34'
p499
ag20
aS'variable_10'
p500
aS'->'
p501
aS'variable_35'
p502
ag16
aS'variable_7'
p503
aS'->'
p504
aS'variable_18'
p505
ag20
aS'variable_2'
p506
aS'+='
p507
aS'sizeof'
p508
ag4
aS'struct'
p509
aS'variable_6'
p510
ag13
ag20
aS'variable_1'
p511
aS'->'
p512
aS'variable_36'
p513
aS'-='
p514
aS'variable_2'
p515
ag20
aS'variable_1'
p516
aS'->'
p517
aS'variable_37'
p518
aS'+='
p519
aS'variable_2'
p520
ag20
aS'if'
p521
ag4
aS'func_9'
p522
ag4
aS'variable_10'
p523
ag10
aS'variable_1'
p524
ag13
aS'=='
p525
ag204
ag205
ag13
aS'func_10'
p526
ag4
ag4
aS'variable_38'
p527
ag10
aS'"'
p528
aS'udp'
p529
aS'tx'
p530
aS'errno'
p531
ag16
aS'%'
p532
aS'd'
p533
ag204
ag532
aS's'
p534
aS'\\'
p535
aS'n'
p536
ag528
ag10
aS'variable_39'
p537
ag10
aS'strerror'
p538
ag4
aS'variable_39'
p539
ag13
ag13
ag13
ag20
aa(lp540
S'func_0'
p541
ag4
aS'register'
p542
aS'struct'
p543
aS'variable_0'
p544
ag8
aS'variable_1'
p545
ag10
aS'int'
p546
aS'variable_2'
p547
ag13
aS'variable_3'
p548
ag8
aS'variable_4'
p549
ag16
aS'variable_1'
p550
aS'->'
p551
aS'variable_4'
p552
ag20
aS'register'
p553
aS'struct'
p554
aS'variable_5'
p555
ag8
aS'register'
p556
aS'struct'
p557
aS'variable_6'
p558
ag8
aS'variable_7'
p559
ag20
aS'int'
p560
aS'variable_8'
p561
ag20
aS'struct'
p562
aS'variable_9'
p563
ag8
aS'variable_10'
p564
ag20
aS'if'
p565
ag4
aS'variable_2'
p566
ag35
aS'sizeof'
p567
ag4
aS'struct'
p568
aS'variable_5'
p569
ag13
ag13
aS'variable_2'
p570
ag16
aS'sizeof'
p571
ag4
aS'struct'
p572
aS'variable_5'
p573
ag13
ag20
aS'variable_5'
p574
ag16
aS'func_1'
p575
ag4
aS'variable_1'
p576
ag10
aS'struct'
p577
aS'ip'
p578
ag8
ag13
aS'variable_7'
p579
ag16
ag4
aS'struct'
p580
aS'udphdr'
p581
ag8
ag13
ag4
ag4
aS'variable_11'
p582
ag13
aS'variable_5'
p583
ag53
aS'variable_2'
p584
ag13
ag20
aS'variable_8'
p585
ag16
aS'func_2'
p586
ag4
ag4
aS'variable_12'
p587
ag13
aS'variable_7'
p588
aS'->'
p589
aS'variable_13'
p590
ag13
ag20
aS'if'
p591
ag4
aS'variable_5'
p592
aS'->'
p593
aS'variable_14'
p594
aS'!='
p595
aS'variable_8'
p596
ag13
aS'if'
p597
ag4
aS'variable_8'
p598
ag35
aS'variable_5'
p599
aS'->'
p600
aS'variable_14'
p601
ag13
aS'variable_5'
p602
aS'->'
p603
aS'variable_14'
p604
ag16
aS'variable_8'
p605
ag20
aS'if'
p606
ag4
aS'variable_7'
p607
aS'->'
p608
aS'variable_15'
p609
ag13
ag4
ag4
aS'struct'
p610
aS'ipovly'
p611
ag8
ag13
aS'variable_5'
p612
ag13
aS'->'
p613
aS'variable_16'
p614
ag16
ag85
ag20
ag4
ag4
aS'struct'
p615
aS'ipovly'
p616
ag8
ag13
aS'variable_5'
p617
ag13
aS'->'
p618
aS'variable_17'
p619
ag16
aS'variable_7'
p620
aS'->'
p621
aS'variable_13'
p622
ag20
aS'if'
p623
ag4
aS'func_3'
p624
ag4
aS'variable_1'
p625
ag10
aS'variable_8'
p626
ag53
aS'sizeof'
p627
ag4
aS'struct'
p628
aS'variable_5'
p629
ag13
ag13
ag13
aS'if'
p630
ag4
aS'func_4'
p631
ag4
aS'variable_7'
p632
aS'->'
p633
aS'variable_18'
p634
ag13
aS'=='
p635
aS'variable_19'
p636
ag13
aS'if'
p637
ag4
aS'variable_4'
p638
aS'->'
p639
aS'variable_20'
p640
ag13
aS'if'
p641
ag4
aS'func_5'
p642
ag4
aS'variable_7'
p643
aS'->'
p644
aS'variable_18'
p645
ag13
aS'=='
p646
aS'variable_21'
p647
ag13
aS'variable_10'
p648
ag16
aS'variable_4'
p649
aS'->'
p650
aS'variable_22'
p651
ag20
aS'if'
p652
ag4
aS'variable_10'
p653
aS'->'
p654
aS'variable_23'
p655
aS'!='
p656
aS'variable_7'
p657
aS'->'
p658
aS'variable_24'
p659
aS'||'
p660
aS'variable_10'
p661
aS'->'
p662
aS'variable_25'
p663
ag135
aS'variable_26'
p664
aS'!='
p665
aS'variable_5'
p666
aS'->'
p667
aS'variable_27'
p668
ag135
aS'variable_26'
p669
ag13
aS'struct'
p670
aS'variable_9'
p671
ag8
aS'variable_28'
p672
ag20
aS'for'
p673
ag4
aS'variable_28'
p674
ag16
aS'variable_4'
p675
aS'->'
p676
aS'variable_29'
p677
ag135
aS'variable_30'
p678
ag20
aS'variable_28'
p679
aS'!='
p680
aS'variable_28'
p681
ag16
aS'variable_28'
p682
aS'->'
p683
aS'variable_30'
p684
ag13
aS'if'
p685
ag4
aS'variable_28'
p686
aS'->'
p687
aS'variable_23'
p688
aS'=='
p689
aS'variable_7'
p690
aS'->'
p691
aS'variable_24'
p692
aS'&&'
p693
aS'variable_28'
p694
aS'->'
p695
aS'variable_25'
p696
ag135
aS'variable_26'
p697
aS'=='
p698
aS'variable_5'
p699
aS'->'
p700
aS'variable_27'
p701
ag135
aS'variable_26'
p702
ag13
aS'variable_10'
p703
ag16
aS'variable_28'
p704
ag20
aS'if'
p705
ag4
aS'variable_28'
p706
aS'=='
p707
ag180
aS'variable_4'
p708
aS'->'
p709
aS'variable_29'
p710
ag13
aS'variable_10'
p711
ag16
aS'NULL'
p712
ag20
aS'variable_4'
p713
aS'->'
p714
aS'variable_22'
p715
ag16
aS'variable_10'
p716
ag20
aS'if'
p717
ag4
aS'variable_10'
p718
aS'=='
p719
aS'NULL'
p720
ag13
aS'variable_10'
p721
ag16
aS'func_6'
p722
ag4
aS'variable_4'
p723
ag13
ag20
aS'if'
p724
ag4
ag198
aS'variable_10'
p725
ag13
aS'if'
p726
ag4
aS'func_7'
p727
ag4
aS'variable_10'
p728
ag13
aS'=='
p729
ag204
ag205
ag13
aS'func_8'
p730
ag4
ag4
aS'variable_31'
p731
ag10
ag528
aS'udp_attach'
p732
aS'errno'
p733
ag16
ag532
ag533
ag204
ag532
ag534
ag535
ag536
ag528
ag10
aS'variable_32'
p734
ag10
aS'strerror'
p735
ag4
aS'variable_32'
p736
ag13
ag13
ag13
ag20
aaa(lp737
I0
aI0
aI0
aa(lp738
I425
aI424
aI336
aa(lp739
(lp740
S'main'
p741
aa(lp742
g741
aa(lp743
g741
aaa(lp744
S'190 /home/SySeVR/data/CVE_2014_3640_VULN_udp_input.c strerror 158'
p745
aS'191 /home/SySeVR/data/CVE_2014_3640_VULN_udp_input.c strerror 157'
p746
aS'192 /home/SySeVR/data/CVE_2014_3640_VULN_udp_input.c strerror 119'
p747
aa.