(lp0
(lp1
(lp2
S'func_0'
p3
aS'('
p4
aS'register'
p5
aS'struct'
p6
aS'variable_0'
p7
aS'*'
p8
aS'variable_1'
p9
aS','
p10
aS'int'
p11
aS'variable_2'
p12
aS')'
p13
aS'register'
p14
aS'struct'
p15
aS'variable_3'
p16
ag8
aS'register'
p17
aS'struct'
p18
aS'variable_4'
p19
ag8
aS'variable_5'
p20
aS';'
p21
aS'if'
p22
ag4
aS'variable_2'
p23
aS'>'
p24
aS'sizeof'
p25
ag4
aS'struct'
p26
aS'variable_3'
p27
ag13
ag13
aS'variable_2'
p28
aS'='
p29
aS'sizeof'
p30
ag4
aS'struct'
p31
aS'variable_3'
p32
ag13
ag21
aS'variable_3'
p33
ag29
aS'func_1'
p34
ag4
aS'variable_1'
p35
ag10
aS'struct'
p36
aS'ip'
p37
ag8
ag13
aS'variable_5'
p38
ag29
ag4
aS'struct'
p39
aS'udphdr'
p40
ag8
ag13
ag4
ag4
aS'variable_6'
p41
ag13
aS'variable_3'
p42
aS'+'
p43
aS'variable_2'
p44
ag13
ag21
aS'variable_7'
p45
ag29
aS'func_2'
p46
ag4
ag4
aS'variable_8'
p47
ag13
aS'variable_5'
p48
aS'->'
p49
aS'variable_9'
p50
ag13
ag21
aS'if'
p51
ag4
aS'variable_3'
p52
aS'->'
p53
aS'variable_10'
p54
aS'!='
p55
aS'variable_7'
p56
ag13
aS'if'
p57
ag4
aS'variable_7'
p58
ag24
aS'variable_3'
p59
aS'->'
p60
aS'variable_10'
p61
ag13
aS'func_3'
p62
ag4
aS'variable_1'
p63
ag10
aS'variable_7'
p64
aS'-'
p65
aS'variable_3'
p66
aS'->'
p67
aS'variable_10'
p68
ag13
ag21
aS'variable_3'
p69
aS'->'
p70
aS'variable_10'
p71
ag29
aS'variable_7'
p72
ag21
aS'variable_11'
p73
ag29
ag8
aS'variable_3'
p74
ag21
aS'variable_11'
p75
aS'.'
p76
aS'variable_10'
p77
aS'+='
p78
aS'variable_2'
p79
ag21
aS'if'
p80
ag4
aS'variable_5'
p81
aS'->'
p82
aS'variable_12'
p83
ag13
aS'memset'
p84
ag4
aS'&'
p85
ag4
ag4
aS'struct'
p86
aS'ipovly'
p87
ag8
ag13
aS'variable_3'
p88
ag13
aS'->'
p89
aS'variable_13'
p90
ag10
aS'0'
p91
ag10
aS'sizeof'
p92
ag4
aS'struct'
p93
aS'variable_14'
p94
ag13
ag13
ag21
ag4
ag4
aS'struct'
p95
aS'ipovly'
p96
ag8
ag13
aS'variable_3'
p97
ag13
aS'->'
p98
aS'variable_15'
p99
ag29
ag91
ag21
ag4
ag4
aS'struct'
p100
aS'ipovly'
p101
ag8
ag13
aS'variable_3'
p102
ag13
aS'->'
p103
aS'variable_16'
p104
ag29
aS'variable_5'
p105
aS'->'
p106
aS'variable_9'
p107
ag21
aS'if'
p108
ag4
aS'func_4'
p109
ag4
aS'variable_1'
p110
ag10
aS'variable_7'
p111
ag43
aS'sizeof'
p112
ag4
aS'struct'
p113
aS'variable_3'
p114
ag13
ag13
ag13
aS'if'
p115
ag4
aS'func_5'
p116
ag4
aS'variable_5'
p117
aS'->'
p118
aS'variable_17'
p119
ag13
aS'=='
p120
aS'variable_18'
p121
ag13
aS'if'
p122
ag4
aS'func_6'
p123
ag4
aS'variable_5'
p124
aS'->'
p125
aS'variable_17'
p126
ag13
aS'=='
p127
aS'variable_19'
p128
ag13
aS'if'
p129
ag4
aS'variable_20'
p130
aS'->'
p131
aS'variable_21'
p132
aS'!='
p133
aS'variable_5'
p134
aS'->'
p135
aS'variable_22'
p136
aS'||'
p137
aS'variable_20'
p138
aS'->'
p139
aS'variable_23'
p140
ag76
aS'variable_24'
p141
aS'!='
p142
aS'variable_3'
p143
aS'->'
p144
aS'variable_25'
p145
ag76
aS'variable_24'
p146
ag13
aS'if'
p147
ag4
aS'variable_26'
p148
aS'->'
p149
aS'variable_21'
p150
aS'=='
p151
aS'variable_5'
p152
aS'->'
p153
aS'variable_22'
p154
aS'&&'
p155
aS'variable_26'
p156
aS'->'
p157
aS'variable_23'
p158
ag76
aS'variable_24'
p159
aS'=='
p160
aS'variable_3'
p161
aS'->'
p162
aS'variable_25'
p163
ag76
aS'variable_24'
p164
ag13
aS'variable_20'
p165
aS'->'
p166
aS'variable_23'
p167
ag29
aS'variable_3'
p168
aS'->'
p169
aS'variable_25'
p170
ag21
aS'variable_20'
p171
aS'->'
p172
aS'variable_21'
p173
ag29
aS'variable_5'
p174
aS'->'
p175
aS'variable_22'
p176
ag21
aS'if'
p177
ag4
ag4
aS'variable_20'
p178
aS'->'
p179
aS'variable_27'
p180
ag29
aS'func_7'
p181
ag4
aS'variable_20'
p182
ag13
ag13
aS'=='
p183
ag91
ag13
aS'variable_20'
p184
aS'->'
p185
aS'variable_27'
p186
ag29
aS'variable_3'
p187
aS'->'
p188
aS'variable_28'
p189
ag21
aS'variable_20'
p190
aS'->'
p191
aS'variable_29'
p192
ag29
aS'variable_3'
p193
aS'->'
p194
aS'variable_30'
p195
ag21
aS'variable_20'
p196
aS'->'
p197
aS'variable_31'
p198
ag29
aS'variable_5'
p199
aS'->'
p200
aS'variable_17'
p201
ag21
aS'if'
p202
ag4
aS'variable_20'
p203
aS'->'
p204
aS'variable_32'
p205
ag13
aS'func_8'
p206
ag4
aS'variable_20'
p207
ag10
aS'variable_1'
p208
ag13
ag21
aS'if'
p209
ag4
aS'func_9'
p210
ag4
aS'variable_20'
p211
ag10
aS'variable_1'
p212
ag13
aS'=='
p213
ag65
aS'1'
p214
ag13
ag8
aS'variable_3'
p215
ag29
aS'variable_11'
p216
ag21
aS'func_10'
p217
ag4
aS'variable_20'
p218
aS'->'
p219
aS'variable_33'
p220
ag13
ag21
ag8
aS'variable_3'
p221
ag29
aS'variable_11'
p222
ag21
aS'variable_20'
p223
aS'->'
p224
aS'variable_33'
p225
ag29
aS'variable_1'
p226
ag21
aaa(lp227
I0
aa(lp228
I55
aa(lp229
(lp230
S'main'
p231
aaa(lp232
S'620 /home/SySeVR/data/CVE_2014_3640_VULN_udp_input.c uh = ( struct udphdr * ) ( ( caddr_t ) ip + iphlen ) 31'
p233
aa.