(lp0
(lp1
(lp2
S'static'
p3
aS'int'
p4
aS'func_0'
p5
aS'('
p6
aS'const'
p7
aS'long'
p8
aS'variable_0'
p9
aS','
p10
aS'size_t'
p11
aS'*'
p12
aS'variable_1'
p13
aS')'
p14
aS'unsigned'
p15
aS'int'
p16
aS'variable_2'
p17
aS';'
p18
aS'for'
p19
ag6
aS'variable_2'
p20
aS'='
p21
aS'1'
p22
ag18
aS'variable_2'
p23
aS'<'
p24
aS'variable_3'
p25
aS'->'
p26
aS'variable_4'
p27
ag18
aS'++'
p28
aS'variable_2'
p29
ag14
aS'const'
p30
aS'struct'
p31
aS'variable_5'
p32
ag12
aS'variable_6'
p33
ag21
aS'&'
p34
aS'variable_3'
p35
aS'->'
p36
aS'variable_7'
p37
aS'['
p38
aS'variable_2'
p39
aS']'
p40
ag18
aS'if'
p41
ag6
aS'variable_6'
p42
aS'->'
p43
aS'variable_8'
p44
aS'&&'
p45
aS'variable_6'
p46
aS'->'
p47
aS'variable_9'
p48
aS'&&'
p49
ag6
aS'!'
p50
aS'variable_6'
p51
aS'->'
p52
aS'variable_10'
p53
aS'||'
p54
aS'variable_6'
p55
aS'->'
p56
aS'func_1'
p57
ag6
aS'variable_11'
p58
aS'->'
p59
aS'variable_12'
p60
ag10
aS'variable_6'
p61
ag14
ag14
ag14
aS'int'
p62
aS'variable_13'
p63
ag18
aS'size_t'
p64
aS'variable_14'
p65
ag21
aS'variable_6'
p66
aS'->'
p67
aS'variable_4'
p68
ag12
aS'variable_6'
p69
aS'->'
p70
aS'variable_14'
p71
ag18
aS'void'
p72
ag12
aS'variable_15'
p73
ag21
aS'kmalloc'
p74
ag6
aS'variable_14'
p75
ag10
aS'variable_16'
p76
ag14
ag18
aS'if'
p77
ag6
aS'func_2'
p78
ag6
ag50
aS'variable_15'
p79
ag14
ag14
aS'variable_13'
p80
ag21
aS'variable_6'
p81
aS'->'
p82
aS'func_3'
p83
ag6
aS'variable_11'
p84
aS'->'
p85
aS'variable_12'
p86
ag10
aS'variable_6'
p87
ag10
aS'0'
p88
ag10
aS'variable_14'
p89
ag10
aS'variable_15'
p90
ag10
aS'NULL'
p91
ag14
ag18
aS'if'
p92
ag6
aS'func_4'
p93
ag6
aS'variable_13'
p94
ag14
ag14
aS'kfree'
p95
ag6
aS'variable_15'
p96
ag14
ag18
aS'if'
p97
ag6
aS'variable_6'
p98
aS'->'
p99
aS'variable_8'
p100
aS'!='
p101
aS'variable_17'
p102
ag14
aS'func_5'
p103
ag6
ag34
aS'variable_11'
p104
aS'->'
p105
aS'variable_18'
p106
ag38
aS'variable_2'
p107
ag40
ag10
aS'"'
p108
aS'LINUX'
p109
ag108
ag10
aS'variable_6'
p110
aS'->'
p111
aS'variable_8'
p112
ag10
aS'variable_14'
p113
ag10
aS'variable_15'
p114
ag14
ag18
aS'variable_11'
p115
aS'->'
p116
aS'variable_19'
p117
aS'.'
p118
aS'variable_20'
p119
ag21
ag22
ag18
aS'func_6'
p120
ag6
ag34
aS'variable_11'
p121
aS'->'
p122
aS'variable_18'
p123
ag38
aS'variable_2'
p124
ag40
ag10
ag108
aS'CORE'
p125
ag108
ag10
aS'variable_17'
p126
ag10
aS'variable_14'
p127
ag10
aS'variable_15'
p128
ag14
ag18
aaa(lp129
I0
aa(lp130
I88
aa(lp131
(lp132
S'main'
p133
aaa(lp134
S'773 /home/SySeVR/data/CVE_2012_1097_PATCHED_fill_thread_core_info.c size_t size = regset -> n * regset -> size ; 35'
p135
aa.