(lp0
(lp1
(lp2
S'variable_0'
p3
aS':'
p4
ag4
aS'func_0'
p5
aS'('
p6
aS'const'
p7
aS'variable_1'
p8
aS'<'
p9
aS'const'
p10
aS'Image'
p11
aS'*'
p12
aS'>'
p13
aS'&'
p14
aS'const'
p15
aS'Image'
p16
ag12
aS'const'
p17
aS'variable_2'
p18
ag14
aS'variable_3'
p19
aS')'
p20
aS'PRInt32'
p21
aS'variable_4'
p22
aS','
p23
aS'variable_5'
p24
aS';'
p25
aS'if'
p26
ag6
aS'variable_4'
p27
ag9
aS'0'
p28
aS'||'
p29
aS'variable_5'
p30
ag9
ag28
ag20
aS'if'
p31
ag6
aS'variable_4'
p32
aS'=='
p33
ag28
aS'&&'
p34
aS'variable_5'
p35
aS'=='
p36
ag28
ag20
aS'PRUint32'
p37
aS'variable_6'
p38
aS'='
p39
aS'variable_7'
p40
aS'->'
p41
aS'variable_8'
p42
aS'->'
p43
aS'func_1'
p44
ag6
ag20
ag25
aS'for'
p45
ag6
aS'PRInt32'
p46
aS'variable_9'
p47
ag39
aS'variable_3'
p48
aS'.'
p49
aS'variable_9'
p50
ag25
aS'variable_9'
p51
ag9
aS'variable_3'
p52
ag49
aS'func_2'
p53
ag6
ag20
ag25
aS'variable_9'
p54
aS'++'
p55
ag20
aS'for'
p56
ag6
aS'PRInt32'
p57
aS'variable_10'
p58
ag39
aS'variable_3'
p59
ag49
aS'variable_10'
p60
ag25
aS'variable_10'
p61
ag9
aS'variable_3'
p62
ag49
aS'func_3'
p63
ag6
ag20
ag25
aS'variable_10'
p64
aS'++'
p65
ag20
aS'PRUint32'
p66
aS'variable_11'
p67
ag39
aS'variable_9'
p68
ag12
aS'variable_6'
p69
aS'+'
p70
aS'4'
p71
ag12
aS'variable_10'
p72
ag25
aS'variable_12'
p73
aS'['
p74
aS'variable_13'
p75
aS']'
p76
ag39
aS'variable_14'
p77
ag74
aS'variable_11'
p78
ag70
aS'variable_13'
p79
ag76
ag25
aS'for'
p80
ag6
aS'PRUint32'
p81
aS'variable_13'
p82
ag39
ag28
ag25
aS'variable_13'
p83
ag9
ag71
ag25
aS'variable_13'
p84
aS'++'
p85
ag20
aS'PRUint8'
p86
aS'variable_15'
p87
ag39
aS'variable_14'
p88
ag74
aS'variable_16'
p89
ag12
aS'variable_6'
p90
ag70
ag71
ag12
aS'variable_17'
p91
ag70
aS'variable_13'
p92
ag76
ag25
aS'if'
p93
ag6
ag6
aS'variable_12'
p94
ag74
aS'variable_13'
p95
ag76
ag13
aS'variable_15'
p96
aS'&&'
p97
aS'variable_18'
p98
aS'=='
p99
aS'variable_19'
p100
ag4
ag4
aS'variable_20'
p101
ag20
aS'||'
p102
ag6
aS'variable_12'
p103
ag74
aS'variable_13'
p104
ag76
ag9
aS'variable_15'
p105
aS'&&'
p106
aS'variable_18'
p107
aS'=='
p108
aS'variable_19'
p109
ag4
ag4
aS'variable_21'
p110
ag20
ag20
aS'variable_12'
p111
ag74
aS'variable_13'
p112
ag76
ag39
aS'variable_15'
p113
ag25
aS'variable_22'
p114
ag74
aS'variable_11'
p115
ag76
ag39
aS'variable_12'
p116
ag74
ag28
ag76
ag25
aS'variable_22'
p117
ag74
aS'variable_11'
p118
ag70
aS'1'
p119
ag76
ag39
aS'variable_12'
p120
ag74
ag119
ag76
ag25
aS'variable_22'
p121
ag74
aS'variable_11'
p122
ag70
aS'2'
p123
ag76
ag39
aS'variable_12'
p124
ag74
ag123
ag76
ag25
aS'variable_22'
p125
ag74
aS'variable_11'
p126
ag70
aS'3'
p127
ag76
ag39
aS'variable_12'
p128
ag74
ag127
ag76
ag25
aa(lp129
S'variable_0'
p130
ag4
ag4
aS'func_0'
p131
ag6
aS'const'
p132
aS'variable_1'
p133
ag9
aS'const'
p134
aS'Image'
p135
ag12
ag13
ag14
aS'const'
p136
aS'Image'
p137
ag12
aS'const'
p138
aS'variable_2'
p139
ag14
aS'variable_3'
p140
ag20
aS'PRInt32'
p141
aS'variable_4'
p142
ag23
aS'variable_5'
p143
ag25
aS'if'
p144
ag6
aS'variable_4'
p145
ag9
ag28
aS'||'
p146
aS'variable_5'
p147
ag9
ag28
ag20
aS'if'
p148
ag6
aS'variable_4'
p149
aS'=='
p150
ag28
aS'&&'
p151
aS'variable_5'
p152
aS'=='
p153
ag28
ag20
aS'for'
p154
ag6
aS'PRInt32'
p155
aS'variable_6'
p156
ag39
aS'variable_3'
p157
ag49
aS'variable_6'
p158
ag25
aS'variable_6'
p159
ag9
aS'variable_3'
p160
ag49
aS'func_1'
p161
ag6
ag20
ag25
aS'variable_6'
p162
aS'++'
p163
ag20
aS'for'
p164
ag6
aS'PRInt32'
p165
aS'variable_7'
p166
ag39
aS'variable_3'
p167
ag49
aS'variable_7'
p168
ag25
aS'variable_7'
p169
ag9
aS'variable_3'
p170
ag49
aS'func_2'
p171
ag6
ag20
ag25
aS'variable_7'
p172
aS'++'
p173
ag20
aS'PRUint32'
p174
aS'variable_8'
p175
ag39
aS'func_3'
p176
ag6
aS'variable_7'
p177
ag70
aS'variable_4'
p178
ag23
aS'variable_9'
p179
aS'->'
p180
aS'func_4'
p181
ag6
ag20
aS'-'
p182
ag119
ag20
ag25
aS'for'
p183
ag6
aS'PRUint32'
p184
aS'variable_10'
p185
ag39
aS'variable_11'
p186
ag25
aS'variable_10'
p187
ag9
ag39
aS'variable_8'
p188
ag25
aS'variable_10'
p189
aS'++'
p190
ag20
aa(lp191
S'variable_0'
p192
ag4
ag4
aS'func_0'
p193
ag6
aS'const'
p194
aS'variable_1'
p195
ag9
aS'const'
p196
aS'Image'
p197
ag12
ag13
ag14
aS'const'
p198
aS'Image'
p199
ag12
aS'const'
p200
aS'variable_2'
p201
ag14
aS'variable_3'
p202
ag20
aS'PRInt32'
p203
aS'variable_4'
p204
ag23
aS'variable_5'
p205
ag25
aS'if'
p206
ag6
aS'variable_4'
p207
ag9
ag28
aS'||'
p208
aS'variable_5'
p209
ag9
ag28
ag20
aS'if'
p210
ag6
aS'variable_4'
p211
aS'=='
p212
ag28
aS'&&'
p213
aS'variable_5'
p214
aS'=='
p215
ag28
ag20
aS'for'
p216
ag6
aS'PRInt32'
p217
aS'variable_6'
p218
ag39
aS'variable_3'
p219
ag49
aS'variable_6'
p220
ag25
aS'variable_6'
p221
ag9
aS'variable_3'
p222
ag49
aS'func_1'
p223
ag6
ag20
ag25
aS'variable_6'
p224
aS'++'
p225
ag20
aS'for'
p226
ag6
aS'PRInt32'
p227
aS'variable_7'
p228
ag39
aS'variable_3'
p229
ag49
aS'variable_7'
p230
ag25
aS'variable_7'
p231
ag9
aS'variable_3'
p232
ag49
aS'func_2'
p233
ag6
ag20
ag25
aS'variable_7'
p234
aS'++'
p235
ag20
aS'PRUint32'
p236
aS'variable_8'
p237
ag39
aS'func_3'
p238
ag6
ag28
ag23
aS'variable_7'
p239
ag182
aS'variable_4'
p240
ag20
ag25
aS'variable_9'
p241
ag74
aS'variable_10'
p242
ag76
ag39
aS'variable_11'
p243
ag74
aS'variable_12'
p244
ag70
aS'variable_10'
p245
ag76
ag25
aS'for'
p246
ag6
aS'PRUint32'
p247
aS'variable_13'
p248
ag39
aS'variable_8'
p249
ag25
aS'variable_13'
p250
ag9
ag39
aS'variable_14'
p251
ag25
aS'variable_13'
p252
aS'++'
p253
ag20
aS'for'
p254
ag6
aS'PRUint32'
p255
aS'variable_10'
p256
ag39
ag28
ag25
aS'variable_10'
p257
ag9
ag71
ag25
aS'variable_10'
p258
aS'++'
p259
ag20
aS'PRUint8'
p260
aS'variable_15'
p261
ag39
aS'variable_11'
p262
ag74
aS'variable_16'
p263
ag12
aS'variable_17'
p264
ag70
ag71
ag12
aS'variable_13'
p265
ag70
aS'variable_10'
p266
ag76
ag25
aS'if'
p267
ag6
ag6
aS'variable_9'
p268
ag74
aS'variable_10'
p269
ag76
ag13
aS'variable_15'
p270
aS'&&'
p271
aS'variable_18'
p272
aS'=='
p273
aS'variable_19'
p274
ag4
ag4
aS'variable_20'
p275
ag20
aS'||'
p276
ag6
aS'variable_9'
p277
ag74
aS'variable_10'
p278
ag76
ag9
aS'variable_15'
p279
aS'&&'
p280
aS'variable_18'
p281
aS'=='
p282
aS'variable_19'
p283
ag4
ag4
aS'variable_21'
p284
ag20
ag20
aS'variable_9'
p285
ag74
aS'variable_10'
p286
ag76
ag39
aS'variable_15'
p287
ag25
aS'variable_22'
p288
ag74
aS'variable_12'
p289
ag76
ag39
aS'variable_9'
p290
ag74
ag28
ag76
ag25
aS'variable_22'
p291
ag74
aS'variable_12'
p292
ag70
ag119
ag76
ag39
aS'variable_9'
p293
ag74
ag119
ag76
ag25
aS'variable_22'
p294
ag74
aS'variable_12'
p295
ag70
ag123
ag76
ag39
aS'variable_9'
p296
ag74
ag123
ag76
ag25
aS'variable_22'
p297
ag74
aS'variable_12'
p298
ag70
ag127
ag76
ag39
aS'variable_9'
p299
ag74
ag127
ag76
ag25
aa(lp300
S'variable_0'
p301
ag4
ag4
aS'func_0'
p302
ag6
aS'const'
p303
aS'variable_1'
p304
ag9
aS'const'
p305
aS'Image'
p306
ag12
ag13
ag14
aS'const'
p307
aS'Image'
p308
ag12
aS'const'
p309
aS'variable_2'
p310
ag14
aS'variable_3'
p311
ag20
aS'PRInt32'
p312
aS'variable_4'
p313
ag23
aS'variable_5'
p314
ag25
aS'if'
p315
ag6
aS'variable_4'
p316
ag9
ag28
aS'||'
p317
aS'variable_5'
p318
ag9
ag28
ag20
aS'if'
p319
ag6
aS'variable_4'
p320
aS'=='
p321
ag28
aS'&&'
p322
aS'variable_5'
p323
aS'=='
p324
ag28
ag20
aS'for'
p325
ag6
aS'PRInt32'
p326
aS'variable_6'
p327
ag39
aS'variable_3'
p328
ag49
aS'variable_6'
p329
ag25
aS'variable_6'
p330
ag9
aS'variable_3'
p331
ag49
aS'func_1'
p332
ag6
ag20
ag25
aS'variable_6'
p333
aS'++'
p334
ag20
aS'PRUint32'
p335
aS'variable_7'
p336
ag39
aS'func_2'
p337
ag6
aS'variable_6'
p338
ag70
aS'variable_5'
p339
ag23
aS'variable_8'
p340
aS'->'
p341
aS'func_3'
p342
ag6
ag20
ag182
ag119
ag20
ag25
aS'for'
p343
ag6
aS'PRUint32'
p344
aS'variable_9'
p345
ag39
aS'variable_10'
p346
ag25
aS'variable_9'
p347
ag9
ag39
aS'variable_7'
p348
ag25
aS'variable_9'
p349
aS'++'
p350
ag20
aa(lp351
S'variable_0'
p352
ag4
ag4
aS'func_0'
p353
ag6
aS'const'
p354
aS'variable_1'
p355
ag9
aS'const'
p356
aS'Image'
p357
ag12
ag13
ag14
aS'const'
p358
aS'Image'
p359
ag12
aS'const'
p360
aS'variable_2'
p361
ag14
aS'variable_3'
p362
ag20
aS'PRInt32'
p363
aS'variable_4'
p364
ag23
aS'variable_5'
p365
ag25
aS'if'
p366
ag6
aS'variable_4'
p367
ag9
ag28
aS'||'
p368
aS'variable_5'
p369
ag9
ag28
ag20
aS'if'
p370
ag6
aS'variable_4'
p371
aS'=='
p372
ag28
aS'&&'
p373
aS'variable_5'
p374
aS'=='
p375
ag28
ag20
aS'for'
p376
ag6
aS'PRInt32'
p377
aS'variable_6'
p378
ag39
aS'variable_3'
p379
ag49
aS'variable_6'
p380
ag25
aS'variable_6'
p381
ag9
aS'variable_3'
p382
ag49
aS'func_1'
p383
ag6
ag20
ag25
aS'variable_6'
p384
aS'++'
p385
ag20
aS'PRUint32'
p386
aS'variable_7'
p387
ag39
aS'func_2'
p388
ag6
ag28
ag23
aS'variable_6'
p389
ag182
aS'variable_5'
p390
ag20
ag25
aS'variable_8'
p391
ag74
aS'variable_9'
p392
ag76
ag39
aS'variable_10'
p393
ag74
aS'variable_11'
p394
ag70
aS'variable_9'
p395
ag76
ag25
aS'for'
p396
ag6
aS'PRUint32'
p397
aS'variable_12'
p398
ag39
aS'variable_7'
p399
ag25
aS'variable_12'
p400
ag9
ag39
aS'variable_13'
p401
ag25
aS'variable_12'
p402
aS'++'
p403
ag20
aS'for'
p404
ag6
aS'PRUint32'
p405
aS'variable_9'
p406
ag39
ag28
ag25
aS'variable_9'
p407
ag9
ag71
ag25
aS'variable_9'
p408
aS'++'
p409
ag20
aS'PRUint8'
p410
aS'variable_14'
p411
ag39
aS'variable_10'
p412
ag74
aS'variable_12'
p413
ag12
aS'variable_15'
p414
ag70
ag71
ag12
aS'variable_16'
p415
ag70
aS'variable_9'
p416
ag76
ag25
aS'if'
p417
ag6
ag6
aS'variable_8'
p418
ag74
aS'variable_9'
p419
ag76
ag13
aS'variable_14'
p420
aS'&&'
p421
aS'variable_17'
p422
aS'=='
p423
aS'variable_18'
p424
ag4
ag4
aS'variable_19'
p425
ag20
aS'||'
p426
ag6
aS'variable_8'
p427
ag74
aS'variable_9'
p428
ag76
ag9
aS'variable_14'
p429
aS'&&'
p430
aS'variable_17'
p431
aS'=='
p432
aS'variable_18'
p433
ag4
ag4
aS'variable_20'
p434
ag20
ag20
aS'variable_8'
p435
ag74
aS'variable_9'
p436
ag76
ag39
aS'variable_14'
p437
ag25
aS'variable_21'
p438
ag74
aS'variable_11'
p439
ag76
ag39
aS'variable_8'
p440
ag74
ag28
ag76
ag25
aS'variable_21'
p441
ag74
aS'variable_11'
p442
ag70
ag119
ag76
ag39
aS'variable_8'
p443
ag74
ag119
ag76
ag25
aS'variable_21'
p444
ag74
aS'variable_11'
p445
ag70
ag123
ag76
ag39
aS'variable_8'
p446
ag74
ag123
ag76
ag25
aS'variable_21'
p447
ag74
aS'variable_11'
p448
ag70
ag127
ag76
ag39
aS'variable_8'
p449
ag74
ag127
ag76
ag25
aaa(lp450
I0
aI0
aI0
aI0
aI0
aa(lp451
I107
aI103
aI97
aI83
aI77
aa(lp452
(lp453
S'main'
p454
aa(lp455
g454
aa(lp456
g454
aa(lp457
g454
aa(lp458
g454
aaa(lp459
S'785 /home/SySeVR/data/CVE_2012_3969_VULN_nsSVGFEMorphologyElement__Filter.c PRUint32 targIndex = y * stride + 4 * x ; 34'
p460
aS'786 /home/SySeVR/data/CVE_2012_3969_VULN_nsSVGFEMorphologyElement__Filter.c PRUint32 endX = NS_MIN ( x + rx , instance -> GetSurfaceWidth ( ) - 1 ) ; 33'
p461
aS'787 /home/SySeVR/data/CVE_2012_3969_VULN_nsSVGFEMorphologyElement__Filter.c PRUint32 startX = NS_MAX ( 0 , x - rx ) ; 32'
p462
aS'788 /home/SySeVR/data/CVE_2012_3969_VULN_nsSVGFEMorphologyElement__Filter.c PRUint32 endY = NS_MIN ( y + ry , instance -> GetSurfaceHeight ( ) - 1 ) ; 30'
p463
aS'789 /home/SySeVR/data/CVE_2012_3969_VULN_nsSVGFEMorphologyElement__Filter.c PRUint32 startY = NS_MAX ( 0 , y - ry ) ; 26'
p464
aa.