(lp0
(lp1
(lp2
S'static'
p3
aS'int'
p4
aS'func_0'
p5
aS'('
p6
aS'struct'
p7
aS'variable_0'
p8
aS'*'
p9
aS'variable_1'
p10
aS','
p11
aS'void'
p12
aS'variable_2'
p13
ag9
aS'variable_3'
p14
aS')'
p15
aS'struct'
p16
aS'variable_4'
p17
ag9
aS'variable_5'
p18
aS';'
p19
aS'struct'
p20
aS'user_aac_srb'
p21
aS'variable_2'
p22
ag9
aS'variable_6'
p23
aS'='
p24
aS'variable_3'
p25
ag19
aS'u32'
p26
aS'variable_7'
p27
ag24
aS'0'
p28
ag19
aS'u32'
p29
aS'variable_8'
p30
ag19
aS'void'
p31
ag9
aS'variable_9'
p32
aS'['
p33
aS'32'
p34
aS']'
p35
ag19
aS'if'
p36
ag6
aS'variable_1'
p37
aS'->'
p38
aS'variable_10'
p39
ag15
aS'if'
p40
ag6
aS'!'
p41
aS'func_1'
p42
ag6
aS'variable_11'
p43
ag15
ag15
aS'if'
p44
ag6
ag41
ag6
aS'variable_5'
p45
ag24
aS'func_2'
p46
ag6
aS'variable_1'
p47
ag15
ag15
ag15
aS'memset'
p48
ag6
aS'variable_9'
p49
ag11
ag28
ag11
aS'sizeof'
p50
ag6
aS'variable_9'
p51
ag15
ag15
ag19
aS'if'
p52
ag6
aS'func_3'
p53
ag6
aS'&'
p54
aS'variable_7'
p55
ag11
ag54
aS'variable_6'
p56
aS'->'
p57
aS'variable_12'
p58
ag11
aS'sizeof'
p59
ag6
aS'variable_13'
p60
ag15
ag15
ag15
aS'if'
p61
ag6
ag6
aS'variable_7'
p62
aS'<'
p63
ag6
aS'sizeof'
p64
ag6
aS'struct'
p65
aS'variable_14'
p66
ag15
aS'-'
p67
aS'sizeof'
p68
ag6
aS'struct'
p69
aS'variable_15'
p70
ag15
ag15
ag15
aS'||'
p71
ag6
aS'variable_7'
p72
aS'>'
p73
ag6
aS'variable_1'
p74
aS'->'
p75
aS'variable_16'
p76
ag67
aS'sizeof'
p77
ag6
aS'struct'
p78
aS'variable_17'
p79
ag15
ag15
ag15
ag15
aS'variable_18'
p80
ag24
aS'kmalloc'
p81
ag6
aS'variable_7'
p82
ag11
aS'variable_19'
p83
ag15
ag19
aS'if'
p84
ag6
ag41
aS'variable_18'
p85
ag15
aS'if'
p86
ag6
aS'func_4'
p87
ag6
aS'variable_18'
p88
ag11
aS'variable_6'
p89
ag11
aS'variable_7'
p90
ag15
ag15
aS'variable_20'
p91
ag24
aS'variable_18'
p92
aS'->'
p93
aS'variable_20'
p94
ag19
aS'switch'
p95
ag6
aS'variable_20'
p96
ag54
ag6
aS'variable_21'
p97
aS'|'
p98
aS'variable_22'
p99
ag15
ag15
aS'variable_8'
p100
ag24
aS'variable_23'
p101
ag19
aS'variable_8'
p102
ag24
aS'variable_24'
p103
ag19
aS'variable_8'
p104
ag24
aS'variable_25'
p105
ag19
aS'variable_8'
p106
ag24
aS'variable_26'
p107
ag19
aS'if'
p108
ag6
aS'variable_18'
p109
aS'->'
p110
aS'variable_27'
p111
aS'.'
p112
aS'variable_12'
p113
ag73
aS'func_5'
p114
ag6
aS'variable_9'
p115
ag15
ag15
aS'variable_28'
p116
ag24
aS'sizeof'
p117
ag6
aS'struct'
p118
aS'variable_29'
p119
ag15
ag67
aS'sizeof'
p120
ag6
aS'struct'
p121
aS'variable_30'
p122
ag15
aS'+'
p123
ag6
ag6
aS'variable_18'
p124
aS'->'
p125
aS'variable_27'
p126
ag112
aS'variable_12'
p127
ag54
aS'0xff'
p128
ag15
ag9
aS'sizeof'
p129
ag6
aS'struct'
p130
aS'variable_30'
p131
ag15
ag15
ag19
aS'variable_31'
p132
ag24
aS'variable_28'
p133
ag123
ag6
aS'variable_18'
p134
aS'->'
p135
aS'variable_27'
p136
ag112
aS'variable_12'
p137
ag54
aS'0xff'
p138
ag15
ag9
ag6
aS'sizeof'
p139
ag6
aS'struct'
p140
aS'variable_32'
p141
ag15
ag67
aS'sizeof'
p142
ag6
aS'struct'
p143
aS'variable_30'
p144
ag15
ag15
ag19
aS'if'
p145
ag6
ag6
aS'variable_28'
p146
aS'!='
p147
aS'variable_7'
p148
ag15
aS'&&'
p149
ag6
aS'variable_31'
p150
aS'!='
p151
aS'variable_7'
p152
ag15
ag15
aS'if'
p153
ag6
ag6
aS'variable_8'
p154
aS'=='
p155
aS'variable_26'
p156
ag15
aS'&&'
p157
aS'variable_18'
p158
aS'->'
p159
aS'variable_27'
p160
ag112
aS'variable_12'
p161
ag15
aS'if'
p162
ag6
aS'variable_1'
p163
aS'->'
p164
aS'variable_33'
p165
ag112
aS'variable_34'
p166
ag54
aS'variable_35'
p167
ag15
aS'struct'
p168
aS'variable_36'
p169
ag9
aS'variable_37'
p170
ag24
ag6
aS'struct'
p171
aS'user_sgmap64'
p172
ag9
ag15
ag54
aS'variable_18'
p173
aS'->'
p174
aS'variable_27'
p175
ag19
aS'if'
p176
ag6
aS'variable_31'
p177
aS'=='
p178
aS'variable_7'
p179
ag15
aS'struct'
p180
aS'variable_38'
p181
ag9
aS'variable_39'
p182
ag19
aS'variable_39'
p183
ag24
aS'kmalloc'
p184
ag6
aS'variable_28'
p185
ag67
aS'sizeof'
p186
ag6
aS'struct'
p187
aS'variable_29'
p188
ag15
ag123
aS'sizeof'
p189
ag6
aS'struct'
p190
aS'variable_40'
p191
ag15
ag11
aS'variable_19'
p192
ag15
ag19
aS'if'
p193
ag6
ag41
aS'variable_39'
p194
ag15
aS'memcpy'
p195
ag6
aS'variable_39'
p196
ag11
aS'variable_37'
p197
ag11
aS'variable_28'
p198
ag67
aS'sizeof'
p199
ag6
aS'struct'
p200
aS'variable_29'
p201
ag15
ag123
aS'sizeof'
p202
ag6
aS'struct'
p203
aS'variable_40'
p204
ag15
ag15
ag19
aS'for'
p205
ag6
aS'variable_41'
p206
ag24
ag28
ag19
aS'variable_41'
p207
ag63
aS'variable_39'
p208
aS'->'
p209
aS'variable_12'
p210
ag19
aS'variable_41'
p211
aS'++'
p212
ag15
aS'if'
p213
ag6
aS'variable_39'
p214
aS'->'
p215
aS'variable_27'
p216
ag33
aS'variable_41'
p217
ag35
ag112
aS'variable_12'
p218
ag73
ag6
ag6
aS'variable_1'
p219
aS'->'
p220
aS'variable_33'
p221
ag112
aS'variable_34'
p222
ag54
aS'variable_42'
p223
ag15
aS'?'
p224
ag6
aS'variable_1'
p225
aS'->'
p226
aS'variable_43'
p227
aS'->'
p228
aS'variable_44'
p229
aS'<<'
p230
aS'9'
p231
ag15
aS':'
p232
aS'65536'
p233
ag15
ag15
aS'kfree'
p234
ag6
aS'variable_39'
p235
ag15
ag19
aS'variable_45'
p236
ag24
aS'kmalloc'
p237
ag6
aS'variable_39'
p238
aS'->'
p239
aS'variable_27'
p240
ag33
aS'variable_41'
p241
ag35
ag112
aS'variable_12'
p242
ag11
aS'variable_19'
p243
ag98
aS'variable_46'
p244
ag15
ag19
aS'if'
p245
ag6
ag41
aS'variable_45'
p246
ag15
aS'func_6'
p247
ag6
ag6
aS'variable_47'
p248
aS'"'
p249
aS'aacraid'
p250
ag232
aS'Could'
p251
aS'not'
p252
aS'allocate'
p253
aS'SG'
p254
aS'buffer'
p255
ag67
aS'size'
p256
ag24
aS'%'
p257
aS'd'
p258
aS'buffer'
p259
aS'number'
p260
ag257
ag258
aS'of'
p261
ag257
ag258
aS'\\'
p262
aS'n'
p263
ag249
aS'variable_39'
p264
aS'->'
p265
aS'variable_27'
p266
ag33
aS'variable_41'
p267
ag35
ag112
aS'variable_12'
p268
ag11
aS'variable_41'
p269
ag11
aS'variable_39'
p270
aS'->'
p271
aS'variable_12'
p272
ag15
ag15
aS'kfree'
p273
ag6
aS'variable_39'
p274
ag15
ag19
aS'variable_48'
p275
ag33
aS'variable_41'
p276
ag35
ag24
ag6
aS'void'
p277
aS'__user'
p278
ag9
ag15
ag6
aS'variable_49'
p279
ag15
aS'variable_39'
p280
aS'->'
p281
aS'variable_27'
p282
ag33
aS'variable_41'
p283
ag35
ag112
aS'variable_50'
p284
ag19
aS'variable_9'
p285
ag33
aS'variable_41'
p286
ag35
ag24
aS'variable_45'
p287
ag19
aS'variable_51'
p288
ag24
aS'variable_41'
p289
ag19
aS'if'
p290
ag6
aS'func_7'
p291
ag6
aS'variable_45'
p292
ag11
aS'variable_48'
p293
ag33
aS'variable_41'
p294
ag35
ag11
aS'variable_37'
p295
aS'->'
p296
aS'variable_27'
p297
ag33
aS'variable_41'
p298
ag35
ag112
aS'variable_12'
p299
ag15
ag15
aS'kfree'
p300
ag6
aS'variable_39'
p301
ag15
ag19
aS'variable_50'
p302
ag24
aS'func_8'
p303
ag6
aS'variable_1'
p304
aS'->'
p305
aS'variable_52'
p306
ag11
aS'variable_45'
p307
ag11
aS'variable_39'
p308
aS'->'
p309
aS'variable_27'
p310
ag33
aS'variable_41'
p311
ag35
ag112
aS'variable_12'
p312
ag11
aS'variable_8'
p313
ag15
ag19
aS'variable_53'
p314
aS'->'
p315
aS'variable_27'
p316
ag33
aS'variable_41'
p317
ag35
ag112
aS'variable_50'
p318
ag33
ag28
ag35
ag24
aS'func_9'
p319
ag6
aS'variable_50'
p320
ag54
aS'0xffffffff'
p321
ag15
ag19
aS'variable_53'
p322
aS'->'
p323
aS'variable_27'
p324
ag33
aS'variable_41'
p325
ag35
ag112
aS'variable_50'
p326
ag33
aS'1'
p327
ag35
ag24
aS'func_10'
p328
ag6
aS'variable_50'
p329
aS'>>'
p330
aS'32'
p331
ag15
ag19
aS'variable_54'
p332
aS'+='
p333
aS'variable_39'
p334
aS'->'
p335
aS'variable_27'
p336
ag33
aS'variable_41'
p337
ag35
ag112
aS'variable_12'
p338
ag19
aS'variable_53'
p339
aS'->'
p340
aS'variable_27'
p341
ag33
aS'variable_41'
p342
ag35
ag112
aS'variable_12'
p343
ag24
aS'func_11'
p344
ag6
aS'variable_39'
p345
aS'->'
p346
aS'variable_27'
p347
ag33
aS'variable_41'
p348
ag35
ag112
aS'variable_12'
p349
ag15
ag19
aS'kfree'
p350
ag6
aS'variable_39'
p351
ag15
ag19
aS'variable_55'
p352
aS'->'
p353
aS'variable_12'
p354
ag24
aS'func_12'
p355
ag6
aS'variable_54'
p356
ag15
ag19
aS'variable_53'
p357
aS'->'
p358
aS'variable_12'
p359
ag24
aS'func_13'
p360
ag6
aS'variable_51'
p361
ag123
ag327
ag15
ag19
aS'func_14'
p362
ag6
ag6
aS'variable_47'
p363
ag249
aS'aacraid'
p364
ag232
aS'Could'
p365
aS'not'
p366
aS'send'
p367
aS'raw'
p368
aS'srb'
p369
aS'fib'
p370
aS'to'
p371
aS'hba'
p372
ag262
ag263
ag249
ag15
ag15
aS'for'
p373
ag6
aS'variable_41'
p374
ag24
ag28
ag19
aS'variable_41'
p375
ag63
ag24
aS'variable_51'
p376
ag19
aS'variable_41'
p377
aS'++'
p378
ag15
aS'variable_54'
p379
ag24
aS'func_15'
p380
ag6
ag6
aS'variable_1'
p381
aS'->'
p382
aS'variable_33'
p383
ag112
aS'variable_34'
p384
ag54
aS'variable_35'
p385
ag15
ag224
ag6
ag6
aS'struct'
p386
aS'sgmap64'
p387
ag9
ag15
ag54
aS'variable_55'
p388
aS'->'
p389
aS'variable_27'
p390
ag15
aS'->'
p391
aS'variable_27'
p392
ag33
aS'variable_41'
p393
ag35
ag112
aS'variable_12'
p394
ag232
aS'variable_55'
p395
aS'->'
p396
aS'variable_27'
p397
ag112
aS'variable_27'
p398
ag33
aS'variable_41'
p399
ag35
ag112
aS'variable_12'
p400
ag15
ag19
aS'if'
p401
ag6
aS'func_16'
p402
ag6
aS'variable_48'
p403
ag33
aS'variable_41'
p404
ag35
ag11
aS'variable_9'
p405
ag33
aS'variable_41'
p406
ag35
ag11
aS'variable_54'
p407
ag15
ag15
aS'func_17'
p408
ag6
ag6
aS'variable_47'
p409
ag249
aS'aacraid'
p410
ag232
aS'Could'
p411
aS'not'
p412
aS'copy'
p413
aS'sg'
p414
aS'data'
p415
aS'to'
p416
aS'user'
p417
ag262
ag263
ag249
ag15
ag15
aS'func_18'
p418
ag6
ag6
aS'variable_47'
p419
ag249
aS'aacraid'
p420
ag232
aS'Could'
p421
aS'not'
p422
aS'copy'
p423
aS'reply'
p424
aS'to'
p425
aS'user'
p426
ag262
ag263
ag249
ag15
ag15
aS'for'
p427
ag6
aS'variable_41'
p428
ag24
ag28
ag19
aS'variable_41'
p429
ag63
ag24
aS'variable_51'
p430
ag19
aS'variable_41'
p431
aS'++'
p432
ag15
aS'kfree'
p433
ag6
aS'variable_9'
p434
ag33
aS'variable_41'
p435
ag35
ag15
ag19
aa(lp436
S'static'
p437
aS'int'
p438
aS'func_0'
p439
ag6
aS'struct'
p440
aS'variable_0'
p441
ag9
aS'variable_1'
p442
ag11
aS'void'
p443
aS'variable_2'
p444
ag9
aS'variable_3'
p445
ag15
aS'struct'
p446
aS'variable_4'
p447
ag9
aS'variable_5'
p448
ag19
aS'struct'
p449
aS'user_aac_srb'
p450
aS'variable_2'
p451
ag9
aS'variable_6'
p452
ag24
aS'variable_3'
p453
ag19
aS'u32'
p454
aS'variable_7'
p455
ag24
ag28
ag19
aS'if'
p456
ag6
aS'variable_1'
p457
aS'->'
p458
aS'variable_8'
p459
ag15
aS'if'
p460
ag6
ag41
aS'func_1'
p461
ag6
aS'variable_9'
p462
ag15
ag15
aS'if'
p463
ag6
ag41
ag6
aS'variable_5'
p464
ag24
aS'func_2'
p465
ag6
aS'variable_1'
p466
ag15
ag15
ag15
aS'variable_5'
p467
aS'->'
p468
aS'variable_10'
p469
aS'->'
p470
aS'variable_11'
p471
ag112
aS'variable_12'
p472
ag54
ag24
aS'~'
p473
aS'func_3'
p474
ag6
aS'variable_13'
p475
ag15
ag19
aS'variable_14'
p476
ag24
ag6
aS'struct'
p477
aS'aac_srb'
p478
ag9
ag15
aS'func_4'
p479
ag6
aS'variable_5'
p480
ag15
ag19
aS'if'
p481
ag6
aS'func_5'
p482
ag6
ag54
aS'variable_7'
p483
ag11
ag54
aS'variable_6'
p484
aS'->'
p485
aS'variable_15'
p486
ag11
aS'sizeof'
p487
ag6
aS'variable_16'
p488
ag15
ag15
ag15
aS'if'
p489
ag6
ag6
aS'variable_7'
p490
ag63
ag6
aS'sizeof'
p491
ag6
aS'struct'
p492
aS'variable_17'
p493
ag15
ag67
aS'sizeof'
p494
ag6
aS'struct'
p495
aS'variable_18'
p496
ag15
ag15
ag15
aS'||'
p497
ag6
aS'variable_7'
p498
ag73
ag6
aS'variable_1'
p499
aS'->'
p500
aS'variable_19'
p501
ag67
aS'sizeof'
p502
ag6
aS'struct'
p503
aS'variable_20'
p504
ag15
ag15
ag15
ag15
aS'variable_21'
p505
ag24
aS'kmalloc'
p506
ag6
aS'variable_7'
p507
ag11
aS'variable_22'
p508
ag15
ag19
aS'if'
p509
ag6
ag41
aS'variable_21'
p510
ag15
aS'if'
p511
ag6
aS'func_6'
p512
ag6
aS'variable_21'
p513
ag11
aS'variable_6'
p514
ag11
aS'variable_7'
p515
ag15
ag15
aS'variable_23'
p516
ag24
aS'variable_21'
p517
aS'->'
p518
aS'variable_23'
p519
ag19
aS'variable_14'
p520
aS'->'
p521
aS'variable_24'
p522
ag24
aS'func_7'
p523
ag6
aS'variable_25'
p524
ag15
ag19
aS'variable_14'
p525
aS'->'
p526
aS'variable_26'
p527
ag24
aS'func_8'
p528
ag6
aS'variable_21'
p529
aS'->'
p530
aS'variable_26'
p531
ag15
ag19
aS'variable_14'
p532
aS'->'
p533
aS'variable_27'
p534
ag24
aS'func_9'
p535
ag6
aS'variable_21'
p536
aS'->'
p537
aS'variable_27'
p538
ag15
ag19
aS'variable_14'
p539
aS'->'
p540
aS'variable_28'
p541
ag24
aS'func_10'
p542
ag6
aS'variable_21'
p543
aS'->'
p544
aS'variable_28'
p545
ag15
ag19
aS'variable_14'
p546
aS'->'
p547
aS'variable_29'
p548
ag24
aS'func_11'
p549
ag6
aS'variable_21'
p550
aS'->'
p551
aS'variable_29'
p552
ag15
ag19
aS'variable_14'
p553
aS'->'
p554
aS'variable_23'
p555
ag24
aS'func_12'
p556
ag6
aS'variable_23'
p557
ag15
ag19
aS'variable_14'
p558
aS'->'
p559
aS'variable_30'
p560
ag24
ag28
ag19
aS'variable_14'
p561
aS'->'
p562
aS'variable_31'
p563
ag24
aS'func_13'
p564
ag6
aS'variable_21'
p565
aS'->'
p566
aS'variable_31'
p567
ag15
ag19
aS'memcpy'
p568
ag6
aS'variable_14'
p569
aS'->'
p570
aS'variable_32'
p571
ag11
aS'variable_21'
p572
aS'->'
p573
aS'variable_32'
p574
ag11
aS'sizeof'
p575
ag6
aS'variable_14'
p576
aS'->'
p577
aS'variable_32'
p578
ag15
ag15
ag19
aaa(lp579
I0
aI0
aa(lp580
I354
aI248
aa(lp581
(lp582
S'main'
p583
aa(lp584
g583
aaa(lp585
S'542 /home/SySeVR/data/CVE_2013_6380_PATCHED_aac_send_raw_srb.c memcpy 180'
p586
aS'543 /home/SySeVR/data/CVE_2013_6380_PATCHED_aac_send_raw_srb.c memcpy 80'
p587
aa.