(lp0
(lp1
(lp2
S'static'
p3
aS'int'
p4
aS'func_0'
p5
aS'('
p6
aS'struct'
p7
aS'variable_0'
p8
aS'*'
p9
aS'variable_1'
p10
aS','
p11
aS'void'
p12
aS'variable_2'
p13
ag9
aS'variable_3'
p14
aS')'
p15
aS'struct'
p16
aS'variable_4'
p17
ag9
aS'variable_5'
p18
aS';'
p19
aS'struct'
p20
aS'user_aac_srb'
p21
aS'variable_2'
p22
ag9
aS'variable_6'
p23
aS'='
p24
aS'variable_3'
p25
ag19
aS'u32'
p26
aS'variable_7'
p27
ag24
aS'0'
p28
ag19
aS'u32'
p29
aS'variable_8'
p30
ag19
aS'void'
p31
ag9
aS'variable_9'
p32
aS'['
p33
aS'32'
p34
aS']'
p35
ag19
aS'if'
p36
ag6
aS'variable_1'
p37
aS'->'
p38
aS'variable_10'
p39
ag15
aS'if'
p40
ag6
aS'!'
p41
aS'func_1'
p42
ag6
aS'variable_11'
p43
ag15
ag15
aS'if'
p44
ag6
ag41
ag6
aS'variable_5'
p45
ag24
aS'func_2'
p46
ag6
aS'variable_1'
p47
ag15
ag15
ag15
aS'memset'
p48
ag6
aS'variable_9'
p49
ag11
ag28
ag11
aS'sizeof'
p50
ag6
aS'variable_9'
p51
ag15
ag15
ag19
aS'if'
p52
ag6
aS'func_3'
p53
ag6
aS'&'
p54
aS'variable_7'
p55
ag11
ag54
aS'variable_6'
p56
aS'->'
p57
aS'variable_12'
p58
ag11
aS'sizeof'
p59
ag6
aS'variable_13'
p60
ag15
ag15
ag15
aS'if'
p61
ag6
ag6
aS'variable_7'
p62
aS'<'
p63
ag6
aS'sizeof'
p64
ag6
aS'struct'
p65
aS'variable_14'
p66
ag15
aS'-'
p67
aS'sizeof'
p68
ag6
aS'struct'
p69
aS'variable_15'
p70
ag15
ag15
ag15
aS'||'
p71
ag6
aS'variable_7'
p72
aS'>'
p73
ag6
aS'variable_1'
p74
aS'->'
p75
aS'variable_16'
p76
ag67
aS'sizeof'
p77
ag6
aS'struct'
p78
aS'variable_17'
p79
ag15
ag15
ag15
ag15
aS'variable_18'
p80
ag24
aS'kmalloc'
p81
ag6
aS'variable_7'
p82
ag11
aS'variable_19'
p83
ag15
ag19
aS'if'
p84
ag6
ag41
aS'variable_18'
p85
ag15
aS'if'
p86
ag6
aS'func_4'
p87
ag6
aS'variable_18'
p88
ag11
aS'variable_6'
p89
ag11
aS'variable_7'
p90
ag15
ag15
aS'variable_20'
p91
ag24
aS'variable_18'
p92
aS'->'
p93
aS'variable_20'
p94
ag19
aS'switch'
p95
ag6
aS'variable_20'
p96
ag54
ag6
aS'variable_21'
p97
aS'|'
p98
aS'variable_22'
p99
ag15
ag15
aS'variable_8'
p100
ag24
aS'variable_23'
p101
ag19
aS'variable_8'
p102
ag24
aS'variable_24'
p103
ag19
aS'variable_8'
p104
ag24
aS'variable_25'
p105
ag19
aS'variable_8'
p106
ag24
aS'variable_26'
p107
ag19
aS'if'
p108
ag6
aS'variable_18'
p109
aS'->'
p110
aS'variable_27'
p111
aS'.'
p112
aS'variable_12'
p113
ag73
aS'func_5'
p114
ag6
aS'variable_9'
p115
ag15
ag15
aS'variable_28'
p116
ag24
aS'sizeof'
p117
ag6
aS'struct'
p118
aS'variable_29'
p119
ag15
ag67
aS'sizeof'
p120
ag6
aS'struct'
p121
aS'variable_30'
p122
ag15
aS'+'
p123
ag6
ag6
aS'variable_18'
p124
aS'->'
p125
aS'variable_27'
p126
ag112
aS'variable_12'
p127
ag54
aS'0xff'
p128
ag15
ag9
aS'sizeof'
p129
ag6
aS'struct'
p130
aS'variable_30'
p131
ag15
ag15
ag19
aS'variable_31'
p132
ag24
aS'variable_28'
p133
ag123
ag6
aS'variable_18'
p134
aS'->'
p135
aS'variable_27'
p136
ag112
aS'variable_12'
p137
ag54
aS'0xff'
p138
ag15
ag9
ag6
aS'sizeof'
p139
ag6
aS'struct'
p140
aS'variable_32'
p141
ag15
ag67
aS'sizeof'
p142
ag6
aS'struct'
p143
aS'variable_30'
p144
ag15
ag15
ag19
aS'if'
p145
ag6
ag6
aS'variable_28'
p146
aS'!='
p147
aS'variable_7'
p148
ag15
aS'&&'
p149
ag6
aS'variable_31'
p150
aS'!='
p151
aS'variable_7'
p152
ag15
ag15
aS'if'
p153
ag6
ag6
aS'variable_8'
p154
aS'=='
p155
aS'variable_26'
p156
ag15
aS'&&'
p157
aS'variable_18'
p158
aS'->'
p159
aS'variable_27'
p160
ag112
aS'variable_12'
p161
ag15
aS'if'
p162
ag6
aS'variable_1'
p163
aS'->'
p164
aS'variable_33'
p165
ag112
aS'variable_34'
p166
ag54
aS'variable_35'
p167
ag15
aS'if'
p168
ag6
aS'variable_31'
p169
aS'=='
p170
aS'variable_7'
p171
ag15
aS'struct'
p172
aS'variable_36'
p173
ag9
aS'variable_37'
p174
ag19
aS'variable_37'
p175
ag24
aS'kmalloc'
p176
ag6
aS'variable_28'
p177
ag67
aS'sizeof'
p178
ag6
aS'struct'
p179
aS'variable_29'
p180
ag15
ag123
aS'sizeof'
p181
ag6
aS'struct'
p182
aS'variable_38'
p183
ag15
ag11
aS'variable_19'
p184
ag15
ag19
aS'if'
p185
ag6
ag41
aS'variable_37'
p186
ag15
aS'memcpy'
p187
ag6
aS'variable_37'
p188
ag11
aS'variable_39'
p189
ag11
aS'variable_28'
p190
ag67
aS'sizeof'
p191
ag6
aS'struct'
p192
aS'variable_29'
p193
ag15
ag123
aS'sizeof'
p194
ag6
aS'struct'
p195
aS'variable_38'
p196
ag15
ag15
ag19
aS'for'
p197
ag6
aS'variable_40'
p198
ag24
ag28
ag19
aS'variable_40'
p199
ag63
aS'variable_37'
p200
aS'->'
p201
aS'variable_12'
p202
ag19
aS'variable_40'
p203
aS'++'
p204
ag15
aS'if'
p205
ag6
aS'variable_37'
p206
aS'->'
p207
aS'variable_27'
p208
ag33
aS'variable_40'
p209
ag35
ag112
aS'variable_12'
p210
ag73
ag6
ag6
aS'variable_1'
p211
aS'->'
p212
aS'variable_33'
p213
ag112
aS'variable_34'
p214
ag54
aS'variable_41'
p215
ag15
aS'?'
p216
ag6
aS'variable_1'
p217
aS'->'
p218
aS'variable_42'
p219
aS'->'
p220
aS'variable_43'
p221
aS'<<'
p222
aS'9'
p223
ag15
aS':'
p224
aS'65536'
p225
ag15
ag15
aS'kfree'
p226
ag6
aS'variable_37'
p227
ag15
ag19
aS'variable_44'
p228
ag24
aS'kmalloc'
p229
ag6
aS'variable_37'
p230
aS'->'
p231
aS'variable_27'
p232
ag33
aS'variable_40'
p233
ag35
ag112
aS'variable_12'
p234
ag11
aS'variable_19'
p235
ag98
aS'variable_45'
p236
ag15
ag19
aS'if'
p237
ag6
ag41
aS'variable_44'
p238
ag15
aS'func_6'
p239
ag6
ag6
aS'variable_46'
p240
aS'"'
p241
aS'aacraid'
p242
ag224
aS'Could'
p243
aS'not'
p244
aS'allocate'
p245
aS'SG'
p246
aS'buffer'
p247
ag67
aS'size'
p248
ag24
aS'%'
p249
aS'd'
p250
aS'buffer'
p251
aS'number'
p252
ag249
ag250
aS'of'
p253
ag249
ag250
aS'\\'
p254
aS'n'
p255
ag241
aS'variable_37'
p256
aS'->'
p257
aS'variable_27'
p258
ag33
aS'variable_40'
p259
ag35
ag112
aS'variable_12'
p260
ag11
aS'variable_40'
p261
ag11
aS'variable_37'
p262
aS'->'
p263
aS'variable_12'
p264
ag15
ag15
aS'kfree'
p265
ag6
aS'variable_37'
p266
ag15
ag19
aS'variable_47'
p267
ag33
aS'variable_40'
p268
ag35
ag24
ag6
aS'void'
p269
aS'__user'
p270
ag9
ag15
ag6
aS'variable_48'
p271
ag15
aS'variable_37'
p272
aS'->'
p273
aS'variable_27'
p274
ag33
aS'variable_40'
p275
ag35
ag112
aS'variable_49'
p276
ag19
aS'variable_9'
p277
ag33
aS'variable_40'
p278
ag35
ag24
aS'variable_44'
p279
ag19
aS'variable_50'
p280
ag24
aS'variable_40'
p281
ag19
aS'if'
p282
ag6
aS'func_7'
p283
ag6
aS'variable_44'
p284
ag11
aS'variable_47'
p285
ag33
aS'variable_40'
p286
ag35
ag11
aS'variable_39'
p287
aS'->'
p288
aS'variable_27'
p289
ag33
aS'variable_40'
p290
ag35
ag112
aS'variable_12'
p291
ag15
ag15
aS'kfree'
p292
ag6
aS'variable_37'
p293
ag15
ag19
aS'variable_49'
p294
ag24
aS'func_8'
p295
ag6
aS'variable_1'
p296
aS'->'
p297
aS'variable_51'
p298
ag11
aS'variable_44'
p299
ag11
aS'variable_37'
p300
aS'->'
p301
aS'variable_27'
p302
ag33
aS'variable_40'
p303
ag35
ag112
aS'variable_12'
p304
ag11
aS'variable_8'
p305
ag15
ag19
aS'variable_52'
p306
aS'->'
p307
aS'variable_27'
p308
ag33
aS'variable_40'
p309
ag35
ag112
aS'variable_49'
p310
ag33
ag28
ag35
ag24
aS'func_9'
p311
ag6
aS'variable_49'
p312
ag54
aS'0xffffffff'
p313
ag15
ag19
aS'variable_52'
p314
aS'->'
p315
aS'variable_27'
p316
ag33
aS'variable_40'
p317
ag35
ag112
aS'variable_49'
p318
ag33
aS'1'
p319
ag35
ag24
aS'func_10'
p320
ag6
aS'variable_49'
p321
aS'>>'
p322
aS'32'
p323
ag15
ag19
aS'variable_53'
p324
aS'+='
p325
aS'variable_37'
p326
aS'->'
p327
aS'variable_27'
p328
ag33
aS'variable_40'
p329
ag35
ag112
aS'variable_12'
p330
ag19
aS'variable_52'
p331
aS'->'
p332
aS'variable_27'
p333
ag33
aS'variable_40'
p334
ag35
ag112
aS'variable_12'
p335
ag24
aS'func_11'
p336
ag6
aS'variable_37'
p337
aS'->'
p338
aS'variable_27'
p339
ag33
aS'variable_40'
p340
ag35
ag112
aS'variable_12'
p341
ag15
ag19
aS'kfree'
p342
ag6
aS'variable_37'
p343
ag15
ag19
aS'variable_54'
p344
aS'->'
p345
aS'variable_12'
p346
ag24
aS'func_12'
p347
ag6
aS'variable_53'
p348
ag15
ag19
aS'variable_52'
p349
aS'->'
p350
aS'variable_12'
p351
ag24
aS'func_13'
p352
ag6
aS'variable_50'
p353
ag123
ag319
ag15
ag19
aS'func_14'
p354
ag6
ag6
aS'variable_46'
p355
ag241
aS'aacraid'
p356
ag224
aS'Could'
p357
aS'not'
p358
aS'send'
p359
aS'raw'
p360
aS'srb'
p361
aS'fib'
p362
aS'to'
p363
aS'hba'
p364
ag254
ag255
ag241
ag15
ag15
aS'for'
p365
ag6
aS'variable_40'
p366
ag24
ag28
ag19
aS'variable_40'
p367
ag63
ag24
aS'variable_50'
p368
ag19
aS'variable_40'
p369
aS'++'
p370
ag15
aS'variable_53'
p371
ag24
aS'func_15'
p372
ag6
ag6
aS'variable_1'
p373
aS'->'
p374
aS'variable_33'
p375
ag112
aS'variable_34'
p376
ag54
aS'variable_35'
p377
ag15
ag216
ag6
ag6
aS'struct'
p378
aS'sgmap64'
p379
ag9
ag15
ag54
aS'variable_54'
p380
aS'->'
p381
aS'variable_27'
p382
ag15
aS'->'
p383
aS'variable_27'
p384
ag33
aS'variable_40'
p385
ag35
ag112
aS'variable_12'
p386
ag224
aS'variable_54'
p387
aS'->'
p388
aS'variable_27'
p389
ag112
aS'variable_27'
p390
ag33
aS'variable_40'
p391
ag35
ag112
aS'variable_12'
p392
ag15
ag19
aS'if'
p393
ag6
aS'func_16'
p394
ag6
aS'variable_47'
p395
ag33
aS'variable_40'
p396
ag35
ag11
aS'variable_9'
p397
ag33
aS'variable_40'
p398
ag35
ag11
aS'variable_53'
p399
ag15
ag15
aS'func_17'
p400
ag6
ag6
aS'variable_46'
p401
ag241
aS'aacraid'
p402
ag224
aS'Could'
p403
aS'not'
p404
aS'copy'
p405
aS'sg'
p406
aS'data'
p407
aS'to'
p408
aS'user'
p409
ag254
ag255
ag241
ag15
ag15
aS'func_18'
p410
ag6
ag6
aS'variable_46'
p411
ag241
aS'aacraid'
p412
ag224
aS'Could'
p413
aS'not'
p414
aS'copy'
p415
aS'reply'
p416
aS'to'
p417
aS'user'
p418
ag254
ag255
ag241
ag15
ag15
aS'for'
p419
ag6
aS'variable_40'
p420
ag24
ag28
ag19
aS'variable_40'
p421
ag63
ag24
aS'variable_50'
p422
ag19
aS'variable_40'
p423
aS'++'
p424
ag15
aS'kfree'
p425
ag6
aS'variable_9'
p426
ag33
aS'variable_40'
p427
ag35
ag15
ag19
aa(lp428
S'static'
p429
aS'int'
p430
aS'func_0'
p431
ag6
aS'struct'
p432
aS'variable_0'
p433
ag9
aS'variable_1'
p434
ag11
aS'void'
p435
aS'variable_2'
p436
ag9
aS'variable_3'
p437
ag15
aS'struct'
p438
aS'variable_4'
p439
ag9
aS'variable_5'
p440
ag19
aS'struct'
p441
aS'user_aac_srb'
p442
aS'variable_2'
p443
ag9
aS'variable_6'
p444
ag24
aS'variable_3'
p445
ag19
aS'struct'
p446
aS'aac_srb_reply'
p447
aS'variable_2'
p448
ag9
aS'variable_7'
p449
ag19
aS'u32'
p450
aS'variable_8'
p451
ag24
ag28
ag19
aS'if'
p452
ag6
aS'variable_1'
p453
aS'->'
p454
aS'variable_9'
p455
ag15
aS'if'
p456
ag6
ag41
aS'func_1'
p457
ag6
aS'variable_10'
p458
ag15
ag15
aS'if'
p459
ag6
ag41
ag6
aS'variable_5'
p460
ag24
aS'func_2'
p461
ag6
aS'variable_1'
p462
ag15
ag15
ag15
aS'if'
p463
ag6
aS'func_3'
p464
ag6
ag54
aS'variable_8'
p465
ag11
ag54
aS'variable_6'
p466
aS'->'
p467
aS'variable_11'
p468
ag11
aS'sizeof'
p469
ag6
aS'variable_12'
p470
ag15
ag15
ag15
aS'if'
p471
ag6
ag6
aS'variable_8'
p472
ag63
ag6
aS'sizeof'
p473
ag6
aS'struct'
p474
aS'variable_13'
p475
ag15
ag67
aS'sizeof'
p476
ag6
aS'struct'
p477
aS'variable_14'
p478
ag15
ag15
ag15
aS'||'
p479
ag6
aS'variable_8'
p480
ag73
ag6
aS'variable_1'
p481
aS'->'
p482
aS'variable_15'
p483
ag67
aS'sizeof'
p484
ag6
aS'struct'
p485
aS'variable_16'
p486
ag15
ag15
ag15
ag15
aS'variable_17'
p487
ag24
aS'kmalloc'
p488
ag6
aS'variable_8'
p489
ag11
aS'variable_18'
p490
ag15
ag19
aS'if'
p491
ag6
ag41
aS'variable_17'
p492
ag15
aS'if'
p493
ag6
aS'func_4'
p494
ag6
aS'variable_17'
p495
ag11
aS'variable_6'
p496
ag11
aS'variable_8'
p497
ag15
ag15
aS'variable_7'
p498
ag24
aS'variable_3'
p499
ag123
aS'variable_8'
p500
ag19
aS'if'
p501
ag6
aS'func_5'
p502
ag6
aS'variable_7'
p503
ag11
aS'variable_19'
p504
ag11
aS'sizeof'
p505
ag6
aS'struct'
p506
aS'variable_20'
p507
ag15
ag15
ag15
aaa(lp508
I0
aI0
aa(lp509
I323
aI147
aa(lp510
(lp511
S'main'
p512
aa(lp513
g512
aaa(lp514
S'539 /home/SySeVR/data/CVE_2013_6380_PATCHED_aac_send_raw_srb.c usg = kmalloc ( actual_fibsize - sizeof ( struct aac_srb ) + sizeof ( struct sgmap ) , GFP_KERNEL ) 173'
p515
aS'540 /home/SySeVR/data/CVE_2013_6380_PATCHED_aac_send_raw_srb.c user_reply = arg + fibsize 67'
p516
aa.