(lp0
(lp1
(lp2
S'static'
p3
aS'int'
p4
aS'func_0'
p5
aS'('
p6
aS'variable_0'
p7
aS'*'
p8
aS'variable_1'
p9
aS')'
p10
aS'variable_2'
p11
ag8
aS'variable_3'
p12
aS';'
p13
aS'apr_status_t'
p14
aS'variable_4'
p15
ag13
aS'unsigned'
p16
aS'short'
p17
aS'variable_5'
p18
aS'='
p19
aS'0'
p20
ag13
aS'unsigned'
p21
aS'char'
p22
ag8
aS'variable_6'
p23
ag13
aS'char'
p24
aS'variable_7'
p25
ag13
aS'int'
p26
aS'variable_8'
p27
ag13
aS'variable_9'
p28
ag8
aS'variable_10'
p29
ag19
aS'func_1'
p30
ag6
aS'variable_1'
p31
aS','
p32
aS'1'
p33
ag10
ag13
aS'variable_8'
p34
ag19
aS'func_2'
p35
ag6
aS'variable_10'
p36
aS'->'
p37
aS'variable_11'
p38
ag10
aS'?'
p39
ag20
aS':'
p40
ag33
ag13
aS'variable_6'
p41
ag19
aS'func_3'
p42
ag6
aS'variable_10'
p43
aS'->'
p44
aS'variable_12'
p45
ag32
aS'4'
p46
ag10
ag13
aS'variable_3'
p47
ag19
aS'func_4'
p48
ag6
aS'variable_10'
p49
aS'->'
p50
aS'variable_11'
p51
ag10
ag13
aS'if'
p52
ag6
aS'variable_8'
p53
ag10
aS'variable_4'
p54
ag19
aS'func_5'
p55
ag6
aS'variable_3'
p56
ag32
aS'&'
p57
aS'variable_7'
p58
ag32
ag57
aS'variable_13'
p59
ag10
ag13
aS'variable_4'
p60
ag19
aS'func_6'
p61
ag6
aS'variable_10'
p62
aS'->'
p63
aS'variable_11'
p64
ag32
ag57
aS'variable_7'
p65
ag32
ag33
ag10
ag13
aS'if'
p66
ag6
aS'variable_4'
p67
aS'=='
p68
aS'variable_14'
p69
ag10
aS'unsigned'
p70
aS'char'
p71
aS'variable_15'
p72
ag32
aS'variable_16'
p73
ag32
aS'variable_17'
p74
ag32
aS'variable_18'
p75
ag13
aS'variable_16'
p76
ag19
ag6
aS'variable_7'
p77
aS'<<'
p78
ag46
ag10
aS'>>'
p79
ag46
ag13
aS'if'
p80
ag6
aS'variable_8'
p81
ag10
aS'variable_4'
p82
ag19
aS'func_7'
p83
ag6
aS'variable_3'
p84
ag32
ag57
aS'variable_7'
p85
ag32
ag57
aS'variable_13'
p86
ag10
ag13
aS'variable_4'
p87
ag19
aS'func_8'
p88
ag6
aS'variable_10'
p89
aS'->'
p90
aS'variable_11'
p91
ag32
ag57
aS'variable_7'
p92
ag32
ag33
ag10
ag13
aS'if'
p93
ag6
aS'variable_4'
p94
aS'=='
p95
aS'variable_14'
p96
ag10
aS'variable_17'
p97
ag19
aS'variable_7'
p98
aS'>>'
p99
aS'7'
p100
ag13
aS'variable_18'
p101
ag19
aS'variable_7'
p102
aS'-'
p103
aS'128'
p104
ag13
aS'variable_19'
p105
ag19
aS'variable_18'
p106
ag13
aS'if'
p107
ag6
aS'variable_18'
p108
aS'=='
p109
aS'126'
p110
ag10
aS'variable_13'
p111
ag19
aS'2'
p112
ag13
aS'if'
p113
ag6
aS'variable_8'
p114
ag10
aS'variable_4'
p115
ag19
aS'func_9'
p116
ag6
aS'variable_3'
p117
ag32
ag6
aS'char'
p118
ag8
ag10
ag57
aS'variable_5'
p119
ag32
ag57
aS'variable_13'
p120
ag10
ag13
aS'variable_4'
p121
ag19
aS'func_10'
p122
ag6
aS'variable_10'
p123
aS'->'
p124
aS'variable_11'
p125
ag32
ag6
aS'char'
p126
ag8
ag10
ag57
aS'variable_5'
p127
ag32
ag112
ag10
ag13
aS'variable_5'
p128
ag19
aS'func_11'
p129
ag6
aS'variable_5'
p130
ag10
ag13
aS'if'
p131
ag6
aS'variable_4'
p132
aS'=='
p133
aS'variable_14'
p134
ag10
aS'variable_19'
p135
ag19
aS'variable_5'
p136
ag13
aS'if'
p137
ag6
aS'variable_18'
p138
aS'=='
p139
aS'127'
p140
ag10
aS'variable_13'
p141
ag19
aS'8'
p142
ag13
aS'if'
p143
ag6
aS'variable_8'
p144
ag10
aS'variable_4'
p145
ag19
aS'func_12'
p146
ag6
aS'variable_3'
p147
ag32
ag6
aS'char'
p148
ag8
ag10
ag57
aS'variable_20'
p149
ag32
ag57
aS'variable_13'
p150
ag10
ag13
aS'variable_4'
p151
ag19
aS'func_13'
p152
ag6
aS'variable_10'
p153
aS'->'
p154
aS'variable_11'
p155
ag32
ag6
aS'char'
p156
ag8
ag10
ag57
aS'variable_20'
p157
ag32
ag142
ag10
ag13
aS'if'
p158
ag6
aS'variable_4'
p159
aS'=='
p160
aS'variable_14'
p161
ag10
aS'variable_19'
p162
ag19
aS'func_14'
p163
ag6
ag57
aS'variable_20'
p164
ag10
ag13
aS'if'
p165
ag6
aS'variable_17'
p166
ag10
aS'variable_13'
p167
ag19
ag46
ag13
aS'if'
p168
ag6
aS'variable_8'
p169
ag10
aS'variable_4'
p170
ag19
aS'func_15'
p171
ag6
aS'variable_3'
p172
ag32
ag6
aS'char'
p173
ag8
ag10
aS'variable_6'
p174
ag32
ag57
aS'variable_13'
p175
ag10
ag13
aS'variable_4'
p176
ag19
aS'func_16'
p177
ag6
aS'variable_10'
p178
aS'->'
p179
aS'variable_11'
p180
ag32
ag6
aS'char'
p181
ag8
ag10
aS'variable_6'
p182
ag32
ag46
ag10
ag13
aS'if'
p183
ag6
aS'variable_4'
p184
aS'!='
p185
aS'variable_14'
p186
ag10
aS'if'
p187
ag6
aS'variable_19'
p188
aS'<'
p189
ag6
aS'variable_21'
p190
ag8
aS'1024'
p191
ag10
aS'&&'
p192
aS'variable_19'
p193
aS'>'
p194
ag20
ag10
aS'if'
p195
ag6
aS'variable_16'
p196
aS'=='
p197
aS'0x09'
p198
ag10
aS'func_17'
p199
ag6
aS'variable_1'
p200
ag10
ag13
aS'static'
p201
aS'int'
p202
aS'func_18'
p203
ag6
aS'variable_0'
p204
ag8
aS'variable_1'
p205
ag10
aS'variable_2'
p206
ag8
aS'variable_3'
p207
ag13
aS'apr_status_t'
p208
aS'variable_4'
p209
ag13
aS'unsigned'
p210
aS'short'
p211
aS'variable_5'
p212
ag19
ag20
ag13
aS'unsigned'
p213
aS'char'
p214
ag8
aS'variable_6'
p215
ag13
aS'char'
p216
aS'variable_7'
p217
ag13
aS'int'
p218
aS'variable_8'
p219
ag13
aS'variable_9'
p220
ag8
aS'variable_10'
p221
ag19
aS'func_19'
p222
ag6
aS'variable_1'
p223
ag32
ag33
ag10
ag13
aS'variable_8'
p224
ag19
aS'func_20'
p225
ag6
aS'variable_10'
p226
aS'->'
p227
aS'variable_11'
p228
ag10
ag39
ag20
ag40
ag33
ag13
aS'variable_6'
p229
ag19
aS'func_21'
p230
ag6
aS'variable_10'
p231
aS'->'
p232
aS'variable_12'
p233
ag32
ag46
ag10
ag13
aS'variable_3'
p234
ag19
aS'func_22'
p235
ag6
aS'variable_10'
p236
aS'->'
p237
aS'variable_11'
p238
ag10
ag13
aS'if'
p239
ag6
aS'variable_8'
p240
ag10
aS'variable_4'
p241
ag19
aS'func_23'
p242
ag6
aS'variable_3'
p243
ag32
ag57
aS'variable_7'
p244
ag32
ag57
aS'variable_13'
p245
ag10
ag13
aS'variable_4'
p246
ag19
aS'func_24'
p247
ag6
aS'variable_10'
p248
aS'->'
p249
aS'variable_11'
p250
ag32
ag57
aS'variable_7'
p251
ag32
ag33
ag10
ag13
aS'if'
p252
ag6
aS'variable_4'
p253
aS'=='
p254
aS'variable_14'
p255
ag10
aS'unsigned'
p256
aS'char'
p257
aS'variable_15'
p258
ag32
aS'variable_16'
p259
ag32
aS'variable_17'
p260
ag32
aS'variable_18'
p261
ag13
aS'variable_16'
p262
ag19
ag6
aS'variable_7'
p263
aS'<<'
p264
ag46
ag10
aS'>>'
p265
ag46
ag13
aS'if'
p266
ag6
aS'variable_8'
p267
ag10
aS'variable_4'
p268
ag19
aS'func_25'
p269
ag6
aS'variable_3'
p270
ag32
ag57
aS'variable_7'
p271
ag32
ag57
aS'variable_13'
p272
ag10
ag13
aS'variable_4'
p273
ag19
aS'func_26'
p274
ag6
aS'variable_10'
p275
aS'->'
p276
aS'variable_11'
p277
ag32
ag57
aS'variable_7'
p278
ag32
ag33
ag10
ag13
aS'if'
p279
ag6
aS'variable_4'
p280
aS'=='
p281
aS'variable_14'
p282
ag10
aS'variable_17'
p283
ag19
aS'variable_7'
p284
aS'>>'
p285
ag100
ag13
aS'variable_18'
p286
ag19
aS'variable_7'
p287
ag103
aS'128'
p288
ag13
aS'variable_19'
p289
ag19
aS'variable_18'
p290
ag13
aS'if'
p291
ag6
aS'variable_18'
p292
aS'=='
p293
aS'126'
p294
ag10
aS'variable_13'
p295
ag19
ag112
ag13
aS'if'
p296
ag6
aS'variable_8'
p297
ag10
aS'variable_4'
p298
ag19
aS'func_27'
p299
ag6
aS'variable_3'
p300
ag32
ag6
aS'char'
p301
ag8
ag10
ag57
aS'variable_5'
p302
ag32
ag57
aS'variable_13'
p303
ag10
ag13
aS'variable_4'
p304
ag19
aS'func_28'
p305
ag6
aS'variable_10'
p306
aS'->'
p307
aS'variable_11'
p308
ag32
ag6
aS'char'
p309
ag8
ag10
ag57
aS'variable_5'
p310
ag32
ag112
ag10
ag13
aS'variable_5'
p311
ag19
aS'func_29'
p312
ag6
aS'variable_5'
p313
ag10
ag13
aS'if'
p314
ag6
aS'variable_4'
p315
aS'=='
p316
aS'variable_14'
p317
ag10
aS'variable_19'
p318
ag19
aS'variable_5'
p319
ag13
aS'if'
p320
ag6
aS'variable_18'
p321
aS'=='
p322
aS'127'
p323
ag10
aS'variable_13'
p324
ag19
ag142
ag13
aS'if'
p325
ag6
aS'variable_8'
p326
ag10
aS'variable_4'
p327
ag19
aS'func_30'
p328
ag6
aS'variable_3'
p329
ag32
ag6
aS'char'
p330
ag8
ag10
ag57
aS'variable_20'
p331
ag32
ag57
aS'variable_13'
p332
ag10
ag13
aS'variable_4'
p333
ag19
aS'func_31'
p334
ag6
aS'variable_10'
p335
aS'->'
p336
aS'variable_11'
p337
ag32
ag6
aS'char'
p338
ag8
ag10
ag57
aS'variable_20'
p339
ag32
ag142
ag10
ag13
aS'if'
p340
ag6
aS'variable_4'
p341
aS'=='
p342
aS'variable_14'
p343
ag10
aS'variable_19'
p344
ag19
aS'func_32'
p345
ag6
ag57
aS'variable_20'
p346
ag10
ag13
aS'if'
p347
ag6
aS'variable_17'
p348
ag10
aS'variable_13'
p349
ag19
ag46
ag13
aS'if'
p350
ag6
aS'variable_8'
p351
ag10
aS'variable_4'
p352
ag19
aS'func_33'
p353
ag6
aS'variable_3'
p354
ag32
ag6
aS'char'
p355
ag8
ag10
aS'variable_6'
p356
ag32
ag57
aS'variable_13'
p357
ag10
ag13
aS'variable_4'
p358
ag19
aS'func_34'
p359
ag6
aS'variable_10'
p360
aS'->'
p361
aS'variable_11'
p362
ag32
ag6
aS'char'
p363
ag8
ag10
aS'variable_6'
p364
ag32
ag46
ag10
ag13
aS'if'
p365
ag6
aS'variable_4'
p366
aS'!='
p367
aS'variable_14'
p368
ag10
aS'if'
p369
ag6
aS'variable_19'
p370
ag189
ag6
aS'variable_21'
p371
ag8
aS'1024'
p372
ag10
aS'&&'
p373
aS'variable_19'
p374
ag194
ag20
ag10
aS'if'
p375
ag6
aS'variable_16'
p376
aS'=='
p377
aS'0x09'
p378
ag10
aS'func_35'
p379
ag6
aS'variable_1'
p380
ag10
ag13
aS'static'
p381
aS'int'
p382
aS'func_36'
p383
ag6
aS'variable_0'
p384
ag8
aS'variable_1'
p385
ag10
aS'variable_2'
p386
ag8
aS'variable_3'
p387
ag13
aS'apr_status_t'
p388
aS'variable_4'
p389
ag13
aS'unsigned'
p390
aS'short'
p391
aS'variable_5'
p392
ag19
ag20
ag13
aS'unsigned'
p393
aS'char'
p394
ag8
aS'variable_6'
p395
ag13
aS'char'
p396
aS'variable_7'
p397
ag13
aS'int'
p398
aS'variable_8'
p399
ag13
aS'variable_9'
p400
ag8
aS'variable_10'
p401
ag19
aS'func_37'
p402
ag6
aS'variable_1'
p403
ag32
ag33
ag10
ag13
aS'variable_8'
p404
ag19
aS'func_38'
p405
ag6
aS'variable_10'
p406
aS'->'
p407
aS'variable_11'
p408
ag10
ag39
ag20
ag40
ag33
ag13
aS'variable_6'
p409
ag19
aS'func_39'
p410
ag6
aS'variable_10'
p411
aS'->'
p412
aS'variable_12'
p413
ag32
ag46
ag10
ag13
aS'variable_3'
p414
ag19
aS'func_40'
p415
ag6
aS'variable_10'
p416
aS'->'
p417
aS'variable_11'
p418
ag10
ag13
aS'if'
p419
ag6
aS'variable_8'
p420
ag10
aS'variable_4'
p421
ag19
aS'func_41'
p422
ag6
aS'variable_3'
p423
ag32
ag57
aS'variable_7'
p424
ag32
ag57
aS'variable_13'
p425
ag10
ag13
aS'variable_4'
p426
ag19
aS'func_42'
p427
ag6
aS'variable_10'
p428
aS'->'
p429
aS'variable_11'
p430
ag32
ag57
aS'variable_7'
p431
ag32
ag33
ag10
ag13
aS'if'
p432
ag6
aS'variable_4'
p433
aS'=='
p434
aS'variable_14'
p435
ag10
aS'unsigned'
p436
aS'char'
p437
aS'variable_15'
p438
ag32
aS'variable_16'
p439
ag32
aS'variable_17'
p440
ag32
aS'variable_18'
p441
ag13
aS'variable_16'
p442
ag19
ag6
aS'variable_7'
p443
aS'<<'
p444
ag46
ag10
aS'>>'
p445
ag46
ag13
aS'if'
p446
ag6
aS'variable_8'
p447
ag10
aS'variable_4'
p448
ag19
aS'func_43'
p449
ag6
aS'variable_3'
p450
ag32
ag57
aS'variable_7'
p451
ag32
ag57
aS'variable_13'
p452
ag10
ag13
aS'variable_4'
p453
ag19
aS'func_44'
p454
ag6
aS'variable_10'
p455
aS'->'
p456
aS'variable_11'
p457
ag32
ag57
aS'variable_7'
p458
ag32
ag33
ag10
ag13
aS'if'
p459
ag6
aS'variable_4'
p460
aS'=='
p461
aS'variable_14'
p462
ag10
aS'variable_17'
p463
ag19
aS'variable_7'
p464
aS'>>'
p465
ag100
ag13
aS'variable_18'
p466
ag19
aS'variable_7'
p467
ag103
aS'128'
p468
ag13
aS'variable_19'
p469
ag19
aS'variable_18'
p470
ag13
aS'if'
p471
ag6
aS'variable_18'
p472
aS'=='
p473
aS'126'
p474
ag10
aS'variable_13'
p475
ag19
ag112
ag13
aS'if'
p476
ag6
aS'variable_8'
p477
ag10
aS'variable_4'
p478
ag19
aS'func_45'
p479
ag6
aS'variable_3'
p480
ag32
ag6
aS'char'
p481
ag8
ag10
ag57
aS'variable_5'
p482
ag32
ag57
aS'variable_13'
p483
ag10
ag13
aS'variable_4'
p484
ag19
aS'func_46'
p485
ag6
aS'variable_10'
p486
aS'->'
p487
aS'variable_11'
p488
ag32
ag6
aS'char'
p489
ag8
ag10
ag57
aS'variable_5'
p490
ag32
ag112
ag10
ag13
aS'variable_5'
p491
ag19
aS'func_47'
p492
ag6
aS'variable_5'
p493
ag10
ag13
aS'if'
p494
ag6
aS'variable_4'
p495
aS'=='
p496
aS'variable_14'
p497
ag10
aS'variable_19'
p498
ag19
aS'variable_5'
p499
ag13
aS'if'
p500
ag6
aS'variable_18'
p501
aS'=='
p502
aS'127'
p503
ag10
aS'variable_13'
p504
ag19
ag142
ag13
aS'if'
p505
ag6
aS'variable_8'
p506
ag10
aS'variable_4'
p507
ag19
aS'func_48'
p508
ag6
aS'variable_3'
p509
ag32
ag6
aS'char'
p510
ag8
ag10
ag57
aS'variable_20'
p511
ag32
ag57
aS'variable_13'
p512
ag10
ag13
aS'variable_4'
p513
ag19
aS'func_49'
p514
ag6
aS'variable_10'
p515
aS'->'
p516
aS'variable_11'
p517
ag32
ag6
aS'char'
p518
ag8
ag10
ag57
aS'variable_20'
p519
ag32
ag142
ag10
ag13
aS'if'
p520
ag6
aS'variable_4'
p521
aS'=='
p522
aS'variable_14'
p523
ag10
aS'variable_19'
p524
ag19
aS'func_50'
p525
ag6
ag57
aS'variable_20'
p526
ag10
ag13
aS'if'
p527
ag6
aS'variable_17'
p528
ag10
aS'variable_13'
p529
ag19
ag46
ag13
aS'if'
p530
ag6
aS'variable_8'
p531
ag10
aS'variable_4'
p532
ag19
aS'func_51'
p533
ag6
aS'variable_3'
p534
ag32
ag6
aS'char'
p535
ag8
ag10
aS'variable_6'
p536
ag32
ag57
aS'variable_13'
p537
ag10
ag13
aS'variable_4'
p538
ag19
aS'func_52'
p539
ag6
aS'variable_10'
p540
aS'->'
p541
aS'variable_11'
p542
ag32
ag6
aS'char'
p543
ag8
ag10
aS'variable_6'
p544
ag32
ag46
ag10
ag13
aS'if'
p545
ag6
aS'variable_4'
p546
aS'!='
p547
aS'variable_14'
p548
ag10
aS'if'
p549
ag6
aS'variable_19'
p550
ag189
ag6
aS'variable_21'
p551
ag8
aS'1024'
p552
ag10
aS'&&'
p553
aS'variable_19'
p554
ag194
ag20
ag10
aS'if'
p555
ag6
aS'variable_16'
p556
aS'=='
p557
aS'0x09'
p558
ag10
aS'func_53'
p559
ag6
aS'variable_1'
p560
ag10
ag13
aS'static'
p561
aS'int'
p562
aS'func_54'
p563
ag6
aS'variable_0'
p564
ag8
aS'variable_1'
p565
ag10
aS'variable_2'
p566
ag8
aS'variable_3'
p567
ag13
aS'apr_status_t'
p568
aS'variable_4'
p569
ag13
aS'unsigned'
p570
aS'short'
p571
aS'variable_5'
p572
ag19
ag20
ag13
aS'unsigned'
p573
aS'char'
p574
ag8
aS'variable_6'
p575
ag13
aS'char'
p576
aS'variable_7'
p577
ag13
aS'int'
p578
aS'variable_8'
p579
ag13
aS'variable_9'
p580
ag8
aS'variable_10'
p581
ag19
aS'func_55'
p582
ag6
aS'variable_1'
p583
ag32
ag33
ag10
ag13
aS'variable_8'
p584
ag19
aS'func_56'
p585
ag6
aS'variable_10'
p586
aS'->'
p587
aS'variable_11'
p588
ag10
ag39
ag20
ag40
ag33
ag13
aS'variable_6'
p589
ag19
aS'func_57'
p590
ag6
aS'variable_10'
p591
aS'->'
p592
aS'variable_12'
p593
ag32
ag46
ag10
ag13
aS'variable_3'
p594
ag19
aS'func_58'
p595
ag6
aS'variable_10'
p596
aS'->'
p597
aS'variable_11'
p598
ag10
ag13
aS'if'
p599
ag6
aS'variable_8'
p600
ag10
aS'variable_4'
p601
ag19
aS'func_59'
p602
ag6
aS'variable_3'
p603
ag32
ag57
aS'variable_7'
p604
ag32
ag57
aS'variable_13'
p605
ag10
ag13
aS'variable_4'
p606
ag19
aS'func_60'
p607
ag6
aS'variable_10'
p608
aS'->'
p609
aS'variable_11'
p610
ag32
ag57
aS'variable_7'
p611
ag32
ag33
ag10
ag13
aS'if'
p612
ag6
aS'variable_4'
p613
aS'=='
p614
aS'variable_14'
p615
ag10
aS'unsigned'
p616
aS'char'
p617
aS'variable_15'
p618
ag32
aS'variable_16'
p619
ag32
aS'variable_17'
p620
ag32
aS'variable_18'
p621
ag13
aS'if'
p622
ag6
aS'variable_8'
p623
ag10
aS'variable_4'
p624
ag19
aS'func_61'
p625
ag6
aS'variable_3'
p626
ag32
ag57
aS'variable_7'
p627
ag32
ag57
aS'variable_13'
p628
ag10
ag13
aS'variable_4'
p629
ag19
aS'func_62'
p630
ag6
aS'variable_10'
p631
aS'->'
p632
aS'variable_11'
p633
ag32
ag57
aS'variable_7'
p634
ag32
ag33
ag10
ag13
aS'if'
p635
ag6
aS'variable_4'
p636
aS'=='
p637
aS'variable_14'
p638
ag10
aS'variable_17'
p639
ag19
aS'variable_7'
p640
aS'>>'
p641
ag100
ag13
aS'variable_18'
p642
ag19
aS'variable_7'
p643
ag103
aS'128'
p644
ag13
aS'variable_19'
p645
ag19
aS'variable_18'
p646
ag13
aS'if'
p647
ag6
aS'variable_18'
p648
aS'=='
p649
aS'126'
p650
ag10
aS'variable_13'
p651
ag19
ag112
ag13
aS'if'
p652
ag6
aS'variable_8'
p653
ag10
aS'variable_4'
p654
ag19
aS'func_63'
p655
ag6
aS'variable_3'
p656
ag32
ag6
aS'char'
p657
ag8
ag10
ag57
aS'variable_5'
p658
ag32
ag57
aS'variable_13'
p659
ag10
ag13
aS'variable_4'
p660
ag19
aS'func_64'
p661
ag6
aS'variable_10'
p662
aS'->'
p663
aS'variable_11'
p664
ag32
ag6
aS'char'
p665
ag8
ag10
ag57
aS'variable_5'
p666
ag32
ag112
ag10
ag13
aS'variable_5'
p667
ag19
aS'func_65'
p668
ag6
aS'variable_5'
p669
ag10
ag13
aS'if'
p670
ag6
aS'variable_4'
p671
aS'=='
p672
aS'variable_14'
p673
ag10
aS'variable_19'
p674
ag19
aS'variable_5'
p675
ag13
aS'if'
p676
ag6
aS'variable_18'
p677
aS'=='
p678
aS'127'
p679
ag10
aS'variable_13'
p680
ag19
ag142
ag13
aS'if'
p681
ag6
aS'variable_8'
p682
ag10
aS'variable_4'
p683
ag19
aS'func_66'
p684
ag6
aS'variable_3'
p685
ag32
ag6
aS'char'
p686
ag8
ag10
ag57
aS'variable_20'
p687
ag32
ag57
aS'variable_13'
p688
ag10
ag13
aS'variable_4'
p689
ag19
aS'func_67'
p690
ag6
aS'variable_10'
p691
aS'->'
p692
aS'variable_11'
p693
ag32
ag6
aS'char'
p694
ag8
ag10
ag57
aS'variable_20'
p695
ag32
ag142
ag10
ag13
aS'if'
p696
ag6
aS'variable_4'
p697
aS'=='
p698
aS'variable_14'
p699
ag10
aS'variable_19'
p700
ag19
aS'func_68'
p701
ag6
ag57
aS'variable_20'
p702
ag10
ag13
aS'if'
p703
ag6
aS'variable_17'
p704
ag10
aS'variable_13'
p705
ag19
ag46
ag13
aS'if'
p706
ag6
aS'variable_8'
p707
ag10
aS'variable_4'
p708
ag19
aS'func_69'
p709
ag6
aS'variable_3'
p710
ag32
ag6
aS'char'
p711
ag8
ag10
aS'variable_6'
p712
ag32
ag57
aS'variable_13'
p713
ag10
ag13
aS'variable_4'
p714
ag19
aS'func_70'
p715
ag6
aS'variable_10'
p716
aS'->'
p717
aS'variable_11'
p718
ag32
ag6
aS'char'
p719
ag8
ag10
aS'variable_6'
p720
ag32
ag46
ag10
ag13
aS'if'
p721
ag6
aS'variable_4'
p722
aS'!='
p723
aS'variable_14'
p724
ag10
aS'if'
p725
ag6
aS'variable_19'
p726
ag189
ag6
aS'variable_21'
p727
ag8
aS'1024'
p728
ag10
aS'&&'
p729
aS'variable_19'
p730
ag194
ag20
ag10
aS'apr_size_t'
p731
aS'variable_22'
p732
ag19
aS'variable_19'
p733
ag13
aS'apr_size_t'
p734
aS'variable_23'
p735
ag13
aS'apr_off_t'
p736
aS'variable_24'
p737
ag19
ag20
ag13
aS'char'
p738
ag8
aS'variable_25'
p739
ag19
aS'func_71'
p740
ag6
aS'variable_10'
p741
aS'->'
p742
aS'variable_12'
p743
ag32
aS'variable_19'
p744
aS'+'
p745
ag33
ag10
ag13
aS'variable_25'
p746
aS'['
p747
aS'variable_19'
p748
aS']'
p749
ag19
ag20
ag13
aS'if'
p750
ag6
aS'variable_8'
p751
ag10
aS'while'
p752
ag6
aS'variable_22'
p753
ag194
ag20
ag10
aS'variable_23'
p754
ag19
aS'variable_22'
p755
ag13
aS'variable_4'
p756
ag19
aS'func_72'
p757
ag6
aS'variable_3'
p758
ag32
aS'variable_25'
p759
ag745
aS'variable_24'
p760
ag32
ag57
aS'variable_23'
p761
ag10
ag13
aS'if'
p762
ag6
aS'variable_23'
p763
ag194
ag20
ag10
aS'variable_22'
p764
aS'-='
p765
aS'variable_23'
p766
ag13
aS'variable_24'
p767
aS'+='
p768
aS'variable_23'
p769
ag13
aaa(lp770
I0
aa(lp771
I1604
aa(lp772
(lp773
S'main'
p774
aaa(lp775
S'666 /home/SySeVR/data/CVE_2015_0228_VULN_lua_websocket_read.c rv = apr_socket_recv ( sock , buffer + at , & received ) 111'
p776
aa.