(lp0
(lp1
(lp2
S'static'
p3
aS'void'
p4
aS'func_0'
p5
aS'('
p6
aS'struct'
p7
aS'variable_0'
p8
aS'*'
p9
aS'variable_1'
p10
aS','
p11
aS'int'
p12
aS'variable_2'
p13
aS')'
p14
aS'struct'
p15
aS'variable_3'
p16
ag9
aS'variable_4'
p17
aS'='
p18
aS'variable_1'
p19
aS'->'
p20
aS'variable_5'
p21
aS';'
p22
aS'struct'
p23
aS'variable_6'
p24
ag9
aS'variable_7'
p25
ag18
aS'variable_1'
p26
aS'->'
p27
aS'variable_7'
p28
ag22
aS'struct'
p29
aS'variable_8'
p30
ag9
aS'variable_9'
p31
ag18
aS'variable_4'
p32
aS'->'
p33
aS'variable_10'
p34
ag22
aS'struct'
p35
aS'variable_11'
p36
ag9
aS'variable_12'
p37
ag18
aS'variable_1'
p38
aS'->'
p39
aS'variable_13'
p40
ag22
aS'int'
p41
aS'variable_14'
p42
ag18
aS'variable_2'
p43
ag22
aS'if'
p44
ag6
aS'!'
p45
aS'variable_4'
p46
aS'->'
p47
aS'variable_10'
p48
ag14
aS'if'
p49
ag6
aS'variable_1'
p50
aS'->'
p51
aS'variable_15'
p52
aS'=='
p53
aS'variable_16'
p54
ag14
aS'if'
p55
ag6
aS'variable_2'
p56
aS'!='
p57
aS'variable_17'
p58
aS'&&'
p59
aS'variable_1'
p60
aS'->'
p61
aS'variable_18'
p62
ag14
aS'variable_1'
p63
aS'->'
p64
aS'variable_18'
p65
ag18
aS'0'
p66
ag22
aS'variable_1'
p67
aS'->'
p68
aS'variable_19'
p69
ag18
ag66
ag22
aS'variable_1'
p70
aS'->'
p71
aS'variable_20'
p72
ag18
ag66
ag22
aS'if'
p73
ag6
ag6
aS'variable_2'
p74
aS'=='
p75
aS'variable_17'
p76
ag14
aS'&&'
p77
ag6
ag6
aS'variable_9'
p78
aS'->'
p79
aS'variable_21'
p80
aS'=='
p81
aS'variable_22'
p82
ag14
aS'||'
p83
ag6
aS'func_1'
p84
ag6
aS'func_2'
p85
ag6
aS'&'
p86
aS'variable_4'
p87
aS'->'
p88
aS'variable_1'
p89
ag14
ag11
aS'variable_23'
p90
ag14
ag14
ag14
ag14
aS'variable_14'
p91
ag18
aS'variable_24'
p92
ag22
aS'if'
p93
ag6
ag6
aS'variable_2'
p94
aS'=='
p95
aS'variable_25'
p96
ag14
aS'&&'
p97
ag6
ag45
aS'variable_7'
p98
ag14
aS'&&'
p99
ag6
aS'func_3'
p100
ag6
ag86
aS'variable_4'
p101
aS'->'
p102
aS'variable_26'
p103
ag14
ag14
ag14
aS'const'
p104
aS'char'
p105
ag9
aS'variable_27'
p106
ag22
aS'struct'
p107
aS'variable_6'
p108
ag9
aS'variable_28'
p109
ag22
aS'variable_27'
p110
ag18
aS'func_4'
p111
ag6
aS'variable_12'
p112
ag11
aS'"'
p113
aS'SLASTATION'
p114
ag113
ag14
ag22
aS'if'
p115
ag6
aS'variable_27'
p116
ag14
aS'variable_7'
p117
ag18
aS'variable_28'
p118
ag22
aS'if'
p119
ag6
aS'variable_7'
p120
ag14
aS'variable_7'
p121
aS'->'
p122
aS'variable_1'
p123
ag18
aS'variable_1'
p124
ag22
aS'variable_1'
p125
aS'->'
p126
aS'variable_7'
p127
ag18
aS'variable_7'
p128
ag22
aS'variable_7'
p129
aS'->'
p130
aS'variable_29'
p131
ag18
aS'variable_1'
p132
aS'->'
p133
aS'variable_29'
p134
ag22
aS'if'
p135
ag6
aS'variable_7'
p136
ag14
aS'switch'
p137
ag6
aS'variable_14'
p138
ag14
aS'if'
p139
ag6
aS'variable_1'
p140
aS'->'
p141
aS'variable_30'
p142
ag14
aS'variable_1'
p143
aS'->'
p144
aS'variable_30'
p145
aS'->'
p146
aS'variable_30'
p147
ag18
aS'NULL'
p148
ag22
aS'variable_1'
p149
aS'->'
p150
aS'variable_31'
p151
ag18
aS'variable_32'
p152
ag22
aS'variable_1'
p153
aS'->'
p154
aS'variable_15'
p155
ag18
aS'variable_16'
p156
ag22
aS'if'
p157
ag6
aS'variable_1'
p158
aS'->'
p159
aS'variable_33'
p160
ag14
aS'variable_1'
p161
aS'->'
p162
aS'variable_33'
p163
ag18
aS'NULL'
p164
ag22
aS'variable_1'
p165
aS'->'
p166
aS'variable_15'
p167
ag18
aS'variable_16'
p168
ag22
aS'variable_1'
p169
aS'->'
p170
aS'variable_15'
p171
ag18
aS'variable_25'
p172
ag22
aS'if'
p173
ag6
aS'variable_1'
p174
aS'->'
p175
aS'variable_15'
p176
aS'!='
p177
aS'variable_25'
p178
ag14
aS'variable_1'
p179
aS'->'
p180
aS'variable_15'
p181
ag18
aS'variable_34'
p182
ag22
aS'if'
p183
ag6
ag6
aS'variable_9'
p184
aS'->'
p185
aS'variable_21'
p186
aS'=='
p187
aS'variable_35'
p188
ag14
aS'&&'
p189
ag6
ag6
aS'variable_14'
p190
aS'=='
p191
aS'variable_36'
p192
ag14
aS'||'
p193
ag6
aS'variable_14'
p194
aS'=='
p195
aS'variable_37'
p196
ag14
aS'||'
p197
ag6
aS'variable_14'
p198
aS'=='
p199
aS'variable_38'
p200
ag14
aS'||'
p201
ag6
aS'variable_14'
p202
aS'=='
p203
aS'variable_25'
p204
ag14
aS'||'
p205
ag6
aS'variable_14'
p206
aS'=='
p207
aS'variable_39'
p208
ag14
aS'||'
p209
ag6
aS'variable_14'
p210
aS'=='
p211
aS'variable_40'
p212
ag14
aS'||'
p213
ag6
aS'variable_14'
p214
aS'=='
p215
aS'variable_41'
p216
ag14
ag14
ag14
aS'variable_9'
p217
aS'->'
p218
aS'variable_21'
p219
ag18
aS'variable_22'
p220
ag22
aS'if'
p221
ag6
aS'variable_14'
p222
aS'=='
p223
aS'variable_1'
p224
aS'->'
p225
aS'variable_15'
p226
ag14
aS'switch'
p227
ag6
aS'variable_14'
p228
ag14
aS'variable_4'
p229
aS'->'
p230
aS'variable_42'
p231
ag18
aS'variable_1'
p232
ag22
aS'variable_1'
p233
aS'->'
p234
aS'variable_15'
p235
ag18
aS'variable_36'
p236
ag22
aS'if'
p237
ag6
aS'variable_1'
p238
aS'->'
p239
aS'variable_30'
p240
ag14
aS'variable_1'
p241
aS'->'
p242
aS'variable_30'
p243
aS'->'
p244
aS'variable_30'
p245
ag18
aS'NULL'
p246
ag22
aS'if'
p247
ag6
aS'variable_1'
p248
aS'=='
p249
aS'variable_4'
p250
aS'->'
p251
aS'variable_42'
p252
ag14
aS'variable_4'
p253
aS'->'
p254
aS'variable_42'
p255
ag18
aS'NULL'
p256
ag22
aS'variable_1'
p257
aS'->'
p258
aS'variable_31'
p259
ag18
aS'variable_32'
p260
ag22
aS'variable_1'
p261
aS'->'
p262
aS'variable_15'
p263
ag18
aS'variable_16'
p264
ag22
aS'if'
p265
ag6
aS'variable_1'
p266
aS'->'
p267
aS'variable_33'
p268
ag14
aS'variable_1'
p269
aS'->'
p270
aS'variable_33'
p271
ag18
aS'NULL'
p272
ag22
aS'if'
p273
ag6
aS'func_5'
p274
ag6
aS'variable_1'
p275
aS'->'
p276
aS'variable_43'
p277
ag14
aS'||'
p278
ag45
aS'func_6'
p279
ag6
aS'variable_12'
p280
ag11
aS'variable_12'
p281
aS'->'
p282
aS'variable_44'
p283
ag11
aS'variable_1'
p284
aS'->'
p285
aS'variable_43'
p286
ag11
aS'1'
p287
ag11
aS'variable_4'
p288
aS'->'
p289
aS'variable_45'
p290
ag14
ag14
aS'if'
p291
ag6
aS'variable_9'
p292
aS'->'
p293
aS'variable_21'
p294
aS'=='
p295
aS'variable_35'
p296
ag14
aS'variable_9'
p297
aS'->'
p298
aS'variable_21'
p299
ag18
aS'variable_22'
p300
ag22
aS'variable_1'
p301
aS'->'
p302
aS'variable_15'
p303
ag18
aS'variable_37'
p304
ag22
aS'if'
p305
ag6
ag45
ag6
aS'variable_1'
p306
aS'->'
p307
aS'variable_15'
p308
aS'=='
p309
aS'variable_37'
p310
aS'||'
p311
aS'variable_1'
p312
aS'->'
p313
aS'variable_15'
p314
aS'=='
p315
aS'variable_41'
p316
ag14
ag14
aS'variable_1'
p317
aS'->'
p318
aS'variable_15'
p319
ag18
aS'variable_38'
p320
ag22
aS'if'
p321
ag6
aS'variable_9'
p322
aS'->'
p323
aS'variable_21'
p324
aS'=='
p325
aS'variable_35'
p326
ag14
aS'variable_4'
p327
aS'->'
p328
aS'variable_42'
p329
ag18
aS'variable_1'
p330
ag22
aS'variable_1'
p331
aS'->'
p332
aS'variable_15'
p333
ag18
aS'variable_17'
p334
ag22
aS'variable_1'
p335
aS'->'
p336
aS'variable_15'
p337
ag18
aS'variable_24'
p338
ag22
aS'variable_1'
p339
aS'->'
p340
aS'variable_15'
p341
ag18
aS'variable_25'
p342
ag22
aS'variable_4'
p343
aS'->'
p344
aS'variable_42'
p345
ag18
aS'variable_1'
p346
ag22
aS'if'
p347
ag6
ag45
ag6
aS'variable_1'
p348
aS'->'
p349
aS'variable_15'
p350
aS'=='
p351
aS'variable_37'
p352
aS'||'
p353
aS'variable_1'
p354
aS'->'
p355
aS'variable_15'
p356
aS'=='
p357
aS'variable_41'
p358
aS'||'
p359
aS'variable_1'
p360
aS'->'
p361
aS'variable_15'
p362
aS'=='
p363
aS'variable_38'
p364
ag14
ag14
aS'variable_1'
p365
aS'->'
p366
aS'variable_15'
p367
ag18
aS'variable_39'
p368
ag22
aS'if'
p369
ag6
ag45
ag6
aS'variable_1'
p370
aS'->'
p371
aS'variable_15'
p372
aS'=='
p373
aS'variable_37'
p374
aS'||'
p375
aS'variable_1'
p376
aS'->'
p377
aS'variable_15'
p378
aS'=='
p379
aS'variable_41'
p380
aS'||'
p381
aS'variable_1'
p382
aS'->'
p383
aS'variable_15'
p384
aS'=='
p385
aS'variable_38'
p386
ag14
ag14
aS'variable_1'
p387
aS'->'
p388
aS'variable_15'
p389
ag18
aS'variable_40'
p390
ag22
aS'if'
p391
ag6
aS'variable_1'
p392
aS'->'
p393
aS'variable_15'
p394
aS'!='
p395
aS'variable_37'
p396
ag14
aS'variable_1'
p397
aS'->'
p398
aS'variable_15'
p399
ag18
aS'variable_41'
p400
ag22
aS'if'
p401
ag6
aS'variable_1'
p402
aS'->'
p403
aS'variable_15'
p404
aS'!='
p405
aS'variable_25'
p406
ag14
aS'func_7'
p407
ag6
aS'variable_1'
p408
aS'->'
p409
aS'variable_13'
p410
ag11
aS'variable_46'
p411
ag11
aS'func_8'
p412
ag6
aS'variable_4'
p413
aS'->'
p414
aS'variable_47'
p415
ag11
aS'NULL'
p416
ag14
ag11
ag45
aS'func_9'
p417
ag6
aS'variable_4'
p418
aS'->'
p419
aS'variable_47'
p420
ag14
aS'?'
p421
aS'strlen'
p422
ag6
aS'variable_4'
p423
aS'->'
p424
aS'variable_47'
p425
ag14
aS'+'
p426
ag287
aS':'
p427
ag66
ag14
ag22
aa(lp428
S'static'
p429
aS'void'
p430
aS'func_0'
p431
ag6
aS'struct'
p432
aS'variable_0'
p433
ag9
aS'variable_1'
p434
ag11
aS'int'
p435
aS'variable_2'
p436
ag14
aS'struct'
p437
aS'variable_3'
p438
ag9
aS'variable_4'
p439
ag18
aS'variable_1'
p440
aS'->'
p441
aS'variable_5'
p442
ag22
aS'struct'
p443
aS'variable_6'
p444
ag9
aS'variable_7'
p445
ag18
aS'variable_1'
p446
aS'->'
p447
aS'variable_7'
p448
ag22
aS'struct'
p449
aS'variable_8'
p450
ag9
aS'variable_9'
p451
ag18
aS'variable_4'
p452
aS'->'
p453
aS'variable_10'
p454
ag22
aS'struct'
p455
aS'variable_11'
p456
ag9
aS'variable_12'
p457
ag18
aS'variable_1'
p458
aS'->'
p459
aS'variable_13'
p460
ag22
aS'int'
p461
aS'variable_14'
p462
ag18
aS'variable_2'
p463
ag22
aS'if'
p464
ag6
ag45
aS'variable_4'
p465
aS'->'
p466
aS'variable_10'
p467
ag14
aS'if'
p468
ag6
aS'variable_1'
p469
aS'->'
p470
aS'variable_15'
p471
aS'=='
p472
aS'variable_16'
p473
ag14
aS'if'
p474
ag6
aS'variable_2'
p475
aS'!='
p476
aS'variable_17'
p477
aS'&&'
p478
aS'variable_1'
p479
aS'->'
p480
aS'variable_18'
p481
ag14
aS'variable_1'
p482
aS'->'
p483
aS'variable_18'
p484
ag18
ag66
ag22
aS'variable_1'
p485
aS'->'
p486
aS'variable_19'
p487
ag18
ag66
ag22
aS'variable_1'
p488
aS'->'
p489
aS'variable_20'
p490
ag18
ag66
ag22
aS'if'
p491
ag6
ag6
aS'variable_2'
p492
aS'=='
p493
aS'variable_17'
p494
ag14
aS'&&'
p495
ag6
ag6
aS'variable_9'
p496
aS'->'
p497
aS'variable_21'
p498
aS'=='
p499
aS'variable_22'
p500
ag14
aS'||'
p501
ag6
aS'func_1'
p502
ag6
aS'func_2'
p503
ag6
ag86
aS'variable_4'
p504
aS'->'
p505
aS'variable_1'
p506
ag14
ag11
aS'variable_23'
p507
ag14
ag14
ag14
ag14
aS'variable_14'
p508
ag18
aS'variable_24'
p509
ag22
aS'if'
p510
ag6
ag6
aS'variable_2'
p511
aS'=='
p512
aS'variable_25'
p513
ag14
aS'&&'
p514
ag6
ag45
aS'variable_7'
p515
ag14
aS'&&'
p516
ag6
aS'func_3'
p517
ag6
ag86
aS'variable_4'
p518
aS'->'
p519
aS'variable_26'
p520
ag14
ag14
ag14
aS'const'
p521
aS'char'
p522
ag9
aS'variable_27'
p523
ag22
aS'struct'
p524
aS'variable_6'
p525
ag9
aS'variable_28'
p526
ag22
aS'variable_27'
p527
ag18
aS'func_4'
p528
ag6
aS'variable_12'
p529
ag11
ag113
aS'SLASTATION'
p530
ag113
ag14
ag22
aS'if'
p531
ag6
aS'variable_27'
p532
ag14
aS'variable_7'
p533
ag18
aS'variable_28'
p534
ag22
aS'if'
p535
ag6
aS'variable_7'
p536
ag14
aS'variable_7'
p537
aS'->'
p538
aS'variable_1'
p539
ag18
aS'variable_1'
p540
ag22
aS'variable_1'
p541
aS'->'
p542
aS'variable_7'
p543
ag18
aS'variable_7'
p544
ag22
aS'variable_7'
p545
aS'->'
p546
aS'variable_29'
p547
ag18
aS'variable_1'
p548
aS'->'
p549
aS'variable_29'
p550
ag22
aS'if'
p551
ag6
aS'variable_7'
p552
ag14
aS'switch'
p553
ag6
aS'variable_14'
p554
ag14
aS'if'
p555
ag6
aS'variable_1'
p556
aS'->'
p557
aS'variable_30'
p558
ag14
aS'variable_1'
p559
aS'->'
p560
aS'variable_30'
p561
aS'->'
p562
aS'variable_30'
p563
ag18
aS'NULL'
p564
ag22
aS'variable_1'
p565
aS'->'
p566
aS'variable_31'
p567
ag18
aS'variable_32'
p568
ag22
aS'variable_1'
p569
aS'->'
p570
aS'variable_15'
p571
ag18
aS'variable_16'
p572
ag22
aS'if'
p573
ag6
aS'variable_1'
p574
aS'->'
p575
aS'variable_33'
p576
ag14
aS'variable_1'
p577
aS'->'
p578
aS'variable_33'
p579
ag18
aS'NULL'
p580
ag22
aS'variable_1'
p581
aS'->'
p582
aS'variable_15'
p583
ag18
aS'variable_16'
p584
ag22
aS'variable_1'
p585
aS'->'
p586
aS'variable_15'
p587
ag18
aS'variable_25'
p588
ag22
aS'if'
p589
ag6
aS'variable_1'
p590
aS'->'
p591
aS'variable_15'
p592
aS'!='
p593
aS'variable_25'
p594
ag14
aS'variable_1'
p595
aS'->'
p596
aS'variable_15'
p597
ag18
aS'variable_34'
p598
ag22
aS'func_5'
p599
ag6
aS'variable_1'
p600
aS'->'
p601
aS'variable_13'
p602
ag11
aS'variable_35'
p603
ag11
aS'func_6'
p604
ag6
aS'variable_4'
p605
aS'->'
p606
aS'variable_36'
p607
ag11
aS'NULL'
p608
ag14
ag11
ag45
aS'func_7'
p609
ag6
aS'variable_4'
p610
aS'->'
p611
aS'variable_36'
p612
ag14
ag421
aS'strlen'
p613
ag6
aS'variable_4'
p614
aS'->'
p615
aS'variable_36'
p616
ag14
ag426
ag287
ag427
ag66
ag14
ag22
aaa(lp617
I0
aI0
aa(lp618
I632
aI306
aa(lp619
(lp620
S'main'
p621
aa(lp622
g621
aaa(lp623
S'259 /home/SySeVR/data/CVE_2012_3553_PATCHED_setsubstate.c strlen 379'
p624
aS'260 /home/SySeVR/data/CVE_2012_3553_PATCHED_setsubstate.c strlen 131'
p625
aa.