(lp0
(lp1
(lp2
S'static'
p3
aS'int'
p4
aS'func_0'
p5
aS'('
p6
aS'struct'
p7
aS'variable_0'
p8
aS'*'
p9
aS'variable_1'
p10
aS','
p11
aS'int'
p12
aS'variable_2'
p13
ag11
aS'char'
p14
aS'variable_3'
p15
ag9
aS'variable_4'
p16
ag11
aS'int'
p17
aS'variable_5'
p18
aS')'
p19
aS'struct'
p20
aS'variable_1'
p21
ag9
aS'variable_6'
p22
aS'='
p23
aS'variable_1'
p24
aS'->'
p25
aS'variable_6'
p26
aS';'
p27
aS'variable_7'
p28
ag9
aS'variable_8'
p29
ag27
aS'int'
p30
aS'variable_9'
p31
ag11
aS'variable_10'
p32
ag23
aS'0'
p33
ag27
aS'if'
p34
ag6
aS'variable_2'
p35
aS'!='
p36
aS'variable_11'
p37
ag19
aS'if'
p38
ag6
aS'variable_5'
p39
aS'<'
p40
aS'sizeof'
p41
ag6
aS'int'
p42
ag19
ag19
aS'if'
p43
ag6
aS'func_1'
p44
ag6
aS'variable_9'
p45
ag11
ag6
aS'int'
p46
aS'__user'
p47
ag9
ag19
aS'variable_4'
p48
ag19
ag19
aS'variable_8'
p49
ag23
aS'func_2'
p50
ag6
aS'variable_6'
p51
ag19
ag27
aS'switch'
p52
ag6
aS'variable_12'
p53
ag19
aS'if'
p54
ag6
aS'variable_9'
p55
ag40
aS'1'
p56
ag19
aS'variable_8'
p57
aS'->'
p58
aS'variable_13'
p59
ag23
aS'variable_9'
p60
ag9
aS'variable_14'
p61
ag27
aa(lp62
S'static'
p63
aS'int'
p64
aS'func_0'
p65
ag6
aS'struct'
p66
aS'variable_0'
p67
ag9
aS'variable_1'
p68
ag11
aS'int'
p69
aS'variable_2'
p70
ag11
aS'char'
p71
aS'variable_3'
p72
ag9
aS'variable_4'
p73
ag11
aS'int'
p74
aS'variable_5'
p75
ag19
aS'struct'
p76
aS'variable_1'
p77
ag9
aS'variable_6'
p78
ag23
aS'variable_1'
p79
aS'->'
p80
aS'variable_6'
p81
ag27
aS'variable_7'
p82
ag9
aS'variable_8'
p83
ag27
aS'int'
p84
aS'variable_9'
p85
ag11
aS'variable_10'
p86
ag23
ag33
ag27
aS'if'
p87
ag6
aS'variable_2'
p88
aS'!='
p89
aS'variable_11'
p90
ag19
aS'if'
p91
ag6
aS'variable_5'
p92
ag40
aS'sizeof'
p93
ag6
aS'int'
p94
ag19
ag19
aS'if'
p95
ag6
aS'func_1'
p96
ag6
aS'variable_9'
p97
ag11
ag6
aS'int'
p98
aS'__user'
p99
ag9
ag19
aS'variable_4'
p100
ag19
ag19
aS'variable_8'
p101
ag23
aS'func_2'
p102
ag6
aS'variable_6'
p103
ag19
ag27
aS'switch'
p104
ag6
aS'variable_12'
p105
ag19
aS'if'
p106
ag6
aS'variable_9'
p107
ag40
ag56
ag19
aS'variable_8'
p108
aS'->'
p109
aS'variable_13'
p110
ag23
aS'variable_9'
p111
ag9
aS'variable_14'
p112
ag27
aa(lp113
S'static'
p114
aS'int'
p115
aS'func_0'
p116
ag6
aS'struct'
p117
aS'variable_0'
p118
ag9
aS'variable_1'
p119
ag11
aS'int'
p120
aS'variable_2'
p121
ag11
aS'char'
p122
aS'variable_3'
p123
ag9
aS'variable_4'
p124
ag11
aS'int'
p125
aS'variable_5'
p126
ag19
aS'struct'
p127
aS'variable_1'
p128
ag9
aS'variable_6'
p129
ag23
aS'variable_1'
p130
aS'->'
p131
aS'variable_6'
p132
ag27
aS'variable_7'
p133
ag9
aS'variable_8'
p134
ag27
aS'int'
p135
aS'variable_9'
p136
ag11
aS'variable_10'
p137
ag23
ag33
ag27
aS'if'
p138
ag6
aS'variable_2'
p139
aS'!='
p140
aS'variable_11'
p141
ag19
aS'if'
p142
ag6
aS'variable_5'
p143
ag40
aS'sizeof'
p144
ag6
aS'int'
p145
ag19
ag19
aS'if'
p146
ag6
aS'func_1'
p147
ag6
aS'variable_9'
p148
ag11
ag6
aS'int'
p149
aS'__user'
p150
ag9
ag19
aS'variable_4'
p151
ag19
ag19
aS'variable_8'
p152
ag23
aS'func_2'
p153
ag6
aS'variable_6'
p154
ag19
ag27
aS'switch'
p155
ag6
aS'variable_12'
p156
ag19
aS'if'
p157
ag6
aS'variable_9'
p158
ag40
ag56
ag19
aS'variable_8'
p159
aS'->'
p160
aS'variable_13'
p161
ag23
ag6
aS'variable_9'
p162
ag9
aS'variable_14'
p163
ag19
aS'>>'
p164
ag56
ag27
aS'variable_8'
p165
aS'->'
p166
aS'variable_15'
p167
ag23
aS'variable_9'
p168
ag9
aS'variable_14'
p169
ag27
aaa(lp170
I0
aI0
aI0
aa(lp171
I92
aI92
aI104
aa(lp172
(lp173
S'main'
p174
aa(lp175
g174
aa(lp176
g174
aaa(lp177
S'80 /home/SySeVR/data/CVE_2009_2909_VULN_ax25_setsockopt.c ax25 -> t3 = opt * HZ 68'
p178
aS'81 /home/SySeVR/data/CVE_2009_2909_VULN_ax25_setsockopt.c ax25 -> t2 = opt * HZ 52'
p179
aS'82 /home/SySeVR/data/CVE_2009_2909_VULN_ax25_setsockopt.c ax25 -> t1 = opt * HZ 44'
p180
aa.