(lp0
(lp1
(lp2
S'void'
p3
aS'func_0'
p4
aS'('
p5
aS'GLuint'
p6
aS'variable_0'
p7
aS','
p8
aS'GLuint'
p9
aS'variable_1'
p10
ag8
aS'const'
p11
aS'void'
p12
aS'*'
p13
aS'variable_2'
p14
aS')'
p15
aS'if'
p16
ag5
aS'variable_3'
p17
aS'=='
p18
aS'variable_4'
p19
aS'&&'
p20
aS'variable_5'
p21
ag15
aS'memcpy'
p22
ag5
ag5
aS'void'
p23
ag13
ag15
ag5
aS'size_t'
p24
ag5
aS'variable_6'
p25
ag15
aS'+'
p26
aS'variable_0'
p27
ag15
ag8
aS'variable_2'
p28
ag8
aS'variable_1'
p29
ag15
aS';'
p30
aaa(lp31
I0
aa(lp32
I22
aa(lp33
(lp34
S'main'
p35
aaa(lp36
S'480 /home/SySeVR/data/CVE_2011_3003_PATCHED_CopySubDataIfElementArray.c memcpy 3'
p37
aa.