(lp0
(lp1
(lp2
S'void'
p3
aS'func_0'
p4
aS'('
p5
aS'float'
p6
aS'*'
p7
aS'uint32_t'
p8
aS'variable_0'
p9
aS')'
p10
aS'uint32_t'
p11
aS'variable_1'
p12
aS'='
p13
aS'variable_2'
p14
aS'->'
p15
aS'func_1'
p16
ag5
ag10
aS';'
p17
aS'float'
p18
ag7
aS'variable_3'
p19
ag13
aS'variable_4'
p20
ag17
aS'float'
p21
aS'variable_5'
p22
ag13
aS'1'
p23
aS'.'
p24
aS'0'
p25
aS'/'
p26
aS'variable_6'
p27
aS'->'
p28
aS'func_2'
p29
ag5
ag10
ag17
aS'for'
p30
ag5
aS'uint32_t'
p31
aS'variable_7'
p32
ag13
aS'variable_8'
p33
ag17
aS'variable_7'
p34
aS'<'
p35
aS'variable_0'
p36
ag17
aS'++'
p37
aS'variable_7'
p38
ag10
aS'variable_9'
p39
aS'+='
p40
aS'variable_1'
p41
ag7
aS'variable_10'
p42
ag7
aS'variable_5'
p43
ag17
aS'if'
p44
ag5
aS'variable_9'
p45
aS'>'
p46
ag13
aS'variable_1'
p47
ag10
aS'variable_9'
p48
aS'-='
p49
aS'variable_1'
p50
ag17
aS'uint32_t'
p51
aS'variable_11'
p52
ag13
aS'floor'
p53
ag5
aS'variable_9'
p54
ag10
ag17
aS'uint32_t'
p55
aS'variable_12'
p56
ag13
aS'variable_11'
p57
aS'+'
p58
ag23
ag17
aS'if'
p59
ag5
aS'variable_12'
p60
ag46
ag13
aS'variable_1'
p61
ag10
aS'variable_12'
p62
aS'-='
p63
aS'variable_1'
p64
ag17
aS'float'
p65
aS'variable_13'
p66
ag13
aS'variable_9'
p67
aS'-'
p68
aS'variable_11'
p69
ag17
aS'float'
p70
aS'variable_14'
p71
ag13
aS'variable_13'
p72
ag7
aS'variable_3'
p73
aS'['
p74
aS'variable_11'
p75
aS']'
p76
ag58
ag5
ag23
ag68
aS'variable_13'
p77
ag10
ag7
aS'variable_3'
p78
ag74
aS'variable_12'
p79
ag76
ag17
aS'variable_15'
p80
ag74
aS'variable_7'
p81
ag76
ag13
aS'variable_16'
p82
ag7
aS'variable_17'
p83
ag58
ag5
ag23
ag68
aS'variable_16'
p84
ag10
ag7
aS'variable_14'
p85
ag17
aa(lp86
S'void'
p87
aS'func_0'
p88
ag5
aS'float'
p89
ag7
aS'uint32_t'
p90
aS'variable_0'
p91
ag10
aS'uint32_t'
p92
aS'variable_1'
p93
ag13
aS'variable_2'
p94
aS'->'
p95
aS'func_1'
p96
ag5
ag10
ag17
aS'float'
p97
ag7
aS'variable_3'
p98
ag13
aS'variable_4'
p99
ag17
aS'float'
p100
aS'variable_5'
p101
ag13
ag23
ag24
ag25
ag26
aS'variable_6'
p102
aS'->'
p103
aS'func_2'
p104
ag5
ag10
ag17
aS'for'
p105
ag5
aS'uint32_t'
p106
aS'variable_7'
p107
ag13
aS'variable_8'
p108
ag17
aS'variable_7'
p109
ag35
aS'variable_0'
p110
ag17
aS'++'
p111
aS'variable_7'
p112
ag10
aS'variable_9'
p113
aS'+='
p114
aS'variable_1'
p115
ag7
aS'variable_10'
p116
ag7
aS'variable_5'
p117
ag17
aS'if'
p118
ag5
aS'variable_9'
p119
ag46
ag13
aS'variable_1'
p120
ag10
aS'variable_9'
p121
aS'-='
p122
aS'variable_1'
p123
ag17
aS'uint32_t'
p124
aS'variable_11'
p125
ag13
aS'floor'
p126
ag5
aS'variable_9'
p127
ag10
ag17
aS'uint32_t'
p128
aS'variable_12'
p129
ag13
aS'variable_11'
p130
ag58
ag23
ag17
aS'if'
p131
ag5
aS'variable_12'
p132
ag46
ag13
aS'variable_1'
p133
ag10
aS'variable_12'
p134
aS'-='
p135
aS'variable_1'
p136
ag17
aS'float'
p137
aS'variable_13'
p138
ag13
aS'variable_9'
p139
ag68
aS'variable_11'
p140
ag17
aS'float'
p141
aS'variable_14'
p142
ag13
aS'variable_13'
p143
ag7
aS'variable_3'
p144
ag74
aS'variable_11'
p145
ag76
ag58
ag5
ag23
ag68
aS'variable_13'
p146
ag10
ag7
aS'variable_3'
p147
ag74
aS'variable_12'
p148
ag76
ag17
aS'variable_15'
p149
ag74
aS'variable_7'
p150
ag76
ag13
aS'variable_16'
p151
ag7
aS'variable_14'
p152
ag58
ag5
ag23
ag68
aS'variable_16'
p153
ag10
ag7
aS'variable_17'
p154
ag17
aa(lp155
S'void'
p156
aS'func_0'
p157
ag5
aS'float'
p158
ag7
aS'uint32_t'
p159
aS'variable_0'
p160
ag10
aS'uint32_t'
p161
aS'variable_1'
p162
ag13
aS'variable_2'
p163
aS'->'
p164
aS'func_1'
p165
ag5
ag10
ag17
aS'float'
p166
aS'variable_3'
p167
ag13
ag23
ag24
ag25
ag26
aS'variable_4'
p168
aS'->'
p169
aS'func_2'
p170
ag5
ag10
ag17
aS'for'
p171
ag5
aS'uint32_t'
p172
aS'variable_5'
p173
ag13
aS'variable_6'
p174
ag17
aS'variable_5'
p175
ag35
aS'variable_0'
p176
ag17
aS'++'
p177
aS'variable_5'
p178
ag10
aS'variable_7'
p179
aS'+='
p180
aS'variable_1'
p181
ag7
aS'variable_8'
p182
ag7
aS'variable_3'
p183
ag17
aS'if'
p184
ag5
aS'variable_7'
p185
ag46
ag13
aS'variable_1'
p186
ag10
aS'variable_7'
p187
aS'-='
p188
aS'variable_1'
p189
ag17
aS'uint32_t'
p190
aS'variable_9'
p191
ag13
aS'floor'
p192
ag5
aS'variable_7'
p193
ag10
ag17
aS'float'
p194
aS'variable_10'
p195
ag13
aS'variable_7'
p196
ag68
aS'variable_9'
p197
ag17
aS'float'
p198
aS'variable_11'
p199
ag13
aS'variable_10'
p200
ag7
aS'variable_12'
p201
ag74
aS'variable_9'
p202
ag76
ag58
ag5
ag23
ag68
aS'variable_10'
p203
ag10
ag7
aS'variable_12'
p204
ag74
aS'variable_13'
p205
ag76
ag17
aS'float'
p206
aS'variable_14'
p207
ag13
aS'variable_10'
p208
ag7
aS'variable_15'
p209
ag74
aS'variable_9'
p210
ag76
ag58
ag5
ag23
ag68
aS'variable_10'
p211
ag10
ag7
aS'variable_15'
p212
ag74
aS'variable_13'
p213
ag76
ag17
aS'variable_16'
p214
ag74
aS'variable_5'
p215
ag76
ag13
aS'variable_17'
p216
ag7
aS'variable_11'
p217
ag58
ag5
ag23
ag68
aS'variable_17'
p218
ag10
ag7
aS'variable_14'
p219
ag17
aaa(lp220
I0
aI0
aI0
aa(lp221
I120
aI120
aI76
aa(lp222
(lp223
S'main'
p224
aa(lp225
g224
aa(lp226
g224
aaa(lp227
S'890 /home/SySeVR/data/CVE_2014_1522_VULN_ComputeCustom.c float higher = sampleInterpolationFactor * higherWaveData [ j1 ] + ( 1 - sampleInterpolationFactor ) * higherWaveData [ j2 ] ; 34'
p228
aS'891 /home/SySeVR/data/CVE_2014_1522_VULN_ComputeCustom.c float lower = sampleInterpolationFactor * lowerWaveData [ j1 ] + ( 1 - sampleInterpolationFactor ) * lowerWaveData [ j2 ] ; 32'
p229
aS'892 /home/SySeVR/data/CVE_2014_1522_VULN_ComputeCustom.c float sampleInterpolationFactor = mPhase - j1 ; 31'
p230
aa.