(lp0
(lp1
(lp2
S'static'
p3
aS'void'
p4
aS'func_0'
p5
aS'('
p6
aS'struct'
p7
aS'variable_0'
p8
aS'*'
p9
aS'variable_1'
p10
aS')'
p11
aS'struct'
p12
aS'variable_2'
p13
ag9
aS'variable_2'
p14
aS'='
p15
ag6
aS'struct'
p16
aS'ra_msg'
p17
ag9
ag11
aS'func_1'
p18
ag6
aS'variable_1'
p19
ag11
aS';'
p20
aS'struct'
p21
aS'variable_3'
p22
ag9
aS'variable_4'
p23
ag15
aS'NULL'
p24
ag20
aS'struct'
p25
aS'variable_5'
p26
ag9
aS'variable_6'
p27
ag20
aS'int'
p28
aS'variable_7'
p29
ag20
aS'struct'
p30
aS'ndisc_options'
p31
aS'variable_8'
p32
ag20
aS'int'
p33
aS'variable_9'
p34
ag20
aS'variable_10'
p35
ag9
aS'variable_11'
p36
ag15
ag6
aS'__u8'
p37
ag9
ag11
ag6
aS'variable_2'
p38
aS'+'
p39
aS'1'
p40
ag11
ag20
aS'variable_9'
p41
ag15
ag6
aS'variable_1'
p42
aS'->'
p43
aS'variable_12'
p44
aS'-'
p45
aS'variable_1'
p46
aS'->'
p47
aS'variable_13'
p48
ag11
ag45
aS'sizeof'
p49
ag6
aS'struct'
p50
aS'variable_2'
p51
ag11
ag20
aS'if'
p52
ag6
aS'!'
p53
ag6
aS'func_2'
p54
ag6
aS'&'
p55
aS'func_3'
p56
ag6
aS'variable_1'
p57
ag11
aS'->'
p58
aS'variable_14'
p59
ag11
ag55
aS'variable_15'
p60
ag11
ag11
aS'if'
p61
ag6
aS'variable_9'
p62
aS'<'
p63
aS'0'
p64
ag11
aS'if'
p65
ag6
aS'variable_1'
p66
aS'->'
p67
aS'variable_16'
p68
aS'=='
p69
aS'variable_17'
p70
ag11
aS'variable_6'
p71
ag15
aS'func_4'
p72
ag6
aS'variable_1'
p73
aS'->'
p74
aS'variable_18'
p75
ag11
ag20
aS'if'
p76
ag6
aS'variable_6'
p77
aS'=='
p78
aS'NULL'
p79
ag11
aS'if'
p80
ag6
ag53
aS'func_5'
p81
ag6
aS'variable_11'
p82
aS','
p83
aS'variable_9'
p84
ag83
ag55
aS'variable_8'
p85
ag11
ag11
aS'if'
p86
ag6
ag53
aS'func_6'
p87
ag6
aS'variable_6'
p88
ag11
ag11
aS'if'
p89
ag6
aS'variable_1'
p90
aS'->'
p91
aS'variable_16'
p92
aS'=='
p93
aS'variable_19'
p94
ag11
aS'if'
p95
ag6
aS'variable_6'
p96
aS'->'
p97
aS'variable_20'
p98
ag55
aS'variable_21'
p99
ag11
aS'variable_6'
p100
aS'->'
p101
aS'variable_20'
p102
aS'|'
p103
ag15
aS'variable_22'
p104
ag20
aS'variable_6'
p105
aS'->'
p106
aS'variable_20'
p107
ag15
ag6
aS'variable_6'
p108
aS'->'
p109
aS'variable_20'
p110
ag55
aS'~'
p111
ag6
aS'variable_23'
p112
ag103
aS'variable_24'
p113
ag11
ag11
ag103
ag6
aS'variable_2'
p114
aS'->'
p115
aS'variable_25'
p116
aS'.'
p117
aS'variable_26'
p118
aS'?'
p119
aS'variable_23'
p120
aS':'
p121
ag64
ag11
ag103
ag6
aS'variable_2'
p122
aS'->'
p123
aS'variable_25'
p124
ag117
aS'variable_27'
p125
ag119
aS'variable_24'
p126
ag121
ag64
ag11
ag20
aS'if'
p127
ag6
ag53
aS'variable_6'
p128
aS'->'
p129
aS'variable_28'
p130
ag117
aS'variable_29'
p131
ag11
aS'if'
p132
ag6
aS'func_7'
p133
ag6
aS'func_8'
p134
ag6
aS'variable_6'
p135
aS'->'
p136
aS'variable_18'
p137
ag11
ag83
ag55
aS'func_9'
p138
ag6
aS'variable_1'
p139
ag11
aS'->'
p140
aS'variable_14'
p141
ag83
aS'NULL'
p142
ag83
ag64
ag11
ag11
aS'variable_7'
p143
ag15
aS'func_10'
p144
ag6
aS'variable_2'
p145
aS'->'
p146
aS'variable_25'
p147
ag117
aS'variable_30'
p148
ag11
ag20
aS'variable_31'
p149
ag15
aS'variable_2'
p150
aS'->'
p151
aS'variable_25'
p152
ag117
aS'variable_32'
p153
ag20
aS'if'
p154
ag6
aS'variable_31'
p155
aS'=='
p156
aS'variable_33'
p157
aS'||'
p158
ag53
aS'variable_6'
p159
aS'->'
p160
aS'variable_28'
p161
ag117
aS'variable_34'
p162
ag11
aS'variable_31'
p163
ag15
aS'variable_35'
p164
ag20
aS'variable_36'
p165
ag15
aS'func_11'
p166
ag6
ag55
aS'func_12'
p167
ag6
aS'variable_1'
p168
ag11
aS'->'
p169
aS'variable_14'
p170
ag83
aS'variable_1'
p171
aS'->'
p172
aS'variable_18'
p173
ag11
ag20
aS'if'
p174
ag6
aS'variable_36'
p175
ag11
aS'variable_4'
p176
ag15
aS'func_13'
p177
ag6
ag55
aS'variable_36'
p178
aS'->'
p179
aS'variable_37'
p180
ag83
ag55
aS'func_14'
p181
ag6
aS'variable_1'
p182
ag11
aS'->'
p183
aS'variable_14'
p184
ag11
ag20
aS'if'
p185
ag6
ag53
aS'variable_4'
p186
ag11
aS'if'
p187
ag6
aS'variable_36'
p188
aS'&&'
p189
aS'variable_7'
p190
aS'=='
p191
ag64
ag11
aS'variable_36'
p192
ag15
aS'NULL'
p193
ag20
aS'if'
p194
ag6
aS'variable_36'
p195
aS'=='
p196
aS'NULL'
p197
aS'&&'
p198
aS'variable_7'
p199
ag11
aS'variable_36'
p200
ag15
aS'func_15'
p201
ag6
ag55
aS'func_16'
p202
ag6
aS'variable_1'
p203
ag11
aS'->'
p204
aS'variable_14'
p205
ag83
aS'variable_1'
p206
aS'->'
p207
aS'variable_18'
p208
ag83
aS'variable_31'
p209
ag11
ag20
aS'if'
p210
ag6
aS'variable_36'
p211
aS'=='
p212
aS'NULL'
p213
ag11
aS'variable_4'
p214
ag15
aS'func_17'
p215
ag6
ag55
aS'variable_36'
p216
aS'->'
p217
aS'variable_37'
p218
ag83
ag55
aS'func_18'
p219
ag6
aS'variable_1'
p220
ag11
aS'->'
p221
aS'variable_14'
p222
ag11
ag20
aS'if'
p223
ag6
aS'variable_4'
p224
aS'=='
p225
aS'NULL'
p226
ag11
aS'variable_4'
p227
aS'->'
p228
aS'variable_38'
p229
ag103
ag15
aS'variable_39'
p230
ag20
aS'if'
p231
ag6
aS'variable_2'
p232
aS'->'
p233
aS'variable_25'
p234
ag117
aS'variable_40'
p235
ag11
aS'if'
p236
ag6
aS'variable_6'
p237
aS'->'
p238
aS'variable_28'
p239
ag117
aS'variable_41'
p240
ag63
aS'variable_2'
p241
aS'->'
p242
aS'variable_25'
p243
ag117
aS'variable_40'
p244
ag11
aS'variable_6'
p245
aS'->'
p246
aS'variable_28'
p247
ag117
aS'variable_41'
p248
ag15
aS'variable_2'
p249
aS'->'
p250
aS'variable_25'
p251
ag117
aS'variable_40'
p252
ag20
aS'if'
p253
ag6
aS'variable_6'
p254
aS'->'
p255
aS'variable_42'
p256
ag11
aS'unsigned'
p257
aS'long'
p258
aS'variable_43'
p259
ag15
aS'func_19'
p260
ag6
aS'variable_2'
p261
aS'->'
p262
aS'variable_44'
p263
ag11
ag20
aS'if'
p264
ag6
aS'variable_43'
p265
aS'&&'
p266
aS'variable_43'
p267
aS'/'
p268
aS'1000'
p269
ag63
aS'variable_45'
p270
ag268
aS'variable_46'
p271
ag11
aS'variable_43'
p272
ag15
ag6
aS'variable_43'
p273
ag9
aS'variable_46'
p274
ag11
ag268
aS'1000'
p275
ag20
aS'if'
p276
ag6
aS'variable_43'
p277
ag63
aS'variable_46'
p278
ag268
aS'10'
p279
ag11
aS'variable_43'
p280
ag15
aS'variable_46'
p281
ag268
aS'10'
p282
ag20
aS'variable_6'
p283
aS'->'
p284
aS'variable_42'
p285
aS'->'
p286
aS'variable_47'
p287
ag15
aS'variable_43'
p288
ag20
aS'variable_6'
p289
aS'->'
p290
aS'variable_48'
p291
ag15
aS'variable_49'
p292
ag20
aS'variable_43'
p293
ag15
aS'func_20'
p294
ag6
aS'variable_2'
p295
aS'->'
p296
aS'variable_50'
p297
ag11
ag20
aS'if'
p298
ag6
aS'variable_43'
p299
aS'&&'
p300
aS'variable_43'
p301
ag268
aS'1000'
p302
ag63
aS'variable_45'
p303
ag268
ag6
aS'3'
p304
ag9
aS'variable_46'
p305
ag11
ag11
aS'variable_43'
p306
ag15
ag6
aS'variable_43'
p307
ag9
aS'variable_46'
p308
ag11
ag268
aS'1000'
p309
ag20
aS'if'
p310
ag6
aS'variable_43'
p311
ag63
aS'variable_46'
p312
ag268
aS'10'
p313
ag11
aS'variable_43'
p314
ag15
aS'variable_46'
p315
ag268
aS'10'
p316
ag20
aS'if'
p317
ag6
aS'variable_43'
p318
aS'!='
p319
aS'variable_6'
p320
aS'->'
p321
aS'variable_42'
p322
aS'->'
p323
aS'variable_51'
p324
ag11
aS'variable_6'
p325
aS'->'
p326
aS'variable_42'
p327
aS'->'
p328
aS'variable_51'
p329
ag15
aS'variable_43'
p330
ag20
aS'variable_6'
p331
aS'->'
p332
aS'variable_42'
p333
aS'->'
p334
aS'variable_52'
p335
ag15
ag304
ag9
aS'variable_43'
p336
ag20
aS'variable_6'
p337
aS'->'
p338
aS'variable_42'
p339
aS'->'
p340
aS'variable_50'
p341
ag15
aS'func_21'
p342
ag6
aS'variable_43'
p343
ag11
ag20
aS'variable_6'
p344
aS'->'
p345
aS'variable_48'
p346
ag15
aS'variable_49'
p347
ag20
aS'if'
p348
ag6
ag53
aS'variable_4'
p349
ag11
aS'variable_4'
p350
ag15
aS'func_22'
p351
ag6
ag55
aS'variable_53'
p352
ag83
ag55
aS'func_23'
p353
ag6
aS'variable_1'
p354
ag11
aS'->'
p355
aS'variable_14'
p356
ag83
aS'variable_1'
p357
aS'->'
p358
aS'variable_18'
p359
ag83
ag40
ag11
ag20
aS'if'
p360
ag6
aS'variable_4'
p361
ag11
aS'if'
p362
ag6
aS'variable_8'
p363
ag117
aS'variable_54'
p364
ag11
aS'variable_55'
p365
ag15
aS'func_24'
p366
ag6
aS'variable_8'
p367
ag117
aS'variable_54'
p368
ag83
aS'variable_1'
p369
aS'->'
p370
aS'variable_18'
p371
ag11
ag20
aS'if'
p372
ag6
ag53
aS'variable_55'
p373
ag11
aS'if'
p374
ag6
ag53
aS'func_25'
p375
ag6
aS'variable_6'
p376
ag11
ag11
aS'if'
p377
ag6
aS'variable_1'
p378
aS'->'
p379
aS'variable_16'
p380
aS'=='
p381
aS'variable_19'
p382
ag11
aS'if'
p383
ag6
aS'variable_8'
p384
ag117
aS'variable_56'
p385
ag11
aS'__be32'
p386
aS'variable_57'
p387
ag20
aS'memcpy'
p388
ag6
ag55
aS'variable_57'
p389
ag83
ag6
ag6
aS'u8'
p390
ag9
ag11
ag6
aS'variable_8'
p391
ag117
aS'variable_56'
p392
ag39
ag40
ag11
ag11
ag39
aS'2'
p393
ag83
aS'sizeof'
p394
ag6
aS'variable_58'
p395
ag11
ag11
ag20
aS'variable_58'
p396
ag15
aS'func_26'
p397
ag6
aS'variable_57'
p398
ag11
ag20
aS'if'
p399
ag6
aS'variable_58'
p400
ag63
aS'variable_59'
p401
aS'||'
p402
aS'variable_58'
p403
aS'>'
p404
aS'variable_1'
p405
aS'->'
p406
aS'variable_18'
p407
aS'->'
p408
aS'variable_58'
p409
ag11
aS'func_27'
p410
ag6
ag393
ag83
aS'variable_60'
p411
ag83
aS'"'
p412
aS'RA'
p413
ag121
aS'invalid'
p414
aS'mtu'
p415
ag121
aS'%'
p416
aS'd'
p417
aS'\\'
p418
aS'n'
p419
ag412
ag83
aS'variable_58'
p420
ag11
ag20
aS'if'
p421
ag6
aS'variable_6'
p422
aS'->'
p423
aS'variable_28'
p424
ag117
aS'variable_61'
p425
aS'!='
p426
aS'variable_58'
p427
ag11
aS'variable_6'
p428
aS'->'
p429
aS'variable_28'
p430
ag117
aS'variable_61'
p431
ag15
aS'variable_58'
p432
ag20
aS'func_28'
p433
ag6
ag55
aS'variable_36'
p434
aS'->'
p435
aS'variable_37'
p436
ag83
aS'variable_62'
p437
ag83
aS'variable_58'
p438
ag11
ag20
aS'func_29'
p439
ag6
aS'variable_1'
p440
aS'->'
p441
aS'variable_18'
p442
ag83
aS'variable_58'
p443
ag11
ag20
aaa(lp444
I0
aa(lp445
I674
aa(lp446
(lp447
S'main'
p448
aaa(lp449
S'625 /home/SySeVR/data/CVE_2015_2922_PATCHED_ndisc_router_discovery.c memcpy 260'
p450
aa.