(lp0
(lp1
(lp2
S'static'
p3
aS'void'
p4
aS'func_0'
p5
aS'('
p6
aS'struct'
p7
aS'variable_0'
p8
aS'*'
p9
aS'variable_1'
p10
aS')'
p11
aS'struct'
p12
aS'variable_2'
p13
ag9
aS'variable_2'
p14
aS'='
p15
ag6
aS'struct'
p16
aS'ra_msg'
p17
ag9
ag11
aS'func_1'
p18
ag6
aS'variable_1'
p19
ag11
aS';'
p20
aS'struct'
p21
aS'variable_3'
p22
ag9
aS'variable_4'
p23
ag20
aS'int'
p24
aS'variable_5'
p25
ag20
aS'struct'
p26
aS'ndisc_options'
p27
aS'variable_6'
p28
ag20
aS'int'
p29
aS'variable_7'
p30
ag20
aS'variable_8'
p31
ag9
aS'variable_9'
p32
ag15
ag6
aS'__u8'
p33
ag9
ag11
ag6
aS'variable_2'
p34
aS'+'
p35
aS'1'
p36
ag11
ag20
aS'variable_7'
p37
ag15
ag6
aS'variable_1'
p38
aS'->'
p39
aS'variable_10'
p40
aS'-'
p41
aS'variable_1'
p42
aS'->'
p43
aS'variable_11'
p44
ag11
ag41
aS'sizeof'
p45
ag6
aS'struct'
p46
aS'variable_2'
p47
ag11
ag20
aS'if'
p48
ag6
aS'!'
p49
ag6
aS'func_2'
p50
ag6
aS'&'
p51
aS'func_3'
p52
ag6
aS'variable_1'
p53
ag11
aS'->'
p54
aS'variable_12'
p55
ag11
ag51
aS'variable_13'
p56
ag11
ag11
aS'if'
p57
ag6
aS'variable_7'
p58
aS'<'
p59
aS'0'
p60
ag11
aS'if'
p61
ag6
aS'variable_1'
p62
aS'->'
p63
aS'variable_14'
p64
aS'=='
p65
aS'variable_15'
p66
ag11
aS'variable_4'
p67
ag15
aS'func_4'
p68
ag6
aS'variable_1'
p69
aS'->'
p70
aS'variable_16'
p71
ag11
ag20
aS'if'
p72
ag6
aS'variable_4'
p73
aS'=='
p74
aS'NULL'
p75
ag11
aS'if'
p76
ag6
ag49
aS'func_5'
p77
ag6
aS'variable_9'
p78
aS','
p79
aS'variable_7'
p80
ag79
ag51
aS'variable_6'
p81
ag11
ag11
aS'if'
p82
ag6
ag49
aS'func_6'
p83
ag6
aS'variable_4'
p84
ag11
ag11
aS'if'
p85
ag6
aS'variable_1'
p86
aS'->'
p87
aS'variable_14'
p88
aS'=='
p89
aS'variable_17'
p90
ag11
aS'if'
p91
ag6
aS'variable_4'
p92
aS'->'
p93
aS'variable_18'
p94
ag51
aS'variable_19'
p95
ag11
aS'variable_4'
p96
aS'->'
p97
aS'variable_18'
p98
aS'|'
p99
ag15
aS'variable_20'
p100
ag20
aS'variable_4'
p101
aS'->'
p102
aS'variable_18'
p103
ag15
ag6
aS'variable_4'
p104
aS'->'
p105
aS'variable_18'
p106
ag51
aS'~'
p107
ag6
aS'variable_21'
p108
ag99
aS'variable_22'
p109
ag11
ag11
ag99
ag6
aS'variable_2'
p110
aS'->'
p111
aS'variable_23'
p112
aS'.'
p113
aS'variable_24'
p114
aS'?'
p115
aS'variable_21'
p116
aS':'
p117
ag60
ag11
ag99
ag6
aS'variable_2'
p118
aS'->'
p119
aS'variable_23'
p120
ag113
aS'variable_25'
p121
ag115
aS'variable_22'
p122
ag117
ag60
ag11
ag20
aS'if'
p123
ag6
ag49
aS'variable_4'
p124
aS'->'
p125
aS'variable_26'
p126
ag113
aS'variable_27'
p127
ag11
aS'if'
p128
ag6
aS'func_7'
p129
ag6
aS'func_8'
p130
ag6
aS'variable_4'
p131
aS'->'
p132
aS'variable_16'
p133
ag11
ag79
ag51
aS'func_9'
p134
ag6
aS'variable_1'
p135
ag11
aS'->'
p136
aS'variable_12'
p137
ag79
aS'NULL'
p138
ag79
ag60
ag11
ag11
aS'variable_5'
p139
ag15
aS'func_10'
p140
ag6
aS'variable_2'
p141
aS'->'
p142
aS'variable_23'
p143
ag113
aS'variable_28'
p144
ag11
ag20
aS'variable_29'
p145
ag15
aS'variable_2'
p146
aS'->'
p147
aS'variable_23'
p148
ag113
aS'variable_30'
p149
ag20
aS'if'
p150
ag6
aS'variable_29'
p151
aS'=='
p152
aS'variable_31'
p153
aS'||'
p154
ag49
aS'variable_4'
p155
aS'->'
p156
aS'variable_26'
p157
ag113
aS'variable_32'
p158
ag11
aS'variable_29'
p159
ag15
aS'variable_33'
p160
ag20
aS'variable_34'
p161
ag15
aS'func_11'
p162
ag6
ag51
aS'func_12'
p163
ag6
aS'variable_1'
p164
ag11
aS'->'
p165
aS'variable_12'
p166
ag79
aS'variable_1'
p167
aS'->'
p168
aS'variable_16'
p169
ag11
ag20
aS'if'
p170
ag6
aS'variable_34'
p171
ag11
aS'variable_35'
p172
ag15
aS'func_13'
p173
ag6
ag51
aS'variable_34'
p174
aS'->'
p175
aS'variable_36'
p176
ag79
ag51
aS'func_14'
p177
ag6
aS'variable_1'
p178
ag11
aS'->'
p179
aS'variable_12'
p180
ag11
ag20
aS'if'
p181
ag6
ag49
aS'variable_35'
p182
ag11
aS'if'
p183
ag6
aS'variable_34'
p184
aS'&&'
p185
aS'variable_5'
p186
aS'=='
p187
ag60
ag11
aS'variable_34'
p188
ag15
aS'NULL'
p189
ag20
aS'if'
p190
ag6
aS'variable_34'
p191
aS'=='
p192
aS'NULL'
p193
aS'&&'
p194
aS'variable_5'
p195
ag11
aS'variable_34'
p196
ag15
aS'func_15'
p197
ag6
ag51
aS'func_16'
p198
ag6
aS'variable_1'
p199
ag11
aS'->'
p200
aS'variable_12'
p201
ag79
aS'variable_1'
p202
aS'->'
p203
aS'variable_16'
p204
ag79
aS'variable_29'
p205
ag11
ag20
aS'if'
p206
ag6
aS'variable_34'
p207
aS'=='
p208
aS'NULL'
p209
ag11
aS'variable_35'
p210
ag15
aS'func_17'
p211
ag6
ag51
aS'variable_34'
p212
aS'->'
p213
aS'variable_36'
p214
ag79
ag51
aS'func_18'
p215
ag6
aS'variable_1'
p216
ag11
aS'->'
p217
aS'variable_12'
p218
ag11
ag20
aS'if'
p219
ag6
aS'variable_35'
p220
aS'=='
p221
aS'NULL'
p222
ag11
aS'if'
p223
ag6
aS'variable_2'
p224
aS'->'
p225
aS'variable_23'
p226
ag113
aS'variable_37'
p227
ag11
aS'if'
p228
ag6
aS'variable_4'
p229
aS'->'
p230
aS'variable_26'
p231
ag113
aS'variable_38'
p232
ag59
aS'variable_2'
p233
aS'->'
p234
aS'variable_23'
p235
ag113
aS'variable_37'
p236
ag11
aS'variable_4'
p237
aS'->'
p238
aS'variable_26'
p239
ag113
aS'variable_38'
p240
ag15
aS'variable_2'
p241
aS'->'
p242
aS'variable_23'
p243
ag113
aS'variable_37'
p244
ag20
aS'if'
p245
ag6
aS'variable_4'
p246
aS'->'
p247
aS'variable_39'
p248
ag11
aS'unsigned'
p249
aS'long'
p250
aS'variable_40'
p251
ag15
aS'func_19'
p252
ag6
aS'variable_2'
p253
aS'->'
p254
aS'variable_41'
p255
ag11
ag20
aS'if'
p256
ag6
aS'variable_40'
p257
aS'&&'
p258
aS'variable_40'
p259
aS'/'
p260
aS'1000'
p261
ag59
aS'variable_42'
p262
ag260
aS'variable_43'
p263
ag11
aS'variable_40'
p264
ag15
ag6
aS'variable_40'
p265
ag9
aS'variable_43'
p266
ag11
ag260
aS'1000'
p267
ag20
aS'if'
p268
ag6
aS'variable_40'
p269
ag59
aS'variable_43'
p270
ag260
aS'10'
p271
ag11
aS'variable_40'
p272
ag15
aS'variable_43'
p273
ag260
aS'10'
p274
ag20
aS'variable_40'
p275
ag15
aS'func_20'
p276
ag6
aS'variable_2'
p277
aS'->'
p278
aS'variable_44'
p279
ag11
ag20
aS'if'
p280
ag6
aS'variable_40'
p281
aS'&&'
p282
aS'variable_40'
p283
ag260
aS'1000'
p284
ag59
aS'variable_42'
p285
ag260
ag6
aS'3'
p286
ag9
aS'variable_43'
p287
ag11
ag11
aS'variable_40'
p288
ag15
ag6
aS'variable_40'
p289
ag9
aS'variable_43'
p290
ag11
ag260
aS'1000'
p291
ag20
aS'if'
p292
ag6
aS'variable_40'
p293
ag59
aS'variable_43'
p294
ag260
aS'10'
p295
ag11
aS'if'
p296
ag6
aS'variable_40'
p297
aS'!='
p298
aS'variable_4'
p299
aS'->'
p300
aS'variable_39'
p301
aS'->'
p302
aS'variable_45'
p303
ag11
aS'variable_4'
p304
aS'->'
p305
aS'variable_39'
p306
aS'->'
p307
aS'variable_45'
p308
ag15
aS'variable_40'
p309
ag20
aS'variable_4'
p310
aS'->'
p311
aS'variable_39'
p312
aS'->'
p313
aS'variable_46'
p314
ag15
ag286
ag9
aS'variable_40'
p315
ag20
aS'variable_4'
p316
aS'->'
p317
aS'variable_39'
p318
aS'->'
p319
aS'variable_44'
p320
ag15
aS'func_21'
p321
ag6
aS'variable_40'
p322
ag11
ag20
aS'variable_4'
p323
aS'->'
p324
aS'variable_47'
p325
ag15
aS'variable_48'
p326
ag20
aS'func_22'
p327
ag6
aS'variable_49'
p328
ag79
aS'variable_4'
p329
ag11
ag20
aS'if'
p330
ag6
ag49
aS'func_23'
p331
ag6
aS'variable_4'
p332
ag11
ag11
aS'if'
p333
ag6
aS'func_24'
p334
ag6
aS'func_25'
p335
ag6
aS'variable_4'
p336
aS'->'
p337
aS'variable_16'
p338
ag11
ag79
ag51
aS'func_26'
p339
ag6
aS'variable_1'
p340
ag11
aS'->'
p341
aS'variable_12'
p342
ag79
aS'NULL'
p343
ag79
ag60
ag11
ag11
aS'if'
p344
ag6
aS'variable_4'
p345
aS'->'
p346
aS'variable_26'
p347
ag113
aS'variable_32'
p348
aS'&&'
p349
aS'variable_6'
p350
ag113
aS'variable_50'
p351
ag11
aS'if'
p352
ag6
aS'variable_51'
p353
aS'->'
p354
aS'variable_52'
p355
aS'>'
p356
aS'variable_4'
p357
aS'->'
p358
aS'variable_26'
p359
ag113
aS'variable_53'
p360
ag11
aS'if'
p361
ag6
aS'variable_4'
p362
aS'->'
p363
aS'variable_26'
p364
ag113
aS'variable_54'
p365
aS'&&'
p366
aS'variable_6'
p367
ag113
aS'variable_55'
p368
ag11
aS'if'
p369
ag6
aS'variable_4'
p370
aS'->'
p371
aS'variable_26'
p372
ag113
aS'variable_56'
p373
aS'!='
p374
aS'variable_57'
p375
ag11
aS'variable_4'
p376
aS'->'
p377
aS'variable_26'
p378
ag113
aS'variable_56'
p379
ag15
aS'variable_57'
p380
ag20
aa(lp381
S'static'
p382
aS'void'
p383
aS'func_0'
p384
ag6
aS'struct'
p385
aS'variable_0'
p386
ag9
aS'variable_1'
p387
ag11
aS'struct'
p388
aS'variable_2'
p389
ag9
aS'variable_2'
p390
ag15
ag6
aS'struct'
p391
aS'ra_msg'
p392
ag9
ag11
aS'func_1'
p393
ag6
aS'variable_1'
p394
ag11
ag20
aS'struct'
p395
aS'variable_3'
p396
ag9
aS'variable_4'
p397
ag20
aS'int'
p398
aS'variable_5'
p399
ag20
aS'struct'
p400
aS'ndisc_options'
p401
aS'variable_6'
p402
ag20
aS'int'
p403
aS'variable_7'
p404
ag20
aS'variable_8'
p405
ag9
aS'variable_9'
p406
ag15
ag6
aS'__u8'
p407
ag9
ag11
ag6
aS'variable_2'
p408
ag35
ag36
ag11
ag20
aS'variable_7'
p409
ag15
ag6
aS'variable_1'
p410
aS'->'
p411
aS'variable_10'
p412
ag41
aS'variable_1'
p413
aS'->'
p414
aS'variable_11'
p415
ag11
ag41
aS'sizeof'
p416
ag6
aS'struct'
p417
aS'variable_2'
p418
ag11
ag20
aS'if'
p419
ag6
ag49
ag6
aS'func_2'
p420
ag6
ag51
aS'func_3'
p421
ag6
aS'variable_1'
p422
ag11
aS'->'
p423
aS'variable_12'
p424
ag11
ag51
aS'variable_13'
p425
ag11
ag11
aS'if'
p426
ag6
aS'variable_7'
p427
ag59
ag60
ag11
aS'if'
p428
ag6
aS'variable_1'
p429
aS'->'
p430
aS'variable_14'
p431
aS'=='
p432
aS'variable_15'
p433
ag11
aS'variable_4'
p434
ag15
aS'func_4'
p435
ag6
aS'variable_1'
p436
aS'->'
p437
aS'variable_16'
p438
ag11
ag20
aS'if'
p439
ag6
aS'variable_4'
p440
aS'=='
p441
aS'NULL'
p442
ag11
aS'if'
p443
ag6
ag49
aS'func_5'
p444
ag6
aS'variable_9'
p445
ag79
aS'variable_7'
p446
ag79
ag51
aS'variable_6'
p447
ag11
ag11
aS'if'
p448
ag6
ag49
aS'func_6'
p449
ag6
aS'variable_4'
p450
ag11
ag11
aS'if'
p451
ag6
aS'variable_1'
p452
aS'->'
p453
aS'variable_14'
p454
aS'=='
p455
aS'variable_17'
p456
ag11
aS'if'
p457
ag6
aS'variable_4'
p458
aS'->'
p459
aS'variable_18'
p460
ag51
aS'variable_19'
p461
ag11
aS'variable_4'
p462
aS'->'
p463
aS'variable_18'
p464
ag99
ag15
aS'variable_20'
p465
ag20
aS'variable_4'
p466
aS'->'
p467
aS'variable_18'
p468
ag15
ag6
aS'variable_4'
p469
aS'->'
p470
aS'variable_18'
p471
ag51
ag107
ag6
aS'variable_21'
p472
ag99
aS'variable_22'
p473
ag11
ag11
ag99
ag6
aS'variable_2'
p474
aS'->'
p475
aS'variable_23'
p476
ag113
aS'variable_24'
p477
ag115
aS'variable_21'
p478
ag117
ag60
ag11
ag99
ag6
aS'variable_2'
p479
aS'->'
p480
aS'variable_23'
p481
ag113
aS'variable_25'
p482
ag115
aS'variable_22'
p483
ag117
ag60
ag11
ag20
aS'if'
p484
ag6
ag49
aS'variable_4'
p485
aS'->'
p486
aS'variable_26'
p487
ag113
aS'variable_27'
p488
ag11
aS'if'
p489
ag6
aS'func_7'
p490
ag6
aS'func_8'
p491
ag6
aS'variable_4'
p492
aS'->'
p493
aS'variable_16'
p494
ag11
ag79
ag51
aS'func_9'
p495
ag6
aS'variable_1'
p496
ag11
aS'->'
p497
aS'variable_12'
p498
ag79
aS'NULL'
p499
ag79
ag60
ag11
ag11
aS'variable_5'
p500
ag15
aS'func_10'
p501
ag6
aS'variable_2'
p502
aS'->'
p503
aS'variable_23'
p504
ag113
aS'variable_28'
p505
ag11
ag20
aS'variable_29'
p506
ag15
aS'variable_2'
p507
aS'->'
p508
aS'variable_23'
p509
ag113
aS'variable_30'
p510
ag20
aS'if'
p511
ag6
aS'variable_29'
p512
aS'=='
p513
aS'variable_31'
p514
aS'||'
p515
ag49
aS'variable_4'
p516
aS'->'
p517
aS'variable_26'
p518
ag113
aS'variable_32'
p519
ag11
aS'variable_29'
p520
ag15
aS'variable_33'
p521
ag20
aS'variable_34'
p522
ag15
aS'func_11'
p523
ag6
ag51
aS'func_12'
p524
ag6
aS'variable_1'
p525
ag11
aS'->'
p526
aS'variable_12'
p527
ag79
aS'variable_1'
p528
aS'->'
p529
aS'variable_16'
p530
ag11
ag20
aS'if'
p531
ag6
aS'variable_34'
p532
ag11
aS'variable_35'
p533
ag15
aS'func_13'
p534
ag6
ag51
aS'variable_34'
p535
aS'->'
p536
aS'variable_36'
p537
ag79
ag51
aS'func_14'
p538
ag6
aS'variable_1'
p539
ag11
aS'->'
p540
aS'variable_12'
p541
ag11
ag20
aS'if'
p542
ag6
ag49
aS'variable_35'
p543
ag11
aS'if'
p544
ag6
aS'variable_34'
p545
aS'&&'
p546
aS'variable_5'
p547
aS'=='
p548
ag60
ag11
aS'variable_34'
p549
ag15
aS'NULL'
p550
ag20
aS'if'
p551
ag6
aS'variable_34'
p552
aS'=='
p553
aS'NULL'
p554
aS'&&'
p555
aS'variable_5'
p556
ag11
aS'variable_34'
p557
ag15
aS'func_15'
p558
ag6
ag51
aS'func_16'
p559
ag6
aS'variable_1'
p560
ag11
aS'->'
p561
aS'variable_12'
p562
ag79
aS'variable_1'
p563
aS'->'
p564
aS'variable_16'
p565
ag79
aS'variable_29'
p566
ag11
ag20
aS'if'
p567
ag6
aS'variable_34'
p568
aS'=='
p569
aS'NULL'
p570
ag11
aS'variable_35'
p571
ag15
aS'func_17'
p572
ag6
ag51
aS'variable_34'
p573
aS'->'
p574
aS'variable_36'
p575
ag79
ag51
aS'func_18'
p576
ag6
aS'variable_1'
p577
ag11
aS'->'
p578
aS'variable_12'
p579
ag11
ag20
aS'if'
p580
ag6
aS'variable_35'
p581
aS'=='
p582
aS'NULL'
p583
ag11
aS'if'
p584
ag6
aS'variable_2'
p585
aS'->'
p586
aS'variable_23'
p587
ag113
aS'variable_37'
p588
ag11
aS'if'
p589
ag6
aS'variable_4'
p590
aS'->'
p591
aS'variable_26'
p592
ag113
aS'variable_38'
p593
ag59
aS'variable_2'
p594
aS'->'
p595
aS'variable_23'
p596
ag113
aS'variable_37'
p597
ag11
aS'variable_4'
p598
aS'->'
p599
aS'variable_26'
p600
ag113
aS'variable_38'
p601
ag15
aS'variable_2'
p602
aS'->'
p603
aS'variable_23'
p604
ag113
aS'variable_37'
p605
ag20
aS'if'
p606
ag6
aS'variable_4'
p607
aS'->'
p608
aS'variable_39'
p609
ag11
aS'unsigned'
p610
aS'long'
p611
aS'variable_40'
p612
ag15
aS'func_19'
p613
ag6
aS'variable_2'
p614
aS'->'
p615
aS'variable_41'
p616
ag11
ag20
aS'if'
p617
ag6
aS'variable_40'
p618
aS'&&'
p619
aS'variable_40'
p620
ag260
aS'1000'
p621
ag59
aS'variable_42'
p622
ag260
aS'variable_43'
p623
ag11
aS'variable_40'
p624
ag15
ag6
aS'variable_40'
p625
ag9
aS'variable_43'
p626
ag11
ag260
aS'1000'
p627
ag20
aS'if'
p628
ag6
aS'variable_40'
p629
ag59
aS'variable_43'
p630
ag260
aS'10'
p631
ag11
aS'variable_4'
p632
aS'->'
p633
aS'variable_39'
p634
aS'->'
p635
aS'variable_44'
p636
ag15
aS'variable_40'
p637
ag20
aS'variable_4'
p638
aS'->'
p639
aS'variable_45'
p640
ag15
aS'variable_46'
p641
ag20
aS'func_20'
p642
ag6
aS'variable_47'
p643
ag79
aS'variable_4'
p644
ag11
ag20
aS'if'
p645
ag6
aS'variable_40'
p646
aS'&&'
p647
aS'variable_40'
p648
ag260
aS'1000'
p649
ag59
aS'variable_42'
p650
ag260
ag6
ag286
ag9
aS'variable_43'
p651
ag11
ag11
aS'variable_40'
p652
ag15
ag6
aS'variable_40'
p653
ag9
aS'variable_43'
p654
ag11
ag260
aS'1000'
p655
ag20
aS'if'
p656
ag6
aS'variable_40'
p657
ag59
aS'variable_43'
p658
ag260
aS'10'
p659
ag11
aS'if'
p660
ag6
aS'variable_40'
p661
aS'!='
p662
aS'variable_4'
p663
aS'->'
p664
aS'variable_39'
p665
aS'->'
p666
aS'variable_48'
p667
ag11
aS'variable_4'
p668
aS'->'
p669
aS'variable_39'
p670
aS'->'
p671
aS'variable_48'
p672
ag15
aS'variable_40'
p673
ag20
aS'variable_4'
p674
aS'->'
p675
aS'variable_39'
p676
aS'->'
p677
aS'variable_49'
p678
ag15
ag286
ag9
aS'variable_40'
p679
ag20
aS'variable_4'
p680
aS'->'
p681
aS'variable_39'
p682
aS'->'
p683
aS'variable_50'
p684
ag15
aS'func_21'
p685
ag6
aS'variable_40'
p686
ag11
ag20
aS'variable_4'
p687
aS'->'
p688
aS'variable_45'
p689
ag15
aS'variable_46'
p690
ag20
aS'func_22'
p691
ag6
aS'variable_47'
p692
ag79
aS'variable_4'
p693
ag11
ag20
aS'if'
p694
ag6
ag49
aS'func_23'
p695
ag6
aS'variable_4'
p696
ag11
ag11
aS'if'
p697
ag6
aS'func_24'
p698
ag6
aS'func_25'
p699
ag6
aS'variable_4'
p700
aS'->'
p701
aS'variable_16'
p702
ag11
ag79
ag51
aS'func_26'
p703
ag6
aS'variable_1'
p704
ag11
aS'->'
p705
aS'variable_12'
p706
ag79
aS'NULL'
p707
ag79
ag60
ag11
ag11
aS'if'
p708
ag6
aS'variable_4'
p709
aS'->'
p710
aS'variable_26'
p711
ag113
aS'variable_32'
p712
aS'&&'
p713
aS'variable_6'
p714
ag113
aS'variable_51'
p715
ag11
aS'if'
p716
ag6
aS'variable_52'
p717
aS'->'
p718
aS'variable_53'
p719
ag356
aS'variable_4'
p720
aS'->'
p721
aS'variable_26'
p722
ag113
aS'variable_54'
p723
ag11
aS'if'
p724
ag6
aS'variable_4'
p725
aS'->'
p726
aS'variable_26'
p727
ag113
aS'variable_55'
p728
aS'&&'
p729
aS'variable_6'
p730
ag113
aS'variable_56'
p731
ag11
aS'if'
p732
ag6
aS'variable_4'
p733
aS'->'
p734
aS'variable_26'
p735
ag113
aS'variable_57'
p736
aS'!='
p737
aS'variable_58'
p738
ag11
aS'variable_4'
p739
aS'->'
p740
aS'variable_26'
p741
ag113
aS'variable_57'
p742
ag15
aS'variable_58'
p743
ag20
aa(lp744
S'static'
p745
aS'void'
p746
aS'func_0'
p747
ag6
aS'struct'
p748
aS'variable_0'
p749
ag9
aS'variable_1'
p750
ag11
aS'int'
p751
aS'variable_2'
p752
ag20
aS'variable_2'
p753
ag15
ag6
aS'variable_1'
p754
aS'->'
p755
aS'variable_3'
p756
ag41
aS'variable_1'
p757
aS'->'
p758
aS'variable_4'
p759
ag11
ag41
aS'sizeof'
p760
ag6
aS'struct'
p761
aS'variable_5'
p762
ag11
ag20
aS'if'
p763
ag6
aS'variable_2'
p764
ag59
ag60
ag11
aS'if'
p765
ag6
ag49
aS'func_1'
p766
ag6
aS'variable_6'
p767
ag79
aS'variable_2'
p768
ag79
ag51
aS'variable_7'
p769
ag11
ag11
aaa(lp770
I0
aI0
aI0
aa(lp771
I505
aI456
aI22
aa(lp772
(lp773
S'main'
p774
aa(lp775
g774
aa(lp776
g774
aaa(lp777
S'676 /home/SySeVR/data/CVE_2015_2922_PATCHED_ndisc_router_discovery.c rtime = ( rtime * HZ ) / 1000 169'
p778
aS'677 /home/SySeVR/data/CVE_2015_2922_PATCHED_ndisc_router_discovery.c rtime = ( rtime * HZ ) / 1000 159'
p779
aS'678 /home/SySeVR/data/CVE_2015_2922_PATCHED_ndisc_router_discovery.c optlen = ( skb -> tail - skb -> transport_header ) - sizeof ( struct ra_msg ) 14'
p780
aa.