(lp0
(lp1
(lp2
S'static'
p3
aS'ssize_t'
p4
aS'func_0'
p5
aS'('
p6
aS'struct'
p7
aS'variable_0'
p8
aS'*'
p9
aS'variable_1'
p10
aS','
p11
aS'const'
p12
aS'size_t'
p13
aS'variable_2'
p14
ag11
aS'variable_3'
p15
ag9
aS'variable_4'
p16
aS')'
p17
aS'int'
p18
aS'variable_5'
p19
ag11
aS'variable_6'
p20
aS';'
p21
aS'char'
p22
ag9
aS'variable_7'
p23
ag21
aS'char'
p24
ag9
aS'variable_8'
p25
ag21
aS'char'
p26
ag9
aS'variable_9'
p27
ag21
aS'char'
p28
ag9
aS'variable_10'
p29
ag21
aS'char'
p30
ag9
aS'variable_11'
p31
ag21
aS'struct'
p32
aS'variable_12'
p33
ag9
aS'variable_13'
p34
aS'='
p35
aS'variable_1'
p36
aS'->'
p37
aS'variable_14'
p38
ag21
aS'if'
p39
ag6
aS'variable_2'
p40
aS'=='
p41
aS'0'
p42
ag17
aS'variable_7'
p43
ag35
aS'kmalloc'
p44
ag6
aS'variable_2'
p45
aS'+'
p46
aS'1'
p47
ag11
aS'variable_15'
p48
ag17
ag21
aS'if'
p49
ag6
aS'variable_7'
p50
aS'=='
p51
aS'NULL'
p52
ag17
aS'if'
p53
ag6
aS'func_1'
p54
ag6
aS'variable_7'
p55
ag11
aS'variable_16'
p56
ag11
aS'variable_2'
p57
ag17
ag17
aS'variable_7'
p58
aS'['
p59
aS'variable_2'
p60
aS']'
p61
ag35
aS"'"
p62
aS'\\'
p63
ag42
ag62
ag21
aS'variable_9'
p64
ag35
aS'variable_7'
p65
ag21
aS'for'
p66
ag6
aS'variable_6'
p67
ag35
ag42
ag21
aS'variable_6'
p68
aS'<'
p69
aS'variable_17'
p70
ag21
aS'variable_6'
p71
aS'++'
p72
ag17
aS'variable_8'
p73
ag35
aS'strstr'
p74
ag6
aS'variable_9'
p75
ag11
aS'variable_13'
p76
ag59
aS'variable_6'
p77
ag61
aS'.'
p78
aS'variable_18'
p79
ag17
ag21
aS'if'
p80
ag6
aS'variable_8'
p81
aS'=='
p82
aS'NULL'
p83
ag17
aS'variable_10'
p84
ag35
aS'strchr'
p85
ag6
aS'variable_8'
p86
ag11
ag62
ag63
aS'n'
p87
ag62
ag17
ag21
aS'if'
p88
ag6
aS'variable_10'
p89
aS'=='
p90
aS'NULL'
p91
ag17
aS'variable_9'
p92
ag35
aS'variable_10'
p93
aS'++'
p94
ag21
aS'variable_11'
p95
ag35
aS'strchr'
p96
ag6
aS'variable_8'
p97
ag11
ag62
ag35
ag62
ag17
ag21
aS'if'
p98
ag6
aS'!'
p99
aS'variable_11'
p100
ag17
aS'variable_11'
p101
aS'++'
p102
ag21
aS'variable_5'
p103
ag35
aS'func_2'
p104
ag6
aS'variable_11'
p105
ag11
aS'NULL'
p106
ag11
ag42
ag17
ag21
ag9
ag6
ag6
aS'u8'
p107
ag9
ag17
aS'variable_13'
p108
ag59
aS'variable_6'
p109
ag61
ag78
aS'variable_19'
p110
ag17
ag35
ag6
aS'variable_20'
p111
ag17
aS'variable_5'
p112
ag21
ag9
ag6
ag6
aS'u16'
p113
ag9
ag17
aS'variable_13'
p114
ag59
aS'variable_6'
p115
ag61
ag78
aS'variable_19'
p116
ag17
ag35
ag6
aS'variable_21'
p117
ag17
aS'variable_5'
p118
ag21
ag9
ag6
ag6
aS'u32'
p119
ag9
ag17
aS'variable_13'
p120
ag59
aS'variable_6'
p121
ag61
ag78
aS'variable_19'
p122
ag17
ag35
ag6
aS'variable_22'
p123
ag17
aS'variable_5'
p124
ag21
ag9
ag6
ag6
aS'u64'
p125
ag9
ag17
aS'variable_13'
p126
ag59
aS'variable_6'
p127
ag61
ag78
aS'variable_19'
p128
ag17
ag35
ag6
aS'variable_23'
p129
ag17
aS'variable_5'
p130
ag21
aS'while'
p131
ag6
ag47
ag17
aa(lp132
S'static'
p133
aS'ssize_t'
p134
aS'func_0'
p135
ag6
aS'struct'
p136
aS'variable_0'
p137
ag9
aS'variable_1'
p138
ag11
aS'const'
p139
aS'size_t'
p140
aS'variable_2'
p141
ag11
aS'variable_3'
p142
ag9
aS'variable_4'
p143
ag17
aS'int'
p144
aS'variable_5'
p145
ag11
aS'variable_6'
p146
ag21
aS'char'
p147
ag9
aS'variable_7'
p148
ag21
aS'char'
p149
ag9
aS'variable_8'
p150
ag21
aS'char'
p151
ag9
aS'variable_9'
p152
ag21
aS'char'
p153
ag9
aS'variable_10'
p154
ag21
aS'struct'
p155
aS'variable_11'
p156
ag9
aS'variable_12'
p157
ag35
aS'variable_1'
p158
aS'->'
p159
aS'variable_13'
p160
ag21
aS'if'
p161
ag6
aS'variable_2'
p162
aS'=='
p163
ag42
ag17
aS'variable_7'
p164
ag35
aS'kmalloc'
p165
ag6
aS'variable_2'
p166
ag46
ag47
ag11
aS'variable_14'
p167
ag17
ag21
aS'if'
p168
ag6
aS'variable_7'
p169
aS'=='
p170
aS'NULL'
p171
ag17
aS'if'
p172
ag6
aS'func_1'
p173
ag6
aS'variable_7'
p174
ag11
aS'variable_15'
p175
ag11
aS'variable_2'
p176
ag17
ag17
aS'variable_7'
p177
ag59
aS'variable_2'
p178
ag61
ag35
ag62
ag63
ag42
ag62
ag21
aS'variable_9'
p179
ag35
aS'variable_7'
p180
ag21
aS'for'
p181
ag6
aS'variable_6'
p182
ag35
ag42
ag21
aS'variable_6'
p183
ag69
aS'variable_16'
p184
ag21
aS'variable_6'
p185
aS'++'
p186
ag17
aS'variable_8'
p187
ag35
aS'strstr'
p188
ag6
aS'variable_9'
p189
ag11
aS'variable_12'
p190
ag59
aS'variable_6'
p191
ag61
ag78
aS'variable_17'
p192
ag17
ag21
aS'if'
p193
ag6
aS'variable_8'
p194
aS'=='
p195
aS'NULL'
p196
ag17
aS'variable_10'
p197
ag35
aS'strchr'
p198
ag6
aS'variable_8'
p199
ag11
ag62
ag63
ag87
ag62
ag17
ag21
aS'if'
p200
ag6
aS'variable_10'
p201
aS'=='
p202
aS'NULL'
p203
ag17
aS'variable_9'
p204
ag35
aS'variable_10'
p205
aS'++'
p206
ag21
aS'variable_18'
p207
ag35
aS'strchr'
p208
ag6
aS'variable_8'
p209
ag11
ag62
ag35
ag62
ag17
ag21
aS'if'
p210
ag6
ag99
aS'variable_18'
p211
ag17
aS'variable_18'
p212
aS'++'
p213
ag21
aS'variable_5'
p214
ag35
aS'func_2'
p215
ag6
aS'variable_18'
p216
ag11
aS'NULL'
p217
ag11
ag42
ag17
ag21
ag9
ag6
ag6
aS'u8'
p218
ag9
ag17
aS'variable_12'
p219
ag59
aS'variable_6'
p220
ag61
ag78
aS'variable_19'
p221
ag17
ag35
ag6
aS'variable_20'
p222
ag17
aS'variable_5'
p223
ag21
ag9
ag6
ag6
aS'u16'
p224
ag9
ag17
aS'variable_12'
p225
ag59
aS'variable_6'
p226
ag61
ag78
aS'variable_19'
p227
ag17
ag35
ag6
aS'variable_21'
p228
ag17
aS'variable_5'
p229
ag21
ag9
ag6
ag6
aS'u32'
p230
ag9
ag17
aS'variable_12'
p231
ag59
aS'variable_6'
p232
ag61
ag78
aS'variable_19'
p233
ag17
ag35
ag6
aS'variable_22'
p234
ag17
aS'variable_5'
p235
ag21
ag9
ag6
ag6
aS'u64'
p236
ag9
ag17
aS'variable_12'
p237
ag59
aS'variable_6'
p238
ag61
ag78
aS'variable_19'
p239
ag17
ag35
ag6
aS'variable_23'
p240
ag17
aS'variable_5'
p241
ag21
aS'while'
p242
ag6
ag47
ag17
aaa(lp243
I0
aI0
aa(lp244
I158
aI131
aa(lp245
(lp246
S'main'
p247
aa(lp248
g247
aaa(lp249
S'650 /home/SySeVR/data/CVE_2013_6378_PATCHED_lbs_debugfs_write.c strchr 36'
p250
aS'651 /home/SySeVR/data/CVE_2013_6378_PATCHED_lbs_debugfs_write.c strchr 32'
p251
aa.