(lp0
(lp1
(lp2
S'static'
p3
aS'int'
p4
aS'func_0'
p5
aS'('
p6
aS'struct'
p7
aS'variable_0'
p8
aS'*'
p9
aS'variable_1'
p10
aS','
p11
aS'struct'
p12
aS'variable_2'
p13
ag9
aS'variable_3'
p14
ag11
aS'size_t'
p15
aS'variable_4'
p16
aS')'
p17
aS'struct'
p18
aS'variable_5'
p19
ag9
aS'variable_6'
p20
aS'='
p21
aS'variable_5'
p22
aS'->'
p23
aS'variable_6'
p24
aS';'
p25
aS'struct'
p26
aS'variable_7'
p27
ag9
aS'variable_8'
p28
ag21
ag6
aS'struct'
p29
aS'sockaddr_ec'
p30
ag9
ag17
aS'variable_3'
p31
aS'->'
p32
aS'variable_9'
p33
ag25
aS'struct'
p34
aS'variable_10'
p35
ag9
aS'variable_11'
p36
ag25
aS'struct'
p37
aS'ec_addr'
p38
aS'variable_12'
p39
ag25
aS'struct'
p40
aS'sockaddr_in'
p41
aS'variable_13'
p42
ag25
aS'if'
p43
ag6
aS'variable_3'
p44
aS'->'
p45
aS'variable_14'
p46
aS'&'
p47
aS'~'
p48
ag6
aS'variable_15'
p49
aS'|'
p50
aS'variable_16'
p51
ag17
ag17
aS'if'
p52
ag6
aS'variable_8'
p53
aS'=='
p54
aS'NULL'
p55
ag17
aS'struct'
p56
aS'variable_17'
p57
ag9
aS'variable_18'
p58
ag21
aS'func_1'
p59
ag6
aS'variable_6'
p60
ag17
ag25
aS'variable_12'
p61
aS'.'
p62
aS'variable_19'
p63
ag21
aS'variable_18'
p64
aS'->'
p65
aS'variable_19'
p66
ag25
aS'variable_12'
p67
ag62
aS'variable_20'
p68
ag21
aS'variable_18'
p69
aS'->'
p70
aS'variable_20'
p71
ag25
aS'if'
p72
ag6
aS'variable_3'
p73
aS'->'
p74
aS'variable_21'
p75
aS'<'
p76
aS'sizeof'
p77
ag6
aS'struct'
p78
aS'variable_7'
p79
ag17
ag17
aS'variable_12'
p80
ag62
aS'variable_19'
p81
ag21
aS'variable_8'
p82
aS'->'
p83
aS'variable_12'
p84
ag62
aS'variable_19'
p85
ag25
aS'variable_12'
p86
ag62
aS'variable_20'
p87
ag21
aS'variable_8'
p88
aS'->'
p89
aS'variable_12'
p90
ag62
aS'variable_20'
p91
ag25
aS'variable_11'
p92
ag21
aS'variable_22'
p93
aS'['
p94
aS'variable_12'
p95
ag62
aS'variable_20'
p96
aS']'
p97
ag25
aS'if'
p98
ag6
aS'variable_11'
p99
aS'=='
p100
aS'NULL'
p101
ag17
aS'variable_11'
p102
ag21
aS'variable_22'
p103
ag94
aS'0'
p104
ag97
ag25
aS'if'
p105
ag6
aS'variable_11'
p106
aS'=='
p107
aS'NULL'
p108
ag17
aS'if'
p109
ag6
aS'variable_11'
p110
aS'->'
p111
aS'variable_23'
p112
aS'=='
p113
aS'variable_24'
p114
ag17
aS'if'
p115
ag6
aS'variable_25'
p116
aS'=='
p117
aS'NULL'
p118
ag17
aS'if'
p119
ag6
aS'variable_4'
p120
aS'>'
p121
aS'32768'
p122
ag17
aS'memset'
p123
ag6
ag47
aS'variable_13'
p124
ag11
ag104
ag11
aS'sizeof'
p125
ag6
aS'variable_13'
p126
ag17
ag17
ag25
aS'variable_13'
p127
ag62
aS'variable_26'
p128
ag21
aS'variable_27'
p129
ag25
aS'variable_13'
p130
ag62
aS'variable_28'
p131
ag21
aS'func_2'
p132
ag6
aS'variable_29'
p133
ag17
ag25
aS'variable_13'
p134
ag62
aS'variable_30'
p135
ag62
aS'variable_31'
p136
ag21
aS'func_3'
p137
ag6
aS'variable_32'
p138
ag50
aS'variable_12'
p139
ag62
aS'variable_19'
p140
ag17
ag25
aaa(lp141
I0
aa(lp142
I179
aa(lp143
(lp144
S'main'
p145
aaa(lp146
S'52 /home/SySeVR/data/CVE_2010_3848_PATCHED_econet_sendmsg.c memset 162'
p147
aa.