(lp0
(lp1
(lp2
S'static'
p3
aS'int'
p4
aS'func_0'
p5
aS'('
p6
aS'struct'
p7
aS'variable_0'
p8
aS'*'
p9
aS'variable_1'
p10
aS','
p11
aS'struct'
p12
aS'variable_2'
p13
ag9
aS'variable_3'
p14
ag11
aS'size_t'
p15
aS'variable_4'
p16
aS')'
p17
aS'struct'
p18
aS'variable_5'
p19
ag9
aS'variable_6'
p20
aS'='
p21
aS'variable_5'
p22
aS'->'
p23
aS'variable_6'
p24
aS';'
p25
aS'struct'
p26
aS'variable_7'
p27
ag9
aS'variable_8'
p28
ag21
ag6
aS'struct'
p29
aS'sockaddr_ec'
p30
ag9
ag17
aS'variable_3'
p31
aS'->'
p32
aS'variable_9'
p33
ag25
aS'struct'
p34
aS'variable_10'
p35
ag9
aS'variable_11'
p36
ag25
aS'struct'
p37
aS'ec_addr'
p38
aS'variable_12'
p39
ag25
aS'struct'
p40
aS'variable_13'
p41
ag9
aS'variable_14'
p42
ag25
aS'if'
p43
ag6
aS'variable_3'
p44
aS'->'
p45
aS'variable_15'
p46
aS'&'
p47
aS'~'
p48
ag6
aS'variable_16'
p49
aS'|'
p50
aS'variable_17'
p51
ag17
ag17
aS'if'
p52
ag6
aS'variable_8'
p53
aS'=='
p54
aS'NULL'
p55
ag17
aS'struct'
p56
aS'variable_18'
p57
ag9
aS'variable_19'
p58
ag21
aS'func_1'
p59
ag6
aS'variable_6'
p60
ag17
ag25
aS'variable_12'
p61
aS'.'
p62
aS'variable_20'
p63
ag21
aS'variable_19'
p64
aS'->'
p65
aS'variable_20'
p66
ag25
aS'variable_12'
p67
ag62
aS'variable_21'
p68
ag21
aS'variable_19'
p69
aS'->'
p70
aS'variable_21'
p71
ag25
aS'if'
p72
ag6
aS'variable_3'
p73
aS'->'
p74
aS'variable_22'
p75
aS'<'
p76
aS'sizeof'
p77
ag6
aS'struct'
p78
aS'variable_7'
p79
ag17
ag17
aS'variable_12'
p80
ag62
aS'variable_20'
p81
ag21
aS'variable_8'
p82
aS'->'
p83
aS'variable_12'
p84
ag62
aS'variable_20'
p85
ag25
aS'variable_12'
p86
ag62
aS'variable_21'
p87
ag21
aS'variable_8'
p88
aS'->'
p89
aS'variable_12'
p90
ag62
aS'variable_21'
p91
ag25
aS'variable_11'
p92
ag21
aS'variable_23'
p93
aS'['
p94
aS'variable_12'
p95
ag62
aS'variable_21'
p96
aS']'
p97
ag25
aS'if'
p98
ag6
aS'variable_11'
p99
aS'=='
p100
aS'NULL'
p101
ag17
aS'variable_11'
p102
ag21
aS'variable_23'
p103
ag94
aS'0'
p104
ag97
ag25
aS'if'
p105
ag6
aS'variable_11'
p106
aS'=='
p107
aS'NULL'
p108
ag17
aS'if'
p109
ag6
aS'variable_11'
p110
aS'->'
p111
aS'variable_24'
p112
aS'=='
p113
aS'variable_25'
p114
ag17
aS'if'
p115
ag6
aS'variable_4'
p116
aS'+'
p117
aS'15'
p118
aS'>'
p119
aS'variable_11'
p120
aS'->'
p121
aS'variable_26'
p122
ag17
aS'variable_14'
p123
ag21
aS'func_2'
p124
ag6
aS'variable_6'
p125
ag11
aS'variable_4'
p126
ag117
aS'func_3'
p127
ag6
aS'variable_11'
p128
ag17
ag11
aS'variable_3'
p129
aS'->'
p130
aS'variable_15'
p131
ag47
aS'variable_16'
p132
ag11
ag47
aS'variable_27'
p133
ag17
ag25
aS'if'
p134
ag6
aS'variable_14'
p135
aS'=='
p136
aS'NULL'
p137
ag17
aS'func_4'
p138
ag6
aS'variable_14'
p139
ag11
aS'func_5'
p140
ag6
aS'variable_11'
p141
ag17
ag17
ag25
aS'func_6'
p142
ag6
aS'variable_14'
p143
ag17
ag25
aS'variable_28'
p144
ag21
ag6
aS'struct'
p145
aS'ec_cb'
p146
ag9
ag17
ag47
aS'variable_14'
p147
aS'->'
p148
aS'variable_29'
p149
ag25
aS'variable_28'
p150
aS'->'
p151
aS'variable_30'
p152
ag21
aS'variable_8'
p153
aS'->'
p154
aS'variable_30'
p155
ag25
aS'variable_28'
p156
aS'->'
p157
aS'variable_31'
p158
ag21
ag9
aS'variable_8'
p159
ag25
aS'variable_28'
p160
aS'->'
p161
aS'variable_32'
p162
ag21
aS'variable_33'
p163
ag25
aS'variable_34'
p164
ag21
aS'func_7'
p165
ag6
aS'variable_14'
p166
ag11
aS'variable_11'
p167
ag11
aS'func_8'
p168
ag6
aS'variable_35'
p169
ag17
ag11
ag47
aS'variable_12'
p170
ag11
aS'NULL'
p171
ag11
aS'variable_4'
p172
ag17
ag25
aS'if'
p173
ag6
aS'variable_34'
p174
ag76
ag104
ag17
aS'if'
p175
ag6
aS'variable_34'
p176
ag119
ag104
ag17
aS'variable_36'
p177
ag21
ag6
aS'struct'
p178
aS'ec_framehdr'
p179
ag9
ag17
ag6
aS'variable_14'
p180
aS'->'
p181
aS'variable_37'
p182
ag17
ag25
aS'variable_36'
p183
aS'->'
p184
aS'variable_29'
p185
ag21
aS'variable_29'
p186
ag25
aS'variable_36'
p187
aS'->'
p188
aS'variable_38'
p189
ag21
aS'variable_38'
p190
ag25
aS'func_9'
p191
ag6
aS'variable_14'
p192
ag17
ag25
aS'variable_14'
p193
aS'->'
p194
aS'variable_4'
p195
ag21
ag104
ag25
aS'variable_27'
p196
ag21
aS'func_10'
p197
ag6
aS'func_11'
p198
ag6
aS'variable_14'
p199
ag11
aS'variable_4'
p200
ag17
ag11
aS'variable_3'
p201
aS'->'
p202
aS'variable_39'
p203
ag11
aS'variable_4'
p204
ag17
ag25
aS'variable_14'
p205
aS'->'
p206
aS'variable_40'
p207
ag21
aS'variable_35'
p208
ag25
aS'variable_14'
p209
aS'->'
p210
aS'variable_11'
p211
ag21
aS'variable_11'
p212
ag25
aS'variable_14'
p213
aS'->'
p214
aS'variable_41'
p215
ag21
aS'variable_6'
p216
aS'->'
p217
aS'variable_42'
p218
ag25
aS'if'
p219
ag6
aS'variable_27'
p220
ag17
aS'func_12'
p221
ag6
aS'variable_14'
p222
ag17
ag25
aS'func_13'
p223
ag6
aS'variable_14'
p224
ag17
ag25
aS'return'
p225
aS'variable_27'
p226
ag25
aaa(lp227
I0
aa(lp228
I189
aa(lp229
(lp230
S'main'
p231
aaa(lp232
S'151 /home/SySeVR/data/CVE_2010_3848_PATCHED_econet_sendmsg.c skb = sock_alloc_send_skb ( sk , len + LL_ALLOCATED_SPACE ( dev ) , msg -> msg_flags & MSG_DONTWAIT , & err ) 81'
p233
aa.