(lp0
(lp1
(lp2
S'static'
p3
aS'int'
p4
aS'func_0'
p5
aS'('
p6
aS'variable_0'
p7
aS'*'
p8
aS'variable_1'
p9
aS','
p10
aS'variable_2'
p11
ag8
aS'variable_3'
p12
aS')'
p13
aS'variable_3'
p14
aS'->'
p15
aS'variable_4'
p16
aS'.'
p17
aS'variable_5'
p18
ag17
aS'variable_6'
p19
aS'='
p20
aS'variable_7'
p21
aS';'
p22
aS'variable_3'
p23
aS'->'
p24
aS'variable_4'
p25
ag17
aS'variable_5'
p26
ag17
aS'variable_8'
p27
ag20
aS'malloc'
p28
ag6
aS'func_1'
p29
ag6
aS'variable_3'
p30
aS'->'
p31
aS'variable_9'
p32
ag17
aS'variable_10'
p33
ag10
aS'sizeof'
p34
ag6
aS'variable_11'
p35
ag13
ag13
ag13
ag22
aS'if'
p36
ag6
aS'variable_3'
p37
aS'->'
p38
aS'variable_4'
p39
ag17
aS'variable_5'
p40
ag17
aS'variable_8'
p41
aS'->'
p42
aS'variable_12'
p43
aS'!='
p44
aS'variable_13'
p45
aS'&&'
p46
aS'variable_3'
p47
aS'->'
p48
aS'variable_9'
p49
ag17
aS'variable_10'
p50
aS'>'
p51
aS'sizeof'
p52
ag6
aS'variable_11'
p53
ag13
ag13
aS'if'
p54
ag6
aS'variable_3'
p55
aS'->'
p56
aS'variable_4'
p57
ag17
aS'variable_5'
p58
ag17
aS'variable_8'
p59
aS'->'
p60
aS'variable_14'
p61
ag51
aS'variable_3'
p62
aS'->'
p63
aS'variable_9'
p64
ag17
aS'variable_10'
p65
aS'-'
p66
aS'sizeof'
p67
ag6
aS'variable_11'
p68
ag13
ag13
aS'variable_3'
p69
aS'->'
p70
aS'variable_4'
p71
ag17
aS'variable_5'
p72
ag17
aS'variable_8'
p73
aS'->'
p74
aS'variable_14'
p75
ag20
aS'variable_3'
p76
aS'->'
p77
aS'variable_9'
p78
ag17
aS'variable_10'
p79
ag66
aS'sizeof'
p80
ag6
aS'variable_11'
p81
ag13
ag22
aS'variable_3'
p82
aS'->'
p83
aS'variable_4'
p84
ag17
aS'variable_5'
p85
ag17
aS'variable_8'
p86
aS'->'
p87
aS'variable_14'
p88
ag20
aS'0'
p89
ag22
aS'if'
p90
ag6
aS'variable_3'
p91
aS'->'
p92
aS'variable_4'
p93
ag17
aS'variable_5'
p94
ag17
aS'variable_8'
p95
aS'->'
p96
aS'variable_14'
p97
ag51
ag89
ag13
aS'memcpy'
p98
ag6
aS'&'
p99
aS'variable_3'
p100
aS'->'
p101
aS'variable_4'
p102
ag17
aS'variable_5'
p103
ag17
aS'variable_8'
p104
aS'['
p105
aS'1'
p106
aS']'
p107
ag10
aS'variable_15'
p108
aS'+'
p109
aS'8'
p110
ag109
aS'sizeof'
p111
ag6
aS'variable_11'
p112
ag13
ag10
aS'variable_3'
p113
aS'->'
p114
aS'variable_4'
p115
ag17
aS'variable_5'
p116
ag17
aS'variable_8'
p117
aS'->'
p118
aS'variable_14'
p119
ag13
ag22
aS'variable_3'
p120
aS'->'
p121
aS'variable_4'
p122
ag17
aS'variable_16'
p123
ag17
aS'variable_6'
p124
ag20
aS'variable_17'
p125
ag22
aS'variable_3'
p126
aS'->'
p127
aS'variable_4'
p128
ag17
aS'variable_16'
p129
ag17
aS'variable_18'
p130
ag20
aS'malloc'
p131
ag6
aS'func_2'
p132
ag6
aS'variable_3'
p133
aS'->'
p134
aS'variable_9'
p135
ag17
aS'variable_10'
p136
ag10
aS'sizeof'
p137
ag6
ag8
aS'variable_3'
p138
aS'->'
p139
aS'variable_4'
p140
ag17
aS'variable_16'
p141
ag17
aS'variable_18'
p142
ag13
ag13
ag13
ag22
aS'func_3'
p143
ag6
aS'variable_3'
p144
aS'->'
p145
aS'variable_4'
p146
ag17
aS'variable_16'
p147
ag17
aS'variable_18'
p148
aS'->'
p149
aS'variable_19'
p150
ag13
ag22
aS'func_4'
p151
ag6
aS'variable_3'
p152
aS'->'
p153
aS'variable_4'
p154
ag17
aS'variable_16'
p155
ag17
aS'variable_18'
p156
aS'->'
p157
aS'variable_20'
p158
ag13
ag22
aS'func_5'
p159
ag6
aS'variable_3'
p160
aS'->'
p161
aS'variable_4'
p162
ag17
aS'variable_16'
p163
ag17
aS'variable_18'
p164
aS'->'
p165
aS'variable_21'
p166
ag13
ag22
aS'func_6'
p167
ag6
aS'variable_3'
p168
aS'->'
p169
aS'variable_4'
p170
ag17
aS'variable_16'
p171
ag17
aS'variable_18'
p172
aS'->'
p173
aS'variable_22'
p174
ag13
ag22
aS'func_7'
p175
ag6
aS'variable_3'
p176
aS'->'
p177
aS'variable_4'
p178
ag17
aS'variable_16'
p179
ag17
aS'variable_18'
p180
aS'->'
p181
aS'variable_23'
p182
ag13
ag22
aS'func_8'
p183
ag6
aS'variable_3'
p184
aS'->'
p185
aS'variable_4'
p186
ag17
aS'variable_16'
p187
ag17
aS'variable_18'
p188
aS'->'
p189
aS'variable_24'
p190
ag13
ag22
aS'func_9'
p191
ag6
aS'variable_3'
p192
aS'->'
p193
aS'variable_4'
p194
ag17
aS'variable_16'
p195
ag17
aS'variable_18'
p196
aS'->'
p197
aS'variable_25'
p198
ag13
ag22
aS'func_10'
p199
ag6
aS'variable_3'
p200
aS'->'
p201
aS'variable_4'
p202
ag17
aS'variable_16'
p203
ag17
aS'variable_18'
p204
aS'->'
p205
aS'variable_26'
p206
ag13
ag22
aS'func_11'
p207
ag6
aS'variable_3'
p208
aS'->'
p209
aS'variable_4'
p210
ag17
aS'variable_16'
p211
ag17
aS'variable_18'
p212
aS'->'
p213
aS'variable_27'
p214
ag13
ag22
aS'func_12'
p215
ag6
aS'variable_3'
p216
aS'->'
p217
aS'variable_4'
p218
ag17
aS'variable_16'
p219
ag17
aS'variable_18'
p220
aS'->'
p221
aS'variable_28'
p222
ag13
ag22
aS'func_13'
p223
ag6
aS'variable_3'
p224
aS'->'
p225
aS'variable_4'
p226
ag17
aS'variable_16'
p227
ag17
aS'variable_18'
p228
aS'->'
p229
aS'variable_29'
p230
ag13
ag22
aS'if'
p231
ag6
aS'variable_3'
p232
aS'->'
p233
aS'variable_4'
p234
ag17
aS'variable_16'
p235
ag17
aS'variable_18'
p236
aS'->'
p237
aS'variable_19'
p238
ag51
aS'variable_3'
p239
aS'->'
p240
aS'variable_9'
p241
ag17
aS'variable_10'
p242
ag13
aS'variable_3'
p243
aS'->'
p244
aS'variable_4'
p245
ag17
aS'variable_16'
p246
ag17
aS'variable_18'
p247
aS'->'
p248
aS'variable_19'
p249
ag20
aS'variable_3'
p250
aS'->'
p251
aS'variable_9'
p252
ag17
aS'variable_10'
p253
ag22
aS'if'
p254
ag6
aS'variable_3'
p255
aS'->'
p256
aS'variable_9'
p257
ag17
aS'variable_10'
p258
ag51
aS'sizeof'
p259
ag6
aS'variable_30'
p260
ag13
ag13
aS'memcpy'
p261
ag6
ag99
aS'variable_3'
p262
aS'->'
p263
aS'variable_4'
p264
ag17
aS'variable_16'
p265
ag17
aS'variable_18'
p266
ag105
ag106
ag107
ag10
aS'variable_15'
p267
ag109
ag110
ag109
aS'sizeof'
p268
ag6
aS'variable_30'
p269
ag13
ag10
aS'variable_3'
p270
aS'->'
p271
aS'variable_9'
p272
ag17
aS'variable_10'
p273
ag66
aS'sizeof'
p274
ag6
aS'variable_30'
p275
ag13
ag13
ag22
aS'variable_3'
p276
aS'->'
p277
aS'variable_4'
p278
ag17
aS'variable_9'
p279
ag17
aS'variable_6'
p280
ag20
aS'variable_31'
p281
ag22
aa(lp282
S'static'
p283
aS'int'
p284
aS'func_0'
p285
ag6
aS'variable_0'
p286
ag8
aS'variable_1'
p287
ag10
aS'variable_2'
p288
ag8
aS'variable_3'
p289
ag13
aS'variable_3'
p290
aS'->'
p291
aS'variable_4'
p292
ag17
aS'variable_5'
p293
ag17
aS'variable_6'
p294
ag20
aS'variable_7'
p295
ag22
aS'variable_3'
p296
aS'->'
p297
aS'variable_4'
p298
ag17
aS'variable_5'
p299
ag17
aS'variable_8'
p300
ag20
aS'malloc'
p301
ag6
aS'func_1'
p302
ag6
aS'variable_3'
p303
aS'->'
p304
aS'variable_9'
p305
ag17
aS'variable_10'
p306
ag10
aS'sizeof'
p307
ag6
aS'variable_11'
p308
ag13
ag13
ag13
ag22
aS'func_2'
p309
ag6
aS'variable_3'
p310
aS'->'
p311
aS'variable_4'
p312
ag17
aS'variable_5'
p313
ag17
aS'variable_8'
p314
aS'->'
p315
aS'variable_12'
p316
ag13
ag22
aS'func_3'
p317
ag6
aS'variable_3'
p318
aS'->'
p319
aS'variable_4'
p320
ag17
aS'variable_5'
p321
ag17
aS'variable_8'
p322
aS'->'
p323
aS'variable_13'
p324
ag13
ag22
aS'func_4'
p325
ag6
aS'variable_3'
p326
aS'->'
p327
aS'variable_4'
p328
ag17
aS'variable_5'
p329
ag17
aS'variable_8'
p330
aS'->'
p331
aS'variable_14'
p332
ag13
ag22
aS'func_5'
p333
ag6
aS'variable_3'
p334
aS'->'
p335
aS'variable_4'
p336
ag17
aS'variable_5'
p337
ag17
aS'variable_8'
p338
aS'->'
p339
aS'variable_15'
p340
ag13
ag22
aS'func_6'
p341
ag6
aS'variable_3'
p342
aS'->'
p343
aS'variable_4'
p344
ag17
aS'variable_5'
p345
ag17
aS'variable_8'
p346
aS'->'
p347
aS'variable_16'
p348
ag13
ag22
aS'func_7'
p349
ag6
aS'variable_3'
p350
aS'->'
p351
aS'variable_4'
p352
ag17
aS'variable_5'
p353
ag17
aS'variable_8'
p354
aS'->'
p355
aS'variable_17'
p356
ag13
ag22
aS'if'
p357
ag6
aS'variable_3'
p358
aS'->'
p359
aS'variable_4'
p360
ag17
aS'variable_5'
p361
ag17
aS'variable_8'
p362
aS'->'
p363
aS'variable_12'
p364
aS'!='
p365
aS'variable_18'
p366
aS'&&'
p367
aS'variable_3'
p368
aS'->'
p369
aS'variable_9'
p370
ag17
aS'variable_10'
p371
ag51
aS'sizeof'
p372
ag6
aS'variable_11'
p373
ag13
ag13
aS'func_8'
p374
ag6
aS'variable_3'
p375
aS'->'
p376
aS'variable_4'
p377
ag17
aS'variable_5'
p378
ag17
aS'variable_8'
p379
aS'->'
p380
aS'variable_19'
p381
ag13
ag22
aS'if'
p382
ag6
aS'variable_3'
p383
aS'->'
p384
aS'variable_4'
p385
ag17
aS'variable_5'
p386
ag17
aS'variable_8'
p387
aS'->'
p388
aS'variable_19'
p389
ag51
aS'variable_3'
p390
aS'->'
p391
aS'variable_9'
p392
ag17
aS'variable_10'
p393
ag66
aS'sizeof'
p394
ag6
aS'variable_11'
p395
ag13
ag13
aS'variable_3'
p396
aS'->'
p397
aS'variable_4'
p398
ag17
aS'variable_5'
p399
ag17
aS'variable_8'
p400
aS'->'
p401
aS'variable_19'
p402
ag20
aS'variable_3'
p403
aS'->'
p404
aS'variable_9'
p405
ag17
aS'variable_10'
p406
ag66
aS'sizeof'
p407
ag6
aS'variable_11'
p408
ag13
ag22
aS'if'
p409
ag6
aS'variable_3'
p410
aS'->'
p411
aS'variable_4'
p412
ag17
aS'variable_5'
p413
ag17
aS'variable_8'
p414
aS'->'
p415
aS'variable_12'
p416
aS'=='
p417
aS'variable_20'
p418
ag13
aS'variable_3'
p419
aS'->'
p420
aS'variable_4'
p421
ag17
aS'variable_5'
p422
ag17
aS'variable_8'
p423
aS'->'
p424
aS'variable_19'
p425
ag20
ag89
ag22
aS'if'
p426
ag6
aS'variable_3'
p427
aS'->'
p428
aS'variable_4'
p429
ag17
aS'variable_5'
p430
ag17
aS'variable_8'
p431
aS'->'
p432
aS'variable_19'
p433
ag51
ag89
ag13
aS'memcpy'
p434
ag6
ag99
aS'variable_3'
p435
aS'->'
p436
aS'variable_4'
p437
ag17
aS'variable_5'
p438
ag17
aS'variable_8'
p439
ag105
ag106
ag107
ag10
aS'variable_21'
p440
ag109
ag110
ag109
aS'sizeof'
p441
ag6
aS'variable_11'
p442
ag13
ag10
aS'variable_3'
p443
aS'->'
p444
aS'variable_4'
p445
ag17
aS'variable_5'
p446
ag17
aS'variable_8'
p447
aS'->'
p448
aS'variable_19'
p449
ag13
ag22
aS'func_9'
p450
ag6
ag6
aS'vlc_object_t'
p451
ag8
ag13
aS'variable_1'
p452
ag10
aS'"'
p453
aS'strf'
p454
aS':'
p455
aS'audio'
p456
ag455
aS'0x'
p457
aS'%'
p458
aS'4'
p459
ag17
aS'4x'
p460
aS'channels'
p461
ag455
ag458
aS'd'
p462
ag458
aS'dHz'
p463
ag458
aS'dbits'
p464
aS'/'
p465
aS'sample'
p466
ag458
aS'dkb'
p467
ag465
aS's'
p468
ag453
ag10
aS'variable_3'
p469
aS'->'
p470
aS'variable_4'
p471
ag17
aS'variable_5'
p472
ag17
aS'variable_8'
p473
aS'->'
p474
aS'variable_12'
p475
ag10
aS'variable_3'
p476
aS'->'
p477
aS'variable_4'
p478
ag17
aS'variable_5'
p479
ag17
aS'variable_8'
p480
aS'->'
p481
aS'variable_13'
p482
ag10
aS'variable_3'
p483
aS'->'
p484
aS'variable_4'
p485
ag17
aS'variable_5'
p486
ag17
aS'variable_8'
p487
aS'->'
p488
aS'variable_14'
p489
ag10
aS'variable_3'
p490
aS'->'
p491
aS'variable_4'
p492
ag17
aS'variable_5'
p493
ag17
aS'variable_8'
p494
aS'->'
p495
aS'variable_17'
p496
ag10
aS'variable_3'
p497
aS'->'
p498
aS'variable_4'
p499
ag17
aS'variable_5'
p500
ag17
aS'variable_8'
p501
aS'->'
p502
aS'variable_15'
p503
ag8
ag110
ag465
aS'1024'
p504
ag13
ag22
aS'variable_3'
p505
aS'->'
p506
aS'variable_4'
p507
ag17
aS'variable_22'
p508
ag17
aS'variable_6'
p509
ag20
aS'variable_23'
p510
ag22
aS'variable_3'
p511
aS'->'
p512
aS'variable_4'
p513
ag17
aS'variable_22'
p514
ag17
aS'variable_24'
p515
ag20
aS'malloc'
p516
ag6
aS'func_10'
p517
ag6
aS'variable_3'
p518
aS'->'
p519
aS'variable_9'
p520
ag17
aS'variable_10'
p521
ag10
aS'sizeof'
p522
ag6
ag8
aS'variable_3'
p523
aS'->'
p524
aS'variable_4'
p525
ag17
aS'variable_22'
p526
ag17
aS'variable_24'
p527
ag13
ag13
ag13
ag22
aS'func_11'
p528
ag6
aS'variable_3'
p529
aS'->'
p530
aS'variable_4'
p531
ag17
aS'variable_22'
p532
ag17
aS'variable_24'
p533
aS'->'
p534
aS'variable_25'
p535
ag13
ag22
aS'func_12'
p536
ag6
aS'variable_3'
p537
aS'->'
p538
aS'variable_4'
p539
ag17
aS'variable_22'
p540
ag17
aS'variable_24'
p541
aS'->'
p542
aS'variable_26'
p543
ag13
ag22
aS'func_13'
p544
ag6
aS'variable_3'
p545
aS'->'
p546
aS'variable_4'
p547
ag17
aS'variable_22'
p548
ag17
aS'variable_24'
p549
aS'->'
p550
aS'variable_27'
p551
ag13
ag22
aS'func_14'
p552
ag6
aS'variable_3'
p553
aS'->'
p554
aS'variable_4'
p555
ag17
aS'variable_22'
p556
ag17
aS'variable_24'
p557
aS'->'
p558
aS'variable_28'
p559
ag13
ag22
aS'func_15'
p560
ag6
aS'variable_3'
p561
aS'->'
p562
aS'variable_4'
p563
ag17
aS'variable_22'
p564
ag17
aS'variable_24'
p565
aS'->'
p566
aS'variable_29'
p567
ag13
ag22
aS'func_16'
p568
ag6
aS'variable_3'
p569
aS'->'
p570
aS'variable_4'
p571
ag17
aS'variable_22'
p572
ag17
aS'variable_24'
p573
aS'->'
p574
aS'variable_30'
p575
ag13
ag22
aS'func_17'
p576
ag6
aS'variable_3'
p577
aS'->'
p578
aS'variable_4'
p579
ag17
aS'variable_22'
p580
ag17
aS'variable_24'
p581
aS'->'
p582
aS'variable_31'
p583
ag13
ag22
aS'func_18'
p584
ag6
aS'variable_3'
p585
aS'->'
p586
aS'variable_4'
p587
ag17
aS'variable_22'
p588
ag17
aS'variable_24'
p589
aS'->'
p590
aS'variable_32'
p591
ag13
ag22
aS'func_19'
p592
ag6
aS'variable_3'
p593
aS'->'
p594
aS'variable_4'
p595
ag17
aS'variable_22'
p596
ag17
aS'variable_24'
p597
aS'->'
p598
aS'variable_33'
p599
ag13
ag22
aS'func_20'
p600
ag6
aS'variable_3'
p601
aS'->'
p602
aS'variable_4'
p603
ag17
aS'variable_22'
p604
ag17
aS'variable_24'
p605
aS'->'
p606
aS'variable_34'
p607
ag13
ag22
aS'func_21'
p608
ag6
aS'variable_3'
p609
aS'->'
p610
aS'variable_4'
p611
ag17
aS'variable_22'
p612
ag17
aS'variable_24'
p613
aS'->'
p614
aS'variable_35'
p615
ag13
ag22
aS'if'
p616
ag6
aS'variable_3'
p617
aS'->'
p618
aS'variable_4'
p619
ag17
aS'variable_22'
p620
ag17
aS'variable_24'
p621
aS'->'
p622
aS'variable_25'
p623
ag51
aS'variable_3'
p624
aS'->'
p625
aS'variable_9'
p626
ag17
aS'variable_10'
p627
ag13
aS'variable_3'
p628
aS'->'
p629
aS'variable_4'
p630
ag17
aS'variable_22'
p631
ag17
aS'variable_24'
p632
aS'->'
p633
aS'variable_25'
p634
ag20
aS'variable_3'
p635
aS'->'
p636
aS'variable_9'
p637
ag17
aS'variable_10'
p638
ag22
aS'if'
p639
ag6
aS'variable_3'
p640
aS'->'
p641
aS'variable_9'
p642
ag17
aS'variable_10'
p643
ag51
aS'sizeof'
p644
ag6
aS'variable_36'
p645
ag13
ag13
aS'memcpy'
p646
ag6
ag99
aS'variable_3'
p647
aS'->'
p648
aS'variable_4'
p649
ag17
aS'variable_22'
p650
ag17
aS'variable_24'
p651
ag105
ag106
ag107
ag10
aS'variable_21'
p652
ag109
ag110
ag109
aS'sizeof'
p653
ag6
aS'variable_36'
p654
ag13
ag10
aS'variable_3'
p655
aS'->'
p656
aS'variable_9'
p657
ag17
aS'variable_10'
p658
ag66
aS'sizeof'
p659
ag6
aS'variable_36'
p660
ag13
ag13
ag22
aS'variable_3'
p661
aS'->'
p662
aS'variable_4'
p663
ag17
aS'variable_9'
p664
ag17
aS'variable_6'
p665
ag20
aS'variable_37'
p666
ag22
aaa(lp667
I0
aI0
aa(lp668
I194
aI30
aa(lp669
(lp670
S'main'
p671
aa(lp672
g671
aaa(lp673
S'703 /home/SySeVR/data/CVE_2011_2588_PATCHED_AVI_ChunkRead_strf.c malloc 69'
p674
aS'704 /home/SySeVR/data/CVE_2011_2588_PATCHED_AVI_ChunkRead_strf.c malloc 21'
p675
aa.