(lp0
(lp1
(lp2
S'static'
p3
aS'int'
p4
aS'func_0'
p5
aS'('
p6
aS'variable_0'
p7
aS'*'
p8
aS'variable_1'
p9
aS','
p10
aS'variable_2'
p11
ag8
aS'variable_3'
p12
aS')'
p13
aS'variable_3'
p14
aS'->'
p15
aS'variable_4'
p16
aS'.'
p17
aS'variable_5'
p18
ag17
aS'variable_6'
p19
aS'='
p20
aS'variable_7'
p21
aS';'
p22
aS'variable_3'
p23
aS'->'
p24
aS'variable_4'
p25
ag17
aS'variable_5'
p26
ag17
aS'variable_8'
p27
ag20
aS'malloc'
p28
ag6
aS'func_1'
p29
ag6
aS'variable_3'
p30
aS'->'
p31
aS'variable_9'
p32
ag17
aS'variable_10'
p33
ag10
aS'sizeof'
p34
ag6
aS'variable_11'
p35
ag13
ag13
ag13
ag22
aS'if'
p36
ag6
aS'variable_3'
p37
aS'->'
p38
aS'variable_4'
p39
ag17
aS'variable_5'
p40
ag17
aS'variable_8'
p41
aS'->'
p42
aS'variable_12'
p43
aS'!='
p44
aS'variable_13'
p45
aS'&&'
p46
aS'variable_3'
p47
aS'->'
p48
aS'variable_9'
p49
ag17
aS'variable_10'
p50
aS'>'
p51
aS'sizeof'
p52
ag6
aS'variable_11'
p53
ag13
ag13
aS'if'
p54
ag6
aS'variable_3'
p55
aS'->'
p56
aS'variable_4'
p57
ag17
aS'variable_5'
p58
ag17
aS'variable_8'
p59
aS'->'
p60
aS'variable_14'
p61
ag51
aS'variable_3'
p62
aS'->'
p63
aS'variable_9'
p64
ag17
aS'variable_10'
p65
aS'-'
p66
aS'sizeof'
p67
ag6
aS'variable_11'
p68
ag13
ag13
aS'variable_3'
p69
aS'->'
p70
aS'variable_4'
p71
ag17
aS'variable_5'
p72
ag17
aS'variable_8'
p73
aS'->'
p74
aS'variable_14'
p75
ag20
aS'variable_3'
p76
aS'->'
p77
aS'variable_9'
p78
ag17
aS'variable_10'
p79
ag66
aS'sizeof'
p80
ag6
aS'variable_11'
p81
ag13
ag22
aS'if'
p82
ag6
aS'variable_3'
p83
aS'->'
p84
aS'variable_4'
p85
ag17
aS'variable_5'
p86
ag17
aS'variable_8'
p87
aS'->'
p88
aS'variable_12'
p89
aS'=='
p90
aS'variable_15'
p91
ag13
aS'variable_3'
p92
aS'->'
p93
aS'variable_4'
p94
ag17
aS'variable_5'
p95
ag17
aS'variable_8'
p96
aS'->'
p97
aS'variable_14'
p98
ag20
aS'0'
p99
ag22
aS'if'
p100
ag6
aS'variable_3'
p101
aS'->'
p102
aS'variable_4'
p103
ag17
aS'variable_5'
p104
ag17
aS'variable_8'
p105
aS'->'
p106
aS'variable_14'
p107
ag51
ag99
ag13
aS'memcpy'
p108
ag6
aS'&'
p109
aS'variable_3'
p110
aS'->'
p111
aS'variable_4'
p112
ag17
aS'variable_5'
p113
ag17
aS'variable_8'
p114
aS'['
p115
aS'1'
p116
aS']'
p117
ag10
aS'variable_16'
p118
aS'+'
p119
aS'8'
p120
ag119
aS'sizeof'
p121
ag6
aS'variable_11'
p122
ag13
ag10
aS'variable_3'
p123
aS'->'
p124
aS'variable_4'
p125
ag17
aS'variable_5'
p126
ag17
aS'variable_8'
p127
aS'->'
p128
aS'variable_14'
p129
ag13
ag22
aS'func_2'
p130
ag6
ag6
aS'vlc_object_t'
p131
ag8
ag13
aS'variable_1'
p132
ag10
aS'"'
p133
aS'strf'
p134
aS':'
p135
aS'audio'
p136
ag135
aS'0x'
p137
aS'%'
p138
aS'4'
p139
ag17
aS'4x'
p140
aS'channels'
p141
ag135
ag138
aS'd'
p142
ag138
aS'dHz'
p143
ag138
aS'dbits'
p144
aS'/'
p145
aS'sample'
p146
ag138
aS'dkb'
p147
ag145
aS's'
p148
ag133
ag10
aS'variable_3'
p149
aS'->'
p150
aS'variable_4'
p151
ag17
aS'variable_5'
p152
ag17
aS'variable_8'
p153
aS'->'
p154
aS'variable_12'
p155
ag10
aS'variable_3'
p156
aS'->'
p157
aS'variable_4'
p158
ag17
aS'variable_5'
p159
ag17
aS'variable_8'
p160
aS'->'
p161
aS'variable_17'
p162
ag10
aS'variable_3'
p163
aS'->'
p164
aS'variable_4'
p165
ag17
aS'variable_5'
p166
ag17
aS'variable_8'
p167
aS'->'
p168
aS'variable_18'
p169
ag10
aS'variable_3'
p170
aS'->'
p171
aS'variable_4'
p172
ag17
aS'variable_5'
p173
ag17
aS'variable_8'
p174
aS'->'
p175
aS'variable_19'
p176
ag10
aS'variable_3'
p177
aS'->'
p178
aS'variable_4'
p179
ag17
aS'variable_5'
p180
ag17
aS'variable_8'
p181
aS'->'
p182
aS'variable_20'
p183
ag8
ag120
ag145
aS'1024'
p184
ag13
ag22
aS'variable_3'
p185
aS'->'
p186
aS'variable_4'
p187
ag17
aS'variable_21'
p188
ag17
aS'variable_6'
p189
ag20
aS'variable_22'
p190
ag22
aS'variable_3'
p191
aS'->'
p192
aS'variable_4'
p193
ag17
aS'variable_21'
p194
ag17
aS'variable_23'
p195
ag20
aS'malloc'
p196
ag6
aS'func_3'
p197
ag6
aS'variable_3'
p198
aS'->'
p199
aS'variable_9'
p200
ag17
aS'variable_10'
p201
ag10
aS'sizeof'
p202
ag6
ag8
aS'variable_3'
p203
aS'->'
p204
aS'variable_4'
p205
ag17
aS'variable_21'
p206
ag17
aS'variable_23'
p207
ag13
ag13
ag13
ag22
aS'func_4'
p208
ag6
aS'variable_3'
p209
aS'->'
p210
aS'variable_4'
p211
ag17
aS'variable_21'
p212
ag17
aS'variable_23'
p213
aS'->'
p214
aS'variable_24'
p215
ag13
ag22
aS'func_5'
p216
ag6
aS'variable_3'
p217
aS'->'
p218
aS'variable_4'
p219
ag17
aS'variable_21'
p220
ag17
aS'variable_23'
p221
aS'->'
p222
aS'variable_25'
p223
ag13
ag22
aS'func_6'
p224
ag6
aS'variable_3'
p225
aS'->'
p226
aS'variable_4'
p227
ag17
aS'variable_21'
p228
ag17
aS'variable_23'
p229
aS'->'
p230
aS'variable_26'
p231
ag13
ag22
aS'func_7'
p232
ag6
aS'variable_3'
p233
aS'->'
p234
aS'variable_4'
p235
ag17
aS'variable_21'
p236
ag17
aS'variable_23'
p237
aS'->'
p238
aS'variable_27'
p239
ag13
ag22
aS'func_8'
p240
ag6
aS'variable_3'
p241
aS'->'
p242
aS'variable_4'
p243
ag17
aS'variable_21'
p244
ag17
aS'variable_23'
p245
aS'->'
p246
aS'variable_28'
p247
ag13
ag22
aS'func_9'
p248
ag6
aS'variable_3'
p249
aS'->'
p250
aS'variable_4'
p251
ag17
aS'variable_21'
p252
ag17
aS'variable_23'
p253
aS'->'
p254
aS'variable_29'
p255
ag13
ag22
aS'func_10'
p256
ag6
aS'variable_3'
p257
aS'->'
p258
aS'variable_4'
p259
ag17
aS'variable_21'
p260
ag17
aS'variable_23'
p261
aS'->'
p262
aS'variable_30'
p263
ag13
ag22
aS'func_11'
p264
ag6
aS'variable_3'
p265
aS'->'
p266
aS'variable_4'
p267
ag17
aS'variable_21'
p268
ag17
aS'variable_23'
p269
aS'->'
p270
aS'variable_31'
p271
ag13
ag22
aS'func_12'
p272
ag6
aS'variable_3'
p273
aS'->'
p274
aS'variable_4'
p275
ag17
aS'variable_21'
p276
ag17
aS'variable_23'
p277
aS'->'
p278
aS'variable_32'
p279
ag13
ag22
aS'func_13'
p280
ag6
aS'variable_3'
p281
aS'->'
p282
aS'variable_4'
p283
ag17
aS'variable_21'
p284
ag17
aS'variable_23'
p285
aS'->'
p286
aS'variable_33'
p287
ag13
ag22
aS'func_14'
p288
ag6
aS'variable_3'
p289
aS'->'
p290
aS'variable_4'
p291
ag17
aS'variable_21'
p292
ag17
aS'variable_23'
p293
aS'->'
p294
aS'variable_34'
p295
ag13
ag22
aS'if'
p296
ag6
aS'variable_3'
p297
aS'->'
p298
aS'variable_4'
p299
ag17
aS'variable_21'
p300
ag17
aS'variable_23'
p301
aS'->'
p302
aS'variable_24'
p303
ag51
aS'variable_3'
p304
aS'->'
p305
aS'variable_9'
p306
ag17
aS'variable_10'
p307
ag13
aS'variable_3'
p308
aS'->'
p309
aS'variable_4'
p310
ag17
aS'variable_21'
p311
ag17
aS'variable_23'
p312
aS'->'
p313
aS'variable_24'
p314
ag20
aS'variable_3'
p315
aS'->'
p316
aS'variable_9'
p317
ag17
aS'variable_10'
p318
ag22
aS'if'
p319
ag6
aS'variable_3'
p320
aS'->'
p321
aS'variable_9'
p322
ag17
aS'variable_10'
p323
ag51
aS'sizeof'
p324
ag6
aS'variable_35'
p325
ag13
ag13
aS'memcpy'
p326
ag6
ag109
aS'variable_3'
p327
aS'->'
p328
aS'variable_4'
p329
ag17
aS'variable_21'
p330
ag17
aS'variable_23'
p331
ag115
ag116
ag117
ag10
aS'variable_16'
p332
ag119
ag120
ag119
aS'sizeof'
p333
ag6
aS'variable_35'
p334
ag13
ag10
aS'variable_3'
p335
aS'->'
p336
aS'variable_9'
p337
ag17
aS'variable_10'
p338
ag66
aS'sizeof'
p339
ag6
aS'variable_35'
p340
ag13
ag13
ag22
aS'variable_3'
p341
aS'->'
p342
aS'variable_4'
p343
ag17
aS'variable_9'
p344
ag17
aS'variable_6'
p345
ag20
aS'variable_36'
p346
ag22
aaa(lp347
I0
aa(lp348
I114
aa(lp349
(lp350
S'main'
p351
aaa(lp352
S'205 /home/SySeVR/data/CVE_2011_2588_PATCHED_AVI_ChunkRead_strf.c p_chk -> strf . auds . p_wf -> cbSize = p_chk -> common . i_chunk_size - sizeof ( WAVEFORMATEX ) 36'
p353
aa.