(lp0
(lp1
(lp2
S'static'
p3
aS'void'
p4
aS'func_0'
p5
aS'('
p6
aS'variable_0'
p7
aS'*'
p8
aS'variable_1'
p9
aS','
p10
aS'const'
p11
aS'uint8_t'
p12
ag8
aS'variable_2'
p13
ag10
aS'const'
p14
aS'uint8_t'
p15
ag8
aS'variable_3'
p16
ag10
aS'int'
p17
aS'variable_4'
p18
aS')'
p19
aS'long'
p20
aS'variable_5'
p21
aS';'
p22
aS'if'
p23
ag6
ag6
aS'long'
p24
ag19
aS'variable_3'
p25
aS'&'
p26
ag6
aS'sizeof'
p27
ag6
aS'long'
p28
ag19
aS'-'
p29
aS'1'
p30
ag19
ag19
aS'for'
p31
ag6
aS'variable_5'
p32
aS'='
p33
aS'0'
p34
ag22
aS'variable_5'
p35
aS'<'
p36
ag33
aS'variable_4'
p37
ag29
ag6
aS'int'
p38
ag19
aS'sizeof'
p39
ag6
aS'long'
p40
ag19
ag22
aS'variable_5'
p41
aS'+='
p42
aS'sizeof'
p43
ag6
aS'long'
p44
ag19
ag19
aS'long'
p45
aS'variable_6'
p46
ag33
ag8
ag6
aS'long'
p47
ag8
ag19
ag6
aS'variable_2'
p48
aS'+'
p49
aS'variable_5'
p50
ag19
ag22
aS'long'
p51
aS'variable_7'
p52
ag33
ag8
ag6
aS'long'
p53
ag8
ag19
ag6
aS'variable_3'
p54
ag49
aS'variable_5'
p55
ag19
ag22
ag8
ag6
aS'long'
p56
ag8
ag19
ag6
aS'variable_1'
p57
ag49
aS'variable_5'
p58
ag19
ag33
ag6
ag6
aS'variable_6'
p59
aS'|'
p60
aS'variable_8'
p61
ag19
ag29
ag6
aS'variable_7'
p62
ag26
aS'variable_9'
p63
ag19
ag19
aS'^'
p64
ag6
ag6
aS'variable_6'
p65
ag64
aS'variable_7'
p66
ag64
aS'variable_8'
p67
ag19
ag26
aS'variable_8'
p68
ag19
ag22
aS'for'
p69
ag6
ag22
aS'variable_5'
p70
ag36
aS'variable_4'
p71
ag22
aS'variable_5'
p72
aS'++'
p73
ag19
aS'variable_1'
p74
aS'['
p75
aS'variable_5'
p76
ag49
ag34
aS']'
p77
ag33
aS'variable_2'
p78
ag75
aS'variable_5'
p79
ag49
ag34
ag77
ag29
aS'variable_3'
p80
ag75
aS'variable_5'
p81
ag49
ag34
ag77
ag22
aaa(lp82
I0
aa(lp83
I92
aa(lp84
(lp85
S'main'
p86
aaa(lp87
S'846 /home/SySeVR/data/CVE_2013_7010_PATCHED_diff_bytes_c.c long b = * ( long * ) ( src2 + i ) ; 19'
p88
aa.