(lp0
(lp1
(lp2
S'static'
p3
aS'void'
p4
aS'func_0'
p5
aS'('
p6
aS'variable_0'
p7
aS'*'
p8
aS'variable_1'
p9
aS','
p10
aS'variable_2'
p11
ag8
aS'variable_3'
p12
ag10
aS'variable_4'
p13
ag8
aS'variable_5'
p14
ag10
aS'int'
p15
aS'variable_6'
p16
ag10
aS'variable_7'
p17
ag8
aS'variable_8'
p18
aS')'
p19
aS'gint'
p20
aS'variable_9'
p21
ag10
aS'variable_10'
p22
ag10
aS'variable_11'
p23
ag10
aS'variable_12'
p24
ag10
aS'variable_13'
p25
aS';'
p26
aS'variable_14'
p27
ag8
aS'variable_15'
p28
ag26
aS'gint'
p29
aS'variable_16'
p30
ag26
aS'const'
p31
aS'char'
p32
ag8
aS'variable_17'
p33
aS'='
p34
aS'const'
p35
aS'char'
p36
ag8
aS'variable_18'
p37
ag34
aS'"'
p38
aS'h324ext'
p39
aS'/'
p40
aS'h223lcparm'
p41
ag38
ag26
aS'variable_9'
p42
ag34
aS'0'
p43
ag26
aS'variable_13'
p44
ag34
aS'func_1'
p45
ag6
aS'variable_1'
p46
ag10
aS'variable_9'
p47
ag10
aS'-'
p48
aS'1'
p49
ag10
aS"'"
p50
aS':'
p51
ag50
ag19
ag26
aS'if'
p52
ag6
aS'variable_13'
p53
aS'=='
p54
ag48
ag49
ag19
aS'variable_11'
p55
ag34
aS'variable_13'
p56
ag48
aS'variable_9'
p57
ag26
aS'variable_16'
p58
ag34
aS'func_2'
p59
ag6
aS'variable_1'
p60
ag10
aS'variable_9'
p61
ag10
aS'variable_11'
p62
ag19
ag26
aS'variable_9'
p63
ag34
aS'variable_13'
p64
aS'+'
p65
ag49
ag26
aS'variable_9'
p66
ag34
aS'func_3'
p67
ag6
aS'variable_1'
p68
ag10
aS'variable_9'
p69
ag10
aS'func_4'
p70
ag6
aS'variable_1'
p71
ag10
aS'variable_9'
p72
ag19
ag19
ag26
aS'variable_15'
p73
ag34
aS'func_5'
p74
ag6
aS'variable_1'
p75
ag10
aS'variable_9'
p76
ag10
aS'func_6'
p77
ag6
aS'variable_1'
p78
ag10
aS'variable_9'
p79
ag19
ag19
ag26
aS'switch'
p80
ag6
aS'variable_16'
p81
ag19
aS'if'
p82
ag6
aS'strncmp'
p83
ag6
ag6
aS'char'
p84
ag8
ag19
aS'variable_15'
p85
ag10
aS'variable_18'
p86
ag10
aS'strlen'
p87
ag6
aS'variable_17'
p88
ag19
ag19
aS'=='
p89
ag43
ag19
aS'gint'
p90
aS'variable_19'
p91
ag26
aS'variable_19'
p92
ag34
ag6
aS'variable_20'
p93
ag19
aS'strlen'
p94
ag6
aS'variable_15'
p95
ag19
ag26
aS'variable_21'
p96
ag34
aS'func_7'
p97
ag6
aS'variable_1'
p98
ag10
aS'variable_3'
p99
ag10
aS'variable_19'
p100
ag10
aS'variable_15'
p101
ag19
ag26
aS'if'
p102
ag6
aS'variable_21'
p103
ag19
aS'func_8'
p104
ag6
aS'variable_21'
p105
ag10
ag43
ag10
aS'&'
p106
aS'variable_22'
p107
ag10
aS'variable_23'
p108
ag10
aS'variable_24'
p109
ag19
ag26
aa(lp110
S'static'
p111
aS'void'
p112
aS'func_0'
p113
ag6
aS'variable_0'
p114
ag8
aS'variable_1'
p115
ag10
aS'variable_2'
p116
ag8
aS'variable_3'
p117
ag10
aS'variable_4'
p118
ag8
aS'variable_5'
p119
ag10
aS'int'
p120
aS'variable_6'
p121
ag10
aS'variable_7'
p122
ag8
aS'variable_8'
p123
ag19
aS'gint'
p124
aS'variable_9'
p125
ag10
aS'variable_10'
p126
ag10
aS'variable_11'
p127
ag10
aS'variable_12'
p128
ag10
aS'variable_13'
p129
ag26
aS'variable_14'
p130
ag8
aS'variable_15'
p131
ag26
aS'gint'
p132
aS'variable_16'
p133
ag26
aS'const'
p134
aS'char'
p135
ag8
aS'variable_17'
p136
ag34
aS'const'
p137
aS'char'
p138
ag8
aS'variable_18'
p139
ag34
ag38
aS'h324ext'
p140
ag40
aS'h223lcparm'
p141
ag38
ag26
aS'variable_9'
p142
ag34
ag43
ag26
aS'variable_13'
p143
ag34
aS'func_1'
p144
ag6
aS'variable_1'
p145
ag10
aS'variable_9'
p146
ag10
ag48
ag49
ag10
ag50
ag51
ag50
ag19
ag26
aS'if'
p147
ag6
aS'variable_13'
p148
aS'=='
p149
ag48
ag49
ag19
aS'variable_11'
p150
ag34
aS'variable_13'
p151
ag48
aS'variable_9'
p152
ag26
aS'variable_16'
p153
ag34
aS'func_2'
p154
ag6
aS'variable_1'
p155
ag10
aS'variable_9'
p156
ag10
aS'variable_11'
p157
ag19
ag26
aS'variable_9'
p158
ag34
aS'variable_13'
p159
ag65
ag49
ag26
aS'variable_9'
p160
ag34
aS'func_3'
p161
ag6
aS'variable_1'
p162
ag10
aS'variable_9'
p163
ag10
aS'func_4'
p164
ag6
aS'variable_1'
p165
ag10
aS'variable_9'
p166
ag19
ag19
ag26
aS'variable_15'
p167
ag34
aS'func_5'
p168
ag6
aS'variable_1'
p169
ag10
aS'variable_9'
p170
ag10
aS'func_6'
p171
ag6
aS'variable_1'
p172
ag10
aS'variable_9'
p173
ag19
ag19
ag26
aS'switch'
p174
ag6
aS'variable_16'
p175
ag19
aS'if'
p176
ag6
aS'strncmp'
p177
ag6
ag6
aS'char'
p178
ag8
ag19
aS'variable_15'
p179
ag10
aS'variable_18'
p180
ag10
aS'strlen'
p181
ag6
aS'variable_17'
p182
ag19
ag19
aS'=='
p183
ag43
ag19
aa(lp184
S'static'
p185
aS'void'
p186
aS'func_0'
p187
ag6
aS'variable_0'
p188
ag8
aS'variable_1'
p189
ag10
aS'variable_2'
p190
ag8
aS'variable_3'
p191
ag10
aS'variable_4'
p192
ag8
aS'variable_5'
p193
ag10
aS'int'
p194
aS'variable_6'
p195
ag10
aS'variable_7'
p196
ag8
aS'variable_8'
p197
ag19
aS'variable_9'
p198
ag8
aS'variable_10'
p199
ag10
ag8
aS'variable_11'
p200
ag26
aS'gint'
p201
aS'variable_12'
p202
ag10
aS'variable_13'
p203
ag10
aS'variable_14'
p204
ag10
aS'variable_15'
p205
ag10
aS'variable_16'
p206
ag26
aS'variable_17'
p207
ag8
aS'variable_18'
p208
ag26
aS'variable_17'
p209
ag8
aS'variable_19'
p210
ag26
aS'guint8'
p211
aS'variable_20'
p212
ag26
aS'gint'
p213
aS'variable_21'
p214
ag26
aS'const'
p215
aS'char'
p216
ag8
aS'variable_22'
p217
ag34
aS'gboolean'
p218
aS'variable_23'
p219
ag34
aS'variable_24'
p220
ag26
aS'variable_12'
p221
ag34
ag43
ag26
aS'variable_10'
p222
ag34
aS'func_1'
p223
ag6
aS'variable_5'
p224
ag10
aS'variable_25'
p225
ag19
ag26
aS'variable_16'
p226
ag34
aS'func_2'
p227
ag6
aS'variable_1'
p228
ag10
aS'variable_12'
p229
ag10
ag48
ag49
ag10
ag50
ag51
ag50
ag19
ag26
aS'if'
p230
ag6
aS'variable_16'
p231
aS'=='
p232
ag48
ag49
ag19
aS'variable_14'
p233
ag34
aS'variable_16'
p234
ag48
aS'variable_12'
p235
ag26
aS'variable_21'
p236
ag34
aS'func_3'
p237
ag6
aS'variable_1'
p238
ag10
aS'variable_12'
p239
ag10
aS'variable_14'
p240
ag19
ag26
aS'variable_12'
p241
ag34
aS'variable_16'
p242
ag65
ag49
ag26
aS'variable_12'
p243
ag34
aS'func_4'
p244
ag6
aS'variable_1'
p245
ag10
aS'variable_12'
p246
ag10
aS'func_5'
p247
ag6
aS'variable_1'
p248
ag10
aS'variable_12'
p249
ag19
ag19
ag26
aS'variable_19'
p250
ag34
aS'func_6'
p251
ag6
aS'variable_1'
p252
ag10
aS'variable_12'
p253
ag10
aS'func_7'
p254
ag6
aS'variable_1'
p255
ag10
aS'variable_12'
p256
ag19
ag19
ag26
aS'switch'
p257
ag6
aS'variable_21'
p258
ag19
aS'variable_13'
p259
ag34
aS'func_8'
p260
ag6
aS'variable_1'
p261
ag10
aS'variable_12'
p262
ag10
ag48
ag49
ag10
ag50
ag50
ag19
ag26
aS'if'
p263
ag6
aS'variable_13'
p264
aS'=='
p265
ag48
ag49
ag19
aS'variable_14'
p266
ag34
aS'variable_13'
p267
ag48
aS'variable_12'
p268
ag26
aS'variable_18'
p269
ag34
aS'func_9'
p270
ag6
aS'variable_1'
p271
ag10
aS'variable_12'
p272
ag10
aS'variable_14'
p273
ag19
ag26
aS'variable_12'
p274
ag34
aS'variable_13'
p275
ag65
ag49
ag26
aS'variable_13'
p276
ag34
aS'func_10'
p277
ag6
aS'variable_1'
p278
ag10
aS'variable_12'
p279
ag10
ag48
ag49
ag10
ag50
ag40
ag50
ag19
ag26
aS'if'
p280
ag6
aS'variable_13'
p281
aS'=='
p282
ag48
ag49
ag19
aS'variable_14'
p283
ag34
aS'variable_13'
p284
ag48
aS'variable_12'
p285
ag26
aS'variable_20'
p286
ag34
aS'atoi'
p287
ag6
ag6
aS'char'
p288
ag8
ag19
aS'variable_18'
p289
ag19
ag26
aS'if'
p290
ag6
aS'variable_20'
p291
aS'>'
p292
ag34
aS'variable_26'
p293
ag19
aS'variable_13'
p294
ag34
aS'variable_13'
p295
ag65
ag49
ag26
aS'variable_12'
p296
ag34
aS'variable_13'
p297
ag26
aS'while'
p298
ag6
aS'variable_6'
p299
ag48
ag49
ag292
ag34
aS'variable_13'
p300
ag19
aS'if'
p301
ag6
aS'!'
p302
aS'isdigit'
p303
ag6
aS'func_11'
p304
ag6
aS'variable_1'
p305
ag10
aS'variable_13'
p306
ag19
ag19
ag19
aS'variable_13'
p307
aS'++'
p308
ag26
aS'variable_14'
p309
ag34
aS'variable_13'
p310
ag48
aS'variable_12'
p311
ag26
aS'if'
p312
ag6
aS'variable_10'
p313
ag19
aS'guint8'
p314
aS'variable_27'
p315
ag26
aS'variable_12'
p316
ag34
aS'func_12'
p317
ag6
aS'variable_1'
p318
ag10
aS'variable_12'
p319
ag10
aS'func_13'
p320
ag6
aS'variable_1'
p321
ag10
aS'variable_12'
p322
ag19
ag19
ag26
aS'variable_13'
p323
ag34
aS'func_14'
p324
ag6
aS'variable_1'
p325
ag10
aS'variable_12'
p326
ag10
ag48
ag49
ag10
ag50
ag50
ag19
ag26
aS'if'
p327
ag6
aS'variable_13'
p328
aS'=='
p329
ag48
ag49
ag19
aS'variable_14'
p330
ag34
aS'variable_13'
p331
ag48
aS'variable_12'
p332
ag26
aS'variable_27'
p333
ag34
aS'atoi'
p334
ag6
ag6
aS'char'
p335
ag8
ag19
aS'func_15'
p336
ag6
aS'variable_1'
p337
ag10
aS'variable_12'
p338
ag10
aS'variable_14'
p339
ag19
ag19
ag26
aS'if'
p340
ag6
aS'variable_27'
p341
ag292
ag34
aS'variable_26'
p342
ag19
aS'variable_12'
p343
ag34
aS'variable_13'
p344
ag65
ag49
ag26
aS'while'
p345
ag6
aS'variable_23'
p346
aS'=='
p347
aS'variable_24'
p348
ag19
aS'variable_13'
p349
ag34
aS'func_16'
p350
ag6
aS'variable_1'
p351
ag10
aS'variable_12'
p352
ag10
ag48
ag49
ag10
ag50
ag26
ag50
ag19
ag26
aS'variable_12'
p353
ag34
aS'func_17'
p354
ag6
aS'variable_1'
p355
ag10
aS'variable_12'
p356
ag10
aS'func_18'
p357
ag6
aS'variable_1'
p358
ag10
aS'variable_12'
p359
ag19
ag19
ag26
aS'if'
p360
ag6
aS'variable_13'
p361
aS'=='
p362
ag48
ag49
ag19
aS'variable_23'
p363
ag34
aS'variable_28'
p364
ag26
aS'variable_13'
p365
ag34
aS'func_19'
p366
ag6
aS'variable_1'
p367
ag19
ag26
aS'variable_12'
p368
ag34
aS'variable_13'
p369
ag65
ag49
ag26
aS'if'
p370
ag6
aS'strncmp'
p371
ag6
ag6
aS'char'
p372
ag8
ag19
aS'variable_19'
p373
ag10
aS'variable_22'
p374
ag10
aS'strlen'
p375
ag6
aS'variable_22'
p376
ag19
ag19
aS'=='
p377
ag43
ag19
aS'int'
p378
aS'variable_29'
p379
ag10
aS'variable_30'
p380
ag10
aS'variable_31'
p381
ag26
aS'variable_29'
p382
ag34
aS'variable_12'
p383
ag65
ag6
aS'int'
p384
ag19
aS'strlen'
p385
ag6
aS'variable_22'
p386
ag19
ag26
aS'variable_30'
p387
ag34
aS'func_20'
p388
ag6
aS'variable_1'
p389
ag10
aS'variable_29'
p390
ag10
ag48
ag49
ag10
ag50
ag51
ag50
ag19
ag26
aS'if'
p391
ag6
aS'variable_30'
p392
aS'!='
p393
ag48
ag49
ag19
aS'variable_31'
p394
ag34
aS'func_21'
p395
ag6
aS'variable_1'
p396
ag10
aS'variable_30'
p397
ag10
ag48
ag49
ag10
ag50
ag40
ag50
ag19
ag26
aS'if'
p398
ag6
aS'func_22'
p399
ag6
aS'variable_32'
p400
ag10
ag6
aS'char'
p401
ag8
ag19
aS'func_23'
p402
ag6
aS'variable_1'
p403
ag10
aS'variable_29'
p404
ag10
aS'variable_30'
p405
ag48
aS'variable_29'
p406
ag19
ag10
ag106
aS'variable_33'
p407
ag19
ag292
ag43
ag19
aS'variable_34'
p408
ag34
aS'atoi'
p409
ag6
ag6
aS'char'
p410
ag8
ag19
aS'func_24'
p411
ag6
aS'variable_1'
p412
ag10
aS'variable_30'
p413
ag65
ag49
ag10
aS'variable_31'
p414
ag48
aS'variable_30'
p415
ag48
ag49
ag19
ag19
ag26
aa(lp416
S'static'
p417
aS'void'
p418
aS'func_0'
p419
ag6
aS'variable_0'
p420
ag8
aS'variable_1'
p421
ag10
aS'variable_2'
p422
ag8
aS'variable_3'
p423
ag10
aS'variable_4'
p424
ag8
aS'variable_5'
p425
ag10
aS'int'
p426
aS'variable_6'
p427
ag10
aS'variable_7'
p428
ag8
aS'variable_8'
p429
ag19
aS'gint'
p430
aS'variable_9'
p431
ag10
aS'variable_10'
p432
ag10
aS'variable_11'
p433
ag10
aS'variable_12'
p434
ag10
aS'variable_13'
p435
ag26
aS'variable_14'
p436
ag8
aS'variable_15'
p437
ag26
aS'gint'
p438
aS'variable_16'
p439
ag26
aS'const'
p440
aS'char'
p441
ag8
aS'variable_17'
p442
ag34
aS'variable_9'
p443
ag34
ag43
ag26
aS'variable_13'
p444
ag34
aS'func_1'
p445
ag6
aS'variable_1'
p446
ag10
aS'variable_9'
p447
ag10
ag48
ag49
ag10
ag50
ag51
ag50
ag19
ag26
aS'if'
p448
ag6
aS'variable_13'
p449
aS'=='
p450
ag48
ag49
ag19
aS'variable_11'
p451
ag34
aS'variable_13'
p452
ag48
aS'variable_9'
p453
ag26
aS'variable_16'
p454
ag34
aS'func_2'
p455
ag6
aS'variable_1'
p456
ag10
aS'variable_9'
p457
ag10
aS'variable_11'
p458
ag19
ag26
aS'variable_9'
p459
ag34
aS'variable_13'
p460
ag65
ag49
ag26
aS'variable_9'
p461
ag34
aS'func_3'
p462
ag6
aS'variable_1'
p463
ag10
aS'variable_9'
p464
ag10
aS'func_4'
p465
ag6
aS'variable_1'
p466
ag10
aS'variable_9'
p467
ag19
ag19
ag26
aS'variable_15'
p468
ag34
aS'func_5'
p469
ag6
aS'variable_1'
p470
ag10
aS'variable_9'
p471
ag10
aS'func_6'
p472
ag6
aS'variable_1'
p473
ag10
aS'variable_9'
p474
ag19
ag19
ag26
aS'switch'
p475
ag6
aS'variable_16'
p476
ag19
aS'if'
p477
ag6
aS'strncmp'
p478
ag6
ag6
aS'char'
p479
ag8
ag19
aS'variable_15'
p480
ag10
aS'variable_17'
p481
ag10
aS'strlen'
p482
ag6
aS'variable_17'
p483
ag19
ag19
aS'=='
p484
ag43
ag19
aaa(lp485
I0
aI0
aI0
aI0
aa(lp486
I174
aI158
aI471
aI147
aa(lp487
(lp488
S'main'
p489
aa(lp490
g489
aa(lp491
g489
aa(lp492
g489
aaa(lp493
S'273 /home/SySeVR/data/CVE_2013_1576_VULN_dissect_sdp_media_attribute.c strlen 261'
p494
aS'274 /home/SySeVR/data/CVE_2013_1576_VULN_dissect_sdp_media_attribute.c strlen 251'
p495
aS'275 /home/SySeVR/data/CVE_2013_1576_VULN_dissect_sdp_media_attribute.c strlen 228'
p496
aS'276 /home/SySeVR/data/CVE_2013_1576_VULN_dissect_sdp_media_attribute.c strlen 224'
p497
aa.