(lp0
(lp1
(lp2
S'static'
p3
aS'void'
p4
aS'func_0'
p5
aS'('
p6
aS'variable_0'
p7
aS'*'
p8
aS'variable_1'
p9
aS','
p10
aS'variable_2'
p11
ag8
aS'variable_3'
p12
ag10
aS'variable_4'
p13
ag8
aS'variable_5'
p14
ag10
aS'int'
p15
aS'variable_6'
p16
ag10
aS'variable_7'
p17
ag8
aS'variable_8'
p18
aS')'
p19
aS'variable_9'
p20
ag8
aS'variable_10'
p21
ag10
ag8
aS'variable_11'
p22
aS';'
p23
aS'gint'
p24
aS'variable_12'
p25
ag10
aS'variable_13'
p26
ag10
aS'variable_14'
p27
ag10
aS'variable_15'
p28
ag10
aS'variable_16'
p29
ag23
aS'variable_17'
p30
ag8
aS'variable_18'
p31
ag23
aS'guint8'
p32
aS'variable_19'
p33
ag23
aS'gint'
p34
aS'variable_20'
p35
ag23
aS'gboolean'
p36
aS'variable_21'
p37
aS'='
p38
aS'variable_22'
p39
ag23
aS'variable_12'
p40
ag38
aS'0'
p41
ag23
aS'variable_10'
p42
ag38
aS'func_1'
p43
ag6
aS'variable_5'
p44
ag10
aS'variable_23'
p45
ag19
ag23
aS'variable_16'
p46
ag38
aS'func_2'
p47
ag6
aS'variable_1'
p48
ag10
aS'variable_12'
p49
ag10
aS'-'
p50
aS'1'
p51
ag10
aS"'"
p52
aS':'
p53
ag52
ag19
ag23
aS'if'
p54
ag6
aS'variable_16'
p55
aS'=='
p56
ag50
ag51
ag19
aS'variable_14'
p57
ag38
aS'variable_16'
p58
ag50
aS'variable_12'
p59
ag23
aS'variable_20'
p60
ag38
aS'func_3'
p61
ag6
aS'variable_1'
p62
ag10
aS'variable_12'
p63
ag10
aS'variable_14'
p64
ag19
ag23
aS'variable_12'
p65
ag38
aS'variable_16'
p66
aS'+'
p67
ag51
ag23
aS'variable_12'
p68
ag38
aS'func_4'
p69
ag6
aS'variable_1'
p70
ag10
aS'variable_12'
p71
ag10
aS'func_5'
p72
ag6
aS'variable_1'
p73
ag10
aS'variable_12'
p74
ag19
ag19
ag23
aS'switch'
p75
ag6
aS'variable_20'
p76
ag19
aS'variable_13'
p77
ag38
aS'func_6'
p78
ag6
aS'variable_1'
p79
ag10
aS'variable_12'
p80
ag10
ag50
ag51
ag10
ag52
ag52
ag19
ag23
aS'if'
p81
ag6
aS'variable_13'
p82
aS'=='
p83
ag50
ag51
ag19
aS'variable_14'
p84
ag38
aS'variable_13'
p85
ag50
aS'variable_12'
p86
ag23
aS'variable_18'
p87
ag38
aS'func_7'
p88
ag6
aS'variable_1'
p89
ag10
aS'variable_12'
p90
ag10
aS'variable_14'
p91
ag19
ag23
aS'variable_12'
p92
ag38
aS'variable_13'
p93
ag67
ag51
ag23
aS'variable_13'
p94
ag38
aS'func_8'
p95
ag6
aS'variable_1'
p96
ag10
aS'variable_12'
p97
ag10
ag50
ag51
ag10
ag52
aS'/'
p98
ag52
ag19
ag23
aS'if'
p99
ag6
aS'variable_13'
p100
aS'=='
p101
ag50
ag51
ag19
aS'variable_14'
p102
ag38
aS'variable_13'
p103
ag50
aS'variable_12'
p104
ag23
aS'variable_19'
p105
ag38
aS'atoi'
p106
ag6
ag6
aS'char'
p107
ag8
ag19
aS'variable_18'
p108
ag19
ag23
aS'if'
p109
ag6
aS'variable_19'
p110
aS'>'
p111
ag38
aS'variable_24'
p112
ag19
aS'variable_13'
p113
ag38
aS'variable_13'
p114
ag67
ag51
ag23
aS'variable_12'
p115
ag38
aS'variable_13'
p116
ag23
aS'while'
p117
ag6
aS'variable_6'
p118
ag50
ag51
ag111
ag38
aS'variable_13'
p119
ag19
aS'if'
p120
ag6
aS'!'
p121
aS'isdigit'
p122
ag6
aS'func_9'
p123
ag6
aS'variable_1'
p124
ag10
aS'variable_13'
p125
ag19
ag19
ag19
aS'variable_13'
p126
aS'++'
p127
ag23
aS'variable_14'
p128
ag38
aS'variable_13'
p129
ag50
aS'variable_12'
p130
ag23
aS'if'
p131
ag6
aS'variable_10'
p132
ag19
aS'guint8'
p133
aS'variable_25'
p134
ag23
aS'variable_12'
p135
ag38
aS'func_10'
p136
ag6
aS'variable_1'
p137
ag10
aS'variable_12'
p138
ag10
aS'func_11'
p139
ag6
aS'variable_1'
p140
ag10
aS'variable_12'
p141
ag19
ag19
ag23
aS'variable_13'
p142
ag38
aS'func_12'
p143
ag6
aS'variable_1'
p144
ag10
aS'variable_12'
p145
ag10
ag50
ag51
ag10
ag52
ag52
ag19
ag23
aS'if'
p146
ag6
aS'variable_13'
p147
aS'=='
p148
ag50
ag51
ag19
aS'variable_14'
p149
ag38
aS'variable_13'
p150
ag50
aS'variable_12'
p151
ag23
aS'variable_25'
p152
ag38
aS'atoi'
p153
ag6
ag6
aS'char'
p154
ag8
ag19
aS'func_13'
p155
ag6
aS'variable_1'
p156
ag10
aS'variable_12'
p157
ag10
aS'variable_14'
p158
ag19
ag19
ag23
aS'if'
p159
ag6
aS'variable_25'
p160
ag111
ag38
aS'variable_24'
p161
ag19
aS'variable_12'
p162
ag38
aS'variable_13'
p163
ag67
ag51
ag23
aS'while'
p164
ag6
aS'variable_21'
p165
aS'=='
p166
aS'variable_22'
p167
ag19
aS'variable_13'
p168
ag38
aS'func_14'
p169
ag6
aS'variable_1'
p170
ag10
aS'variable_12'
p171
ag10
ag50
ag51
ag10
ag52
ag23
ag52
ag19
ag23
aS'variable_12'
p172
ag38
aS'func_15'
p173
ag6
aS'variable_1'
p174
ag10
aS'variable_12'
p175
ag10
aS'func_16'
p176
ag6
aS'variable_1'
p177
ag10
aS'variable_12'
p178
ag19
ag19
ag23
aS'if'
p179
ag6
aS'variable_13'
p180
aS'=='
p181
ag50
ag51
ag19
aS'variable_21'
p182
ag38
aS'variable_26'
p183
ag23
aS'variable_13'
p184
ag38
aS'func_17'
p185
ag6
aS'variable_1'
p186
ag19
ag23
aS'variable_12'
p187
ag38
aS'variable_13'
p188
ag67
ag51
ag23
aS'variable_13'
p189
ag38
aS'func_18'
p190
ag6
aS'variable_1'
p191
ag10
aS'variable_12'
p192
ag10
ag50
ag51
ag10
ag52
ag52
ag19
ag23
aS'variable_12'
p193
ag38
aS'variable_13'
p194
ag67
ag51
ag23
aS'variable_13'
p195
ag38
aS'func_19'
p196
ag6
aS'variable_1'
p197
ag10
aS'variable_12'
p198
ag10
ag50
ag51
ag10
ag52
ag52
ag19
ag23
aS'variable_12'
p199
ag38
aS'variable_13'
p200
ag67
ag51
ag23
aS'while'
p201
ag6
aS'variable_21'
p202
aS'=='
p203
aS'variable_22'
p204
ag19
aS'int'
p205
aS'variable_27'
p206
ag23
aS'variable_27'
p207
ag38
aS'func_20'
p208
ag6
aS'variable_1'
p209
ag10
aS'variable_12'
p210
ag10
ag50
ag51
ag10
ag52
ag23
ag52
ag19
ag23
aS'if'
p211
ag6
aS'variable_27'
p212
aS'=='
p213
ag50
ag51
ag19
aS'variable_21'
p214
ag38
aS'variable_26'
p215
ag23
aS'variable_27'
p216
ag38
aS'func_21'
p217
ag6
aS'variable_1'
p218
ag19
ag23
aS'variable_13'
p219
ag38
aS'func_22'
p220
ag6
aS'variable_1'
p221
ag10
aS'variable_12'
p222
ag10
ag50
ag51
ag10
ag52
ag53
ag52
ag19
ag23
aS'if'
p223
ag6
aS'variable_13'
p224
aS'=='
p225
ag50
ag51
ag19
aS'if'
p226
ag6
aS'func_23'
p227
ag6
aS'variable_1'
p228
ag10
aS'variable_12'
p229
ag10
aS'"'
p230
aS'inline'
p231
ag230
ag10
aS'variable_13'
p232
ag50
aS'variable_12'
p233
ag19
aS'=='
p234
ag41
ag19
aS'variable_12'
p235
ag38
aS'variable_27'
p236
ag23
aS'variable_14'
p237
ag38
aS'variable_27'
p238
ag50
aS'variable_13'
p239
ag67
ag51
ag23
aS'func_24'
p240
ag6
aS'variable_28'
p241
ag10
aS'variable_1'
p242
ag10
aS'variable_13'
p243
ag67
ag51
ag10
aS'variable_14'
p244
ag10
ag230
aS'%'
p245
aS's'
p246
ag230
ag10
aS'func_25'
p247
ag6
aS'variable_1'
p248
ag10
aS'variable_13'
p249
ag67
ag51
ag10
aS'variable_14'
p250
ag19
ag19
ag23
aS'variable_12'
p251
ag38
aS'variable_27'
p252
ag23
aa(lp253
S'static'
p254
aS'void'
p255
aS'func_0'
p256
ag6
aS'variable_0'
p257
ag8
aS'variable_1'
p258
ag10
aS'variable_2'
p259
ag8
aS'variable_3'
p260
ag10
aS'variable_4'
p261
ag8
aS'variable_5'
p262
ag10
aS'int'
p263
aS'variable_6'
p264
ag10
aS'variable_7'
p265
ag8
aS'variable_8'
p266
ag19
aS'variable_9'
p267
ag8
aS'variable_10'
p268
ag10
ag8
aS'variable_11'
p269
ag23
aS'gint'
p270
aS'variable_12'
p271
ag10
aS'variable_13'
p272
ag10
aS'variable_14'
p273
ag10
aS'variable_15'
p274
ag10
aS'variable_16'
p275
ag23
aS'variable_17'
p276
ag8
aS'variable_18'
p277
ag23
aS'guint8'
p278
aS'variable_19'
p279
ag23
aS'gint'
p280
aS'variable_20'
p281
ag23
aS'gboolean'
p282
aS'variable_21'
p283
ag38
aS'variable_22'
p284
ag23
aS'variable_12'
p285
ag38
ag41
ag23
aS'variable_10'
p286
ag38
aS'func_1'
p287
ag6
aS'variable_5'
p288
ag10
aS'variable_23'
p289
ag19
ag23
aS'variable_16'
p290
ag38
aS'func_2'
p291
ag6
aS'variable_1'
p292
ag10
aS'variable_12'
p293
ag10
ag50
ag51
ag10
ag52
ag53
ag52
ag19
ag23
aS'if'
p294
ag6
aS'variable_16'
p295
aS'=='
p296
ag50
ag51
ag19
aS'variable_14'
p297
ag38
aS'variable_16'
p298
ag50
aS'variable_12'
p299
ag23
aS'variable_20'
p300
ag38
aS'func_3'
p301
ag6
aS'variable_1'
p302
ag10
aS'variable_12'
p303
ag10
aS'variable_14'
p304
ag19
ag23
aS'variable_12'
p305
ag38
aS'variable_16'
p306
ag67
ag51
ag23
aS'variable_12'
p307
ag38
aS'func_4'
p308
ag6
aS'variable_1'
p309
ag10
aS'variable_12'
p310
ag10
aS'func_5'
p311
ag6
aS'variable_1'
p312
ag10
aS'variable_12'
p313
ag19
ag19
ag23
aS'switch'
p314
ag6
aS'variable_20'
p315
ag19
aS'variable_13'
p316
ag38
aS'func_6'
p317
ag6
aS'variable_1'
p318
ag10
aS'variable_12'
p319
ag10
ag50
ag51
ag10
ag52
ag52
ag19
ag23
aS'if'
p320
ag6
aS'variable_13'
p321
aS'=='
p322
ag50
ag51
ag19
aS'variable_14'
p323
ag38
aS'variable_13'
p324
ag50
aS'variable_12'
p325
ag23
aS'variable_18'
p326
ag38
aS'func_7'
p327
ag6
aS'variable_1'
p328
ag10
aS'variable_12'
p329
ag10
aS'variable_14'
p330
ag19
ag23
aS'variable_12'
p331
ag38
aS'variable_13'
p332
ag67
ag51
ag23
aS'variable_13'
p333
ag38
aS'func_8'
p334
ag6
aS'variable_1'
p335
ag10
aS'variable_12'
p336
ag10
ag50
ag51
ag10
ag52
ag98
ag52
ag19
ag23
aS'if'
p337
ag6
aS'variable_13'
p338
aS'=='
p339
ag50
ag51
ag19
aS'variable_14'
p340
ag38
aS'variable_13'
p341
ag50
aS'variable_12'
p342
ag23
aS'variable_19'
p343
ag38
aS'atoi'
p344
ag6
ag6
aS'char'
p345
ag8
ag19
aS'variable_18'
p346
ag19
ag23
aS'if'
p347
ag6
aS'variable_19'
p348
ag111
ag38
aS'variable_24'
p349
ag19
aS'variable_13'
p350
ag38
aS'variable_13'
p351
ag67
ag51
ag23
aS'variable_12'
p352
ag38
aS'variable_13'
p353
ag23
aS'while'
p354
ag6
aS'variable_6'
p355
ag50
ag51
ag111
ag38
aS'variable_13'
p356
ag19
aS'if'
p357
ag6
ag121
aS'isdigit'
p358
ag6
aS'func_9'
p359
ag6
aS'variable_1'
p360
ag10
aS'variable_13'
p361
ag19
ag19
ag19
aS'variable_13'
p362
aS'++'
p363
ag23
aS'variable_14'
p364
ag38
aS'variable_13'
p365
ag50
aS'variable_12'
p366
ag23
aS'if'
p367
ag6
aS'variable_10'
p368
ag19
aS'guint8'
p369
aS'variable_25'
p370
ag23
aS'variable_12'
p371
ag38
aS'func_10'
p372
ag6
aS'variable_1'
p373
ag10
aS'variable_12'
p374
ag10
aS'func_11'
p375
ag6
aS'variable_1'
p376
ag10
aS'variable_12'
p377
ag19
ag19
ag23
aS'variable_13'
p378
ag38
aS'func_12'
p379
ag6
aS'variable_1'
p380
ag10
aS'variable_12'
p381
ag10
ag50
ag51
ag10
ag52
ag52
ag19
ag23
aS'if'
p382
ag6
aS'variable_13'
p383
aS'=='
p384
ag50
ag51
ag19
aS'variable_14'
p385
ag38
aS'variable_13'
p386
ag50
aS'variable_12'
p387
ag23
aS'variable_25'
p388
ag38
aS'atoi'
p389
ag6
ag6
aS'char'
p390
ag8
ag19
aS'func_13'
p391
ag6
aS'variable_1'
p392
ag10
aS'variable_12'
p393
ag10
aS'variable_14'
p394
ag19
ag19
ag23
aS'if'
p395
ag6
aS'variable_25'
p396
ag111
ag38
aS'variable_24'
p397
ag19
aS'variable_12'
p398
ag38
aS'variable_13'
p399
ag67
ag51
ag23
aS'while'
p400
ag6
aS'variable_21'
p401
aS'=='
p402
aS'variable_22'
p403
ag19
aS'variable_13'
p404
ag38
aS'func_14'
p405
ag6
aS'variable_1'
p406
ag10
aS'variable_12'
p407
ag10
ag50
ag51
ag10
ag52
ag23
ag52
ag19
ag23
aS'variable_12'
p408
ag38
aS'func_15'
p409
ag6
aS'variable_1'
p410
ag10
aS'variable_12'
p411
ag10
aS'func_16'
p412
ag6
aS'variable_1'
p413
ag10
aS'variable_12'
p414
ag19
ag19
ag23
aS'if'
p415
ag6
aS'variable_13'
p416
aS'=='
p417
ag50
ag51
ag19
aS'variable_21'
p418
ag38
aS'variable_26'
p419
ag23
aS'variable_13'
p420
ag38
aS'func_17'
p421
ag6
aS'variable_1'
p422
ag19
ag23
aS'variable_12'
p423
ag38
aS'variable_13'
p424
ag67
ag51
ag23
aS'variable_13'
p425
ag38
aS'func_18'
p426
ag6
aS'variable_1'
p427
ag10
aS'variable_12'
p428
ag10
ag50
ag51
ag10
ag52
ag52
ag19
ag23
aS'variable_12'
p429
ag38
aS'variable_13'
p430
ag67
ag51
ag23
aS'variable_13'
p431
ag38
aS'func_19'
p432
ag6
aS'variable_1'
p433
ag10
aS'variable_12'
p434
ag10
ag50
ag51
ag10
ag52
ag52
ag19
ag23
aS'variable_12'
p435
ag38
aS'variable_13'
p436
ag67
ag51
ag23
aS'while'
p437
ag6
aS'variable_21'
p438
aS'=='
p439
aS'variable_22'
p440
ag19
aS'int'
p441
aS'variable_27'
p442
ag23
aS'variable_27'
p443
ag38
aS'func_20'
p444
ag6
aS'variable_1'
p445
ag10
aS'variable_12'
p446
ag10
ag50
ag51
ag10
ag52
ag23
ag52
ag19
ag23
aS'if'
p447
ag6
aS'variable_27'
p448
aS'=='
p449
ag50
ag51
ag19
aS'variable_21'
p450
ag38
aS'variable_26'
p451
ag23
aS'variable_27'
p452
ag38
aS'func_21'
p453
ag6
aS'variable_1'
p454
ag19
ag23
aS'variable_13'
p455
ag38
aS'func_22'
p456
ag6
aS'variable_1'
p457
ag10
aS'variable_12'
p458
ag10
ag50
ag51
ag10
ag52
ag53
ag52
ag19
ag23
aS'if'
p459
ag6
aS'variable_13'
p460
aS'=='
p461
ag50
ag51
ag19
aS'if'
p462
ag6
aS'func_23'
p463
ag6
aS'variable_1'
p464
ag10
aS'variable_12'
p465
ag10
ag230
aS'inline'
p466
ag230
ag10
aS'variable_13'
p467
ag50
aS'variable_12'
p468
ag19
aS'=='
p469
ag41
ag19
aS'variable_12'
p470
ag38
aS'variable_13'
p471
ag67
ag51
ag23
aS'variable_13'
p472
ag38
aS'func_24'
p473
ag6
aS'variable_1'
p474
ag10
aS'variable_12'
p475
ag10
ag50
ag51
ag10
ag52
aS'|'
p476
ag52
ag19
ag23
aS'if'
p477
ag6
aS'variable_13'
p478
aS'!='
p479
ag50
ag51
ag19
aS'variable_12'
p480
ag38
aS'variable_13'
p481
ag67
ag51
ag23
aS'variable_13'
p482
ag38
aS'func_25'
p483
ag6
aS'variable_1'
p484
ag10
aS'variable_12'
p485
ag10
ag50
ag51
ag10
ag52
ag476
ag52
ag19
ag23
aS'if'
p486
ag6
aS'variable_13'
p487
aS'=='
p488
ag50
ag51
ag19
aS'if'
p489
ag6
aS'variable_13'
p490
aS'<'
p491
aS'variable_27'
p492
ag19
aS'variable_13'
p493
ag38
aS'variable_27'
p494
ag23
aS'if'
p495
ag6
aS'variable_13'
p496
aS'!='
p497
ag50
ag51
ag19
aS'variable_12'
p498
ag38
aS'variable_13'
p499
ag67
ag51
ag23
aS'if'
p500
ag6
aS'variable_12'
p501
ag111
aS'variable_27'
p502
ag19
aS'variable_13'
p503
ag38
ag50
ag51
ag23
aS'variable_13'
p504
ag38
aS'func_26'
p505
ag6
aS'variable_1'
p506
ag10
aS'variable_12'
p507
ag10
ag50
ag51
ag10
ag52
ag53
ag52
ag19
ag23
aS'if'
p508
ag6
aS'variable_13'
p509
aS'!='
p510
ag50
ag51
ag19
aS'variable_12'
p511
ag38
aS'variable_13'
p512
ag67
ag51
ag23
aS'variable_13'
p513
ag38
aS'variable_27'
p514
ag23
aS'variable_14'
p515
ag38
aS'variable_13'
p516
ag50
aS'variable_12'
p517
ag23
aS'variable_8'
p518
aS'->'
p519
aS'variable_28'
p520
ag38
aS'atoi'
p521
ag6
ag6
aS'char'
p522
ag8
ag19
aS'func_27'
p523
ag6
aS'variable_1'
p524
ag10
aS'variable_12'
p525
ag10
aS'variable_14'
p526
ag19
ag19
ag23
aS'func_28'
p527
ag6
aS'variable_29'
p528
ag10
aS'variable_30'
p529
ag10
aS'variable_1'
p530
ag10
aS'variable_12'
p531
ag10
aS'variable_14'
p532
ag10
aS'variable_31'
p533
ag476
aS'variable_32'
p534
ag19
ag23
aS'variable_12'
p535
ag38
aS'variable_27'
p536
ag23
aS'variable_12'
p537
ag38
aS'variable_27'
p538
ag23
aa(lp539
S'static'
p540
aS'void'
p541
aS'func_0'
p542
ag6
aS'variable_0'
p543
ag8
aS'variable_1'
p544
ag10
aS'variable_2'
p545
ag8
aS'variable_3'
p546
ag10
aS'variable_4'
p547
ag8
aS'variable_5'
p548
ag10
aS'int'
p549
aS'variable_6'
p550
ag10
aS'variable_7'
p551
ag8
aS'variable_8'
p552
ag19
aS'variable_9'
p553
ag8
aS'variable_10'
p554
ag10
ag8
aS'variable_11'
p555
ag23
aS'gint'
p556
aS'variable_12'
p557
ag10
aS'variable_13'
p558
ag10
aS'variable_14'
p559
ag10
aS'variable_15'
p560
ag10
aS'variable_16'
p561
ag23
aS'variable_17'
p562
ag8
aS'variable_18'
p563
ag23
aS'guint8'
p564
aS'variable_19'
p565
ag23
aS'gint'
p566
aS'variable_20'
p567
ag23
aS'gboolean'
p568
aS'variable_21'
p569
ag38
aS'variable_22'
p570
ag23
aS'variable_12'
p571
ag38
ag41
ag23
aS'variable_10'
p572
ag38
aS'func_1'
p573
ag6
aS'variable_5'
p574
ag10
aS'variable_23'
p575
ag19
ag23
aS'variable_16'
p576
ag38
aS'func_2'
p577
ag6
aS'variable_1'
p578
ag10
aS'variable_12'
p579
ag10
ag50
ag51
ag10
ag52
ag53
ag52
ag19
ag23
aS'if'
p580
ag6
aS'variable_16'
p581
aS'=='
p582
ag50
ag51
ag19
aS'variable_14'
p583
ag38
aS'variable_16'
p584
ag50
aS'variable_12'
p585
ag23
aS'variable_20'
p586
ag38
aS'func_3'
p587
ag6
aS'variable_1'
p588
ag10
aS'variable_12'
p589
ag10
aS'variable_14'
p590
ag19
ag23
aS'variable_12'
p591
ag38
aS'variable_16'
p592
ag67
ag51
ag23
aS'variable_12'
p593
ag38
aS'func_4'
p594
ag6
aS'variable_1'
p595
ag10
aS'variable_12'
p596
ag10
aS'func_5'
p597
ag6
aS'variable_1'
p598
ag10
aS'variable_12'
p599
ag19
ag19
ag23
aS'switch'
p600
ag6
aS'variable_20'
p601
ag19
aS'variable_13'
p602
ag38
aS'func_6'
p603
ag6
aS'variable_1'
p604
ag10
aS'variable_12'
p605
ag10
ag50
ag51
ag10
ag52
ag52
ag19
ag23
aS'if'
p606
ag6
aS'variable_13'
p607
aS'=='
p608
ag50
ag51
ag19
aS'variable_14'
p609
ag38
aS'variable_13'
p610
ag50
aS'variable_12'
p611
ag23
aS'variable_18'
p612
ag38
aS'func_7'
p613
ag6
aS'variable_1'
p614
ag10
aS'variable_12'
p615
ag10
aS'variable_14'
p616
ag19
ag23
aS'variable_12'
p617
ag38
aS'variable_13'
p618
ag67
ag51
ag23
aS'variable_13'
p619
ag38
aS'func_8'
p620
ag6
aS'variable_1'
p621
ag10
aS'variable_12'
p622
ag10
ag50
ag51
ag10
ag52
ag98
ag52
ag19
ag23
aS'if'
p623
ag6
aS'variable_13'
p624
aS'=='
p625
ag50
ag51
ag19
aS'variable_14'
p626
ag38
aS'variable_13'
p627
ag50
aS'variable_12'
p628
ag23
aS'variable_19'
p629
ag38
aS'atoi'
p630
ag6
ag6
aS'char'
p631
ag8
ag19
aS'variable_18'
p632
ag19
ag23
aS'if'
p633
ag6
aS'variable_19'
p634
ag111
ag38
aS'variable_24'
p635
ag19
aS'variable_13'
p636
ag38
aS'variable_13'
p637
ag67
ag51
ag23
aS'variable_12'
p638
ag38
aS'variable_13'
p639
ag23
aS'while'
p640
ag6
aS'variable_6'
p641
ag50
ag51
ag111
ag38
aS'variable_13'
p642
ag19
aS'if'
p643
ag6
ag121
aS'isdigit'
p644
ag6
aS'func_9'
p645
ag6
aS'variable_1'
p646
ag10
aS'variable_13'
p647
ag19
ag19
ag19
aS'variable_13'
p648
aS'++'
p649
ag23
aS'variable_14'
p650
ag38
aS'variable_13'
p651
ag50
aS'variable_12'
p652
ag23
aS'if'
p653
ag6
aS'variable_10'
p654
ag19
aS'guint8'
p655
aS'variable_25'
p656
ag23
aS'variable_12'
p657
ag38
aS'func_10'
p658
ag6
aS'variable_1'
p659
ag10
aS'variable_12'
p660
ag10
aS'func_11'
p661
ag6
aS'variable_1'
p662
ag10
aS'variable_12'
p663
ag19
ag19
ag23
aS'variable_13'
p664
ag38
aS'func_12'
p665
ag6
aS'variable_1'
p666
ag10
aS'variable_12'
p667
ag10
ag50
ag51
ag10
ag52
ag52
ag19
ag23
aS'if'
p668
ag6
aS'variable_13'
p669
aS'=='
p670
ag50
ag51
ag19
aS'variable_14'
p671
ag38
aS'variable_13'
p672
ag50
aS'variable_12'
p673
ag23
aS'variable_25'
p674
ag38
aS'atoi'
p675
ag6
ag6
aS'char'
p676
ag8
ag19
aS'func_13'
p677
ag6
aS'variable_1'
p678
ag10
aS'variable_12'
p679
ag10
aS'variable_14'
p680
ag19
ag19
ag23
aS'if'
p681
ag6
aS'variable_25'
p682
ag111
ag38
aS'variable_24'
p683
ag19
aS'variable_12'
p684
ag38
aS'variable_13'
p685
ag67
ag51
ag23
aS'while'
p686
ag6
aS'variable_21'
p687
aS'=='
p688
aS'variable_22'
p689
ag19
aS'variable_13'
p690
ag38
aS'func_14'
p691
ag6
aS'variable_1'
p692
ag10
aS'variable_12'
p693
ag10
ag50
ag51
ag10
ag52
ag23
ag52
ag19
ag23
aS'variable_12'
p694
ag38
aS'func_15'
p695
ag6
aS'variable_1'
p696
ag10
aS'variable_12'
p697
ag10
aS'func_16'
p698
ag6
aS'variable_1'
p699
ag10
aS'variable_12'
p700
ag19
ag19
ag23
aS'if'
p701
ag6
aS'variable_13'
p702
aS'=='
p703
ag50
ag51
ag19
aS'variable_21'
p704
ag38
aS'variable_26'
p705
ag23
aS'variable_13'
p706
ag38
aS'func_17'
p707
ag6
aS'variable_1'
p708
ag19
ag23
aS'variable_12'
p709
ag38
aS'variable_13'
p710
ag67
ag51
ag23
aS'variable_13'
p711
ag38
aS'func_18'
p712
ag6
aS'variable_1'
p713
ag10
aS'variable_12'
p714
ag10
ag50
ag51
ag10
ag52
ag52
ag19
ag23
aS'variable_12'
p715
ag38
aS'variable_13'
p716
ag67
ag51
ag23
aS'variable_13'
p717
ag38
aS'func_19'
p718
ag6
aS'variable_1'
p719
ag10
aS'variable_12'
p720
ag10
ag50
ag51
ag10
ag52
ag52
ag19
ag23
aS'variable_12'
p721
ag38
aS'variable_13'
p722
ag67
ag51
ag23
aS'while'
p723
ag6
aS'variable_21'
p724
aS'=='
p725
aS'variable_22'
p726
ag19
aS'int'
p727
aS'variable_27'
p728
ag23
aS'variable_27'
p729
ag38
aS'func_20'
p730
ag6
aS'variable_1'
p731
ag10
aS'variable_12'
p732
ag10
ag50
ag51
ag10
ag52
ag23
ag52
ag19
ag23
aS'if'
p733
ag6
aS'variable_27'
p734
aS'=='
p735
ag50
ag51
ag19
aS'variable_21'
p736
ag38
aS'variable_26'
p737
ag23
aS'variable_27'
p738
ag38
aS'func_21'
p739
ag6
aS'variable_1'
p740
ag19
ag23
aS'variable_13'
p741
ag38
aS'func_22'
p742
ag6
aS'variable_1'
p743
ag10
aS'variable_12'
p744
ag10
ag50
ag51
ag10
ag52
ag53
ag52
ag19
ag23
aS'if'
p745
ag6
aS'variable_13'
p746
aS'=='
p747
ag50
ag51
ag19
aS'if'
p748
ag6
aS'func_23'
p749
ag6
aS'variable_1'
p750
ag10
aS'variable_12'
p751
ag10
ag230
aS'inline'
p752
ag230
ag10
aS'variable_13'
p753
ag50
aS'variable_12'
p754
ag19
aS'=='
p755
ag41
ag19
aS'variable_12'
p756
ag38
aS'variable_13'
p757
ag67
ag51
ag23
aS'variable_13'
p758
ag38
aS'func_24'
p759
ag6
aS'variable_1'
p760
ag10
aS'variable_12'
p761
ag10
ag50
ag51
ag10
ag52
ag476
ag52
ag19
ag23
aS'if'
p762
ag6
aS'variable_13'
p763
aS'!='
p764
ag50
ag51
ag19
aS'variable_12'
p765
ag38
aS'variable_13'
p766
ag67
ag51
ag23
aS'variable_13'
p767
ag38
aS'func_25'
p768
ag6
aS'variable_1'
p769
ag10
aS'variable_12'
p770
ag10
ag50
ag51
ag10
ag52
ag476
ag52
ag19
ag23
aS'if'
p771
ag6
aS'variable_13'
p772
aS'=='
p773
ag50
ag51
ag19
aS'if'
p774
ag6
aS'variable_13'
p775
ag491
aS'variable_27'
p776
ag19
aS'variable_13'
p777
ag38
aS'variable_27'
p778
ag23
aS'if'
p779
ag6
aS'variable_13'
p780
aS'!='
p781
ag50
ag51
ag19
aS'variable_12'
p782
ag38
aS'variable_13'
p783
ag67
ag51
ag23
aS'if'
p784
ag6
aS'variable_12'
p785
ag111
aS'variable_27'
p786
ag19
aS'variable_13'
p787
ag38
ag50
ag51
ag23
aS'variable_13'
p788
ag38
aS'func_26'
p789
ag6
aS'variable_1'
p790
ag10
aS'variable_12'
p791
ag10
ag50
ag51
ag10
ag52
ag53
ag52
ag19
ag23
aS'if'
p792
ag6
aS'variable_13'
p793
aS'!='
p794
ag50
ag51
ag19
aS'variable_14'
p795
ag38
aS'variable_13'
p796
ag50
aS'variable_12'
p797
ag23
aS'func_27'
p798
ag6
aS'variable_28'
p799
ag10
aS'variable_29'
p800
ag10
aS'variable_1'
p801
ag10
aS'variable_12'
p802
ag10
aS'variable_14'
p803
ag10
aS'variable_30'
p804
ag476
aS'variable_31'
p805
ag19
ag23
aS'variable_8'
p806
aS'->'
p807
aS'variable_32'
p808
ag38
aS'atoi'
p809
ag6
ag6
aS'char'
p810
ag8
ag19
aS'func_28'
p811
ag6
aS'variable_1'
p812
ag10
aS'variable_12'
p813
ag10
aS'variable_14'
p814
ag19
ag19
ag23
aS'func_29'
p815
ag6
aS'variable_28'
p816
ag10
aS'variable_33'
p817
ag10
aS'variable_1'
p818
ag10
aS'variable_12'
p819
ag10
aS'variable_14'
p820
ag10
aS'variable_30'
p821
ag476
aS'variable_31'
p822
ag19
ag23
aS'variable_12'
p823
ag38
aS'variable_27'
p824
ag23
aS'variable_12'
p825
ag38
aS'variable_27'
p826
ag23
aa(lp827
S'static'
p828
aS'void'
p829
aS'func_0'
p830
ag6
aS'variable_0'
p831
ag8
aS'variable_1'
p832
ag10
aS'variable_2'
p833
ag8
aS'variable_3'
p834
ag10
aS'variable_4'
p835
ag8
aS'variable_5'
p836
ag10
aS'int'
p837
aS'variable_6'
p838
ag10
aS'variable_7'
p839
ag8
aS'variable_8'
p840
ag19
aS'variable_9'
p841
ag8
aS'variable_10'
p842
ag10
ag8
aS'variable_11'
p843
ag23
aS'gint'
p844
aS'variable_12'
p845
ag10
aS'variable_13'
p846
ag10
aS'variable_14'
p847
ag10
aS'variable_15'
p848
ag10
aS'variable_16'
p849
ag23
aS'variable_17'
p850
ag8
aS'variable_18'
p851
ag23
aS'guint8'
p852
aS'variable_19'
p853
ag23
aS'gint'
p854
aS'variable_20'
p855
ag23
aS'gboolean'
p856
aS'variable_21'
p857
ag38
aS'variable_22'
p858
ag23
aS'variable_12'
p859
ag38
ag41
ag23
aS'variable_10'
p860
ag38
aS'func_1'
p861
ag6
aS'variable_5'
p862
ag10
aS'variable_23'
p863
ag19
ag23
aS'variable_16'
p864
ag38
aS'func_2'
p865
ag6
aS'variable_1'
p866
ag10
aS'variable_12'
p867
ag10
ag50
ag51
ag10
ag52
ag53
ag52
ag19
ag23
aS'if'
p868
ag6
aS'variable_16'
p869
aS'=='
p870
ag50
ag51
ag19
aS'variable_14'
p871
ag38
aS'variable_16'
p872
ag50
aS'variable_12'
p873
ag23
aS'variable_20'
p874
ag38
aS'func_3'
p875
ag6
aS'variable_1'
p876
ag10
aS'variable_12'
p877
ag10
aS'variable_14'
p878
ag19
ag23
aS'variable_12'
p879
ag38
aS'variable_16'
p880
ag67
ag51
ag23
aS'variable_12'
p881
ag38
aS'func_4'
p882
ag6
aS'variable_1'
p883
ag10
aS'variable_12'
p884
ag10
aS'func_5'
p885
ag6
aS'variable_1'
p886
ag10
aS'variable_12'
p887
ag19
ag19
ag23
aS'switch'
p888
ag6
aS'variable_20'
p889
ag19
aS'variable_13'
p890
ag38
aS'func_6'
p891
ag6
aS'variable_1'
p892
ag10
aS'variable_12'
p893
ag10
ag50
ag51
ag10
ag52
ag52
ag19
ag23
aS'if'
p894
ag6
aS'variable_13'
p895
aS'=='
p896
ag50
ag51
ag19
aS'variable_14'
p897
ag38
aS'variable_13'
p898
ag50
aS'variable_12'
p899
ag23
aS'variable_18'
p900
ag38
aS'func_7'
p901
ag6
aS'variable_1'
p902
ag10
aS'variable_12'
p903
ag10
aS'variable_14'
p904
ag19
ag23
aS'variable_12'
p905
ag38
aS'variable_13'
p906
ag67
ag51
ag23
aS'variable_13'
p907
ag38
aS'func_8'
p908
ag6
aS'variable_1'
p909
ag10
aS'variable_12'
p910
ag10
ag50
ag51
ag10
ag52
ag98
ag52
ag19
ag23
aS'if'
p911
ag6
aS'variable_13'
p912
aS'=='
p913
ag50
ag51
ag19
aS'variable_14'
p914
ag38
aS'variable_13'
p915
ag50
aS'variable_12'
p916
ag23
aS'variable_19'
p917
ag38
aS'atoi'
p918
ag6
ag6
aS'char'
p919
ag8
ag19
aS'variable_18'
p920
ag19
ag23
aS'if'
p921
ag6
aS'variable_19'
p922
ag111
ag38
aS'variable_24'
p923
ag19
aS'variable_13'
p924
ag38
aS'variable_13'
p925
ag67
ag51
ag23
aS'variable_12'
p926
ag38
aS'variable_13'
p927
ag23
aS'while'
p928
ag6
aS'variable_6'
p929
ag50
ag51
ag111
ag38
aS'variable_13'
p930
ag19
aS'if'
p931
ag6
ag121
aS'isdigit'
p932
ag6
aS'func_9'
p933
ag6
aS'variable_1'
p934
ag10
aS'variable_13'
p935
ag19
ag19
ag19
aS'variable_13'
p936
aS'++'
p937
ag23
aS'variable_14'
p938
ag38
aS'variable_13'
p939
ag50
aS'variable_12'
p940
ag23
aS'if'
p941
ag6
aS'variable_10'
p942
ag19
aS'guint8'
p943
aS'variable_25'
p944
ag23
aS'variable_12'
p945
ag38
aS'func_10'
p946
ag6
aS'variable_1'
p947
ag10
aS'variable_12'
p948
ag10
aS'func_11'
p949
ag6
aS'variable_1'
p950
ag10
aS'variable_12'
p951
ag19
ag19
ag23
aS'variable_13'
p952
ag38
aS'func_12'
p953
ag6
aS'variable_1'
p954
ag10
aS'variable_12'
p955
ag10
ag50
ag51
ag10
ag52
ag52
ag19
ag23
aS'if'
p956
ag6
aS'variable_13'
p957
aS'=='
p958
ag50
ag51
ag19
aS'variable_14'
p959
ag38
aS'variable_13'
p960
ag50
aS'variable_12'
p961
ag23
aS'variable_25'
p962
ag38
aS'atoi'
p963
ag6
ag6
aS'char'
p964
ag8
ag19
aS'func_13'
p965
ag6
aS'variable_1'
p966
ag10
aS'variable_12'
p967
ag10
aS'variable_14'
p968
ag19
ag19
ag23
aS'if'
p969
ag6
aS'variable_25'
p970
ag111
ag38
aS'variable_24'
p971
ag19
aS'variable_12'
p972
ag38
aS'variable_13'
p973
ag67
ag51
ag23
aS'while'
p974
ag6
aS'variable_21'
p975
aS'=='
p976
aS'variable_22'
p977
ag19
aS'variable_13'
p978
ag38
aS'func_14'
p979
ag6
aS'variable_1'
p980
ag10
aS'variable_12'
p981
ag10
ag50
ag51
ag10
ag52
ag23
ag52
ag19
ag23
aS'variable_12'
p982
ag38
aS'func_15'
p983
ag6
aS'variable_1'
p984
ag10
aS'variable_12'
p985
ag10
aS'func_16'
p986
ag6
aS'variable_1'
p987
ag10
aS'variable_12'
p988
ag19
ag19
ag23
aS'if'
p989
ag6
aS'variable_13'
p990
aS'=='
p991
ag50
ag51
ag19
aS'variable_21'
p992
ag38
aS'variable_26'
p993
ag23
aS'variable_13'
p994
ag38
aS'func_17'
p995
ag6
aS'variable_1'
p996
ag19
ag23
aS'variable_12'
p997
ag38
aS'variable_13'
p998
ag67
ag51
ag23
aS'variable_13'
p999
ag38
aS'func_18'
p1000
ag6
aS'variable_1'
p1001
ag10
aS'variable_12'
p1002
ag10
ag50
ag51
ag10
ag52
ag52
ag19
ag23
aS'variable_12'
p1003
ag38
aS'variable_13'
p1004
ag67
ag51
ag23
aS'variable_13'
p1005
ag38
aS'func_19'
p1006
ag6
aS'variable_1'
p1007
ag10
aS'variable_12'
p1008
ag10
ag50
ag51
ag10
ag52
ag52
ag19
ag23
aS'variable_12'
p1009
ag38
aS'variable_13'
p1010
ag67
ag51
ag23
aS'while'
p1011
ag6
aS'variable_21'
p1012
aS'=='
p1013
aS'variable_22'
p1014
ag19
aS'int'
p1015
aS'variable_27'
p1016
ag23
aS'variable_27'
p1017
ag38
aS'func_20'
p1018
ag6
aS'variable_1'
p1019
ag10
aS'variable_12'
p1020
ag10
ag50
ag51
ag10
ag52
ag23
ag52
ag19
ag23
aS'if'
p1021
ag6
aS'variable_27'
p1022
aS'=='
p1023
ag50
ag51
ag19
aS'variable_21'
p1024
ag38
aS'variable_26'
p1025
ag23
aS'variable_27'
p1026
ag38
aS'func_21'
p1027
ag6
aS'variable_1'
p1028
ag19
ag23
aS'variable_13'
p1029
ag38
aS'func_22'
p1030
ag6
aS'variable_1'
p1031
ag10
aS'variable_12'
p1032
ag10
ag50
ag51
ag10
ag52
ag53
ag52
ag19
ag23
aS'if'
p1033
ag6
aS'variable_13'
p1034
aS'=='
p1035
ag50
ag51
ag19
aS'if'
p1036
ag6
aS'func_23'
p1037
ag6
aS'variable_1'
p1038
ag10
aS'variable_12'
p1039
ag10
ag230
aS'inline'
p1040
ag230
ag10
aS'variable_13'
p1041
ag50
aS'variable_12'
p1042
ag19
aS'=='
p1043
ag41
ag19
aS'variable_12'
p1044
ag38
aS'variable_13'
p1045
ag67
ag51
ag23
aS'variable_13'
p1046
ag38
aS'func_24'
p1047
ag6
aS'variable_1'
p1048
ag10
aS'variable_12'
p1049
ag10
ag50
ag51
ag10
ag52
ag476
ag52
ag19
ag23
aS'if'
p1050
ag6
aS'variable_13'
p1051
aS'!='
p1052
ag50
ag51
ag19
aS'variable_12'
p1053
ag38
aS'variable_13'
p1054
ag67
ag51
ag23
aS'variable_13'
p1055
ag38
aS'func_25'
p1056
ag6
aS'variable_1'
p1057
ag10
aS'variable_12'
p1058
ag10
ag50
ag51
ag10
ag52
ag476
ag52
ag19
ag23
aS'if'
p1059
ag6
aS'variable_13'
p1060
aS'=='
p1061
ag50
ag51
ag19
aS'if'
p1062
ag6
aS'variable_13'
p1063
ag491
aS'variable_27'
p1064
ag19
aS'variable_13'
p1065
ag38
aS'variable_27'
p1066
ag23
aS'if'
p1067
ag6
aS'variable_13'
p1068
aS'!='
p1069
ag50
ag51
ag19
aS'variable_14'
p1070
ag38
aS'variable_13'
p1071
ag50
aS'variable_12'
p1072
ag23
aS'func_26'
p1073
ag6
aS'variable_28'
p1074
ag10
aS'variable_29'
p1075
ag10
aS'variable_1'
p1076
ag10
aS'variable_12'
p1077
ag10
aS'variable_14'
p1078
ag10
aS'variable_30'
p1079
ag476
aS'variable_31'
p1080
ag19
ag23
aS'func_27'
p1081
ag6
aS'variable_28'
p1082
ag10
aS'variable_32'
p1083
ag10
aS'variable_1'
p1084
ag10
aS'variable_12'
p1085
ag10
aS'variable_14'
p1086
ag10
aS'variable_30'
p1087
ag476
aS'variable_31'
p1088
ag19
ag23
aS'variable_8'
p1089
aS'->'
p1090
aS'variable_33'
p1091
ag38
aS'atoi'
p1092
ag6
ag6
aS'char'
p1093
ag8
ag19
aS'func_28'
p1094
ag6
aS'variable_1'
p1095
ag10
aS'variable_12'
p1096
ag10
aS'variable_14'
p1097
ag19
ag19
ag23
aS'func_29'
p1098
ag6
aS'variable_28'
p1099
ag10
aS'variable_34'
p1100
ag10
aS'variable_1'
p1101
ag10
aS'variable_12'
p1102
ag10
aS'variable_14'
p1103
ag10
aS'variable_30'
p1104
ag476
aS'variable_31'
p1105
ag19
ag23
aS'variable_12'
p1106
ag38
aS'variable_27'
p1107
ag23
aS'variable_12'
p1108
ag38
aS'variable_27'
p1109
ag23
aa(lp1110
S'static'
p1111
aS'void'
p1112
aS'func_0'
p1113
ag6
aS'variable_0'
p1114
ag8
aS'variable_1'
p1115
ag10
aS'variable_2'
p1116
ag8
aS'variable_3'
p1117
ag10
aS'variable_4'
p1118
ag8
aS'variable_5'
p1119
ag10
aS'int'
p1120
aS'variable_6'
p1121
ag10
aS'variable_7'
p1122
ag8
aS'variable_8'
p1123
ag19
aS'variable_9'
p1124
ag8
aS'variable_10'
p1125
ag10
ag8
aS'variable_11'
p1126
ag23
aS'gint'
p1127
aS'variable_12'
p1128
ag10
aS'variable_13'
p1129
ag10
aS'variable_14'
p1130
ag10
aS'variable_15'
p1131
ag10
aS'variable_16'
p1132
ag23
aS'variable_17'
p1133
ag8
aS'variable_18'
p1134
ag23
aS'guint8'
p1135
aS'variable_19'
p1136
ag23
aS'gint'
p1137
aS'variable_20'
p1138
ag23
aS'gboolean'
p1139
aS'variable_21'
p1140
ag38
aS'variable_22'
p1141
ag23
aS'variable_12'
p1142
ag38
ag41
ag23
aS'variable_10'
p1143
ag38
aS'func_1'
p1144
ag6
aS'variable_5'
p1145
ag10
aS'variable_23'
p1146
ag19
ag23
aS'variable_16'
p1147
ag38
aS'func_2'
p1148
ag6
aS'variable_1'
p1149
ag10
aS'variable_12'
p1150
ag10
ag50
ag51
ag10
ag52
ag53
ag52
ag19
ag23
aS'if'
p1151
ag6
aS'variable_16'
p1152
aS'=='
p1153
ag50
ag51
ag19
aS'variable_14'
p1154
ag38
aS'variable_16'
p1155
ag50
aS'variable_12'
p1156
ag23
aS'variable_20'
p1157
ag38
aS'func_3'
p1158
ag6
aS'variable_1'
p1159
ag10
aS'variable_12'
p1160
ag10
aS'variable_14'
p1161
ag19
ag23
aS'variable_12'
p1162
ag38
aS'variable_16'
p1163
ag67
ag51
ag23
aS'variable_12'
p1164
ag38
aS'func_4'
p1165
ag6
aS'variable_1'
p1166
ag10
aS'variable_12'
p1167
ag10
aS'func_5'
p1168
ag6
aS'variable_1'
p1169
ag10
aS'variable_12'
p1170
ag19
ag19
ag23
aS'switch'
p1171
ag6
aS'variable_20'
p1172
ag19
aS'variable_13'
p1173
ag38
aS'func_6'
p1174
ag6
aS'variable_1'
p1175
ag10
aS'variable_12'
p1176
ag10
ag50
ag51
ag10
ag52
ag52
ag19
ag23
aS'if'
p1177
ag6
aS'variable_13'
p1178
aS'=='
p1179
ag50
ag51
ag19
aS'variable_14'
p1180
ag38
aS'variable_13'
p1181
ag50
aS'variable_12'
p1182
ag23
aS'variable_18'
p1183
ag38
aS'func_7'
p1184
ag6
aS'variable_1'
p1185
ag10
aS'variable_12'
p1186
ag10
aS'variable_14'
p1187
ag19
ag23
aS'variable_12'
p1188
ag38
aS'variable_13'
p1189
ag67
ag51
ag23
aS'variable_13'
p1190
ag38
aS'func_8'
p1191
ag6
aS'variable_1'
p1192
ag10
aS'variable_12'
p1193
ag10
ag50
ag51
ag10
ag52
ag98
ag52
ag19
ag23
aS'if'
p1194
ag6
aS'variable_13'
p1195
aS'=='
p1196
ag50
ag51
ag19
aS'variable_14'
p1197
ag38
aS'variable_13'
p1198
ag50
aS'variable_12'
p1199
ag23
aS'variable_19'
p1200
ag38
aS'atoi'
p1201
ag6
ag6
aS'char'
p1202
ag8
ag19
aS'variable_18'
p1203
ag19
ag23
aS'if'
p1204
ag6
aS'variable_19'
p1205
ag111
ag38
aS'variable_24'
p1206
ag19
aS'variable_13'
p1207
ag38
aS'variable_13'
p1208
ag67
ag51
ag23
aS'variable_12'
p1209
ag38
aS'variable_13'
p1210
ag23
aS'while'
p1211
ag6
aS'variable_6'
p1212
ag50
ag51
ag111
ag38
aS'variable_13'
p1213
ag19
aS'if'
p1214
ag6
ag121
aS'isdigit'
p1215
ag6
aS'func_9'
p1216
ag6
aS'variable_1'
p1217
ag10
aS'variable_13'
p1218
ag19
ag19
ag19
aS'variable_13'
p1219
aS'++'
p1220
ag23
aS'variable_14'
p1221
ag38
aS'variable_13'
p1222
ag50
aS'variable_12'
p1223
ag23
aS'if'
p1224
ag6
aS'variable_10'
p1225
ag19
aS'guint8'
p1226
aS'variable_25'
p1227
ag23
aS'variable_12'
p1228
ag38
aS'func_10'
p1229
ag6
aS'variable_1'
p1230
ag10
aS'variable_12'
p1231
ag10
aS'func_11'
p1232
ag6
aS'variable_1'
p1233
ag10
aS'variable_12'
p1234
ag19
ag19
ag23
aS'variable_13'
p1235
ag38
aS'func_12'
p1236
ag6
aS'variable_1'
p1237
ag10
aS'variable_12'
p1238
ag10
ag50
ag51
ag10
ag52
ag52
ag19
ag23
aS'if'
p1239
ag6
aS'variable_13'
p1240
aS'=='
p1241
ag50
ag51
ag19
aS'variable_14'
p1242
ag38
aS'variable_13'
p1243
ag50
aS'variable_12'
p1244
ag23
aS'variable_25'
p1245
ag38
aS'atoi'
p1246
ag6
ag6
aS'char'
p1247
ag8
ag19
aS'func_13'
p1248
ag6
aS'variable_1'
p1249
ag10
aS'variable_12'
p1250
ag10
aS'variable_14'
p1251
ag19
ag19
ag23
aS'if'
p1252
ag6
aS'variable_25'
p1253
ag111
ag38
aS'variable_24'
p1254
ag19
aS'variable_12'
p1255
ag38
aS'variable_13'
p1256
ag67
ag51
ag23
aS'while'
p1257
ag6
aS'variable_21'
p1258
aS'=='
p1259
aS'variable_22'
p1260
ag19
aS'variable_13'
p1261
ag38
aS'func_14'
p1262
ag6
aS'variable_1'
p1263
ag10
aS'variable_12'
p1264
ag10
ag50
ag51
ag10
ag52
ag23
ag52
ag19
ag23
aS'variable_12'
p1265
ag38
aS'func_15'
p1266
ag6
aS'variable_1'
p1267
ag10
aS'variable_12'
p1268
ag10
aS'func_16'
p1269
ag6
aS'variable_1'
p1270
ag10
aS'variable_12'
p1271
ag19
ag19
ag23
aS'if'
p1272
ag6
aS'variable_13'
p1273
aS'=='
p1274
ag50
ag51
ag19
aS'variable_21'
p1275
ag38
aS'variable_26'
p1276
ag23
aS'variable_13'
p1277
ag38
aS'func_17'
p1278
ag6
aS'variable_1'
p1279
ag19
ag23
aS'variable_12'
p1280
ag38
aS'variable_13'
p1281
ag67
ag51
ag23
aS'variable_13'
p1282
ag38
aS'func_18'
p1283
ag6
aS'variable_1'
p1284
ag10
aS'variable_12'
p1285
ag10
ag50
ag51
ag10
ag52
ag52
ag19
ag23
aS'variable_12'
p1286
ag38
aS'variable_13'
p1287
ag67
ag51
ag23
aS'variable_13'
p1288
ag38
aS'func_19'
p1289
ag6
aS'variable_1'
p1290
ag10
aS'variable_12'
p1291
ag10
ag50
ag51
ag10
ag52
ag52
ag19
ag23
aS'variable_12'
p1292
ag38
aS'variable_13'
p1293
ag67
ag51
ag23
aS'while'
p1294
ag6
aS'variable_21'
p1295
aS'=='
p1296
aS'variable_22'
p1297
ag19
aS'int'
p1298
aS'variable_27'
p1299
ag23
aS'variable_27'
p1300
ag38
aS'func_20'
p1301
ag6
aS'variable_1'
p1302
ag10
aS'variable_12'
p1303
ag10
ag50
ag51
ag10
ag52
ag23
ag52
ag19
ag23
aS'if'
p1304
ag6
aS'variable_27'
p1305
aS'=='
p1306
ag50
ag51
ag19
aS'variable_21'
p1307
ag38
aS'variable_26'
p1308
ag23
aS'variable_27'
p1309
ag38
aS'func_21'
p1310
ag6
aS'variable_1'
p1311
ag19
ag23
aS'variable_13'
p1312
ag38
aS'func_22'
p1313
ag6
aS'variable_1'
p1314
ag10
aS'variable_12'
p1315
ag10
ag50
ag51
ag10
ag52
ag53
ag52
ag19
ag23
aS'if'
p1316
ag6
aS'variable_13'
p1317
aS'=='
p1318
ag50
ag51
ag19
aS'if'
p1319
ag6
aS'func_23'
p1320
ag6
aS'variable_1'
p1321
ag10
aS'variable_12'
p1322
ag10
ag230
aS'inline'
p1323
ag230
ag10
aS'variable_13'
p1324
ag50
aS'variable_12'
p1325
ag19
aS'=='
p1326
ag41
ag19
aS'variable_12'
p1327
ag38
aS'variable_13'
p1328
ag67
ag51
ag23
aS'variable_13'
p1329
ag38
aS'func_24'
p1330
ag6
aS'variable_1'
p1331
ag10
aS'variable_12'
p1332
ag10
ag50
ag51
ag10
ag52
ag476
ag52
ag19
ag23
aS'if'
p1333
ag6
aS'variable_13'
p1334
aS'=='
p1335
ag50
ag51
ag19
aS'variable_14'
p1336
ag38
aS'variable_13'
p1337
ag50
aS'variable_12'
p1338
ag23
aS'variable_28'
p1339
ag38
aS'func_25'
p1340
ag6
aS'variable_1'
p1341
ag10
aS'variable_12'
p1342
ag10
aS'variable_14'
p1343
ag19
ag23
aS'variable_29'
p1344
ag38
aS'func_26'
p1345
ag6
aS'variable_1'
p1346
ag10
aS'variable_28'
p1347
ag19
ag23
aS'func_27'
p1348
ag6
aS'variable_3'
p1349
ag10
aS'variable_29'
p1350
ag10
ag230
aS'Key_Salt_tvb'
p1351
ag230
ag19
ag23
aS'func_28'
p1352
ag6
aS'variable_30'
p1353
ag10
aS'variable_1'
p1354
ag10
aS'variable_12'
p1355
ag10
aS'variable_14'
p1356
ag10
ag230
aS'Key'
p1357
aS'and'
p1358
aS'Salt'
p1359
ag230
ag19
ag23
aS'func_29'
p1360
ag6
aS'variable_30'
p1361
ag10
aS'variable_31'
p1362
ag10
aS'variable_29'
p1363
ag10
ag41
ag10
aS'variable_32'
p1364
ag10
aS'variable_33'
p1365
ag476
aS'variable_34'
p1366
ag19
ag23
aS'func_30'
p1367
ag6
aS'variable_30'
p1368
ag10
aS'variable_35'
p1369
ag10
aS'variable_29'
p1370
ag10
aS'variable_32'
p1371
ag10
aS'variable_36'
p1372
ag10
aS'variable_33'
p1373
ag476
aS'variable_34'
p1374
ag19
ag23
aS'func_31'
p1375
ag6
aS'variable_30'
p1376
ag10
aS'variable_29'
p1377
ag10
ag41
ag10
ag50
ag51
ag10
ag230
aS'Key'
p1378
aS'and'
p1379
aS'Salt'
p1380
ag230
ag19
ag23
aS'func_32'
p1381
ag6
aS'variable_30'
p1382
ag10
aS'variable_37'
p1383
ag10
aS'variable_1'
p1384
ag10
aS'variable_12'
p1385
ag10
aS'variable_14'
p1386
ag10
aS'variable_33'
p1387
ag476
aS'variable_34'
p1388
ag19
ag23
aS'func_33'
p1389
ag6
aS'variable_30'
p1390
ag10
aS'variable_38'
p1391
ag10
aS'variable_1'
p1392
ag10
aS'variable_12'
p1393
ag10
aS'variable_14'
p1394
ag10
aS'variable_33'
p1395
ag476
aS'variable_34'
p1396
ag19
ag23
aS'variable_8'
p1397
aS'->'
p1398
aS'variable_39'
p1399
ag38
aS'atoi'
p1400
ag6
ag6
aS'char'
p1401
ag8
ag19
aS'func_34'
p1402
ag6
aS'variable_1'
p1403
ag10
aS'variable_12'
p1404
ag10
aS'variable_14'
p1405
ag19
ag19
ag23
aS'func_35'
p1406
ag6
aS'variable_30'
p1407
ag10
aS'variable_40'
p1408
ag10
aS'variable_1'
p1409
ag10
aS'variable_12'
p1410
ag10
aS'variable_14'
p1411
ag10
aS'variable_33'
p1412
ag476
aS'variable_34'
p1413
ag19
ag23
aS'variable_12'
p1414
ag38
aS'variable_27'
p1415
ag23
aS'variable_12'
p1416
ag38
aS'variable_27'
p1417
ag23
aa(lp1418
S'static'
p1419
aS'void'
p1420
aS'func_0'
p1421
ag6
aS'variable_0'
p1422
ag8
aS'variable_1'
p1423
ag10
aS'variable_2'
p1424
ag8
aS'variable_3'
p1425
ag10
aS'variable_4'
p1426
ag8
aS'variable_5'
p1427
ag10
aS'int'
p1428
aS'variable_6'
p1429
ag10
aS'variable_7'
p1430
ag8
aS'variable_8'
p1431
ag19
aS'variable_9'
p1432
ag8
aS'variable_10'
p1433
ag10
ag8
aS'variable_11'
p1434
ag23
aS'gint'
p1435
aS'variable_12'
p1436
ag10
aS'variable_13'
p1437
ag10
aS'variable_14'
p1438
ag10
aS'variable_15'
p1439
ag10
aS'variable_16'
p1440
ag23
aS'variable_17'
p1441
ag8
aS'variable_18'
p1442
ag23
aS'guint8'
p1443
aS'variable_19'
p1444
ag23
aS'gint'
p1445
aS'variable_20'
p1446
ag23
aS'gboolean'
p1447
aS'variable_21'
p1448
ag38
aS'variable_22'
p1449
ag23
aS'variable_12'
p1450
ag38
ag41
ag23
aS'variable_10'
p1451
ag38
aS'func_1'
p1452
ag6
aS'variable_5'
p1453
ag10
aS'variable_23'
p1454
ag19
ag23
aS'variable_16'
p1455
ag38
aS'func_2'
p1456
ag6
aS'variable_1'
p1457
ag10
aS'variable_12'
p1458
ag10
ag50
ag51
ag10
ag52
ag53
ag52
ag19
ag23
aS'if'
p1459
ag6
aS'variable_16'
p1460
aS'=='
p1461
ag50
ag51
ag19
aS'variable_14'
p1462
ag38
aS'variable_16'
p1463
ag50
aS'variable_12'
p1464
ag23
aS'variable_20'
p1465
ag38
aS'func_3'
p1466
ag6
aS'variable_1'
p1467
ag10
aS'variable_12'
p1468
ag10
aS'variable_14'
p1469
ag19
ag23
aS'variable_12'
p1470
ag38
aS'variable_16'
p1471
ag67
ag51
ag23
aS'variable_12'
p1472
ag38
aS'func_4'
p1473
ag6
aS'variable_1'
p1474
ag10
aS'variable_12'
p1475
ag10
aS'func_5'
p1476
ag6
aS'variable_1'
p1477
ag10
aS'variable_12'
p1478
ag19
ag19
ag23
aS'switch'
p1479
ag6
aS'variable_20'
p1480
ag19
aS'variable_13'
p1481
ag38
aS'func_6'
p1482
ag6
aS'variable_1'
p1483
ag10
aS'variable_12'
p1484
ag10
ag50
ag51
ag10
ag52
ag52
ag19
ag23
aS'if'
p1485
ag6
aS'variable_13'
p1486
aS'=='
p1487
ag50
ag51
ag19
aS'variable_14'
p1488
ag38
aS'variable_13'
p1489
ag50
aS'variable_12'
p1490
ag23
aS'variable_18'
p1491
ag38
aS'func_7'
p1492
ag6
aS'variable_1'
p1493
ag10
aS'variable_12'
p1494
ag10
aS'variable_14'
p1495
ag19
ag23
aS'variable_12'
p1496
ag38
aS'variable_13'
p1497
ag67
ag51
ag23
aS'variable_13'
p1498
ag38
aS'func_8'
p1499
ag6
aS'variable_1'
p1500
ag10
aS'variable_12'
p1501
ag10
ag50
ag51
ag10
ag52
ag98
ag52
ag19
ag23
aS'if'
p1502
ag6
aS'variable_13'
p1503
aS'=='
p1504
ag50
ag51
ag19
aS'variable_14'
p1505
ag38
aS'variable_13'
p1506
ag50
aS'variable_12'
p1507
ag23
aS'variable_19'
p1508
ag38
aS'atoi'
p1509
ag6
ag6
aS'char'
p1510
ag8
ag19
aS'variable_18'
p1511
ag19
ag23
aS'if'
p1512
ag6
aS'variable_19'
p1513
ag111
ag38
aS'variable_24'
p1514
ag19
aS'variable_13'
p1515
ag38
aS'variable_13'
p1516
ag67
ag51
ag23
aS'variable_12'
p1517
ag38
aS'variable_13'
p1518
ag23
aS'while'
p1519
ag6
aS'variable_6'
p1520
ag50
ag51
ag111
ag38
aS'variable_13'
p1521
ag19
aS'if'
p1522
ag6
ag121
aS'isdigit'
p1523
ag6
aS'func_9'
p1524
ag6
aS'variable_1'
p1525
ag10
aS'variable_13'
p1526
ag19
ag19
ag19
aS'variable_13'
p1527
aS'++'
p1528
ag23
aS'variable_14'
p1529
ag38
aS'variable_13'
p1530
ag50
aS'variable_12'
p1531
ag23
aS'if'
p1532
ag6
aS'variable_10'
p1533
ag19
aS'guint8'
p1534
aS'variable_25'
p1535
ag23
aS'variable_12'
p1536
ag38
aS'func_10'
p1537
ag6
aS'variable_1'
p1538
ag10
aS'variable_12'
p1539
ag10
aS'func_11'
p1540
ag6
aS'variable_1'
p1541
ag10
aS'variable_12'
p1542
ag19
ag19
ag23
aS'variable_13'
p1543
ag38
aS'func_12'
p1544
ag6
aS'variable_1'
p1545
ag10
aS'variable_12'
p1546
ag10
ag50
ag51
ag10
ag52
ag52
ag19
ag23
aS'if'
p1547
ag6
aS'variable_13'
p1548
aS'=='
p1549
ag50
ag51
ag19
aS'variable_14'
p1550
ag38
aS'variable_13'
p1551
ag50
aS'variable_12'
p1552
ag23
aS'variable_25'
p1553
ag38
aS'atoi'
p1554
ag6
ag6
aS'char'
p1555
ag8
ag19
aS'func_13'
p1556
ag6
aS'variable_1'
p1557
ag10
aS'variable_12'
p1558
ag10
aS'variable_14'
p1559
ag19
ag19
ag23
aS'if'
p1560
ag6
aS'variable_25'
p1561
ag111
ag38
aS'variable_24'
p1562
ag19
aS'variable_12'
p1563
ag38
aS'variable_13'
p1564
ag67
ag51
ag23
aS'while'
p1565
ag6
aS'variable_21'
p1566
aS'=='
p1567
aS'variable_22'
p1568
ag19
aS'variable_13'
p1569
ag38
aS'func_14'
p1570
ag6
aS'variable_1'
p1571
ag10
aS'variable_12'
p1572
ag10
ag50
ag51
ag10
ag52
ag23
ag52
ag19
ag23
aS'variable_12'
p1573
ag38
aS'func_15'
p1574
ag6
aS'variable_1'
p1575
ag10
aS'variable_12'
p1576
ag10
aS'func_16'
p1577
ag6
aS'variable_1'
p1578
ag10
aS'variable_12'
p1579
ag19
ag19
ag23
aS'if'
p1580
ag6
aS'variable_13'
p1581
aS'=='
p1582
ag50
ag51
ag19
aS'variable_21'
p1583
ag38
aS'variable_26'
p1584
ag23
aS'variable_13'
p1585
ag38
aS'func_17'
p1586
ag6
aS'variable_1'
p1587
ag19
ag23
aS'variable_12'
p1588
ag38
aS'variable_13'
p1589
ag67
ag51
ag23
aS'variable_13'
p1590
ag38
aS'func_18'
p1591
ag6
aS'variable_1'
p1592
ag10
aS'variable_12'
p1593
ag10
ag50
ag51
ag10
ag52
ag52
ag19
ag23
aS'variable_12'
p1594
ag38
aS'variable_13'
p1595
ag67
ag51
ag23
aS'variable_13'
p1596
ag38
aS'func_19'
p1597
ag6
aS'variable_1'
p1598
ag10
aS'variable_12'
p1599
ag10
ag50
ag51
ag10
ag52
ag52
ag19
ag23
aS'variable_12'
p1600
ag38
aS'variable_13'
p1601
ag67
ag51
ag23
aS'while'
p1602
ag6
aS'variable_21'
p1603
aS'=='
p1604
aS'variable_22'
p1605
ag19
aS'int'
p1606
aS'variable_27'
p1607
ag23
aS'variable_27'
p1608
ag38
aS'func_20'
p1609
ag6
aS'variable_1'
p1610
ag10
aS'variable_12'
p1611
ag10
ag50
ag51
ag10
ag52
ag23
ag52
ag19
ag23
aS'if'
p1612
ag6
aS'variable_27'
p1613
aS'=='
p1614
ag50
ag51
ag19
aS'variable_21'
p1615
ag38
aS'variable_26'
p1616
ag23
aS'variable_27'
p1617
ag38
aS'func_21'
p1618
ag6
aS'variable_1'
p1619
ag19
ag23
aS'variable_13'
p1620
ag38
aS'func_22'
p1621
ag6
aS'variable_1'
p1622
ag10
aS'variable_12'
p1623
ag10
ag50
ag51
ag10
ag52
ag53
ag52
ag19
ag23
aS'if'
p1624
ag6
aS'variable_13'
p1625
aS'=='
p1626
ag50
ag51
ag19
aS'if'
p1627
ag6
aS'func_23'
p1628
ag6
aS'variable_1'
p1629
ag10
aS'variable_12'
p1630
ag10
ag230
aS'inline'
p1631
ag230
ag10
aS'variable_13'
p1632
ag50
aS'variable_12'
p1633
ag19
aS'=='
p1634
ag41
ag19
aS'variable_12'
p1635
ag38
aS'variable_13'
p1636
ag67
ag51
ag23
aS'variable_13'
p1637
ag38
aS'func_24'
p1638
ag6
aS'variable_1'
p1639
ag10
aS'variable_12'
p1640
ag10
ag50
ag51
ag10
ag52
ag476
ag52
ag19
ag23
aS'if'
p1641
ag6
aS'variable_13'
p1642
aS'=='
p1643
ag50
ag51
ag19
aS'variable_14'
p1644
ag38
aS'variable_27'
p1645
ag50
aS'variable_12'
p1646
ag23
aS'variable_28'
p1647
ag38
aS'func_25'
p1648
ag6
aS'variable_1'
p1649
ag10
aS'variable_12'
p1650
ag10
aS'variable_14'
p1651
ag19
ag23
aS'variable_29'
p1652
ag38
aS'func_26'
p1653
ag6
aS'variable_1'
p1654
ag10
aS'variable_28'
p1655
ag19
ag23
aS'func_27'
p1656
ag6
aS'variable_3'
p1657
ag10
aS'variable_29'
p1658
ag10
ag230
aS'Key_Salt_tvb'
p1659
ag230
ag19
ag23
aS'func_28'
p1660
ag6
aS'variable_30'
p1661
ag10
aS'variable_1'
p1662
ag10
aS'variable_12'
p1663
ag10
aS'variable_14'
p1664
ag10
ag230
aS'Key'
p1665
aS'and'
p1666
aS'Salt'
p1667
ag230
ag19
ag23
aS'func_29'
p1668
ag6
aS'variable_30'
p1669
ag10
aS'variable_31'
p1670
ag10
aS'variable_29'
p1671
ag10
ag41
ag10
aS'variable_32'
p1672
ag10
aS'variable_33'
p1673
ag476
aS'variable_34'
p1674
ag19
ag23
aS'func_30'
p1675
ag6
aS'variable_30'
p1676
ag10
aS'variable_35'
p1677
ag10
aS'variable_29'
p1678
ag10
aS'variable_32'
p1679
ag10
aS'variable_36'
p1680
ag10
aS'variable_33'
p1681
ag476
aS'variable_34'
p1682
ag19
ag23
aS'func_31'
p1683
ag6
aS'variable_30'
p1684
ag10
aS'variable_29'
p1685
ag10
ag41
ag10
ag50
ag51
ag10
ag230
aS'Key'
p1686
aS'and'
p1687
aS'Salt'
p1688
ag230
ag19
ag23
aS'func_32'
p1689
ag6
aS'variable_30'
p1690
ag10
aS'variable_37'
p1691
ag10
aS'variable_1'
p1692
ag10
aS'variable_12'
p1693
ag10
aS'variable_14'
p1694
ag10
aS'variable_33'
p1695
ag476
aS'variable_34'
p1696
ag19
ag23
aS'func_33'
p1697
ag6
aS'variable_30'
p1698
ag10
aS'variable_38'
p1699
ag10
aS'variable_1'
p1700
ag10
aS'variable_12'
p1701
ag10
aS'variable_14'
p1702
ag10
aS'variable_33'
p1703
ag476
aS'variable_34'
p1704
ag19
ag23
aS'variable_8'
p1705
aS'->'
p1706
aS'variable_39'
p1707
ag38
aS'atoi'
p1708
ag6
ag6
aS'char'
p1709
ag8
ag19
aS'func_34'
p1710
ag6
aS'variable_1'
p1711
ag10
aS'variable_12'
p1712
ag10
aS'variable_14'
p1713
ag19
ag19
ag23
aS'func_35'
p1714
ag6
aS'variable_30'
p1715
ag10
aS'variable_40'
p1716
ag10
aS'variable_1'
p1717
ag10
aS'variable_12'
p1718
ag10
aS'variable_14'
p1719
ag10
aS'variable_33'
p1720
ag476
aS'variable_34'
p1721
ag19
ag23
aS'variable_12'
p1722
ag38
aS'variable_27'
p1723
ag23
aS'variable_12'
p1724
ag38
aS'variable_27'
p1725
ag23
aa(lp1726
S'static'
p1727
aS'void'
p1728
aS'func_0'
p1729
ag6
aS'variable_0'
p1730
ag8
aS'variable_1'
p1731
ag10
aS'variable_2'
p1732
ag8
aS'variable_3'
p1733
ag10
aS'variable_4'
p1734
ag8
aS'variable_5'
p1735
ag10
aS'int'
p1736
aS'variable_6'
p1737
ag10
aS'variable_7'
p1738
ag8
aS'variable_8'
p1739
ag19
aS'variable_9'
p1740
ag8
aS'variable_10'
p1741
ag10
ag8
aS'variable_11'
p1742
ag23
aS'gint'
p1743
aS'variable_12'
p1744
ag10
aS'variable_13'
p1745
ag10
aS'variable_14'
p1746
ag10
aS'variable_15'
p1747
ag10
aS'variable_16'
p1748
ag23
aS'variable_17'
p1749
ag8
aS'variable_18'
p1750
ag23
aS'guint8'
p1751
aS'variable_19'
p1752
ag23
aS'gint'
p1753
aS'variable_20'
p1754
ag23
aS'gboolean'
p1755
aS'variable_21'
p1756
ag38
aS'variable_22'
p1757
ag23
aS'variable_12'
p1758
ag38
ag41
ag23
aS'variable_10'
p1759
ag38
aS'func_1'
p1760
ag6
aS'variable_5'
p1761
ag10
aS'variable_23'
p1762
ag19
ag23
aS'variable_16'
p1763
ag38
aS'func_2'
p1764
ag6
aS'variable_1'
p1765
ag10
aS'variable_12'
p1766
ag10
ag50
ag51
ag10
ag52
ag53
ag52
ag19
ag23
aS'if'
p1767
ag6
aS'variable_16'
p1768
aS'=='
p1769
ag50
ag51
ag19
aS'variable_14'
p1770
ag38
aS'variable_16'
p1771
ag50
aS'variable_12'
p1772
ag23
aS'variable_20'
p1773
ag38
aS'func_3'
p1774
ag6
aS'variable_1'
p1775
ag10
aS'variable_12'
p1776
ag10
aS'variable_14'
p1777
ag19
ag23
aS'variable_12'
p1778
ag38
aS'variable_16'
p1779
ag67
ag51
ag23
aS'variable_12'
p1780
ag38
aS'func_4'
p1781
ag6
aS'variable_1'
p1782
ag10
aS'variable_12'
p1783
ag10
aS'func_5'
p1784
ag6
aS'variable_1'
p1785
ag10
aS'variable_12'
p1786
ag19
ag19
ag23
aS'switch'
p1787
ag6
aS'variable_20'
p1788
ag19
aS'variable_13'
p1789
ag38
aS'func_6'
p1790
ag6
aS'variable_1'
p1791
ag10
aS'variable_12'
p1792
ag10
ag50
ag51
ag10
ag52
ag52
ag19
ag23
aS'if'
p1793
ag6
aS'variable_13'
p1794
aS'=='
p1795
ag50
ag51
ag19
aS'variable_14'
p1796
ag38
aS'variable_13'
p1797
ag50
aS'variable_12'
p1798
ag23
aS'variable_18'
p1799
ag38
aS'func_7'
p1800
ag6
aS'variable_1'
p1801
ag10
aS'variable_12'
p1802
ag10
aS'variable_14'
p1803
ag19
ag23
aS'variable_12'
p1804
ag38
aS'variable_13'
p1805
ag67
ag51
ag23
aS'variable_13'
p1806
ag38
aS'func_8'
p1807
ag6
aS'variable_1'
p1808
ag10
aS'variable_12'
p1809
ag10
ag50
ag51
ag10
ag52
ag98
ag52
ag19
ag23
aS'if'
p1810
ag6
aS'variable_13'
p1811
aS'=='
p1812
ag50
ag51
ag19
aS'variable_14'
p1813
ag38
aS'variable_13'
p1814
ag50
aS'variable_12'
p1815
ag23
aS'variable_19'
p1816
ag38
aS'atoi'
p1817
ag6
ag6
aS'char'
p1818
ag8
ag19
aS'variable_18'
p1819
ag19
ag23
aS'if'
p1820
ag6
aS'variable_19'
p1821
ag111
ag38
aS'variable_24'
p1822
ag19
aS'variable_13'
p1823
ag38
aS'variable_13'
p1824
ag67
ag51
ag23
aS'variable_12'
p1825
ag38
aS'variable_13'
p1826
ag23
aS'while'
p1827
ag6
aS'variable_6'
p1828
ag50
ag51
ag111
ag38
aS'variable_13'
p1829
ag19
aS'if'
p1830
ag6
ag121
aS'isdigit'
p1831
ag6
aS'func_9'
p1832
ag6
aS'variable_1'
p1833
ag10
aS'variable_13'
p1834
ag19
ag19
ag19
aS'variable_13'
p1835
aS'++'
p1836
ag23
aS'variable_14'
p1837
ag38
aS'variable_13'
p1838
ag50
aS'variable_12'
p1839
ag23
aS'if'
p1840
ag6
aS'variable_10'
p1841
ag19
aS'guint8'
p1842
aS'variable_25'
p1843
ag23
aS'variable_12'
p1844
ag38
aS'func_10'
p1845
ag6
aS'variable_1'
p1846
ag10
aS'variable_12'
p1847
ag10
aS'func_11'
p1848
ag6
aS'variable_1'
p1849
ag10
aS'variable_12'
p1850
ag19
ag19
ag23
aS'variable_13'
p1851
ag38
aS'func_12'
p1852
ag6
aS'variable_1'
p1853
ag10
aS'variable_12'
p1854
ag10
ag50
ag51
ag10
ag52
ag52
ag19
ag23
aS'if'
p1855
ag6
aS'variable_13'
p1856
aS'=='
p1857
ag50
ag51
ag19
aS'variable_14'
p1858
ag38
aS'variable_13'
p1859
ag50
aS'variable_12'
p1860
ag23
aS'variable_25'
p1861
ag38
aS'atoi'
p1862
ag6
ag6
aS'char'
p1863
ag8
ag19
aS'func_13'
p1864
ag6
aS'variable_1'
p1865
ag10
aS'variable_12'
p1866
ag10
aS'variable_14'
p1867
ag19
ag19
ag23
aS'if'
p1868
ag6
aS'variable_25'
p1869
ag111
ag38
aS'variable_24'
p1870
ag19
aS'variable_12'
p1871
ag38
aS'variable_13'
p1872
ag67
ag51
ag23
aS'while'
p1873
ag6
aS'variable_21'
p1874
aS'=='
p1875
aS'variable_22'
p1876
ag19
aS'variable_13'
p1877
ag38
aS'func_14'
p1878
ag6
aS'variable_1'
p1879
ag10
aS'variable_12'
p1880
ag10
ag50
ag51
ag10
ag52
ag23
ag52
ag19
ag23
aS'variable_12'
p1881
ag38
aS'func_15'
p1882
ag6
aS'variable_1'
p1883
ag10
aS'variable_12'
p1884
ag10
aS'func_16'
p1885
ag6
aS'variable_1'
p1886
ag10
aS'variable_12'
p1887
ag19
ag19
ag23
aS'if'
p1888
ag6
aS'variable_13'
p1889
aS'=='
p1890
ag50
ag51
ag19
aS'variable_21'
p1891
ag38
aS'variable_26'
p1892
ag23
aS'variable_13'
p1893
ag38
aS'func_17'
p1894
ag6
aS'variable_1'
p1895
ag19
ag23
aS'variable_12'
p1896
ag38
aS'variable_13'
p1897
ag67
ag51
ag23
aS'variable_13'
p1898
ag38
aS'func_18'
p1899
ag6
aS'variable_1'
p1900
ag10
aS'variable_12'
p1901
ag10
ag50
ag51
ag10
ag52
ag52
ag19
ag23
aS'variable_12'
p1902
ag38
aS'variable_13'
p1903
ag67
ag51
ag23
aS'variable_13'
p1904
ag38
aS'func_19'
p1905
ag6
aS'variable_1'
p1906
ag10
aS'variable_12'
p1907
ag10
ag50
ag51
ag10
ag52
ag52
ag19
ag23
aS'variable_12'
p1908
ag38
aS'variable_13'
p1909
ag67
ag51
ag23
aS'while'
p1910
ag6
aS'variable_21'
p1911
aS'=='
p1912
aS'variable_22'
p1913
ag19
aS'int'
p1914
aS'variable_27'
p1915
ag23
aS'variable_27'
p1916
ag38
aS'func_20'
p1917
ag6
aS'variable_1'
p1918
ag10
aS'variable_12'
p1919
ag10
ag50
ag51
ag10
ag52
ag23
ag52
ag19
ag23
aS'if'
p1920
ag6
aS'variable_27'
p1921
aS'=='
p1922
ag50
ag51
ag19
aS'variable_21'
p1923
ag38
aS'variable_26'
p1924
ag23
aS'variable_27'
p1925
ag38
aS'func_21'
p1926
ag6
aS'variable_1'
p1927
ag19
ag23
aS'variable_11'
p1928
ag38
aS'func_22'
p1929
ag6
aS'variable_10'
p1930
ag10
aS'variable_1'
p1931
ag10
aS'variable_12'
p1932
ag10
aS'variable_27'
p1933
ag50
aS'variable_12'
p1934
ag10
ag230
aS'Key'
p1935
aS'parameters'
p1936
ag230
ag19
ag23
aS'variable_28'
p1937
ag38
aS'func_23'
p1938
ag6
aS'variable_11'
p1939
ag10
aS'variable_29'
p1940
ag19
ag23
aS'variable_13'
p1941
ag38
aS'func_24'
p1942
ag6
aS'variable_1'
p1943
ag10
aS'variable_12'
p1944
ag10
ag50
ag51
ag10
ag52
ag53
ag52
ag19
ag23
aS'if'
p1945
ag6
aS'variable_13'
p1946
aS'=='
p1947
ag50
ag51
ag19
aS'func_25'
p1948
ag6
aS'variable_3'
p1949
ag10
aS'variable_11'
p1950
ag10
aS'variable_30'
p1951
ag10
aS'variable_31'
p1952
ag10
ag230
aS'Invalid'
p1953
aS'key'
p1954
ag50
aS'param'
p1955
ag6
aS'no'
p1956
ag52
ag53
ag52
aS'delimiter'
p1957
ag19
ag230
ag19
ag23
aS'if'
p1958
ag6
aS'func_26'
p1959
ag6
aS'variable_1'
p1960
ag10
aS'variable_12'
p1961
ag10
ag230
aS'inline'
p1962
ag230
ag10
aS'variable_13'
p1963
ag50
aS'variable_12'
p1964
ag19
aS'=='
p1965
ag41
ag19
aS'func_27'
p1966
ag6
aS'variable_28'
p1967
ag10
aS'variable_1'
p1968
ag10
aS'variable_12'
p1969
ag10
aS'variable_14'
p1970
ag10
ag230
aS'Key'
p1971
aS'and'
p1972
aS'Salt'
p1973
ag230
ag19
ag23
aS'func_28'
p1974
ag6
aS'variable_28'
p1975
ag10
aS'variable_32'
p1976
ag10
aS'variable_33'
p1977
ag10
ag41
ag10
aS'variable_34'
p1978
ag10
aS'variable_35'
p1979
ag476
aS'variable_36'
p1980
ag19
ag23
aS'func_29'
p1981
ag6
aS'variable_28'
p1982
ag10
aS'variable_37'
p1983
ag10
aS'variable_33'
p1984
ag10
aS'variable_34'
p1985
ag10
aS'variable_38'
p1986
ag10
aS'variable_35'
p1987
ag476
aS'variable_36'
p1988
ag19
ag23
aS'func_30'
p1989
ag6
aS'variable_28'
p1990
ag10
aS'variable_33'
p1991
ag10
ag41
ag10
ag50
ag51
ag10
ag230
aS'Key'
p1992
aS'and'
p1993
aS'Salt'
p1994
ag230
ag19
ag23
aS'func_31'
p1995
ag6
aS'variable_28'
p1996
ag10
aS'variable_39'
p1997
ag10
aS'variable_1'
p1998
ag10
aS'variable_12'
p1999
ag10
aS'variable_14'
p2000
ag10
aS'variable_35'
p2001
ag476
aS'variable_36'
p2002
ag19
ag23
aS'func_32'
p2003
ag6
aS'variable_28'
p2004
ag10
aS'variable_40'
p2005
ag10
aS'variable_1'
p2006
ag10
aS'variable_12'
p2007
ag10
aS'variable_14'
p2008
ag10
aS'variable_35'
p2009
ag476
aS'variable_36'
p2010
ag19
ag23
aS'func_33'
p2011
ag6
aS'variable_28'
p2012
ag10
aS'variable_41'
p2013
ag10
aS'variable_1'
p2014
ag10
aS'variable_12'
p2015
ag10
aS'variable_14'
p2016
ag10
aS'variable_35'
p2017
ag476
aS'variable_36'
p2018
ag19
ag23
aS'variable_12'
p2019
ag38
aS'variable_27'
p2020
ag23
aS'func_34'
p2021
ag6
aS'variable_28'
p2022
ag10
aS'variable_1'
p2023
ag10
aS'variable_13'
p2024
ag67
ag51
ag10
aS'variable_14'
p2025
ag10
ag230
ag245
ag246
ag230
ag10
aS'func_35'
p2026
ag6
aS'variable_1'
p2027
ag10
aS'variable_13'
p2028
ag67
ag51
ag10
aS'variable_14'
p2029
ag19
ag19
ag23
aS'variable_12'
p2030
ag38
aS'variable_27'
p2031
ag23
aa(lp2032
S'static'
p2033
aS'void'
p2034
aS'func_0'
p2035
ag6
aS'variable_0'
p2036
ag8
aS'variable_1'
p2037
ag10
aS'variable_2'
p2038
ag8
aS'variable_3'
p2039
ag10
aS'variable_4'
p2040
ag8
aS'variable_5'
p2041
ag10
aS'int'
p2042
aS'variable_6'
p2043
ag10
aS'variable_7'
p2044
ag8
aS'variable_8'
p2045
ag19
aS'variable_9'
p2046
ag8
aS'variable_10'
p2047
ag10
ag8
aS'variable_11'
p2048
ag23
aS'gint'
p2049
aS'variable_12'
p2050
ag10
aS'variable_13'
p2051
ag10
aS'variable_14'
p2052
ag10
aS'variable_15'
p2053
ag10
aS'variable_16'
p2054
ag23
aS'variable_17'
p2055
ag8
aS'variable_18'
p2056
ag23
aS'guint8'
p2057
aS'variable_19'
p2058
ag23
aS'gint'
p2059
aS'variable_20'
p2060
ag23
aS'gboolean'
p2061
aS'variable_21'
p2062
ag38
aS'variable_22'
p2063
ag23
aS'variable_12'
p2064
ag38
ag41
ag23
aS'variable_10'
p2065
ag38
aS'func_1'
p2066
ag6
aS'variable_5'
p2067
ag10
aS'variable_23'
p2068
ag19
ag23
aS'variable_16'
p2069
ag38
aS'func_2'
p2070
ag6
aS'variable_1'
p2071
ag10
aS'variable_12'
p2072
ag10
ag50
ag51
ag10
ag52
ag53
ag52
ag19
ag23
aS'if'
p2073
ag6
aS'variable_16'
p2074
aS'=='
p2075
ag50
ag51
ag19
aS'variable_14'
p2076
ag38
aS'variable_16'
p2077
ag50
aS'variable_12'
p2078
ag23
aS'variable_20'
p2079
ag38
aS'func_3'
p2080
ag6
aS'variable_1'
p2081
ag10
aS'variable_12'
p2082
ag10
aS'variable_14'
p2083
ag19
ag23
aS'variable_12'
p2084
ag38
aS'variable_16'
p2085
ag67
ag51
ag23
aS'variable_12'
p2086
ag38
aS'func_4'
p2087
ag6
aS'variable_1'
p2088
ag10
aS'variable_12'
p2089
ag10
aS'func_5'
p2090
ag6
aS'variable_1'
p2091
ag10
aS'variable_12'
p2092
ag19
ag19
ag23
aS'switch'
p2093
ag6
aS'variable_20'
p2094
ag19
aS'variable_13'
p2095
ag38
aS'func_6'
p2096
ag6
aS'variable_1'
p2097
ag10
aS'variable_12'
p2098
ag10
ag50
ag51
ag10
ag52
ag52
ag19
ag23
aS'if'
p2099
ag6
aS'variable_13'
p2100
aS'=='
p2101
ag50
ag51
ag19
aS'variable_14'
p2102
ag38
aS'variable_13'
p2103
ag50
aS'variable_12'
p2104
ag23
aS'variable_18'
p2105
ag38
aS'func_7'
p2106
ag6
aS'variable_1'
p2107
ag10
aS'variable_12'
p2108
ag10
aS'variable_14'
p2109
ag19
ag23
aS'variable_12'
p2110
ag38
aS'variable_13'
p2111
ag67
ag51
ag23
aS'variable_13'
p2112
ag38
aS'func_8'
p2113
ag6
aS'variable_1'
p2114
ag10
aS'variable_12'
p2115
ag10
ag50
ag51
ag10
ag52
ag98
ag52
ag19
ag23
aS'if'
p2116
ag6
aS'variable_13'
p2117
aS'=='
p2118
ag50
ag51
ag19
aS'variable_14'
p2119
ag38
aS'variable_13'
p2120
ag50
aS'variable_12'
p2121
ag23
aS'variable_19'
p2122
ag38
aS'atoi'
p2123
ag6
ag6
aS'char'
p2124
ag8
ag19
aS'variable_18'
p2125
ag19
ag23
aS'if'
p2126
ag6
aS'variable_19'
p2127
ag111
ag38
aS'variable_24'
p2128
ag19
aS'variable_13'
p2129
ag38
aS'variable_13'
p2130
ag67
ag51
ag23
aS'variable_12'
p2131
ag38
aS'variable_13'
p2132
ag23
aS'while'
p2133
ag6
aS'variable_6'
p2134
ag50
ag51
ag111
ag38
aS'variable_13'
p2135
ag19
aS'if'
p2136
ag6
ag121
aS'isdigit'
p2137
ag6
aS'func_9'
p2138
ag6
aS'variable_1'
p2139
ag10
aS'variable_13'
p2140
ag19
ag19
ag19
aS'variable_13'
p2141
aS'++'
p2142
ag23
aS'variable_14'
p2143
ag38
aS'variable_13'
p2144
ag50
aS'variable_12'
p2145
ag23
aS'if'
p2146
ag6
aS'variable_10'
p2147
ag19
aS'guint8'
p2148
aS'variable_25'
p2149
ag23
aS'variable_12'
p2150
ag38
aS'func_10'
p2151
ag6
aS'variable_1'
p2152
ag10
aS'variable_12'
p2153
ag10
aS'func_11'
p2154
ag6
aS'variable_1'
p2155
ag10
aS'variable_12'
p2156
ag19
ag19
ag23
aS'variable_13'
p2157
ag38
aS'func_12'
p2158
ag6
aS'variable_1'
p2159
ag10
aS'variable_12'
p2160
ag10
ag50
ag51
ag10
ag52
ag52
ag19
ag23
aS'if'
p2161
ag6
aS'variable_13'
p2162
aS'=='
p2163
ag50
ag51
ag19
aS'variable_14'
p2164
ag38
aS'variable_13'
p2165
ag50
aS'variable_12'
p2166
ag23
aS'variable_25'
p2167
ag38
aS'atoi'
p2168
ag6
ag6
aS'char'
p2169
ag8
ag19
aS'func_13'
p2170
ag6
aS'variable_1'
p2171
ag10
aS'variable_12'
p2172
ag10
aS'variable_14'
p2173
ag19
ag19
ag23
aS'if'
p2174
ag6
aS'variable_25'
p2175
ag111
ag38
aS'variable_24'
p2176
ag19
aS'variable_12'
p2177
ag38
aS'variable_13'
p2178
ag67
ag51
ag23
aS'while'
p2179
ag6
aS'variable_21'
p2180
aS'=='
p2181
aS'variable_22'
p2182
ag19
aS'variable_13'
p2183
ag38
aS'func_14'
p2184
ag6
aS'variable_1'
p2185
ag10
aS'variable_12'
p2186
ag10
ag50
ag51
ag10
ag52
ag23
ag52
ag19
ag23
aS'variable_12'
p2187
ag38
aS'func_15'
p2188
ag6
aS'variable_1'
p2189
ag10
aS'variable_12'
p2190
ag10
aS'func_16'
p2191
ag6
aS'variable_1'
p2192
ag10
aS'variable_12'
p2193
ag19
ag19
ag23
aS'if'
p2194
ag6
aS'variable_13'
p2195
aS'=='
p2196
ag50
ag51
ag19
aS'variable_21'
p2197
ag38
aS'variable_26'
p2198
ag23
aS'variable_13'
p2199
ag38
aS'func_17'
p2200
ag6
aS'variable_1'
p2201
ag19
ag23
aS'variable_12'
p2202
ag38
aS'variable_13'
p2203
ag67
ag51
ag23
aS'variable_13'
p2204
ag38
aS'func_18'
p2205
ag6
aS'variable_1'
p2206
ag10
aS'variable_12'
p2207
ag10
ag50
ag51
ag10
ag52
ag52
ag19
ag23
aS'variable_12'
p2208
ag38
aS'variable_13'
p2209
ag67
ag51
ag23
aS'variable_13'
p2210
ag38
aS'func_19'
p2211
ag6
aS'variable_1'
p2212
ag10
aS'variable_12'
p2213
ag10
ag50
ag51
ag10
ag52
ag52
ag19
ag23
aS'variable_14'
p2214
ag38
aS'variable_13'
p2215
ag50
aS'variable_12'
p2216
ag23
aS'func_20'
p2217
ag6
aS'variable_10'
p2218
ag10
aS'variable_27'
p2219
ag10
aS'variable_1'
p2220
ag10
aS'variable_12'
p2221
ag10
aS'variable_14'
p2222
ag10
aS'variable_28'
p2223
ag476
aS'variable_29'
p2224
ag19
ag23
aS'if'
p2225
ag6
aS'func_21'
p2226
ag6
aS'variable_1'
p2227
ag10
aS'variable_12'
p2228
ag10
ag230
aS'AES_CM_128_HMAC_SHA1_80'
p2229
ag230
ag10
aS'variable_14'
p2230
ag19
aS'=='
p2231
ag41
ag19
aS'if'
p2232
ag6
aS'func_22'
p2233
ag6
aS'variable_1'
p2234
ag10
aS'variable_12'
p2235
ag10
ag230
aS'AES_CM_128_HMAC_SHA1_32'
p2236
ag230
ag10
aS'variable_14'
p2237
ag19
aS'=='
p2238
ag41
ag19
aS'if'
p2239
ag6
aS'func_23'
p2240
ag6
aS'variable_1'
p2241
ag10
aS'variable_12'
p2242
ag10
ag230
aS'F8_128_HMAC_SHA1_80'
p2243
ag230
ag10
aS'variable_14'
p2244
ag19
aS'=='
p2245
ag41
ag19
aS'variable_30'
p2246
ag38
aS'func_24'
p2247
ag6
aS'variable_1'
p2248
ag10
aS'variable_12'
p2249
ag10
aS'variable_14'
p2250
ag19
ag23
aS'variable_31'
p2251
ag38
aS'func_25'
p2252
ag6
aS'variable_1'
p2253
ag10
aS'variable_30'
p2254
ag19
ag23
aS'func_26'
p2255
ag6
aS'variable_3'
p2256
ag10
aS'variable_31'
p2257
ag10
ag230
aS'Key_Salt_tvb'
p2258
ag230
ag19
ag23
aS'func_27'
p2259
ag6
aS'variable_32'
p2260
ag10
aS'variable_1'
p2261
ag10
aS'variable_12'
p2262
ag10
aS'variable_14'
p2263
ag10
ag230
aS'Key'
p2264
aS'and'
p2265
aS'Salt'
p2266
ag230
ag19
ag23
aS'func_28'
p2267
ag6
aS'variable_32'
p2268
ag10
aS'variable_33'
p2269
ag10
aS'variable_31'
p2270
ag10
ag41
ag10
aS'variable_34'
p2271
ag10
aS'variable_28'
p2272
ag476
aS'variable_29'
p2273
ag19
ag23
aS'func_29'
p2274
ag6
aS'variable_32'
p2275
ag10
aS'variable_35'
p2276
ag10
aS'variable_31'
p2277
ag10
aS'variable_34'
p2278
ag10
aS'variable_36'
p2279
ag10
aS'variable_28'
p2280
ag476
aS'variable_29'
p2281
ag19
ag23
aS'func_30'
p2282
ag6
aS'variable_32'
p2283
ag10
aS'variable_31'
p2284
ag10
ag41
ag10
ag50
ag51
ag10
ag230
aS'Key'
p2285
aS'and'
p2286
aS'Salt'
p2287
ag230
ag19
ag23
aS'func_31'
p2288
ag6
aS'variable_32'
p2289
ag10
aS'variable_37'
p2290
ag10
aS'variable_1'
p2291
ag10
aS'variable_12'
p2292
ag10
aS'variable_14'
p2293
ag10
aS'variable_28'
p2294
ag476
aS'variable_29'
p2295
ag19
ag23
aS'func_32'
p2296
ag6
aS'variable_32'
p2297
ag10
aS'variable_38'
p2298
ag10
aS'variable_1'
p2299
ag10
aS'variable_12'
p2300
ag10
aS'variable_14'
p2301
ag10
aS'variable_28'
p2302
ag476
aS'variable_29'
p2303
ag19
ag23
aS'variable_8'
p2304
aS'->'
p2305
aS'variable_39'
p2306
ag38
aS'atoi'
p2307
ag6
ag6
aS'char'
p2308
ag8
ag19
aS'func_33'
p2309
ag6
aS'variable_1'
p2310
ag10
aS'variable_12'
p2311
ag10
aS'variable_14'
p2312
ag19
ag19
ag23
aS'func_34'
p2313
ag6
aS'variable_32'
p2314
ag10
aS'variable_40'
p2315
ag10
aS'variable_1'
p2316
ag10
aS'variable_12'
p2317
ag10
aS'variable_14'
p2318
ag10
aS'variable_28'
p2319
ag476
aS'variable_29'
p2320
ag19
ag23
aS'func_35'
p2321
ag6
aS'variable_32'
p2322
ag10
aS'variable_1'
p2323
ag10
aS'variable_13'
p2324
ag67
ag51
ag10
aS'variable_14'
p2325
ag10
ag230
ag245
ag246
ag230
ag10
aS'func_36'
p2326
ag6
aS'variable_1'
p2327
ag10
aS'variable_13'
p2328
ag67
ag51
ag10
aS'variable_14'
p2329
ag19
ag19
ag23
aa(lp2330
S'static'
p2331
aS'void'
p2332
aS'func_0'
p2333
ag6
aS'variable_0'
p2334
ag8
aS'variable_1'
p2335
ag10
aS'variable_2'
p2336
ag8
aS'variable_3'
p2337
ag10
aS'variable_4'
p2338
ag8
aS'variable_5'
p2339
ag10
aS'int'
p2340
aS'variable_6'
p2341
ag10
aS'variable_7'
p2342
ag8
aS'variable_8'
p2343
ag19
aS'variable_9'
p2344
ag8
aS'variable_10'
p2345
ag10
ag8
aS'variable_11'
p2346
ag23
aS'gint'
p2347
aS'variable_12'
p2348
ag10
aS'variable_13'
p2349
ag10
aS'variable_14'
p2350
ag10
aS'variable_15'
p2351
ag10
aS'variable_16'
p2352
ag23
aS'variable_17'
p2353
ag8
aS'variable_18'
p2354
ag23
aS'guint8'
p2355
aS'variable_19'
p2356
ag23
aS'gint'
p2357
aS'variable_20'
p2358
ag23
aS'gboolean'
p2359
aS'variable_21'
p2360
ag38
aS'variable_22'
p2361
ag23
aS'variable_12'
p2362
ag38
ag41
ag23
aS'variable_10'
p2363
ag38
aS'func_1'
p2364
ag6
aS'variable_5'
p2365
ag10
aS'variable_23'
p2366
ag19
ag23
aS'variable_16'
p2367
ag38
aS'func_2'
p2368
ag6
aS'variable_1'
p2369
ag10
aS'variable_12'
p2370
ag10
ag50
ag51
ag10
ag52
ag53
ag52
ag19
ag23
aS'if'
p2371
ag6
aS'variable_16'
p2372
aS'=='
p2373
ag50
ag51
ag19
aS'variable_14'
p2374
ag38
aS'variable_16'
p2375
ag50
aS'variable_12'
p2376
ag23
aS'variable_20'
p2377
ag38
aS'func_3'
p2378
ag6
aS'variable_1'
p2379
ag10
aS'variable_12'
p2380
ag10
aS'variable_14'
p2381
ag19
ag23
aS'variable_12'
p2382
ag38
aS'variable_16'
p2383
ag67
ag51
ag23
aS'variable_12'
p2384
ag38
aS'func_4'
p2385
ag6
aS'variable_1'
p2386
ag10
aS'variable_12'
p2387
ag10
aS'func_5'
p2388
ag6
aS'variable_1'
p2389
ag10
aS'variable_12'
p2390
ag19
ag19
ag23
aS'switch'
p2391
ag6
aS'variable_20'
p2392
ag19
aS'variable_13'
p2393
ag38
aS'func_6'
p2394
ag6
aS'variable_1'
p2395
ag10
aS'variable_12'
p2396
ag10
ag50
ag51
ag10
ag52
ag52
ag19
ag23
aS'if'
p2397
ag6
aS'variable_13'
p2398
aS'=='
p2399
ag50
ag51
ag19
aS'variable_14'
p2400
ag38
aS'variable_13'
p2401
ag50
aS'variable_12'
p2402
ag23
aS'variable_18'
p2403
ag38
aS'func_7'
p2404
ag6
aS'variable_1'
p2405
ag10
aS'variable_12'
p2406
ag10
aS'variable_14'
p2407
ag19
ag23
aS'variable_12'
p2408
ag38
aS'variable_13'
p2409
ag67
ag51
ag23
aS'variable_13'
p2410
ag38
aS'func_8'
p2411
ag6
aS'variable_1'
p2412
ag10
aS'variable_12'
p2413
ag10
ag50
ag51
ag10
ag52
ag98
ag52
ag19
ag23
aS'if'
p2414
ag6
aS'variable_13'
p2415
aS'=='
p2416
ag50
ag51
ag19
aS'variable_14'
p2417
ag38
aS'variable_13'
p2418
ag50
aS'variable_12'
p2419
ag23
aS'variable_19'
p2420
ag38
aS'atoi'
p2421
ag6
ag6
aS'char'
p2422
ag8
ag19
aS'variable_18'
p2423
ag19
ag23
aS'if'
p2424
ag6
aS'variable_19'
p2425
ag111
ag38
aS'variable_24'
p2426
ag19
aS'variable_13'
p2427
ag38
aS'variable_13'
p2428
ag67
ag51
ag23
aS'variable_12'
p2429
ag38
aS'variable_13'
p2430
ag23
aS'while'
p2431
ag6
aS'variable_6'
p2432
ag50
ag51
ag111
ag38
aS'variable_13'
p2433
ag19
aS'if'
p2434
ag6
ag121
aS'isdigit'
p2435
ag6
aS'func_9'
p2436
ag6
aS'variable_1'
p2437
ag10
aS'variable_13'
p2438
ag19
ag19
ag19
aS'variable_13'
p2439
aS'++'
p2440
ag23
aS'variable_14'
p2441
ag38
aS'variable_13'
p2442
ag50
aS'variable_12'
p2443
ag23
aS'if'
p2444
ag6
aS'variable_10'
p2445
ag19
aS'guint8'
p2446
aS'variable_25'
p2447
ag23
aS'variable_12'
p2448
ag38
aS'func_10'
p2449
ag6
aS'variable_1'
p2450
ag10
aS'variable_12'
p2451
ag10
aS'func_11'
p2452
ag6
aS'variable_1'
p2453
ag10
aS'variable_12'
p2454
ag19
ag19
ag23
aS'variable_13'
p2455
ag38
aS'func_12'
p2456
ag6
aS'variable_1'
p2457
ag10
aS'variable_12'
p2458
ag10
ag50
ag51
ag10
ag52
ag52
ag19
ag23
aS'if'
p2459
ag6
aS'variable_13'
p2460
aS'=='
p2461
ag50
ag51
ag19
aS'variable_14'
p2462
ag38
aS'variable_13'
p2463
ag50
aS'variable_12'
p2464
ag23
aS'variable_25'
p2465
ag38
aS'atoi'
p2466
ag6
ag6
aS'char'
p2467
ag8
ag19
aS'func_13'
p2468
ag6
aS'variable_1'
p2469
ag10
aS'variable_12'
p2470
ag10
aS'variable_14'
p2471
ag19
ag19
ag23
aS'if'
p2472
ag6
aS'variable_25'
p2473
ag111
ag38
aS'variable_24'
p2474
ag19
aS'variable_12'
p2475
ag38
aS'variable_13'
p2476
ag67
ag51
ag23
aS'while'
p2477
ag6
aS'variable_21'
p2478
aS'=='
p2479
aS'variable_22'
p2480
ag19
aS'variable_13'
p2481
ag38
aS'func_14'
p2482
ag6
aS'variable_1'
p2483
ag10
aS'variable_12'
p2484
ag10
ag50
ag51
ag10
ag52
ag23
ag52
ag19
ag23
aS'variable_12'
p2485
ag38
aS'func_15'
p2486
ag6
aS'variable_1'
p2487
ag10
aS'variable_12'
p2488
ag10
aS'func_16'
p2489
ag6
aS'variable_1'
p2490
ag10
aS'variable_12'
p2491
ag19
ag19
ag23
aS'if'
p2492
ag6
aS'variable_13'
p2493
aS'=='
p2494
ag50
ag51
ag19
aS'variable_21'
p2495
ag38
aS'variable_26'
p2496
ag23
aS'variable_13'
p2497
ag38
aS'func_17'
p2498
ag6
aS'variable_1'
p2499
ag19
ag23
aS'variable_12'
p2500
ag38
aS'variable_13'
p2501
ag67
ag51
ag23
aS'variable_13'
p2502
ag38
aS'func_18'
p2503
ag6
aS'variable_1'
p2504
ag10
aS'variable_12'
p2505
ag10
ag50
ag51
ag10
ag52
ag52
ag19
ag23
aS'variable_14'
p2506
ag38
aS'variable_13'
p2507
ag50
aS'variable_12'
p2508
ag23
aS'func_19'
p2509
ag6
aS'variable_10'
p2510
ag10
aS'variable_27'
p2511
ag10
aS'variable_1'
p2512
ag10
aS'variable_12'
p2513
ag10
aS'variable_14'
p2514
ag10
aS'atoi'
p2515
ag6
ag6
aS'char'
p2516
ag8
ag19
aS'func_20'
p2517
ag6
aS'variable_1'
p2518
ag10
aS'variable_12'
p2519
ag10
aS'variable_14'
p2520
ag19
ag19
ag19
ag23
aS'func_21'
p2521
ag6
aS'variable_10'
p2522
ag10
aS'variable_28'
p2523
ag10
aS'variable_1'
p2524
ag10
aS'variable_12'
p2525
ag10
aS'variable_14'
p2526
ag10
aS'variable_29'
p2527
ag476
aS'variable_30'
p2528
ag19
ag23
aS'if'
p2529
ag6
aS'func_22'
p2530
ag6
aS'variable_1'
p2531
ag10
aS'variable_12'
p2532
ag10
ag230
aS'AES_CM_128_HMAC_SHA1_80'
p2533
ag230
ag10
aS'variable_14'
p2534
ag19
aS'=='
p2535
ag41
ag19
aS'if'
p2536
ag6
aS'func_23'
p2537
ag6
aS'variable_1'
p2538
ag10
aS'variable_12'
p2539
ag10
ag230
aS'AES_CM_128_HMAC_SHA1_32'
p2540
ag230
ag10
aS'variable_14'
p2541
ag19
aS'=='
p2542
ag41
ag19
aS'if'
p2543
ag6
aS'func_24'
p2544
ag6
aS'variable_1'
p2545
ag10
aS'variable_12'
p2546
ag10
ag230
aS'F8_128_HMAC_SHA1_80'
p2547
ag230
ag10
aS'variable_14'
p2548
ag19
aS'=='
p2549
ag41
ag19
aS'variable_31'
p2550
ag38
aS'func_25'
p2551
ag6
aS'variable_1'
p2552
ag10
aS'variable_12'
p2553
ag10
aS'variable_14'
p2554
ag19
ag23
aS'variable_32'
p2555
ag38
aS'func_26'
p2556
ag6
aS'variable_1'
p2557
ag10
aS'variable_31'
p2558
ag19
ag23
aS'func_27'
p2559
ag6
aS'variable_3'
p2560
ag10
aS'variable_32'
p2561
ag10
ag230
aS'Key_Salt_tvb'
p2562
ag230
ag19
ag23
aS'func_28'
p2563
ag6
aS'variable_33'
p2564
ag10
aS'variable_1'
p2565
ag10
aS'variable_12'
p2566
ag10
aS'variable_14'
p2567
ag10
ag230
aS'Key'
p2568
aS'and'
p2569
aS'Salt'
p2570
ag230
ag19
ag23
aS'func_29'
p2571
ag6
aS'variable_33'
p2572
ag10
aS'variable_34'
p2573
ag10
aS'variable_32'
p2574
ag10
ag41
ag10
aS'variable_35'
p2575
ag10
aS'variable_29'
p2576
ag476
aS'variable_30'
p2577
ag19
ag23
aS'func_30'
p2578
ag6
aS'variable_33'
p2579
ag10
aS'variable_36'
p2580
ag10
aS'variable_32'
p2581
ag10
aS'variable_35'
p2582
ag10
aS'variable_37'
p2583
ag10
aS'variable_29'
p2584
ag476
aS'variable_30'
p2585
ag19
ag23
aS'func_31'
p2586
ag6
aS'variable_33'
p2587
ag10
aS'variable_32'
p2588
ag10
ag41
ag10
ag50
ag51
ag10
ag230
aS'Key'
p2589
aS'and'
p2590
aS'Salt'
p2591
ag230
ag19
ag23
aS'func_32'
p2592
ag6
aS'variable_33'
p2593
ag10
aS'variable_38'
p2594
ag10
aS'variable_1'
p2595
ag10
aS'variable_12'
p2596
ag10
aS'variable_14'
p2597
ag10
aS'variable_29'
p2598
ag476
aS'variable_30'
p2599
ag19
ag23
aS'func_33'
p2600
ag6
aS'variable_33'
p2601
ag10
aS'variable_39'
p2602
ag10
aS'variable_1'
p2603
ag10
aS'variable_12'
p2604
ag10
aS'variable_14'
p2605
ag10
aS'variable_29'
p2606
ag476
aS'variable_30'
p2607
ag19
ag23
aS'variable_8'
p2608
aS'->'
p2609
aS'variable_40'
p2610
ag38
aS'atoi'
p2611
ag6
ag6
aS'char'
p2612
ag8
ag19
aS'func_34'
p2613
ag6
aS'variable_1'
p2614
ag10
aS'variable_12'
p2615
ag10
aS'variable_14'
p2616
ag19
ag19
ag23
aS'func_35'
p2617
ag6
aS'variable_33'
p2618
ag10
aS'variable_41'
p2619
ag10
aS'variable_1'
p2620
ag10
aS'variable_12'
p2621
ag10
aS'variable_14'
p2622
ag10
aS'variable_29'
p2623
ag476
aS'variable_30'
p2624
ag19
ag23
aS'func_36'
p2625
ag6
aS'variable_33'
p2626
ag10
aS'variable_1'
p2627
ag10
aS'variable_13'
p2628
ag67
ag51
ag10
aS'variable_14'
p2629
ag10
ag230
ag245
ag246
ag230
ag10
aS'func_37'
p2630
ag6
aS'variable_1'
p2631
ag10
aS'variable_13'
p2632
ag67
ag51
ag10
aS'variable_14'
p2633
ag19
ag19
ag23
aa(lp2634
S'static'
p2635
aS'void'
p2636
aS'func_0'
p2637
ag6
aS'variable_0'
p2638
ag8
aS'variable_1'
p2639
ag10
aS'variable_2'
p2640
ag8
aS'variable_3'
p2641
ag10
aS'variable_4'
p2642
ag8
aS'variable_5'
p2643
ag10
aS'int'
p2644
aS'variable_6'
p2645
ag10
aS'variable_7'
p2646
ag8
aS'variable_8'
p2647
ag19
aS'variable_9'
p2648
ag8
aS'variable_10'
p2649
ag10
ag8
aS'variable_11'
p2650
ag23
aS'gint'
p2651
aS'variable_12'
p2652
ag10
aS'variable_13'
p2653
ag10
aS'variable_14'
p2654
ag10
aS'variable_15'
p2655
ag10
aS'variable_16'
p2656
ag23
aS'variable_17'
p2657
ag8
aS'variable_18'
p2658
ag23
aS'variable_17'
p2659
ag8
aS'variable_19'
p2660
ag23
aS'guint8'
p2661
aS'variable_20'
p2662
ag23
aS'gint'
p2663
aS'variable_21'
p2664
ag23
aS'const'
p2665
aS'char'
p2666
ag8
aS'variable_22'
p2667
ag38
aS'gboolean'
p2668
aS'variable_23'
p2669
ag38
aS'variable_24'
p2670
ag23
aS'variable_12'
p2671
ag38
ag41
ag23
aS'variable_10'
p2672
ag38
aS'func_1'
p2673
ag6
aS'variable_5'
p2674
ag10
aS'variable_25'
p2675
ag19
ag23
aS'variable_16'
p2676
ag38
aS'func_2'
p2677
ag6
aS'variable_1'
p2678
ag10
aS'variable_12'
p2679
ag10
ag50
ag51
ag10
ag52
ag53
ag52
ag19
ag23
aS'if'
p2680
ag6
aS'variable_16'
p2681
aS'=='
p2682
ag50
ag51
ag19
aS'variable_14'
p2683
ag38
aS'variable_16'
p2684
ag50
aS'variable_12'
p2685
ag23
aS'variable_21'
p2686
ag38
aS'func_3'
p2687
ag6
aS'variable_1'
p2688
ag10
aS'variable_12'
p2689
ag10
aS'variable_14'
p2690
ag19
ag23
aS'variable_12'
p2691
ag38
aS'variable_16'
p2692
ag67
ag51
ag23
aS'variable_12'
p2693
ag38
aS'func_4'
p2694
ag6
aS'variable_1'
p2695
ag10
aS'variable_12'
p2696
ag10
aS'func_5'
p2697
ag6
aS'variable_1'
p2698
ag10
aS'variable_12'
p2699
ag19
ag19
ag23
aS'variable_19'
p2700
ag38
aS'func_6'
p2701
ag6
aS'variable_1'
p2702
ag10
aS'variable_12'
p2703
ag10
aS'func_7'
p2704
ag6
aS'variable_1'
p2705
ag10
aS'variable_12'
p2706
ag19
ag19
ag23
aS'switch'
p2707
ag6
aS'variable_21'
p2708
ag19
aS'variable_13'
p2709
ag38
aS'func_8'
p2710
ag6
aS'variable_1'
p2711
ag10
aS'variable_12'
p2712
ag10
ag50
ag51
ag10
ag52
ag52
ag19
ag23
aS'if'
p2713
ag6
aS'variable_13'
p2714
aS'=='
p2715
ag50
ag51
ag19
aS'variable_14'
p2716
ag38
aS'variable_13'
p2717
ag50
aS'variable_12'
p2718
ag23
aS'variable_18'
p2719
ag38
aS'func_9'
p2720
ag6
aS'variable_1'
p2721
ag10
aS'variable_12'
p2722
ag10
aS'variable_14'
p2723
ag19
ag23
aS'variable_12'
p2724
ag38
aS'variable_13'
p2725
ag67
ag51
ag23
aS'variable_13'
p2726
ag38
aS'func_10'
p2727
ag6
aS'variable_1'
p2728
ag10
aS'variable_12'
p2729
ag10
ag50
ag51
ag10
ag52
ag98
ag52
ag19
ag23
aS'if'
p2730
ag6
aS'variable_13'
p2731
aS'=='
p2732
ag50
ag51
ag19
aS'variable_14'
p2733
ag38
aS'variable_13'
p2734
ag50
aS'variable_12'
p2735
ag23
aS'variable_20'
p2736
ag38
aS'atoi'
p2737
ag6
ag6
aS'char'
p2738
ag8
ag19
aS'variable_18'
p2739
ag19
ag23
aS'if'
p2740
ag6
aS'variable_20'
p2741
ag111
ag38
aS'variable_26'
p2742
ag19
aS'variable_13'
p2743
ag38
aS'variable_13'
p2744
ag67
ag51
ag23
aS'variable_12'
p2745
ag38
aS'variable_13'
p2746
ag23
aS'while'
p2747
ag6
aS'variable_6'
p2748
ag50
ag51
ag111
ag38
aS'variable_13'
p2749
ag19
aS'if'
p2750
ag6
ag121
aS'isdigit'
p2751
ag6
aS'func_11'
p2752
ag6
aS'variable_1'
p2753
ag10
aS'variable_13'
p2754
ag19
ag19
ag19
aS'variable_13'
p2755
aS'++'
p2756
ag23
aS'variable_14'
p2757
ag38
aS'variable_13'
p2758
ag50
aS'variable_12'
p2759
ag23
aS'if'
p2760
ag6
aS'variable_10'
p2761
ag19
aS'guint8'
p2762
aS'variable_27'
p2763
ag23
aS'variable_12'
p2764
ag38
aS'func_12'
p2765
ag6
aS'variable_1'
p2766
ag10
aS'variable_12'
p2767
ag10
aS'func_13'
p2768
ag6
aS'variable_1'
p2769
ag10
aS'variable_12'
p2770
ag19
ag19
ag23
aS'variable_13'
p2771
ag38
aS'func_14'
p2772
ag6
aS'variable_1'
p2773
ag10
aS'variable_12'
p2774
ag10
ag50
ag51
ag10
ag52
ag52
ag19
ag23
aS'if'
p2775
ag6
aS'variable_13'
p2776
aS'=='
p2777
ag50
ag51
ag19
aS'variable_14'
p2778
ag38
aS'variable_13'
p2779
ag50
aS'variable_12'
p2780
ag23
aS'variable_27'
p2781
ag38
aS'atoi'
p2782
ag6
ag6
aS'char'
p2783
ag8
ag19
aS'func_15'
p2784
ag6
aS'variable_1'
p2785
ag10
aS'variable_12'
p2786
ag10
aS'variable_14'
p2787
ag19
ag19
ag23
aS'if'
p2788
ag6
aS'variable_27'
p2789
ag111
ag38
aS'variable_26'
p2790
ag19
aS'variable_12'
p2791
ag38
aS'variable_13'
p2792
ag67
ag51
ag23
aS'while'
p2793
ag6
aS'variable_23'
p2794
aS'=='
p2795
aS'variable_24'
p2796
ag19
aS'variable_13'
p2797
ag38
aS'func_16'
p2798
ag6
aS'variable_1'
p2799
ag10
aS'variable_12'
p2800
ag10
ag50
ag51
ag10
ag52
ag23
ag52
ag19
ag23
aS'variable_12'
p2801
ag38
aS'func_17'
p2802
ag6
aS'variable_1'
p2803
ag10
aS'variable_12'
p2804
ag10
aS'func_18'
p2805
ag6
aS'variable_1'
p2806
ag10
aS'variable_12'
p2807
ag19
ag19
ag23
aS'if'
p2808
ag6
aS'variable_13'
p2809
aS'=='
p2810
ag50
ag51
ag19
aS'variable_23'
p2811
ag38
aS'variable_28'
p2812
ag23
aS'variable_13'
p2813
ag38
aS'func_19'
p2814
ag6
aS'variable_1'
p2815
ag19
ag23
aS'variable_12'
p2816
ag38
aS'variable_13'
p2817
ag67
ag51
ag23
aS'if'
p2818
ag6
aS'strncmp'
p2819
ag6
ag6
aS'char'
p2820
ag8
ag19
aS'variable_19'
p2821
ag10
aS'variable_22'
p2822
ag10
aS'strlen'
p2823
ag6
aS'variable_22'
p2824
ag19
ag19
aS'=='
p2825
ag41
ag19
aS'int'
p2826
aS'variable_29'
p2827
ag10
aS'variable_30'
p2828
ag10
aS'variable_31'
p2829
ag23
aS'variable_29'
p2830
ag38
aS'variable_12'
p2831
ag67
ag6
aS'int'
p2832
ag19
aS'strlen'
p2833
ag6
aS'variable_22'
p2834
ag19
ag23
aS'variable_30'
p2835
ag38
aS'func_20'
p2836
ag6
aS'variable_1'
p2837
ag10
aS'variable_29'
p2838
ag10
ag50
ag51
ag10
ag52
ag53
ag52
ag19
ag23
aS'if'
p2839
ag6
aS'variable_30'
p2840
aS'!='
p2841
ag50
ag51
ag19
aS'variable_31'
p2842
ag38
aS'func_21'
p2843
ag6
aS'variable_1'
p2844
ag10
aS'variable_30'
p2845
ag10
ag50
ag51
ag10
ag52
ag98
ag52
ag19
ag23
aS'if'
p2846
ag6
aS'func_22'
p2847
ag6
aS'variable_32'
p2848
ag10
ag6
aS'char'
p2849
ag8
ag19
aS'func_23'
p2850
ag6
aS'variable_1'
p2851
ag10
aS'variable_29'
p2852
ag10
aS'variable_30'
p2853
ag50
aS'variable_29'
p2854
ag19
ag10
aS'&'
p2855
aS'variable_33'
p2856
ag19
ag111
ag41
ag19
aS'variable_34'
p2857
ag38
aS'atoi'
p2858
ag6
ag6
aS'char'
p2859
ag8
ag19
aS'func_24'
p2860
ag6
aS'variable_1'
p2861
ag10
aS'variable_30'
p2862
ag67
ag51
ag10
aS'variable_31'
p2863
ag50
aS'variable_30'
p2864
ag50
ag51
ag19
ag19
ag23
aa(lp2865
S'static'
p2866
aS'void'
p2867
aS'func_0'
p2868
ag6
aS'variable_0'
p2869
ag8
aS'variable_1'
p2870
ag10
aS'variable_2'
p2871
ag8
aS'variable_3'
p2872
ag10
aS'variable_4'
p2873
ag8
aS'variable_5'
p2874
ag10
aS'int'
p2875
aS'variable_6'
p2876
ag10
aS'variable_7'
p2877
ag8
aS'variable_8'
p2878
ag19
aS'variable_9'
p2879
ag8
aS'variable_10'
p2880
ag10
ag8
aS'variable_11'
p2881
ag23
aS'gint'
p2882
aS'variable_12'
p2883
ag10
aS'variable_13'
p2884
ag10
aS'variable_14'
p2885
ag10
aS'variable_15'
p2886
ag10
aS'variable_16'
p2887
ag23
aS'variable_17'
p2888
ag8
aS'variable_18'
p2889
ag23
aS'guint8'
p2890
aS'variable_19'
p2891
ag23
aS'gint'
p2892
aS'variable_20'
p2893
ag23
aS'gboolean'
p2894
aS'variable_21'
p2895
ag38
aS'variable_22'
p2896
ag23
aS'variable_12'
p2897
ag38
ag41
ag23
aS'variable_10'
p2898
ag38
aS'func_1'
p2899
ag6
aS'variable_5'
p2900
ag10
aS'variable_23'
p2901
ag19
ag23
aS'variable_16'
p2902
ag38
aS'func_2'
p2903
ag6
aS'variable_1'
p2904
ag10
aS'variable_12'
p2905
ag10
ag50
ag51
ag10
ag52
ag53
ag52
ag19
ag23
aS'if'
p2906
ag6
aS'variable_16'
p2907
aS'=='
p2908
ag50
ag51
ag19
aS'variable_14'
p2909
ag38
aS'variable_16'
p2910
ag50
aS'variable_12'
p2911
ag23
aS'variable_20'
p2912
ag38
aS'func_3'
p2913
ag6
aS'variable_1'
p2914
ag10
aS'variable_12'
p2915
ag10
aS'variable_14'
p2916
ag19
ag23
aS'variable_12'
p2917
ag38
aS'variable_16'
p2918
ag67
ag51
ag23
aS'variable_12'
p2919
ag38
aS'func_4'
p2920
ag6
aS'variable_1'
p2921
ag10
aS'variable_12'
p2922
ag10
aS'func_5'
p2923
ag6
aS'variable_1'
p2924
ag10
aS'variable_12'
p2925
ag19
ag19
ag23
aS'switch'
p2926
ag6
aS'variable_20'
p2927
ag19
aS'variable_13'
p2928
ag38
aS'func_6'
p2929
ag6
aS'variable_1'
p2930
ag10
aS'variable_12'
p2931
ag10
ag50
ag51
ag10
ag52
ag52
ag19
ag23
aS'if'
p2932
ag6
aS'variable_13'
p2933
aS'=='
p2934
ag50
ag51
ag19
aS'variable_14'
p2935
ag38
aS'variable_13'
p2936
ag50
aS'variable_12'
p2937
ag23
aS'variable_18'
p2938
ag38
aS'func_7'
p2939
ag6
aS'variable_1'
p2940
ag10
aS'variable_12'
p2941
ag10
aS'variable_14'
p2942
ag19
ag23
aS'variable_12'
p2943
ag38
aS'variable_13'
p2944
ag67
ag51
ag23
aS'variable_13'
p2945
ag38
aS'func_8'
p2946
ag6
aS'variable_1'
p2947
ag10
aS'variable_12'
p2948
ag10
ag50
ag51
ag10
ag52
ag98
ag52
ag19
ag23
aS'if'
p2949
ag6
aS'variable_13'
p2950
aS'=='
p2951
ag50
ag51
ag19
aS'variable_14'
p2952
ag38
aS'variable_13'
p2953
ag50
aS'variable_12'
p2954
ag23
aS'variable_19'
p2955
ag38
aS'atoi'
p2956
ag6
ag6
aS'char'
p2957
ag8
ag19
aS'variable_18'
p2958
ag19
ag23
aS'if'
p2959
ag6
aS'variable_19'
p2960
ag111
ag38
aS'variable_24'
p2961
ag19
aS'variable_13'
p2962
ag38
aS'variable_13'
p2963
ag67
ag51
ag23
aS'variable_12'
p2964
ag38
aS'variable_13'
p2965
ag23
aS'while'
p2966
ag6
aS'variable_6'
p2967
ag50
ag51
ag111
ag38
aS'variable_13'
p2968
ag19
aS'if'
p2969
ag6
ag121
aS'isdigit'
p2970
ag6
aS'func_9'
p2971
ag6
aS'variable_1'
p2972
ag10
aS'variable_13'
p2973
ag19
ag19
ag19
aS'variable_13'
p2974
aS'++'
p2975
ag23
aS'variable_14'
p2976
ag38
aS'variable_13'
p2977
ag50
aS'variable_12'
p2978
ag23
aS'if'
p2979
ag6
aS'variable_10'
p2980
ag19
aS'guint8'
p2981
aS'variable_25'
p2982
ag23
aS'variable_12'
p2983
ag38
aS'func_10'
p2984
ag6
aS'variable_1'
p2985
ag10
aS'variable_12'
p2986
ag10
aS'func_11'
p2987
ag6
aS'variable_1'
p2988
ag10
aS'variable_12'
p2989
ag19
ag19
ag23
aS'variable_13'
p2990
ag38
aS'func_12'
p2991
ag6
aS'variable_1'
p2992
ag10
aS'variable_12'
p2993
ag10
ag50
ag51
ag10
ag52
ag52
ag19
ag23
aS'if'
p2994
ag6
aS'variable_13'
p2995
aS'=='
p2996
ag50
ag51
ag19
aS'variable_14'
p2997
ag38
aS'variable_13'
p2998
ag50
aS'variable_12'
p2999
ag23
aS'variable_25'
p3000
ag38
aS'atoi'
p3001
ag6
ag6
aS'char'
p3002
ag8
ag19
aS'func_13'
p3003
ag6
aS'variable_1'
p3004
ag10
aS'variable_12'
p3005
ag10
aS'variable_14'
p3006
ag19
ag19
ag23
aS'if'
p3007
ag6
aS'variable_25'
p3008
ag111
ag38
aS'variable_24'
p3009
ag19
aS'variable_12'
p3010
ag38
aS'variable_13'
p3011
ag67
ag51
ag23
aS'while'
p3012
ag6
aS'variable_21'
p3013
aS'=='
p3014
aS'variable_22'
p3015
ag19
aS'variable_13'
p3016
ag38
aS'func_14'
p3017
ag6
aS'variable_1'
p3018
ag10
aS'variable_12'
p3019
ag10
ag50
ag51
ag10
ag52
ag23
ag52
ag19
ag23
aS'variable_12'
p3020
ag38
aS'func_15'
p3021
ag6
aS'variable_1'
p3022
ag10
aS'variable_12'
p3023
ag10
aS'func_16'
p3024
ag6
aS'variable_1'
p3025
ag10
aS'variable_12'
p3026
ag19
ag19
ag23
aS'if'
p3027
ag6
aS'variable_13'
p3028
aS'=='
p3029
ag50
ag51
ag19
aS'variable_21'
p3030
ag38
aS'variable_26'
p3031
ag23
aS'variable_13'
p3032
ag38
aS'func_17'
p3033
ag6
aS'variable_1'
p3034
ag19
ag23
aS'variable_14'
p3035
ag38
aS'variable_13'
p3036
ag50
aS'variable_12'
p3037
ag23
aS'variable_27'
p3038
ag38
aS'func_18'
p3039
ag6
aS'variable_10'
p3040
ag10
aS'variable_28'
p3041
ag10
aS'variable_1'
p3042
ag10
aS'variable_12'
p3043
ag10
aS'variable_14'
p3044
ag10
aS'variable_29'
p3045
ag476
aS'variable_30'
p3046
ag19
ag23
aS'variable_31'
p3047
ag38
aS'func_19'
p3048
ag6
aS'variable_27'
p3049
ag10
aS'variable_32'
p3050
ag19
ag23
aS'func_20'
p3051
ag6
aS'variable_31'
p3052
ag10
aS'variable_1'
p3053
ag10
aS'variable_3'
p3054
ag10
aS'variable_12'
p3055
ag10
aS'variable_14'
p3056
ag10
aS'variable_8'
p3057
aS'->'
p3058
aS'variable_33'
p3059
aS'['
p3060
aS'variable_25'
p3061
aS']'
p3062
ag19
ag23
aS'variable_12'
p3063
ag38
aS'variable_13'
p3064
ag67
ag51
ag23
aS'func_21'
p3065
ag6
aS'variable_10'
p3066
ag10
aS'variable_34'
p3067
ag10
aS'variable_1'
p3068
ag10
aS'variable_12'
p3069
ag10
aS'variable_14'
p3070
ag10
aS'atoi'
p3071
ag6
ag6
aS'char'
p3072
ag8
ag19
aS'func_22'
p3073
ag6
aS'variable_1'
p3074
ag10
aS'variable_12'
p3075
ag10
aS'variable_14'
p3076
ag19
ag19
ag19
ag23
aS'func_23'
p3077
ag6
aS'variable_10'
p3078
ag10
aS'variable_35'
p3079
ag10
aS'variable_1'
p3080
ag10
aS'variable_12'
p3081
ag10
aS'variable_14'
p3082
ag10
aS'variable_29'
p3083
ag476
aS'variable_30'
p3084
ag19
ag23
aS'if'
p3085
ag6
aS'func_24'
p3086
ag6
aS'variable_1'
p3087
ag10
aS'variable_12'
p3088
ag10
ag230
aS'AES_CM_128_HMAC_SHA1_80'
p3089
ag230
ag10
aS'variable_14'
p3090
ag19
aS'=='
p3091
ag41
ag19
aS'if'
p3092
ag6
aS'func_25'
p3093
ag6
aS'variable_1'
p3094
ag10
aS'variable_12'
p3095
ag10
ag230
aS'AES_CM_128_HMAC_SHA1_32'
p3096
ag230
ag10
aS'variable_14'
p3097
ag19
aS'=='
p3098
ag41
ag19
aS'if'
p3099
ag6
aS'func_26'
p3100
ag6
aS'variable_1'
p3101
ag10
aS'variable_12'
p3102
ag10
ag230
aS'F8_128_HMAC_SHA1_80'
p3103
ag230
ag10
aS'variable_14'
p3104
ag19
aS'=='
p3105
ag41
ag19
aS'variable_36'
p3106
ag38
aS'func_27'
p3107
ag6
aS'variable_1'
p3108
ag10
aS'variable_12'
p3109
ag10
aS'variable_14'
p3110
ag19
ag23
aS'variable_37'
p3111
ag38
aS'func_28'
p3112
ag6
aS'variable_1'
p3113
ag10
aS'variable_36'
p3114
ag19
ag23
aS'func_29'
p3115
ag6
aS'variable_3'
p3116
ag10
aS'variable_37'
p3117
ag10
ag230
aS'Key_Salt_tvb'
p3118
ag230
ag19
ag23
aS'func_30'
p3119
ag6
aS'variable_38'
p3120
ag10
aS'variable_1'
p3121
ag10
aS'variable_12'
p3122
ag10
aS'variable_14'
p3123
ag10
ag230
aS'Key'
p3124
aS'and'
p3125
aS'Salt'
p3126
ag230
ag19
ag23
aS'func_31'
p3127
ag6
aS'variable_38'
p3128
ag10
aS'variable_39'
p3129
ag10
aS'variable_37'
p3130
ag10
ag41
ag10
aS'variable_40'
p3131
ag10
aS'variable_29'
p3132
ag476
aS'variable_30'
p3133
ag19
ag23
aS'func_32'
p3134
ag6
aS'variable_38'
p3135
ag10
aS'variable_41'
p3136
ag10
aS'variable_37'
p3137
ag10
aS'variable_40'
p3138
ag10
aS'variable_42'
p3139
ag10
aS'variable_29'
p3140
ag476
aS'variable_30'
p3141
ag19
ag23
aS'func_33'
p3142
ag6
aS'variable_38'
p3143
ag10
aS'variable_37'
p3144
ag10
ag41
ag10
ag50
ag51
ag10
ag230
aS'Key'
p3145
aS'and'
p3146
aS'Salt'
p3147
ag230
ag19
ag23
aS'func_34'
p3148
ag6
aS'variable_38'
p3149
ag10
aS'variable_43'
p3150
ag10
aS'variable_1'
p3151
ag10
aS'variable_12'
p3152
ag10
aS'variable_14'
p3153
ag10
aS'variable_29'
p3154
ag476
aS'variable_30'
p3155
ag19
ag23
aS'func_35'
p3156
ag6
aS'variable_38'
p3157
ag10
aS'variable_44'
p3158
ag10
aS'variable_1'
p3159
ag10
aS'variable_12'
p3160
ag10
aS'variable_14'
p3161
ag10
aS'variable_29'
p3162
ag476
aS'variable_30'
p3163
ag19
ag23
aS'variable_8'
p3164
aS'->'
p3165
aS'variable_45'
p3166
ag38
aS'atoi'
p3167
ag6
ag6
aS'char'
p3168
ag8
ag19
aS'func_36'
p3169
ag6
aS'variable_1'
p3170
ag10
aS'variable_12'
p3171
ag10
aS'variable_14'
p3172
ag19
ag19
ag23
aS'func_37'
p3173
ag6
aS'variable_38'
p3174
ag10
aS'variable_46'
p3175
ag10
aS'variable_1'
p3176
ag10
aS'variable_12'
p3177
ag10
aS'variable_14'
p3178
ag10
aS'variable_29'
p3179
ag476
aS'variable_30'
p3180
ag19
ag23
aS'func_38'
p3181
ag6
aS'variable_38'
p3182
ag10
aS'variable_1'
p3183
ag10
aS'variable_13'
p3184
ag67
ag51
ag10
aS'variable_14'
p3185
ag10
ag230
ag245
ag246
ag230
ag10
aS'func_39'
p3186
ag6
aS'variable_1'
p3187
ag10
aS'variable_13'
p3188
ag67
ag51
ag10
aS'variable_14'
p3189
ag19
ag19
ag23
aa(lp3190
S'static'
p3191
aS'void'
p3192
aS'func_0'
p3193
ag6
aS'variable_0'
p3194
ag8
aS'variable_1'
p3195
ag10
aS'variable_2'
p3196
ag8
aS'variable_3'
p3197
ag10
aS'variable_4'
p3198
ag8
aS'variable_5'
p3199
ag10
aS'int'
p3200
aS'variable_6'
p3201
ag10
aS'variable_7'
p3202
ag8
aS'variable_8'
p3203
ag19
aS'variable_9'
p3204
ag8
aS'variable_10'
p3205
ag10
ag8
aS'variable_11'
p3206
ag23
aS'gint'
p3207
aS'variable_12'
p3208
ag10
aS'variable_13'
p3209
ag10
aS'variable_14'
p3210
ag10
aS'variable_15'
p3211
ag10
aS'variable_16'
p3212
ag23
aS'variable_17'
p3213
ag8
aS'variable_18'
p3214
ag23
aS'guint8'
p3215
aS'variable_19'
p3216
ag23
aS'gint'
p3217
aS'variable_20'
p3218
ag23
aS'variable_12'
p3219
ag38
ag41
ag23
aS'variable_10'
p3220
ag38
aS'func_1'
p3221
ag6
aS'variable_5'
p3222
ag10
aS'variable_21'
p3223
ag19
ag23
aS'variable_16'
p3224
ag38
aS'func_2'
p3225
ag6
aS'variable_1'
p3226
ag10
aS'variable_12'
p3227
ag10
ag50
ag51
ag10
ag52
ag53
ag52
ag19
ag23
aS'if'
p3228
ag6
aS'variable_16'
p3229
aS'=='
p3230
ag50
ag51
ag19
aS'variable_14'
p3231
ag38
aS'variable_16'
p3232
ag50
aS'variable_12'
p3233
ag23
aS'variable_20'
p3234
ag38
aS'func_3'
p3235
ag6
aS'variable_1'
p3236
ag10
aS'variable_12'
p3237
ag10
aS'variable_14'
p3238
ag19
ag23
aS'variable_12'
p3239
ag38
aS'variable_16'
p3240
ag67
ag51
ag23
aS'variable_12'
p3241
ag38
aS'func_4'
p3242
ag6
aS'variable_1'
p3243
ag10
aS'variable_12'
p3244
ag10
aS'func_5'
p3245
ag6
aS'variable_1'
p3246
ag10
aS'variable_12'
p3247
ag19
ag19
ag23
aS'switch'
p3248
ag6
aS'variable_20'
p3249
ag19
aS'variable_13'
p3250
ag38
aS'func_6'
p3251
ag6
aS'variable_1'
p3252
ag10
aS'variable_12'
p3253
ag10
ag50
ag51
ag10
ag52
ag52
ag19
ag23
aS'if'
p3254
ag6
aS'variable_13'
p3255
aS'=='
p3256
ag50
ag51
ag19
aS'variable_14'
p3257
ag38
aS'variable_13'
p3258
ag50
aS'variable_12'
p3259
ag23
aS'variable_18'
p3260
ag38
aS'func_7'
p3261
ag6
aS'variable_1'
p3262
ag10
aS'variable_12'
p3263
ag10
aS'variable_14'
p3264
ag19
ag23
aS'variable_12'
p3265
ag38
aS'variable_13'
p3266
ag67
ag51
ag23
aS'variable_13'
p3267
ag38
aS'func_8'
p3268
ag6
aS'variable_1'
p3269
ag10
aS'variable_12'
p3270
ag10
ag50
ag51
ag10
ag52
ag98
ag52
ag19
ag23
aS'if'
p3271
ag6
aS'variable_13'
p3272
aS'=='
p3273
ag50
ag51
ag19
aS'variable_19'
p3274
ag38
aS'atoi'
p3275
ag6
ag6
aS'char'
p3276
ag8
ag19
aS'variable_18'
p3277
ag19
ag23
aS'if'
p3278
ag6
aS'variable_19'
p3279
ag111
ag38
aS'variable_22'
p3280
ag19
aS'variable_13'
p3281
ag38
aS'variable_13'
p3282
ag67
ag51
ag23
aS'variable_12'
p3283
ag38
aS'variable_13'
p3284
ag23
aS'while'
p3285
ag6
aS'variable_6'
p3286
ag50
ag51
ag111
ag38
aS'variable_13'
p3287
ag19
aS'if'
p3288
ag6
ag121
aS'isdigit'
p3289
ag6
aS'func_9'
p3290
ag6
aS'variable_1'
p3291
ag10
aS'variable_13'
p3292
ag19
ag19
ag19
aS'variable_13'
p3293
aS'++'
p3294
ag23
aS'if'
p3295
ag6
aS'variable_10'
p3296
ag19
aS'variable_12'
p3297
ag38
aS'func_10'
p3298
ag6
aS'variable_1'
p3299
ag10
aS'variable_12'
p3300
ag10
aS'func_11'
p3301
ag6
aS'variable_1'
p3302
ag10
aS'variable_12'
p3303
ag19
ag19
ag23
aS'variable_13'
p3304
ag38
aS'func_12'
p3305
ag6
aS'variable_1'
p3306
ag10
aS'variable_12'
p3307
ag10
ag50
ag51
ag10
ag52
ag52
ag19
ag23
aS'if'
p3308
ag6
aS'variable_13'
p3309
aS'=='
p3310
ag50
ag51
ag19
aS'variable_14'
p3311
ag38
aS'variable_13'
p3312
ag50
aS'variable_12'
p3313
ag23
aS'variable_23'
p3314
ag38
aS'func_13'
p3315
ag6
aS'variable_10'
p3316
ag10
aS'variable_24'
p3317
ag10
aS'variable_1'
p3318
ag10
aS'variable_12'
p3319
ag10
aS'variable_14'
p3320
ag10
aS'variable_25'
p3321
ag476
aS'variable_26'
p3322
ag19
ag23
aS'variable_27'
p3323
ag38
aS'atoi'
p3324
ag6
ag6
aS'char'
p3325
ag8
ag19
aS'func_14'
p3326
ag6
aS'variable_1'
p3327
ag10
aS'variable_12'
p3328
ag10
aS'variable_14'
p3329
ag19
ag19
ag23
aS'if'
p3330
ag6
aS'variable_27'
p3331
ag111
ag38
aS'variable_22'
p3332
ag19
aS'func_15'
p3333
ag6
aS'variable_23'
p3334
ag10
ag230
ag3060
ag245
ag246
ag3062
ag230
ag10
aS'variable_8'
p3335
aS'->'
p3336
aS'variable_28'
p3337
ag3060
aS'variable_27'
p3338
ag3062
ag19
ag23
aS'variable_18'
p3339
ag38
aS'func_16'
p3340
ag6
aS'variable_1'
p3341
ag10
aS'variable_12'
p3342
ag10
aS'variable_14'
p3343
ag19
ag23
aS'variable_29'
p3344
ag38
aS'func_17'
p3345
ag6
aS'variable_10'
p3346
ag10
aS'variable_30'
p3347
ag10
aS'variable_1'
p3348
ag10
aS'variable_12'
p3349
ag10
aS'variable_14'
p3350
ag10
aS'variable_25'
p3351
ag476
aS'variable_26'
p3352
ag19
ag23
aS'variable_31'
p3353
ag38
aS'func_18'
p3354
ag6
aS'variable_29'
p3355
ag10
aS'variable_32'
p3356
ag19
ag23
aS'func_19'
p3357
ag6
aS'variable_31'
p3358
ag10
aS'variable_1'
p3359
ag10
aS'variable_3'
p3360
ag10
aS'variable_12'
p3361
ag10
aS'variable_14'
p3362
ag10
aS'variable_8'
p3363
aS'->'
p3364
aS'variable_28'
p3365
ag3060
aS'variable_27'
p3366
ag3062
ag19
ag23
aS'func_20'
p3367
ag6
aS'variable_10'
p3368
ag10
aS'variable_33'
p3369
ag10
aS'variable_1'
p3370
ag10
aS'variable_12'
p3371
ag10
aS'variable_14'
p3372
ag10
aS'atoi'
p3373
ag6
ag6
aS'char'
p3374
ag8
ag19
aS'func_21'
p3375
ag6
aS'variable_1'
p3376
ag10
aS'variable_12'
p3377
ag10
aS'variable_14'
p3378
ag19
ag19
ag19
ag23
aS'func_22'
p3379
ag6
aS'variable_10'
p3380
ag10
aS'variable_34'
p3381
ag10
aS'variable_1'
p3382
ag10
aS'variable_12'
p3383
ag10
aS'variable_14'
p3384
ag10
aS'variable_25'
p3385
ag476
aS'variable_26'
p3386
ag19
ag23
aS'if'
p3387
ag6
aS'func_23'
p3388
ag6
aS'variable_1'
p3389
ag10
aS'variable_12'
p3390
ag10
ag230
aS'AES_CM_128_HMAC_SHA1_80'
p3391
ag230
ag10
aS'variable_14'
p3392
ag19
aS'=='
p3393
ag41
ag19
aS'if'
p3394
ag6
aS'func_24'
p3395
ag6
aS'variable_1'
p3396
ag10
aS'variable_12'
p3397
ag10
ag230
aS'AES_CM_128_HMAC_SHA1_32'
p3398
ag230
ag10
aS'variable_14'
p3399
ag19
aS'=='
p3400
ag41
ag19
aS'if'
p3401
ag6
aS'func_25'
p3402
ag6
aS'variable_1'
p3403
ag10
aS'variable_12'
p3404
ag10
ag230
aS'F8_128_HMAC_SHA1_80'
p3405
ag230
ag10
aS'variable_14'
p3406
ag19
aS'=='
p3407
ag41
ag19
aS'variable_35'
p3408
ag38
aS'func_26'
p3409
ag6
aS'variable_1'
p3410
ag10
aS'variable_12'
p3411
ag10
aS'variable_14'
p3412
ag19
ag23
aS'variable_36'
p3413
ag38
aS'func_27'
p3414
ag6
aS'variable_1'
p3415
ag10
aS'variable_35'
p3416
ag19
ag23
aS'func_28'
p3417
ag6
aS'variable_3'
p3418
ag10
aS'variable_36'
p3419
ag10
ag230
aS'Key_Salt_tvb'
p3420
ag230
ag19
ag23
aS'func_29'
p3421
ag6
aS'variable_37'
p3422
ag10
aS'variable_1'
p3423
ag10
aS'variable_12'
p3424
ag10
aS'variable_14'
p3425
ag10
ag230
aS'Key'
p3426
aS'and'
p3427
aS'Salt'
p3428
ag230
ag19
ag23
aS'func_30'
p3429
ag6
aS'variable_37'
p3430
ag10
aS'variable_38'
p3431
ag10
aS'variable_36'
p3432
ag10
ag41
ag10
aS'variable_39'
p3433
ag10
aS'variable_25'
p3434
ag476
aS'variable_26'
p3435
ag19
ag23
aS'func_31'
p3436
ag6
aS'variable_37'
p3437
ag10
aS'variable_40'
p3438
ag10
aS'variable_36'
p3439
ag10
aS'variable_39'
p3440
ag10
aS'variable_41'
p3441
ag10
aS'variable_25'
p3442
ag476
aS'variable_26'
p3443
ag19
ag23
aS'func_32'
p3444
ag6
aS'variable_37'
p3445
ag10
aS'variable_36'
p3446
ag10
ag41
ag10
ag50
ag51
ag10
ag230
aS'Key'
p3447
aS'and'
p3448
aS'Salt'
p3449
ag230
ag19
ag23
aS'func_33'
p3450
ag6
aS'variable_37'
p3451
ag10
aS'variable_42'
p3452
ag10
aS'variable_1'
p3453
ag10
aS'variable_12'
p3454
ag10
aS'variable_14'
p3455
ag10
aS'variable_25'
p3456
ag476
aS'variable_26'
p3457
ag19
ag23
aS'func_34'
p3458
ag6
aS'variable_37'
p3459
ag10
aS'variable_43'
p3460
ag10
aS'variable_1'
p3461
ag10
aS'variable_12'
p3462
ag10
aS'variable_14'
p3463
ag10
aS'variable_25'
p3464
ag476
aS'variable_26'
p3465
ag19
ag23
aS'variable_8'
p3466
aS'->'
p3467
aS'variable_44'
p3468
ag38
aS'atoi'
p3469
ag6
ag6
aS'char'
p3470
ag8
ag19
aS'func_35'
p3471
ag6
aS'variable_1'
p3472
ag10
aS'variable_12'
p3473
ag10
aS'variable_14'
p3474
ag19
ag19
ag23
aS'func_36'
p3475
ag6
aS'variable_37'
p3476
ag10
aS'variable_45'
p3477
ag10
aS'variable_1'
p3478
ag10
aS'variable_12'
p3479
ag10
aS'variable_14'
p3480
ag10
aS'variable_25'
p3481
ag476
aS'variable_26'
p3482
ag19
ag23
aS'func_37'
p3483
ag6
aS'variable_37'
p3484
ag10
aS'variable_1'
p3485
ag10
aS'variable_13'
p3486
ag67
ag51
ag10
aS'variable_14'
p3487
ag10
ag230
ag245
ag246
ag230
ag10
aS'func_38'
p3488
ag6
aS'variable_1'
p3489
ag10
aS'variable_13'
p3490
ag67
ag51
ag10
aS'variable_14'
p3491
ag19
ag19
ag23
aa(lp3492
S'static'
p3493
aS'void'
p3494
aS'func_0'
p3495
ag6
aS'variable_0'
p3496
ag8
aS'variable_1'
p3497
ag10
aS'variable_2'
p3498
ag8
aS'variable_3'
p3499
ag10
aS'variable_4'
p3500
ag8
aS'variable_5'
p3501
ag10
aS'int'
p3502
aS'variable_6'
p3503
ag10
aS'variable_7'
p3504
ag8
aS'variable_8'
p3505
ag19
aS'gint'
p3506
aS'variable_9'
p3507
ag10
aS'variable_10'
p3508
ag10
aS'variable_11'
p3509
ag10
aS'variable_12'
p3510
ag10
aS'variable_13'
p3511
ag23
aS'variable_14'
p3512
ag8
aS'variable_15'
p3513
ag23
aS'guint8'
p3514
aS'variable_16'
p3515
ag23
aS'gint'
p3516
aS'variable_17'
p3517
ag23
aS'variable_9'
p3518
ag38
ag41
ag23
aS'variable_13'
p3519
ag38
aS'func_1'
p3520
ag6
aS'variable_1'
p3521
ag10
aS'variable_9'
p3522
ag10
ag50
ag51
ag10
ag52
ag53
ag52
ag19
ag23
aS'if'
p3523
ag6
aS'variable_13'
p3524
aS'=='
p3525
ag50
ag51
ag19
aS'variable_11'
p3526
ag38
aS'variable_13'
p3527
ag50
aS'variable_9'
p3528
ag23
aS'variable_17'
p3529
ag38
aS'func_2'
p3530
ag6
aS'variable_1'
p3531
ag10
aS'variable_9'
p3532
ag10
aS'variable_11'
p3533
ag19
ag23
aS'variable_9'
p3534
ag38
aS'variable_13'
p3535
ag67
ag51
ag23
aS'variable_9'
p3536
ag38
aS'func_3'
p3537
ag6
aS'variable_1'
p3538
ag10
aS'variable_9'
p3539
ag10
aS'func_4'
p3540
ag6
aS'variable_1'
p3541
ag10
aS'variable_9'
p3542
ag19
ag19
ag23
aS'switch'
p3543
ag6
aS'variable_17'
p3544
ag19
aS'variable_10'
p3545
ag38
aS'func_5'
p3546
ag6
aS'variable_1'
p3547
ag10
aS'variable_9'
p3548
ag10
ag50
ag51
ag10
ag52
ag52
ag19
ag23
aS'if'
p3549
ag6
aS'variable_10'
p3550
aS'=='
p3551
ag50
ag51
ag19
aS'variable_11'
p3552
ag38
aS'variable_10'
p3553
ag50
aS'variable_9'
p3554
ag23
aS'variable_15'
p3555
ag38
aS'func_6'
p3556
ag6
aS'variable_1'
p3557
ag10
aS'variable_9'
p3558
ag10
aS'variable_11'
p3559
ag19
ag23
aS'variable_9'
p3560
ag38
aS'variable_10'
p3561
ag67
ag51
ag23
aS'variable_10'
p3562
ag38
aS'func_7'
p3563
ag6
aS'variable_1'
p3564
ag10
aS'variable_9'
p3565
ag10
ag50
ag51
ag10
ag52
ag98
ag52
ag19
ag23
aS'if'
p3566
ag6
aS'variable_10'
p3567
aS'=='
p3568
ag50
ag51
ag19
aS'variable_16'
p3569
ag38
aS'atoi'
p3570
ag6
ag6
aS'char'
p3571
ag8
ag19
aS'variable_15'
p3572
ag19
ag23
aS'if'
p3573
ag6
aS'variable_16'
p3574
ag111
ag38
aS'variable_18'
p3575
ag19
aS'variable_10'
p3576
ag38
aS'variable_10'
p3577
ag67
ag51
ag23
aS'variable_9'
p3578
ag38
aS'variable_10'
p3579
ag23
aS'while'
p3580
ag6
aS'variable_6'
p3581
ag50
ag51
ag111
ag38
aS'variable_10'
p3582
ag19
aS'if'
p3583
ag6
ag121
aS'isdigit'
p3584
ag6
aS'func_8'
p3585
ag6
aS'variable_1'
p3586
ag10
aS'variable_10'
p3587
ag19
ag19
ag19
aS'variable_10'
p3588
aS'++'
p3589
ag23
aS'variable_11'
p3590
ag38
aS'variable_10'
p3591
ag50
aS'variable_9'
p3592
ag23
aS'func_9'
p3593
ag6
aS'variable_19'
p3594
ag10
aS'variable_20'
p3595
ag10
aS'variable_1'
p3596
ag10
aS'variable_9'
p3597
ag10
aS'variable_11'
p3598
ag10
aS'variable_21'
p3599
ag476
aS'variable_22'
p3600
ag19
ag23
aS'variable_8'
p3601
aS'->'
p3602
aS'variable_23'
p3603
ag3060
aS'variable_16'
p3604
ag3062
ag38
aS'atoi'
p3605
ag6
aS'func_10'
p3606
ag6
aS'variable_1'
p3607
ag10
aS'variable_9'
p3608
ag10
aS'variable_11'
p3609
ag19
ag19
ag23
aS'if'
p3610
ag6
aS'variable_8'
p3611
aS'->'
p3612
aS'variable_24'
p3613
aS'=='
p3614
ag41
ag19
aS'variable_25'
p3615
aS'->'
p3616
aS'variable_26'
p3617
ag38
aS'func_11'
p3618
ag6
aS'variable_8'
p3619
aS'->'
p3620
aS'variable_26'
p3621
ag3060
aS'variable_16'
p3622
ag3062
ag19
ag23
aS'variable_25'
p3623
aS'->'
p3624
aS'variable_23'
p3625
ag38
aS'variable_8'
p3626
aS'->'
p3627
aS'variable_23'
p3628
ag3060
aS'variable_16'
p3629
ag3062
ag23
aS'func_12'
p3630
ag6
aS'variable_8'
p3631
aS'->'
p3632
aS'variable_27'
p3633
ag3060
aS'variable_12'
p3634
ag3062
aS'.'
p3635
aS'variable_28'
p3636
ag10
aS'variable_29'
p3637
ag10
aS'variable_25'
p3638
ag19
ag23
aS'func_13'
p3639
ag6
aS'variable_8'
p3640
aS'->'
p3641
aS'variable_27'
p3642
ag3060
aS'variable_12'
p3643
ag3062
ag3635
aS'variable_28'
p3644
ag10
aS'variable_30'
p3645
ag10
aS'variable_25'
p3646
ag19
ag23
aS'variable_25'
p3647
aS'->'
p3648
aS'variable_26'
p3649
ag38
aS'func_14'
p3650
ag6
aS'variable_8'
p3651
aS'->'
p3652
aS'variable_26'
p3653
ag3060
aS'variable_16'
p3654
ag3062
ag19
ag23
aS'variable_25'
p3655
aS'->'
p3656
aS'variable_23'
p3657
ag38
aS'variable_8'
p3658
aS'->'
p3659
aS'variable_23'
p3660
ag3060
aS'variable_16'
p3661
ag3062
ag23
aS'if'
p3662
ag6
aS'variable_8'
p3663
aS'->'
p3664
aS'variable_24'
p3665
aS'=='
p3666
aS'variable_31'
p3667
ag50
ag51
ag19
aS'func_15'
p3668
ag6
aS'variable_8'
p3669
aS'->'
p3670
aS'variable_27'
p3671
ag3060
aS'variable_8'
p3672
aS'->'
p3673
aS'variable_24'
p3674
ag3062
ag3635
aS'variable_28'
p3675
ag10
aS'variable_29'
p3676
ag10
aS'variable_25'
p3677
ag19
ag23
aS'func_16'
p3678
ag6
aS'variable_8'
p3679
aS'->'
p3680
aS'variable_27'
p3681
ag3060
aS'variable_8'
p3682
aS'->'
p3683
aS'variable_24'
p3684
ag50
ag51
ag3062
ag3635
aS'variable_28'
p3685
ag10
aS'variable_29'
p3686
ag10
aS'variable_25'
p3687
ag19
ag23
aS'variable_32'
p3688
ag38
aS'func_17'
p3689
ag6
aS'variable_19'
p3690
ag10
aS'variable_33'
p3691
ag10
aS'variable_1'
p3692
ag10
aS'variable_9'
p3693
ag10
aS'variable_11'
p3694
ag10
aS'variable_21'
p3695
ag476
aS'variable_22'
p3696
ag19
ag23
aS'variable_34'
p3697
ag38
aS'atoi'
p3698
ag6
ag6
aS'char'
p3699
ag8
ag19
aS'func_18'
p3700
ag6
aS'variable_1'
p3701
ag10
aS'variable_9'
p3702
ag10
aS'variable_11'
p3703
ag19
ag19
ag23
aS'if'
p3704
ag6
aS'variable_34'
p3705
ag111
ag38
aS'variable_18'
p3706
ag19
aS'func_19'
p3707
ag6
aS'variable_32'
p3708
ag10
ag230
ag3060
ag245
ag246
ag3062
ag230
ag10
aS'variable_8'
p3709
aS'->'
p3710
aS'variable_26'
p3711
ag3060
aS'variable_34'
p3712
ag3062
ag19
ag23
aS'variable_15'
p3713
ag38
aS'func_20'
p3714
ag6
aS'variable_1'
p3715
ag10
aS'variable_9'
p3716
ag10
aS'variable_11'
p3717
ag19
ag23
aS'variable_35'
p3718
ag38
aS'func_21'
p3719
ag6
aS'variable_19'
p3720
ag10
aS'variable_36'
p3721
ag10
aS'variable_1'
p3722
ag10
aS'variable_9'
p3723
ag10
aS'variable_11'
p3724
ag10
aS'variable_21'
p3725
ag476
aS'variable_22'
p3726
ag19
ag23
aS'variable_37'
p3727
ag38
aS'func_22'
p3728
ag6
aS'variable_35'
p3729
ag10
aS'variable_38'
p3730
ag19
ag23
aS'func_23'
p3731
ag6
aS'variable_37'
p3732
ag10
aS'variable_1'
p3733
ag10
aS'variable_3'
p3734
ag10
aS'variable_9'
p3735
ag10
aS'variable_11'
p3736
ag10
aS'variable_8'
p3737
aS'->'
p3738
aS'variable_26'
p3739
ag3060
aS'variable_34'
p3740
ag3062
ag19
ag23
aS'func_24'
p3741
ag6
aS'variable_19'
p3742
ag10
aS'variable_39'
p3743
ag10
aS'variable_1'
p3744
ag10
aS'variable_9'
p3745
ag10
aS'variable_11'
p3746
ag10
aS'atoi'
p3747
ag6
ag6
aS'char'
p3748
ag8
ag19
aS'func_25'
p3749
ag6
aS'variable_1'
p3750
ag10
aS'variable_9'
p3751
ag10
aS'variable_11'
p3752
ag19
ag19
ag19
ag23
aS'func_26'
p3753
ag6
aS'variable_19'
p3754
ag10
aS'variable_40'
p3755
ag10
aS'variable_1'
p3756
ag10
aS'variable_9'
p3757
ag10
aS'variable_11'
p3758
ag10
aS'variable_21'
p3759
ag476
aS'variable_22'
p3760
ag19
ag23
aS'if'
p3761
ag6
aS'func_27'
p3762
ag6
aS'variable_1'
p3763
ag10
aS'variable_9'
p3764
ag10
ag230
aS'AES_CM_128_HMAC_SHA1_80'
p3765
ag230
ag10
aS'variable_11'
p3766
ag19
aS'=='
p3767
ag41
ag19
aS'if'
p3768
ag6
aS'variable_8'
p3769
aS'->'
p3770
aS'variable_41'
p3771
aS'=='
p3772
aS'variable_42'
p3773
ag19
aS'variable_8'
p3774
aS'->'
p3775
aS'variable_41'
p3776
ag38
aS'variable_43'
p3777
ag23
aS'variable_8'
p3778
aS'->'
p3779
aS'variable_44'
p3780
ag38
aS'variable_45'
p3781
ag23
aS'variable_8'
p3782
aS'->'
p3783
aS'variable_46'
p3784
ag38
aS'10'
p3785
ag23
aS'if'
p3786
ag6
aS'func_28'
p3787
ag6
aS'variable_1'
p3788
ag10
aS'variable_9'
p3789
ag10
ag230
aS'AES_CM_128_HMAC_SHA1_32'
p3790
ag230
ag10
aS'variable_11'
p3791
ag19
aS'=='
p3792
ag41
ag19
aS'if'
p3793
ag6
aS'func_29'
p3794
ag6
aS'variable_1'
p3795
ag10
aS'variable_9'
p3796
ag10
ag230
aS'F8_128_HMAC_SHA1_80'
p3797
ag230
ag10
aS'variable_11'
p3798
ag19
aS'=='
p3799
ag41
ag19
aS'variable_47'
p3800
ag38
aS'func_30'
p3801
ag6
aS'variable_1'
p3802
ag10
aS'variable_9'
p3803
ag10
aS'variable_11'
p3804
ag19
ag23
aS'variable_48'
p3805
ag38
aS'func_31'
p3806
ag6
aS'variable_1'
p3807
ag10
aS'variable_47'
p3808
ag19
ag23
aS'func_32'
p3809
ag6
aS'variable_3'
p3810
ag10
aS'variable_48'
p3811
ag10
ag230
aS'Key_Salt_tvb'
p3812
ag230
ag19
ag23
aS'func_33'
p3813
ag6
aS'variable_49'
p3814
ag10
aS'variable_1'
p3815
ag10
aS'variable_9'
p3816
ag10
aS'variable_11'
p3817
ag10
ag230
aS'Key'
p3818
aS'and'
p3819
aS'Salt'
p3820
ag230
ag19
ag23
aS'func_34'
p3821
ag6
aS'variable_49'
p3822
ag10
aS'variable_50'
p3823
ag10
aS'variable_48'
p3824
ag10
ag41
ag10
aS'variable_51'
p3825
ag10
aS'variable_21'
p3826
ag476
aS'variable_22'
p3827
ag19
ag23
aS'func_35'
p3828
ag6
aS'variable_49'
p3829
ag10
aS'variable_52'
p3830
ag10
aS'variable_48'
p3831
ag10
aS'variable_51'
p3832
ag10
aS'variable_53'
p3833
ag10
aS'variable_21'
p3834
ag476
aS'variable_22'
p3835
ag19
ag23
aS'func_36'
p3836
ag6
aS'variable_49'
p3837
ag10
aS'variable_48'
p3838
ag10
ag41
ag10
ag50
ag51
ag10
ag230
aS'Key'
p3839
aS'and'
p3840
aS'Salt'
p3841
ag230
ag19
ag23
aS'func_37'
p3842
ag6
aS'variable_49'
p3843
ag10
aS'variable_54'
p3844
ag10
aS'variable_1'
p3845
ag10
aS'variable_9'
p3846
ag10
aS'variable_11'
p3847
ag10
aS'variable_21'
p3848
ag476
aS'variable_22'
p3849
ag19
ag23
aS'func_38'
p3850
ag6
aS'variable_49'
p3851
ag10
aS'variable_55'
p3852
ag10
aS'variable_1'
p3853
ag10
aS'variable_9'
p3854
ag10
aS'variable_11'
p3855
ag10
aS'variable_21'
p3856
ag476
aS'variable_22'
p3857
ag19
ag23
aS'variable_8'
p3858
aS'->'
p3859
aS'variable_56'
p3860
ag38
aS'atoi'
p3861
ag6
ag6
aS'char'
p3862
ag8
ag19
aS'func_39'
p3863
ag6
aS'variable_1'
p3864
ag10
aS'variable_9'
p3865
ag10
aS'variable_11'
p3866
ag19
ag19
ag23
aS'func_40'
p3867
ag6
aS'variable_49'
p3868
ag10
aS'variable_57'
p3869
ag10
aS'variable_1'
p3870
ag10
aS'variable_9'
p3871
ag10
aS'variable_11'
p3872
ag10
aS'variable_21'
p3873
ag476
aS'variable_22'
p3874
ag19
ag23
aS'func_41'
p3875
ag6
aS'variable_49'
p3876
ag10
aS'variable_1'
p3877
ag10
aS'variable_10'
p3878
ag67
ag51
ag10
aS'variable_11'
p3879
ag10
ag230
ag245
ag246
ag230
ag10
aS'func_42'
p3880
ag6
aS'variable_1'
p3881
ag10
aS'variable_10'
p3882
ag67
ag51
ag10
aS'variable_11'
p3883
ag19
ag19
ag23
aa(lp3884
S'static'
p3885
aS'void'
p3886
aS'func_0'
p3887
ag6
aS'variable_0'
p3888
ag8
aS'variable_1'
p3889
ag10
aS'variable_2'
p3890
ag8
aS'variable_3'
p3891
ag10
aS'variable_4'
p3892
ag8
aS'variable_5'
p3893
ag10
aS'int'
p3894
aS'variable_6'
p3895
ag10
aS'variable_7'
p3896
ag8
aS'variable_8'
p3897
ag19
aS'gint'
p3898
aS'variable_9'
p3899
ag10
aS'variable_10'
p3900
ag10
aS'variable_11'
p3901
ag10
aS'variable_12'
p3902
ag10
aS'variable_13'
p3903
ag23
aS'gint'
p3904
aS'variable_14'
p3905
ag23
aS'variable_9'
p3906
ag38
ag41
ag23
aS'variable_13'
p3907
ag38
aS'func_1'
p3908
ag6
aS'variable_1'
p3909
ag10
aS'variable_9'
p3910
ag10
ag50
ag51
ag10
ag52
ag53
ag52
ag19
ag23
aS'if'
p3911
ag6
aS'variable_13'
p3912
aS'=='
p3913
ag50
ag51
ag19
aS'variable_11'
p3914
ag38
aS'variable_13'
p3915
ag50
aS'variable_9'
p3916
ag23
aS'variable_14'
p3917
ag38
aS'func_2'
p3918
ag6
aS'variable_1'
p3919
ag10
aS'variable_9'
p3920
ag10
aS'variable_11'
p3921
ag19
ag23
aS'variable_9'
p3922
ag38
aS'variable_13'
p3923
ag67
ag51
ag23
aS'variable_9'
p3924
ag38
aS'func_3'
p3925
ag6
aS'variable_1'
p3926
ag10
aS'variable_9'
p3927
ag10
aS'func_4'
p3928
ag6
aS'variable_1'
p3929
ag10
aS'variable_9'
p3930
ag19
ag19
ag23
aS'switch'
p3931
ag6
aS'variable_14'
p3932
ag19
aS'variable_10'
p3933
ag38
aS'func_5'
p3934
ag6
aS'variable_1'
p3935
ag10
aS'variable_9'
p3936
ag10
ag50
ag51
ag10
ag52
ag52
ag19
ag23
aS'if'
p3937
ag6
aS'variable_10'
p3938
aS'=='
p3939
ag50
ag51
ag19
aS'variable_9'
p3940
ag38
aS'variable_10'
p3941
ag67
ag51
ag23
aS'variable_10'
p3942
ag38
aS'func_6'
p3943
ag6
aS'variable_1'
p3944
ag10
aS'variable_9'
p3945
ag10
ag50
ag51
ag10
ag52
ag98
ag52
ag19
ag23
aS'if'
p3946
ag6
aS'variable_10'
p3947
aS'=='
p3948
ag50
ag51
ag19
aS'variable_11'
p3949
ag38
aS'variable_10'
p3950
ag50
aS'variable_9'
p3951
ag23
aS'func_7'
p3952
ag6
aS'variable_15'
p3953
ag10
aS'variable_16'
p3954
ag10
aS'variable_1'
p3955
ag10
aS'variable_9'
p3956
ag10
aS'variable_11'
p3957
ag10
aS'variable_17'
p3958
ag476
aS'variable_18'
p3959
ag19
ag23
aS'variable_8'
p3960
aS'->'
p3961
aS'variable_19'
p3962
ag3060
aS'variable_20'
p3963
ag3062
ag38
ag6
aS'char'
p3964
ag8
ag19
aS'func_8'
p3965
ag6
aS'variable_1'
p3966
ag10
aS'variable_9'
p3967
ag10
aS'variable_11'
p3968
ag19
ag23
aS'func_9'
p3969
ag6
aS'variable_15'
p3970
ag10
aS'variable_21'
p3971
ag10
aS'variable_1'
p3972
ag10
aS'variable_9'
p3973
ag10
aS'variable_11'
p3974
ag10
aS'variable_17'
p3975
ag476
aS'variable_18'
p3976
ag19
ag23
aS'variable_8'
p3977
aS'->'
p3978
aS'variable_22'
p3979
ag3060
aS'variable_20'
p3980
ag3062
ag38
aS'atoi'
p3981
ag6
aS'func_10'
p3982
ag6
aS'variable_1'
p3983
ag10
aS'variable_9'
p3984
ag10
aS'variable_11'
p3985
ag19
ag19
ag23
aS'if'
p3986
ag6
aS'variable_8'
p3987
aS'->'
p3988
aS'variable_23'
p3989
aS'=='
p3990
ag41
ag19
aS'variable_24'
p3991
aS'->'
p3992
aS'variable_19'
p3993
ag38
aS'func_11'
p3994
ag6
aS'variable_8'
p3995
aS'->'
p3996
aS'variable_19'
p3997
ag3060
aS'variable_20'
p3998
ag3062
ag19
ag23
aS'variable_24'
p3999
aS'->'
p4000
aS'variable_22'
p4001
ag38
aS'variable_8'
p4002
aS'->'
p4003
aS'variable_22'
p4004
ag3060
aS'variable_20'
p4005
ag3062
ag23
aS'func_12'
p4006
ag6
aS'variable_8'
p4007
aS'->'
p4008
aS'variable_25'
p4009
ag3060
aS'variable_12'
p4010
ag3062
ag3635
aS'variable_26'
p4011
ag10
aS'variable_27'
p4012
ag10
aS'variable_24'
p4013
ag19
ag23
aS'func_13'
p4014
ag6
aS'variable_8'
p4015
aS'->'
p4016
aS'variable_25'
p4017
ag3060
aS'variable_12'
p4018
ag3062
ag3635
aS'variable_26'
p4019
ag10
aS'variable_28'
p4020
ag10
aS'variable_24'
p4021
ag19
ag23
aS'variable_24'
p4022
aS'->'
p4023
aS'variable_19'
p4024
ag38
aS'func_14'
p4025
ag6
aS'variable_8'
p4026
aS'->'
p4027
aS'variable_19'
p4028
ag3060
aS'variable_20'
p4029
ag3062
ag19
ag23
aS'variable_24'
p4030
aS'->'
p4031
aS'variable_22'
p4032
ag38
aS'variable_8'
p4033
aS'->'
p4034
aS'variable_22'
p4035
ag3060
aS'variable_20'
p4036
ag3062
ag23
aS'if'
p4037
ag6
aS'variable_8'
p4038
aS'->'
p4039
aS'variable_23'
p4040
aS'=='
p4041
aS'variable_29'
p4042
ag50
ag51
ag19
aS'func_15'
p4043
ag6
aS'variable_8'
p4044
aS'->'
p4045
aS'variable_25'
p4046
ag3060
aS'variable_8'
p4047
aS'->'
p4048
aS'variable_23'
p4049
ag3062
ag3635
aS'variable_26'
p4050
ag10
aS'variable_27'
p4051
ag10
aS'variable_24'
p4052
ag19
ag23
aS'func_16'
p4053
ag6
aS'variable_8'
p4054
aS'->'
p4055
aS'variable_25'
p4056
ag3060
aS'variable_8'
p4057
aS'->'
p4058
aS'variable_23'
p4059
ag50
ag51
ag3062
ag3635
aS'variable_26'
p4060
ag10
aS'variable_27'
p4061
ag10
aS'variable_24'
p4062
ag19
ag23
aS'variable_30'
p4063
ag38
aS'func_17'
p4064
ag6
aS'variable_15'
p4065
ag10
aS'variable_31'
p4066
ag10
aS'variable_1'
p4067
ag10
aS'variable_9'
p4068
ag10
aS'variable_11'
p4069
ag10
aS'variable_17'
p4070
ag476
aS'variable_18'
p4071
ag19
ag23
aS'variable_32'
p4072
ag38
aS'atoi'
p4073
ag6
ag6
aS'char'
p4074
ag8
ag19
aS'func_18'
p4075
ag6
aS'variable_1'
p4076
ag10
aS'variable_9'
p4077
ag10
aS'variable_11'
p4078
ag19
ag19
ag23
aS'if'
p4079
ag6
aS'variable_32'
p4080
ag111
ag38
aS'variable_33'
p4081
ag19
aS'func_19'
p4082
ag6
aS'variable_30'
p4083
ag10
ag230
ag3060
ag245
ag246
ag3062
ag230
ag10
aS'variable_8'
p4084
aS'->'
p4085
aS'variable_19'
p4086
ag3060
aS'variable_32'
p4087
ag3062
ag19
ag23
aS'variable_34'
p4088
ag38
aS'func_20'
p4089
ag6
aS'variable_1'
p4090
ag10
aS'variable_9'
p4091
ag10
aS'variable_11'
p4092
ag19
ag23
aS'variable_35'
p4093
ag38
aS'func_21'
p4094
ag6
aS'variable_15'
p4095
ag10
aS'variable_36'
p4096
ag10
aS'variable_1'
p4097
ag10
aS'variable_9'
p4098
ag10
aS'variable_11'
p4099
ag10
aS'variable_17'
p4100
ag476
aS'variable_18'
p4101
ag19
ag23
aS'variable_37'
p4102
ag38
aS'func_22'
p4103
ag6
aS'variable_35'
p4104
ag10
aS'variable_38'
p4105
ag19
ag23
aS'func_23'
p4106
ag6
aS'variable_37'
p4107
ag10
aS'variable_1'
p4108
ag10
aS'variable_3'
p4109
ag10
aS'variable_9'
p4110
ag10
aS'variable_11'
p4111
ag10
aS'variable_8'
p4112
aS'->'
p4113
aS'variable_19'
p4114
ag3060
aS'variable_32'
p4115
ag3062
ag19
ag23
aS'func_24'
p4116
ag6
aS'variable_15'
p4117
ag10
aS'variable_39'
p4118
ag10
aS'variable_1'
p4119
ag10
aS'variable_9'
p4120
ag10
aS'variable_11'
p4121
ag10
aS'atoi'
p4122
ag6
ag6
aS'char'
p4123
ag8
ag19
aS'func_25'
p4124
ag6
aS'variable_1'
p4125
ag10
aS'variable_9'
p4126
ag10
aS'variable_11'
p4127
ag19
ag19
ag19
ag23
aS'func_26'
p4128
ag6
aS'variable_15'
p4129
ag10
aS'variable_40'
p4130
ag10
aS'variable_1'
p4131
ag10
aS'variable_9'
p4132
ag10
aS'variable_11'
p4133
ag10
aS'variable_17'
p4134
ag476
aS'variable_18'
p4135
ag19
ag23
aS'if'
p4136
ag6
aS'func_27'
p4137
ag6
aS'variable_1'
p4138
ag10
aS'variable_9'
p4139
ag10
ag230
aS'AES_CM_128_HMAC_SHA1_80'
p4140
ag230
ag10
aS'variable_11'
p4141
ag19
aS'=='
p4142
ag41
ag19
aS'if'
p4143
ag6
aS'variable_8'
p4144
aS'->'
p4145
aS'variable_41'
p4146
aS'=='
p4147
aS'variable_42'
p4148
ag19
aS'variable_8'
p4149
aS'->'
p4150
aS'variable_41'
p4151
ag38
aS'variable_43'
p4152
ag23
aS'variable_8'
p4153
aS'->'
p4154
aS'variable_44'
p4155
ag38
aS'variable_45'
p4156
ag23
aS'variable_8'
p4157
aS'->'
p4158
aS'variable_46'
p4159
ag38
aS'10'
p4160
ag23
aS'if'
p4161
ag6
aS'func_28'
p4162
ag6
aS'variable_1'
p4163
ag10
aS'variable_9'
p4164
ag10
ag230
aS'AES_CM_128_HMAC_SHA1_32'
p4165
ag230
ag10
aS'variable_11'
p4166
ag19
aS'=='
p4167
ag41
ag19
aS'if'
p4168
ag6
aS'func_29'
p4169
ag6
aS'variable_1'
p4170
ag10
aS'variable_9'
p4171
ag10
ag230
aS'F8_128_HMAC_SHA1_80'
p4172
ag230
ag10
aS'variable_11'
p4173
ag19
aS'=='
p4174
ag41
ag19
aS'variable_47'
p4175
ag38
aS'func_30'
p4176
ag6
aS'variable_1'
p4177
ag10
aS'variable_9'
p4178
ag10
aS'variable_11'
p4179
ag19
ag23
aS'variable_48'
p4180
ag38
aS'func_31'
p4181
ag6
aS'variable_1'
p4182
ag10
aS'variable_47'
p4183
ag19
ag23
aS'func_32'
p4184
ag6
aS'variable_3'
p4185
ag10
aS'variable_48'
p4186
ag10
ag230
aS'Key_Salt_tvb'
p4187
ag230
ag19
ag23
aS'func_33'
p4188
ag6
aS'variable_49'
p4189
ag10
aS'variable_1'
p4190
ag10
aS'variable_9'
p4191
ag10
aS'variable_11'
p4192
ag10
ag230
aS'Key'
p4193
aS'and'
p4194
aS'Salt'
p4195
ag230
ag19
ag23
aS'func_34'
p4196
ag6
aS'variable_49'
p4197
ag10
aS'variable_50'
p4198
ag10
aS'variable_48'
p4199
ag10
ag41
ag10
aS'variable_51'
p4200
ag10
aS'variable_17'
p4201
ag476
aS'variable_18'
p4202
ag19
ag23
aS'func_35'
p4203
ag6
aS'variable_49'
p4204
ag10
aS'variable_52'
p4205
ag10
aS'variable_48'
p4206
ag10
aS'variable_51'
p4207
ag10
aS'variable_53'
p4208
ag10
aS'variable_17'
p4209
ag476
aS'variable_18'
p4210
ag19
ag23
aS'func_36'
p4211
ag6
aS'variable_49'
p4212
ag10
aS'variable_48'
p4213
ag10
ag41
ag10
ag50
ag51
ag10
ag230
aS'Key'
p4214
aS'and'
p4215
aS'Salt'
p4216
ag230
ag19
ag23
aS'func_37'
p4217
ag6
aS'variable_49'
p4218
ag10
aS'variable_54'
p4219
ag10
aS'variable_1'
p4220
ag10
aS'variable_9'
p4221
ag10
aS'variable_11'
p4222
ag10
aS'variable_17'
p4223
ag476
aS'variable_18'
p4224
ag19
ag23
aS'func_38'
p4225
ag6
aS'variable_49'
p4226
ag10
aS'variable_55'
p4227
ag10
aS'variable_1'
p4228
ag10
aS'variable_9'
p4229
ag10
aS'variable_11'
p4230
ag10
aS'variable_17'
p4231
ag476
aS'variable_18'
p4232
ag19
ag23
aS'variable_8'
p4233
aS'->'
p4234
aS'variable_56'
p4235
ag38
aS'atoi'
p4236
ag6
ag6
aS'char'
p4237
ag8
ag19
aS'func_39'
p4238
ag6
aS'variable_1'
p4239
ag10
aS'variable_9'
p4240
ag10
aS'variable_11'
p4241
ag19
ag19
ag23
aS'func_40'
p4242
ag6
aS'variable_49'
p4243
ag10
aS'variable_57'
p4244
ag10
aS'variable_1'
p4245
ag10
aS'variable_9'
p4246
ag10
aS'variable_11'
p4247
ag10
aS'variable_17'
p4248
ag476
aS'variable_18'
p4249
ag19
ag23
aS'func_41'
p4250
ag6
aS'variable_49'
p4251
ag10
aS'variable_1'
p4252
ag10
aS'variable_10'
p4253
ag67
ag51
ag10
aS'variable_11'
p4254
ag10
ag230
ag245
ag246
ag230
ag10
aS'func_42'
p4255
ag6
aS'variable_1'
p4256
ag10
aS'variable_10'
p4257
ag67
ag51
ag10
aS'variable_11'
p4258
ag19
ag19
ag23
aa(lp4259
S'static'
p4260
aS'void'
p4261
aS'func_0'
p4262
ag6
aS'variable_0'
p4263
ag8
aS'variable_1'
p4264
ag10
aS'variable_2'
p4265
ag8
aS'variable_3'
p4266
ag10
aS'variable_4'
p4267
ag8
aS'variable_5'
p4268
ag10
aS'int'
p4269
aS'variable_6'
p4270
ag10
aS'variable_7'
p4271
ag8
aS'variable_8'
p4272
ag19
aS'gint'
p4273
aS'variable_9'
p4274
ag10
aS'variable_10'
p4275
ag10
aS'variable_11'
p4276
ag10
aS'variable_12'
p4277
ag10
aS'variable_13'
p4278
ag23
aS'gint'
p4279
aS'variable_14'
p4280
ag23
aS'variable_9'
p4281
ag38
ag41
ag23
aS'variable_13'
p4282
ag38
aS'func_1'
p4283
ag6
aS'variable_1'
p4284
ag10
aS'variable_9'
p4285
ag10
ag50
ag51
ag10
ag52
ag53
ag52
ag19
ag23
aS'if'
p4286
ag6
aS'variable_13'
p4287
aS'=='
p4288
ag50
ag51
ag19
aS'variable_11'
p4289
ag38
aS'variable_13'
p4290
ag50
aS'variable_9'
p4291
ag23
aS'variable_14'
p4292
ag38
aS'func_2'
p4293
ag6
aS'variable_1'
p4294
ag10
aS'variable_9'
p4295
ag10
aS'variable_11'
p4296
ag19
ag23
aS'variable_9'
p4297
ag38
aS'variable_13'
p4298
ag67
ag51
ag23
aS'variable_9'
p4299
ag38
aS'func_3'
p4300
ag6
aS'variable_1'
p4301
ag10
aS'variable_9'
p4302
ag10
aS'func_4'
p4303
ag6
aS'variable_1'
p4304
ag10
aS'variable_9'
p4305
ag19
ag19
ag23
aS'switch'
p4306
ag6
aS'variable_14'
p4307
ag19
aS'variable_10'
p4308
ag38
aS'func_5'
p4309
ag6
aS'variable_1'
p4310
ag10
aS'variable_9'
p4311
ag10
ag50
ag51
ag10
ag52
ag52
ag19
ag23
aS'if'
p4312
ag6
aS'variable_10'
p4313
aS'=='
p4314
ag50
ag51
ag19
aS'variable_11'
p4315
ag38
aS'variable_10'
p4316
ag50
aS'variable_9'
p4317
ag23
aS'func_6'
p4318
ag6
aS'variable_15'
p4319
ag10
aS'variable_16'
p4320
ag10
aS'variable_1'
p4321
ag10
aS'variable_9'
p4322
ag10
aS'variable_11'
p4323
ag10
aS'variable_17'
p4324
ag476
aS'variable_18'
p4325
ag19
ag23
aS'variable_19'
p4326
ag38
aS'func_7'
p4327
ag6
aS'variable_1'
p4328
ag10
aS'variable_9'
p4329
ag10
aS'variable_11'
p4330
ag19
ag23
aS'func_8'
p4331
ag6
aS'variable_15'
p4332
ag10
aS'variable_20'
p4333
ag10
aS'variable_1'
p4334
ag10
aS'variable_9'
p4335
ag10
aS'variable_11'
p4336
ag10
aS'variable_17'
p4337
ag476
aS'variable_18'
p4338
ag19
ag23
aS'variable_21'
p4339
ag38
aS'atoi'
p4340
ag6
ag6
aS'char'
p4341
ag8
ag19
aS'variable_19'
p4342
ag19
ag23
aS'if'
p4343
ag6
aS'variable_21'
p4344
ag111
ag38
aS'variable_22'
p4345
ag19
ag8
aS'variable_23'
p4346
ag38
aS'atol'
p4347
ag6
ag6
aS'char'
p4348
ag8
ag19
aS'variable_19'
p4349
ag19
ag23
aS'variable_8'
p4350
aS'->'
p4351
aS'variable_24'
p4352
ag3060
aS'variable_21'
p4353
ag3062
ag38
ag6
aS'char'
p4354
ag8
ag19
aS'func_9'
p4355
ag6
aS'variable_1'
p4356
ag10
aS'variable_9'
p4357
ag10
aS'variable_11'
p4358
ag19
ag23
aS'func_10'
p4359
ag6
aS'variable_15'
p4360
ag10
aS'variable_25'
p4361
ag10
aS'variable_1'
p4362
ag10
aS'variable_9'
p4363
ag10
aS'variable_11'
p4364
ag10
aS'variable_17'
p4365
ag476
aS'variable_18'
p4366
ag19
ag23
aS'variable_8'
p4367
aS'->'
p4368
aS'variable_26'
p4369
ag3060
aS'variable_21'
p4370
ag3062
ag38
aS'atoi'
p4371
ag6
aS'func_11'
p4372
ag6
aS'variable_1'
p4373
ag10
aS'variable_9'
p4374
ag10
aS'variable_11'
p4375
ag19
ag19
ag23
aS'if'
p4376
ag6
aS'variable_8'
p4377
aS'->'
p4378
aS'variable_27'
p4379
aS'=='
p4380
ag41
ag19
aS'variable_28'
p4381
aS'->'
p4382
aS'variable_24'
p4383
ag38
aS'func_12'
p4384
ag6
aS'variable_8'
p4385
aS'->'
p4386
aS'variable_24'
p4387
ag3060
aS'variable_21'
p4388
ag3062
ag19
ag23
aS'variable_28'
p4389
aS'->'
p4390
aS'variable_26'
p4391
ag38
aS'variable_8'
p4392
aS'->'
p4393
aS'variable_26'
p4394
ag3060
aS'variable_21'
p4395
ag3062
ag23
aS'func_13'
p4396
ag6
aS'variable_8'
p4397
aS'->'
p4398
aS'variable_29'
p4399
ag3060
aS'variable_12'
p4400
ag3062
ag3635
aS'variable_30'
p4401
ag10
aS'variable_23'
p4402
ag10
aS'variable_28'
p4403
ag19
ag23
ag8
aS'variable_31'
p4404
ag38
aS'atol'
p4405
ag6
ag6
aS'char'
p4406
ag8
ag19
aS'variable_19'
p4407
ag19
ag23
aS'func_14'
p4408
ag6
aS'variable_8'
p4409
aS'->'
p4410
aS'variable_29'
p4411
ag3060
aS'variable_12'
p4412
ag3062
ag3635
aS'variable_30'
p4413
ag10
aS'variable_31'
p4414
ag10
aS'variable_28'
p4415
ag19
ag23
aS'variable_28'
p4416
aS'->'
p4417
aS'variable_24'
p4418
ag38
aS'func_15'
p4419
ag6
aS'variable_8'
p4420
aS'->'
p4421
aS'variable_24'
p4422
ag3060
aS'variable_21'
p4423
ag3062
ag19
ag23
aS'variable_28'
p4424
aS'->'
p4425
aS'variable_26'
p4426
ag38
aS'variable_8'
p4427
aS'->'
p4428
aS'variable_26'
p4429
ag3060
aS'variable_21'
p4430
ag3062
ag23
aS'if'
p4431
ag6
aS'variable_8'
p4432
aS'->'
p4433
aS'variable_27'
p4434
aS'=='
p4435
aS'variable_32'
p4436
ag50
ag51
ag19
aS'func_16'
p4437
ag6
aS'variable_8'
p4438
aS'->'
p4439
aS'variable_29'
p4440
ag3060
aS'variable_8'
p4441
aS'->'
p4442
aS'variable_27'
p4443
ag3062
ag3635
aS'variable_30'
p4444
ag10
aS'variable_23'
p4445
ag10
aS'variable_28'
p4446
ag19
ag23
aS'func_17'
p4447
ag6
aS'variable_8'
p4448
aS'->'
p4449
aS'variable_29'
p4450
ag3060
aS'variable_8'
p4451
aS'->'
p4452
aS'variable_27'
p4453
ag50
ag51
ag3062
ag3635
aS'variable_30'
p4454
ag10
aS'variable_23'
p4455
ag10
aS'variable_28'
p4456
ag19
ag23
aS'variable_33'
p4457
ag38
aS'func_18'
p4458
ag6
aS'variable_15'
p4459
ag10
aS'variable_16'
p4460
ag10
aS'variable_1'
p4461
ag10
aS'variable_9'
p4462
ag10
aS'variable_11'
p4463
ag10
aS'variable_17'
p4464
ag476
aS'variable_18'
p4465
ag19
ag23
aS'variable_34'
p4466
ag38
aS'atoi'
p4467
ag6
ag6
aS'char'
p4468
ag8
ag19
aS'func_19'
p4469
ag6
aS'variable_1'
p4470
ag10
aS'variable_9'
p4471
ag10
aS'variable_11'
p4472
ag19
ag19
ag23
aS'if'
p4473
ag6
aS'variable_34'
p4474
ag111
ag38
aS'variable_22'
p4475
ag19
aS'func_20'
p4476
ag6
aS'variable_33'
p4477
ag10
ag230
ag3060
ag245
ag246
ag3062
ag230
ag10
aS'variable_8'
p4478
aS'->'
p4479
aS'variable_24'
p4480
ag3060
aS'variable_34'
p4481
ag3062
ag19
ag23
aS'variable_19'
p4482
ag38
aS'func_21'
p4483
ag6
aS'variable_1'
p4484
ag10
aS'variable_9'
p4485
ag10
aS'variable_11'
p4486
ag19
ag23
aS'variable_35'
p4487
ag38
aS'func_22'
p4488
ag6
aS'variable_15'
p4489
ag10
aS'variable_36'
p4490
ag10
aS'variable_1'
p4491
ag10
aS'variable_9'
p4492
ag10
aS'variable_11'
p4493
ag10
aS'variable_17'
p4494
ag476
aS'variable_18'
p4495
ag19
ag23
aS'variable_37'
p4496
ag38
aS'func_23'
p4497
ag6
aS'variable_35'
p4498
ag10
aS'variable_38'
p4499
ag19
ag23
aS'func_24'
p4500
ag6
aS'variable_37'
p4501
ag10
aS'variable_1'
p4502
ag10
aS'variable_3'
p4503
ag10
aS'variable_9'
p4504
ag10
aS'variable_11'
p4505
ag10
aS'variable_8'
p4506
aS'->'
p4507
aS'variable_24'
p4508
ag3060
aS'variable_34'
p4509
ag3062
ag19
ag23
aS'func_25'
p4510
ag6
aS'variable_15'
p4511
ag10
aS'variable_39'
p4512
ag10
aS'variable_1'
p4513
ag10
aS'variable_9'
p4514
ag10
aS'variable_11'
p4515
ag10
aS'atoi'
p4516
ag6
ag6
aS'char'
p4517
ag8
ag19
aS'func_26'
p4518
ag6
aS'variable_1'
p4519
ag10
aS'variable_9'
p4520
ag10
aS'variable_11'
p4521
ag19
ag19
ag19
ag23
aS'func_27'
p4522
ag6
aS'variable_15'
p4523
ag10
aS'variable_40'
p4524
ag10
aS'variable_1'
p4525
ag10
aS'variable_9'
p4526
ag10
aS'variable_11'
p4527
ag10
aS'variable_17'
p4528
ag476
aS'variable_18'
p4529
ag19
ag23
aS'if'
p4530
ag6
aS'func_28'
p4531
ag6
aS'variable_1'
p4532
ag10
aS'variable_9'
p4533
ag10
ag230
aS'AES_CM_128_HMAC_SHA1_80'
p4534
ag230
ag10
aS'variable_11'
p4535
ag19
aS'=='
p4536
ag41
ag19
aS'if'
p4537
ag6
aS'variable_8'
p4538
aS'->'
p4539
aS'variable_41'
p4540
aS'=='
p4541
aS'variable_42'
p4542
ag19
aS'variable_8'
p4543
aS'->'
p4544
aS'variable_41'
p4545
ag38
aS'variable_43'
p4546
ag23
aS'variable_8'
p4547
aS'->'
p4548
aS'variable_44'
p4549
ag38
aS'variable_45'
p4550
ag23
aS'variable_8'
p4551
aS'->'
p4552
aS'variable_46'
p4553
ag38
aS'10'
p4554
ag23
aS'if'
p4555
ag6
aS'func_29'
p4556
ag6
aS'variable_1'
p4557
ag10
aS'variable_9'
p4558
ag10
ag230
aS'AES_CM_128_HMAC_SHA1_32'
p4559
ag230
ag10
aS'variable_11'
p4560
ag19
aS'=='
p4561
ag41
ag19
aS'if'
p4562
ag6
aS'func_30'
p4563
ag6
aS'variable_1'
p4564
ag10
aS'variable_9'
p4565
ag10
ag230
aS'F8_128_HMAC_SHA1_80'
p4566
ag230
ag10
aS'variable_11'
p4567
ag19
aS'=='
p4568
ag41
ag19
aS'variable_47'
p4569
ag38
aS'func_31'
p4570
ag6
aS'variable_1'
p4571
ag10
aS'variable_9'
p4572
ag10
aS'variable_11'
p4573
ag19
ag23
aS'variable_48'
p4574
ag38
aS'func_32'
p4575
ag6
aS'variable_1'
p4576
ag10
aS'variable_47'
p4577
ag19
ag23
aS'func_33'
p4578
ag6
aS'variable_3'
p4579
ag10
aS'variable_48'
p4580
ag10
ag230
aS'Key_Salt_tvb'
p4581
ag230
ag19
ag23
aS'func_34'
p4582
ag6
aS'variable_49'
p4583
ag10
aS'variable_1'
p4584
ag10
aS'variable_9'
p4585
ag10
aS'variable_11'
p4586
ag10
ag230
aS'Key'
p4587
aS'and'
p4588
aS'Salt'
p4589
ag230
ag19
ag23
aS'func_35'
p4590
ag6
aS'variable_49'
p4591
ag10
aS'variable_50'
p4592
ag10
aS'variable_48'
p4593
ag10
ag41
ag10
aS'variable_51'
p4594
ag10
aS'variable_17'
p4595
ag476
aS'variable_18'
p4596
ag19
ag23
aS'func_36'
p4597
ag6
aS'variable_49'
p4598
ag10
aS'variable_52'
p4599
ag10
aS'variable_48'
p4600
ag10
aS'variable_51'
p4601
ag10
aS'variable_53'
p4602
ag10
aS'variable_17'
p4603
ag476
aS'variable_18'
p4604
ag19
ag23
aS'func_37'
p4605
ag6
aS'variable_49'
p4606
ag10
aS'variable_48'
p4607
ag10
ag41
ag10
ag50
ag51
ag10
ag230
aS'Key'
p4608
aS'and'
p4609
aS'Salt'
p4610
ag230
ag19
ag23
aS'func_38'
p4611
ag6
aS'variable_49'
p4612
ag10
aS'variable_54'
p4613
ag10
aS'variable_1'
p4614
ag10
aS'variable_9'
p4615
ag10
aS'variable_11'
p4616
ag10
aS'variable_17'
p4617
ag476
aS'variable_18'
p4618
ag19
ag23
aS'func_39'
p4619
ag6
aS'variable_49'
p4620
ag10
aS'variable_55'
p4621
ag10
aS'variable_1'
p4622
ag10
aS'variable_9'
p4623
ag10
aS'variable_11'
p4624
ag10
aS'variable_17'
p4625
ag476
aS'variable_18'
p4626
ag19
ag23
aS'variable_8'
p4627
aS'->'
p4628
aS'variable_56'
p4629
ag38
aS'atoi'
p4630
ag6
ag6
aS'char'
p4631
ag8
ag19
aS'func_40'
p4632
ag6
aS'variable_1'
p4633
ag10
aS'variable_9'
p4634
ag10
aS'variable_11'
p4635
ag19
ag19
ag23
aS'func_41'
p4636
ag6
aS'variable_49'
p4637
ag10
aS'variable_57'
p4638
ag10
aS'variable_1'
p4639
ag10
aS'variable_9'
p4640
ag10
aS'variable_11'
p4641
ag10
aS'variable_17'
p4642
ag476
aS'variable_18'
p4643
ag19
ag23
aS'func_42'
p4644
ag6
aS'variable_49'
p4645
ag10
aS'variable_1'
p4646
ag10
aS'variable_10'
p4647
ag67
ag51
ag10
aS'variable_11'
p4648
ag10
ag230
ag245
ag246
ag230
ag10
aS'func_43'
p4649
ag6
aS'variable_1'
p4650
ag10
aS'variable_10'
p4651
ag67
ag51
ag10
aS'variable_11'
p4652
ag19
ag19
ag23
aa(lp4653
S'static'
p4654
aS'void'
p4655
aS'func_0'
p4656
ag6
aS'variable_0'
p4657
ag8
aS'variable_1'
p4658
ag10
aS'variable_2'
p4659
ag8
aS'variable_3'
p4660
ag10
aS'variable_4'
p4661
ag8
aS'variable_5'
p4662
ag10
aS'int'
p4663
aS'variable_6'
p4664
ag10
aS'variable_7'
p4665
ag8
aS'variable_8'
p4666
ag19
aS'gint'
p4667
aS'variable_9'
p4668
ag10
aS'variable_10'
p4669
ag10
aS'variable_11'
p4670
ag10
aS'variable_12'
p4671
ag10
aS'variable_13'
p4672
ag23
aS'variable_9'
p4673
ag38
ag41
ag23
aS'variable_13'
p4674
ag38
aS'func_1'
p4675
ag6
aS'variable_1'
p4676
ag10
aS'variable_9'
p4677
ag10
ag50
ag51
ag10
ag52
ag53
ag52
ag19
ag23
aS'if'
p4678
ag6
aS'variable_13'
p4679
aS'=='
p4680
ag50
ag51
ag19
aS'variable_11'
p4681
ag38
aS'variable_13'
p4682
ag50
aS'variable_9'
p4683
ag23
aS'func_2'
p4684
ag6
aS'variable_14'
p4685
ag10
aS'variable_15'
p4686
ag10
aS'variable_1'
p4687
ag10
aS'variable_9'
p4688
ag10
aS'variable_11'
p4689
ag10
aS'variable_16'
p4690
ag476
aS'variable_17'
p4691
ag19
ag23
aS'variable_18'
p4692
ag38
aS'func_3'
p4693
ag6
aS'variable_1'
p4694
ag10
aS'variable_9'
p4695
ag10
aS'variable_11'
p4696
ag19
ag23
aS'switch'
p4697
ag6
aS'variable_18'
p4698
ag19
aS'func_4'
p4699
ag6
aS'variable_14'
p4700
ag10
aS'variable_19'
p4701
ag10
aS'variable_1'
p4702
ag10
aS'variable_9'
p4703
ag10
aS'variable_11'
p4704
ag10
aS'variable_16'
p4705
ag476
aS'variable_17'
p4706
ag19
ag23
aS'variable_20'
p4707
ag38
aS'func_5'
p4708
ag6
aS'variable_1'
p4709
ag10
aS'variable_9'
p4710
ag10
aS'variable_11'
p4711
ag19
ag23
aS'func_6'
p4712
ag6
aS'variable_14'
p4713
ag10
aS'variable_21'
p4714
ag10
aS'variable_1'
p4715
ag10
aS'variable_9'
p4716
ag10
aS'variable_11'
p4717
ag10
aS'variable_16'
p4718
ag476
aS'variable_17'
p4719
ag19
ag23
aS'variable_22'
p4720
ag38
aS'atoi'
p4721
ag6
ag6
aS'char'
p4722
ag8
ag19
aS'variable_20'
p4723
ag19
ag23
aS'if'
p4724
ag6
aS'variable_22'
p4725
ag111
ag38
aS'variable_23'
p4726
ag19
ag8
aS'variable_24'
p4727
ag38
aS'atol'
p4728
ag6
ag6
aS'char'
p4729
ag8
ag19
aS'variable_20'
p4730
ag19
ag23
aS'variable_8'
p4731
aS'->'
p4732
aS'variable_25'
p4733
ag3060
aS'variable_22'
p4734
ag3062
ag38
ag6
aS'char'
p4735
ag8
ag19
aS'func_7'
p4736
ag6
aS'variable_1'
p4737
ag10
aS'variable_9'
p4738
ag10
aS'variable_11'
p4739
ag19
ag23
aS'func_8'
p4740
ag6
aS'variable_14'
p4741
ag10
aS'variable_26'
p4742
ag10
aS'variable_1'
p4743
ag10
aS'variable_9'
p4744
ag10
aS'variable_11'
p4745
ag10
aS'variable_16'
p4746
ag476
aS'variable_17'
p4747
ag19
ag23
aS'variable_8'
p4748
aS'->'
p4749
aS'variable_27'
p4750
ag3060
aS'variable_22'
p4751
ag3062
ag38
aS'atoi'
p4752
ag6
aS'func_9'
p4753
ag6
aS'variable_1'
p4754
ag10
aS'variable_9'
p4755
ag10
aS'variable_11'
p4756
ag19
ag19
ag23
aS'if'
p4757
ag6
aS'variable_8'
p4758
aS'->'
p4759
aS'variable_28'
p4760
aS'=='
p4761
ag41
ag19
aS'variable_29'
p4762
aS'->'
p4763
aS'variable_25'
p4764
ag38
aS'func_10'
p4765
ag6
aS'variable_8'
p4766
aS'->'
p4767
aS'variable_25'
p4768
ag3060
aS'variable_22'
p4769
ag3062
ag19
ag23
aS'variable_29'
p4770
aS'->'
p4771
aS'variable_27'
p4772
ag38
aS'variable_8'
p4773
aS'->'
p4774
aS'variable_27'
p4775
ag3060
aS'variable_22'
p4776
ag3062
ag23
aS'func_11'
p4777
ag6
aS'variable_8'
p4778
aS'->'
p4779
aS'variable_30'
p4780
ag3060
aS'variable_12'
p4781
ag3062
ag3635
aS'variable_31'
p4782
ag10
aS'variable_24'
p4783
ag10
aS'variable_29'
p4784
ag19
ag23
ag8
aS'variable_32'
p4785
ag38
aS'atol'
p4786
ag6
ag6
aS'char'
p4787
ag8
ag19
aS'variable_20'
p4788
ag19
ag23
aS'func_12'
p4789
ag6
aS'variable_8'
p4790
aS'->'
p4791
aS'variable_30'
p4792
ag3060
aS'variable_12'
p4793
ag3062
ag3635
aS'variable_31'
p4794
ag10
aS'variable_32'
p4795
ag10
aS'variable_29'
p4796
ag19
ag23
aS'variable_29'
p4797
aS'->'
p4798
aS'variable_25'
p4799
ag38
aS'func_13'
p4800
ag6
aS'variable_8'
p4801
aS'->'
p4802
aS'variable_25'
p4803
ag3060
aS'variable_22'
p4804
ag3062
ag19
ag23
aS'variable_29'
p4805
aS'->'
p4806
aS'variable_27'
p4807
ag38
aS'variable_8'
p4808
aS'->'
p4809
aS'variable_27'
p4810
ag3060
aS'variable_22'
p4811
ag3062
ag23
aS'if'
p4812
ag6
aS'variable_8'
p4813
aS'->'
p4814
aS'variable_28'
p4815
aS'=='
p4816
aS'variable_33'
p4817
ag50
ag51
ag19
aS'func_14'
p4818
ag6
aS'variable_8'
p4819
aS'->'
p4820
aS'variable_30'
p4821
ag3060
aS'variable_8'
p4822
aS'->'
p4823
aS'variable_28'
p4824
ag3062
ag3635
aS'variable_31'
p4825
ag10
aS'variable_24'
p4826
ag10
aS'variable_29'
p4827
ag19
ag23
aS'func_15'
p4828
ag6
aS'variable_8'
p4829
aS'->'
p4830
aS'variable_30'
p4831
ag3060
aS'variable_8'
p4832
aS'->'
p4833
aS'variable_28'
p4834
ag50
ag51
ag3062
ag3635
aS'variable_31'
p4835
ag10
aS'variable_24'
p4836
ag10
aS'variable_29'
p4837
ag19
ag23
aS'variable_34'
p4838
ag38
aS'func_16'
p4839
ag6
aS'variable_14'
p4840
ag10
aS'variable_19'
p4841
ag10
aS'variable_1'
p4842
ag10
aS'variable_9'
p4843
ag10
aS'variable_11'
p4844
ag10
aS'variable_16'
p4845
ag476
aS'variable_17'
p4846
ag19
ag23
aS'variable_35'
p4847
ag38
aS'atoi'
p4848
ag6
ag6
aS'char'
p4849
ag8
ag19
aS'func_17'
p4850
ag6
aS'variable_1'
p4851
ag10
aS'variable_9'
p4852
ag10
aS'variable_11'
p4853
ag19
ag19
ag23
aS'if'
p4854
ag6
aS'variable_35'
p4855
ag111
ag38
aS'variable_23'
p4856
ag19
aS'func_18'
p4857
ag6
aS'variable_34'
p4858
ag10
ag230
ag3060
ag245
ag246
ag3062
ag230
ag10
aS'variable_8'
p4859
aS'->'
p4860
aS'variable_25'
p4861
ag3060
aS'variable_35'
p4862
ag3062
ag19
ag23
aS'variable_20'
p4863
ag38
aS'func_19'
p4864
ag6
aS'variable_1'
p4865
ag10
aS'variable_9'
p4866
ag10
aS'variable_11'
p4867
ag19
ag23
aS'variable_36'
p4868
ag38
aS'func_20'
p4869
ag6
aS'variable_14'
p4870
ag10
aS'variable_37'
p4871
ag10
aS'variable_1'
p4872
ag10
aS'variable_9'
p4873
ag10
aS'variable_11'
p4874
ag10
aS'variable_16'
p4875
ag476
aS'variable_17'
p4876
ag19
ag23
aS'variable_38'
p4877
ag38
aS'func_21'
p4878
ag6
aS'variable_36'
p4879
ag10
aS'variable_39'
p4880
ag19
ag23
aS'func_22'
p4881
ag6
aS'variable_38'
p4882
ag10
aS'variable_1'
p4883
ag10
aS'variable_3'
p4884
ag10
aS'variable_9'
p4885
ag10
aS'variable_11'
p4886
ag10
aS'variable_8'
p4887
aS'->'
p4888
aS'variable_25'
p4889
ag3060
aS'variable_35'
p4890
ag3062
ag19
ag23
aS'func_23'
p4891
ag6
aS'variable_14'
p4892
ag10
aS'variable_40'
p4893
ag10
aS'variable_1'
p4894
ag10
aS'variable_9'
p4895
ag10
aS'variable_11'
p4896
ag10
aS'atoi'
p4897
ag6
ag6
aS'char'
p4898
ag8
ag19
aS'func_24'
p4899
ag6
aS'variable_1'
p4900
ag10
aS'variable_9'
p4901
ag10
aS'variable_11'
p4902
ag19
ag19
ag19
ag23
aS'func_25'
p4903
ag6
aS'variable_14'
p4904
ag10
aS'variable_41'
p4905
ag10
aS'variable_1'
p4906
ag10
aS'variable_9'
p4907
ag10
aS'variable_11'
p4908
ag10
aS'variable_16'
p4909
ag476
aS'variable_17'
p4910
ag19
ag23
aS'if'
p4911
ag6
aS'func_26'
p4912
ag6
aS'variable_1'
p4913
ag10
aS'variable_9'
p4914
ag10
ag230
aS'AES_CM_128_HMAC_SHA1_80'
p4915
ag230
ag10
aS'variable_11'
p4916
ag19
aS'=='
p4917
ag41
ag19
aS'if'
p4918
ag6
aS'variable_8'
p4919
aS'->'
p4920
aS'variable_42'
p4921
aS'=='
p4922
aS'variable_43'
p4923
ag19
aS'variable_8'
p4924
aS'->'
p4925
aS'variable_42'
p4926
ag38
aS'variable_44'
p4927
ag23
aS'variable_8'
p4928
aS'->'
p4929
aS'variable_45'
p4930
ag38
aS'variable_46'
p4931
ag23
aS'variable_8'
p4932
aS'->'
p4933
aS'variable_47'
p4934
ag38
aS'10'
p4935
ag23
aS'if'
p4936
ag6
aS'func_27'
p4937
ag6
aS'variable_1'
p4938
ag10
aS'variable_9'
p4939
ag10
ag230
aS'AES_CM_128_HMAC_SHA1_32'
p4940
ag230
ag10
aS'variable_11'
p4941
ag19
aS'=='
p4942
ag41
ag19
aS'if'
p4943
ag6
aS'func_28'
p4944
ag6
aS'variable_1'
p4945
ag10
aS'variable_9'
p4946
ag10
ag230
aS'F8_128_HMAC_SHA1_80'
p4947
ag230
ag10
aS'variable_11'
p4948
ag19
aS'=='
p4949
ag41
ag19
aS'variable_48'
p4950
ag38
aS'func_29'
p4951
ag6
aS'variable_1'
p4952
ag10
aS'variable_9'
p4953
ag10
aS'variable_11'
p4954
ag19
ag23
aS'variable_49'
p4955
ag38
aS'func_30'
p4956
ag6
aS'variable_1'
p4957
ag10
aS'variable_48'
p4958
ag19
ag23
aS'func_31'
p4959
ag6
aS'variable_3'
p4960
ag10
aS'variable_49'
p4961
ag10
ag230
aS'Key_Salt_tvb'
p4962
ag230
ag19
ag23
aS'func_32'
p4963
ag6
aS'variable_50'
p4964
ag10
aS'variable_1'
p4965
ag10
aS'variable_9'
p4966
ag10
aS'variable_11'
p4967
ag10
ag230
aS'Key'
p4968
aS'and'
p4969
aS'Salt'
p4970
ag230
ag19
ag23
aS'func_33'
p4971
ag6
aS'variable_50'
p4972
ag10
aS'variable_51'
p4973
ag10
aS'variable_49'
p4974
ag10
ag41
ag10
aS'variable_52'
p4975
ag10
aS'variable_16'
p4976
ag476
aS'variable_17'
p4977
ag19
ag23
aS'func_34'
p4978
ag6
aS'variable_50'
p4979
ag10
aS'variable_53'
p4980
ag10
aS'variable_49'
p4981
ag10
aS'variable_52'
p4982
ag10
aS'variable_54'
p4983
ag10
aS'variable_16'
p4984
ag476
aS'variable_17'
p4985
ag19
ag23
aS'func_35'
p4986
ag6
aS'variable_50'
p4987
ag10
aS'variable_49'
p4988
ag10
ag41
ag10
ag50
ag51
ag10
ag230
aS'Key'
p4989
aS'and'
p4990
aS'Salt'
p4991
ag230
ag19
ag23
aS'func_36'
p4992
ag6
aS'variable_50'
p4993
ag10
aS'variable_55'
p4994
ag10
aS'variable_1'
p4995
ag10
aS'variable_9'
p4996
ag10
aS'variable_11'
p4997
ag10
aS'variable_16'
p4998
ag476
aS'variable_17'
p4999
ag19
ag23
aS'func_37'
p5000
ag6
aS'variable_50'
p5001
ag10
aS'variable_56'
p5002
ag10
aS'variable_1'
p5003
ag10
aS'variable_9'
p5004
ag10
aS'variable_11'
p5005
ag10
aS'variable_16'
p5006
ag476
aS'variable_17'
p5007
ag19
ag23
aS'variable_8'
p5008
aS'->'
p5009
aS'variable_57'
p5010
ag38
aS'atoi'
p5011
ag6
ag6
aS'char'
p5012
ag8
ag19
aS'func_38'
p5013
ag6
aS'variable_1'
p5014
ag10
aS'variable_9'
p5015
ag10
aS'variable_11'
p5016
ag19
ag19
ag23
aS'func_39'
p5017
ag6
aS'variable_50'
p5018
ag10
aS'variable_58'
p5019
ag10
aS'variable_1'
p5020
ag10
aS'variable_9'
p5021
ag10
aS'variable_11'
p5022
ag10
aS'variable_16'
p5023
ag476
aS'variable_17'
p5024
ag19
ag23
aS'func_40'
p5025
ag6
aS'variable_50'
p5026
ag10
aS'variable_1'
p5027
ag10
aS'variable_10'
p5028
ag67
ag51
ag10
aS'variable_11'
p5029
ag10
ag230
ag245
ag246
ag230
ag10
aS'func_41'
p5030
ag6
aS'variable_1'
p5031
ag10
aS'variable_10'
p5032
ag67
ag51
ag10
aS'variable_11'
p5033
ag19
ag19
ag23
aaa(lp5034
I0
aI0
aI0
aI0
aI0
aI0
aI0
aI0
aI0
aI0
aI0
aI0
aI0
aI0
aI0
aI0
aa(lp5035
I546
aI665
aI655
aI615
aI569
aI569
aI512
aI449
aI428
aI549
aI407
aI295
aI237
aI162
aI133
aI65
aa(lp5036
(lp5037
S'main'
p5038
aa(lp5039
g5038
aa(lp5040
g5038
aa(lp5041
g5038
aa(lp5042
g5038
aa(lp5043
g5038
aa(lp5044
g5038
aa(lp5045
g5038
aa(lp5046
g5038
aa(lp5047
g5038
aa(lp5048
g5038
aa(lp5049
g5038
aa(lp5050
g5038
aa(lp5051
g5038
aa(lp5052
g5038
aa(lp5053
g5038
aaa(lp5054
S'443 /home/SySeVR/data/CVE_2013_1576_VULN_dissect_sdp_media_attribute.c tokenlen = param_end_offset - next_offset + 1 434'
p5055
aS'444 /home/SySeVR/data/CVE_2013_1576_VULN_dissect_sdp_media_attribute.c tokenlen = next_offset - offset 423'
p5056
aS'445 /home/SySeVR/data/CVE_2013_1576_VULN_dissect_sdp_media_attribute.c tokenlen = next_offset - offset 417'
p5057
aS'446 /home/SySeVR/data/CVE_2013_1576_VULN_dissect_sdp_media_attribute.c tokenlen = next_offset - offset 402'
p5058
aS'447 /home/SySeVR/data/CVE_2013_1576_VULN_dissect_sdp_media_attribute.c tokenlen = next_offset - offset 376'
p5059
aS'448 /home/SySeVR/data/CVE_2013_1576_VULN_dissect_sdp_media_attribute.c tokenlen = param_end_offset - offset 374'
p5060
aS'449 /home/SySeVR/data/CVE_2013_1576_VULN_dissect_sdp_media_attribute.c parameter_item = proto_tree_add_text ( sdp_media_attribute_tree , tvb , offset , param_end_offset - offset , "Key parameters" ) 357'
p5061
aS'450 /home/SySeVR/data/CVE_2013_1576_VULN_dissect_sdp_media_attribute.c tokenlen = next_offset - offset 309'
p5062
aS'451 /home/SySeVR/data/CVE_2013_1576_VULN_dissect_sdp_media_attribute.c tokenlen = next_offset - offset 302'
p5063
aS'452 /home/SySeVR/data/CVE_2013_1576_VULN_dissect_sdp_media_attribute.c msrp_port_number = atoi ( ( char * ) tvb_get_ephemeral_string ( tvb , port_offset + 1 , port_end_offset - port_offset - 1 ) ) 242'
p5064
aS'453 /home/SySeVR/data/CVE_2013_1576_VULN_dissect_sdp_media_attribute.c tokenlen = next_offset - offset 191'
p5065
aS'454 /home/SySeVR/data/CVE_2013_1576_VULN_dissect_sdp_media_attribute.c tokenlen = next_offset - offset 160'
p5066
aS'455 /home/SySeVR/data/CVE_2013_1576_VULN_dissect_sdp_media_attribute.c tokenlen = next_offset - offset 96'
p5067
aS'456 /home/SySeVR/data/CVE_2013_1576_VULN_dissect_sdp_media_attribute.c tokenlen = next_offset - offset 74'
p5068
aS'457 /home/SySeVR/data/CVE_2013_1576_VULN_dissect_sdp_media_attribute.c tokenlen = next_offset - offset 59'
p5069
aS'458 /home/SySeVR/data/CVE_2013_1576_VULN_dissect_sdp_media_attribute.c tokenlen = colon_offset - offset 31'
p5070
aa.