(lp0
(lp1
(lp2
S'struct'
p3
aS'variable_0'
p4
aS'*'
p5
aS'func_0'
p6
aS'('
p7
aS'const'
p8
aS'char'
p9
ag5
aS'variable_1'
p10
aS','
p11
aS'const'
p12
aS'char'
p13
ag5
aS'variable_2'
p14
ag11
aS'struct'
p15
aS'variable_0'
p16
ag5
aS'variable_3'
p17
ag11
aS'int'
p18
ag5
aS'variable_4'
p19
aS')'
p20
aS'struct'
p21
aS'variable_0'
p22
ag5
aS'variable_5'
p23
aS';'
p24
aS'char'
p25
ag5
aS'variable_6'
p26
ag24
aS'int'
p27
aS'variable_7'
p28
ag24
aS'char'
p29
ag5
aS'variable_8'
p30
aS'='
p31
aS'func_1'
p32
ag7
aS'variable_2'
p33
ag20
ag24
aS'variable_5'
p34
ag31
aS'func_2'
p35
ag7
aS'sizeof'
p36
ag7
ag5
aS'variable_5'
p37
ag20
ag20
ag24
aS'if'
p38
ag7
aS'!'
p39
aS'variable_5'
p40
ag20
aS'variable_6'
p41
ag31
aS'strchr'
p42
ag7
aS'variable_8'
p43
ag11
aS"'"
p44
aS'/'
p45
ag44
ag20
ag24
aS'if'
p46
ag7
ag39
aS'variable_6'
p47
ag20
ag5
aS'variable_6'
p48
ag31
ag44
aS'\\'
p49
aS'0'
p50
ag44
ag24
aS'variable_6'
p51
aS'++'
p52
ag24
aS'if'
p53
ag7
ag39
aS'strchr'
p54
ag7
aS'variable_6'
p55
ag11
ag44
aS'.'
p56
ag44
ag20
ag20
aS'if'
p57
ag7
ag7
aS'sscanf'
p58
ag7
aS'variable_6'
p59
ag11
aS'"'
p60
aS'%'
p61
aS'30d'
p62
ag60
ag11
aS'&'
p63
aS'variable_7'
p64
ag20
aS'=='
p65
aS'1'
p66
ag20
aS'&&'
p67
ag7
aS'variable_7'
p68
aS'>'
p69
ag31
ag50
ag20
aS'&&'
p70
ag7
aS'variable_7'
p71
aS'<'
p72
ag31
aS'32'
p73
ag20
ag20
aaa(lp74
I0
aa(lp75
I103
aa(lp76
(lp77
S'main'
p78
aaa(lp79
S'870 /home/SySeVR/data/CVE_2010_1224_VULN_ast_append_ha.c sscanf 30'
p80
aa.