(lp0
(lp1
(lp2
S'variable_0'
p3
aS':'
p4
ag4
aS'func_0'
p5
aS'('
p6
aS'variable_1'
p7
aS'*'
p8
aS'variable_2'
p9
ag8
aS'variable_3'
p10
aS')'
p11
aS'if'
p12
ag6
aS'variable_3'
p13
aS'->'
p14
aS'func_1'
p15
ag6
ag11
aS'<'
p16
aS'1'
p17
ag11
aS'int32_t'
p18
aS'variable_4'
p19
aS';'
p20
aS'variable_5'
p21
aS'='
p22
aS'variable_3'
p23
aS'->'
p24
aS'func_2'
p25
ag6
aS'&'
p26
aS'variable_4'
p27
ag11
ag20
aS'int32_t'
p28
aS'variable_6'
p29
ag22
aS'0'
p30
ag20
aS'int32_t'
p31
aS'variable_7'
p32
ag22
ag30
ag20
aS'int32_t'
p33
aS'variable_8'
p34
ag22
aS'-'
p35
ag17
ag20
aS'int32_t'
p36
aS'variable_9'
p37
ag22
ag30
ag20
aS'int32_t'
p38
aS'variable_10'
p39
ag22
ag35
ag17
ag20
aS'int32_t'
p40
aS'variable_11'
p41
ag22
aS'variable_3'
p42
aS'->'
p43
aS'func_3'
p44
ag6
ag11
ag20
aS'int32_t'
p45
aS'variable_12'
p46
ag22
ag30
ag20
aS'bool'
p47
aS'variable_13'
p48
ag22
aS'false'
p49
ag20
aS'variable_14'
p50
ag8
aS'variable_15'
p51
ag22
aS'variable_16'
p52
ag20
aS'variable_17'
p53
ag8
aS'variable_18'
p54
ag22
aS'variable_16'
p55
ag20
aS'int32_t'
p56
aS'variable_19'
p57
ag22
ag30
ag20
aS'if'
p58
ag6
aS'variable_9'
p59
ag16
ag22
ag30
ag11
aS'if'
p60
ag6
aS'++'
p61
aS'variable_10'
p62
aS'>'
p63
ag22
aS'variable_11'
p64
ag11
aS'variable_15'
p65
ag22
aS'variable_3'
p66
aS'->'
p67
aS'func_4'
p68
ag6
aS'variable_10'
p69
ag11
ag20
aS'if'
p70
ag6
aS'variable_15'
p71
aS'=='
p72
aS'variable_20'
p73
aS'||'
p74
aS'variable_21'
p75
ag4
ag4
aS'variable_22'
p76
aS'!='
p77
aS'variable_15'
p78
aS'->'
p79
aS'func_5'
p80
ag6
ag11
ag11
aS'variable_13'
p81
ag22
aS'false'
p82
ag20
aS'variable_9'
p83
ag22
ag17
ag20
aS'variable_18'
p84
ag22
aS'variable_15'
p85
aS'->'
p86
aS'func_6'
p87
ag6
ag11
ag20
aS'if'
p88
ag6
aS'!'
p89
aS'variable_18'
p90
ag11
aS'variable_19'
p91
ag22
aS'variable_18'
p92
aS'->'
p93
aS'func_7'
p94
ag6
ag11
ag20
aS'if'
p95
ag6
aS'variable_19'
p96
aS'=='
p97
ag30
ag11
aS'int32_t'
p98
aS'variable_23'
p99
aS','
p100
aS'variable_24'
p101
ag20
aS'variable_9'
p102
ag22
aS'func_8'
p103
ag6
aS'variable_19'
p104
ag100
aS'variable_24'
p105
ag35
aS'variable_23'
p106
ag11
ag20
aS'variable_12'
p107
ag22
aS'variable_23'
p108
ag20
aS'variable_13'
p109
ag22
aS'true'
p110
ag20
aS'if'
p111
ag6
aS'variable_6'
p112
ag16
ag22
ag30
ag11
aS'if'
p113
ag6
aS'++'
p114
aS'variable_8'
p115
ag63
ag22
aS'variable_4'
p116
ag11
aS'variable_25'
p117
ag22
aS'variable_7'
p118
ag20
aS'if'
p119
ag6
aS'func_9'
p120
ag6
aS'variable_3'
p121
aS'->'
p122
aS'func_10'
p123
ag6
aS'variable_25'
p124
ag100
ag26
aS'variable_7'
p125
ag100
ag26
aS'variable_26'
p126
ag11
ag11
ag11
aS'variable_6'
p127
ag22
aS'variable_7'
p128
ag35
aS'variable_25'
p129
ag20
aS'if'
p130
ag6
aS'variable_15'
p131
aS'=='
p132
aS'variable_20'
p133
ag11
aS'variable_15'
p134
ag22
aS'variable_16'
p135
ag20
aS'if'
p136
ag6
aS'variable_13'
p137
ag11
aS'if'
p138
ag6
ag6
aS'variable_6'
p139
ag63
ag30
ag11
aS'&&'
p140
ag6
aS'variable_6'
p141
ag16
aS'variable_9'
p142
ag11
ag11
aS'variable_14'
p143
ag8
aS'variable_27'
p144
ag20
aS'int32_t'
p145
aS'variable_28'
p146
ag22
aS'variable_12'
p147
aS'+'
p148
aS'variable_6'
p149
ag20
aS'variable_5'
p150
ag22
aS'func_11'
p151
ag6
aS'variable_15'
p152
ag100
ag26
aS'variable_27'
p153
ag100
aS'variable_10'
p154
ag100
aS'variable_12'
p155
ag100
aS'variable_28'
p156
ag11
ag20
aS'if'
p157
ag6
aS'func_12'
p158
ag6
aS'variable_5'
p159
ag11
ag11
aS'variable_27'
p160
aS'->'
p161
aS'func_13'
p162
ag6
aS'variable_28'
p163
ag100
aS'variable_12'
p164
ag148
aS'variable_9'
p165
ag11
ag20
aS'variable_29'
p166
ag22
aS'variable_15'
p167
ag22
aS'variable_27'
p168
ag20
aS'variable_12'
p169
ag22
aS'variable_28'
p170
ag20
aS'if'
p171
ag6
aS'variable_12'
p172
ag148
aS'variable_9'
p173
aS'=='
p174
aS'variable_19'
p175
ag11
aS'int32_t'
p176
aS'variable_30'
p177
ag22
aS'variable_3'
p178
aS'->'
p179
aS'func_14'
p180
ag6
aS'variable_18'
p181
ag11
ag20
aS'if'
p182
ag6
aS'variable_30'
p183
ag63
aS'variable_10'
p184
ag11
aS'variable_10'
p185
ag22
aS'variable_30'
p186
ag20
aS'variable_29'
p187
ag22
aS'variable_15'
p188
ag22
aS'variable_3'
p189
aS'->'
p190
aS'func_15'
p191
ag6
aS'variable_10'
p192
ag11
ag20
aS'variable_15'
p193
aS'->'
p194
aS'func_16'
p195
ag6
aS'variable_12'
p196
ag100
aS'variable_12'
p197
ag148
aS'variable_9'
p198
ag11
ag20
aS'int32_t'
p199
aS'variable_31'
p200
ag22
aS'variable_6'
p201
ag20
aS'variable_6'
p202
aS'-='
p203
aS'variable_9'
p204
ag20
aS'variable_9'
p205
aS'-='
p206
aS'variable_31'
p207
ag20
aS'return'
p208
aS'variable_5'
p209
ag20
aaa(lp210
I0
aa(lp211
I274
aa(lp212
(lp213
S'main'
p214
aaa(lp215
S'819 /home/SySeVR/data/CVE_2013_1676_VULN_nsBidiPresUtils__ResolveParagraph.c int32_t runEnd = contentOffset + runLength ; 134'
p216
aa.