(lp0
(lp1
(lp2
S'func_0'
p3
aS'('
p4
aS'variable_0'
p5
aS'*'
p6
aS'variable_1'
p7
aS','
p8
aS'const'
p9
aS'int'
p10
aS'variable_2'
p11
ag8
aS'int'
p12
aS'variable_3'
p13
aS')'
p14
aS'guint'
p15
aS'variable_4'
p16
aS'='
p17
aS'0'
p18
aS';'
p19
aS'variable_5'
p20
ag6
aS'variable_6'
p21
ag17
aS'NULL'
p22
ag19
aS'gint'
p23
aS'variable_7'
p24
ag17
aS'variable_8'
p25
ag19
aS'if'
p26
ag4
aS'variable_1'
p27
aS'=='
p28
aS'NULL'
p29
ag14
aS'variable_9'
p30
ag17
aS'func_1'
p31
ag4
aS'variable_1'
p32
ag8
aS'variable_2'
p33
ag8
aS'variable_3'
p34
ag14
ag19
aS'if'
p35
ag4
aS'!'
p36
aS'variable_9'
p37
ag14
aS'variable_10'
p38
ag17
aS'func_2'
p39
ag4
aS'variable_1'
p40
ag8
aS'variable_2'
p41
ag14
ag6
aS'2'
p42
ag19
aS'variable_10'
p43
ag17
aS'func_3'
p44
ag4
aS'variable_10'
p45
ag8
aS'variable_11'
p46
ag8
aS'variable_12'
p47
ag14
ag19
aS'variable_13'
p48
ag17
aS'variable_9'
p49
ag19
aS'variable_14'
p50
ag17
aS'func_4'
p51
ag4
aS'variable_15'
p52
ag8
aS'1'
p53
ag14
ag19
aS'variable_14'
p54
aS'->'
p55
aS'variable_16'
p56
ag17
aS'variable_13'
p57
ag19
aS'variable_14'
p58
aS'->'
p59
aS'variable_17'
p60
ag17
aS'variable_3'
p61
ag19
aS'variable_18'
p62
ag17
aS'func_5'
p63
ag4
aS'variable_10'
p64
ag14
ag19
aS'variable_14'
p65
aS'->'
p66
aS'variable_19'
p67
ag17
aS'variable_18'
p68
ag19
aS'variable_14'
p69
aS'->'
p70
aS'variable_20'
p71
ag17
aS'variable_10'
p72
ag19
aS'variable_21'
p73
ag17
aS'func_6'
p74
ag4
aS'variable_14'
p75
ag8
aS'variable_7'
p76
ag14
ag19
aS'variable_22'
p77
ag17
ag53
ag19
aS'if'
p78
ag4
aS'variable_21'
p79
aS'!='
p80
aS'variable_23'
p81
ag14
aS'while'
p82
ag4
ag53
ag14
aS'memset'
p83
ag4
aS'variable_18'
p84
ag8
aS"'"
p85
aS'\\'
p86
ag18
ag85
ag8
aS'variable_10'
p87
ag14
ag19
aS'variable_14'
p88
aS'->'
p89
aS'variable_19'
p90
ag17
aS'variable_18'
p91
ag19
aS'variable_14'
p92
aS'->'
p93
aS'variable_20'
p94
ag17
aS'variable_10'
p95
ag19
aS'variable_21'
p96
ag17
aS'func_7'
p97
ag4
aS'variable_14'
p98
ag8
aS'variable_24'
p99
ag14
ag19
aS'if'
p100
ag4
aS'variable_21'
p101
aS'=='
p102
aS'variable_23'
p103
aS'||'
p104
aS'variable_21'
p105
aS'=='
p106
aS'variable_25'
p107
ag14
aS'guint'
p108
aS'variable_26'
p109
ag17
aS'variable_10'
p110
aS'-'
p111
aS'variable_14'
p112
aS'->'
p113
aS'variable_20'
p114
ag19
aS'if'
p115
ag4
aS'variable_6'
p116
aS'=='
p117
aS'NULL'
p118
ag14
aS'variable_6'
p119
ag17
aS'func_8'
p120
ag4
aS'variable_18'
p121
ag8
aS'variable_26'
p122
ag14
ag19
aS'variable_5'
p123
ag6
aS'variable_27'
p124
ag17
aS'func_9'
p125
ag4
aS'variable_4'
p126
aS'+'
p127
aS'variable_26'
p128
ag14
ag19
aS'variable_6'
p129
ag17
aS'variable_27'
p130
ag19
aS'variable_4'
p131
aS'+='
p132
aS'variable_26'
p133
ag19
aS'if'
p134
ag4
aS'variable_21'
p135
aS'=='
p136
aS'variable_25'
p137
ag14
aS'if'
p138
ag4
aS'variable_21'
p139
aS'=='
p140
aS'variable_28'
p141
ag14
aS'if'
p142
ag4
aS'variable_21'
p143
aS'=='
p144
aS'variable_29'
p145
aS'&&'
p146
aS'variable_22'
p147
aS'=='
p148
ag53
aS'&&'
p149
aS'variable_6'
p150
aS'=='
p151
aS'NULL'
p152
aS'&&'
p153
ag4
ag6
aS'variable_9'
p154
aS'=='
p155
aS'0x1f'
p156
ag14
aS'&&'
p157
ag4
ag6
ag4
aS'variable_9'
p158
ag127
ag53
ag14
aS'=='
p159
aS'0x8b'
p160
ag14
ag14
aS'variable_30'
p161
ag6
aS'variable_31'
p162
ag17
aS'variable_9'
p163
ag127
ag42
ag19
aS'if'
p164
ag4
ag6
aS'variable_31'
p165
aS'=='
p166
aS'variable_32'
p167
ag14
aS'variable_31'
p168
aS'++'
p169
ag19
aS'variable_33'
p170
ag17
ag6
aS'variable_31'
p171
ag19
aS'variable_31'
p172
aS'+='
p173
aS'7'
p174
ag19
aS'if'
p175
ag4
aS'variable_33'
p176
aS'&'
p177
ag4
ag53
aS'<<'
p178
ag42
ag14
ag14
aS'gint'
p179
aS'variable_34'
p180
ag17
ag4
aS'variable_35'
p181
ag14
ag4
ag6
aS'variable_31'
p182
aS'|'
p183
ag4
ag6
ag4
aS'variable_31'
p184
ag127
ag53
ag14
aS'<<'
p185
aS'8'
p186
ag14
ag14
ag19
aS'variable_31'
p187
aS'+='
p188
aS'variable_34'
p189
ag19
aS'if'
p190
ag4
aS'variable_33'
p191
ag177
ag4
ag53
aS'<<'
p192
aS'3'
p193
ag14
ag14
aS'while'
p194
ag4
ag4
aS'variable_31'
p195
ag111
aS'variable_9'
p196
ag14
aS'<'
p197
aS'variable_3'
p198
aS'&&'
p199
ag6
aS'variable_31'
p200
aS'!='
p201
ag85
ag86
ag18
ag85
ag14
aS'variable_31'
p202
aS'++'
p203
ag19
aS'variable_31'
p204
aS'++'
p205
ag19
aS'if'
p206
ag4
aS'variable_33'
p207
ag177
ag4
ag53
aS'<<'
p208
aS'4'
p209
ag14
ag14
aS'while'
p210
ag4
ag4
aS'variable_31'
p211
ag111
aS'variable_9'
p212
ag14
ag197
aS'variable_3'
p213
aS'&&'
p214
ag6
aS'variable_31'
p215
aS'!='
p216
ag85
ag86
ag18
ag85
ag14
aS'variable_31'
p217
aS'++'
p218
ag19
aS'variable_31'
p219
aS'++'
p220
ag19
aS'variable_13'
p221
ag17
aS'variable_31'
p222
ag19
aS'if'
p223
ag4
aS'variable_31'
p224
ag111
aS'variable_9'
p225
aS'>'
p226
aS'variable_3'
p227
ag14
aS'variable_3'
p228
aS'-='
p229
ag4
aS'int'
p230
ag14
ag4
aS'variable_31'
p231
ag111
aS'variable_9'
p232
ag14
ag19
aS'variable_22'
p233
aS'++'
p234
ag19
aS'if'
p235
ag4
aS'variable_21'
p236
aS'=='
p237
aS'variable_29'
p238
aS'&&'
p239
aS'variable_6'
p240
aS'=='
p241
aS'NULL'
p242
aS'&&'
p243
aS'variable_22'
p244
ag197
ag17
ag193
ag14
aS'variable_7'
p245
ag17
ag111
aS'variable_8'
p246
ag19
aS'variable_14'
p247
aS'->'
p248
aS'variable_16'
p249
ag17
aS'variable_13'
p250
ag19
aS'variable_14'
p251
aS'->'
p252
aS'variable_17'
p253
ag17
aS'variable_3'
p254
ag19
aS'memset'
p255
ag4
aS'variable_18'
p256
ag8
ag85
ag86
ag18
ag85
ag8
aS'variable_10'
p257
ag14
ag19
aS'variable_14'
p258
aS'->'
p259
aS'variable_19'
p260
ag17
aS'variable_18'
p261
ag19
aS'variable_14'
p262
aS'->'
p263
aS'variable_20'
p264
ag17
aS'variable_10'
p265
ag19
aS'variable_21'
p266
ag17
aS'func_10'
p267
ag4
aS'variable_14'
p268
ag8
aS'variable_7'
p269
ag14
ag19
aS'variable_22'
p270
aS'++'
p271
ag19
aS'if'
p272
ag4
aS'variable_21'
p273
aS'!='
p274
aS'variable_23'
p275
ag14
aS'func_11'
p276
ag4
aS'variable_14'
p277
ag14
ag19
aS'func_12'
p278
ag4
aS'variable_18'
p279
ag14
ag19
aa(lp280
S'func_0'
p281
ag4
aS'variable_0'
p282
ag6
aS'variable_1'
p283
ag8
aS'const'
p284
aS'int'
p285
aS'variable_2'
p286
ag8
aS'int'
p287
aS'variable_3'
p288
ag14
aS'guint'
p289
aS'variable_4'
p290
ag17
ag18
ag19
aS'variable_5'
p291
ag6
aS'variable_6'
p292
ag17
aS'NULL'
p293
ag19
aS'gint'
p294
aS'variable_7'
p295
ag17
aS'variable_8'
p296
ag19
aS'if'
p297
ag4
aS'variable_1'
p298
aS'=='
p299
aS'NULL'
p300
ag14
aS'variable_9'
p301
ag17
aS'func_1'
p302
ag4
aS'variable_1'
p303
ag8
aS'variable_2'
p304
ag8
aS'variable_3'
p305
ag14
ag19
aS'if'
p306
ag4
ag36
aS'variable_9'
p307
ag14
aS'variable_10'
p308
ag17
aS'func_2'
p309
ag4
aS'variable_1'
p310
ag8
aS'variable_2'
p311
ag14
ag6
ag42
ag19
aS'variable_10'
p312
ag17
aS'func_3'
p313
ag4
aS'variable_10'
p314
ag8
aS'variable_11'
p315
ag8
aS'variable_12'
p316
ag14
ag19
aS'variable_13'
p317
ag17
aS'variable_9'
p318
ag19
aS'variable_14'
p319
ag17
aS'func_4'
p320
ag4
aS'variable_15'
p321
ag8
ag53
ag14
ag19
aS'variable_14'
p322
aS'->'
p323
aS'variable_16'
p324
ag17
aS'variable_13'
p325
ag19
aS'variable_14'
p326
aS'->'
p327
aS'variable_17'
p328
ag17
aS'variable_3'
p329
ag19
aS'variable_18'
p330
ag17
aS'func_5'
p331
ag4
aS'variable_10'
p332
ag14
ag19
aS'variable_14'
p333
aS'->'
p334
aS'variable_19'
p335
ag17
aS'variable_18'
p336
ag19
aS'variable_14'
p337
aS'->'
p338
aS'variable_20'
p339
ag17
aS'variable_10'
p340
ag19
aS'variable_21'
p341
ag17
aS'func_6'
p342
ag4
aS'variable_14'
p343
ag8
aS'variable_7'
p344
ag14
ag19
aS'variable_22'
p345
ag17
ag53
ag19
aS'if'
p346
ag4
aS'variable_21'
p347
aS'!='
p348
aS'variable_23'
p349
ag14
aS'while'
p350
ag4
ag53
ag14
aS'memset'
p351
ag4
aS'variable_18'
p352
ag8
ag85
ag86
ag18
ag85
ag8
aS'variable_10'
p353
ag14
ag19
aS'variable_14'
p354
aS'->'
p355
aS'variable_19'
p356
ag17
aS'variable_18'
p357
ag19
aS'variable_14'
p358
aS'->'
p359
aS'variable_20'
p360
ag17
aS'variable_10'
p361
ag19
aS'variable_21'
p362
ag17
aS'func_7'
p363
ag4
aS'variable_14'
p364
ag8
aS'variable_24'
p365
ag14
ag19
aS'if'
p366
ag4
aS'variable_21'
p367
aS'=='
p368
aS'variable_23'
p369
aS'||'
p370
aS'variable_21'
p371
aS'=='
p372
aS'variable_25'
p373
ag14
aS'guint'
p374
aS'variable_26'
p375
ag17
aS'variable_10'
p376
ag111
aS'variable_14'
p377
aS'->'
p378
aS'variable_20'
p379
ag19
aS'if'
p380
ag4
aS'variable_6'
p381
aS'=='
p382
aS'NULL'
p383
ag14
aS'variable_6'
p384
ag17
aS'func_8'
p385
ag4
aS'variable_18'
p386
ag8
aS'variable_26'
p387
ag14
ag19
aS'variable_5'
p388
ag6
aS'variable_27'
p389
ag17
aS'func_9'
p390
ag4
aS'variable_4'
p391
ag127
aS'variable_26'
p392
ag14
ag19
aS'func_10'
p393
ag4
aS'variable_27'
p394
ag8
aS'variable_6'
p395
ag8
aS'variable_4'
p396
ag14
ag19
aS'func_11'
p397
ag4
ag4
aS'variable_27'
p398
ag127
aS'variable_4'
p399
ag14
ag8
aS'variable_18'
p400
ag8
aS'variable_26'
p401
ag14
ag19
aS'func_12'
p402
ag4
aS'variable_6'
p403
ag14
ag19
aS'variable_6'
p404
ag17
aS'variable_27'
p405
ag19
aS'variable_4'
p406
aS'+='
p407
aS'variable_26'
p408
ag19
aS'if'
p409
ag4
aS'variable_21'
p410
aS'=='
p411
aS'variable_25'
p412
ag14
aS'if'
p413
ag4
aS'variable_21'
p414
aS'=='
p415
aS'variable_28'
p416
ag14
aS'if'
p417
ag4
aS'variable_6'
p418
aS'!='
p419
aS'NULL'
p420
ag14
aS'if'
p421
ag4
aS'variable_21'
p422
aS'=='
p423
aS'variable_29'
p424
aS'&&'
p425
aS'variable_22'
p426
aS'=='
p427
ag53
aS'&&'
p428
aS'variable_6'
p429
aS'=='
p430
aS'NULL'
p431
aS'&&'
p432
ag4
ag6
aS'variable_9'
p433
aS'=='
p434
aS'0x1f'
p435
ag14
aS'&&'
p436
ag4
ag6
ag4
aS'variable_9'
p437
ag127
ag53
ag14
aS'=='
p438
aS'0x8b'
p439
ag14
ag14
aS'variable_30'
p440
ag6
aS'variable_31'
p441
ag17
aS'variable_9'
p442
ag127
ag42
ag19
aS'if'
p443
ag4
ag6
aS'variable_31'
p444
aS'=='
p445
aS'variable_32'
p446
ag14
aS'variable_31'
p447
aS'++'
p448
ag19
aS'func_13'
p449
ag4
aS'variable_14'
p450
ag14
ag19
aS'func_14'
p451
ag4
aS'variable_14'
p452
ag14
ag19
aS'func_15'
p453
ag4
aS'variable_18'
p454
ag14
ag19
aS'variable_33'
p455
ag17
ag6
aS'variable_31'
p456
ag19
aS'variable_31'
p457
aS'+='
p458
ag174
ag19
aS'if'
p459
ag4
aS'variable_33'
p460
ag177
ag4
ag53
aS'<<'
p461
ag42
ag14
ag14
aS'gint'
p462
aS'variable_34'
p463
ag17
ag4
aS'variable_35'
p464
ag14
ag4
ag6
aS'variable_31'
p465
ag183
ag4
ag6
ag4
aS'variable_31'
p466
ag127
ag53
ag14
aS'<<'
p467
ag186
ag14
ag14
ag19
aS'variable_31'
p468
aS'+='
p469
aS'variable_34'
p470
ag19
aS'if'
p471
ag4
aS'variable_33'
p472
ag177
ag4
ag53
aS'<<'
p473
ag193
ag14
ag14
aS'while'
p474
ag4
ag4
aS'variable_31'
p475
ag111
aS'variable_9'
p476
ag14
ag197
aS'variable_3'
p477
aS'&&'
p478
ag6
aS'variable_31'
p479
aS'!='
p480
ag85
ag86
ag18
ag85
ag14
aS'variable_31'
p481
aS'++'
p482
ag19
aS'variable_31'
p483
aS'++'
p484
ag19
aS'if'
p485
ag4
aS'variable_33'
p486
ag177
ag4
ag53
aS'<<'
p487
ag209
ag14
ag14
aS'while'
p488
ag4
ag4
aS'variable_31'
p489
ag111
aS'variable_9'
p490
ag14
ag197
aS'variable_3'
p491
aS'&&'
p492
ag6
aS'variable_31'
p493
aS'!='
p494
ag85
ag86
ag18
ag85
ag14
aS'variable_31'
p495
aS'++'
p496
ag19
aS'variable_31'
p497
aS'++'
p498
ag19
aS'func_16'
p499
ag4
aS'variable_14'
p500
ag14
ag19
aS'variable_13'
p501
ag17
aS'variable_31'
p502
ag19
aS'variable_14'
p503
aS'->'
p504
aS'variable_16'
p505
ag17
aS'variable_13'
p506
ag19
aS'if'
p507
ag4
aS'variable_31'
p508
ag111
aS'variable_9'
p509
ag226
aS'variable_3'
p510
ag14
aS'func_17'
p511
ag4
aS'variable_14'
p512
ag14
ag19
aS'func_18'
p513
ag4
aS'variable_14'
p514
ag14
ag19
aS'func_19'
p515
ag4
aS'variable_18'
p516
ag14
ag19
aS'variable_3'
p517
aS'-='
p518
ag4
aS'int'
p519
ag14
ag4
aS'variable_31'
p520
ag111
aS'variable_9'
p521
ag14
ag19
aS'func_20'
p522
ag4
aS'variable_14'
p523
ag14
ag19
aS'variable_21'
p524
ag17
aS'func_21'
p525
ag4
aS'variable_14'
p526
ag8
aS'variable_7'
p527
ag14
ag19
aS'variable_22'
p528
aS'++'
p529
ag19
aS'if'
p530
ag4
aS'variable_21'
p531
aS'=='
p532
aS'variable_29'
p533
aS'&&'
p534
aS'variable_6'
p535
aS'=='
p536
aS'NULL'
p537
aS'&&'
p538
aS'variable_22'
p539
ag197
ag17
ag193
ag14
aS'variable_7'
p540
ag17
ag111
aS'variable_8'
p541
ag19
aS'variable_14'
p542
aS'->'
p543
aS'variable_16'
p544
ag17
aS'variable_13'
p545
ag19
aS'variable_14'
p546
aS'->'
p547
aS'variable_17'
p548
ag17
aS'variable_3'
p549
ag19
aS'memset'
p550
ag4
aS'variable_18'
p551
ag8
ag85
ag86
ag18
ag85
ag8
aS'variable_10'
p552
ag14
ag19
aS'variable_14'
p553
aS'->'
p554
aS'variable_19'
p555
ag17
aS'variable_18'
p556
ag19
aS'variable_14'
p557
aS'->'
p558
aS'variable_20'
p559
ag17
aS'variable_10'
p560
ag19
aS'variable_21'
p561
ag17
aS'func_22'
p562
ag4
aS'variable_14'
p563
ag8
aS'variable_7'
p564
ag14
ag19
aS'variable_22'
p565
aS'++'
p566
ag19
aS'if'
p567
ag4
aS'variable_21'
p568
aS'!='
p569
aS'variable_23'
p570
ag14
aS'func_23'
p571
ag4
aS'variable_14'
p572
ag14
ag19
aS'func_24'
p573
ag4
aS'variable_18'
p574
ag14
ag19
aS'func_25'
p575
ag4
aS'variable_6'
p576
ag14
ag19
aS'if'
p577
ag4
aS'variable_6'
p578
aS'=='
p579
aS'NULL'
p580
ag14
aS'printf'
p581
ag4
aS'"'
p582
aS'bytes'
p583
aS'in'
p584
aS':'
p585
aS'%'
p586
aS'u'
p587
ag86
aS'nbytes'
p588
aS'out'
p589
ag585
ag586
ag587
ag86
aS'n'
p590
ag86
ag590
ag582
ag8
aS'variable_36'
p591
ag8
aS'variable_4'
p592
ag14
ag19
aS'if'
p593
ag4
aS'variable_6'
p594
aS'!='
p595
aS'NULL'
p596
ag14
aS'variable_37'
p597
ag17
aS'func_26'
p598
ag4
ag4
aS'guint8'
p599
ag6
ag14
aS'variable_6'
p600
ag8
aS'variable_4'
p601
ag8
aS'variable_4'
p602
ag14
ag19
aS'func_27'
p603
ag4
aS'variable_37'
p604
ag8
aS'variable_38'
p605
ag14
ag19
aS'return'
p606
aS'variable_37'
p607
ag19
aaa(lp608
I0
aI0
aa(lp609
I458
aI140
aa(lp610
(lp611
S'main'
p612
aa(lp613
g612
aaa(lp614
S'66 /home/SySeVR/data/CVE_2011_2174_PATCHED_tvb_uncompress.c memset 209'
p615
aS'67 /home/SySeVR/data/CVE_2011_2174_PATCHED_tvb_uncompress.c memset 61'
p616
aa.