(lp0
(lp1
(lp2
S'func_0'
p3
aS'('
p4
aS'variable_0'
p5
aS'*'
p6
aS'variable_1'
p7
aS','
p8
aS'const'
p9
aS'int'
p10
aS'variable_2'
p11
ag8
aS'int'
p12
aS'variable_3'
p13
aS')'
p14
aS'guint'
p15
aS'variable_4'
p16
aS'='
p17
aS'0'
p18
aS';'
p19
aS'variable_5'
p20
ag6
aS'variable_6'
p21
ag17
aS'NULL'
p22
ag19
aS'gint'
p23
aS'variable_7'
p24
ag17
aS'variable_8'
p25
ag19
aS'if'
p26
ag4
aS'variable_1'
p27
aS'=='
p28
aS'NULL'
p29
ag14
aS'variable_9'
p30
ag17
aS'func_1'
p31
ag4
aS'variable_1'
p32
ag8
aS'variable_2'
p33
ag8
aS'variable_3'
p34
ag14
ag19
aS'if'
p35
ag4
aS'!'
p36
aS'variable_9'
p37
ag14
aS'variable_10'
p38
ag17
aS'func_2'
p39
ag4
aS'variable_1'
p40
ag8
aS'variable_2'
p41
ag14
ag6
aS'2'
p42
ag19
aS'variable_10'
p43
ag17
aS'func_3'
p44
ag4
aS'variable_10'
p45
ag8
aS'variable_11'
p46
ag8
aS'variable_12'
p47
ag14
ag19
aS'variable_13'
p48
ag17
aS'variable_9'
p49
ag19
aS'variable_14'
p50
ag17
aS'func_4'
p51
ag4
aS'variable_15'
p52
ag8
aS'1'
p53
ag14
ag19
aS'variable_14'
p54
aS'->'
p55
aS'variable_16'
p56
ag17
aS'variable_13'
p57
ag19
aS'variable_14'
p58
aS'->'
p59
aS'variable_17'
p60
ag17
aS'variable_3'
p61
ag19
aS'variable_18'
p62
ag17
aS'func_5'
p63
ag4
aS'variable_10'
p64
ag14
ag19
aS'variable_14'
p65
aS'->'
p66
aS'variable_19'
p67
ag17
aS'variable_18'
p68
ag19
aS'variable_14'
p69
aS'->'
p70
aS'variable_20'
p71
ag17
aS'variable_10'
p72
ag19
aS'variable_21'
p73
ag17
aS'func_6'
p74
ag4
aS'variable_14'
p75
ag8
aS'variable_7'
p76
ag14
ag19
aS'variable_22'
p77
ag17
ag53
ag19
aS'if'
p78
ag4
aS'variable_21'
p79
aS'!='
p80
aS'variable_23'
p81
ag14
aS'while'
p82
ag4
ag53
ag14
aS'memset'
p83
ag4
aS'variable_18'
p84
ag8
aS"'"
p85
aS'\\'
p86
ag18
ag85
ag8
aS'variable_10'
p87
ag14
ag19
aS'variable_14'
p88
aS'->'
p89
aS'variable_19'
p90
ag17
aS'variable_18'
p91
ag19
aS'variable_14'
p92
aS'->'
p93
aS'variable_20'
p94
ag17
aS'variable_10'
p95
ag19
aS'variable_21'
p96
ag17
aS'func_7'
p97
ag4
aS'variable_14'
p98
ag8
aS'variable_24'
p99
ag14
ag19
aS'if'
p100
ag4
aS'variable_21'
p101
aS'=='
p102
aS'variable_23'
p103
aS'||'
p104
aS'variable_21'
p105
aS'=='
p106
aS'variable_25'
p107
ag14
aS'guint'
p108
aS'variable_26'
p109
ag17
aS'variable_10'
p110
aS'-'
p111
aS'variable_14'
p112
aS'->'
p113
aS'variable_20'
p114
ag19
aS'if'
p115
ag4
aS'variable_6'
p116
aS'=='
p117
aS'NULL'
p118
ag14
aS'variable_6'
p119
ag17
aS'func_8'
p120
ag4
aS'variable_18'
p121
ag8
aS'variable_26'
p122
ag14
ag19
aS'variable_5'
p123
ag6
aS'variable_27'
p124
ag17
aS'func_9'
p125
ag4
aS'variable_4'
p126
aS'+'
p127
aS'variable_26'
p128
ag14
ag19
aS'func_10'
p129
ag4
aS'variable_27'
p130
ag8
aS'variable_6'
p131
ag8
aS'variable_4'
p132
ag14
ag19
aS'func_11'
p133
ag4
ag4
aS'variable_27'
p134
ag127
aS'variable_4'
p135
ag14
ag8
aS'variable_18'
p136
ag8
aS'variable_26'
p137
ag14
ag19
aS'func_12'
p138
ag4
aS'variable_6'
p139
ag14
ag19
aS'variable_6'
p140
ag17
aS'variable_27'
p141
ag19
aS'variable_4'
p142
aS'+='
p143
aS'variable_26'
p144
ag19
aS'if'
p145
ag4
aS'variable_21'
p146
aS'=='
p147
aS'variable_25'
p148
ag14
aS'if'
p149
ag4
aS'variable_21'
p150
aS'=='
p151
aS'variable_28'
p152
ag14
aS'if'
p153
ag4
aS'variable_6'
p154
aS'!='
p155
aS'NULL'
p156
ag14
aS'if'
p157
ag4
aS'variable_21'
p158
aS'=='
p159
aS'variable_29'
p160
aS'&&'
p161
aS'variable_22'
p162
aS'=='
p163
ag53
aS'&&'
p164
aS'variable_6'
p165
aS'=='
p166
aS'NULL'
p167
aS'&&'
p168
ag4
ag6
aS'variable_9'
p169
aS'=='
p170
aS'0x1f'
p171
ag14
aS'&&'
p172
ag4
ag6
ag4
aS'variable_9'
p173
ag127
ag53
ag14
aS'=='
p174
aS'0x8b'
p175
ag14
ag14
aS'variable_30'
p176
ag6
aS'variable_31'
p177
ag17
aS'variable_9'
p178
ag127
ag42
ag19
aS'if'
p179
ag4
ag6
aS'variable_31'
p180
aS'=='
p181
aS'variable_32'
p182
ag14
aS'variable_31'
p183
aS'++'
p184
ag19
aS'variable_33'
p185
ag17
ag6
aS'variable_31'
p186
ag19
aS'variable_31'
p187
aS'+='
p188
aS'7'
p189
ag19
aS'if'
p190
ag4
aS'variable_33'
p191
aS'&'
p192
ag4
ag53
aS'<<'
p193
ag42
ag14
ag14
aS'gint'
p194
aS'variable_34'
p195
ag17
ag4
aS'variable_35'
p196
ag14
ag4
ag6
aS'variable_31'
p197
aS'|'
p198
ag4
ag6
ag4
aS'variable_31'
p199
ag127
ag53
ag14
aS'<<'
p200
aS'8'
p201
ag14
ag14
ag19
aS'variable_31'
p202
aS'+='
p203
aS'variable_34'
p204
ag19
aS'if'
p205
ag4
aS'variable_33'
p206
ag192
ag4
ag53
aS'<<'
p207
aS'3'
p208
ag14
ag14
aS'while'
p209
ag4
ag4
aS'variable_31'
p210
ag111
aS'variable_9'
p211
ag14
aS'<'
p212
aS'variable_3'
p213
aS'&&'
p214
ag6
aS'variable_31'
p215
aS'!='
p216
ag85
ag86
ag18
ag85
ag14
aS'variable_31'
p217
aS'++'
p218
ag19
aS'variable_31'
p219
aS'++'
p220
ag19
aS'if'
p221
ag4
aS'variable_33'
p222
ag192
ag4
ag53
aS'<<'
p223
aS'4'
p224
ag14
ag14
aS'while'
p225
ag4
ag4
aS'variable_31'
p226
ag111
aS'variable_9'
p227
ag14
ag212
aS'variable_3'
p228
aS'&&'
p229
ag6
aS'variable_31'
p230
aS'!='
p231
ag85
ag86
ag18
ag85
ag14
aS'variable_31'
p232
aS'++'
p233
ag19
aS'variable_31'
p234
aS'++'
p235
ag19
aS'variable_13'
p236
ag17
aS'variable_31'
p237
ag19
aS'if'
p238
ag4
aS'variable_31'
p239
ag111
aS'variable_9'
p240
aS'>'
p241
aS'variable_3'
p242
ag14
aS'variable_3'
p243
aS'-='
p244
ag4
aS'int'
p245
ag14
ag4
aS'variable_31'
p246
ag111
aS'variable_9'
p247
ag14
ag19
aS'variable_22'
p248
aS'++'
p249
ag19
aS'if'
p250
ag4
aS'variable_21'
p251
aS'=='
p252
aS'variable_29'
p253
aS'&&'
p254
aS'variable_6'
p255
aS'=='
p256
aS'NULL'
p257
aS'&&'
p258
aS'variable_22'
p259
ag212
ag17
ag208
ag14
aS'variable_7'
p260
ag17
ag111
aS'variable_8'
p261
ag19
aS'variable_14'
p262
aS'->'
p263
aS'variable_16'
p264
ag17
aS'variable_13'
p265
ag19
aS'variable_14'
p266
aS'->'
p267
aS'variable_17'
p268
ag17
aS'variable_3'
p269
ag19
aS'memset'
p270
ag4
aS'variable_18'
p271
ag8
ag85
ag86
ag18
ag85
ag8
aS'variable_10'
p272
ag14
ag19
aS'variable_14'
p273
aS'->'
p274
aS'variable_19'
p275
ag17
aS'variable_18'
p276
ag19
aS'variable_14'
p277
aS'->'
p278
aS'variable_20'
p279
ag17
aS'variable_10'
p280
ag19
aS'variable_21'
p281
ag17
aS'func_13'
p282
ag4
aS'variable_14'
p283
ag8
aS'variable_7'
p284
ag14
ag19
aS'variable_22'
p285
aS'++'
p286
ag19
aS'if'
p287
ag4
aS'variable_21'
p288
aS'!='
p289
aS'variable_23'
p290
ag14
aS'func_14'
p291
ag4
aS'variable_6'
p292
ag14
ag19
aS'if'
p293
ag4
aS'variable_6'
p294
aS'=='
p295
aS'NULL'
p296
ag14
aS'if'
p297
ag4
aS'variable_6'
p298
aS'!='
p299
aS'NULL'
p300
ag14
aS'variable_36'
p301
ag17
aS'func_15'
p302
ag4
ag4
aS'guint8'
p303
ag6
ag14
aS'variable_6'
p304
ag8
aS'variable_4'
p305
ag8
aS'variable_4'
p306
ag14
ag19
aS'func_16'
p307
ag4
aS'variable_36'
p308
ag8
aS'variable_37'
p309
ag14
ag19
aS'return'
p310
aS'variable_36'
p311
ag19
aa(lp312
S'func_0'
p313
ag4
aS'variable_0'
p314
ag6
aS'variable_1'
p315
ag8
aS'const'
p316
aS'int'
p317
aS'variable_2'
p318
ag8
aS'int'
p319
aS'variable_3'
p320
ag14
aS'guint'
p321
aS'variable_4'
p322
ag17
ag18
ag19
aS'variable_5'
p323
ag6
aS'variable_6'
p324
ag17
aS'NULL'
p325
ag19
aS'gint'
p326
aS'variable_7'
p327
ag17
aS'variable_8'
p328
ag19
aS'if'
p329
ag4
aS'variable_1'
p330
aS'=='
p331
aS'NULL'
p332
ag14
aS'variable_9'
p333
ag17
aS'func_1'
p334
ag4
aS'variable_1'
p335
ag8
aS'variable_2'
p336
ag8
aS'variable_3'
p337
ag14
ag19
aS'if'
p338
ag4
ag36
aS'variable_9'
p339
ag14
aS'variable_10'
p340
ag17
aS'func_2'
p341
ag4
aS'variable_1'
p342
ag8
aS'variable_2'
p343
ag14
ag6
ag42
ag19
aS'variable_10'
p344
ag17
aS'func_3'
p345
ag4
aS'variable_10'
p346
ag8
aS'variable_11'
p347
ag8
aS'variable_12'
p348
ag14
ag19
aS'variable_13'
p349
ag17
aS'variable_9'
p350
ag19
aS'variable_14'
p351
ag17
aS'func_4'
p352
ag4
aS'variable_15'
p353
ag8
ag53
ag14
ag19
aS'variable_14'
p354
aS'->'
p355
aS'variable_16'
p356
ag17
aS'variable_13'
p357
ag19
aS'variable_14'
p358
aS'->'
p359
aS'variable_17'
p360
ag17
aS'variable_3'
p361
ag19
aS'variable_18'
p362
ag17
aS'func_5'
p363
ag4
aS'variable_10'
p364
ag14
ag19
aS'variable_14'
p365
aS'->'
p366
aS'variable_19'
p367
ag17
aS'variable_18'
p368
ag19
aS'variable_14'
p369
aS'->'
p370
aS'variable_20'
p371
ag17
aS'variable_10'
p372
ag19
aS'variable_21'
p373
ag17
aS'func_6'
p374
ag4
aS'variable_14'
p375
ag8
aS'variable_7'
p376
ag14
ag19
aS'variable_22'
p377
ag17
ag53
ag19
aS'if'
p378
ag4
aS'variable_21'
p379
aS'!='
p380
aS'variable_23'
p381
ag14
aS'while'
p382
ag4
ag53
ag14
aS'memset'
p383
ag4
aS'variable_18'
p384
ag8
ag85
ag86
ag18
ag85
ag8
aS'variable_10'
p385
ag14
ag19
aS'variable_14'
p386
aS'->'
p387
aS'variable_19'
p388
ag17
aS'variable_18'
p389
ag19
aS'variable_14'
p390
aS'->'
p391
aS'variable_20'
p392
ag17
aS'variable_10'
p393
ag19
aS'variable_21'
p394
ag17
aS'func_7'
p395
ag4
aS'variable_14'
p396
ag8
aS'variable_24'
p397
ag14
ag19
aS'if'
p398
ag4
aS'variable_21'
p399
aS'=='
p400
aS'variable_23'
p401
aS'||'
p402
aS'variable_21'
p403
aS'=='
p404
aS'variable_25'
p405
ag14
aS'guint'
p406
aS'variable_26'
p407
ag17
aS'variable_10'
p408
ag111
aS'variable_14'
p409
aS'->'
p410
aS'variable_20'
p411
ag19
aS'if'
p412
ag4
aS'variable_6'
p413
aS'=='
p414
aS'NULL'
p415
ag14
aS'variable_6'
p416
ag17
aS'func_8'
p417
ag4
aS'variable_18'
p418
ag8
aS'variable_26'
p419
ag14
ag19
aS'variable_5'
p420
ag6
aS'variable_27'
p421
ag17
aS'func_9'
p422
ag4
aS'variable_4'
p423
ag127
aS'variable_26'
p424
ag14
ag19
aS'func_10'
p425
ag4
aS'variable_27'
p426
ag8
aS'variable_6'
p427
ag8
aS'variable_4'
p428
ag14
ag19
aS'func_11'
p429
ag4
ag4
aS'variable_27'
p430
ag127
aS'variable_4'
p431
ag14
ag8
aS'variable_18'
p432
ag8
aS'variable_26'
p433
ag14
ag19
aS'func_12'
p434
ag4
aS'variable_6'
p435
ag14
ag19
aS'variable_6'
p436
ag17
aS'variable_27'
p437
ag19
aS'variable_4'
p438
aS'+='
p439
aS'variable_26'
p440
ag19
aS'if'
p441
ag4
aS'variable_21'
p442
aS'=='
p443
aS'variable_25'
p444
ag14
aS'if'
p445
ag4
aS'variable_21'
p446
aS'=='
p447
aS'variable_28'
p448
ag14
aS'if'
p449
ag4
aS'variable_6'
p450
aS'!='
p451
aS'NULL'
p452
ag14
aS'if'
p453
ag4
aS'variable_21'
p454
aS'=='
p455
aS'variable_29'
p456
aS'&&'
p457
aS'variable_22'
p458
aS'=='
p459
ag53
aS'&&'
p460
aS'variable_6'
p461
aS'=='
p462
aS'NULL'
p463
aS'&&'
p464
ag4
ag6
aS'variable_9'
p465
aS'=='
p466
aS'0x1f'
p467
ag14
aS'&&'
p468
ag4
ag6
ag4
aS'variable_9'
p469
ag127
ag53
ag14
aS'=='
p470
aS'0x8b'
p471
ag14
ag14
aS'variable_30'
p472
ag6
aS'variable_31'
p473
ag17
aS'variable_9'
p474
ag127
ag42
ag19
aS'if'
p475
ag4
ag6
aS'variable_31'
p476
aS'=='
p477
aS'variable_32'
p478
ag14
aS'variable_31'
p479
aS'++'
p480
ag19
aS'variable_33'
p481
ag17
ag6
aS'variable_31'
p482
ag19
aS'variable_31'
p483
aS'+='
p484
ag189
ag19
aS'if'
p485
ag4
aS'variable_33'
p486
ag192
ag4
ag53
aS'<<'
p487
ag42
ag14
ag14
aS'gint'
p488
aS'variable_34'
p489
ag17
ag4
aS'variable_35'
p490
ag14
ag4
ag6
aS'variable_31'
p491
ag198
ag4
ag6
ag4
aS'variable_31'
p492
ag127
ag53
ag14
aS'<<'
p493
ag201
ag14
ag14
ag19
aS'variable_31'
p494
aS'+='
p495
aS'variable_34'
p496
ag19
aS'if'
p497
ag4
aS'variable_33'
p498
ag192
ag4
ag53
aS'<<'
p499
ag208
ag14
ag14
aS'while'
p500
ag4
ag4
aS'variable_31'
p501
ag111
aS'variable_9'
p502
ag14
ag212
aS'variable_3'
p503
aS'&&'
p504
ag6
aS'variable_31'
p505
aS'!='
p506
ag85
ag86
ag18
ag85
ag14
aS'variable_31'
p507
aS'++'
p508
ag19
aS'variable_31'
p509
aS'++'
p510
ag19
aS'if'
p511
ag4
aS'variable_33'
p512
ag192
ag4
ag53
aS'<<'
p513
ag224
ag14
ag14
aS'while'
p514
ag4
ag4
aS'variable_31'
p515
ag111
aS'variable_9'
p516
ag14
ag212
aS'variable_3'
p517
aS'&&'
p518
ag6
aS'variable_31'
p519
aS'!='
p520
ag85
ag86
ag18
ag85
ag14
aS'variable_31'
p521
aS'++'
p522
ag19
aS'variable_31'
p523
aS'++'
p524
ag19
aS'variable_13'
p525
ag17
aS'variable_31'
p526
ag19
aS'if'
p527
ag4
aS'variable_31'
p528
ag111
aS'variable_9'
p529
ag241
aS'variable_3'
p530
ag14
aS'variable_3'
p531
aS'-='
p532
ag4
aS'int'
p533
ag14
ag4
aS'variable_31'
p534
ag111
aS'variable_9'
p535
ag14
ag19
aS'variable_22'
p536
aS'++'
p537
ag19
aS'if'
p538
ag4
aS'variable_21'
p539
aS'=='
p540
aS'variable_29'
p541
aS'&&'
p542
aS'variable_6'
p543
aS'=='
p544
aS'NULL'
p545
aS'&&'
p546
aS'variable_22'
p547
ag212
ag17
ag208
ag14
aS'variable_7'
p548
ag17
ag111
aS'variable_8'
p549
ag19
aS'variable_14'
p550
aS'->'
p551
aS'variable_16'
p552
ag17
aS'variable_13'
p553
ag19
aS'variable_14'
p554
aS'->'
p555
aS'variable_17'
p556
ag17
aS'variable_3'
p557
ag19
aS'memset'
p558
ag4
aS'variable_18'
p559
ag8
ag85
ag86
ag18
ag85
ag8
aS'variable_10'
p560
ag14
ag19
aS'variable_14'
p561
aS'->'
p562
aS'variable_19'
p563
ag17
aS'variable_18'
p564
ag19
aS'variable_14'
p565
aS'->'
p566
aS'variable_20'
p567
ag17
aS'variable_10'
p568
ag19
aS'variable_21'
p569
ag17
aS'func_13'
p570
ag4
aS'variable_14'
p571
ag8
aS'variable_7'
p572
ag14
ag19
aS'variable_22'
p573
aS'++'
p574
ag19
aS'if'
p575
ag4
aS'variable_21'
p576
aS'!='
p577
aS'variable_23'
p578
ag14
aS'func_14'
p579
ag4
aS'variable_6'
p580
ag14
ag19
aS'if'
p581
ag4
aS'variable_6'
p582
aS'=='
p583
aS'NULL'
p584
ag14
aS'printf'
p585
ag4
aS'"'
p586
aS'bytes'
p587
aS'in'
p588
aS':'
p589
aS'%'
p590
aS'u'
p591
ag86
aS'nbytes'
p592
aS'out'
p593
ag589
ag590
ag591
ag86
aS'n'
p594
ag86
ag594
ag586
ag8
aS'variable_36'
p595
ag8
aS'variable_4'
p596
ag14
ag19
aS'if'
p597
ag4
aS'variable_6'
p598
aS'!='
p599
aS'NULL'
p600
ag14
aS'variable_37'
p601
ag17
aS'func_15'
p602
ag4
ag4
aS'guint8'
p603
ag6
ag14
aS'variable_6'
p604
ag8
aS'variable_4'
p605
ag8
aS'variable_4'
p606
ag14
ag19
aS'func_16'
p607
ag4
aS'variable_37'
p608
ag8
aS'variable_38'
p609
ag14
ag19
aS'return'
p610
aS'variable_37'
p611
ag19
aaa(lp612
I0
aI0
aa(lp613
I217
aI191
aa(lp614
(lp615
S'main'
p616
aa(lp617
g616
aaa(lp618
S'765 /home/SySeVR/data/CVE_2011_2174_PATCHED_tvb_uncompress.c guint8 * new_data = g_malloc0 ( bytes_out + bytes_pass ) ; 77'
p619
aS'766 /home/SySeVR/data/CVE_2011_2174_PATCHED_tvb_uncompress.c guint bytes_pass = bufsiz - strm -> avail_out ; 68'
p620
aa.