(lp0
(lp1
(lp2
S'static'
p3
aS'long'
p4
aS'func_0'
p5
aS'('
p6
aS'struct'
p7
aS'variable_0'
p8
aS'*'
p9
aS'variable_0'
p10
aS','
p11
aS'unsigned'
p12
aS'long'
p13
aS'variable_1'
p14
ag11
aS'int'
p15
aS'variable_2'
p16
aS')'
p17
aS'struct'
p18
aS'variable_3'
p19
ag9
aS'variable_4'
p20
aS'='
p21
aS'variable_0'
p22
aS'->'
p23
aS'variable_5'
p24
aS';'
p25
aS'struct'
p26
aS'variable_6'
p27
ag9
aS'variable_7'
p28
ag25
aS'void'
p29
aS'variable_8'
p30
ag9
aS'variable_9'
p31
ag21
ag6
aS'void'
p32
aS'__user'
p33
ag9
ag17
aS'variable_1'
p34
ag25
aS'struct'
p35
aS'ifreq'
p36
aS'variable_10'
p37
ag25
aS'if'
p38
ag6
aS'variable_11'
p39
aS'=='
p40
aS'variable_12'
p41
aS'||'
p42
aS'func_1'
p43
ag6
aS'variable_11'
p44
ag17
aS'=='
p45
aS'0x89'
p46
ag17
aS'if'
p47
ag6
aS'func_2'
p48
ag6
aS'&'
p49
aS'variable_10'
p50
ag11
aS'variable_9'
p51
ag11
aS'variable_2'
p52
ag17
ag17
aS'if'
p53
ag6
aS'variable_11'
p54
aS'=='
p55
aS'variable_13'
p56
ag17
aS'variable_7'
p57
ag21
aS'func_3'
p58
ag6
aS'variable_4'
p59
ag17
ag25
aS'if'
p60
ag6
aS'variable_11'
p61
aS'=='
p62
aS'variable_12'
p63
aS'&&'
p64
aS'!'
p65
aS'variable_7'
p66
ag17
aS'if'
p67
ag6
ag65
aS'variable_7'
p68
ag17
aS'switch'
p69
ag6
aS'variable_11'
p70
ag17
aS'if'
p71
ag6
aS'variable_7'
p72
aS'->'
p73
aS'variable_14'
p74
aS'->'
p75
aS'variable_15'
p76
ag49
aS'variable_16'
p77
ag17
aS'variable_7'
p78
aS'->'
p79
aS'variable_14'
p80
aS'->'
p81
aS'variable_17'
p82
ag21
ag6
aS'int'
p83
ag17
aS'variable_1'
p84
ag25
aS'variable_7'
p85
aS'->'
p86
aS'variable_18'
p87
ag21
aS'variable_1'
p88
ag25
aS'memcpy'
p89
ag6
aS'variable_10'
p90
aS'.'
p91
aS'variable_19'
p92
ag91
aS'variable_20'
p93
ag11
aS'variable_7'
p94
aS'->'
p95
aS'variable_14'
p96
aS'->'
p97
aS'variable_21'
p98
ag11
aS'variable_22'
p99
ag17
ag25
aS'variable_10'
p100
ag91
aS'variable_19'
p101
ag91
aS'variable_23'
p102
ag21
aS'variable_7'
p103
aS'->'
p104
aS'variable_14'
p105
aS'->'
p106
aS'variable_17'
p107
ag25
aS'if'
p108
ag6
aS'func_4'
p109
ag6
aS'variable_9'
p110
ag11
ag49
aS'variable_10'
p111
ag11
aS'variable_2'
p112
ag17
ag17
aS'func_5'
p113
ag6
aS'variable_24'
p114
aS'"'
p115
aS'%'
p116
aS's'
p117
aS':'
p118
aS'set'
p119
aS'hw'
p120
aS'address'
p121
ag118
ag116
aS'pM'
p122
aS'\\'
p123
aS'n'
p124
ag115
aS'variable_7'
p125
aS'->'
p126
aS'variable_14'
p127
aS'->'
p128
aS'variable_25'
p129
ag11
aS'variable_10'
p130
ag91
aS'variable_19'
p131
ag91
aS'variable_20'
p132
ag17
aS'variable_26'
p133
ag21
aS'func_6'
p134
ag6
aS'variable_7'
p135
aS'->'
p136
aS'variable_14'
p137
ag11
ag49
aS'variable_10'
p138
ag91
aS'variable_19'
p139
ag17
ag25
aS'return'
p140
aS'variable_26'
p141
ag25
aaa(lp142
I0
aa(lp143
I130
aa(lp144
(lp145
S'main'
p146
aaa(lp147
S'513 /home/SySeVR/data/CVE_2012_6547_PATCHED___tun_chr_ioctl.c memcpy 129'
p148
aa.