(lp0
(lp1
(lp2
S'static'
p3
aS'int'
p4
aS'func_0'
p5
aS'('
p6
aS'variable_0'
p7
aS'*'
p8
aS'variable_1'
p9
aS','
p10
aS'void'
p11
ag8
aS'variable_2'
p12
ag10
aS'variable_3'
p13
ag8
aS'variable_4'
p14
aS')'
p15
aS'const'
p16
aS'uint8_t'
p17
ag8
aS'variable_5'
p18
aS'='
p19
aS'variable_4'
p20
aS'->'
p21
aS'variable_2'
p22
aS';'
p23
aS'int'
p24
aS'variable_6'
p25
ag19
aS'variable_4'
p26
aS'->'
p27
aS'variable_7'
p28
ag23
aS'int'
p29
aS'variable_8'
p30
ag23
aS'const'
p31
aS'uint8_t'
p32
ag8
aS'variable_9'
p33
ag23
aS'const'
p34
aS'uint8_t'
p35
ag8
aS'variable_10'
p36
ag23
aS'uint32_t'
p37
aS'variable_11'
p38
ag19
aS'-'
p39
aS'1'
p40
ag23
aS'if'
p41
ag6
aS'variable_6'
p42
aS'=='
p43
aS'0'
p44
ag15
aS'variable_10'
p45
ag19
aS'variable_5'
p46
ag23
aS'variable_9'
p47
ag19
aS'variable_5'
p48
aS'+'
p49
aS'variable_6'
p50
ag23
aS'variable_10'
p51
ag19
aS'func_1'
p52
ag6
aS'variable_10'
p53
ag10
aS'variable_9'
p54
ag10
aS'&'
p55
aS'variable_11'
p56
ag15
ag23
aS'if'
p57
ag6
ag6
aS'variable_11'
p58
ag55
aS'0xFFFFFE00'
p59
ag15
aS'||'
p60
aS'variable_10'
p61
aS'=='
p62
aS'variable_9'
p63
ag15
aS'variable_8'
p64
ag19
ag6
aS'variable_9'
p65
ag39
aS'variable_10'
p66
ag15
ag8
aS'8'
p67
ag23
aS'func_2'
p68
ag6
ag55
aS'variable_12'
p69
aS'->'
p70
aS'variable_13'
p71
ag10
aS'variable_10'
p72
ag10
aS'variable_8'
p73
ag15
ag23
aS'func_3'
p74
ag6
ag55
aS'variable_12'
p75
aS'->'
p76
aS'variable_13'
p77
ag10
aS'variable_10'
p78
ag10
aS'variable_8'
p79
ag15
ag23
aS'func_4'
p80
ag6
ag55
aS'variable_12'
p81
aS'->'
p82
aS'variable_13'
p83
ag10
aS'variable_10'
p84
ag10
aS'variable_8'
p85
ag15
ag23
aa(lp86
S'static'
p87
aS'int'
p88
aS'func_0'
p89
ag6
aS'variable_0'
p90
ag8
aS'variable_1'
p91
ag10
aS'void'
p92
ag8
aS'variable_2'
p93
ag10
aS'variable_3'
p94
ag8
aS'variable_4'
p95
ag15
aS'const'
p96
aS'uint8_t'
p97
ag8
aS'variable_5'
p98
ag19
aS'variable_4'
p99
aS'->'
p100
aS'variable_2'
p101
ag23
aS'int'
p102
aS'variable_6'
p103
ag19
aS'variable_4'
p104
aS'->'
p105
aS'variable_7'
p106
ag23
aS'const'
p107
aS'uint8_t'
p108
ag8
aS'variable_8'
p109
ag23
aS'if'
p110
ag6
aS'variable_6'
p111
aS'=='
p112
ag44
ag15
aS'variable_8'
p113
ag19
aS'variable_5'
p114
ag49
aS'variable_6'
p115
ag23
aS'variable_9'
p116
ag19
aS'func_1'
p117
ag6
aS'variable_9'
p118
ag10
aS'variable_8'
p119
ag10
ag55
aS'variable_10'
p120
ag15
ag23
aS'if'
p121
ag6
ag6
aS'variable_10'
p122
ag55
aS'0xFFFFFE00'
p123
ag15
aS'||'
p124
aS'variable_9'
p125
aS'=='
p126
aS'variable_8'
p127
ag15
aS'return'
p128
aS'func_2'
p129
ag6
ag44
ag10
aS'variable_9'
p130
ag39
aS'variable_5'
p131
ag39
aS'variable_11'
p132
aS'->'
p133
aS'variable_12'
p134
aS'.'
p135
aS'variable_13'
p136
ag15
ag23
aS'variable_14'
p137
ag19
ag6
aS'variable_8'
p138
ag39
aS'variable_9'
p139
ag15
ag8
ag67
ag23
aS'func_3'
p140
ag6
ag55
aS'variable_11'
p141
aS'->'
p142
aS'variable_15'
p143
ag10
aS'variable_9'
p144
ag10
aS'variable_14'
p145
ag15
ag23
aS'func_4'
p146
ag6
ag55
aS'variable_11'
p147
aS'->'
p148
aS'variable_15'
p149
ag10
aS'variable_9'
p150
ag10
aS'variable_14'
p151
ag15
ag23
aS'func_5'
p152
ag6
ag55
aS'variable_11'
p153
aS'->'
p154
aS'variable_15'
p155
ag10
aS'variable_9'
p156
ag10
aS'variable_14'
p157
ag15
ag23
aaa(lp158
I0
aI0
aa(lp159
I99
aI47
aa(lp160
(lp161
S'main'
p162
aa(lp163
g162
aaa(lp164
S'271 /home/SySeVR/data/CVE_2011_3973_PATCHED_cavs_decode_frame.c input_size = ( buf_end - buf_ptr ) * 8 29'
p165
aS'272 /home/SySeVR/data/CVE_2011_3973_PATCHED_cavs_decode_frame.c buf_end = buf + buf_size 24'
p166
aa.