(lp0
(lp1
(lp2
S'static'
p3
aS'int'
p4
aS'func_0'
p5
aS'('
p6
aS'variable_0'
p7
aS'*'
p8
aS'variable_1'
p9
aS','
p10
aS'variable_2'
p11
ag8
aS'variable_3'
p12
aS')'
p13
aS'variable_4'
p14
ag8
aS'variable_5'
p15
aS'='
p16
aS'&'
p17
aS'variable_1'
p18
aS'->'
p19
aS'variable_5'
p20
aS';'
p21
aS'variable_6'
p22
ag8
aS'variable_7'
p23
ag16
aS'variable_1'
p24
aS'->'
p25
aS'variable_7'
p26
ag21
aS'variable_8'
p27
ag8
aS'variable_9'
p28
ag16
ag17
aS'variable_1'
p29
aS'->'
p30
aS'variable_9'
p31
ag21
aS'unsigned'
p32
aS'int'
p33
aS'variable_10'
p34
ag21
aS'unsigned'
p35
aS'int'
p36
aS'variable_11'
p37
aS'['
p38
aS'8'
p39
aS']'
p40
ag21
aS'unsigned'
p41
aS'int'
p42
aS'variable_12'
p43
ag38
ag39
ag40
ag21
aS'unsigned'
p44
aS'int'
p45
aS'variable_13'
p46
ag10
aS'variable_14'
p47
ag10
aS'variable_15'
p48
ag21
aS'unsigned'
p49
aS'int'
p50
aS'variable_16'
p51
ag16
aS'0'
p52
ag21
aS'unsigned'
p53
aS'int'
p54
aS'variable_17'
p55
ag21
aS'variable_18'
p56
ag8
aS'variable_19'
p57
ag21
ag8
aS'variable_3'
p58
aS'->'
p59
aS'variable_20'
p60
ag16
ag52
ag21
ag8
aS'variable_3'
p61
aS'->'
p62
aS'variable_17'
p63
ag16
aS'1'
p64
ag21
aS'variable_3'
p65
aS'->'
p66
aS'variable_21'
p67
ag16
aS'func_1'
p68
ag6
aS'variable_9'
p69
ag13
ag21
aS'variable_17'
p70
ag16
ag8
aS'variable_3'
p71
aS'->'
p72
aS'variable_17'
p73
ag21
aS'if'
p74
ag6
aS'!'
p75
aS'variable_5'
p76
aS'->'
p77
aS'variable_22'
p78
aS'&&'
p79
ag75
aS'variable_5'
p80
aS'->'
p81
aS'variable_23'
p82
ag13
aS'variable_14'
p83
ag16
ag52
ag21
aS'if'
p84
ag6
aS'variable_5'
p85
aS'->'
p86
aS'variable_22'
p87
aS'&&'
p88
aS'variable_5'
p89
aS'->'
p90
aS'variable_23'
p91
ag13
aS'variable_14'
p92
ag16
aS'func_2'
p93
ag6
aS'variable_9'
p94
ag10
aS'2'
p95
ag13
ag21
aS'variable_14'
p96
ag16
ag95
ag8
aS'func_3'
p97
ag6
aS'variable_9'
p98
ag13
ag21
aS'variable_13'
p99
ag16
ag64
aS'<<'
p100
aS'variable_14'
p101
ag21
aS'if'
p102
ag6
aS'variable_3'
p103
aS'->'
p104
aS'variable_24'
p105
ag17
ag6
aS'variable_13'
p106
aS'-'
p107
ag64
ag13
ag13
aS'if'
p108
ag6
aS'variable_5'
p109
aS'->'
p110
aS'variable_22'
p111
ag13
aS'variable_11'
p112
ag38
ag52
ag40
ag16
aS'func_4'
p113
ag6
aS'variable_9'
p114
ag10
ag39
aS'+'
p115
ag6
aS'variable_5'
p116
aS'->'
p117
aS'variable_25'
p118
aS'>'
p119
ag64
ag13
ag13
ag21
aS'for'
p120
ag6
aS'variable_10'
p121
ag16
ag64
ag21
aS'variable_10'
p122
aS'<'
p123
aS'variable_13'
p124
ag21
aS'variable_10'
p125
aS'++'
p126
ag13
aS'variable_11'
p127
ag38
aS'variable_10'
p128
ag40
ag16
aS'variable_11'
p129
ag38
aS'variable_10'
p130
ag107
ag64
ag40
ag115
aS'func_5'
p131
ag6
aS'variable_9'
p132
ag10
ag95
ag13
ag21
aS'for'
p133
ag6
aS'variable_10'
p134
ag16
ag52
ag21
aS'variable_10'
p135
ag123
aS'variable_13'
p136
ag21
aS'variable_10'
p137
aS'++'
p138
ag13
aS'variable_12'
p139
ag38
aS'variable_10'
p140
ag40
ag16
aS'variable_11'
p141
ag38
aS'variable_10'
p142
ag40
ag17
aS'0x0F'
p143
ag21
aS'variable_11'
p144
ag38
aS'variable_10'
p145
ag40
aS'>>'
p146
ag16
aS'4'
p147
ag21
aS'variable_11'
p148
ag38
ag52
ag40
ag16
aS'func_6'
p149
ag6
aS'variable_9'
p150
ag10
ag147
ag115
ag6
aS'variable_5'
p151
aS'->'
p152
aS'variable_25'
p153
ag119
ag64
ag13
ag13
ag21
aS'for'
p154
ag6
aS'variable_10'
p155
ag16
ag64
ag21
aS'variable_10'
p156
ag123
aS'variable_13'
p157
ag21
aS'variable_10'
p158
aS'++'
p159
ag13
aS'variable_11'
p160
ag38
aS'variable_10'
p161
ag40
ag16
aS'variable_11'
p162
ag38
aS'variable_10'
p163
ag107
ag64
ag40
ag115
aS'func_7'
p164
ag6
aS'variable_9'
p165
ag10
ag52
ag13
ag21
aS'if'
p166
ag6
aS'func_8'
p167
ag6
aS'variable_9'
p168
ag13
ag13
ag8
aS'variable_3'
p169
aS'->'
p170
aS'variable_26'
p171
ag16
aS'func_9'
p172
ag6
aS'variable_9'
p173
ag10
ag147
ag13
ag115
ag64
ag21
ag8
aS'variable_3'
p174
aS'->'
p175
aS'variable_27'
p176
ag16
ag6
aS'variable_3'
p177
aS'->'
p178
aS'variable_21'
p179
aS'&&'
p180
aS'variable_3'
p181
aS'->'
p182
aS'variable_28'
p183
ag13
aS'||'
p184
ag8
aS'variable_3'
p185
aS'->'
p186
aS'variable_26'
p187
ag21
aS'if'
p188
ag6
ag75
aS'variable_5'
p189
aS'->'
p190
aS'variable_29'
p191
ag13
aS'if'
p192
ag6
aS'variable_5'
p193
aS'->'
p194
aS'variable_30'
p195
ag13
aS'int'
p196
aS'variable_31'
p197
ag16
aS'func_10'
p198
ag6
aS'func_11'
p199
ag6
ag6
aS'variable_3'
p200
aS'->'
p201
aS'variable_24'
p202
aS'>>'
p203
aS'3'
p204
ag13
ag107
ag64
ag10
ag95
ag10
aS'variable_5'
p205
aS'->'
p206
aS'variable_32'
p207
ag115
ag64
ag13
ag13
ag21
ag8
aS'variable_3'
p208
aS'->'
p209
aS'variable_17'
p210
ag16
aS'func_12'
p211
ag6
aS'variable_9'
p212
ag10
aS'variable_31'
p213
ag13
ag21
ag8
aS'variable_3'
p214
aS'->'
p215
aS'variable_17'
p216
ag16
aS'variable_5'
p217
aS'->'
p218
aS'variable_32'
p219
ag21
aS'variable_17'
p220
ag16
ag8
aS'variable_3'
p221
aS'->'
p222
aS'variable_17'
p223
ag21
aS'if'
p224
ag6
aS'variable_5'
p225
aS'->'
p226
aS'variable_33'
p227
ag13
ag8
aS'variable_3'
p228
aS'->'
p229
aS'variable_34'
p230
ag16
aS'func_13'
p231
ag6
aS'variable_9'
p232
ag13
ag21
aS'if'
p233
ag6
ag8
aS'variable_3'
p234
aS'->'
p235
aS'variable_34'
p236
ag13
aS'int'
p237
aS'variable_35'
p238
ag10
aS'variable_36'
p239
ag21
aS'variable_3'
p240
aS'->'
p241
aS'variable_37'
p242
ag38
ag52
ag40
ag16
aS'func_14'
p243
ag6
aS'variable_9'
p244
ag10
ag64
ag13
aS'<<'
p245
ag204
ag21
aS'variable_3'
p246
aS'->'
p247
aS'variable_37'
p248
ag38
ag64
ag40
ag16
aS'func_15'
p249
ag6
aS'variable_9'
p250
ag10
ag95
ag13
aS'<<'
p251
ag204
ag21
aS'variable_35'
p252
ag16
aS'func_16'
p253
ag6
aS'variable_9'
p254
ag10
ag52
ag10
ag147
ag13
ag21
aS'variable_36'
p255
ag16
aS'func_17'
p256
ag6
aS'variable_9'
p257
ag10
ag95
ag13
ag21
aS'variable_3'
p258
aS'->'
p259
aS'variable_37'
p260
ag38
ag95
ag40
ag16
aS'variable_38'
p261
ag38
aS'variable_35'
p262
ag40
ag38
aS'variable_36'
p263
ag40
ag21
aS'variable_3'
p264
aS'->'
p265
aS'variable_37'
p266
ag38
ag204
ag40
ag16
aS'func_18'
p267
ag6
aS'variable_9'
p268
ag10
ag95
ag13
aS'<<'
p269
ag204
ag21
aS'variable_3'
p270
aS'->'
p271
aS'variable_37'
p272
ag38
ag147
ag40
ag16
aS'func_19'
p273
ag6
aS'variable_9'
p274
ag10
ag64
ag13
aS'<<'
p275
ag204
ag21
ag8
aS'variable_3'
p276
aS'->'
p277
aS'variable_39'
p278
ag16
aS'func_20'
p279
ag6
aS'variable_9'
p280
ag10
aS'variable_1'
p281
aS'->'
p282
aS'variable_40'
p283
ag13
ag21
ag8
aS'variable_3'
p284
aS'->'
p285
aS'variable_39'
p286
aS'+='
p287
aS'func_21'
p288
ag6
ag147
ag10
aS'variable_17'
p289
ag115
ag64
ag13
ag21
aS'if'
p290
ag6
aS'variable_3'
p291
aS'->'
p292
aS'variable_41'
p293
ag13
aS'if'
p294
ag6
aS'variable_17'
p295
ag13
aS'variable_3'
p296
aS'->'
p297
aS'variable_42'
p298
ag38
ag52
ag40
ag16
aS'func_22'
p299
ag6
aS'variable_9'
p300
ag10
aS'variable_7'
p301
aS'->'
p302
aS'variable_43'
p303
ag107
ag147
ag13
ag21
aS'if'
p304
ag6
aS'variable_17'
p305
ag119
ag64
ag13
aS'variable_3'
p306
aS'->'
p307
aS'variable_42'
p308
ag38
ag64
ag40
ag16
aS'func_23'
p309
ag6
aS'variable_9'
p310
ag10
aS'func_24'
p311
ag6
aS'variable_11'
p312
ag38
ag52
ag40
ag115
ag204
ag10
aS'variable_1'
p313
aS'->'
p314
aS'variable_44'
p315
ag13
ag13
ag21
aS'if'
p316
ag6
aS'variable_17'
p317
ag119
ag95
ag13
aS'variable_3'
p318
aS'->'
p319
aS'variable_42'
p320
ag38
ag95
ag40
ag16
aS'func_25'
p321
ag6
aS'variable_9'
p322
ag10
aS'func_26'
p323
ag6
aS'variable_11'
p324
ag38
ag52
ag40
ag115
ag64
ag10
aS'variable_1'
p325
aS'->'
p326
aS'variable_44'
p327
ag13
ag13
ag21
aS'variable_16'
p328
ag16
aS'func_27'
p329
ag6
aS'variable_17'
p330
ag10
ag204
ag13
ag21
aS'if'
p331
ag6
aS'variable_5'
p332
aS'->'
p333
aS'variable_22'
p334
ag13
aS'variable_19'
p335
ag16
aS'variable_3'
p336
aS'->'
p337
aS'variable_42'
p338
ag115
aS'variable_16'
p339
ag21
ag8
aS'variable_19'
p340
aS'++'
p341
ag16
aS'func_28'
p342
ag6
aS'variable_9'
p343
ag10
aS'variable_11'
p344
ag38
aS'variable_45'
p345
ag40
ag13
ag21
aa(lp346
S'static'
p347
aS'int'
p348
aS'func_0'
p349
ag6
aS'variable_0'
p350
ag8
aS'variable_1'
p351
ag10
aS'variable_2'
p352
ag8
aS'variable_3'
p353
ag13
aS'variable_4'
p354
ag8
aS'variable_5'
p355
ag16
ag17
aS'variable_1'
p356
aS'->'
p357
aS'variable_5'
p358
ag21
aS'variable_6'
p359
ag8
aS'variable_7'
p360
ag16
aS'variable_1'
p361
aS'->'
p362
aS'variable_7'
p363
ag21
aS'variable_8'
p364
ag8
aS'variable_9'
p365
ag16
ag17
aS'variable_1'
p366
aS'->'
p367
aS'variable_9'
p368
ag21
aS'unsigned'
p369
aS'int'
p370
aS'variable_10'
p371
ag21
aS'unsigned'
p372
aS'int'
p373
aS'variable_11'
p374
ag38
ag39
ag40
ag21
aS'unsigned'
p375
aS'int'
p376
aS'variable_12'
p377
ag38
ag39
ag40
ag21
aS'unsigned'
p378
aS'int'
p379
aS'variable_13'
p380
ag10
aS'variable_14'
p381
ag10
aS'variable_15'
p382
ag21
aS'unsigned'
p383
aS'int'
p384
aS'variable_16'
p385
ag16
ag52
ag21
aS'unsigned'
p386
aS'int'
p387
aS'variable_17'
p388
ag21
aS'variable_18'
p389
ag8
aS'variable_19'
p390
ag21
ag8
aS'variable_3'
p391
aS'->'
p392
aS'variable_20'
p393
ag16
ag52
ag21
ag8
aS'variable_3'
p394
aS'->'
p395
aS'variable_17'
p396
ag16
ag64
ag21
aS'variable_3'
p397
aS'->'
p398
aS'variable_21'
p399
ag16
aS'func_1'
p400
ag6
aS'variable_9'
p401
ag13
ag21
aS'variable_17'
p402
ag16
ag8
aS'variable_3'
p403
aS'->'
p404
aS'variable_17'
p405
ag21
aS'if'
p406
ag6
ag75
aS'variable_5'
p407
aS'->'
p408
aS'variable_22'
p409
aS'&&'
p410
ag75
aS'variable_5'
p411
aS'->'
p412
aS'variable_23'
p413
ag13
aS'variable_14'
p414
ag16
ag52
ag21
aS'if'
p415
ag6
aS'variable_5'
p416
aS'->'
p417
aS'variable_22'
p418
aS'&&'
p419
aS'variable_5'
p420
aS'->'
p421
aS'variable_23'
p422
ag13
aS'variable_14'
p423
ag16
aS'func_2'
p424
ag6
aS'variable_9'
p425
ag10
ag95
ag13
ag21
aS'variable_14'
p426
ag16
ag95
ag8
aS'func_3'
p427
ag6
aS'variable_9'
p428
ag13
ag21
aS'variable_13'
p429
ag16
ag64
aS'<<'
p430
aS'variable_14'
p431
ag21
aS'if'
p432
ag6
aS'variable_3'
p433
aS'->'
p434
aS'variable_24'
p435
ag17
ag6
aS'variable_13'
p436
ag107
ag64
ag13
ag13
aS'if'
p437
ag6
aS'variable_5'
p438
aS'->'
p439
aS'variable_22'
p440
ag13
aS'variable_11'
p441
ag38
ag52
ag40
ag16
aS'func_4'
p442
ag6
aS'variable_9'
p443
ag10
ag39
ag115
ag6
aS'variable_5'
p444
aS'->'
p445
aS'variable_25'
p446
ag119
ag64
ag13
ag13
ag21
aS'for'
p447
ag6
aS'variable_10'
p448
ag16
ag64
ag21
aS'variable_10'
p449
ag123
aS'variable_13'
p450
ag21
aS'variable_10'
p451
aS'++'
p452
ag13
aS'variable_11'
p453
ag38
aS'variable_10'
p454
ag40
ag16
aS'variable_11'
p455
ag38
aS'variable_10'
p456
ag107
ag64
ag40
ag115
aS'func_5'
p457
ag6
aS'variable_9'
p458
ag10
ag95
ag13
ag21
aS'for'
p459
ag6
aS'variable_10'
p460
ag16
ag52
ag21
aS'variable_10'
p461
ag123
aS'variable_13'
p462
ag21
aS'variable_10'
p463
aS'++'
p464
ag13
aS'variable_12'
p465
ag38
aS'variable_10'
p466
ag40
ag16
aS'variable_11'
p467
ag38
aS'variable_10'
p468
ag40
ag17
aS'0x0F'
p469
ag21
aS'variable_11'
p470
ag38
aS'variable_10'
p471
ag40
aS'>>'
p472
ag16
ag147
ag21
aS'variable_11'
p473
ag38
ag52
ag40
ag16
aS'func_6'
p474
ag6
aS'variable_9'
p475
ag10
ag147
ag115
ag6
aS'variable_5'
p476
aS'->'
p477
aS'variable_25'
p478
ag119
ag64
ag13
ag13
ag21
aS'for'
p479
ag6
aS'variable_10'
p480
ag16
ag64
ag21
aS'variable_10'
p481
ag123
aS'variable_13'
p482
ag21
aS'variable_10'
p483
aS'++'
p484
ag13
aS'variable_11'
p485
ag38
aS'variable_10'
p486
ag40
ag16
aS'variable_11'
p487
ag38
aS'variable_10'
p488
ag107
ag64
ag40
ag115
aS'func_7'
p489
ag6
aS'variable_9'
p490
ag10
ag52
ag13
ag21
aS'if'
p491
ag6
aS'func_8'
p492
ag6
aS'variable_9'
p493
ag13
ag13
ag8
aS'variable_3'
p494
aS'->'
p495
aS'variable_26'
p496
ag16
aS'func_9'
p497
ag6
aS'variable_9'
p498
ag10
ag147
ag13
ag115
ag64
ag21
ag8
aS'variable_3'
p499
aS'->'
p500
aS'variable_27'
p501
ag16
ag6
aS'variable_3'
p502
aS'->'
p503
aS'variable_21'
p504
aS'&&'
p505
aS'variable_3'
p506
aS'->'
p507
aS'variable_28'
p508
ag13
aS'||'
p509
ag8
aS'variable_3'
p510
aS'->'
p511
aS'variable_26'
p512
ag21
aS'if'
p513
ag6
ag75
aS'variable_5'
p514
aS'->'
p515
aS'variable_29'
p516
ag13
aS'if'
p517
ag6
aS'variable_5'
p518
aS'->'
p519
aS'variable_30'
p520
ag13
aS'int'
p521
aS'variable_31'
p522
ag16
aS'func_10'
p523
ag6
aS'func_11'
p524
ag6
ag6
aS'variable_3'
p525
aS'->'
p526
aS'variable_24'
p527
aS'>>'
p528
ag204
ag13
ag107
ag64
ag10
ag95
ag10
aS'variable_5'
p529
aS'->'
p530
aS'variable_32'
p531
ag115
ag64
ag13
ag13
ag21
ag8
aS'variable_3'
p532
aS'->'
p533
aS'variable_17'
p534
ag16
aS'func_12'
p535
ag6
aS'variable_9'
p536
ag10
aS'variable_31'
p537
ag13
ag21
ag8
aS'variable_3'
p538
aS'->'
p539
aS'variable_17'
p540
ag16
aS'variable_5'
p541
aS'->'
p542
aS'variable_32'
p543
ag21
aS'variable_17'
p544
ag16
ag8
aS'variable_3'
p545
aS'->'
p546
aS'variable_17'
p547
ag21
aS'if'
p548
ag6
aS'variable_5'
p549
aS'->'
p550
aS'variable_33'
p551
ag13
ag8
aS'variable_3'
p552
aS'->'
p553
aS'variable_34'
p554
ag16
aS'func_13'
p555
ag6
aS'variable_9'
p556
ag13
ag21
aS'if'
p557
ag6
ag8
aS'variable_3'
p558
aS'->'
p559
aS'variable_34'
p560
ag13
aS'int'
p561
aS'variable_35'
p562
ag10
aS'variable_36'
p563
ag21
aS'variable_3'
p564
aS'->'
p565
aS'variable_37'
p566
ag38
ag52
ag40
ag16
aS'func_14'
p567
ag6
aS'variable_9'
p568
ag10
ag64
ag13
aS'<<'
p569
ag204
ag21
aS'variable_3'
p570
aS'->'
p571
aS'variable_37'
p572
ag38
ag64
ag40
ag16
aS'func_15'
p573
ag6
aS'variable_9'
p574
ag10
ag95
ag13
aS'<<'
p575
ag204
ag21
aS'variable_35'
p576
ag16
aS'func_16'
p577
ag6
aS'variable_9'
p578
ag10
ag52
ag10
ag147
ag13
ag21
aS'variable_36'
p579
ag16
aS'func_17'
p580
ag6
aS'variable_9'
p581
ag10
ag95
ag13
ag21
aS'variable_3'
p582
aS'->'
p583
aS'variable_37'
p584
ag38
ag95
ag40
ag16
aS'variable_38'
p585
ag38
aS'variable_35'
p586
ag40
ag38
aS'variable_36'
p587
ag40
ag21
aS'variable_3'
p588
aS'->'
p589
aS'variable_37'
p590
ag38
ag204
ag40
ag16
aS'func_18'
p591
ag6
aS'variable_9'
p592
ag10
ag95
ag13
aS'<<'
p593
ag204
ag21
aS'variable_3'
p594
aS'->'
p595
aS'variable_37'
p596
ag38
ag147
ag40
ag16
aS'func_19'
p597
ag6
aS'variable_9'
p598
ag10
ag64
ag13
aS'<<'
p599
ag204
ag21
ag8
aS'variable_3'
p600
aS'->'
p601
aS'variable_39'
p602
ag16
aS'func_20'
p603
ag6
aS'variable_9'
p604
ag10
aS'variable_1'
p605
aS'->'
p606
aS'variable_40'
p607
ag13
ag21
ag8
aS'variable_3'
p608
aS'->'
p609
aS'variable_39'
p610
aS'+='
p611
aS'func_21'
p612
ag6
ag147
ag10
aS'variable_17'
p613
ag115
ag64
ag13
ag21
aS'if'
p614
ag6
aS'variable_3'
p615
aS'->'
p616
aS'variable_41'
p617
ag13
aS'if'
p618
ag6
aS'variable_17'
p619
ag13
aS'variable_3'
p620
aS'->'
p621
aS'variable_42'
p622
ag38
ag52
ag40
ag16
aS'func_22'
p623
ag6
aS'variable_9'
p624
ag10
aS'variable_7'
p625
aS'->'
p626
aS'variable_43'
p627
ag107
ag147
ag13
ag21
aS'if'
p628
ag6
aS'variable_17'
p629
ag119
ag64
ag13
aS'variable_3'
p630
aS'->'
p631
aS'variable_42'
p632
ag38
ag64
ag40
ag16
aS'func_23'
p633
ag6
aS'variable_9'
p634
ag10
aS'func_24'
p635
ag6
aS'variable_11'
p636
ag38
ag52
ag40
ag115
ag204
ag10
aS'variable_1'
p637
aS'->'
p638
aS'variable_44'
p639
ag13
ag13
ag21
aS'if'
p640
ag6
aS'variable_17'
p641
ag119
ag95
ag13
aS'variable_3'
p642
aS'->'
p643
aS'variable_42'
p644
ag38
ag95
ag40
ag16
aS'func_25'
p645
ag6
aS'variable_9'
p646
ag10
aS'func_26'
p647
ag6
aS'variable_11'
p648
ag38
ag52
ag40
ag115
ag64
ag10
aS'variable_1'
p649
aS'->'
p650
aS'variable_44'
p651
ag13
ag13
ag21
aS'variable_16'
p652
ag16
aS'func_27'
p653
ag6
aS'variable_17'
p654
ag10
ag204
ag13
ag21
aS'if'
p655
ag6
aS'variable_5'
p656
aS'->'
p657
aS'variable_22'
p658
ag13
aS'variable_19'
p659
ag16
aS'variable_3'
p660
aS'->'
p661
aS'variable_42'
p662
ag115
aS'variable_16'
p663
ag21
aS'int32_t'
p664
aS'variable_45'
p665
ag16
ag8
aS'variable_19'
p666
ag21
aS'if'
p667
ag6
aS'variable_45'
p668
aS'=='
p669
aS'variable_46'
p670
ag13
aS'if'
p671
ag6
aS'variable_45'
p672
ag119
aS'variable_46'
p673
ag13
aS'variable_45'
p674
aS'--'
p675
ag21
aS'if'
p676
ag6
aS'variable_45'
p677
ag17
ag64
ag13
aS'variable_45'
p678
ag16
ag107
aS'variable_45'
p679
ag21
aS'variable_45'
p680
aS'>>'
p681
ag16
ag64
ag21
aS'variable_45'
p682
aS'<<'
p683
ag16
aS'variable_47'
p684
ag21
aS'variable_45'
p685
aS'|'
p686
ag16
aS'func_28'
p687
ag6
aS'variable_9'
p688
ag10
aS'variable_47'
p689
ag13
ag21
ag8
aS'variable_19'
p690
aS'++'
p691
ag16
aS'variable_45'
p692
ag21
aa(lp693
S'static'
p694
aS'int'
p695
aS'func_0'
p696
ag6
aS'variable_0'
p697
ag8
aS'variable_1'
p698
ag10
aS'variable_2'
p699
ag8
aS'variable_3'
p700
ag13
aS'variable_4'
p701
ag8
aS'variable_5'
p702
ag16
ag17
aS'variable_1'
p703
aS'->'
p704
aS'variable_5'
p705
ag21
aS'variable_6'
p706
ag8
aS'variable_7'
p707
ag16
aS'variable_1'
p708
aS'->'
p709
aS'variable_7'
p710
ag21
aS'variable_8'
p711
ag8
aS'variable_9'
p712
ag16
ag17
aS'variable_1'
p713
aS'->'
p714
aS'variable_9'
p715
ag21
aS'unsigned'
p716
aS'int'
p717
aS'variable_10'
p718
ag21
aS'unsigned'
p719
aS'int'
p720
aS'variable_11'
p721
ag38
ag39
ag40
ag21
aS'unsigned'
p722
aS'int'
p723
aS'variable_12'
p724
ag38
ag39
ag40
ag21
aS'unsigned'
p725
aS'int'
p726
aS'variable_13'
p727
ag10
aS'variable_14'
p728
ag10
aS'variable_15'
p729
ag21
aS'unsigned'
p730
aS'int'
p731
aS'variable_16'
p732
ag16
ag52
ag21
aS'unsigned'
p733
aS'int'
p734
aS'variable_17'
p735
ag21
aS'variable_18'
p736
ag8
aS'variable_19'
p737
ag21
ag8
aS'variable_3'
p738
aS'->'
p739
aS'variable_20'
p740
ag16
ag52
ag21
ag8
aS'variable_3'
p741
aS'->'
p742
aS'variable_17'
p743
ag16
ag64
ag21
aS'variable_3'
p744
aS'->'
p745
aS'variable_21'
p746
ag16
aS'func_1'
p747
ag6
aS'variable_9'
p748
ag13
ag21
aS'variable_17'
p749
ag16
ag8
aS'variable_3'
p750
aS'->'
p751
aS'variable_17'
p752
ag21
aS'if'
p753
ag6
ag75
aS'variable_5'
p754
aS'->'
p755
aS'variable_22'
p756
aS'&&'
p757
ag75
aS'variable_5'
p758
aS'->'
p759
aS'variable_23'
p760
ag13
aS'variable_14'
p761
ag16
ag52
ag21
aS'if'
p762
ag6
aS'variable_5'
p763
aS'->'
p764
aS'variable_22'
p765
aS'&&'
p766
aS'variable_5'
p767
aS'->'
p768
aS'variable_23'
p769
ag13
aS'variable_14'
p770
ag16
aS'func_2'
p771
ag6
aS'variable_9'
p772
ag10
ag95
ag13
ag21
aS'variable_14'
p773
ag16
ag95
ag8
aS'func_3'
p774
ag6
aS'variable_9'
p775
ag13
ag21
aS'variable_13'
p776
ag16
ag64
aS'<<'
p777
aS'variable_14'
p778
ag21
aS'if'
p779
ag6
aS'variable_3'
p780
aS'->'
p781
aS'variable_24'
p782
ag17
ag6
aS'variable_13'
p783
ag107
ag64
ag13
ag13
aS'if'
p784
ag6
aS'variable_5'
p785
aS'->'
p786
aS'variable_22'
p787
ag13
aS'variable_11'
p788
ag38
ag52
ag40
ag16
aS'func_4'
p789
ag6
aS'variable_9'
p790
ag10
ag39
ag115
ag6
aS'variable_5'
p791
aS'->'
p792
aS'variable_25'
p793
ag119
ag64
ag13
ag13
ag21
aS'for'
p794
ag6
aS'variable_10'
p795
ag16
ag64
ag21
aS'variable_10'
p796
ag123
aS'variable_13'
p797
ag21
aS'variable_10'
p798
aS'++'
p799
ag13
aS'variable_11'
p800
ag38
aS'variable_10'
p801
ag40
ag16
aS'variable_11'
p802
ag38
aS'variable_10'
p803
ag107
ag64
ag40
ag115
aS'func_5'
p804
ag6
aS'variable_9'
p805
ag10
ag95
ag13
ag21
aS'for'
p806
ag6
aS'variable_10'
p807
ag16
ag52
ag21
aS'variable_10'
p808
ag123
aS'variable_13'
p809
ag21
aS'variable_10'
p810
aS'++'
p811
ag13
aS'variable_12'
p812
ag38
aS'variable_10'
p813
ag40
ag16
aS'variable_11'
p814
ag38
aS'variable_10'
p815
ag40
ag17
aS'0x0F'
p816
ag21
aS'variable_11'
p817
ag38
aS'variable_10'
p818
ag40
aS'>>'
p819
ag16
ag147
ag21
aS'variable_11'
p820
ag38
ag52
ag40
ag16
aS'func_6'
p821
ag6
aS'variable_9'
p822
ag10
ag147
ag115
ag6
aS'variable_5'
p823
aS'->'
p824
aS'variable_25'
p825
ag119
ag64
ag13
ag13
ag21
aS'for'
p826
ag6
aS'variable_10'
p827
ag16
ag64
ag21
aS'variable_10'
p828
ag123
aS'variable_13'
p829
ag21
aS'variable_10'
p830
aS'++'
p831
ag13
aS'variable_11'
p832
ag38
aS'variable_10'
p833
ag40
ag16
aS'variable_11'
p834
ag38
aS'variable_10'
p835
ag107
ag64
ag40
ag115
aS'func_7'
p836
ag6
aS'variable_9'
p837
ag10
ag52
ag13
ag21
aS'if'
p838
ag6
aS'func_8'
p839
ag6
aS'variable_9'
p840
ag13
ag13
ag8
aS'variable_3'
p841
aS'->'
p842
aS'variable_26'
p843
ag16
aS'func_9'
p844
ag6
aS'variable_9'
p845
ag10
ag147
ag13
ag115
ag64
ag21
ag8
aS'variable_3'
p846
aS'->'
p847
aS'variable_27'
p848
ag16
ag6
aS'variable_3'
p849
aS'->'
p850
aS'variable_21'
p851
aS'&&'
p852
aS'variable_3'
p853
aS'->'
p854
aS'variable_28'
p855
ag13
aS'||'
p856
ag8
aS'variable_3'
p857
aS'->'
p858
aS'variable_26'
p859
ag21
aS'if'
p860
ag6
ag75
aS'variable_5'
p861
aS'->'
p862
aS'variable_29'
p863
ag13
aS'if'
p864
ag6
aS'variable_5'
p865
aS'->'
p866
aS'variable_30'
p867
ag13
aS'int'
p868
aS'variable_31'
p869
ag16
aS'func_10'
p870
ag6
aS'func_11'
p871
ag6
ag6
aS'variable_3'
p872
aS'->'
p873
aS'variable_24'
p874
aS'>>'
p875
ag204
ag13
ag107
ag64
ag10
ag95
ag10
aS'variable_5'
p876
aS'->'
p877
aS'variable_32'
p878
ag115
ag64
ag13
ag13
ag21
ag8
aS'variable_3'
p879
aS'->'
p880
aS'variable_17'
p881
ag16
aS'func_12'
p882
ag6
aS'variable_9'
p883
ag10
aS'variable_31'
p884
ag13
ag21
ag8
aS'variable_3'
p885
aS'->'
p886
aS'variable_17'
p887
ag16
aS'variable_5'
p888
aS'->'
p889
aS'variable_32'
p890
ag21
aS'variable_17'
p891
ag16
ag8
aS'variable_3'
p892
aS'->'
p893
aS'variable_17'
p894
ag21
aS'if'
p895
ag6
aS'variable_5'
p896
aS'->'
p897
aS'variable_33'
p898
ag13
ag8
aS'variable_3'
p899
aS'->'
p900
aS'variable_34'
p901
ag16
aS'func_13'
p902
ag6
aS'variable_9'
p903
ag13
ag21
aS'if'
p904
ag6
ag8
aS'variable_3'
p905
aS'->'
p906
aS'variable_34'
p907
ag13
aS'int'
p908
aS'variable_35'
p909
ag10
aS'variable_36'
p910
ag21
aS'variable_3'
p911
aS'->'
p912
aS'variable_37'
p913
ag38
ag52
ag40
ag16
aS'func_14'
p914
ag6
aS'variable_9'
p915
ag10
ag64
ag13
aS'<<'
p916
ag204
ag21
aS'variable_3'
p917
aS'->'
p918
aS'variable_37'
p919
ag38
ag64
ag40
ag16
aS'func_15'
p920
ag6
aS'variable_9'
p921
ag10
ag95
ag13
aS'<<'
p922
ag204
ag21
aS'variable_35'
p923
ag16
aS'func_16'
p924
ag6
aS'variable_9'
p925
ag10
ag52
ag10
ag147
ag13
ag21
aS'variable_36'
p926
ag16
aS'func_17'
p927
ag6
aS'variable_9'
p928
ag10
ag95
ag13
ag21
aS'variable_3'
p929
aS'->'
p930
aS'variable_37'
p931
ag38
ag95
ag40
ag16
aS'variable_38'
p932
ag38
aS'variable_35'
p933
ag40
ag38
aS'variable_36'
p934
ag40
ag21
aS'variable_3'
p935
aS'->'
p936
aS'variable_37'
p937
ag38
ag204
ag40
ag16
aS'func_18'
p938
ag6
aS'variable_9'
p939
ag10
ag95
ag13
aS'<<'
p940
ag204
ag21
aS'variable_3'
p941
aS'->'
p942
aS'variable_37'
p943
ag38
ag147
ag40
ag16
aS'func_19'
p944
ag6
aS'variable_9'
p945
ag10
ag64
ag13
aS'<<'
p946
ag204
ag21
ag8
aS'variable_3'
p947
aS'->'
p948
aS'variable_39'
p949
ag16
aS'func_20'
p950
ag6
aS'variable_9'
p951
ag10
aS'variable_1'
p952
aS'->'
p953
aS'variable_40'
p954
ag13
ag21
ag8
aS'variable_3'
p955
aS'->'
p956
aS'variable_39'
p957
aS'+='
p958
aS'func_21'
p959
ag6
ag147
ag10
aS'variable_17'
p960
ag115
ag64
ag13
ag21
aS'if'
p961
ag6
aS'variable_3'
p962
aS'->'
p963
aS'variable_41'
p964
ag13
aS'if'
p965
ag6
aS'variable_17'
p966
ag13
aS'variable_3'
p967
aS'->'
p968
aS'variable_42'
p969
ag38
ag52
ag40
ag16
aS'func_22'
p970
ag6
aS'variable_9'
p971
ag10
aS'variable_7'
p972
aS'->'
p973
aS'variable_43'
p974
ag107
ag147
ag13
ag21
aS'if'
p975
ag6
aS'variable_17'
p976
ag119
ag64
ag13
aS'variable_3'
p977
aS'->'
p978
aS'variable_42'
p979
ag38
ag64
ag40
ag16
aS'func_23'
p980
ag6
aS'variable_9'
p981
ag10
aS'func_24'
p982
ag6
aS'variable_11'
p983
ag38
ag52
ag40
ag115
ag204
ag10
aS'variable_1'
p984
aS'->'
p985
aS'variable_44'
p986
ag13
ag13
ag21
aS'if'
p987
ag6
aS'variable_17'
p988
ag119
ag95
ag13
aS'variable_3'
p989
aS'->'
p990
aS'variable_42'
p991
ag38
ag95
ag40
ag16
aS'func_25'
p992
ag6
aS'variable_9'
p993
ag10
aS'func_26'
p994
ag6
aS'variable_11'
p995
ag38
ag52
ag40
ag115
ag64
ag10
aS'variable_1'
p996
aS'->'
p997
aS'variable_44'
p998
ag13
ag13
ag21
aS'variable_16'
p999
ag16
aS'func_27'
p1000
ag6
aS'variable_17'
p1001
ag10
ag204
ag13
ag21
aS'if'
p1002
ag6
aS'variable_5'
p1003
aS'->'
p1004
aS'variable_22'
p1005
ag13
aS'variable_19'
p1006
ag16
aS'variable_3'
p1007
aS'->'
p1008
aS'variable_42'
p1009
ag115
aS'variable_16'
p1010
ag21
aS'func_28'
p1011
ag6
aS'variable_9'
p1012
ag10
aS'variable_15'
p1013
ag10
aS'variable_19'
p1014
ag10
aS'variable_45'
p1015
ag38
aS'variable_46'
p1016
ag40
ag10
aS'variable_12'
p1017
ag38
aS'variable_46'
p1018
ag40
ag10
ag17
aS'variable_47'
p1019
ag10
ag17
aS'variable_48'
p1020
ag10
ag17
aS'variable_49'
p1021
ag10
aS'variable_1'
p1022
aS'->'
p1023
aS'variable_50'
p1024
ag10
aS'variable_1'
p1025
aS'->'
p1026
aS'variable_51'
p1027
ag13
ag21
aS'variable_19'
p1028
aS'+='
p1029
aS'variable_15'
p1030
ag21
aS'int32_t'
p1031
aS'variable_52'
p1032
ag16
ag8
aS'variable_19'
p1033
ag21
aS'if'
p1034
ag6
aS'variable_52'
p1035
aS'=='
p1036
aS'variable_53'
p1037
ag13
aS'if'
p1038
ag6
aS'variable_52'
p1039
ag119
aS'variable_53'
p1040
ag13
aS'variable_52'
p1041
aS'--'
p1042
ag21
aS'if'
p1043
ag6
aS'variable_52'
p1044
ag17
ag64
ag13
aS'variable_52'
p1045
ag16
ag107
aS'variable_52'
p1046
ag21
aS'variable_52'
p1047
aS'>>'
p1048
ag16
ag64
ag21
aS'variable_52'
p1049
aS'<<'
p1050
ag16
aS'variable_54'
p1051
ag21
aS'variable_52'
p1052
ag686
ag16
aS'func_29'
p1053
ag6
aS'variable_9'
p1054
ag10
aS'variable_54'
p1055
ag13
ag21
ag8
aS'variable_19'
p1056
aS'++'
p1057
ag16
aS'variable_52'
p1058
ag21
aaa(lp1059
I0
aI0
aI0
aa(lp1060
I689
aI689
aI689
aa(lp1061
(lp1062
S'main'
p1063
aa(lp1064
g1063
aa(lp1065
g1063
aaa(lp1066
S'309 /home/SySeVR/data/CVE_2012_2790_VULN_read_var_block_data.c current_res = bd -> raw_samples + start 232'
p1067
aS'310 /home/SySeVR/data/CVE_2012_2790_VULN_read_var_block_data.c current_res = bd -> raw_samples + start 192'
p1068
aS'311 /home/SySeVR/data/CVE_2012_2790_VULN_read_var_block_data.c current_res = bd -> raw_samples + start 175'
p1069
aa.