(lp0
(lp1
(lp2
S'static'
p3
aS'void'
p4
aS'func_0'
p5
aS'('
p6
aS'void'
p7
aS'*'
p8
aS'variable_0'
p9
aS','
p10
aS'struct'
p11
aS'variable_1'
p12
ag8
aS'variable_2'
p13
ag10
aS'long'
p14
aS'variable_3'
p15
aS')'
p16
aS'struct'
p17
aS'variable_4'
p18
ag8
aS'variable_5'
p19
aS';'
p20
aS'struct'
p21
aS'variable_6'
p22
ag8
aS'variable_7'
p23
ag20
aS'struct'
p24
aS'variable_8'
p25
ag8
aS'variable_9'
p26
ag20
aS'int'
p27
aS'variable_10'
p28
ag20
aS'int'
p29
aS'variable_11'
p30
ag20
aS'variable_10'
p31
aS'='
p32
aS'func_1'
p33
ag6
aS'variable_12'
p34
ag10
aS'variable_2'
p35
ag16
ag20
aS'if'
p36
ag6
aS'variable_10'
p37
aS'<'
p38
aS'0'
p39
aS'||'
p40
aS'variable_10'
p41
aS'>'
p42
ag32
aS'variable_13'
p43
ag16
aS'if'
p44
ag6
aS'!'
p45
aS'func_2'
p46
ag6
aS'variable_10'
p47
ag10
aS'variable_14'
p48
ag16
ag16
aS'variable_5'
p49
ag32
aS'func_3'
p50
ag6
aS'variable_10'
p51
ag16
ag20
aS'if'
p52
ag6
ag45
aS'variable_5'
p53
ag16
aS'variable_9'
p54
ag32
aS'func_4'
p55
ag6
aS'variable_5'
p56
aS'->'
p57
aS'variable_15'
p58
aS'->'
p59
aS'variable_16'
p60
ag16
ag20
aS'if'
p61
ag6
aS'func_5'
p62
ag6
aS'variable_9'
p63
ag16
ag16
aS'variable_11'
p64
ag32
aS'sizeof'
p65
ag6
aS'unsigned'
p66
aS'long'
p67
ag16
ag8
aS'variable_5'
p68
aS'->'
p69
aS'variable_17'
p70
aS'+'
p71
aS'sizeof'
p72
ag6
ag8
aS'variable_7'
p73
ag16
ag20
aS'variable_11'
p74
ag32
aS'func_6'
p75
ag6
aS'variable_11'
p76
ag71
aS'sizeof'
p77
ag6
aS'variable_18'
p78
ag16
ag10
aS'sizeof'
p79
ag6
aS'variable_19'
p80
ag16
ag16
ag20
aS'variable_11'
p81
aS'-='
p82
aS'sizeof'
p83
ag6
aS'variable_18'
p84
ag16
ag20
aS'variable_7'
p85
ag32
ag6
aS'struct'
p86
aS'syscall_trace_enter'
p87
ag8
ag16
aS'func_7'
p88
ag6
aS'variable_11'
p89
ag10
aS'variable_5'
p90
aS'->'
p91
aS'variable_15'
p92
aS'->'
p93
aS'variable_20'
p94
aS'.'
p95
aS'variable_21'
p96
ag10
aS'variable_2'
p97
ag10
aS'&'
p98
aS'variable_22'
p99
ag16
ag20
aS'if'
p100
ag6
ag45
aS'variable_7'
p101
ag16
aS'variable_7'
p102
aS'->'
p103
aS'variable_23'
p104
ag32
aS'variable_10'
p105
ag20
aS'func_8'
p106
ag6
aS'variable_12'
p107
ag10
aS'variable_2'
p108
ag10
ag39
ag10
aS'variable_5'
p109
aS'->'
p110
aS'variable_17'
p111
ag10
ag6
aS'unsigned'
p112
aS'long'
p113
ag8
ag16
ag98
aS'variable_7'
p114
aS'->'
p115
aS'variable_24'
p116
ag16
ag20
aS'func_9'
p117
ag6
aS'variable_7'
p118
ag10
aS'variable_11'
p119
ag10
aS'variable_22'
p120
ag10
ag39
ag10
aS'1'
p121
ag10
aS'variable_2'
p122
ag10
aS'variable_9'
p123
ag10
aS'NULL'
p124
ag16
ag20
aaa(lp125
I0
aa(lp126
I123
aa(lp127
(lp128
S'main'
p129
aaa(lp130
S'630 /home/SySeVR/data/CVE_2014_7825_PATCHED_perf_syscall_enter.c size = ALIGN ( size + sizeof ( u32 ) , sizeof ( u64 ) ) 26'
p131
aa.