(lp0
(lp1
(lp2
S'static'
p3
aS'int'
p4
aS'func_0'
p5
aS'('
p6
aS'variable_0'
p7
aS'*'
p8
aS'variable_1'
p9
aS','
p10
aS'variable_2'
p11
ag8
aS'variable_3'
p12
aS')'
p13
aS'variable_4'
p14
ag8
aS'variable_5'
p15
aS'='
p16
aS'variable_1'
p17
aS'->'
p18
aS'variable_6'
p19
aS';'
p20
aS'variable_7'
p21
ag8
aS'variable_8'
p22
ag16
aS'variable_5'
p23
aS'->'
p24
aS'variable_9'
p25
ag20
aS'variable_0'
p26
ag8
aS'variable_10'
p27
ag16
aS'variable_5'
p28
aS'->'
p29
aS'variable_11'
p30
aS'['
p31
aS'0'
p32
aS']'
p33
ag20
aS'int64_t'
p34
aS'variable_12'
p35
ag20
aS'int'
p36
aS'variable_13'
p37
ag10
aS'variable_14'
p38
ag20
aS'variable_8'
p39
aS'->'
p40
aS'variable_15'
p41
aS'++'
p42
ag20
aS'if'
p43
ag6
aS'variable_8'
p44
aS'->'
p45
aS'variable_16'
p46
aS'=='
p47
aS'variable_17'
p48
ag13
aS'if'
p49
ag6
aS'variable_3'
p50
aS'->'
p51
aS'variable_16'
p52
aS'=='
p53
aS'variable_17'
p54
aS'||'
p55
aS'func_1'
p56
ag6
aS'variable_8'
p57
aS'->'
p58
aS'variable_18'
p59
ag13
aS'<'
p60
ag16
ag32
ag13
aS'variable_12'
p61
ag16
aS'func_2'
p62
ag6
aS'variable_3'
p63
aS'->'
p64
aS'variable_16'
p65
aS'-'
p66
aS'variable_8'
p67
aS'->'
p68
aS'variable_16'
p69
ag10
aS'variable_1'
p70
aS'->'
p71
aS'variable_19'
p72
ag10
aS'variable_10'
p73
aS'->'
p74
aS'variable_19'
p75
ag10
aS'variable_8'
p76
aS'->'
p77
aS'variable_20'
p78
ag13
ag20
aS'if'
p79
ag6
aS'variable_12'
p80
ag60
aS'1'
p81
ag13
aS'for'
p82
ag6
aS'variable_13'
p83
ag16
ag32
ag20
aS'variable_13'
p84
ag60
aS'variable_12'
p85
ag20
aS'variable_13'
p86
aS'++'
p87
ag13
aS'variable_2'
p88
ag8
aS'variable_21'
p89
ag20
aS'if'
p90
ag6
aS'!'
p91
aS'func_3'
p92
ag6
aS'variable_8'
p93
aS'->'
p94
aS'variable_18'
p95
ag13
aS'&&'
p96
aS'variable_13'
p97
ag60
aS'variable_12'
p98
ag66
ag81
ag13
aS'variable_2'
p99
ag8
aS'variable_22'
p100
ag16
aS'func_4'
p101
ag6
aS'variable_21'
p102
ag13
ag20
aS'if'
p103
ag6
aS'variable_22'
p104
ag13
aS'variable_14'
p105
ag16
aS'func_5'
p106
ag6
aS'variable_8'
p107
aS'->'
p108
aS'variable_18'
p109
ag10
aS'variable_22'
p110
ag13
ag20
aS'variable_14'
p111
ag16
aS'func_6'
p112
ag6
aS'variable_23'
p113
ag13
ag20
aS'if'
p114
ag6
aS'variable_14'
p115
ag60
ag32
ag13
aS'variable_8'
p116
aS'->'
p117
aS'variable_22'
p118
aS'++'
p119
ag20
aS'variable_21'
p120
aS'->'
p121
aS'variable_16'
p122
ag16
aS'func_7'
p123
ag6
aS'variable_8'
p124
aS'->'
p125
aS'variable_24'
p126
ag10
aS'variable_1'
p127
aS'->'
p128
aS'variable_19'
p129
ag10
aS'variable_10'
p130
aS'->'
p131
aS'variable_19'
p132
ag13
aS'+'
p133
aS'variable_8'
p134
aS'->'
p135
aS'variable_25'
p136
ag20
aS'if'
p137
ag6
ag6
aS'variable_14'
p138
ag16
aS'func_8'
p139
ag6
aS'variable_10'
p140
ag10
aS'variable_21'
p141
ag13
ag13
ag60
ag32
ag13
aS'variable_8'
p142
aS'->'
p143
aS'variable_25'
p144
aS'++'
p145
ag20
aS'variable_8'
p146
aS'->'
p147
aS'variable_16'
p148
ag16
aS'variable_8'
p149
aS'->'
p150
aS'variable_24'
p151
ag133
aS'func_9'
p152
ag6
aS'variable_8'
p153
aS'->'
p154
aS'variable_25'
p155
ag10
aS'variable_10'
p156
aS'->'
p157
aS'variable_19'
p158
ag10
aS'variable_1'
p159
aS'->'
p160
aS'variable_19'
p161
ag13
ag20
aa(lp162
S'static'
p163
aS'int'
p164
aS'func_0'
p165
ag6
aS'variable_0'
p166
ag8
aS'variable_1'
p167
ag10
aS'variable_2'
p168
ag8
aS'variable_3'
p169
ag13
aS'variable_4'
p170
ag8
aS'variable_5'
p171
ag16
aS'variable_1'
p172
aS'->'
p173
aS'variable_6'
p174
ag20
aS'variable_7'
p175
ag8
aS'variable_8'
p176
ag16
aS'variable_5'
p177
aS'->'
p178
aS'variable_9'
p179
ag20
aS'variable_0'
p180
ag8
aS'variable_10'
p181
ag16
aS'variable_5'
p182
aS'->'
p183
aS'variable_11'
p184
ag31
ag32
ag33
ag20
aS'int64_t'
p185
aS'variable_12'
p186
ag20
aS'variable_8'
p187
aS'->'
p188
aS'variable_13'
p189
aS'++'
p190
ag20
aS'if'
p191
ag6
aS'variable_8'
p192
aS'->'
p193
aS'variable_14'
p194
aS'=='
p195
aS'variable_15'
p196
ag13
aS'if'
p197
ag6
aS'variable_3'
p198
aS'->'
p199
aS'variable_14'
p200
aS'=='
p201
aS'variable_15'
p202
aS'||'
p203
aS'func_1'
p204
ag6
aS'variable_8'
p205
aS'->'
p206
aS'variable_16'
p207
ag13
ag60
ag16
ag32
ag13
aS'variable_12'
p208
ag16
aS'func_2'
p209
ag6
aS'variable_3'
p210
aS'->'
p211
aS'variable_14'
p212
ag66
aS'variable_8'
p213
aS'->'
p214
aS'variable_14'
p215
ag10
aS'variable_1'
p216
aS'->'
p217
aS'variable_17'
p218
ag10
aS'variable_10'
p219
aS'->'
p220
aS'variable_17'
p221
ag10
aS'variable_8'
p222
aS'->'
p223
aS'variable_18'
p224
ag13
ag20
aS'if'
p225
ag6
aS'variable_12'
p226
ag60
ag81
ag13
aS'for'
p227
ag6
aS'variable_19'
p228
ag16
ag32
ag20
aS'variable_19'
p229
ag60
aS'variable_12'
p230
ag20
aS'variable_19'
p231
aS'++'
p232
ag13
aS'if'
p233
ag6
ag91
aS'func_3'
p234
ag6
aS'variable_8'
p235
aS'->'
p236
aS'variable_16'
p237
ag13
aS'&&'
p238
aS'variable_19'
p239
ag60
aS'variable_12'
p240
ag66
ag81
ag13
aaa(lp241
I0
aI0
aa(lp242
I247
aI95
aa(lp243
(lp244
S'main'
p245
aa(lp246
g245
aaa(lp247
S'580 /home/SySeVR/data/CVE_2013_7021_PATCHED_filter_frame.c s -> pts = s -> first_pts + av_rescale_q ( s -> frames_out , outlink -> time_base , inlink -> time_base ) 89'
p248
aS'581 /home/SySeVR/data/CVE_2013_7021_PATCHED_filter_frame.c delta = av_rescale_q_rnd ( buf -> pts - s -> pts , inlink -> time_base , outlink -> time_base , s -> rounding ) 33'
p249
aa.