(lp0
(lp1
(lp2
S'func_0'
p3
aS'('
p4
aS'struct'
p5
aS'variable_0'
p6
aS'*'
p7
aS'variable_0'
p8
aS','
p9
aS'const'
p10
aS'void'
p11
ag7
aS'variable_1'
p12
ag9
aS'size_t'
p13
aS'variable_2'
p14
aS')'
p15
aS'struct'
p16
aS'variable_3'
p17
ag7
aS'variable_4'
p18
aS';'
p19
aS'unsigned'
p20
aS'long'
p21
aS'variable_5'
p22
ag19
aS'int'
p23
aS'variable_6'
p24
ag19
aS'const'
p25
aS'char'
p26
ag7
aS'variable_7'
p27
aS'='
p28
aS'variable_1'
p29
ag9
ag7
aS'variable_8'
p30
ag9
ag7
aS'variable_9'
p31
ag19
aS'if'
p32
ag4
aS'variable_2'
p33
aS'<'
p34
ag28
aS'1'
p35
aS'||'
p36
aS'!'
p37
aS'variable_7'
p38
aS'||'
p39
aS'variable_7'
p40
aS'['
p41
aS'variable_2'
p42
aS'-'
p43
ag35
aS']'
p44
aS'!='
p45
aS"'"
p46
aS'\\'
p47
aS'0'
p48
ag46
ag15
aS'variable_2'
p49
aS'--'
p50
ag19
aS'variable_8'
p51
ag28
aS'variable_7'
p52
aS'+'
p53
aS'variable_2'
p54
ag19
aS'variable_9'
p55
ag28
aS'memchr'
p56
ag4
aS'variable_7'
p57
ag9
ag46
aS'#'
p58
ag46
ag9
aS'variable_2'
p59
ag15
ag19
aS'if'
p60
ag4
ag37
aS'variable_9'
p61
ag15
aS'variable_10'
p62
ag28
aS'variable_2'
p63
ag19
aS'const'
p64
aS'char'
p65
ag7
aS'variable_11'
p66
ag19
aS'variable_10'
p67
ag28
aS'variable_9'
p68
ag43
aS'variable_7'
p69
ag19
aS'variable_9'
p70
aS'++'
p71
ag19
aS'const'
p72
aS'char'
p73
ag7
aS'variable_12'
p74
ag19
aS'int'
p75
aS'variable_13'
p76
ag9
aS'variable_14'
p77
ag9
aS'variable_15'
p78
ag9
aS'variable_16'
p79
ag19
aS'variable_11'
p80
ag28
aS'memchr'
p81
ag4
aS'variable_9'
p82
ag9
ag46
ag58
ag46
ag9
aS'variable_8'
p83
ag43
aS'variable_9'
p84
ag15
aS'?'
p85
aS':'
p86
aS'variable_13'
p87
ag28
aS'variable_11'
p88
ag43
aS'variable_9'
p89
ag19
aS'if'
p90
ag4
ag37
aS'variable_13'
p91
ag15
aS'variable_12'
p92
ag28
aS'memchr'
p93
ag4
aS'variable_9'
p94
ag9
ag46
ag28
ag46
ag9
aS'variable_13'
p95
ag15
ag85
ag86
aS'variable_14'
p96
ag28
aS'variable_12'
p97
ag43
aS'variable_9'
p98
ag19
aS'variable_12'
p99
aS'++'
p100
ag19
aS'variable_15'
p101
ag28
aS'variable_11'
p102
ag43
aS'variable_12'
p103
ag19
aS'if'
p104
ag4
aS'variable_14'
p105
aS'=='
p106
aS'sizeof'
p107
ag4
aS'variable_17'
p108
ag15
ag43
ag35
aS'&&'
p109
aS'memcmp'
p110
ag4
aS'variable_9'
p111
ag9
aS'variable_17'
p112
ag9
aS'variable_14'
p113
ag15
aS'=='
p114
ag48
ag15
aS'if'
p115
ag4
aS'variable_15'
p116
ag34
ag28
ag48
ag15
aS'variable_6'
p117
ag28
aS'func_1'
p118
ag4
aS'variable_12'
p119
ag9
aS'10'
p120
ag9
aS'&'
p121
aS'variable_5'
p122
ag15
ag19
aS'if'
p123
ag4
aS'variable_6'
p124
ag34
ag48
ag15
aS'if'
p125
ag4
aS'variable_5'
p126
ag34
ag35
aS'||'
p127
aS'variable_5'
p128
aS'>'
p129
aS'511'
p130
ag15
aS'variable_0'
p131
aS'->'
p132
aS'variable_18'
p133
aS'.'
p134
aS'variable_19'
p135
ag41
ag48
ag44
ag28
ag43
aS'variable_5'
p136
ag19
aS'while'
p137
ag4
aS'variable_9'
p138
ag28
aS'variable_11'
p139
ag53
ag35
ag9
aS'variable_9'
p140
ag34
aS'variable_8'
p141
ag15
aS'if'
p142
ag4
aS'variable_0'
p143
aS'->'
p144
aS'variable_18'
p145
ag134
aS'variable_19'
p146
ag41
ag48
ag44
ag15
aS'variable_6'
p147
ag28
aS'func_2'
p148
ag4
aS'variable_0'
p149
ag9
aS'variable_10'
p150
ag15
ag19
aS'if'
p151
ag4
aS'variable_6'
p152
ag34
ag48
ag15
aS'variable_4'
p153
ag28
aS'kmalloc'
p154
ag4
aS'sizeof'
p155
ag4
ag7
aS'variable_4'
p156
ag15
ag53
aS'variable_10'
p157
ag53
ag35
ag9
aS'variable_20'
p158
ag15
ag19
aS'if'
p159
ag4
ag37
aS'variable_4'
p160
ag15
aS'variable_4'
p161
aS'->'
p162
aS'variable_2'
p163
ag28
aS'variable_10'
p164
ag19
aS'memcpy'
p165
ag4
aS'variable_4'
p166
aS'->'
p167
aS'variable_7'
p168
ag9
aS'variable_7'
p169
ag9
aS'variable_10'
p170
ag15
ag19
aS'variable_4'
p171
aS'->'
p172
aS'variable_7'
p173
ag41
aS'variable_10'
p174
ag44
ag28
ag46
ag47
ag48
ag46
ag19
aS'func_3'
p175
ag4
aS'variable_0'
p176
aS'->'
p177
aS'variable_21'
p178
ag134
aS'variable_7'
p179
ag9
aS'variable_4'
p180
ag15
ag19
aaa(lp181
I0
aa(lp182
I310
aa(lp183
(lp184
S'main'
p185
aaa(lp186
S'463 /home/SySeVR/data/CVE_2011_1076_PATCHED_dns_resolver_instantiate.c memcpy 101'
p187
aa.