(lp0
(lp1
(lp2
S'func_0'
p3
aS'('
p4
aS'struct'
p5
aS'variable_0'
p6
aS'*'
p7
aS'variable_0'
p8
aS','
p9
aS'const'
p10
aS'void'
p11
ag7
aS'variable_1'
p12
ag9
aS'size_t'
p13
aS'variable_2'
p14
aS')'
p15
aS'unsigned'
p16
aS'long'
p17
aS'variable_3'
p18
aS';'
p19
aS'int'
p20
aS'variable_4'
p21
ag19
aS'const'
p22
aS'char'
p23
ag7
aS'variable_5'
p24
aS'='
p25
aS'variable_1'
p26
ag9
ag7
aS'variable_6'
p27
ag9
ag7
aS'variable_7'
p28
ag19
aS'if'
p29
ag4
aS'variable_2'
p30
aS'<'
p31
ag25
aS'1'
p32
aS'||'
p33
aS'!'
p34
aS'variable_5'
p35
aS'||'
p36
aS'variable_5'
p37
aS'['
p38
aS'variable_2'
p39
aS'-'
p40
ag32
aS']'
p41
aS'!='
p42
aS"'"
p43
aS'\\'
p44
aS'0'
p45
ag43
ag15
aS'variable_2'
p46
aS'--'
p47
ag19
aS'variable_6'
p48
ag25
aS'variable_5'
p49
aS'+'
p50
aS'variable_2'
p51
ag19
aS'variable_7'
p52
ag25
aS'memchr'
p53
ag4
aS'variable_5'
p54
ag9
ag43
aS'#'
p55
ag43
ag9
aS'variable_2'
p56
ag15
ag19
aS'if'
p57
ag4
ag34
aS'variable_7'
p58
ag15
aS'const'
p59
aS'char'
p60
ag7
aS'variable_8'
p61
ag19
aS'variable_7'
p62
aS'++'
p63
ag19
aS'const'
p64
aS'char'
p65
ag7
aS'variable_9'
p66
ag19
aS'int'
p67
aS'variable_10'
p68
ag9
aS'variable_11'
p69
ag9
aS'variable_12'
p70
ag9
aS'variable_13'
p71
ag19
aS'variable_8'
p72
ag25
aS'memchr'
p73
ag4
aS'variable_7'
p74
ag9
ag43
ag55
ag43
ag9
aS'variable_6'
p75
ag40
aS'variable_7'
p76
ag15
aS'?'
p77
aS':'
p78
aS'variable_10'
p79
ag25
aS'variable_8'
p80
ag40
aS'variable_7'
p81
ag19
aS'if'
p82
ag4
ag34
aS'variable_10'
p83
ag15
aS'variable_9'
p84
ag25
aS'memchr'
p85
ag4
aS'variable_7'
p86
ag9
ag43
ag25
ag43
ag9
aS'variable_10'
p87
ag15
ag77
ag78
aS'variable_11'
p88
ag25
aS'variable_9'
p89
ag40
aS'variable_7'
p90
ag19
aS'variable_9'
p91
aS'++'
p92
ag19
aS'variable_12'
p93
ag25
aS'variable_8'
p94
ag40
aS'variable_9'
p95
ag19
aS'variable_13'
p96
ag25
aS'variable_12'
p97
aS'>'
p98
ag25
ag45
ag77
aS'variable_12'
p99
ag78
ag45
ag19
aS'func_1'
p100
ag4
aS'"'
p101
aS'option'
p102
ag43
aS'%'
p103
ag7
aS'.'
p104
ag7
aS's'
p105
ag43
aS'val'
p106
ag43
ag103
ag7
ag104
ag7
ag105
ag43
ag101
ag9
aS'variable_11'
p107
ag9
aS'variable_11'
p108
ag9
aS'variable_7'
p109
ag9
aS'variable_13'
p110
ag9
aS'variable_13'
p111
ag9
aS'variable_9'
p112
ag15
ag19
aS'if'
p113
ag4
aS'variable_11'
p114
aS'=='
p115
aS'sizeof'
p116
ag4
aS'variable_14'
p117
ag15
ag40
ag32
aS'&&'
p118
aS'memcmp'
p119
ag4
aS'variable_7'
p120
ag9
aS'variable_14'
p121
ag9
aS'variable_11'
p122
ag15
aS'=='
p123
ag45
ag15
aS'if'
p124
ag4
aS'variable_12'
p125
ag31
ag25
ag45
ag15
aS'variable_4'
p126
ag25
aS'func_2'
p127
ag4
aS'variable_9'
p128
ag9
aS'10'
p129
ag9
aS'&'
p130
aS'variable_3'
p131
ag15
ag19
aS'if'
p132
ag4
aS'variable_4'
p133
ag31
ag45
ag15
aS'if'
p134
ag4
aS'variable_3'
p135
ag31
ag32
aS'||'
p136
aS'variable_3'
p137
ag98
aS'511'
p138
ag15
aS'while'
p139
ag4
aS'variable_7'
p140
ag25
aS'variable_8'
p141
ag50
ag32
ag9
aS'variable_7'
p142
ag31
aS'variable_6'
p143
ag15
aa(lp144
S'func_0'
p145
ag4
aS'struct'
p146
aS'variable_0'
p147
ag7
aS'variable_0'
p148
ag9
aS'const'
p149
aS'void'
p150
ag7
aS'variable_1'
p151
ag9
aS'size_t'
p152
aS'variable_2'
p153
ag15
aS'unsigned'
p154
aS'long'
p155
aS'variable_3'
p156
ag19
aS'int'
p157
aS'variable_4'
p158
ag19
aS'const'
p159
aS'char'
p160
ag7
aS'variable_5'
p161
ag25
aS'variable_1'
p162
ag9
ag7
aS'variable_6'
p163
ag9
ag7
aS'variable_7'
p164
ag19
aS'if'
p165
ag4
aS'variable_2'
p166
ag31
ag25
ag32
aS'||'
p167
ag34
aS'variable_5'
p168
aS'||'
p169
aS'variable_5'
p170
ag38
aS'variable_2'
p171
ag40
ag32
ag41
aS'!='
p172
ag43
ag44
ag45
ag43
ag15
aS'variable_2'
p173
aS'--'
p174
ag19
aS'variable_6'
p175
ag25
aS'variable_5'
p176
ag50
aS'variable_2'
p177
ag19
aS'variable_7'
p178
ag25
aS'memchr'
p179
ag4
aS'variable_5'
p180
ag9
ag43
ag55
ag43
ag9
aS'variable_2'
p181
ag15
ag19
aS'if'
p182
ag4
ag34
aS'variable_7'
p183
ag15
aS'const'
p184
aS'char'
p185
ag7
aS'variable_8'
p186
ag19
aS'variable_7'
p187
aS'++'
p188
ag19
aS'const'
p189
aS'char'
p190
ag7
aS'variable_9'
p191
ag19
aS'int'
p192
aS'variable_10'
p193
ag9
aS'variable_11'
p194
ag9
aS'variable_12'
p195
ag9
aS'variable_13'
p196
ag19
aS'variable_8'
p197
ag25
aS'memchr'
p198
ag4
aS'variable_7'
p199
ag9
ag43
ag55
ag43
ag9
aS'variable_6'
p200
ag40
aS'variable_7'
p201
ag15
ag77
ag78
aS'variable_10'
p202
ag25
aS'variable_8'
p203
ag40
aS'variable_7'
p204
ag19
aS'if'
p205
ag4
ag34
aS'variable_10'
p206
ag15
aS'variable_9'
p207
ag25
aS'memchr'
p208
ag4
aS'variable_7'
p209
ag9
ag43
ag25
ag43
ag9
aS'variable_10'
p210
ag15
ag77
ag78
aS'variable_11'
p211
ag25
aS'variable_9'
p212
ag40
aS'variable_7'
p213
ag19
aS'variable_9'
p214
aS'++'
p215
ag19
aS'variable_12'
p216
ag25
aS'variable_8'
p217
ag40
aS'variable_9'
p218
ag19
aS'func_1'
p219
ag4
ag101
aS'option'
p220
ag43
ag103
ag7
ag104
ag7
ag105
ag43
aS'val'
p221
ag43
ag103
ag7
ag104
ag7
ag105
ag43
ag101
ag9
aS'variable_11'
p222
ag9
aS'variable_11'
p223
ag9
aS'variable_7'
p224
ag9
aS'variable_13'
p225
ag9
aS'variable_13'
p226
ag9
aS'variable_9'
p227
ag15
ag19
aS'if'
p228
ag4
aS'variable_11'
p229
aS'=='
p230
aS'sizeof'
p231
ag4
aS'variable_14'
p232
ag15
ag40
ag32
aS'&&'
p233
aS'memcmp'
p234
ag4
aS'variable_7'
p235
ag9
aS'variable_14'
p236
ag9
aS'variable_11'
p237
ag15
aS'=='
p238
ag45
ag15
aS'if'
p239
ag4
aS'variable_12'
p240
ag31
ag25
ag45
ag15
aS'variable_4'
p241
ag25
aS'func_2'
p242
ag4
aS'variable_9'
p243
ag9
aS'10'
p244
ag9
ag130
aS'variable_3'
p245
ag15
ag19
aS'if'
p246
ag4
aS'variable_4'
p247
ag31
ag45
ag15
aS'if'
p248
ag4
aS'variable_3'
p249
ag31
ag32
aS'||'
p250
aS'variable_3'
p251
ag98
aS'511'
p252
ag15
aS'func_3'
p253
ag4
ag101
aS'bad'
p254
aS'/'
p255
aS'missing'
p256
aS'value'
p257
ag44
aS'n'
p258
ag101
aS'variable_11'
p259
ag9
aS'variable_11'
p260
ag9
aS'variable_7'
p261
ag9
aS'variable_0'
p262
aS'->'
p263
aS'variable_15'
p264
ag15
aS'while'
p265
ag4
aS'variable_7'
p266
ag25
aS'variable_8'
p267
ag50
ag32
ag9
aS'variable_7'
p268
ag31
aS'variable_6'
p269
ag15
aa(lp270
S'func_0'
p271
ag4
aS'struct'
p272
aS'variable_0'
p273
ag7
aS'variable_0'
p274
ag9
aS'const'
p275
aS'void'
p276
ag7
aS'variable_1'
p277
ag9
aS'size_t'
p278
aS'variable_2'
p279
ag15
aS'unsigned'
p280
aS'long'
p281
aS'variable_3'
p282
ag19
aS'int'
p283
aS'variable_4'
p284
ag19
aS'const'
p285
aS'char'
p286
ag7
aS'variable_5'
p287
ag25
aS'variable_1'
p288
ag9
ag7
aS'variable_6'
p289
ag9
ag7
aS'variable_7'
p290
ag19
aS'if'
p291
ag4
aS'variable_2'
p292
ag31
ag25
ag32
aS'||'
p293
ag34
aS'variable_5'
p294
aS'||'
p295
aS'variable_5'
p296
ag38
aS'variable_2'
p297
ag40
ag32
ag41
aS'!='
p298
ag43
ag44
ag45
ag43
ag15
aS'variable_2'
p299
aS'--'
p300
ag19
aS'variable_6'
p301
ag25
aS'variable_5'
p302
ag50
aS'variable_2'
p303
ag19
aS'variable_7'
p304
ag25
aS'memchr'
p305
ag4
aS'variable_5'
p306
ag9
ag43
ag55
ag43
ag9
aS'variable_2'
p307
ag15
ag19
aS'if'
p308
ag4
ag34
aS'variable_7'
p309
ag15
aS'const'
p310
aS'char'
p311
ag7
aS'variable_8'
p312
ag19
aS'variable_7'
p313
aS'++'
p314
ag19
aS'const'
p315
aS'char'
p316
ag7
aS'variable_9'
p317
ag19
aS'int'
p318
aS'variable_10'
p319
ag9
aS'variable_11'
p320
ag9
aS'variable_12'
p321
ag9
aS'variable_13'
p322
ag19
aS'variable_8'
p323
ag25
aS'memchr'
p324
ag4
aS'variable_7'
p325
ag9
ag43
ag55
ag43
ag9
aS'variable_6'
p326
ag40
aS'variable_7'
p327
ag15
ag77
ag78
aS'variable_10'
p328
ag25
aS'variable_8'
p329
ag40
aS'variable_7'
p330
ag19
aS'if'
p331
ag4
ag34
aS'variable_10'
p332
ag15
aS'variable_9'
p333
ag25
aS'memchr'
p334
ag4
aS'variable_7'
p335
ag9
ag43
ag25
ag43
ag9
aS'variable_10'
p336
ag15
ag77
ag78
aS'variable_11'
p337
ag25
aS'variable_9'
p338
ag40
aS'variable_7'
p339
ag19
aS'variable_9'
p340
aS'++'
p341
ag19
aS'variable_12'
p342
ag25
aS'variable_8'
p343
ag40
aS'variable_9'
p344
ag19
aS'variable_13'
p345
ag25
aS'variable_12'
p346
ag98
ag25
ag45
ag77
aS'variable_12'
p347
ag78
ag45
ag19
aS'func_1'
p348
ag4
ag101
aS'option'
p349
ag43
ag103
ag7
ag104
ag7
ag105
ag43
aS'val'
p350
ag43
ag103
ag7
ag104
ag7
ag105
ag43
ag101
ag9
aS'variable_11'
p351
ag9
aS'variable_11'
p352
ag9
aS'variable_7'
p353
ag9
aS'variable_13'
p354
ag9
aS'variable_13'
p355
ag9
aS'variable_9'
p356
ag15
ag19
aS'if'
p357
ag4
aS'variable_11'
p358
aS'=='
p359
aS'sizeof'
p360
ag4
aS'variable_14'
p361
ag15
ag40
ag32
aS'&&'
p362
aS'memcmp'
p363
ag4
aS'variable_7'
p364
ag9
aS'variable_14'
p365
ag9
aS'variable_11'
p366
ag15
aS'=='
p367
ag45
ag15
aS'if'
p368
ag4
aS'variable_12'
p369
ag31
ag25
ag45
ag15
aS'variable_4'
p370
ag25
aS'func_2'
p371
ag4
aS'variable_9'
p372
ag9
aS'10'
p373
ag9
ag130
aS'variable_3'
p374
ag15
ag19
aS'if'
p375
ag4
aS'variable_4'
p376
ag31
ag45
ag15
aS'if'
p377
ag4
aS'variable_3'
p378
ag31
ag32
aS'||'
p379
aS'variable_3'
p380
ag98
aS'511'
p381
ag15
aS'func_3'
p382
ag4
ag101
aS'bad'
p383
ag255
aS'missing'
p384
aS'value'
p385
ag44
ag258
ag101
aS'variable_11'
p386
ag9
aS'variable_11'
p387
ag9
aS'variable_7'
p388
ag9
aS'variable_0'
p389
aS'->'
p390
aS'variable_15'
p391
ag15
aS'while'
p392
ag4
aS'variable_7'
p393
ag25
aS'variable_8'
p394
ag50
ag32
ag9
aS'variable_7'
p395
ag31
aS'variable_6'
p396
ag15
aS'if'
p397
ag4
aS'variable_4'
p398
ag31
ag45
ag15
aa(lp399
S'func_0'
p400
ag4
aS'struct'
p401
aS'variable_0'
p402
ag7
aS'variable_0'
p403
ag9
aS'const'
p404
aS'void'
p405
ag7
aS'variable_1'
p406
ag9
aS'size_t'
p407
aS'variable_2'
p408
ag15
aS'const'
p409
aS'char'
p410
ag7
aS'variable_3'
p411
ag25
aS'variable_1'
p412
ag9
ag7
aS'variable_4'
p413
ag9
ag7
aS'variable_5'
p414
ag19
aS'if'
p415
ag4
aS'variable_2'
p416
ag31
ag25
ag32
aS'||'
p417
ag34
aS'variable_3'
p418
aS'||'
p419
aS'variable_3'
p420
ag38
aS'variable_2'
p421
ag40
ag32
ag41
aS'!='
p422
ag43
ag44
ag45
ag43
ag15
aS'variable_2'
p423
aS'--'
p424
ag19
aS'variable_5'
p425
ag25
aS'memchr'
p426
ag4
aS'variable_3'
p427
ag9
ag43
ag55
ag43
ag9
aS'variable_2'
p428
ag15
ag19
aS'if'
p429
ag4
ag34
aS'variable_5'
p430
ag15
aS'variable_6'
p431
ag25
aS'variable_5'
p432
ag40
aS'variable_3'
p433
ag19
aS'variable_7'
p434
ag25
aS'func_1'
p435
ag4
aS'variable_0'
p436
ag9
aS'variable_6'
p437
ag15
ag19
aS'if'
p438
ag4
aS'variable_7'
p439
ag31
ag45
ag15
aS'variable_8'
p440
ag25
aS'kmalloc'
p441
ag4
aS'sizeof'
p442
ag4
ag7
aS'variable_8'
p443
ag15
ag50
aS'variable_6'
p444
ag50
ag32
ag9
aS'variable_9'
p445
ag15
ag19
aS'if'
p446
ag4
ag34
aS'variable_8'
p447
ag15
aS'variable_8'
p448
aS'->'
p449
aS'variable_2'
p450
ag25
aS'variable_6'
p451
ag19
aS'memcpy'
p452
ag4
aS'variable_8'
p453
aS'->'
p454
aS'variable_3'
p455
ag9
aS'variable_3'
p456
ag9
aS'variable_6'
p457
ag15
ag19
aS'variable_8'
p458
aS'->'
p459
aS'variable_3'
p460
ag38
aS'variable_6'
p461
ag41
ag25
ag43
ag44
ag45
ag43
ag19
aS'func_2'
p462
ag4
aS'variable_0'
p463
aS'->'
p464
aS'variable_10'
p465
ag104
aS'variable_3'
p466
ag9
aS'variable_8'
p467
ag15
ag19
aa(lp468
S'func_0'
p469
ag4
aS'struct'
p470
aS'variable_0'
p471
ag7
aS'variable_0'
p472
ag9
aS'const'
p473
aS'void'
p474
ag7
aS'variable_1'
p475
ag9
aS'size_t'
p476
aS'variable_2'
p477
ag15
aS'const'
p478
aS'char'
p479
ag7
aS'variable_3'
p480
ag25
aS'variable_1'
p481
ag9
ag7
aS'variable_4'
p482
ag9
ag7
aS'variable_5'
p483
ag19
aS'if'
p484
ag4
aS'variable_2'
p485
ag31
ag25
ag32
aS'||'
p486
ag34
aS'variable_3'
p487
aS'||'
p488
aS'variable_3'
p489
ag38
aS'variable_2'
p490
ag40
ag32
ag41
aS'!='
p491
ag43
ag44
ag45
ag43
ag15
aS'variable_2'
p492
aS'--'
p493
ag19
aS'variable_4'
p494
ag25
aS'variable_3'
p495
ag50
aS'variable_2'
p496
ag19
aS'variable_6'
p497
ag25
aS'memchr'
p498
ag4
aS'variable_5'
p499
ag9
ag43
ag55
ag43
ag9
aS'variable_4'
p500
ag40
aS'variable_5'
p501
ag15
ag77
ag78
aS'variable_7'
p502
ag25
aS'variable_6'
p503
ag40
aS'variable_5'
p504
ag19
aS'if'
p505
ag4
ag34
aS'variable_7'
p506
ag15
aS'variable_8'
p507
ag25
aS'memchr'
p508
ag4
aS'variable_5'
p509
ag9
ag43
ag25
ag43
ag9
aS'variable_7'
p510
ag15
ag77
ag78
aS'variable_9'
p511
ag25
aS'variable_8'
p512
ag40
aS'variable_5'
p513
ag19
aS'variable_8'
p514
aS'++'
p515
ag19
aS'variable_10'
p516
ag25
aS'variable_6'
p517
ag40
aS'variable_8'
p518
ag19
aS'variable_11'
p519
ag25
aS'variable_10'
p520
ag98
ag25
ag45
ag77
aS'variable_10'
p521
ag78
ag45
ag19
aS'func_1'
p522
ag4
ag101
aS'option'
p523
ag43
ag103
ag7
ag104
ag7
ag105
ag43
aS'val'
p524
ag43
ag103
ag7
ag104
ag7
ag105
ag43
ag101
ag9
aS'variable_9'
p525
ag9
aS'variable_9'
p526
ag9
aS'variable_5'
p527
ag9
aS'variable_11'
p528
ag9
aS'variable_11'
p529
ag9
aS'variable_8'
p530
ag15
ag19
aS'if'
p531
ag4
aS'variable_9'
p532
aS'=='
p533
aS'sizeof'
p534
ag4
aS'variable_12'
p535
ag15
ag40
ag32
aS'&&'
p536
aS'memcmp'
p537
ag4
aS'variable_5'
p538
ag9
aS'variable_12'
p539
ag9
aS'variable_9'
p540
ag15
aS'=='
p541
ag45
ag15
aS'if'
p542
ag4
aS'variable_10'
p543
ag31
ag25
ag45
ag15
aS'variable_13'
p544
ag25
aS'func_2'
p545
ag4
aS'variable_8'
p546
ag9
aS'10'
p547
ag9
ag130
aS'variable_14'
p548
ag15
ag19
aS'if'
p549
ag4
aS'variable_13'
p550
ag31
ag45
ag15
aS'func_3'
p551
ag4
ag101
aS'bad'
p552
ag255
aS'missing'
p553
aS'value'
p554
ag44
ag258
ag101
aS'variable_9'
p555
ag9
aS'variable_9'
p556
ag9
aS'variable_5'
p557
ag9
aS'variable_0'
p558
aS'->'
p559
aS'variable_15'
p560
ag15
aS'while'
p561
ag4
aS'variable_5'
p562
ag25
aS'variable_6'
p563
ag50
ag32
ag9
aS'variable_5'
p564
ag31
aS'variable_4'
p565
ag15
aS'if'
p566
ag4
aS'variable_13'
p567
ag31
ag45
ag15
aaa(lp568
I0
aI0
aI0
aI0
aI0
aa(lp569
I159
aI150
aI125
aI74
aI56
aa(lp570
(lp571
S'main'
p572
aa(lp573
g572
aa(lp574
g572
aa(lp575
g572
aa(lp576
g572
aaa(lp577
S'188 /home/SySeVR/data/CVE_2011_1076_PATCHED_dns_resolver_instantiate.c opt_vlen = next_opt - eq 47'
p578
aS'189 /home/SySeVR/data/CVE_2011_1076_PATCHED_dns_resolver_instantiate.c opt_nlen = eq - opt 45'
p579
aS'190 /home/SySeVR/data/CVE_2011_1076_PATCHED_dns_resolver_instantiate.c opt_len = next_opt - opt 36'
p580
aS'191 /home/SySeVR/data/CVE_2011_1076_PATCHED_dns_resolver_instantiate.c result_len = opt - data 28'
p581
aS'192 /home/SySeVR/data/CVE_2011_1076_PATCHED_dns_resolver_instantiate.c end = data + datalen 19'
p582
aa.