(lp0
(lp1
(lp2
S'static'
p3
aS'int'
p4
aS'func_0'
p5
aS'('
p6
aS'struct'
p7
aS'variable_0'
p8
aS'*'
p9
aS'variable_1'
p10
aS')'
p11
aS'variable_2'
p12
ag9
aS'variable_3'
p13
aS','
p14
ag9
aS'variable_4'
p15
ag14
ag9
aS'variable_5'
p16
aS';'
p17
aS'struct'
p18
aS'variable_6'
p19
ag9
aS'variable_7'
p20
aS'='
p21
aS'func_1'
p22
ag6
aS'variable_1'
p23
ag11
ag17
aS'unsigned'
p24
aS'long'
p25
aS'variable_8'
p26
ag21
aS'func_2'
p27
ag6
aS'variable_7'
p28
ag11
ag17
aS'u8'
p29
aS'variable_9'
p30
aS'['
p31
aS'32'
p32
aS'+'
p33
aS'variable_10'
p34
aS']'
p35
ag17
aS'variable_2'
p36
ag9
aS'variable_11'
p37
ag21
ag6
aS'u8'
p38
ag9
ag11
aS'func_3'
p39
ag6
ag6
aS'u8'
p40
ag9
ag11
aS'variable_9'
p41
ag14
aS'variable_10'
p42
ag11
ag17
aS'variable_2'
p43
ag9
aS'variable_12'
p44
ag21
aS'variable_11'
p45
ag33
aS'16'
p46
ag17
aS'if'
p47
ag6
aS'func_4'
p48
ag6
ag6
aS'variable_1'
p49
aS'->'
p50
aS'variable_13'
p51
aS'<'
p52
aS'variable_8'
p53
ag11
aS'||'
p54
ag6
aS'variable_1'
p55
aS'->'
p56
aS'variable_14'
p57
aS'!='
p58
aS'8'
p59
aS'&&'
p60
aS'variable_1'
p61
aS'->'
p62
aS'variable_14'
p63
aS'!='
p64
aS'12'
p65
ag11
ag11
ag11
aS'variable_15'
p66
ag21
ag6
aS'unsigned'
p67
aS'long'
p68
ag11
ag6
aS'variable_1'
p69
aS'->'
p70
aS'variable_13'
p71
aS'-'
p72
aS'variable_8'
p73
ag11
ag17
aS'if'
p74
ag6
ag6
aS'func_5'
p75
ag6
aS'variable_1'
p76
aS'->'
p77
aS'variable_3'
p78
ag11
ag11
aS'&&'
p79
ag6
aS'func_6'
p80
ag6
aS'variable_1'
p81
aS'->'
p82
aS'variable_5'
p83
ag11
ag11
ag11
aS'variable_3'
p84
ag21
aS'func_7'
p85
ag6
aS'&'
p86
aS'variable_16'
p87
ag11
ag17
aS'variable_3'
p88
ag21
aS'kmalloc'
p89
ag6
aS'variable_1'
p90
aS'->'
p91
aS'variable_13'
p92
ag33
aS'variable_1'
p93
aS'->'
p94
aS'variable_14'
p95
ag14
aS'variable_17'
p96
ag11
ag17
aS'if'
p97
ag6
aS'!'
p98
aS'variable_3'
p99
ag11
aS'variable_18'
p100
ag21
aS'memcmp'
p101
ag6
aS'variable_3'
p102
ag33
aS'variable_15'
p103
ag14
aS'variable_12'
p104
ag14
aS'variable_8'
p105
ag11
aS'?'
p106
ag72
aS'variable_19'
p107
aS':'
p108
aS'0'
p109
ag17
aS'return'
p110
aS'variable_18'
p111
ag17
aa(lp112
S'static'
p113
aS'int'
p114
aS'func_0'
p115
ag6
aS'struct'
p116
aS'variable_0'
p117
ag9
aS'variable_1'
p118
ag11
aS'variable_2'
p119
ag9
aS'variable_3'
p120
ag14
ag9
aS'variable_4'
p121
ag14
ag9
aS'variable_5'
p122
ag17
aS'struct'
p123
aS'variable_6'
p124
ag9
aS'variable_7'
p125
ag21
aS'func_1'
p126
ag6
aS'variable_1'
p127
ag11
ag17
aS'unsigned'
p128
aS'long'
p129
aS'variable_8'
p130
ag21
aS'func_2'
p131
ag6
aS'variable_7'
p132
ag11
ag17
aS'if'
p133
ag6
aS'func_3'
p134
ag6
ag6
aS'variable_1'
p135
aS'->'
p136
aS'variable_9'
p137
ag52
aS'variable_8'
p138
ag11
aS'||'
p139
ag6
aS'variable_1'
p140
aS'->'
p141
aS'variable_10'
p142
aS'!='
p143
ag59
aS'&&'
p144
aS'variable_1'
p145
aS'->'
p146
aS'variable_10'
p147
aS'!='
p148
aS'12'
p149
ag11
ag11
ag11
aS'if'
p150
ag6
ag6
aS'func_4'
p151
ag6
aS'variable_1'
p152
aS'->'
p153
aS'variable_3'
p154
ag11
ag11
aS'&&'
p155
ag6
aS'func_5'
p156
ag6
aS'variable_1'
p157
aS'->'
p158
aS'variable_5'
p159
ag11
ag11
ag11
aS'variable_3'
p160
ag21
aS'kmalloc'
p161
ag6
aS'variable_1'
p162
aS'->'
p163
aS'variable_9'
p164
ag33
aS'variable_1'
p165
aS'->'
p166
aS'variable_10'
p167
ag14
aS'variable_11'
p168
ag11
ag17
aS'if'
p169
ag6
ag98
aS'variable_3'
p170
ag11
aS'variable_5'
p171
ag21
ag6
aS'variable_3'
p172
ag33
aS'variable_1'
p173
aS'->'
p174
aS'variable_9'
p175
ag11
ag17
aS'func_6'
p176
ag6
aS'variable_5'
p177
ag14
aS'variable_1'
p178
aS'->'
p179
aS'variable_5'
p180
ag14
ag109
ag14
aS'variable_1'
p181
aS'->'
p182
aS'variable_10'
p183
ag14
ag109
ag11
ag17
aS'func_7'
p184
ag6
aS'variable_12'
p185
ag14
aS'variable_4'
p186
ag14
aS'variable_3'
p187
ag14
aS'variable_13'
p188
ag14
aS'variable_14'
p189
ag14
aS'variable_15'
p190
aS'->'
p191
aS'variable_16'
p192
ag14
aS'variable_5'
p193
ag14
ag6
aS'unsigned'
p194
aS'long'
p195
ag11
aS'variable_1'
p196
aS'->'
p197
aS'variable_10'
p198
ag14
aS'variable_17'
p199
ag14
aS'variable_8'
p200
ag11
ag17
aS'func_8'
p201
ag6
aS'variable_5'
p202
ag11
ag17
aa(lp203
S'static'
p204
aS'int'
p205
aS'func_0'
p206
ag6
aS'struct'
p207
aS'variable_0'
p208
ag9
aS'variable_1'
p209
ag11
aS'variable_2'
p210
ag9
aS'variable_3'
p211
ag14
ag9
aS'variable_4'
p212
ag14
ag9
aS'variable_5'
p213
ag17
aS'struct'
p214
aS'variable_6'
p215
ag9
aS'variable_7'
p216
ag21
aS'func_1'
p217
ag6
aS'variable_1'
p218
ag11
ag17
aS'unsigned'
p219
aS'long'
p220
aS'variable_8'
p221
ag21
aS'func_2'
p222
ag6
aS'variable_7'
p223
ag11
ag17
aS'if'
p224
ag6
aS'func_3'
p225
ag6
ag6
aS'variable_1'
p226
aS'->'
p227
aS'variable_9'
p228
ag52
aS'variable_8'
p229
ag11
aS'||'
p230
ag6
aS'variable_1'
p231
aS'->'
p232
aS'variable_10'
p233
aS'!='
p234
ag59
aS'&&'
p235
aS'variable_1'
p236
aS'->'
p237
aS'variable_10'
p238
aS'!='
p239
aS'12'
p240
ag11
ag11
ag11
aS'if'
p241
ag6
ag6
aS'func_4'
p242
ag6
aS'variable_1'
p243
aS'->'
p244
aS'variable_3'
p245
ag11
ag11
aS'&&'
p246
ag6
aS'func_5'
p247
ag6
aS'variable_1'
p248
aS'->'
p249
aS'variable_5'
p250
ag11
ag11
ag11
aS'variable_3'
p251
ag21
aS'kmalloc'
p252
ag6
aS'variable_1'
p253
aS'->'
p254
aS'variable_9'
p255
ag33
aS'variable_1'
p256
aS'->'
p257
aS'variable_10'
p258
ag14
aS'variable_11'
p259
ag11
ag17
aS'if'
p260
ag6
ag98
aS'variable_3'
p261
ag11
aS'variable_5'
p262
ag21
ag6
aS'variable_3'
p263
ag33
aS'variable_1'
p264
aS'->'
p265
aS'variable_9'
p266
ag11
ag17
aS'func_6'
p267
ag6
aS'variable_3'
p268
ag14
aS'variable_1'
p269
aS'->'
p270
aS'variable_3'
p271
ag14
ag109
ag14
aS'variable_1'
p272
aS'->'
p273
aS'variable_9'
p274
ag14
ag109
ag11
ag17
aS'func_7'
p275
ag6
aS'variable_5'
p276
ag14
aS'variable_1'
p277
aS'->'
p278
aS'variable_5'
p279
ag14
ag109
ag14
aS'variable_1'
p280
aS'->'
p281
aS'variable_10'
p282
ag14
ag109
ag11
ag17
aS'variable_4'
p283
ag21
aS'variable_3'
p284
ag17
aS'func_8'
p285
ag6
aS'variable_12'
p286
ag14
aS'variable_4'
p287
ag14
aS'variable_3'
p288
ag14
aS'variable_13'
p289
ag14
aS'variable_14'
p290
ag14
aS'variable_15'
p291
aS'->'
p292
aS'variable_16'
p293
ag14
aS'variable_5'
p294
ag14
ag6
aS'unsigned'
p295
aS'long'
p296
ag11
aS'variable_1'
p297
aS'->'
p298
aS'variable_10'
p299
ag14
aS'variable_17'
p300
ag14
aS'variable_8'
p301
ag11
ag17
aS'variable_18'
p302
ag21
aS'memcmp'
p303
ag6
aS'variable_3'
p304
ag33
aS'variable_13'
p305
ag14
aS'variable_17'
p306
ag14
aS'variable_8'
p307
ag11
ag106
ag72
aS'variable_19'
p308
ag108
ag109
ag17
aS'func_9'
p309
ag6
aS'variable_4'
p310
ag11
ag17
aS'func_10'
p311
ag6
aS'variable_3'
p312
ag11
ag17
aS'func_11'
p313
ag6
aS'variable_5'
p314
ag11
ag17
aS'func_12'
p315
ag6
aS'variable_4'
p316
ag14
aS'variable_1'
p317
aS'->'
p318
aS'variable_4'
p319
ag14
ag109
ag14
aS'variable_13'
p320
ag14
aS'1'
p321
ag11
ag17
aS'kfree'
p322
ag6
aS'variable_3'
p323
ag11
ag17
aS'return'
p324
aS'variable_18'
p325
ag17
aa(lp326
S'static'
p327
aS'int'
p328
aS'func_0'
p329
ag6
aS'struct'
p330
aS'variable_0'
p331
ag9
aS'variable_1'
p332
ag11
aS'struct'
p333
aS'variable_2'
p334
ag9
aS'variable_3'
p335
ag21
aS'func_1'
p336
ag6
aS'variable_1'
p337
ag11
ag17
aS'unsigned'
p338
aS'long'
p339
aS'variable_4'
p340
ag21
aS'func_2'
p341
ag6
aS'variable_3'
p342
ag11
ag17
aS'if'
p343
ag6
aS'func_3'
p344
ag6
ag6
aS'variable_1'
p345
aS'->'
p346
aS'variable_5'
p347
ag52
aS'variable_4'
p348
ag11
aS'||'
p349
ag6
aS'variable_1'
p350
aS'->'
p351
aS'variable_6'
p352
aS'!='
p353
ag59
aS'&&'
p354
aS'variable_1'
p355
aS'->'
p356
aS'variable_6'
p357
aS'!='
p358
aS'12'
p359
ag11
ag11
ag11
aS'variable_7'
p360
ag21
ag6
aS'unsigned'
p361
aS'long'
p362
ag11
ag6
aS'variable_1'
p363
aS'->'
p364
aS'variable_5'
p365
ag72
aS'variable_4'
p366
ag11
ag17
aS'func_4'
p367
ag6
aS'variable_8'
p368
ag14
aS'variable_9'
p369
ag14
aS'variable_10'
p370
ag14
aS'variable_7'
p371
ag14
aS'variable_11'
p372
ag14
aS'variable_12'
p373
aS'->'
p374
aS'variable_13'
p375
ag14
aS'variable_14'
p376
ag14
ag6
aS'unsigned'
p377
aS'long'
p378
ag11
aS'variable_1'
p379
aS'->'
p380
aS'variable_6'
p381
ag14
aS'variable_15'
p382
ag14
aS'variable_4'
p383
ag11
ag17
aS'variable_16'
p384
ag21
aS'memcmp'
p385
ag6
aS'variable_10'
p386
ag33
aS'variable_7'
p387
ag14
aS'variable_15'
p388
ag14
aS'variable_4'
p389
ag11
ag106
ag72
aS'variable_17'
p390
ag108
ag109
ag17
aS'func_5'
p391
ag6
aS'variable_9'
p392
ag14
aS'variable_1'
p393
aS'->'
p394
aS'variable_9'
p395
ag14
ag109
ag14
aS'variable_7'
p396
ag14
ag321
ag11
ag17
aS'return'
p397
aS'variable_16'
p398
ag17
aaa(lp399
I0
aI0
aI0
aI0
aa(lp400
I178
aI113
aI98
aI60
aa(lp401
(lp402
S'main'
p403
aa(lp404
g403
aa(lp405
g403
aa(lp406
g403
aaa(lp407
S'679 /home/SySeVR/data/CVE_2015_3331_PATCHED___driver_rfc4106_decrypt.c retval = memcmp ( src + tempCipherLen , authTag , auth_tag_len ) ? - EBADMSG : 0 64'
p408
aS'680 /home/SySeVR/data/CVE_2015_3331_PATCHED___driver_rfc4106_decrypt.c assoc = ( src + req -> cryptlen ) 52'
p409
aS'681 /home/SySeVR/data/CVE_2015_3331_PATCHED___driver_rfc4106_decrypt.c src = kmalloc ( req -> cryptlen + req -> assoclen , GFP_ATOMIC ) 49'
p410
aS'682 /home/SySeVR/data/CVE_2015_3331_PATCHED___driver_rfc4106_decrypt.c tempCipherLen = ( unsigned long ) ( req -> cryptlen - auth_tag_len ) 27'
p411
aa.