(lp0
(lp1
(lp2
S'func_0'
p3
aS'('
p4
aS'variable_0'
p5
aS'*'
p6
aS'variable_1'
p7
aS','
p8
aS'variable_2'
p9
ag6
aS'variable_3'
p10
ag8
aS'variable_4'
p11
ag6
aS'variable_5'
p12
ag8
aS'gint'
p13
aS'variable_6'
p14
ag8
aS'int'
p15
aS'variable_7'
p16
ag8
aS'guint32'
p17
aS'variable_8'
p18
ag8
aS'guint'
p19
aS'len'
p20
aS'variable_9'
p21
ag8
aS'const'
p22
aS'gchar'
p23
ag6
aS'variable_10'
p24
aS')'
p25
aS'guint8'
p26
aS'variable_11'
p27
aS';'
p28
aS'guint32'
p29
aS'variable_12'
p30
ag28
aS'variable_13'
p31
ag6
aS'variable_14'
p32
ag28
aS'const'
p33
aS'gchar'
p34
ag6
aS'variable_15'
p35
ag28
aS'variable_12'
p36
aS'='
p37
aS'variable_8'
p38
ag28
aS'variable_11'
p39
ag37
aS'func_1'
p40
ag4
aS'variable_1'
p41
ag8
aS'variable_12'
p42
ag25
ag28
aS'variable_15'
p43
ag37
aS'func_2'
p44
ag4
aS'variable_7'
p45
ag8
aS'&'
p46
aS'variable_16'
p47
ag25
ag28
aS'variable_14'
p48
ag37
aS'func_3'
p49
ag4
aS'variable_3'
p50
ag8
aS'variable_1'
p51
ag8
aS'variable_12'
p52
ag8
aS'variable_11'
p53
aS'+'
p54
aS'1'
p55
ag8
aS'"'
p56
aS'%'
p57
aS's'
p58
ag57
ag58
ag56
ag8
aS'variable_15'
p59
aS'?'
p60
aS'variable_15'
p61
aS':'
p62
ag56
aS'Unknown'
p63
aS'-'
p64
aS'aborting'
p65
aS'dissection'
p66
ag56
ag8
ag4
aS'variable_10'
p67
aS'=='
p68
aS'NULL'
p69
ag25
aS'||'
p70
ag4
aS'variable_10'
p71
aS'['
p72
aS'0'
p73
aS']'
p74
aS'=='
p75
aS"'"
p76
aS'\\'
p77
ag73
ag76
ag25
ag60
ag56
ag56
ag62
aS'variable_10'
p78
ag25
ag28
aS'variable_17'
p79
ag37
aS'func_4'
p80
ag4
aS'variable_14'
p81
ag8
aS'variable_18'
p82
ag72
aS'variable_7'
p83
ag74
ag25
ag28
aS'func_5'
p84
ag4
aS'variable_17'
p85
ag8
aS'variable_19'
p86
ag8
aS'variable_1'
p87
ag8
aS'variable_12'
p88
ag8
ag55
ag8
aS'variable_11'
p89
ag25
ag28
aS'func_6'
p90
ag4
aS'variable_17'
p91
ag8
aS'variable_1'
p92
ag8
aS'variable_12'
p93
ag54
ag55
ag8
aS'variable_11'
p94
ag8
ag56
aS'Element'
p95
aS'Value'
p96
ag56
ag25
ag28
aS'variable_20'
p97
ag37
ag4
ag6
aS'variable_21'
p98
ag72
aS'variable_7'
p99
ag74
ag25
ag4
aS'variable_1'
p100
ag8
aS'variable_17'
p101
ag8
aS'variable_5'
p102
ag8
aS'variable_12'
p103
ag54
ag55
ag8
aS'variable_11'
p104
ag8
aS'variable_22'
p105
ag8
aS'1024'
p106
ag25
ag28
aS'func_7'
p107
ag4
aS'variable_14'
p108
ag8
ag56
ag57
ag58
ag56
ag8
aS'variable_22'
p109
ag25
ag28
aS'return'
p110
ag4
aS'variable_20'
p111
ag54
ag55
ag25
ag28
aaa(lp112
I0
aa(lp113
I106
aa(lp114
(lp115
S'main'
p116
aaa(lp117
S'531 /home/SySeVR/data/CVE_2013_4932_PATCHED_elem_lv.c item = proto_tree_add_text ( tree , tvb , curr_offset , parm_len + 1 , "%s%s" , elem_name ? elem_name : "Unknown - aborting dissection" , ( name_add == NULL ) || ( name_add [ 0 ] == \'\\0\' ) ? "" : name_add ) 23'
p118
aa.