(lp0
(lp1
(lp2
S'int'
p3
aS'__init'
p4
aS'func_0'
p5
aS'('
p6
aS'void'
p7
aS')'
p8
aS'void'
p9
aS'*'
p10
aS'variable_0'
p11
aS'='
p12
ag6
aS'void'
p13
ag10
ag8
aS'func_1'
p14
ag6
aS'variable_1'
p15
ag8
aS';'
p16
aS'if'
p17
ag6
aS'!'
p18
aS'func_2'
p19
ag6
aS'variable_2'
p20
ag8
ag8
aS'memcpy'
p21
ag6
aS'variable_0'
p22
aS','
p23
aS'&'
p24
aS'variable_3'
p25
ag23
ag24
aS'variable_4'
p26
aS'-'
p27
ag24
aS'variable_3'
p28
ag8
ag16
aa(lp29
S'int'
p30
aS'__init'
p31
aS'func_0'
p32
ag6
aS'void'
p33
ag8
aS'void'
p34
ag10
aS'variable_0'
p35
ag12
ag6
aS'void'
p36
ag10
ag8
aS'func_1'
p37
ag6
aS'variable_1'
p38
ag8
ag16
aS'if'
p39
ag6
ag18
aS'func_2'
p40
ag6
aS'variable_2'
p41
ag8
ag8
aS'memcpy'
p42
ag6
aS'variable_0'
p43
ag23
ag24
aS'variable_3'
p44
ag23
ag24
aS'variable_4'
p45
ag27
ag24
aS'variable_3'
p46
ag8
ag16
aaa(lp47
I0
aI0
aa(lp48
I27
aI27
aa(lp49
(lp50
S'main'
p51
aa(lp52
g51
aaa(lp53
S'413 /home/SySeVR/data/CVE_2008_3527_PATCHED_sysenter_setup.c memcpy 18'
p54
aS'414 /home/SySeVR/data/CVE_2008_3527_PATCHED_sysenter_setup.c memcpy 12'
p55
aa.