(dp0
S'549 /home/SySeVR/data/CVE_2013_7011_VULN_read_header.c memcpy 176'
p1
I1
sS'225 /home/SySeVR/data/CVE_2014_3509_PATCHED_ssl_parse_serverhello_tlsext.c fprintf 76'
p2
I0
sS'194 /home/SySeVR/data/CVE_2010_3864_VULN_ssl_parse_clienthello_tlsext.c fprintf 183'
p3
I1
sS'61 /home/SySeVR/data/CVE_2011_1147_VULN_udptl_rx_packet.c memset 99'
p4
I1
sS'213 /home/SySeVR/data/CVE_2011_0014_VULN_ssl_parse_clienthello_tlsext.c fprintf 27'
p5
I1
sS'418 /home/SySeVR/data/CVE_2008_5134_PATCHED_lbs_process_bss.c memcpy 171'
p6
I0
sS'848 /home/SySeVR/data/CVE_2012_5532_VULN_main.c strcpy 248'
p7
I1
sS'17 /home/SySeVR/data/CVE_2012_6617_VULN_prepare_sdp_description.c snprintf 16'
p8
I1
sS'803 /home/SySeVR/data/CVE_2015_1158_VULN_cupsdProcessIPPRequest.c strcmp 116'
p9
I0
sS'494 /home/SySeVR/data/CVE_2012_3364_PATCHED_nci_extract_activation_params_iso_dep.c memcpy 13'
p10
I0
sS'881 /home/SySeVR/data/CVE_2013_5641_PATCHED_handle_incoming.c sscanf 37'
p11
I0
sS'456 /home/SySeVR/data/CVE_2011_0014_VULN_ssl_parse_clienthello_tlsext.c memcpy 149'
p12
I1
sS'130 /home/SySeVR/data/CVE_2014_5272_PATCHED_decode_frame.c memset 94'
p13
I0
sS'315 /home/SySeVR/data/CVE_2013_1792_PATCHED_install_user_keyrings.c sprintf 44'
p14
I0
sS'122 /home/SySeVR/data/CVE_2014_4655_PATCHED_snd_ctl_elem_add.c memset 18'
p15
I0
sS'102 /home/SySeVR/data/CVE_2013_1920_PATCHED_get_free_port.c memset 20'
p16
I0
sS'85 /home/SySeVR/data/CVE_2012_4298_VULN_vwr_read_rec_data_ethernet.c memset 224'
p17
I0
sS'689 /home/SySeVR/data/CVE_2013_0867_PATCHED_decode_slice_header.c assert 260'
p18
I0
sS'606 /home/SySeVR/data/CVE_2014_8546_VULN_cinepak_decode_vectors.c memcpy 68'
p19
I1
sS'503 /home/SySeVR/data/CVE_2012_4298_VULN_vwr_read_rec_data_ethernet.c memcpy 232'
p20
I1
sS'675 /home/SySeVR/data/CVE_2013_0850_PATCHED_decode_slice_header.c assert 371'
p21
I0
sS'187 /home/SySeVR/data/CVE_2012_3553_PATCHED_setsubstate.c strerror 248'
p22
I0
sS'769 /home/SySeVR/data/CVE_2014_3523_PATCHED_winnt_accept.c strcmp 46'
p23
I0
sS'59 /home/SySeVR/data/CVE_2011_1138_PATCHED_dissect_6lowpan_iphc.c memset 227'
p24
I0
sS'629 /home/SySeVR/data/CVE_2015_3813_VULN_fragment_add_work.c memcpy 304'
p25
I0
sS'80 /home/SySeVR/data/CVE_2012_2783_VULN_ff_vp56_decode_frame.c memset 72'
p26
I1
sS'817 /home/SySeVR/data/CVE_2011_1833_PATCHED_ecryptfs_parse_options.c strcpy 154'
p27
I0
sS'259 /home/SySeVR/data/CVE_2012_3553_PATCHED_setsubstate.c strlen 379'
p28
I0
sS'420 /home/SySeVR/data/CVE_2008_5134_PATCHED_lbs_process_bss.c memcpy 125'
p29
I0
sS'266 /home/SySeVR/data/CVE_2012_6617_PATCHED_prepare_sdp_description.c strlen 45'
p30
I0
sS'236 /home/SySeVR/data/CVE_2008_1390_VULN_generic_http_callback.c strlen 103'
p31
I1
sS'46 /home/SySeVR/data/CVE_2009_4307_PATCHED_ext4_fill_flex_info.c memset 28'
p32
I0
sS'257 /home/SySeVR/data/CVE_2012_1184_VULN_ast_parse_digest.c strlen 16'
p33
I1
sS'741 /home/SySeVR/data/CVE_2012_5237_PATCHED_dissect_hsrp.c strcmp 109'
p34
I0
sS'50 /home/SySeVR/data/CVE_2010_3429_VULN_flic_decode_frame_15_16BPP.c memset 118'
p35
I0
sS'295 /home/SySeVR/data/CVE_2013_5641_PATCHED_handle_incoming.c strlen 95'
p36
I0
sS'234 /home/SySeVR/data/CVE_2008_1390_VULN_generic_http_callback.c strlen 106'
p37
I1
sS'684 /home/SySeVR/data/CVE_2013_0850_VULN_decode_slice_header.c assert 370'
p38
I0
sS'564 /home/SySeVR/data/CVE_2014_3509_PATCHED_ssl_parse_serverhello_tlsext.c memcpy 177'
p39
I0
sS'112 /home/SySeVR/data/CVE_2013_5642_VULN_process_sdp.c memset 85'
p40
I0
sS'774 /home/SySeVR/data/CVE_2015_1158_PATCHED_print_job.c strcmp 152'
p41
I0
sS'520 /home/SySeVR/data/CVE_2013_0868_PATCHED_read_old_huffman_tables.c memcpy 25'
p42
I0
sS'566 /home/SySeVR/data/CVE_2014_3631_PATCHED_assoc_array_gc.c memcpy 45'
p43
I0
sS'587 /home/SySeVR/data/CVE_2014_8546_VULN_cinepak_decode_vectors.c memcpy 116'
p44
I1
sS'610 /home/SySeVR/data/CVE_2014_8546_VULN_cinepak_decode_vectors.c memcpy 65'
p45
I1
sS'386 /home/SySeVR/data/CVE_2015_3813_VULN_fragment_add_work.c memcmp 290'
p46
I0
sS'666 /home/SySeVR/data/CVE_2013_0792_VULN_qcms_transform_create.c assert 63'
p47
I1
sS'329 /home/SySeVR/data/CVE_2010_3907_PATCHED_Close.c free 23'
p48
I0
sS'64 /home/SySeVR/data/CVE_2011_1495_PATCHED__ctl_do_mpt_command.c memset 102'
p49
I0
sS'487 /home/SySeVR/data/CVE_2011_3934_VULN_vp3_update_thread_context.c memcpy 37'
p50
I0
sS'524 /home/SySeVR/data/CVE_2013_0868_VULN_read_old_huffman_tables.c memcpy 24'
p51
I1
sS'400 /home/SySeVR/data/CVE-2016-8658_VULN_brcmf_cfg80211_start_ap.c memcpy 47'
p52
I1
sS'466 /home/SySeVR/data/CVE_2011_1138_VULN_dissect_6lowpan_hc1.c memcpy 137'
p53
I0
sS'260 /home/SySeVR/data/CVE_2012_3553_PATCHED_setsubstate.c strlen 131'
p54
I0
sS'740 /home/SySeVR/data/CVE_2011_3192_VULN_ap_set_byterange.c strcmp 49'
p55
I0
sS'857 /home/SySeVR/data/CVE_2012_5532_VULN_main.c strcpy 223'
p56
I1
sS'704 /home/SySeVR/data/CVE_2011_2588_PATCHED_AVI_ChunkRead_strf.c malloc 21'
p57
I0
sS'179 /home/SySeVR/data/CVE_2013_1726_VULN_mar_read_product_info_block.c strdup 74'
p58
I1
sS'370 /home/SySeVR/data/CVE_2009_2844_VULN_cmp_ies.c memcmp 12'
p59
I1
sS'537 /home/SySeVR/data/CVE_2013_3670_PATCHED_rle_unpack.c memcpy 29'
p60
I0
sS'507 /home/SySeVR/data/CVE_2012_6542_PATCHED_llc_ui_getname.c memcpy 36'
p61
I0
sS'434 /home/SySeVR/data/CVE_2009_1336_PATCHED_nfs_create_server.c memcpy 42'
p62
I0
sS'185 /home/SySeVR/data/CVE_2012_1183_PATCHED_milliwatt_generate.c strerror 35'
p63
I0
sS'163 /home/SySeVR/data/CVE_2012_5532_VULN_main.c syslog 44'
p64
I0
sS'795 /home/SySeVR/data/CVE_2015_1158_VULN_add_job.c strcmp 197'
p65
I1
sS'776 /home/SySeVR/data/CVE_2015_1158_PATCHED_print_job.c strcmp 127'
p66
I0
sS'870 /home/SySeVR/data/CVE_2010_1224_VULN_ast_append_ha.c sscanf 30'
p67
I0
sS'894 /home/SySeVR/data/CVE_2015_0833_PATCHED_NS_main.c sscanf 171'
p68
I0
sS'348 /home/SySeVR/data/CVE_2009_1439_PATCHED_CIFSTCon.c strncpy 122'
p69
I0
sS'646 /home/SySeVR/data/CVE_2011_3000_VULN_nsHttpHeaderArray__ParseHeaderLine.c strchr 20'
p70
I1
sS'904 /home/SySeVR/data/CVE_2013_1707_VULN_NS_main.c getenv 38'
p71
I0
sS'113 /home/SySeVR/data/CVE_2013_6380_PATCHED_aac_send_raw_srb.c memset 42'
p72
I0
sS'142 /home/SySeVR/data/CVE_2014_6432_VULN_SnifferDecompress.c memset 104'
p73
I1
sS'911 /home/SySeVR/data/CVE_2015_0833_VULN_UpdateThreadFunc.c getenv 54'
p74
I0
sS'633 /home/SySeVR/data/CVE_2012_2669_VULN_main.c close 76'
p75
I1
sS'746 /home/SySeVR/data/CVE_2013_1672_PATCHED_ProcessSoftwareUpdateCommand.c strcmp 109'
p76
I0
sS'127 /home/SySeVR/data/CVE_2014_5272_PATCHED_decode_frame.c memset 143'
p77
I0
sS'403 /home/SySeVR/data/CVE_2007_1217_PATCHED_bufprint.c memcpy 24'
p78
I0
sS'490 /home/SySeVR/data/CVE_2011_4101_VULN_dissect_infiniband_common.c memcpy 184'
p79
I1
sS'365 /home/SySeVR/data/CVE_2013_4247_PATCHED_build_unc_path_to_root.c strncpy 18'
p80
I0
sS'120 /home/SySeVR/data/CVE_2014_3640_VULN_udp_input.c memset 58'
p81
I0
sS'109 /home/SySeVR/data/CVE_2013_4514_VULN_wvlan_set_station_nickname.c memset 17'
p82
I1
sS'76 /home/SySeVR/data/CVE_2012_2783_PATCHED_ff_vp56_decode_frame.c memset 102'
p83
I0
sS'256 /home/SySeVR/data/CVE_2012_1184_VULN_ast_parse_digest.c strlen 21'
p84
I1
sS'818 /home/SySeVR/data/CVE_2012_2669_VULN_main.c strcpy 208'
p85
I1
sS'545 /home/SySeVR/data/CVE_2013_6380_VULN_aac_send_raw_srb.c memcpy 79'
p86
I1
sS'590 /home/SySeVR/data/CVE_2014_8546_VULN_cinepak_decode_vectors.c memcpy 113'
p87
I1
sS'132 /home/SySeVR/data/CVE_2014_5272_PATCHED_decode_frame.c memset 75'
p88
I0
sS'472 /home/SySeVR/data/CVE_2011_2587_VULN_DemuxAudioSipr.c memcpy 17'
p89
I1
sS'805 /home/SySeVR/data/CVE_2012_2669_VULN_main.c socket 27'
p90
I1
sS'530 /home/SySeVR/data/CVE_2013_2547_VULN_crypto_report_one.c memcpy 5'
p91
I1
sS'378 /home/SySeVR/data/CVE_2013_4933_PATCHED_netmon_open.c memcmp 28'
p92
I0
sS'292 /home/SySeVR/data/CVE_2013_2850_VULN_iscsi_decode_text_input.c strlen 49'
p93
I0
sS'174 /home/SySeVR/data/CVE_2011_3003_VULN_ZeroDataIfElementArray.c realloc 3'
p94
I1
sS'188 /home/SySeVR/data/CVE_2012_3553_PATCHED_setsubstate.c strerror 173'
p95
I0
sS'838 /home/SySeVR/data/CVE_2012_2669_VULN_main.c strcpy 123'
p96
I1
sS'502 /home/SySeVR/data/CVE_2012_4298_VULN_vwr_read_rec_data_ethernet.c memcpy 234'
p97
I1
sS'482 /home/SySeVR/data/CVE_2011_3934_PATCHED_vp3_update_thread_context.c memcpy 42'
p98
I0
sS'323 /home/SySeVR/data/CVE_2010_3907_PATCHED_Close.c free 34'
p99
I0
sS'476 /home/SySeVR/data/CVE_2011_2588_VULN_AVI_ChunkRead_strf.c memcpy 52'
p100
I1
sS'424 /home/SySeVR/data/CVE_2008_5134_PATCHED_lbs_process_bss.c memcpy 39'
p101
I0
sS'733 /home/SySeVR/data/CVE_2011_2518_PATCHED_tomoyo_mount_acl.c strcmp 39'
p102
I0
sS'97 /home/SySeVR/data/CVE_2013_0850_VULN_decode_slice_header.c memset 288'
p103
I0
sS'52 /home/SySeVR/data/CVE_2010_3848_PATCHED_econet_sendmsg.c memset 162'
p104
I0
sS'550 /home/SySeVR/data/CVE_2013_7023_VULN_ff_combine_frame.c memcpy 44'
p105
I1
sS'660 /home/SySeVR/data/CVE_2013_0792_PATCHED_qcms_transform_create.c assert 139'
p106
I0
sS'765 /home/SySeVR/data/CVE_2013_5642_VULN_process_sdp.c strcmp 173'
p107
I0
sS'749 /home/SySeVR/data/CVE_2013_1705_VULN_cryptojs_interpret_key_gen_type.c strcmp 41'
p108
I1
sS'570 /home/SySeVR/data/CVE_2014_5272_PATCHED_decode_frame.c memcpy 111'
p109
I0
sS'393 /home/SySeVR/data/CVE-2015-1872_VULN_ff_mjpeg_decode_sof.c memcpy 109'
p110
I1
sS'312 /home/SySeVR/data/CVE_2011_1076_PATCHED_dns_resolver_instantiate.c memchr 20'
p111
I0
sS'198 /home/SySeVR/data/CVE_2010_3864_VULN_ssl_parse_clienthello_tlsext.c fprintf 151'
p112
I1
sS'363 /home/SySeVR/data/CVE_2013_2850_VULN_iscsi_add_notunderstood_response.c strncpy 23'
p113
I1
sS'556 /home/SySeVR/data/CVE_2013_7270_PATCHED_packet_recvmsg.c memcpy 116'
p114
I0
sS'766 /home/SySeVR/data/CVE_2013_5642_VULN_process_sdp.c strcmp 171'
p115
I0
sS'376 /home/SySeVR/data/CVE_2012_3377_VULN_Ogg_DecodePacket.c memcmp 19'
p116
I0
sS'415 /home/SySeVR/data/CVE_2008_4302_PATCHED_pipe_to_file.c memcpy 69'
p117
I0
sS'232 /home/SySeVR/data/CVE_2007_1217_VULN_bufprint.c strlen 7'
p118
I1
sS'572 /home/SySeVR/data/CVE_2014_5272_PATCHED_decode_frame.c memcpy 64'
p119
I0
sS'170 /home/SySeVR/data/CVE_2011_3002_VULN_GrowAtomTable.c realloc 8'
p120
I1
sS'694 /home/SySeVR/data/CVE_2013_0867_VULN_decode_slice_header.c assert 260'
p121
I0
sS'189 /home/SySeVR/data/CVE_2012_5532_VULN_main.c strerror 82'
p122
I1
sS'523 /home/SySeVR/data/CVE_2013_0868_PATCHED_read_old_huffman_tables.c memcpy 21'
p123
I0
sS'463 /home/SySeVR/data/CVE_2011_1076_PATCHED_dns_resolver_instantiate.c memcpy 101'
p124
I0
sS'210 /home/SySeVR/data/CVE_2011_0014_VULN_ssl_parse_clienthello_tlsext.c fprintf 155'
p125
I1
sS'117 /home/SySeVR/data/CVE_2013_7264_VULN_l2tp_ip_recvmsg.c memset 37'
p126
I0
sS'410 /home/SySeVR/data/CVE_2008_2826_PATCHED_sctp_getsockopt_local_addrs_old.c memcpy 74'
p127
I0
sS'269 /home/SySeVR/data/CVE_2013_0874_PATCHED_doubles2str.c strlen 23'
p128
I0
sS'712 /home/SySeVR/data/CVE_2012_5532_VULN_main.c malloc 108'
p129
I1
sS'151 /home/SySeVR/data/CVE_2012_2669_VULN_main.c syslog 94'
p130
I1
sS'138 /home/SySeVR/data/CVE_2014_6431_VULN_SnifferDecompress.c memset 104'
p131
I1
sS'804 /home/SySeVR/data/CVE_2015_1158_VULN_release_job.c strcmp 24'
p132
I0
sS'404 /home/SySeVR/data/CVE_2008_0420_PATCHED_nsBMPDecoder__ProcessData.c memcpy 155'
p133
I0
sS'648 /home/SySeVR/data/CVE_2012_4530_VULN_load_script.c strchr 22'
p134
I1
sS'635 /home/SySeVR/data/CVE_2012_2669_VULN_main.c close 41'
p135
I0
sS'429 /home/SySeVR/data/CVE_2008_5134_VULN_lbs_process_bss.c memcpy 125'
p136
I1
sS'107 /home/SySeVR/data/CVE_2013_4079_VULN_dissect_schedule_message.c memset 53'
p137
I1
sS'491 /home/SySeVR/data/CVE_2011_4101_VULN_dissect_infiniband_common.c memcpy 174'
p138
I1
sS'701 /home/SySeVR/data/CVE_2008_0420_PATCHED_nsBMPDecoder__ProcessData.c malloc 162'
p139
I0
sS'274 /home/SySeVR/data/CVE_2013_1576_VULN_dissect_sdp_media_attribute.c strlen 251'
p140
I0
sS'754 /home/SySeVR/data/CVE_2013_1705_VULN_cryptojs_interpret_key_gen_type.c strcmp 31'
p141
I1
sS'445 /home/SySeVR/data/CVE_2010_3864_VULN_ssl_parse_clienthello_tlsext.c memcpy 149'
p142
I1
sS'792 /home/SySeVR/data/CVE_2015_1158_VULN_add_job.c strcmp 587'
p143
I1
sS'373 /home/SySeVR/data/CVE_2011_1076_PATCHED_dns_resolver_instantiate.c memcmp 55'
p144
I0
sS'812 /home/SySeVR/data/CVE_2009_1439_PATCHED_CIFSTCon.c strcpy 90'
p145
I0
sS'254 /home/SySeVR/data/CVE_2011_4598_PATCHED_handle_request_info.c strlen 165'
p146
I0
sS'414 /home/SySeVR/data/CVE_2008_3527_PATCHED_sysenter_setup.c memcpy 12'
p147
I0
sS'571 /home/SySeVR/data/CVE_2014_5272_PATCHED_decode_frame.c memcpy 105'
p148
I0
sS'297 /home/SySeVR/data/CVE_2014_6427_PATCHED_is_rtsp_request_or_reply.c strlen 35'
p149
I0
sS'114 /home/SySeVR/data/CVE_2013_6380_VULN_aac_send_raw_srb.c memset 42'
p150
I0
sS'412 /home/SySeVR/data/CVE_2008_2826_VULN_sctp_getsockopt_local_addrs_old.c memcpy 72'
p151
I1
sS'271 /home/SySeVR/data/CVE_2013_0874_VULN_doubles2str.c strlen 21'
p152
I1
sS'477 /home/SySeVR/data/CVE_2011_2998_VULN_ExecuteREBytecode.c memcpy 511'
p153
I1
sS'239 /home/SySeVR/data/CVE_2009_1439_PATCHED_CIFSTCon.c strlen 91'
p154
I0
sS'744 /home/SySeVR/data/CVE_2012_5237_VULN_dissect_hsrp.c strcmp 19'
p155
I0
sS'353 /home/SySeVR/data/CVE_2011_1833_PATCHED_ecryptfs_parse_options.c strncpy 57'
p156
I0
sS'273 /home/SySeVR/data/CVE_2013_1576_VULN_dissect_sdp_media_attribute.c strlen 261'
p157
I0
sS'383 /home/SySeVR/data/CVE_2015_3331_PATCHED___driver_rfc4106_decrypt.c memcmp 64'
p158
I0
sS'261 /home/SySeVR/data/CVE_2012_5237_PATCHED_dissect_hsrp.c strlen 236'
p159
I0
sS'611 /home/SySeVR/data/CVE_2014_8709_PATCHED_ieee80211_fragment.c memcpy 50'
p160
I0
sS'422 /home/SySeVR/data/CVE_2008_5134_PATCHED_lbs_process_bss.c memcpy 103'
p161
I0
sS'526 /home/SySeVR/data/CVE_2013_0868_VULN_read_old_huffman_tables.c memcpy 21'
p162
I1
sS'3 /home/SySeVR/data/CVE_2014_8643_VULN_XRE_InitChildProcess.c sleep 130'
p163
I0
sS'14 /home/SySeVR/data/CVE_2012_6617_PATCHED_prepare_sdp_description.c snprintf 22'
p164
I0
sS'361 /home/SySeVR/data/CVE_2013_2548_PATCHED_crypto_report_one.c strncpy 5'
p165
I0
sS'600 /home/SySeVR/data/CVE_2014_8546_VULN_cinepak_decode_vectors.c memcpy 72'
p166
I1
sS'218 /home/SySeVR/data/CVE_2013_1707_PATCHED_NS_main.c fprintf 103'
p167
I0
sS'166 /home/SySeVR/data/CVE_2012_5532_VULN_main.c syslog 20'
p168
I0
sS'359 /home/SySeVR/data/CVE_2013_2548_PATCHED_crypto_report_one.c strncpy 20'
p169
I0
sS'824 /home/SySeVR/data/CVE_2012_2669_VULN_main.c strcpy 193'
p170
I1
sS'781 /home/SySeVR/data/CVE_2015_1158_VULN_add_job.c strcmp 649'
p171
I1
sS'813 /home/SySeVR/data/CVE_2009_1439_PATCHED_CIFSTCon.c strcpy 87'
p172
I0
sS'290 /home/SySeVR/data/CVE_2013_2850_VULN_iscsi_decode_text_input.c strlen 57'
p173
I0
sS'474 /home/SySeVR/data/CVE_2011_2588_PATCHED_AVI_ChunkRead_strf.c memcpy 52'
p174
I0
sS'291 /home/SySeVR/data/CVE_2013_2850_VULN_iscsi_decode_text_input.c strlen 49'
p175
I0
sS'243 /home/SySeVR/data/CVE_2010_3864_VULN_ssl_parse_clienthello_tlsext.c strlen 110'
p176
I1
sS'238 /home/SySeVR/data/CVE_2008_1390_VULN_generic_http_callback.c strlen 60'
p177
I1
sS'887 /home/SySeVR/data/CVE_2013_5642_VULN_process_sdp.c sscanf 245'
p178
I0
sS'287 /home/SySeVR/data/CVE_2013_2850_VULN_iscsi_add_notunderstood_response.c strlen 22'
p179
I1
sS'374 /home/SySeVR/data/CVE_2011_4594_PATCHED___sys_sendmsg.c memcmp 90'
p180
I0
sS'734 /home/SySeVR/data/CVE_2011_2518_PATCHED_tomoyo_mount_acl.c strcmp 34'
p181
I0
sS'195 /home/SySeVR/data/CVE_2010_3864_VULN_ssl_parse_clienthello_tlsext.c fprintf 180'
p182
I1
sS'687 /home/SySeVR/data/CVE_2013_0867_PATCHED_decode_slice_header.c assert 358'
p183
I0
sS'889 /home/SySeVR/data/CVE_2013_5642_VULN_process_sdp.c sscanf 211'
p184
I0
sS'358 /home/SySeVR/data/CVE_2013_2547_PATCHED_crypto_report_one.c strncpy 4'
p185
I0
sS'251 /home/SySeVR/data/CVE_2011_1592_VULN_dissect_nfs_clientaddr4.c strlen 14'
p186
I0
sS'301 /home/SySeVR/data/CVE_2014_8713_VULN_build_expert_data.c strlen 40'
p187
I0
sS'145 /home/SySeVR/data/CVE_2014_8541_VULN_ff_mjpeg_decode_sof.c memset 60'
p188
I1
sS'868 /home/SySeVR/data/CVE_2008_1390_VULN_generic_http_callback.c sscanf 15'
p189
I0
sS'391 /home/SySeVR/data/CVE_2007_1217_PATCHED_bufprint.c vsnprintf 10'
p190
I0
sS'757 /home/SySeVR/data/CVE_2013_1705_VULN_cryptojs_interpret_key_gen_type.c strcmp 25'
p191
I1
sS'720 /home/SySeVR/data/CVE_2008_0420_PATCHED_nsBMPDecoder__ProcessData.c calloc 245'
p192
I0
sS'567 /home/SySeVR/data/CVE_2014_4654_VULN_snd_ctl_elem_add.c memcpy 36'
p193
I1
sS'721 /home/SySeVR/data/CVE_2013_6378_PATCHED_lbs_debugfs_write.c strstr 29'
p194
I0
sS'207 /home/SySeVR/data/CVE_2011_0014_VULN_ssl_parse_clienthello_tlsext.c fprintf 184'
p195
I1
sS'783 /home/SySeVR/data/CVE_2015_1158_VULN_add_job.c strcmp 641'
p196
I1
sS'595 /home/SySeVR/data/CVE_2014_8546_VULN_cinepak_decode_vectors.c memcpy 75'
p197
I1
sS'737 /home/SySeVR/data/CVE_2011_2518_PATCHED_tomoyo_mount_acl.c strcmp 34'
p198
I0
sS'573 /home/SySeVR/data/CVE_2014_5472_PATCHED_isofs_read_inode.c memcpy 40'
p199
I0
sS'535 /home/SySeVR/data/CVE_2013_2850_PATCHED_iscsi_decode_text_input.c memcpy 17'
p200
I0
sS'791 /home/SySeVR/data/CVE_2015_1158_VULN_add_job.c strcmp 587'
p201
I1
sS'335 /home/SySeVR/data/CVE_2013_1678_VULN__cairo_xlib_surface_add_glyph.c free 178'
p202
I0
sS'75 /home/SySeVR/data/CVE_2012_2783_PATCHED_ff_vp56_decode_frame.c memset 103'
p203
I0
sS'454 /home/SySeVR/data/CVE_2011_0014_PATCHED_ssl_parse_clienthello_tlsext.c memcpy 98'
p204
I0
sS'208 /home/SySeVR/data/CVE_2011_0014_VULN_ssl_parse_clienthello_tlsext.c fprintf 183'
p205
I1
sS'385 /home/SySeVR/data/CVE_2015_3813_PATCHED_fragment_add_work.c memcmp 292'
p206
I0
sS'65 /home/SySeVR/data/CVE_2011_1495_VULN__ctl_diag_read_buffer.c memset 104'
p207
I0
sS'724 /home/SySeVR/data/CVE_2008_5134_PATCHED_lbs_process_bss.c memmove 110'
p208
I0
sS'872 /home/SySeVR/data/CVE_2011_1592_PATCHED_dissect_nfs_clientaddr4.c sscanf 28'
p209
I0
sS'685 /home/SySeVR/data/CVE_2013_0867_PATCHED_decode_slice_header.c assert 360'
p210
I0
sS'608 /home/SySeVR/data/CVE_2014_8546_VULN_cinepak_decode_vectors.c memcpy 66'
p211
I1
sS'98 /home/SySeVR/data/CVE_2013_0851_PATCHED_decode_frame.c memset 55'
p212
I0
sS'558 /home/SySeVR/data/CVE_2014_0160_PATCHED_tls1_process_heartbeat.c memcpy 38'
p213
I0
sS'861 /home/SySeVR/data/CVE_2012_6538_VULN_copy_to_user_auth.c strcpy 12'
p214
I1
sS'442 /home/SySeVR/data/CVE_2010_3429_VULN_flic_decode_frame_8BPP.c memcpy 289'
p215
I1
sS'751 /home/SySeVR/data/CVE_2013_1705_VULN_cryptojs_interpret_key_gen_type.c strcmp 37'
p216
I1
sS'788 /home/SySeVR/data/CVE_2015_1158_VULN_add_job.c strcmp 602'
p217
I1
sS'249 /home/SySeVR/data/CVE_2011_1010_VULN_mac_partition.c strlen 72'
p218
I1
sS'399 /home/SySeVR/data/CVE-2016-8658_VULN_brcmf_cfg80211_start_ap.c memcpy 51'
p219
I0
sS'713 /home/SySeVR/data/CVE_2013_1707_PATCHED_NS_main.c malloc 536'
p220
I0
sS'483 /home/SySeVR/data/CVE_2011_3934_PATCHED_vp3_update_thread_context.c memcpy 37'
p221
I0
sS'745 /home/SySeVR/data/CVE_2013_0799_VULN_ProcessSoftwareUpdateCommand.c strcmp 109'
p222
I1
sS'880 /home/SySeVR/data/CVE_2013_5641_PATCHED_handle_incoming.c sscanf 68'
p223
I0
sS'856 /home/SySeVR/data/CVE_2012_5532_VULN_main.c strcpy 228'
p224
I1
sS'845 /home/SySeVR/data/CVE_2012_5532_VULN_main.c strcpy 253'
p225
I1
sS'79 /home/SySeVR/data/CVE_2012_2783_VULN_ff_vp56_decode_frame.c memset 102'
p226
I1
sS'640 /home/SySeVR/data/CVE_2009_2484_VULN_Win32AddConnection.c strchr 33'
p227
I0
sS'153 /home/SySeVR/data/CVE_2012_2669_VULN_main.c syslog 60'
p228
I1
sS'690 /home/SySeVR/data/CVE_2013_0867_PATCHED_decode_slice_header.c assert 259'
p229
I0
sS'860 /home/SySeVR/data/CVE_2012_5532_VULN_main.c strcpy 110'
p230
I1
sS'785 /home/SySeVR/data/CVE_2015_1158_VULN_add_job.c strcmp 620'
p231
I1
sS'437 /home/SySeVR/data/CVE_2010_0437_VULN_ip6_dst_lookup_tail.c memcpy 49'
p232
I1
sS'603 /home/SySeVR/data/CVE_2014_8546_VULN_cinepak_decode_vectors.c memcpy 69'
p233
I1
sS'330 /home/SySeVR/data/CVE_2012_3377_VULN_Ogg_DecodePacket.c free 111'
p234
I0
sS'457 /home/SySeVR/data/CVE_2011_0014_VULN_ssl_parse_clienthello_tlsext.c memcpy 98'
p235
I1
sS'647 /home/SySeVR/data/CVE_2012_4530_PATCHED_load_script.c strchr 22'
p236
I0
sS'134 /home/SySeVR/data/CVE_2014_5272_PATCHED_decode_frame.c memset 44'
p237
I0
sS'702 /home/SySeVR/data/CVE_2008_1390_VULN_generic_http_callback.c malloc 103'
p238
I1
sS'511 /home/SySeVR/data/CVE_2012_6542_VULN_llc_ui_getname.c memcpy 31'
p239
I0
sS'37 /home/SySeVR/data/CVE_2006_4813_PATCHED___block_prepare_write.c memset 54'
p240
I0
sS'909 /home/SySeVR/data/CVE_2015_0833_PATCHED_NS_main.c getenv 57'
p241
I0
sS'369 /home/SySeVR/data/CVE_2009_2844_PATCHED_cmp_ies.c memcmp 12'
p242
I0
sS'338 /home/SySeVR/data/CVE_2014_9743_PATCHED_httpd_HtmlError.c free 24'
p243
I0
sS'469 /home/SySeVR/data/CVE_2011_1147_VULN_udptl_rx_packet.c memcpy 131'
p244
I1
sS'662 /home/SySeVR/data/CVE_2013_0792_PATCHED_qcms_transform_create.c assert 37'
p245
I0
sS'859 /home/SySeVR/data/CVE_2012_5532_VULN_main.c strcpy 219'
p246
I1
sS'435 /home/SySeVR/data/CVE_2009_2287_VULN_kvm_arch_vcpu_ioctl_set_sregs.c memcpy 42'
p247
I1
sS'173 /home/SySeVR/data/CVE_2011_3003_VULN_CopyDataIfElementArray.c realloc 3'
p248
I1
sS'433 /home/SySeVR/data/CVE_2008_5134_VULN_lbs_process_bss.c memcpy 39'
p249
I0
sS'607 /home/SySeVR/data/CVE_2014_8546_VULN_cinepak_decode_vectors.c memcpy 66'
p250
I1
sS'512 /home/SySeVR/data/CVE_2012_6542_VULN_llc_ui_getname.c memcpy 22'
p251
I0
sS'614 /home/SySeVR/data/CVE_2014_8709_VULN_ieee80211_fragment.c memcpy 50'
p252
I0
sS'664 /home/SySeVR/data/CVE_2013_0792_VULN_qcms_transform_create.c assert 160'
p253
I1
sS'325 /home/SySeVR/data/CVE_2010_3907_PATCHED_Close.c free 32'
p254
I0
sS'677 /home/SySeVR/data/CVE_2013_0850_VULN_decode_slice_header.c assert 520'
p255
I0
sS'388 /home/SySeVR/data/CVE-2016-2328_VULN_bayer_to_yv12_wrapper.c copy 33'
p256
I1
sS'342 /home/SySeVR/data/CVE_2010_2431_VULN_cupsFileOpen.c open 37'
p257
I0
sS'411 /home/SySeVR/data/CVE_2008_2826_VULN_sctp_getsockopt_local_addrs_old.c memcpy 75'
p258
I1
sS'815 /home/SySeVR/data/CVE_2009_1439_VULN_CIFSTCon.c strcpy 87'
p259
I0
sS'836 /home/SySeVR/data/CVE_2012_2669_VULN_main.c strcpy 163'
p260
I1
sS'480 /home/SySeVR/data/CVE_2011_3003_PATCHED_CopySubDataIfElementArray.c memcpy 3'
p261
I0
sS'852 /home/SySeVR/data/CVE_2012_5532_VULN_main.c strcpy 240'
p262
I1
sS'683 /home/SySeVR/data/CVE_2013_0850_VULN_decode_slice_header.c assert 371'
p263
I0
sS'714 /home/SySeVR/data/CVE_2013_1707_VULN_NS_main.c malloc 536'
p264
I0
sS'425 /home/SySeVR/data/CVE_2008_5134_VULN_lbs_process_bss.c memcpy 198'
p265
I0
sS'498 /home/SySeVR/data/CVE_2012_3377_VULN_Ogg_DecodePacket.c memcpy 89'
p266
I0
sS'240 /home/SySeVR/data/CVE_2009_1439_PATCHED_CIFSTCon.c strlen 88'
p267
I0
sS'293 /home/SySeVR/data/CVE_2013_2850_VULN_iscsi_decode_text_input.c strlen 35'
p268
I1
sS'493 /home/SySeVR/data/CVE_2012_3364_PATCHED_nci_extract_activation_params_iso_dep.c memcpy 23'
p269
I0
sS'501 /home/SySeVR/data/CVE_2012_4298_PATCHED_vwr_read_rec_data_ethernet.c memcpy 230'
p270
I0
sS'298 /home/SySeVR/data/CVE_2014_7145_PATCHED_SMB2_tcon.c strlen 28'
p271
I0
sS'182 /home/SySeVR/data/CVE_2013_0799_VULN_ProcessSoftwareUpdateCommand.c wcsncpy 62'
p272
I1
sS'201 /home/SySeVR/data/CVE_2011_0014_PATCHED_ssl_parse_clienthello_tlsext.c fprintf 183'
p273
I0
sS'73 /home/SySeVR/data/CVE_2012_0041_VULN_dissect_packet.c memset 7'
p274
I1
sS'178 /home/SySeVR/data/CVE_2013_1726_PATCHED_mar_read_product_info_block.c strdup 72'
p275
I0
sS'171 /home/SySeVR/data/CVE_2011_3002_VULN_GrowAtomTable.c realloc 7'
p276
I1
sS'555 /home/SySeVR/data/CVE_2013_7268_VULN_ipx_recvmsg.c memcpy 23'
p277
I0
sS'665 /home/SySeVR/data/CVE_2013_0792_VULN_qcms_transform_create.c assert 135'
p278
I1
sS'630 /home/SySeVR/data/CVE_2010_2431_VULN_cupsFileOpen.c close 87'
p279
I1
sS'638 /home/SySeVR/data/CVE_2012_5532_VULN_main.c close 45'
p280
I0
sS'658 /home/SySeVR/data/CVE_2012_2797_PATCHED_decode_frame_mp3on4.c assert 36'
p281
I0
sS'508 /home/SySeVR/data/CVE_2012_6542_PATCHED_llc_ui_getname.c memcpy 30'
p282
I0
sS'551 /home/SySeVR/data/CVE_2013_7023_VULN_ff_combine_frame.c memcpy 28'
p283
I1
sS'786 /home/SySeVR/data/CVE_2015_1158_VULN_add_job.c strcmp 620'
p284
I1
sS'598 /home/SySeVR/data/CVE_2014_8546_VULN_cinepak_decode_vectors.c memcpy 74'
p285
I1
sS'417 /home/SySeVR/data/CVE_2008_5134_PATCHED_lbs_process_bss.c memcpy 179'
p286
I0
sS'826 /home/SySeVR/data/CVE_2012_2669_VULN_main.c strcpy 189'
p287
I1
sS'382 /home/SySeVR/data/CVE_2014_8541_VULN_ff_mjpeg_decode_sof.c memcmp 95'
p288
I1
sS'63 /home/SySeVR/data/CVE_2011_1495_PATCHED__ctl_do_mpt_command.c memset 206'
p289
I0
sS'143 /home/SySeVR/data/CVE_2014_6432_VULN_SnifferDecompress.c memset 77'
p290
I1
sS'357 /home/SySeVR/data/CVE_2013_2547_PATCHED_crypto_report_one.c strncpy 5'
p291
I0
sS'129 /home/SySeVR/data/CVE_2014_5272_PATCHED_decode_frame.c memset 124'
p292
I0
sS'538 /home/SySeVR/data/CVE_2013_3670_VULN_rle_unpack.c memcpy 29'
p293
I1
sS'489 /home/SySeVR/data/CVE_2011_3934_VULN_vp3_update_thread_context.c memcpy 26'
p294
I0
sS'907 /home/SySeVR/data/CVE_2015_0833_PATCHED_NS_main.c getenv 165'
p295
I0
sS'352 /home/SySeVR/data/CVE_2011_1833_PATCHED_ecryptfs_parse_options.c strncpy 89'
p296
I0
sS'735 /home/SySeVR/data/CVE_2011_2518_PATCHED_tomoyo_mount_acl.c strcmp 34'
p297
I0
sS'248 /home/SySeVR/data/CVE_2011_0014_VULN_ssl_parse_clienthello_tlsext.c strlen 100'
p298
I1
sS'247 /home/SySeVR/data/CVE_2011_0014_VULN_ssl_parse_clienthello_tlsext.c strlen 110'
p299
I1
sS'327 /home/SySeVR/data/CVE_2010_3907_PATCHED_Close.c free 27'
p300
I0
sS'578 /home/SySeVR/data/CVE_2014_6431_VULN_SnifferDecompress.c memcpy 169'
p301
I1
sS'183 /home/SySeVR/data/CVE_2013_1672_PATCHED_ProcessSoftwareUpdateCommand.c wcsncpy 62'
p302
I0
sS'840 /home/SySeVR/data/CVE_2012_2669_VULN_main.c strcpy 93'
p303
I1
sS'905 /home/SySeVR/data/CVE_2015_0833_PATCHED_NS_main.c getenv 877'
p304
I0
sS'149 /home/SySeVR/data/CVE_2012_2669_VULN_main.c syslog 225'
p305
I1
sS'405 /home/SySeVR/data/CVE_2008_0420_PATCHED_nsBMPDecoder__ProcessData.c memcpy 128'
p306
I0
sS'157 /home/SySeVR/data/CVE_2012_2669_VULN_main.c syslog 16'
p307
I0
sS'678 /home/SySeVR/data/CVE_2013_0850_VULN_decode_slice_header.c assert 510'
p308
I0
sS'281 /home/SySeVR/data/CVE_2013_2850_PATCHED_iscsi_add_notunderstood_response.c strlen 8'
p309
I0
sS'693 /home/SySeVR/data/CVE_2013_0867_VULN_decode_slice_header.c assert 357'
p310
I0
sS'627 /home/SySeVR/data/CVE_2015_3811_VULN_wcp_uncompress.c memcpy 180'
p311
I0
sS'8 /home/SySeVR/data/CVE_2012_2652_VULN_bdrv_open.c snprintf 37'
p312
I0
sS'242 /home/SySeVR/data/CVE_2009_1439_VULN_CIFSTCon.c strlen 88'
p313
I0
sS'768 /home/SySeVR/data/CVE_2014_3523_PATCHED_winnt_accept.c strcmp 48'
p314
I0
sS'421 /home/SySeVR/data/CVE_2008_5134_PATCHED_lbs_process_bss.c memcpy 118'
p315
I0
sS'543 /home/SySeVR/data/CVE_2013_6380_PATCHED_aac_send_raw_srb.c memcpy 80'
p316
I0
sS'654 /home/SySeVR/data/CVE_2014_1642_VULN_pirq_guest_bind.c xmalloc 36'
p317
I0
sS'580 /home/SySeVR/data/CVE_2014_6432_PATCHED_SnifferDecompress.c memcpy 192'
p318
I0
sS'82 /home/SySeVR/data/CVE_2012_4298_PATCHED_vwr_read_rec_data_ethernet.c memset 217'
p319
I0
sS'168 /home/SySeVR/data/CVE_2013_1707_VULN_NS_main.c MoveFileEx 735'
p320
I1
sS'360 /home/SySeVR/data/CVE_2013_2548_PATCHED_crypto_report_one.c strncpy 7'
p321
I0
sS'452 /home/SySeVR/data/CVE_2011_0014_PATCHED_ssl_parse_clienthello_tlsext.c memcpy 178'
p322
I0
sS'552 /home/SySeVR/data/CVE_2013_7268_PATCHED_ipx_recvmsg.c memcpy 58'
p323
I0
sS'285 /home/SySeVR/data/CVE_2013_2850_PATCHED_iscsi_decode_text_input.c strlen 47'
p324
I0
sS'888 /home/SySeVR/data/CVE_2013_5642_VULN_process_sdp.c sscanf 211'
p325
I0
sS'30 /home/SySeVR/data/CVE-2015-1872_VULN_ff_mjpeg_decode_sof.c memset 65'
p326
I1
sS'533 /home/SySeVR/data/CVE_2013_2548_VULN_crypto_report_one.c memcpy 5'
p327
I1
sS'534 /home/SySeVR/data/CVE_2013_2548_VULN_crypto_report_one.c memcpy 4'
p328
I1
sS'322 /home/SySeVR/data/CVE_2010_3907_PATCHED_Close.c free 35'
p329
I0
sS'637 /home/SySeVR/data/CVE_2012_5532_VULN_main.c close 65'
p330
I0
sS'716 /home/SySeVR/data/CVE_2013_0799_VULN_ProcessSoftwareUpdateCommand.c LoadLibraryEx 95'
p331
I1
sS'147 /home/SySeVR/data/CVE_2015_0833_PATCHED_NS_main.c memset 476'
p332
I0
sS'568 /home/SySeVR/data/CVE_2014_4655_PATCHED_snd_ctl_elem_add.c memcpy 29'
p333
I0
sS'146 /home/SySeVR/data/CVE_2014_8541_VULN_ff_mjpeg_decode_sof.c memset 59'
p334
I1
sS'553 /home/SySeVR/data/CVE_2013_7268_PATCHED_ipx_recvmsg.c memcpy 23'
p335
I0
sS'246 /home/SySeVR/data/CVE_2011_0014_PATCHED_ssl_parse_clienthello_tlsext.c strlen 100'
p336
I0
sS'742 /home/SySeVR/data/CVE_2012_5237_PATCHED_dissect_hsrp.c strcmp 19'
p337
I0
sS'625 /home/SySeVR/data/CVE_2015_2922_PATCHED_ndisc_router_discovery.c memcpy 260'
p338
I0
sS'896 /home/SySeVR/data/CVE_2015_1158_PATCHED_print_job.c sscanf 92'
p339
I0
sS'101 /home/SySeVR/data/CVE_2013_1707_VULN_NS_main.c memset 429'
p340
I0
sS'241 /home/SySeVR/data/CVE_2009_1439_VULN_CIFSTCon.c strlen 91'
p341
I0
sS'837 /home/SySeVR/data/CVE_2012_2669_VULN_main.c strcpy 130'
p342
I1
sS'885 /home/SySeVR/data/CVE_2013_5642_VULN_process_sdp.c sscanf 263'
p343
I0
sS'40 /home/SySeVR/data/CVE_2008_0420_PATCHED_nsBMPDecoder__ProcessData.c memset 329'
p344
I0
sS'126 /home/SySeVR/data/CVE_2014_5272_PATCHED_decode_frame.c memset 153'
p345
I0
sS'443 /home/SySeVR/data/CVE_2010_3429_VULN_flic_decode_frame_8BPP.c memcpy 261'
p346
I1
sS'667 /home/SySeVR/data/CVE_2013_0792_VULN_qcms_transform_create.c assert 33'
p347
I1
sS'447 /home/SySeVR/data/CVE_2010_3875_PATCHED_ax25_getname.c memcpy 35'
p348
I0
sS'730 /home/SySeVR/data/CVE_2010_1437_PATCHED_find_keyring_by_name.c strcmp 27'
p349
I0
sS'392 /home/SySeVR/data/CVE-2015-1872_VULN_ff_mjpeg_decode_sof.c memcpy 110'
p350
I1
sS'914 /home/SySeVR/data/CVE_2013_1726_PATCHED_mar_read_product_info_block.c fread 17'
p351
I0
sS'832 /home/SySeVR/data/CVE_2012_2669_VULN_main.c strcpy 177'
p352
I1
sS'267 /home/SySeVR/data/CVE_2012_6617_VULN_prepare_sdp_description.c strlen 43'
p353
I1
sS'119 /home/SySeVR/data/CVE_2014_3523_PATCHED_winnt_accept.c memset 417'
p354
I0
sS'431 /home/SySeVR/data/CVE_2008_5134_VULN_lbs_process_bss.c memcpy 103'
p355
I1
sS'471 /home/SySeVR/data/CVE_2011_1495_PATCHED__ctl_do_mpt_command.c memcpy 104'
p356
I0
sS'548 /home/SySeVR/data/CVE_2013_7011_VULN_read_header.c memcpy 180'
p357
I1
sS'5 /home/SySeVR/data/CVE_2008_1390_VULN_generic_http_callback.c snprintf 62'
p358
I1
sS'527 /home/SySeVR/data/CVE_2013_0868_VULN_read_old_huffman_tables.c memcpy 20'
p359
I1
sS'128 /home/SySeVR/data/CVE_2014_5272_PATCHED_decode_frame.c memset 133'
p360
I0
sS'547 /home/SySeVR/data/CVE_2013_6381_VULN_qeth_snmp_command.c memcpy 38'
p361
I1
sS'202 /home/SySeVR/data/CVE_2011_0014_PATCHED_ssl_parse_clienthello_tlsext.c fprintf 180'
p362
I0
sS'475 /home/SySeVR/data/CVE_2011_2588_VULN_AVI_ChunkRead_strf.c memcpy 87'
p363
I1
sS'379 /home/SySeVR/data/CVE_2013_4933_VULN_netmon_open.c memcmp 28'
p364
I0
sS'88 /home/SySeVR/data/CVE_2012_4298_VULN_vwr_read_rec_data_ethernet.c memset 187'
p365
I0
sS'518 /home/SySeVR/data/CVE_2013_0850_VULN_decode_slice_header.c memcpy 287'
p366
I0
sS'324 /home/SySeVR/data/CVE_2010_3907_PATCHED_Close.c free 33'
p367
I0
sS'16 /home/SySeVR/data/CVE_2012_6617_VULN_prepare_sdp_description.c snprintf 20'
p368
I1
sS'884 /home/SySeVR/data/CVE_2013_5642_VULN_process_sdp.c sscanf 290'
p369
I0
sS'544 /home/SySeVR/data/CVE_2013_6380_VULN_aac_send_raw_srb.c memcpy 179'
p370
I1
sS'317 /home/SySeVR/data/CVE_2010_2431_VULN_cupsFileOpen.c strrchr 46'
p371
I0
sS'620 /home/SySeVR/data/CVE_2014_9679_PATCHED_cupsRasterReadPixels.c memcpy 182'
p372
I0
sS'423 /home/SySeVR/data/CVE_2008_5134_PATCHED_lbs_process_bss.c memcpy 95'
p373
I0
sS'546 /home/SySeVR/data/CVE_2013_6381_PATCHED_qeth_snmp_command.c memcpy 42'
p374
I0
sS'21 /home/SySeVR/data/CVE_2013_2548_VULN_crypto_report_one.c snprintf 18'
p375
I1
sS'542 /home/SySeVR/data/CVE_2013_6380_PATCHED_aac_send_raw_srb.c memcpy 180'
p376
I0
sS'222 /home/SySeVR/data/CVE_2013_1707_VULN_NS_main.c fprintf 18'
p377
I0
sS'855 /home/SySeVR/data/CVE_2012_5532_VULN_main.c strcpy 233'
p378
I1
sS'123 /home/SySeVR/data/CVE_2014_4655_VULN_snd_ctl_elem_add.c memset 20'
p379
I1
sS'901 /home/SySeVR/data/CVE_2013_1707_PATCHED_NS_main.c getenv 38'
p380
I0
sS'485 /home/SySeVR/data/CVE_2011_3934_PATCHED_vp3_update_thread_context.c memcpy 26'
p381
I0
sS'902 /home/SySeVR/data/CVE_2013_1707_VULN_NS_main.c getenv 177'
p382
I0
sS'203 /home/SySeVR/data/CVE_2011_0014_PATCHED_ssl_parse_clienthello_tlsext.c fprintf 155'
p383
I0
sS'851 /home/SySeVR/data/CVE_2012_5532_VULN_main.c strcpy 241'
p384
I1
sS'892 /home/SySeVR/data/CVE_2013_5642_VULN_process_sdp.c sscanf 159'
p385
I0
sS'53 /home/SySeVR/data/CVE_2010_3848_VULN_econet_sendmsg.c memset 157'
p386
I1
sS'253 /home/SySeVR/data/CVE_2011_4101_VULN_dissect_infiniband_common.c strlen 227'
p387
I1
sS'895 /home/SySeVR/data/CVE_2015_1158_PATCHED_print_job.c sscanf 109'
p388
I0
sS'176 /home/SySeVR/data/CVE_2008_1390_VULN_generic_http_callback.c strdup 125'
p389
I1
sS'879 /home/SySeVR/data/CVE_2012_1184_VULN_ast_parse_digest.c sscanf 85'
p390
I1
sS'255 /home/SySeVR/data/CVE_2011_4598_VULN_handle_request_info.c strlen 158'
p391
I0
sS'91 /home/SySeVR/data/CVE_2012_6542_VULN_llc_ui_getname.c memset 9'
p392
I0
sS'428 /home/SySeVR/data/CVE_2008_5134_VULN_lbs_process_bss.c memcpy 149'
p393
I1
sS'58 /home/SySeVR/data/CVE_2010_4649_PATCHED_ib_uverbs_poll_cq.c memset 24'
p394
I0
sS'473 /home/SySeVR/data/CVE_2011_2588_PATCHED_AVI_ChunkRead_strf.c memcpy 88'
p395
I0
sS'296 /home/SySeVR/data/CVE_2013_5642_VULN_process_sdp.c strlen 721'
p396
I1
sS'505 /home/SySeVR/data/CVE_2012_6538_PATCHED_copy_to_user_auth.c memcpy 13'
p397
I0
sS'738 /home/SySeVR/data/CVE_2011_2518_PATCHED_tomoyo_mount_acl.c strcmp 32'
p398
I0
sS'708 /home/SySeVR/data/CVE_2011_3002_VULN_GrowAtomTable.c malloc 10'
p399
I1
sS'772 /home/SySeVR/data/CVE_2014_8643_VULN_XRE_InitChildProcess.c strcmp 98'
p400
I0
sS'100 /home/SySeVR/data/CVE_2013_1707_PATCHED_NS_main.c memset 429'
p401
I0
sS'775 /home/SySeVR/data/CVE_2015_1158_PATCHED_print_job.c strcmp 152'
p402
I0
sS'345 /home/SySeVR/data/CVE_2006_6106_VULN_cmtp_recv_interopmsg.c strncpy 89'
p403
I0
sS'903 /home/SySeVR/data/CVE_2013_1707_VULN_NS_main.c getenv 93'
p404
I0
sS'331 /home/SySeVR/data/CVE_2012_3377_VULN_Ogg_DecodePacket.c free 97'
p405
I0
sS'22 /home/SySeVR/data/CVE_2013_5641_PATCHED_handle_incoming.c snprintf 168'
p406
I0
sS'561 /home/SySeVR/data/CVE_2014_1509_VULN__cairo_dwrite_load_truetype_table.c memcpy 27'
p407
I1
sS'212 /home/SySeVR/data/CVE_2011_0014_VULN_ssl_parse_clienthello_tlsext.c fprintf 151'
p408
I1
sS'215 /home/SySeVR/data/CVE_2011_1147_VULN_udptl_rx_packet.c fprintf 135'
p409
I1
sS'484 /home/SySeVR/data/CVE_2011_3934_PATCHED_vp3_update_thread_context.c memcpy 27'
p410
I0
sS'593 /home/SySeVR/data/CVE_2014_8546_VULN_cinepak_decode_vectors.c memcpy 110'
p411
I1
sS'612 /home/SySeVR/data/CVE_2014_8709_PATCHED_ieee80211_fragment.c memcpy 49'
p412
I0
sS'278 /home/SySeVR/data/CVE_2013_1726_PATCHED_mar_read_product_info_block.c strlen 55'
p413
I0
sS'504 /home/SySeVR/data/CVE_2012_4298_VULN_vwr_read_rec_data_ethernet.c memcpy 230'
p414
I1
sS'679 /home/SySeVR/data/CVE_2013_0850_VULN_decode_slice_header.c assert 469'
p415
I0
sS'277 /home/SySeVR/data/CVE_2013_1726_PATCHED_mar_read_product_info_block.c strlen 64'
p416
I0
sS'54 /home/SySeVR/data/CVE_2010_3849_PATCHED_econet_sendmsg.c memset 147'
p417
I0
sS'104 /home/SySeVR/data/CVE_2013_3674_VULN_cdg_decode_frame.c memset 41'
p418
I0
sS'196 /home/SySeVR/data/CVE_2010_3864_VULN_ssl_parse_clienthello_tlsext.c fprintf 155'
p419
I1
sS'916 /home/SySeVR/data/CVE_2013_1726_VULN_mar_read_product_info_block.c fread 27'
p420
I1
sS'336 /home/SySeVR/data/CVE_2013_1707_PATCHED_NS_main.c free 441'
p421
I0
sS'11 /home/SySeVR/data/CVE_2012_2652_VULN_bdrv_open.c snprintf 37'
p422
I0
sS'715 /home/SySeVR/data/CVE_2015_0833_PATCHED_NS_main.c malloc 580'
p423
I0
sS'847 /home/SySeVR/data/CVE_2012_5532_VULN_main.c strcpy 249'
p424
I1
sS'440 /home/SySeVR/data/CVE_2010_3429_PATCHED_flic_decode_frame_8BPP.c memcpy 293'
p425
I0
sS'758 /home/SySeVR/data/CVE_2013_1705_VULN_cryptojs_interpret_key_gen_type.c strcmp 23'
p426
I1
sS'156 /home/SySeVR/data/CVE_2012_2669_VULN_main.c syslog 23'
p427
I0
sS'299 /home/SySeVR/data/CVE_2014_7145_VULN_SMB2_tcon.c strlen 28'
p428
I0
sS'559 /home/SySeVR/data/CVE_2014_0160_VULN_dtls1_process_heartbeat.c memcpy 34'
p429
I1
sS'876 /home/SySeVR/data/CVE_2011_1592_VULN_dissect_nfs_clientaddr4.c sscanf 22'
p430
I1
sS'644 /home/SySeVR/data/CVE_2010_1224_VULN_ast_append_ha.c strchr 20'
p431
I0
sS'500 /home/SySeVR/data/CVE_2012_4298_PATCHED_vwr_read_rec_data_ethernet.c memcpy 232'
p432
I0
sS'628 /home/SySeVR/data/CVE_2015_3813_PATCHED_fragment_add_work.c memcpy 306'
p433
I0
sS'670 /home/SySeVR/data/CVE_2013_0850_PATCHED_decode_slice_header.c assert 510'
p434
I0
sS'430 /home/SySeVR/data/CVE_2008_5134_VULN_lbs_process_bss.c memcpy 118'
p435
I1
sS'541 /home/SySeVR/data/CVE_2013_4516_VULN_mp_get_count.c memcpy 8'
p436
I0
sS'510 /home/SySeVR/data/CVE_2012_6542_VULN_llc_ui_getname.c memcpy 37'
p437
I0
sS'200 /home/SySeVR/data/CVE_2011_0014_PATCHED_ssl_parse_clienthello_tlsext.c fprintf 184'
p438
I0
sS'25 /home/SySeVR/data/CVE_2015_1158_PATCHED_print_job.c snprintf 225'
p439
I0
sS'797 /home/SySeVR/data/CVE_2015_1158_VULN_authenticate_job.c strcmp 122'
p440
I0
sS'617 /home/SySeVR/data/CVE_2014_9374_PATCHED_AST_OPTIONAL_API_NAME.c memcpy 124'
p441
I0
sS'139 /home/SySeVR/data/CVE_2014_6431_VULN_SnifferDecompress.c memset 77'
p442
I1
sS'44 /home/SySeVR/data/CVE_2008_3915_VULN_init_state.c memset 6'
p443
I0
sS'801 /home/SySeVR/data/CVE_2015_1158_VULN_cupsdProcessIPPRequest.c strcmp 136'
p444
I0
sS'441 /home/SySeVR/data/CVE_2010_3429_PATCHED_flic_decode_frame_8BPP.c memcpy 265'
p445
I0
sS'92 /home/SySeVR/data/CVE_2012_6547_PATCHED___tun_chr_ioctl.c memset 17'
p446
I0
sS'717 /home/SySeVR/data/CVE_2013_1672_PATCHED_ProcessSoftwareUpdateCommand.c LoadLibraryEx 95'
p447
I0
sS'516 /home/SySeVR/data/CVE_2013_0782_PATCHED_nsSaveAsCharset__HandleFallBack.c memcpy 29'
p448
I0
sS'893 /home/SySeVR/data/CVE_2014_2286_VULN_ast_http_manid_from_vars.c sscanf 9'
p449
I0
sS'460 /home/SySeVR/data/CVE_2011_0521_VULN_dvb_ca_ioctl.c memcpy 51'
p450
I1
sS'265 /home/SySeVR/data/CVE_2012_5532_VULN_main.c strlen 108'
p451
I1
sS'326 /home/SySeVR/data/CVE_2010_3907_PATCHED_Close.c free 30'
p452
I0
sS'408 /home/SySeVR/data/CVE_2008_1390_VULN_generic_http_callback.c memcpy 26'
p453
I1
sS'866 /home/SySeVR/data/CVE_2013_0797_PATCHED_AutoLoadSystemDependencies.c wcslen 12'
p454
I0
sS'228 /home/SySeVR/data/CVE_2015_0833_PATCHED_NS_main.c fprintf 37'
p455
I0
sS'87 /home/SySeVR/data/CVE_2012_4298_VULN_vwr_read_rec_data_ethernet.c memset 206'
p456
I0
sS'725 /home/SySeVR/data/CVE_2008_5134_VULN_lbs_process_bss.c memmove 133'
p457
I1
sS'24 /home/SySeVR/data/CVE_2013_5641_PATCHED_handle_incoming.c snprintf 100'
p458
I0
sS'674 /home/SySeVR/data/CVE_2013_0850_PATCHED_decode_slice_header.c assert 372'
p459
I0
sS'464 /home/SySeVR/data/CVE_2011_1138_VULN_dissect_6lowpan_hc1.c memcpy 295'
p460
I1
sS'83 /home/SySeVR/data/CVE_2012_4298_PATCHED_vwr_read_rec_data_ethernet.c memset 206'
p461
I0
sS'158 /home/SySeVR/data/CVE_2012_5532_VULN_main.c syslog 277'
p462
I1
sS'318 /home/SySeVR/data/CVE_2008_1390_VULN_generic_http_callback.c free 113'
p463
I1
sS'878 /home/SySeVR/data/CVE_2011_3950_PATCHED_dirac_decode_data_unit.c sscanf 35'
p464
I0
sS'668 /home/SySeVR/data/CVE_2013_0792_VULN_qcms_transform_create.c assert 14'
p465
I0
sS'873 /home/SySeVR/data/CVE_2011_1592_PATCHED_dissect_nfs_clientaddr4.c sscanf 22'
p466
I0
sS'761 /home/SySeVR/data/CVE_2013_1705_VULN_cryptojs_interpret_key_gen_type.c strcmp 17'
p467
I1
sS'219 /home/SySeVR/data/CVE_2013_1707_PATCHED_NS_main.c fprintf 18'
p468
I0
sS'789 /home/SySeVR/data/CVE_2015_1158_VULN_add_job.c strcmp 602'
p469
I1
sS'913 /home/SySeVR/data/CVE_2013_1726_PATCHED_mar_read_product_info_block.c fread 27'
p470
I0
sS'659 /home/SySeVR/data/CVE_2013_0792_PATCHED_qcms_transform_create.c assert 164'
p471
I0
sS'470 /home/SySeVR/data/CVE_2011_1147_VULN_udptl_rx_packet.c memcpy 102'
p472
I1
sS'727 /home/SySeVR/data/CVE_2013_4563_PATCHED_udp6_ufo_fragment.c memmove 61'
p473
I0
sS'368 /home/SySeVR/data/CVE-2015-1872_VULN_ff_mjpeg_decode_sof.c memcmp 101'
p474
I0
sS'233 /home/SySeVR/data/CVE_2008_1390_VULN_generic_http_callback.c strlen 107'
p475
I1
sS'586 /home/SySeVR/data/CVE_2014_8545_VULN_decode_frame.c memcpy 171'
p476
I1
sS'288 /home/SySeVR/data/CVE_2013_2850_VULN_iscsi_add_notunderstood_response.c strlen 8'
p477
I0
sS'141 /home/SySeVR/data/CVE_2014_6432_PATCHED_SnifferDecompress.c memset 88'
p478
I0
sS'589 /home/SySeVR/data/CVE_2014_8546_VULN_cinepak_decode_vectors.c memcpy 114'
p479
I1
sS'227 /home/SySeVR/data/CVE_2015_0833_PATCHED_NS_main.c fprintf 184'
p480
I0
sS'216 /home/SySeVR/data/CVE_2011_1147_VULN_udptl_rx_packet.c fprintf 133'
p481
I1
sS'270 /home/SySeVR/data/CVE_2013_0874_VULN_doubles2str.c strlen 21'
p482
I1
sS'367 /home/SySeVR/data/CVE-2015-1872_VULN_ff_mjpeg_decode_sof.c memcmp 101'
p483
I0
sS'220 /home/SySeVR/data/CVE_2013_1707_VULN_NS_main.c fprintf 268'
p484
I0
sS'676 /home/SySeVR/data/CVE_2013_0850_PATCHED_decode_slice_header.c assert 370'
p485
I0
sS'31 /home/SySeVR/data/CVE-2016-2327_VULN_apng_encode_frame.c memset 67'
p486
I1
sS'349 /home/SySeVR/data/CVE_2009_1439_VULN_CIFSTCon.c strncpy 151'
p487
I0
sS'432 /home/SySeVR/data/CVE_2008_5134_VULN_lbs_process_bss.c memcpy 95'
p488
I1
sS'632 /home/SySeVR/data/CVE_2011_1175_VULN_handle_tcptls_connection.c close 73'
p489
I0
sS'221 /home/SySeVR/data/CVE_2013_1707_VULN_NS_main.c fprintf 103'
p490
I0
sS'56 /home/SySeVR/data/CVE_2010_3875_PATCHED_ax25_getname.c memset 10'
p491
I0
sS'237 /home/SySeVR/data/CVE_2008_1390_VULN_generic_http_callback.c strlen 60'
p492
I1
sS'853 /home/SySeVR/data/CVE_2012_5532_VULN_main.c strcpy 237'
p493
I1
sS'820 /home/SySeVR/data/CVE_2012_2669_VULN_main.c strcpy 201'
p494
I1
sS'319 /home/SySeVR/data/CVE_2008_1390_VULN_generic_http_callback.c free 112'
p495
I1
sS'438 /home/SySeVR/data/CVE_2010_2521_PATCHED_read_buf.c memcpy 38'
p496
I0
sS'351 /home/SySeVR/data/CVE_2011_1833_PATCHED_ecryptfs_parse_options.c strncpy 111'
p497
I0
sS'416 /home/SySeVR/data/CVE_2008_5134_PATCHED_lbs_process_bss.c memcpy 198'
p498
I0
sS'214 /home/SySeVR/data/CVE_2011_1147_VULN_udptl_rx_packet.c fprintf 136'
p499
I1
sS'181 /home/SySeVR/data/CVE_2013_0797_PATCHED_AutoLoadSystemDependencies.c wcsncpy 24'
p500
I0
sS'655 /home/SySeVR/data/CVE_2008_1390_VULN_generic_http_callback.c alloca 61'
p501
I1
sS'554 /home/SySeVR/data/CVE_2013_7268_VULN_ipx_recvmsg.c memcpy 60'
p502
I0
sS'767 /home/SySeVR/data/CVE_2014_3523_PATCHED_winnt_accept.c strcmp 50'
p503
I0
sS'562 /home/SySeVR/data/CVE_2014_3183_VULN_logi_dj_ll_raw_request.c memcpy 23'
p504
I1
sS'284 /home/SySeVR/data/CVE_2013_2850_PATCHED_iscsi_decode_text_input.c strlen 47'
p505
I0
sS'481 /home/SySeVR/data/CVE_2011_3003_VULN_CopyDataIfElementArray.c memcpy 6'
p506
I1
sS'707 /home/SySeVR/data/CVE_2011_3002_VULN_GrowAtomTable.c malloc 11'
p507
I1
sS'394 /home/SySeVR/data/CVE-2016-2327_VULN_apng_encode_frame.c memcpy 114'
p508
I1
sS'778 /home/SySeVR/data/CVE_2015_1158_PATCHED_print_job.c strcmp 51'
p509
I0
sS'875 /home/SySeVR/data/CVE_2011_1592_VULN_dissect_nfs_clientaddr4.c sscanf 29'
p510
I1
sS'839 /home/SySeVR/data/CVE_2012_2669_VULN_main.c strcpy 114'
p511
I1
sS'613 /home/SySeVR/data/CVE_2014_8709_PATCHED_ieee80211_fragment.c memcpy 35'
p512
I0
sS'594 /home/SySeVR/data/CVE_2014_8546_VULN_cinepak_decode_vectors.c memcpy 109'
p513
I1
sS'528 /home/SySeVR/data/CVE_2013_1828_VULN_sctp_getsockopt_assoc_stats.c memcpy 39'
p514
I0
sS'563 /home/SySeVR/data/CVE_2014_3185_PATCHED_command_port_read_callback.c memcpy 40'
p515
I0
sS'808 /home/SySeVR/data/CVE_2014_3523_PATCHED_winnt_accept.c socket 152'
p516
I0
sS'467 /home/SySeVR/data/CVE_2011_1138_VULN_dissect_6lowpan_hc1.c memcpy 109'
p517
I1
sS'110 /home/SySeVR/data/CVE_2013_4922_VULN_dissect_dcom_ActivationProperties.c memset 25'
p518
I1
sS'522 /home/SySeVR/data/CVE_2013_0868_PATCHED_read_old_huffman_tables.c memcpy 22'
p519
I0
sS'4 /home/SySeVR/data/CVE_2007_4521_PATCHED_play_message.c snprintf 30'
p520
I0
sS'828 /home/SySeVR/data/CVE_2012_2669_VULN_main.c strcpy 185'
p521
I1
sS'116 /home/SySeVR/data/CVE_2013_7264_PATCHED_l2tp_ip_recvmsg.c memset 34'
p522
I0
sS'343 /home/SySeVR/data/CVE_2010_2431_VULN_cupsFileOpen.c open 33'
p523
I1
sS'604 /home/SySeVR/data/CVE_2014_8546_VULN_cinepak_decode_vectors.c memcpy 69'
p524
I1
sS'20 /home/SySeVR/data/CVE_2013_2547_VULN_crypto_report_one.c snprintf 18'
p525
I1
sS'86 /home/SySeVR/data/CVE_2012_4298_VULN_vwr_read_rec_data_ethernet.c memset 217'
p526
I0
sS'698 /home/SySeVR/data/CVE_2014_9743_PATCHED_httpd_HtmlError.c assert 4'
p527
I0
sS'680 /home/SySeVR/data/CVE_2013_0850_VULN_decode_slice_header.c assert 468'
p528
I0
sS'798 /home/SySeVR/data/CVE_2015_1158_VULN_authenticate_job.c strcmp 35'
p529
I0
sS'34 /home/SySeVR/data/CVE_2006_2448_PATCHED_restore_sigcontext.c memset 58'
p530
I0
sS'165 /home/SySeVR/data/CVE_2012_5532_VULN_main.c syslog 27'
p531
I0
sS'842 /home/SySeVR/data/CVE_2012_4530_VULN_load_script.c strcpy 43'
p532
I1
sS'186 /home/SySeVR/data/CVE_2012_1183_VULN_milliwatt_generate.c strerror 35'
p533
I1
sS'900 /home/SySeVR/data/CVE_2013_1707_PATCHED_NS_main.c getenv 93'
p534
I0
sS'136 /home/SySeVR/data/CVE_2014_6429_VULN_SnifferDecompress.c memset 104'
p535
I1
sS'468 /home/SySeVR/data/CVE_2011_1138_VULN_dissect_6lowpan_hc1.c memcpy 100'
p536
I1
sS'231 /home/SySeVR/data/CVE_2005_4618_PATCHED_sysctl_string.c strlen 14'
p537
I0
sS'45 /home/SySeVR/data/CVE_2009_2484_VULN_Win32AddConnection.c memset 27'
p538
I0
sS'347 /home/SySeVR/data/CVE_2009_1439_PATCHED_CIFSTCon.c strncpy 151'
p539
I0
sS'68 /home/SySeVR/data/CVE_2011_3002_PATCHED_GrowAtomTable.c memset 23'
p540
I0
sS'867 /home/SySeVR/data/CVE_2009_2484_VULN_Win32AddConnection.c LoadLibrary 12'
p541
I0
sS'649 /home/SySeVR/data/CVE_2013_1705_VULN_cryptojs_interpret_key_gen_type.c strchr 10'
p542
I1
sS'601 /home/SySeVR/data/CVE_2014_8546_VULN_cinepak_decode_vectors.c memcpy 71'
p543
I1
sS'770 /home/SySeVR/data/CVE_2014_8643_VULN_XRE_InitChildProcess.c strcmp 224'
p544
I0
sS'69 /home/SySeVR/data/CVE_2011_3002_PATCHED_GrowAtomTable.c memset 22'
p545
I0
sS'686 /home/SySeVR/data/CVE_2013_0867_PATCHED_decode_slice_header.c assert 359'
p546
I0
sS'419 /home/SySeVR/data/CVE_2008_5134_PATCHED_lbs_process_bss.c memcpy 149'
p547
I0
sS'796 /home/SySeVR/data/CVE_2015_1158_VULN_add_job.c strcmp 67'
p548
I0
sS'387 /home/SySeVR/data/CVE-2016-2328_VULN_bayer_to_yv12_wrapper.c copy 47'
p549
I1
sS'27 /home/SySeVR/data/CVE_2015_1158_VULN_add_job.c snprintf 153'
p550
I0
sS'135 /home/SySeVR/data/CVE_2014_5272_PATCHED_decode_frame.c memset 35'
p551
I0
sS'743 /home/SySeVR/data/CVE_2012_5237_VULN_dissect_hsrp.c strcmp 107'
p552
I0
sS'497 /home/SySeVR/data/CVE_2012_3377_VULN_Ogg_DecodePacket.c memcpy 116'
p553
I0
sS'634 /home/SySeVR/data/CVE_2012_2669_VULN_main.c close 61'
p554
I1
sS'35 /home/SySeVR/data/CVE_2006_2448_VULN_restore_sigcontext.c memset 56'
p555
I0
sS'823 /home/SySeVR/data/CVE_2012_2669_VULN_main.c strcpy 196'
p556
I1
sS'307 /home/SySeVR/data/CVE_2012_2652_VULN_bdrv_open.c unlink 123'
p557
I0
sS'18 /home/SySeVR/data/CVE_2013_0874_PATCHED_doubles2str.c snprintf 16'
p558
I0
sS'639 /home/SySeVR/data/CVE_2009_2484_VULN_Win32AddConnection.c strchr 36'
p559
I0
sS'94 /home/SySeVR/data/CVE_2012_6618_VULN_av_probe_input_buffer.c memset 50'
p560
I1
sS'95 /home/SySeVR/data/CVE_2013_0848_VULN_decode_init.c memset 6'
p561
I0
sS'350 /home/SySeVR/data/CVE_2009_1439_VULN_CIFSTCon.c strncpy 122'
p562
I0
sS'779 /home/SySeVR/data/CVE_2015_1158_VULN_add_job.c strcmp 661'
p563
I1
sS'784 /home/SySeVR/data/CVE_2015_1158_VULN_add_job.c strcmp 620'
p564
I1
sS'591 /home/SySeVR/data/CVE_2014_8546_VULN_cinepak_decode_vectors.c memcpy 112'
p565
I1
sS'752 /home/SySeVR/data/CVE_2013_1705_VULN_cryptojs_interpret_key_gen_type.c strcmp 35'
p566
I1
sS'695 /home/SySeVR/data/CVE_2013_0867_VULN_decode_slice_header.c assert 259'
p567
I0
sS'306 /home/SySeVR/data/CVE_2012_2652_VULN_bdrv_open.c unlink 123'
p568
I0
sS'609 /home/SySeVR/data/CVE_2014_8546_VULN_cinepak_decode_vectors.c memcpy 65'
p569
I1
sS'341 /home/SySeVR/data/CVE_2010_2431_VULN_cupsFileOpen.c open 41'
p570
I1
sS'154 /home/SySeVR/data/CVE_2012_2669_VULN_main.c syslog 40'
p571
I0
sS'773 /home/SySeVR/data/CVE_2014_8713_VULN_build_expert_data.c strcmp 21'
p572
I0
sS'755 /home/SySeVR/data/CVE_2013_1705_VULN_cryptojs_interpret_key_gen_type.c strcmp 29'
p573
I1
sS'140 /home/SySeVR/data/CVE_2014_6432_PATCHED_SnifferDecompress.c memset 115'
p574
I0
sS'762 /home/SySeVR/data/CVE_2013_5642_VULN_process_sdp.c strcmp 656'
p575
I1
sS'865 /home/SySeVR/data/CVE_2013_0797_PATCHED_AutoLoadSystemDependencies.c wcslen 23'
p576
I0
sS'631 /home/SySeVR/data/CVE_2011_1175_VULN_handle_tcptls_connection.c close 89'
p577
I1
sS'211 /home/SySeVR/data/CVE_2011_0014_VULN_ssl_parse_clienthello_tlsext.c fprintf 154'
p578
I1
sS'286 /home/SySeVR/data/CVE_2013_2850_VULN_iscsi_add_notunderstood_response.c strlen 23'
p579
I1
sS'726 /home/SySeVR/data/CVE_2008_5134_VULN_lbs_process_bss.c memmove 110'
p580
I1
sS'305 /home/SySeVR/data/CVE_2012_2652_VULN_bdrv_open.c unlink 123'
p581
I0
sS'60 /home/SySeVR/data/CVE_2011_1138_PATCHED_dissect_6lowpan_iphc.c memset 154'
p582
I0
sS'532 /home/SySeVR/data/CVE_2013_2548_VULN_crypto_report_one.c memcpy 7'
p583
I1
sS'51 /home/SySeVR/data/CVE_2010_3429_VULN_flic_decode_frame_8BPP.c memset 208'
p584
I1
sS'890 /home/SySeVR/data/CVE_2013_5642_VULN_process_sdp.c sscanf 192'
p585
I0
sS'1 /home/SySeVR/data/CVE_2011_1175_VULN_handle_tcptls_connection.c fclose 74'
p586
I0
sS'96 /home/SySeVR/data/CVE_2013_0850_PATCHED_decode_slice_header.c memset 288'
p587
I0
sS'19 /home/SySeVR/data/CVE_2013_0874_VULN_doubles2str.c snprintf 14'
p588
I1
sS'346 /home/SySeVR/data/CVE_2006_6106_VULN_cmtp_recv_interopmsg.c strncpy 65'
p589
I0
sS'262 /home/SySeVR/data/CVE_2012_5237_PATCHED_dissect_hsrp.c strlen 82'
p590
I0
sS'450 /home/SySeVR/data/CVE_2010_4342_PATCHED_aun_incoming.c memcpy 28'
p591
I0
sS'444 /home/SySeVR/data/CVE_2010_3864_VULN_ssl_parse_clienthello_tlsext.c memcpy 178'
p592
I1
sS'747 /home/SySeVR/data/CVE_2013_1672_VULN_ProcessSoftwareUpdateCommand.c strcmp 109'
p593
I0
sS'41 /home/SySeVR/data/CVE_2008_0420_PATCHED_nsBMPDecoder__ProcessData.c memset 281'
p594
I0
sS'710 /home/SySeVR/data/CVE_2012_2669_VULN_main.c malloc 91'
p595
I1
sS'705 /home/SySeVR/data/CVE_2011_2588_VULN_AVI_ChunkRead_strf.c malloc 69'
p596
I1
sS'250 /home/SySeVR/data/CVE_2011_1592_PATCHED_dissect_nfs_clientaddr4.c strlen 14'
p597
I0
sS'732 /home/SySeVR/data/CVE_2011_2518_PATCHED_tomoyo_mount_acl.c strcmp 39'
p598
I0
sS'337 /home/SySeVR/data/CVE_2013_1707_VULN_NS_main.c free 441'
p599
I0
sS'192 /home/SySeVR/data/CVE_2014_3640_VULN_udp_input.c strerror 119'
p600
I1
sS'515 /home/SySeVR/data/CVE_2013_0772_VULN_nsGIFDecoder2__OutputRow.c memcpy 74'
p601
I0
sS'488 /home/SySeVR/data/CVE_2011_3934_VULN_vp3_update_thread_context.c memcpy 27'
p602
I0
sS'455 /home/SySeVR/data/CVE_2011_0014_VULN_ssl_parse_clienthello_tlsext.c memcpy 178'
p603
I1
sS'496 /home/SySeVR/data/CVE_2012_3377_VULN_Ogg_DecodePacket.c memcpy 309'
p604
I0
sS'402 /home/SySeVR/data/CVE_2006_6106_VULN_cmtp_recv_interopmsg.c memcpy 52'
p605
I0
sS'682 /home/SySeVR/data/CVE_2013_0850_VULN_decode_slice_header.c assert 372'
p606
I0
sS'565 /home/SySeVR/data/CVE_2014_3509_PATCHED_ssl_parse_serverhello_tlsext.c memcpy 73'
p607
I0
sS'9 /home/SySeVR/data/CVE_2012_2652_VULN_bdrv_open.c snprintf 37'
p608
I0
sS'121 /home/SySeVR/data/CVE_2014_4654_VULN_snd_ctl_elem_add.c memset 20'
p609
I1
sS'13 /home/SySeVR/data/CVE_2012_2652_VULN_bdrv_open.c snprintf 37'
p610
I0
sS'81 /home/SySeVR/data/CVE_2012_4298_PATCHED_vwr_read_rec_data_ethernet.c memset 224'
p611
I0
sS'579 /home/SySeVR/data/CVE_2014_6431_VULN_SnifferDecompress.c memcpy 140'
p612
I1
sS'581 /home/SySeVR/data/CVE_2014_6432_PATCHED_SnifferDecompress.c memcpy 157'
p613
I0
sS'656 /home/SySeVR/data/CVE_2012_1960_PATCHED_compute_curve_gamma_table_type_parametric.c assert 43'
p614
I0
sS'592 /home/SySeVR/data/CVE_2014_8546_VULN_cinepak_decode_vectors.c memcpy 111'
p615
I1
sS'906 /home/SySeVR/data/CVE_2015_0833_PATCHED_NS_main.c getenv 234'
p616
I0
sS'709 /home/SySeVR/data/CVE_2012_1960_PATCHED_build_input_gamma_table.c malloc 6'
p617
I0
sS'172 /home/SySeVR/data/CVE_2011_3003_PATCHED_CopyDataIfElementArray.c realloc 3'
p618
I0
sS'397 /home/SySeVR/data/CVE-2016-4002_VULN_mipsnet_receive.c memcpy 14'
p619
I0
sS'401 /home/SySeVR/data/CVE_2006_2935_VULN_dvd_read_bca.c memcpy 21'
p620
I1
sS'197 /home/SySeVR/data/CVE_2010_3864_VULN_ssl_parse_clienthello_tlsext.c fprintf 154'
p621
I1
sS'462 /home/SySeVR/data/CVE_2011_0521_VULN_dvb_ca_ioctl.c memcpy 22'
p622
I1
sS'863 /home/SySeVR/data/CVE_2013_0797_PATCHED_AutoLoadSystemDependencies.c LoadLibraryW 32'
p623
I0
sS'280 /home/SySeVR/data/CVE_2013_1726_VULN_mar_read_product_info_block.c strlen 55'
p624
I1
sS'193 /home/SySeVR/data/CVE_2010_3864_VULN_ssl_parse_clienthello_tlsext.c fprintf 184'
p625
I1
sS'910 /home/SySeVR/data/CVE_2015_0833_PATCHED_NS_main.c getenv 4'
p626
I0
sS'78 /home/SySeVR/data/CVE_2012_2783_VULN_ff_vp56_decode_frame.c memset 103'
p627
I1
sS'883 /home/SySeVR/data/CVE_2013_5642_VULN_process_sdp.c sscanf 308'
p628
I0
sS'599 /home/SySeVR/data/CVE_2014_8546_VULN_cinepak_decode_vectors.c memcpy 72'
p629
I1
sS'84 /home/SySeVR/data/CVE_2012_4298_PATCHED_vwr_read_rec_data_ethernet.c memset 187'
p630
I0
sS'760 /home/SySeVR/data/CVE_2013_1705_VULN_cryptojs_interpret_key_gen_type.c strcmp 19'
p631
I1
sS'809 /home/SySeVR/data/CVE_2004_1151_VULN_sys32_ni_syscall.c strcpy 8'
p632
I1
sS'671 /home/SySeVR/data/CVE_2013_0850_PATCHED_decode_slice_header.c assert 469'
p633
I0
sS'657 /home/SySeVR/data/CVE_2012_1960_VULN_compute_curve_gamma_table_type_parametric.c assert 43'
p634
I0
sS'602 /home/SySeVR/data/CVE_2014_8546_VULN_cinepak_decode_vectors.c memcpy 71'
p635
I1
sS'366 /home/SySeVR/data/CVE_2013_4247_PATCHED_build_unc_path_to_root.c strncpy 13'
p636
I0
sS'310 /home/SySeVR/data/CVE_2012_2652_VULN_bdrv_open.c unlink 123'
p637
I0
sS'131 /home/SySeVR/data/CVE_2014_5272_PATCHED_decode_frame.c memset 84'
p638
I0
sS'229 /home/SySeVR/data/CVE_2005_3356_PATCHED_sys_mq_open.c strlen 17'
p639
I0
sS'854 /home/SySeVR/data/CVE_2012_5532_VULN_main.c strcpy 236'
p640
I1
sS'28 /home/SySeVR/data/CVE-2015-1872_VULN_ff_mjpeg_decode_sof.c memset 373'
p641
I1
sS'661 /home/SySeVR/data/CVE_2013_0792_PATCHED_qcms_transform_create.c assert 67'
p642
I0
sS'622 /home/SySeVR/data/CVE_2014_9679_VULN_cupsRasterReadPixels.c memcpy 182'
p643
I1
sS'540 /home/SySeVR/data/CVE_2013_4516_PATCHED_mp_get_count.c memcpy 8'
p644
I0
sS'384 /home/SySeVR/data/CVE_2015_3331_VULN___driver_rfc4106_decrypt.c memcmp 64'
p645
I0
sS'759 /home/SySeVR/data/CVE_2013_1705_VULN_cryptojs_interpret_key_gen_type.c strcmp 21'
p646
I1
sS'362 /home/SySeVR/data/CVE_2013_2548_PATCHED_crypto_report_one.c strncpy 4'
p647
I0
sS'314 /home/SySeVR/data/CVE_2009_2484_VULN_Win32AddConnection.c sprintf 41'
p648
I1
sS'309 /home/SySeVR/data/CVE_2012_2652_VULN_bdrv_open.c unlink 123'
p649
I0
sS'390 /home/SySeVR/data/CVE_2007_1217_PATCHED_bufprint.c vsnprintf 32'
p650
I0
sS'150 /home/SySeVR/data/CVE_2012_2669_VULN_main.c syslog 97'
p651
I1
sS'834 /home/SySeVR/data/CVE_2012_2669_VULN_main.c strcpy 167'
p652
I1
sS'263 /home/SySeVR/data/CVE_2012_5237_VULN_dissect_hsrp.c strlen 231'
p653
I1
sS'74 /home/SySeVR/data/CVE_2012_2100_VULN_ext4_fill_flex_info.c memset 28'
p654
I1
sS'862 /home/SySeVR/data/CVE_2011_2980_PATCHED_ThinkPadSensor__Startup.c LoadLibraryW 7'
p655
I0
sS'381 /home/SySeVR/data/CVE_2014_8541_VULN_ff_mjpeg_decode_sof.c memcmp 95'
p656
I1
sS'72 /home/SySeVR/data/CVE_2011_3003_VULN_ZeroDataIfElementArray.c memset 6'
p657
I1
sS'731 /home/SySeVR/data/CVE_2011_1010_VULN_mac_partition.c strcmp 73'
p658
I1
sS'810 /home/SySeVR/data/CVE_2008_1390_VULN_generic_http_callback.c strcpy 106'
p659
I1
sS'706 /home/SySeVR/data/CVE_2011_2588_VULN_AVI_ChunkRead_strf.c malloc 21'
p660
I1
sS'703 /home/SySeVR/data/CVE_2011_2588_PATCHED_AVI_ChunkRead_strf.c malloc 69'
p661
I0
sS'915 /home/SySeVR/data/CVE_2013_1726_VULN_mar_read_product_info_block.c fread 47'
p662
I1
sS'650 /home/SySeVR/data/CVE_2013_6378_PATCHED_lbs_debugfs_write.c strchr 36'
p663
I0
sS'764 /home/SySeVR/data/CVE_2013_5642_VULN_process_sdp.c strcmp 223'
p664
I0
sS'517 /home/SySeVR/data/CVE_2013_0850_PATCHED_decode_slice_header.c memcpy 287'
p665
I0
sS'160 /home/SySeVR/data/CVE_2012_5532_VULN_main.c syslog 111'
p666
I1
sS'144 /home/SySeVR/data/CVE_2014_8541_VULN_ff_mjpeg_decode_sof.c memset 346'
p667
I1
sS'217 /home/SySeVR/data/CVE_2013_1707_PATCHED_NS_main.c fprintf 268'
p668
I0
sS'42 /home/SySeVR/data/CVE_2008_0420_PATCHED_nsBMPDecoder__ProcessData.c memset 55'
p669
I0
sS'506 /home/SySeVR/data/CVE_2012_6538_VULN_copy_to_user_auth.c memcpy 13'
p670
I1
sS'124 /home/SySeVR/data/CVE_2014_5163_PATCHED_decode_apn.c memset 8'
p671
I0
sS'283 /home/SySeVR/data/CVE_2013_2850_PATCHED_iscsi_decode_text_input.c strlen 55'
p672
I0
sS'206 /home/SySeVR/data/CVE_2011_0014_PATCHED_ssl_parse_clienthello_tlsext.c fprintf 27'
p673
I0
sS'777 /home/SySeVR/data/CVE_2015_1158_PATCHED_print_job.c strcmp 127'
p674
I0
sS'66 /home/SySeVR/data/CVE_2011_2174_PATCHED_tvb_uncompress.c memset 209'
p675
I0
sS'479 /home/SySeVR/data/CVE_2011_3003_PATCHED_CopyDataIfElementArray.c memcpy 8'
p676
I0
sS'800 /home/SySeVR/data/CVE_2015_1158_VULN_cupsdProcessIPPRequest.c strcmp 263'
p677
I0
sS'882 /home/SySeVR/data/CVE_2013_5642_VULN_process_sdp.c sscanf 308'
p678
I0
sS'711 /home/SySeVR/data/CVE_2012_3377_VULN_Ogg_DecodePacket.c malloc 114'
p679
I0
sS'596 /home/SySeVR/data/CVE_2014_8546_VULN_cinepak_decode_vectors.c memcpy 75'
p680
I1
sS'509 /home/SySeVR/data/CVE_2012_6542_PATCHED_llc_ui_getname.c memcpy 21'
p681
I0
sS'164 /home/SySeVR/data/CVE_2012_5532_VULN_main.c syslog 33'
p682
I0
sS'588 /home/SySeVR/data/CVE_2014_8546_VULN_cinepak_decode_vectors.c memcpy 115'
p683
I1
sS'843 /home/SySeVR/data/CVE_2012_5532_VULN_main.c strcpy 257'
p684
I1
sS'328 /home/SySeVR/data/CVE_2010_3907_PATCHED_Close.c free 24'
p685
I0
sS'597 /home/SySeVR/data/CVE_2014_8546_VULN_cinepak_decode_vectors.c memcpy 74'
p686
I1
sS'115 /home/SySeVR/data/CVE_2013_7011_VULN_read_header.c memset 7'
p687
I1
sS'344 /home/SySeVR/data/CVE_2004_1151_PATCHED_sys32_ni_syscall.c strncpy 9'
p688
I0
sS'844 /home/SySeVR/data/CVE_2012_5532_VULN_main.c strcpy 256'
p689
I1
sS'191 /home/SySeVR/data/CVE_2014_3640_VULN_udp_input.c strerror 157'
p690
I1
sS'199 /home/SySeVR/data/CVE_2010_3864_VULN_ssl_parse_clienthello_tlsext.c fprintf 27'
p691
I1
sS'807 /home/SySeVR/data/CVE_2014_3523_PATCHED_winnt_accept.c socket 158'
p692
I0
sS'279 /home/SySeVR/data/CVE_2013_1726_VULN_mar_read_product_info_block.c strlen 64'
p693
I1
sS'577 /home/SySeVR/data/CVE_2014_6429_VULN_SnifferDecompress.c memcpy 140'
p694
I1
sS'38 /home/SySeVR/data/CVE_2006_4813_PATCHED___block_prepare_write.c memset 51'
p695
I0
sS'316 /home/SySeVR/data/CVE_2013_1792_PATCHED_install_user_keyrings.c sprintf 29'
p696
I0
sS'811 /home/SySeVR/data/CVE_2008_1390_VULN_generic_http_callback.c strcpy 105'
p697
I1
sS'869 /home/SySeVR/data/CVE_2010_1224_PATCHED_ast_append_ha.c sscanf 30'
p698
I0
sS'582 /home/SySeVR/data/CVE_2014_6432_VULN_SnifferDecompress.c memcpy 169'
p699
I1
sS'652 /home/SySeVR/data/CVE_2013_6378_VULN_lbs_debugfs_write.c strchr 32'
p700
I1
sS'389 /home/SySeVR/data/CVE_2013_0799_VULN_GetInstallationDir.c wcscpy 7'
p701
I1
sS'615 /home/SySeVR/data/CVE_2014_8709_VULN_ieee80211_fragment.c memcpy 49'
p702
I0
sS'753 /home/SySeVR/data/CVE_2013_1705_VULN_cryptojs_interpret_key_gen_type.c strcmp 33'
p703
I1
sS'891 /home/SySeVR/data/CVE_2013_5642_VULN_process_sdp.c sscanf 159'
p704
I0
sS'722 /home/SySeVR/data/CVE_2013_6378_VULN_lbs_debugfs_write.c strstr 25'
p705
I1
sS'835 /home/SySeVR/data/CVE_2012_2669_VULN_main.c strcpy 166'
p706
I1
sS'223 /home/SySeVR/data/CVE_2014_3509_PATCHED_ssl_parse_serverhello_tlsext.c fprintf 80'
p707
I0
sS'669 /home/SySeVR/data/CVE_2013_0850_PATCHED_decode_slice_header.c assert 520'
p708
I0
sS'814 /home/SySeVR/data/CVE_2009_1439_VULN_CIFSTCon.c strcpy 90'
p709
I0
sS'99 /home/SySeVR/data/CVE_2013_0851_VULN_decode_frame.c memset 55'
p710
I1
sS'449 /home/SySeVR/data/CVE_2010_4165_VULN_do_tcp_setsockopt.c memcpy 98'
p711
I0
sS'47 /home/SySeVR/data/CVE_2010_0437_VULN_ip6_dst_lookup_tail.c memset 50'
p712
I1
sS'375 /home/SySeVR/data/CVE_2012_3377_VULN_Ogg_DecodePacket.c memcmp 25'
p713
I0
sS'529 /home/SySeVR/data/CVE_2013_2547_VULN_crypto_report_one.c memcpy 7'
p714
I1
sS'427 /home/SySeVR/data/CVE_2008_5134_VULN_lbs_process_bss.c memcpy 171'
p715
I1
sS'133 /home/SySeVR/data/CVE_2014_5272_PATCHED_decode_frame.c memset 47'
p716
I0
sS'62 /home/SySeVR/data/CVE_2011_1147_VULN_udptl_rx_packet.c memset 29'
p717
I0
sS'334 /home/SySeVR/data/CVE_2013_1678_PATCHED__cairo_xlib_surface_add_glyph.c free 187'
p718
I0
sS'663 /home/SySeVR/data/CVE_2013_0792_PATCHED_qcms_transform_create.c assert 14'
p719
I0
sS'55 /home/SySeVR/data/CVE_2010_3849_VULN_econet_sendmsg.c memset 157'
p720
I1
sS'302 /home/SySeVR/data/CVE_2014_8713_VULN_build_expert_data.c strlen 40'
p721
I0
sS'6 /home/SySeVR/data/CVE_2012_2652_VULN_bdrv_open.c snprintf 37'
p722
I0
sS'569 /home/SySeVR/data/CVE_2014_4655_VULN_snd_ctl_elem_add.c memcpy 36'
p723
I1
sS'736 /home/SySeVR/data/CVE_2011_2518_PATCHED_tomoyo_mount_acl.c strcmp 34'
p724
I0
sS'858 /home/SySeVR/data/CVE_2012_5532_VULN_main.c strcpy 222'
p725
I1
sS'184 /home/SySeVR/data/CVE_2013_1672_VULN_ProcessSoftwareUpdateCommand.c wcsncpy 62'
p726
I0
sS'398 /home/SySeVR/data/CVE-2016-8658_VULN_brcmf_cfg80211_start_ap.c memcpy 170'
p727
I1
sS'618 /home/SySeVR/data/CVE_2014_9374_PATCHED_AST_OPTIONAL_API_NAME.c memcpy 88'
p728
I0
sS'355 /home/SySeVR/data/CVE_2013_2547_PATCHED_crypto_report_one.c strncpy 20'
p729
I0
sS'177 /home/SySeVR/data/CVE_2013_1726_PATCHED_mar_read_product_info_block.c strdup 74'
p730
I0
sS'235 /home/SySeVR/data/CVE_2008_1390_VULN_generic_http_callback.c strlen 103'
p731
I1
sS'799 /home/SySeVR/data/CVE_2015_1158_VULN_cupsdProcessIPPRequest.c strcmp 263'
p732
I0
sS'103 /home/SySeVR/data/CVE_2013_1920_VULN_get_free_port.c memset 20'
p733
I1
sS'155 /home/SySeVR/data/CVE_2012_2669_VULN_main.c syslog 29'
p734
I0
sS'244 /home/SySeVR/data/CVE_2010_3864_VULN_ssl_parse_clienthello_tlsext.c strlen 100'
p735
I1
sS'93 /home/SySeVR/data/CVE_2012_6618_PATCHED_av_probe_input_buffer.c memset 50'
p736
I0
sS'825 /home/SySeVR/data/CVE_2012_2669_VULN_main.c strcpy 192'
p737
I1
sS'692 /home/SySeVR/data/CVE_2013_0867_VULN_decode_slice_header.c assert 358'
p738
I0
sS'790 /home/SySeVR/data/CVE_2015_1158_VULN_add_job.c strcmp 602'
p739
I1
sS'576 /home/SySeVR/data/CVE_2014_6429_VULN_SnifferDecompress.c memcpy 169'
p740
I1
sS'822 /home/SySeVR/data/CVE_2012_2669_VULN_main.c strcpy 197'
p741
I1
sS'557 /home/SySeVR/data/CVE_2013_7270_VULN_packet_recvmsg.c memcpy 119'
p742
I1
sS'459 /home/SySeVR/data/CVE_2011_0021_VULN_DecodeScroll.c memcpy 41'
p743
I0
sS'917 /home/SySeVR/data/CVE_2013_1726_VULN_mar_read_product_info_block.c fread 17'
p744
I1
sS'495 /home/SySeVR/data/CVE_2012_3364_VULN_nci_extract_rf_params_nfca_passive_poll.c memcpy 13'
p745
I1
sS'763 /home/SySeVR/data/CVE_2013_5642_VULN_process_sdp.c strcmp 225'
p746
I0
sS'886 /home/SySeVR/data/CVE_2013_5642_VULN_process_sdp.c sscanf 263'
p747
I0
sS'729 /home/SySeVR/data/CVE_2004_1151_VULN_sys32_ni_syscall.c strcmp 5'
p748
I1
sS'89 /home/SySeVR/data/CVE_2012_6542_PATCHED_llc_ui_getname.c memset 9'
p749
I0
sS'458 /home/SySeVR/data/CVE_2011_0021_PATCHED_DecodeScroll.c memcpy 41'
p750
I0
sS'224 /home/SySeVR/data/CVE_2014_3509_PATCHED_ssl_parse_serverhello_tlsext.c fprintf 79'
p751
I0
sS'162 /home/SySeVR/data/CVE_2012_5532_VULN_main.c syslog 64'
p752
I0
sS'525 /home/SySeVR/data/CVE_2013_0868_VULN_read_old_huffman_tables.c memcpy 23'
p753
I1
sS'574 /home/SySeVR/data/CVE_2014_5472_PATCHED_isofs_read_inode.c memcpy 35'
p754
I0
sS'718 /home/SySeVR/data/CVE_2013_1672_VULN_ProcessSoftwareUpdateCommand.c LoadLibraryEx 95'
p755
I0
sS'688 /home/SySeVR/data/CVE_2013_0867_PATCHED_decode_slice_header.c assert 261'
p756
I0
sS'226 /home/SySeVR/data/CVE_2015_0833_PATCHED_NS_main.c fprintf 322'
p757
I0
sS'371 /home/SySeVR/data/CVE_2010_0307_PATCHED_load_elf_binary.c memcmp 145'
p758
I0
sS'899 /home/SySeVR/data/CVE_2013_1707_PATCHED_NS_main.c getenv 177'
p759
I0
sS'673 /home/SySeVR/data/CVE_2013_0850_PATCHED_decode_slice_header.c assert 467'
p760
I0
sS'148 /home/SySeVR/data/CVE_2015_3339_PATCHED_prepare_binprm.c memset 13'
p761
I0
sS'624 /home/SySeVR/data/CVE_2014_9679_VULN_cupsRasterReadPixels.c memcpy 132'
p762
I1
sS'36 /home/SySeVR/data/CVE_2006_4813_PATCHED___block_prepare_write.c memset 108'
p763
I0
sS'478 /home/SySeVR/data/CVE_2011_2998_VULN_ExecuteREBytecode.c memcpy 506'
p764
I1
sS'205 /home/SySeVR/data/CVE_2011_0014_PATCHED_ssl_parse_clienthello_tlsext.c fprintf 151'
p765
I0
sS'426 /home/SySeVR/data/CVE_2008_5134_VULN_lbs_process_bss.c memcpy 179'
p766
I0
sS'282 /home/SySeVR/data/CVE_2013_2850_PATCHED_iscsi_decode_text_input.c strlen 55'
p767
I0
sS'209 /home/SySeVR/data/CVE_2011_0014_VULN_ssl_parse_clienthello_tlsext.c fprintf 180'
p768
I1
sS'700 /home/SySeVR/data/CVE_2007_1217_VULN_bufprint.c vsprintf 5'
p769
I1
sS'275 /home/SySeVR/data/CVE_2013_1576_VULN_dissect_sdp_media_attribute.c strlen 228'
p770
I0
sS'850 /home/SySeVR/data/CVE_2012_5532_VULN_main.c strcpy 244'
p771
I1
sS'697 /home/SySeVR/data/CVE_2013_4534_PATCHED_openpic_load.c assert 20'
p772
I0
sS'651 /home/SySeVR/data/CVE_2013_6378_PATCHED_lbs_debugfs_write.c strchr 32'
p773
I0
sS'118 /home/SySeVR/data/CVE_2013_7339_VULN_rds_ib_laddr_check.c memset 14'
p774
I1
sS'125 /home/SySeVR/data/CVE_2014_5163_VULN_decode_apn.c memset 8'
p775
I1
sS'340 /home/SySeVR/data/CVE_2008_1390_VULN_generic_http_callback.c rand 33'
p776
I1
sS'48 /home/SySeVR/data/CVE_2010_3429_PATCHED_flic_decode_frame_15_16BPP.c memset 119'
p777
I0
sS'806 /home/SySeVR/data/CVE_2012_5532_VULN_main.c socket 31'
p778
I1
sS'605 /home/SySeVR/data/CVE_2014_8546_VULN_cinepak_decode_vectors.c memcpy 68'
p779
I1
sS'739 /home/SySeVR/data/CVE_2011_3192_VULN_ap_set_byterange.c strcmp 54'
p780
I0
sS'320 /home/SySeVR/data/CVE_2010_3907_PATCHED_Close.c free 38'
p781
I0
sS'723 /home/SySeVR/data/CVE_2008_5134_PATCHED_lbs_process_bss.c memmove 133'
p782
I0
sS'190 /home/SySeVR/data/CVE_2014_3640_VULN_udp_input.c strerror 158'
p783
I1
sS'111 /home/SySeVR/data/CVE_2013_5642_VULN_process_sdp.c memset 336'
p784
I0
sS'311 /home/SySeVR/data/CVE_2015_0833_PATCHED_NS_main.c execv 14'
p785
I0
sS'258 /home/SySeVR/data/CVE_2012_2669_VULN_main.c strlen 91'
p786
I1
sS'308 /home/SySeVR/data/CVE_2012_2652_VULN_bdrv_open.c unlink 123'
p787
I0
sS'268 /home/SySeVR/data/CVE_2013_0874_PATCHED_doubles2str.c strlen 23'
p788
I0
sS'621 /home/SySeVR/data/CVE_2014_9679_PATCHED_cupsRasterReadPixels.c memcpy 171'
p789
I0
sS'448 /home/SySeVR/data/CVE_2010_3876_VULN_packet_getname.c memcpy 20'
p790
I0
sS'23 /home/SySeVR/data/CVE_2013_5641_PATCHED_handle_incoming.c snprintf 130'
p791
I0
sS'321 /home/SySeVR/data/CVE_2010_3907_PATCHED_Close.c free 36'
p792
I0
sS'167 /home/SySeVR/data/CVE_2013_1707_PATCHED_NS_main.c MoveFileEx 741'
p793
I0
sS'719 /home/SySeVR/data/CVE_2008_0420_PATCHED_nsBMPDecoder__ProcessData.c calloc 252'
p794
I0
sS'252 /home/SySeVR/data/CVE_2011_1833_PATCHED_ecryptfs_parse_options.c strlen 151'
p795
I0
sS'15 /home/SySeVR/data/CVE_2012_6617_PATCHED_prepare_sdp_description.c snprintf 18'
p796
I0
sS'841 /home/SySeVR/data/CVE_2012_4530_PATCHED_load_script.c strcpy 43'
p797
I0
sS'821 /home/SySeVR/data/CVE_2012_2669_VULN_main.c strcpy 200'
p798
I1
sS'29 /home/SySeVR/data/CVE-2015-1872_VULN_ff_mjpeg_decode_sof.c memset 66'
p799
I1
sS'643 /home/SySeVR/data/CVE_2010_1224_VULN_ast_append_ha.c strchr 29'
p800
I0
sS'461 /home/SySeVR/data/CVE_2011_0521_VULN_dvb_ca_ioctl.c memcpy 35'
p801
I1
sS'728 /home/SySeVR/data/CVE_2014_9428_VULN_batadv_frag_merge_packets.c memmove 34'
p802
I1
sS'531 /home/SySeVR/data/CVE_2013_2547_VULN_crypto_report_one.c memcpy 4'
p803
I1
sS'585 /home/SySeVR/data/CVE_2014_8541_VULN_ff_mjpeg_decode_sof.c memcpy 101'
p804
I1
sS'304 /home/SySeVR/data/CVE_2012_2652_VULN_bdrv_open.c unlink 123'
p805
I0
sS'175 /home/SySeVR/data/CVE_2012_3377_VULN_Ogg_DecodePacket.c realloc 86'
p806
I0
sS'272 /home/SySeVR/data/CVE_2013_0874_VULN_doubles2str.c strlen 7'
p807
I1
sS'871 /home/SySeVR/data/CVE_2010_2068_PATCHED_ap_proxy_http_process_response.c sscanf 122'
p808
I0
sS'332 /home/SySeVR/data/CVE_2012_5532_VULN_main.c free 160'
p809
I1
sS'276 /home/SySeVR/data/CVE_2013_1576_VULN_dissect_sdp_media_attribute.c strlen 224'
p810
I0
sS'354 /home/SySeVR/data/CVE_2012_6538_PATCHED_copy_to_user_auth.c strncpy 12'
p811
I0
sS'439 /home/SySeVR/data/CVE_2010_2521_PATCHED_read_buf.c memcpy 27'
p812
I0
sS'294 /home/SySeVR/data/CVE_2013_4247_PATCHED_build_unc_path_to_root.c strlen 6'
p813
I0
sS'57 /home/SySeVR/data/CVE_2010_3876_VULN_packet_getname_spkt.c memset 16'
p814
I0
sS'43 /home/SySeVR/data/CVE_2008_3915_PATCHED_init_state.c memset 6'
p815
I0
sS'898 /home/SySeVR/data/CVE_2012_2669_VULN_main.c recv 72'
p816
I1
sS'300 /home/SySeVR/data/CVE_2014_8713_VULN_build_expert_data.c strlen 79'
p817
I0
sS'230 /home/SySeVR/data/CVE_2005_3356_VULN_sys_mq_open.c strlen 17'
p818
I1
sS'26 /home/SySeVR/data/CVE_2015_1158_PATCHED_print_job.c snprintf 161'
p819
I0
sS'513 /home/SySeVR/data/CVE_2012_6547_PATCHED___tun_chr_ioctl.c memcpy 129'
p820
I0
sS'653 /home/SySeVR/data/CVE_2013_6378_VULN_lbs_debugfs_write.c strchr 28'
p821
I1
sS'71 /home/SySeVR/data/CVE_2011_3002_VULN_GrowAtomTable.c memset 22'
p822
I1
sS'70 /home/SySeVR/data/CVE_2011_3002_VULN_GrowAtomTable.c memset 23'
p823
I1
sS'756 /home/SySeVR/data/CVE_2013_1705_VULN_cryptojs_interpret_key_gen_type.c strcmp 27'
p824
I1
sS'356 /home/SySeVR/data/CVE_2013_2547_PATCHED_crypto_report_one.c strncpy 7'
p825
I0
sS'897 /home/SySeVR/data/CVE_2012_5532_VULN_main.c recvfrom 78'
p826
I1
sS'750 /home/SySeVR/data/CVE_2013_1705_VULN_cryptojs_interpret_key_gen_type.c strcmp 39'
p827
I1
sS'584 /home/SySeVR/data/CVE_2014_8541_VULN_ff_mjpeg_decode_sof.c memcpy 102'
p828
I1
sS'161 /home/SySeVR/data/CVE_2012_5532_VULN_main.c syslog 82'
p829
I1
sS'787 /home/SySeVR/data/CVE_2015_1158_VULN_add_job.c strcmp 620'
p830
I1
sS'407 /home/SySeVR/data/CVE_2008_0420_PATCHED_nsBMPDecoder__ProcessData.c memcpy 12'
p831
I0
sS'681 /home/SySeVR/data/CVE_2013_0850_VULN_decode_slice_header.c assert 467'
p832
I0
sS'619 /home/SySeVR/data/CVE_2014_9428_VULN_batadv_frag_merge_packets.c memcpy 42'
p833
I1
sS'245 /home/SySeVR/data/CVE_2011_0014_PATCHED_ssl_parse_clienthello_tlsext.c strlen 110'
p834
I0
sS'451 /home/SySeVR/data/CVE_2010_4342_VULN_aun_incoming.c memcpy 24'
p835
I1
sS'846 /home/SySeVR/data/CVE_2012_5532_VULN_main.c strcpy 252'
p836
I1
sS'137 /home/SySeVR/data/CVE_2014_6429_VULN_SnifferDecompress.c memset 77'
p837
I1
sS'908 /home/SySeVR/data/CVE_2015_0833_PATCHED_NS_main.c getenv 123'
p838
I0
sS'830 /home/SySeVR/data/CVE_2012_2669_VULN_main.c strcpy 181'
p839
I1
sS'864 /home/SySeVR/data/CVE_2015_0833_PATCHED_NS_main.c fopen 182'
p840
I0
sS'748 /home/SySeVR/data/CVE_2013_1705_VULN_cryptojs_interpret_key_gen_type.c strcmp 43'
p841
I1
sS'159 /home/SySeVR/data/CVE_2012_5532_VULN_main.c syslog 114'
p842
I1
sS'303 /home/SySeVR/data/CVE_2012_2652_VULN_bdrv_open.c unlink 123'
p843
I0
sS'339 /home/SySeVR/data/CVE_2015_0833_PATCHED_NS_main.c free 488'
p844
I0
sS'575 /home/SySeVR/data/CVE_2014_6427_PATCHED_is_rtsp_request_or_reply.c memcpy 21'
p845
I0
sS'849 /home/SySeVR/data/CVE_2012_5532_VULN_main.c strcpy 245'
p846
I1
sS'829 /home/SySeVR/data/CVE_2012_2669_VULN_main.c strcpy 184'
p847
I1
sS'539 /home/SySeVR/data/CVE_2013_4514_VULN_wvlan_set_station_nickname.c memcpy 19'
p848
I1
sS'152 /home/SySeVR/data/CVE_2012_2669_VULN_main.c syslog 75'
p849
I1
sS'204 /home/SySeVR/data/CVE_2011_0014_PATCHED_ssl_parse_clienthello_tlsext.c fprintf 154'
p850
I0
sS'33 /home/SySeVR/data/CVE-2016-8658_VULN_brcmf_cfg80211_start_ap.c memset 37'
p851
I0
sS'794 /home/SySeVR/data/CVE_2015_1158_VULN_add_job.c strcmp 422'
p852
I1
sS'413 /home/SySeVR/data/CVE_2008_3527_PATCHED_sysenter_setup.c memcpy 18'
p853
I0
sS'108 /home/SySeVR/data/CVE_2013_4079_VULN_dissect_schedule_message.c memset 52'
p854
I1
sS'409 /home/SySeVR/data/CVE_2008_2826_PATCHED_sctp_getsockopt_local_addrs_old.c memcpy 77'
p855
I0
sS'486 /home/SySeVR/data/CVE_2011_3934_VULN_vp3_update_thread_context.c memcpy 42'
p856
I0
sS'77 /home/SySeVR/data/CVE_2012_2783_PATCHED_ff_vp56_decode_frame.c memset 72'
p857
I0
sS'780 /home/SySeVR/data/CVE_2015_1158_VULN_add_job.c strcmp 657'
p858
I1
sS'380 /home/SySeVR/data/CVE_2013_4933_VULN_netmon_open.c memcmp 28'
p859
I0
sS'771 /home/SySeVR/data/CVE_2014_8643_VULN_XRE_InitChildProcess.c strcmp 106'
p860
I0
sS'626 /home/SySeVR/data/CVE_2015_3811_PATCHED_wcp_uncompress.c memcpy 195'
p861
I0
sS'672 /home/SySeVR/data/CVE_2013_0850_PATCHED_decode_slice_header.c assert 468'
p862
I0
sS'782 /home/SySeVR/data/CVE_2015_1158_VULN_add_job.c strcmp 641'
p863
I1
sS'180 /home/SySeVR/data/CVE_2013_1726_VULN_mar_read_product_info_block.c strdup 72'
p864
I1
sS'67 /home/SySeVR/data/CVE_2011_2174_PATCHED_tvb_uncompress.c memset 61'
p865
I0
sS'519 /home/SySeVR/data/CVE_2013_0856_PATCHED_lpc_prediction.c memcpy 15'
p866
I0
sS'396 /home/SySeVR/data/CVE-2016-2327_VULN_apng_encode_frame.c memcpy 61'
p867
I1
sS'642 /home/SySeVR/data/CVE_2010_1224_PATCHED_ast_append_ha.c strchr 20'
p868
I0
sS'12 /home/SySeVR/data/CVE_2012_2652_VULN_bdrv_open.c snprintf 37'
p869
I0
sS'691 /home/SySeVR/data/CVE_2013_0867_VULN_decode_slice_header.c assert 359'
p870
I0
sS'912 /home/SySeVR/data/CVE_2013_1726_PATCHED_mar_read_product_info_block.c fread 47'
p871
I0
sS'446 /home/SySeVR/data/CVE_2010_3864_VULN_ssl_parse_clienthello_tlsext.c memcpy 98'
p872
I1
sS'521 /home/SySeVR/data/CVE_2013_0868_PATCHED_read_old_huffman_tables.c memcpy 24'
p873
I0
sS'492 /home/SySeVR/data/CVE_2011_4594_PATCHED___sys_sendmsg.c memcpy 105'
p874
I0
sS'833 /home/SySeVR/data/CVE_2012_2669_VULN_main.c strcpy 172'
p875
I1
sS'877 /home/SySeVR/data/CVE_2011_1592_VULN_dissect_nfs_clientaddr4.c sscanf 15'
p876
I1
sS'696 /home/SySeVR/data/CVE_2013_0867_VULN_decode_slice_header.c assert 258'
p877
I0
sS'831 /home/SySeVR/data/CVE_2012_2669_VULN_main.c strcpy 180'
p878
I1
sS'623 /home/SySeVR/data/CVE_2014_9679_VULN_cupsRasterReadPixels.c memcpy 171'
p879
I1
sS'816 /home/SySeVR/data/CVE_2011_1833_PATCHED_ecryptfs_parse_options.c strcpy 159'
p880
I0
sS'465 /home/SySeVR/data/CVE_2011_1138_VULN_dissect_6lowpan_hc1.c memcpy 146'
p881
I1
sS'364 /home/SySeVR/data/CVE_2013_2850_VULN_iscsi_add_notunderstood_response.c strncpy 22'
p882
I1
sS'793 /home/SySeVR/data/CVE_2015_1158_VULN_add_job.c strcmp 526'
p883
I1
sS'536 /home/SySeVR/data/CVE_2013_2850_VULN_iscsi_decode_text_input.c memcpy 17'
p884
I0
sS'583 /home/SySeVR/data/CVE_2014_6432_VULN_SnifferDecompress.c memcpy 140'
p885
I1
sS'560 /home/SySeVR/data/CVE_2014_0160_VULN_tls1_process_heartbeat.c memcpy 34'
p886
I1
sS'264 /home/SySeVR/data/CVE_2012_5237_VULN_dissect_hsrp.c strlen 82'
p887
I0
sS'645 /home/SySeVR/data/CVE_2011_3000_PATCHED_nsHttpHeaderArray__ParseHeaderLine.c strchr 20'
p888
I0
sS'616 /home/SySeVR/data/CVE_2014_8709_VULN_ieee80211_fragment.c memcpy 35'
p889
I0
sS'289 /home/SySeVR/data/CVE_2013_2850_VULN_iscsi_decode_text_input.c strlen 57'
p890
I0
sS'377 /home/SySeVR/data/CVE_2013_4933_PATCHED_netmon_open.c memcmp 28'
p891
I0
sS'105 /home/SySeVR/data/CVE_2013_3674_VULN_cdg_decode_frame.c memset 28'
p892
I0
sS'453 /home/SySeVR/data/CVE_2011_0014_PATCHED_ssl_parse_clienthello_tlsext.c memcpy 149'
p893
I0
sS'90 /home/SySeVR/data/CVE_2012_6542_VULN_llc_ui_getname.c memset 14'
p894
I1
sS'641 /home/SySeVR/data/CVE_2010_1224_PATCHED_ast_append_ha.c strchr 29'
p895
I0
sS'32 /home/SySeVR/data/CVE-2016-8658_VULN_brcmf_cfg80211_start_ap.c memset 168'
p896
I1
sS'802 /home/SySeVR/data/CVE_2015_1158_VULN_cupsdProcessIPPRequest.c strcmp 126'
p897
I0
sS'106 /home/SySeVR/data/CVE_2013_3674_VULN_cdg_decode_frame.c memset 27'
p898
I0
sS'874 /home/SySeVR/data/CVE_2011_1592_PATCHED_dissect_nfs_clientaddr4.c sscanf 15'
p899
I0
sS'372 /home/SySeVR/data/CVE_2010_0307_PATCHED_load_elf_binary.c memcmp 34'
p900
I0
sS'2 /home/SySeVR/data/CVE_2015_0833_PATCHED_NS_main.c fclose 185'
p901
I0
sS'699 /home/SySeVR/data/CVE_2014_9743_VULN_httpd_HtmlError.c assert 4'
p902
I0
sS'7 /home/SySeVR/data/CVE_2012_2652_VULN_bdrv_open.c snprintf 37'
p903
I0
sS'39 /home/SySeVR/data/CVE_2006_6106_VULN_cmtp_recv_interopmsg.c memset 88'
p904
I0
sS'819 /home/SySeVR/data/CVE_2012_2669_VULN_main.c strcpy 204'
p905
I1
sS'169 /home/SySeVR/data/CVE_2015_0833_PATCHED_NS_main.c MoveFileEx 795'
p906
I0
sS'436 /home/SySeVR/data/CVE_2009_3080_PATCHED_gdth_read_event.c memcpy 27'
p907
I0
sS'827 /home/SySeVR/data/CVE_2012_2669_VULN_main.c strcpy 188'
p908
I1
sS'514 /home/SySeVR/data/CVE_2012_6547_VULN___tun_chr_ioctl.c memcpy 127'
p909
I1
sS'10 /home/SySeVR/data/CVE_2012_2652_VULN_bdrv_open.c snprintf 37'
p910
I0
sS'313 /home/SySeVR/data/CVE_2008_1390_VULN_generic_http_callback.c sprintf 83'
p911
I1
sS'49 /home/SySeVR/data/CVE_2010_3429_PATCHED_flic_decode_frame_8BPP.c memset 212'
p912
I0
sS'395 /home/SySeVR/data/CVE-2016-2327_VULN_apng_encode_frame.c memcpy 74'
p913
I1
sS'406 /home/SySeVR/data/CVE_2008_0420_PATCHED_nsBMPDecoder__ProcessData.c memcpy 30'
p914
I0
sS'499 /home/SySeVR/data/CVE_2012_4298_PATCHED_vwr_read_rec_data_ethernet.c memcpy 234'
p915
I0
sS'333 /home/SySeVR/data/CVE_2012_5532_VULN_main.c free 141'
p916
I1
sS'636 /home/SySeVR/data/CVE_2012_5532_VULN_main.c close 84'
p917
I1
s.