(dp0
S"267 /home/SySeVR/data/CVE_2014_8714_PATCHED_dissect_write_structured_field.c [u'standard_fields'] 8"
p1
I0
sS"205 /home/SySeVR/data/CVE_2013_5642_VULN_process_sdp.c [u'buf'] 62"
p2
I0
sS"43 /home/SySeVR/data/CVE_2011_1147_VULN_udptl_rx_packet.c [u'repaired'] 20"
p3
I0
sS"74 /home/SySeVR/data/CVE_2012_1184_VULN_ast_parse_digest.c [u'c', u'val', u'key'] 4"
p4
I1
sS"246 /home/SySeVR/data/CVE_2014_8714_PATCHED_dissect_write_structured_field.c [u'wts_cld_byte1'] 184"
p5
I0
sS"29 /home/SySeVR/data/CVE_2010_3848_PATCHED_econet_sendmsg.c [u'iov'] 16"
p6
I0
sS"297 /home/SySeVR/data/CVE_2015_3331_VULN___driver_rfc4106_decrypt.c [u'iv_and_authTag'] 12"
p7
I0
sS"242 /home/SySeVR/data/CVE_2014_8714_PATCHED_dissect_write_structured_field.c [u'dsc_fields'] 232"
p8
I0
sS"293 /home/SySeVR/data/CVE_2015_2666_PATCHED_get_matching_model_microcode.c [u'mc_saved_tmp'] 13"
p9
I0
sS"216 /home/SySeVR/data/CVE_2014_0221_PATCHED_dtls1_get_message_fragment.c [u'wire'] 4"
p10
I0
sS"183 /home/SySeVR/data/CVE_2013_1732_VULN_nsBlockFrame__Reflow.c [u'buf'] 324"
p11
I0
sS"254 /home/SySeVR/data/CVE_2014_8714_PATCHED_dissect_write_structured_field.c [u'dtsf_fields'] 109"
p12
I0
sS"177 /home/SySeVR/data/CVE_2013_1707_VULN_NS_main.c [u'MAXPATHLEN', u'elevatedLockFilePath'] 189"
p13
I0
sS"196 /home/SySeVR/data/CVE_2013_4928_VULN_dissect_headers.c [u'key'] 116"
p14
I1
sS"101 /home/SySeVR/data/CVE_2012_4186_PATCHED_nsWaveReader__LoadFormatChunk.c [u'extLength'] 49"
p15
I0
sS"220 /home/SySeVR/data/CVE_2014_1497_VULN_WaveReader__LoadFormatChunk.c [u'waveFormat'] 5"
p16
I1
sS"265 /home/SySeVR/data/CVE_2014_8714_PATCHED_dissect_write_structured_field.c [u'qss_byte2'] 21"
p17
I0
sS"21 /home/SySeVR/data/CVE_2009_2484_VULN_Win32AddConnection.c [u'psz_server', u'psz_remote', u'psz_share'] 6"
p18
I1
sS"155 /home/SySeVR/data/CVE_2013_1696_PATCHED_nsDSURIContentListener__CheckOneFrameOptionsPolicy.c [u'allowFrom'] 3"
p19
I0
sS"207 /home/SySeVR/data/CVE_2013_5642_VULN_process_sdp.c [u'red_data_pt'] 56"
p20
I0
sS"185 /home/SySeVR/data/CVE_2013_1792_PATCHED_install_user_keyrings.c [u'buf'] 6"
p21
I0
sS"92 /home/SySeVR/data/CVE_2012_2652_VULN_bdrv_open.c [u'backing_filename'] 14"
p22
I0
sS"197 /home/SySeVR/data/CVE_2013_4932_PATCHED_elem_tv_short.c [u'buf'] 12"
p23
I0
sS"229 /home/SySeVR/data/CVE_2014_7145_VULN_SMB2_tcon.c [u'iov'] 7"
p24
I0
sS"261 /home/SySeVR/data/CVE_2014_8714_PATCHED_dissect_write_structured_field.c [u'rts_byte1'] 46"
p25
I0
sS"45 /home/SySeVR/data/CVE_2011_1573_VULN_sctp_make_init_ack.c [u'extensions'] 16"
p26
I1
sS"279 /home/SySeVR/data/CVE_2015_0833_PATCHED_NS_main.c [u'maintenanceServiceKey'] 370"
p27
I0
sS"166 /home/SySeVR/data/CVE_2013_1707_PATCHED_NS_main.c [u'tmpDir'] 164"
p28
I0
sS"277 /home/SySeVR/data/CVE_2015_0833_PATCHED_NS_main.c [u'callbackLongPath'] 619"
p29
I0
sS"204 /home/SySeVR/data/CVE_2013_5642_VULN_process_sdp.c [u's5', u's4', u's3', u's2', u's1'] 505"
p30
I0
sS"167 /home/SySeVR/data/CVE_2013_1707_PATCHED_NS_main.c [u'installDir'] 101"
p31
I0
sS"188 /home/SySeVR/data/CVE_2013_4079_VULN_dissect_schedule_message.c [u'other_slots'] 8"
p32
I1
sS"206 /home/SySeVR/data/CVE_2013_5642_VULN_process_sdp.c [u'red_fmtp'] 58"
p33
I0
sS"179 /home/SySeVR/data/CVE_2013_1707_VULN_NS_main.c [u'installDir'] 101"
p34
I0
sS"118 /home/SySeVR/data/CVE_2012_6058_PATCHED_dissect_icmpv6.c [u'conv_key'] 149"
p35
I0
sS"107 /home/SySeVR/data/CVE_2012_4293_VULN_proto_register_ecat_mailbox.c [u'ett'] 642"
p36
I0
sS"193 /home/SySeVR/data/CVE_2013_4534_VULN_openpic_realize.c [u'list_be'] 18"
p37
I0
sS"160 /home/SySeVR/data/CVE_2013_1707_PATCHED_NS_main.c [u'applyDirLongPath'] 554"
p38
I0
sS"121 /home/SySeVR/data/CVE_2013_0756_PATCHED_obj_toSource.c [u'valstr'] 108"
p39
I0
sS"57 /home/SySeVR/data/CVE_2011_3950_PATCHED_dirac_decode_data_unit.c [u'ver'] 32"
p40
I0
sS"152 /home/SySeVR/data/CVE_2013_1672_VULN_ProcessSoftwareUpdateCommand.c [u'noWriteLock'] 45"
p41
I0
sS"26 /home/SySeVR/data/CVE_2010_2431_VULN_cupsFileOpen.c [u'portname', u'hostname'] 9"
p42
I0
sS"280 /home/SySeVR/data/CVE_2015_0833_PATCHED_NS_main.c [u'installDir'] 259"
p43
I0
sS"99 /home/SySeVR/data/CVE_2012_3969_VULN_nsSVGFEMorphologyElement__Filter.c [u'extrema'] 21"
p44
I1
sS"15 /home/SySeVR/data/CVE_2007_4521_PATCHED_play_message.c [u'context'] 6"
p45
I0
sS"103 /home/SySeVR/data/CVE_2012_4288_VULN_dissect_xtp_ecntl.c [u'ecntl'] 8"
p46
I1
sS"294 /home/SySeVR/data/CVE_2015_2666_VULN_get_matching_model_microcode.c [u'mc_saved_tmp'] 13"
p47
I0
sS"18 /home/SySeVR/data/CVE_2008_1390_VULN_generic_http_callback.c [u'tmp'] 55"
p48
I1
sS"309 /home/SySeVR/data/CVE_2012_1960_VULN_compute_curve_gamma_table_type_parametric.c [u'gamma_table'] 1"
p49
I1
sS"117 /home/SySeVR/data/CVE_2012_6058_PATCHED_dissect_icmpv6.c [u'tmp'] 159"
p50
I0
sS"298 /home/SySeVR/data/CVE_2015_3811_PATCHED_wcp_uncompress.c [u'src_buf'] 13"
p51
I0
sS"52 /home/SySeVR/data/CVE_2011_3362_PATCHED_decode_residual_block.c [u'level_buf'] 6"
p52
I0
sS"24 /home/SySeVR/data/CVE_2010_2068_PATCHED_ap_proxy_http_process_response.c [u'hop_by_hop_hdrs'] 20"
p53
I0
sS"176 /home/SySeVR/data/CVE_2013_1707_VULN_NS_main.c [u'updateLockFilePath'] 192"
p54
I0
sS"227 /home/SySeVR/data/CVE_2014_6427_PATCHED_is_rtsp_request_or_reply.c [u'response_chars'] 7"
p55
I0
sS"158 /home/SySeVR/data/CVE_2013_1707_PATCHED_NS_main.c [u'buffer'] 578"
p56
I0
sS"195 /home/SySeVR/data/CVE_2013_4928_PATCHED_dissect_headers.c [u'key'] 115"
p57
I0
sS"98 /home/SySeVR/data/CVE_2012_3969_PATCHED_nsSVGFEMorphologyElement__Filter.c [u'extrema'] 21"
p58
I0
sS"76 /home/SySeVR/data/CVE_2012_1952_PATCHED_nsTableFrame__InsertFrames.c [u'insertions'] 23"
p59
I0
sS"37 /home/SySeVR/data/CVE_2011_0021_VULN_DecodeTileBlock.c [u'p_color'] 3"
p60
I0
sS"154 /home/SySeVR/data/CVE_2013_1693_VULN_nsSVGFEMorphologyElement__Filter.c [u'yExt', u'xExt'] 21"
p61
I1
sS"30 /home/SySeVR/data/CVE_2010_3848_VULN_econet_sendmsg.c [u'iov'] 16"
p62
I1
sS"49 /home/SySeVR/data/CVE_2011_2536_VULN_register_verify.c [u'tmp'] 7"
p63
I0
sS"32 /home/SySeVR/data/CVE_2010_3849_VULN_econet_sendmsg.c [u'iov'] 16"
p64
I0
sS"256 /home/SySeVR/data/CVE_2014_8714_PATCHED_dissect_write_structured_field.c [u'dtsf_byte1'] 88"
p65
I0
sS"164 /home/SySeVR/data/CVE_2013_1707_PATCHED_NS_main.c [u'updateLockFilePath'] 192"
p66
I0
sS"144 /home/SySeVR/data/CVE_2013_0868_PATCHED_generate_joint_tables.c [u'bits'] 4"
p67
I0
sS"109 /home/SySeVR/data/CVE_2012_4530_VULN_load_script.c [u'interp'] 5"
p68
I1
sS"240 /home/SySeVR/data/CVE_2014_8714_PATCHED_dissect_write_structured_field.c [u'dfdpck_coreflag'] 248"
p69
I0
sS"63 /home/SySeVR/data/CVE_2012_0067_PATCHED_iptrace_read_1_0.c [u'fddi_padding'] 9"
p70
I0
sS"257 /home/SySeVR/data/CVE_2014_8714_PATCHED_dissect_write_structured_field.c [u'dpo_fields'] 78"
p71
I0
sS"255 /home/SySeVR/data/CVE_2014_8714_PATCHED_dissect_write_structured_field.c [u'dtsf_byte2'] 100"
p72
I0
sS"140 /home/SySeVR/data/CVE_2013_0867_PATCHED_decode_slice_header.c [u'max'] 448"
p73
I0
sS"201 /home/SySeVR/data/CVE_2013_5641_PATCHED_handle_incoming.c [u'tag'] 163"
p74
I0
sS"88 /home/SySeVR/data/CVE_2012_2652_VULN_bdrv_open.c [u'backing_filename'] 14"
p75
I0
sS"171 /home/SySeVR/data/CVE_2013_1707_VULN_NS_main.c [u'callbackLongPath'] 575"
p76
I0
sS"287 /home/SySeVR/data/CVE_2015_1158_PATCHED_print_job.c [u'super', u'mimetype', u'type'] 13"
p77
I0
sS"299 /home/SySeVR/data/CVE_2015_3811_VULN_wcp_uncompress.c [u'src_buf'] 13"
p78
I0
sS"202 /home/SySeVR/data/CVE_2013_5641_PATCHED_handle_incoming.c [u'seconds'] 129"
p79
I0
sS"231 /home/SySeVR/data/CVE_2014_8541_VULN_ff_mjpeg_decode_sof.c [u'h_count'] 4"
p80
I0
sS"252 /home/SySeVR/data/CVE_2014_8714_PATCHED_dissect_write_structured_field.c [u'dsl_fields'] 129"
p81
I0
sS"250 /home/SySeVR/data/CVE_2014_8714_PATCHED_dissect_write_structured_field.c [u'wts_byte1'] 146"
p82
I0
sS"310 /home/SySeVR/data/CVE_2012_2776_PATCHED_decode_cell_data.c [u'swap_quads'] 3"
p83
I0
sS"3 /home/SySeVR/data/CVE-2015-3906_VULN_logcat_log.c [u'time_buffer'] 5"
p84
I0
sS"312 /home/SySeVR/data/CVE_2013_0311_VULN_translate_desc.c [u'iov'] 2"
p85
I1
sS"131 /home/SySeVR/data/CVE_2013_0799_VULN_ProcessSoftwareUpdateCommand.c [u'updaterIdentity'] 101"
p86
I1
sS"300 /home/SySeVR/data/CVE-2016-2328_VULN_bayer_to_yv12_wrapper.c [u'dstStride'] 2"
p87
I1
sS"46 /home/SySeVR/data/CVE_2011_1833_PATCHED_ecryptfs_parse_options.c [u'args'] 15"
p88
I0
sS"241 /home/SySeVR/data/CVE_2014_8714_PATCHED_dissect_write_structured_field.c [u'dorm_fields'] 241"
p89
I0
sS"224 /home/SySeVR/data/CVE_2014_3523_PATCHED_winnt_accept.c [u'events'] 28"
p90
I0
sS"123 /home/SySeVR/data/CVE_2013_0756_PATCHED_obj_toSource.c [u'gsop'] 35"
p91
I0
sS"136 /home/SySeVR/data/CVE_2013_0850_PATCHED_decode_slice_header.c [u'max'] 557"
p92
I0
sS"302 /home/SySeVR/data/CVE-2016-2328_VULN_bayer_to_yv12_wrapper.c [u'srcStride'] 1"
p93
I1
sS"22 /home/SySeVR/data/CVE_2009_2909_PATCHED_ax25_setsockopt.c [u'devname'] 7"
p94
I0
sS"137 /home/SySeVR/data/CVE_2013_0850_VULN_decode_slice_header.c [u'id_list'] 736"
p95
I1
sS"211 /home/SySeVR/data/CVE_2013_6380_VULN_aac_send_raw_srb.c [u'sg_user'] 14"
p96
I0
sS"97 /home/SySeVR/data/CVE_2012_2790_VULN_read_var_block_data.c [u's'] 7"
p97
I1
sS"222 /home/SySeVR/data/CVE_2014_2889_PATCHED_bpf_jit_compile.c [u'temp'] 3"
p98
I0
sS"17 /home/SySeVR/data/CVE_2007_4571_PATCHED_snd_mem_proc_read.c [u'types'] 6"
p99
I0
sS"306 /home/SySeVR/data/CVE_2012_1960_PATCHED_compute_curve_gamma_table_type_parametric.c [u'parameter'] 1"
p100
I0
sS"33 /home/SySeVR/data/CVE_2010_4165_VULN_do_tcp_setsockopt.c [u'name'] 12"
p101
I1
sS"96 /home/SySeVR/data/CVE_2012_2790_VULN_read_var_block_data.c [u'sx'] 8"
p102
I1
sS"307 /home/SySeVR/data/CVE_2012_1960_PATCHED_compute_curve_gamma_table_type_parametric.c [u'gamma_table'] 1"
p103
I0
sS"65 /home/SySeVR/data/CVE_2012_0067_VULN_iptrace_read_1_0.c [u'fddi_padding'] 9"
p104
I0
sS"234 /home/SySeVR/data/CVE_2014_8714_PATCHED_dissect_write_structured_field.c [u'dfdpck_top_row_fields'] 311"
p105
I0
sS"291 /home/SySeVR/data/CVE_2015_1158_VULN_authenticate_job.c [u'username', u'scheme', u'resource', u'host'] 11"
p106
I1
sS"13 /home/SySeVR/data/CVE_2007_4521_PATCHED_play_message.c [u'duration'] 8"
p107
I0
sS"249 /home/SySeVR/data/CVE_2014_8714_PATCHED_dissect_write_structured_field.c [u'wts_byte2'] 155"
p108
I0
sS"124 /home/SySeVR/data/CVE_2013_0756_PATCHED_obj_toSource.c [u'val'] 31"
p109
I0
sS"198 /home/SySeVR/data/CVE_2013_4933_PATCHED_netmon_open.c [u'magic'] 4"
p110
I0
sS"260 /home/SySeVR/data/CVE_2014_8714_PATCHED_dissect_write_structured_field.c [u'rts_fields'] 52"
p111
I0
sS"270 /home/SySeVR/data/CVE_2014_9374_PATCHED_AST_OPTIONAL_API_NAME.c [u'buf', u'MAXIMUM_FRAME_SIZE'] 3"
p112
I0
sS"159 /home/SySeVR/data/CVE_2013_1707_PATCHED_NS_main.c [u'callbackLongPath'] 575"
p113
I0
sS"301 /home/SySeVR/data/CVE-2016-2328_VULN_bayer_to_yv12_wrapper.c [u'dst'] 2"
p114
I1
sS"189 /home/SySeVR/data/CVE_2013_4079_VULN_dissect_schedule_message.c [u'sched_end', u'new_slots', u'len', u'sched_begin'] 5"
p115
I1
sS"39 /home/SySeVR/data/CVE_2011_0726_PATCHED_do_task_stat.c [u'tcomm'] 19"
p116
I0
sS"59 /home/SySeVR/data/CVE_2011_3973_PATCHED_decode_residual_block.c [u'level_buf'] 6"
p117
I0
sS"102 /home/SySeVR/data/CVE_2012_4186_PATCHED_nsWaveReader__LoadFormatChunk.c [u'waveFormat'] 5"
p118
I0
sS"7 /home/SySeVR/data/CVE_2004_1151_VULN_sys32_ni_syscall.c [u'lastcomm'] 4"
p119
I1
sS"182 /home/SySeVR/data/CVE_2013_1726_VULN_mar_read_product_info_block.c [u'buf'] 10"
p120
I0
sS"245 /home/SySeVR/data/CVE_2014_8714_PATCHED_dissect_write_structured_field.c [u'wts_cld_byte2'] 196"
p121
I0
sS"282 /home/SySeVR/data/CVE_2015_0833_PATCHED_NS_main.c [u'MAXPATHLEN', u'elevatedLockFilePath'] 246"
p122
I0
sS"314 /home/SySeVR/data/CVE_2014_8643_VULN_XRE_InitChildProcess.c [u'aArgv'] 3"
p123
I1
sS"80 /home/SySeVR/data/CVE_2012_2652_VULN_bdrv_open.c [u'backing_filename'] 80"
p124
I0
sS"253 /home/SySeVR/data/CVE_2014_8714_PATCHED_dissect_write_structured_field.c [u'dsl_byte1'] 121"
p125
I0
sS"104 /home/SySeVR/data/CVE_2012_4289_PATCHED_proto_register_afp.c [u'ett'] 1504"
p126
I0
sS"295 /home/SySeVR/data/CVE_2015_3008_VULN_handle_tcptls_connection.c [u'err'] 7"
p127
I0
sS"141 /home/SySeVR/data/CVE_2013_0867_VULN_decode_slice_header.c [u'id_list'] 636"
p128
I0
sS"82 /home/SySeVR/data/CVE_2012_2652_VULN_bdrv_open.c [u'backing_filename'] 80"
p129
I0
sS"219 /home/SySeVR/data/CVE_2014_1497_VULN_WaveReader__LoadFormatChunk.c [u'extLength'] 44"
p130
I0
sS"217 /home/SySeVR/data/CVE_2014_0221_VULN_dtls1_get_message_fragment.c [u'wire'] 4"
p131
I0
sS"111 /home/SySeVR/data/CVE_2012_5237_PATCHED_dissect_hsrp.c [u'auth_buf'] 49"
p132
I0
sS"35 /home/SySeVR/data/CVE_2011_0021_PATCHED_DecodeTileBlock.c [u'p_color'] 3"
p133
I0
sS"210 /home/SySeVR/data/CVE_2013_6380_VULN_aac_send_raw_srb.c [u'sg_list'] 15"
p134
I0
sS"170 /home/SySeVR/data/CVE_2013_1707_VULN_NS_main.c [u'buffer'] 578"
p135
I1
sS"6 /home/SySeVR/data/CVE_2004_1151_PATCHED_sys32_ni_syscall.c [u'lastcomm'] 4"
p136
I0
sS"268 /home/SySeVR/data/CVE_2014_9316_PATCHED_mjpeg_decode_app.c [u'id_str'] 15"
p137
I0
sS"163 /home/SySeVR/data/CVE_2013_1707_PATCHED_NS_main.c [u'installDir'] 202"
p138
I0
sS"303 /home/SySeVR/data/CVE-2016-2328_VULN_bayer_to_yv12_wrapper.c [u'src'] 1"
p139
I1
sS"89 /home/SySeVR/data/CVE_2012_2652_VULN_bdrv_open.c [u'backing_filename'] 14"
p140
I0
sS"286 /home/SySeVR/data/CVE_2015_0833_VULN_UpdateThreadFunc.c [u'dataFile'] 9"
p141
I0
sS"156 /home/SySeVR/data/CVE_2013_1707_PATCHED_NS_main.c [u'installDir'] 768"
p142
I0
sS"47 /home/SySeVR/data/CVE_2011_2534_VULN_clusterip_proc_write.c [u'buffer'] 6"
p143
I1
sS"130 /home/SySeVR/data/CVE_2013_0782_PATCHED_nsSaveAsCharset__HandleFallBack.c [u'fallbackStr'] 9"
p144
I0
sS"275 /home/SySeVR/data/CVE_2015_0833_PATCHED_NS_main.c [u'installDir'] 643"
p145
I0
sS"228 /home/SySeVR/data/CVE_2014_7145_PATCHED_SMB2_tcon.c [u'iov'] 7"
p146
I0
sS"199 /home/SySeVR/data/CVE_2013_4933_VULN_netmon_open.c [u'magic'] 4"
p147
I0
sS"251 /home/SySeVR/data/CVE_2014_8714_PATCHED_dissect_write_structured_field.c [u'dsl_fields2'] 137"
p148
I0
sS"212 /home/SySeVR/data/CVE_2013_6671_PATCHED_nsHtml5TreeOperation__Perform.c [u'params'] 562"
p149
I0
sS"36 /home/SySeVR/data/CVE_2011_0021_VULN_DecodeScroll.c [u'copy'] 3"
p150
I0
sS"110 /home/SySeVR/data/CVE_2012_5237_PATCHED_dissect_hsrp.c [u'auth_buf'] 225"
p151
I0
sS"71 /home/SySeVR/data/CVE_2012_0477_VULN_nsISO2022KRToUnicode__Convert.c [u'ksx'] 130"
p152
I1
sS"243 /home/SySeVR/data/CVE_2014_8714_PATCHED_dissect_write_structured_field.c [u'wts_line_data_fields'] 218"
p153
I0
sS"283 /home/SySeVR/data/CVE_2015_0833_PATCHED_NS_main.c [u'tmpDir'] 221"
p154
I0
sS"133 /home/SySeVR/data/CVE_2013_0844_VULN_adpcm_decode_frame.c [u'offsets'] 450"
p155
I1
sS"40 /home/SySeVR/data/CVE_2011_0726_VULN_do_task_stat.c [u'tcomm'] 19"
p156
I0
sS"84 /home/SySeVR/data/CVE_2012_2652_VULN_bdrv_open.c [u'backing_filename'] 80"
p157
I0
sS"264 /home/SySeVR/data/CVE_2014_8714_PATCHED_dissect_write_structured_field.c [u'qss_fields'] 27"
p158
I0
sS"233 /home/SySeVR/data/CVE_2014_8713_VULN_build_expert_data.c [u'temp_buffer'] 9"
p159
I0
sS"273 /home/SySeVR/data/CVE_2015_0833_PATCHED_NS_main.c [u'oldDistDir'] 820"
p160
I0
sS"132 /home/SySeVR/data/CVE_2013_0799_VULN_ProcessSoftwareUpdateCommand.c [u'noWriteLock'] 45"
p161
I1
sS"27 /home/SySeVR/data/CVE_2010_2495_VULN_pppol2tp_sendmsg.c [u'ppph'] 4"
p162
I0
sS"100 /home/SySeVR/data/CVE_2012_4186_PATCHED_nsWaveReader__LoadFormatChunk.c [u'chunkExtension'] 66"
p163
I0
sS"125 /home/SySeVR/data/CVE_2013_0772_VULN_nsGIFDecoder2__OutputRow.c [u'kjump'] 88"
p164
I0
sS"28 /home/SySeVR/data/CVE_2010_2803_VULN_drm_ioctl.c [u'stack_kdata'] 10"
p165
I0
sS"55 /home/SySeVR/data/CVE_2011_3945_PATCHED_decode_frame.c [u'offsets'] 6"
p166
I0
sS"58 /home/SySeVR/data/CVE_2011_3973_PATCHED_decode_residual_block.c [u'run_buf'] 7"
p167
I0
sS"1 /home/SySeVR/data/CVE-2015-1872_VULN_ff_mjpeg_decode_sof.c [u'v_count'] 6"
p168
I1
sS"239 /home/SySeVR/data/CVE_2014_8714_PATCHED_dissect_write_structured_field.c [u'dfdpck_toprowflag1'] 260"
p169
I0
sS"9 /home/SySeVR/data/CVE_2006_2935_VULN_dvd_read_bca.c [u'buf'] 4"
p170
I0
sS"19 /home/SySeVR/data/CVE_2008_1390_VULN_generic_http_callback.c [u'cookie'] 6"
p171
I0
sS"94 /home/SySeVR/data/CVE_2012_2790_VULN_read_var_block_data.c [u'k'] 164"
p172
I1
sS"274 /home/SySeVR/data/CVE_2015_0833_PATCHED_NS_main.c [u'oldPrecomplete'] 815"
p173
I0
sS"48 /home/SySeVR/data/CVE_2011_2536_PATCHED_register_verify.c [u'tmp'] 7"
p174
I0
sS"146 /home/SySeVR/data/CVE_2013_0868_VULN_generate_joint_tables.c [u'len'] 5"
p175
I0
sS"272 /home/SySeVR/data/CVE_2015_0833_PATCHED_NS_main.c [u'newDistDir'] 825"
p176
I0
sS"2 /home/SySeVR/data/CVE-2015-1872_VULN_ff_mjpeg_decode_sof.c [u'h_count'] 5"
p177
I1
sS"86 /home/SySeVR/data/CVE_2012_2652_VULN_bdrv_open.c [u'backing_filename'] 14"
p178
I0
sS"122 /home/SySeVR/data/CVE_2013_0756_PATCHED_obj_toSource.c [u'id'] 44"
p179
I0
sS"20 /home/SySeVR/data/CVE_2008_1390_VULN_generic_http_callback.c [u'workspace'] 5"
p180
I0
sS"77 /home/SySeVR/data/CVE_2012_2652_VULN_bdrv_open.c [u'backing_filename'] 80"
p181
I0
sS"61 /home/SySeVR/data/CVE_2011_4598_PATCHED_handle_request_info.c [u'buf'] 3"
p182
I0
sS"221 /home/SySeVR/data/CVE_2014_1508_VULN_nsDisplayNotation__Paint.c [u'p'] 60"
p183
I1
sS"304 /home/SySeVR/data/CVE_2011_3936_PATCHED_dv_extract_audio.c [u'ppcm'] 1"
p184
I0
sS"213 /home/SySeVR/data/CVE_2013_6671_PATCHED_nsHtml5TreeOperation__Perform.c [u'params'] 556"
p185
I0
sS"67 /home/SySeVR/data/CVE_2012_0477_PATCHED_nsISO2022CNToUnicode__Convert.c [u'cns'] 446"
p186
I0
sS"169 /home/SySeVR/data/CVE_2013_1707_VULN_NS_main.c [u'installDir'] 591"
p187
I1
sS"145 /home/SySeVR/data/CVE_2013_0868_PATCHED_generate_joint_tables.c [u'symbols'] 3"
p188
I0
sS"194 /home/SySeVR/data/CVE_2013_4534_VULN_openpic_realize.c [u'list_le'] 7"
p189
I0
sS"190 /home/SySeVR/data/CVE_2013_4082_VULN_vwr_read.c [u'rec'] 4"
p190
I0
sS"223 /home/SySeVR/data/CVE_2014_2889_VULN_bpf_jit_compile.c [u'temp'] 3"
p191
I0
sS"147 /home/SySeVR/data/CVE_2013_0868_VULN_generate_joint_tables.c [u'bits'] 4"
p192
I0
sS"269 /home/SySeVR/data/CVE_2014_9316_VULN_mjpeg_decode_app.c [u'id_str'] 15"
p193
I0
sS"41 /home/SySeVR/data/CVE_2011_1147_VULN_udptl_rx_packet.c [u'lengths'] 22"
p194
I1
sS"95 /home/SySeVR/data/CVE_2012_2790_VULN_read_var_block_data.c [u'delta'] 163"
p195
I1
sS"42 /home/SySeVR/data/CVE_2011_1147_VULN_udptl_rx_packet.c [u'bufs'] 21"
p196
I1
sS"70 /home/SySeVR/data/CVE_2012_0477_PATCHED_nsISO2022CNToUnicode__Convert.c [u'gb'] 116"
p197
I0
sS"172 /home/SySeVR/data/CVE_2013_1707_VULN_NS_main.c [u'applyDirLongPath'] 554"
p198
I0
sS"31 /home/SySeVR/data/CVE_2010_3849_PATCHED_econet_sendmsg.c [u'iov'] 16"
p199
I0
sS"290 /home/SySeVR/data/CVE_2015_1158_VULN_add_job.c [u'job_uri'] 15"
p200
I0
sS"296 /home/SySeVR/data/CVE_2015_3331_PATCHED___driver_rfc4106_decrypt.c [u'iv_and_authTag'] 12"
p201
I0
sS"168 /home/SySeVR/data/CVE_2013_1707_VULN_NS_main.c [u'installDir'] 762"
p202
I1
sS"38 /home/SySeVR/data/CVE_2011_0055_VULN_JO.c [u'vec'] 9"
p203
I1
sS"209 /home/SySeVR/data/CVE_2013_6380_PATCHED_aac_send_raw_srb.c [u'sg_user'] 14"
p204
I0
sS"175 /home/SySeVR/data/CVE_2013_1707_VULN_NS_main.c [u'installDir'] 202"
p205
I0
sS"68 /home/SySeVR/data/CVE_2012_0477_PATCHED_nsISO2022CNToUnicode__Convert.c [u'cns'] 314"
p206
I0
sS"258 /home/SySeVR/data/CVE_2014_8714_PATCHED_dissect_write_structured_field.c [u'dpo_byte2'] 72"
p207
I0
sS"305 /home/SySeVR/data/CVE_2011_3936_VULN_dv_extract_audio.c [u'ppcm'] 1"
p208
I1
sS"214 /home/SySeVR/data/CVE_2013_7009_VULN_rpza_decode_stream.c [u'color4'] 11"
p209
I0
sS"54 /home/SySeVR/data/CVE_2011_3362_VULN_decode_residual_block.c [u'level_buf'] 5"
p210
I0
sS"120 /home/SySeVR/data/CVE_2012_6058_PATCHED_dissect_icmpv6.c [u'cksum_vec'] 8"
p211
I0
sS"64 /home/SySeVR/data/CVE_2012_0067_PATCHED_iptrace_read_1_0.c [u'header'] 6"
p212
I0
sS"187 /home/SySeVR/data/CVE_2013_3674_VULN_cdg_decode_frame.c [u'cdg_data'] 8"
p213
I1
sS"93 /home/SySeVR/data/CVE_2012_2652_VULN_bdrv_open.c [u'tmp_filename'] 6"
p214
I1
sS"151 /home/SySeVR/data/CVE_2013_1672_VULN_ProcessSoftwareUpdateCommand.c [u'updaterIdentity'] 101"
p215
I0
sS"208 /home/SySeVR/data/CVE_2013_6380_PATCHED_aac_send_raw_srb.c [u'sg_list'] 15"
p216
I0
sS"288 /home/SySeVR/data/CVE_2015_1158_PATCHED_print_job.c [u'filename'] 11"
p217
I0
sS"10 /home/SySeVR/data/CVE_2006_4813_PATCHED___block_prepare_write.c [u'wait_bh', u'head', u'bh', u'wait'] 8"
p218
I0
sS"83 /home/SySeVR/data/CVE_2012_2652_VULN_bdrv_open.c [u'backing_filename'] 80"
p219
I0
sS"112 /home/SySeVR/data/CVE_2012_5237_PATCHED_dissect_hsrp.c [u'dst'] 5"
p220
I0
sS"165 /home/SySeVR/data/CVE_2013_1707_PATCHED_NS_main.c [u'MAXPATHLEN', u'elevatedLockFilePath'] 189"
p221
I0
sS"281 /home/SySeVR/data/CVE_2015_0833_PATCHED_NS_main.c [u'updateLockFilePath'] 249"
p222
I0
sS"56 /home/SySeVR/data/CVE_2011_3945_VULN_decode_frame.c [u'offsets'] 6"
p223
I1
sS"108 /home/SySeVR/data/CVE_2012_4530_PATCHED_load_script.c [u'interp'] 5"
p224
I0
sS"232 /home/SySeVR/data/CVE_2014_8544_PATCHED_tiff_decode_tag.c [u'pal_gb'] 206"
p225
I0
sS"134 /home/SySeVR/data/CVE_2013_0844_VULN_adpcm_decode_frame.c [u'byte'] 417"
p226
I1
sS"87 /home/SySeVR/data/CVE_2012_2652_VULN_bdrv_open.c [u'backing_filename'] 14"
p227
I0
sS"150 /home/SySeVR/data/CVE_2013_1672_PATCHED_ProcessSoftwareUpdateCommand.c [u'noWriteLock'] 45"
p228
I0
sS"271 /home/SySeVR/data/CVE_2015_0228_VULN_lua_websocket_read.c [u'frame'] 143"
p229
I0
sS"115 /home/SySeVR/data/CVE_2012_5237_VULN_dissect_hsrp.c [u'dst'] 5"
p230
I0
sS"85 /home/SySeVR/data/CVE_2012_2652_VULN_bdrv_open.c [u'backing_filename'] 14"
p231
I0
sS"236 /home/SySeVR/data/CVE_2014_8714_PATCHED_dissect_write_structured_field.c [u'dfdpck_fields'] 296"
p232
I0
sS"161 /home/SySeVR/data/CVE_2013_1707_PATCHED_NS_main.c [u'maintenanceServiceKey'] 321"
p233
I0
sS"162 /home/SySeVR/data/CVE_2013_1707_PATCHED_NS_main.c [u'installDir'] 292"
p234
I0
sS"135 /home/SySeVR/data/CVE_2013_0850_PATCHED_decode_slice_header.c [u'id_list'] 736"
p235
I0
sS"263 /home/SySeVR/data/CVE_2014_8714_PATCHED_dissect_write_structured_field.c [u'dawt_fields'] 33"
p236
I0
sS"113 /home/SySeVR/data/CVE_2012_5237_VULN_dissect_hsrp.c [u'auth_buf'] 220"
p237
I1
sS"73 /home/SySeVR/data/CVE_2012_1183_VULN_milliwatt_generate.c [u'buf'] 3"
p238
I1
sS"119 /home/SySeVR/data/CVE_2012_6058_PATCHED_dissect_icmpv6.c [u'phdr'] 9"
p239
I0
sS"218 /home/SySeVR/data/CVE_2014_1497_VULN_WaveReader__LoadFormatChunk.c [u'chunkExtension'] 63"
p240
I0
sS"180 /home/SySeVR/data/CVE_2013_1708_VULN_WaveReader__LoadListChunk.c [u'chunk'] 16"
p241
I0
sS"308 /home/SySeVR/data/CVE_2012_1960_VULN_compute_curve_gamma_table_type_parametric.c [u'parameter'] 1"
p242
I1
sS"91 /home/SySeVR/data/CVE_2012_2652_VULN_bdrv_open.c [u'backing_filename'] 14"
p243
I0
sS"285 /home/SySeVR/data/CVE_2015_0833_VULN_UpdateThreadFunc.c [u'updateSettingsPath'] 22"
p244
I0
sS"8 /home/SySeVR/data/CVE_2005_3356_VULN_do_open.c [u'O_ACCMODE', u'oflag2acc'] 3"
p245
I1
sS"191 /home/SySeVR/data/CVE_2013_4512_VULN_exitcode_proc_write.c [u'end', u'buf'] 4"
p246
I1
sS"126 /home/SySeVR/data/CVE_2013_0777_PATCHED_nsCSSRendering__PaintBoxShadowOuter.c [u'borderSizes'] 159"
p247
I0
sS"23 /home/SySeVR/data/CVE_2009_2909_VULN_ax25_setsockopt.c [u'devname'] 7"
p248
I0
sS"60 /home/SySeVR/data/CVE_2011_4594_PATCHED___sys_sendmsg.c [u'iovstack', u'iov'] 8"
p249
I0
sS"248 /home/SySeVR/data/CVE_2014_8714_PATCHED_dissect_write_structured_field.c [u'wts_byte3'] 162"
p250
I0
sS"262 /home/SySeVR/data/CVE_2014_8714_PATCHED_dissect_write_structured_field.c [u'dckf_fields'] 39"
p251
I0
sS"244 /home/SySeVR/data/CVE_2014_8714_PATCHED_dissect_write_structured_field.c [u'wts_cld_byte3'] 206"
p252
I0
sS"129 /home/SySeVR/data/CVE_2013_0777_VULN_nsCSSRendering__PaintBoxShadowOuter.c [u'twipsRadii'] 29"
p253
I0
sS"235 /home/SySeVR/data/CVE_2014_8714_PATCHED_dissect_write_structured_field.c [u'dfdpck_core_area_fields'] 303"
p254
I0
sS"50 /home/SySeVR/data/CVE_2011_2980_PATCHED_ThinkPadSensor__Startup.c [u'path'] 4"
p255
I0
sS"178 /home/SySeVR/data/CVE_2013_1707_VULN_NS_main.c [u'tmpDir'] 164"
p256
I0
sS"14 /home/SySeVR/data/CVE_2007_4521_PATCHED_play_message.c [u'origtime'] 7"
p257
I0
sS"16 /home/SySeVR/data/CVE_2007_4521_PATCHED_play_message.c [u'cid'] 5"
p258
I0
sS"25 /home/SySeVR/data/CVE_2010_2068_PATCHED_ap_proxy_http_process_response.c [u'buffer'] 8"
p259
I0
sS"284 /home/SySeVR/data/CVE_2015_0833_VULN_UpdateThreadFunc.c [u'updatingDir'] 46"
p260
I0
sS"313 /home/SySeVR/data/CVE_2013_0799_VULN_GetInstallationDir.c [u'aResultDir'] 2"
p261
I1
sS"192 /home/SySeVR/data/CVE_2013_4534_VULN_openpic_realize.c [u'list_fsl'] 29"
p262
I0
sS"174 /home/SySeVR/data/CVE_2013_1707_VULN_NS_main.c [u'installDir'] 292"
p263
I0
sS"138 /home/SySeVR/data/CVE_2013_0850_VULN_decode_slice_header.c [u'max'] 557"
p264
I1
sS"153 /home/SySeVR/data/CVE_2013_1693_VULN_nsSVGFEMorphologyElement__Filter.c [u'extrema'] 22"
p265
I1
sS"34 /home/SySeVR/data/CVE_2011_0021_PATCHED_DecodeScroll.c [u'copy'] 3"
p266
I0
sS"230 /home/SySeVR/data/CVE_2014_8541_VULN_ff_mjpeg_decode_sof.c [u'v_count'] 5"
p267
I0
sS"259 /home/SySeVR/data/CVE_2014_8714_PATCHED_dissect_write_structured_field.c [u'dpo_byte1'] 60"
p268
I0
sS"11 /home/SySeVR/data/CVE_2007_4521_PATCHED_play_message.c [u'todir'] 10"
p269
I0
sS"81 /home/SySeVR/data/CVE_2012_2652_VULN_bdrv_open.c [u'backing_filename'] 80"
p270
I0
sS"226 /home/SySeVR/data/CVE_2014_5163_VULN_decode_apn.c [u'str'] 4"
p271
I1
sS"116 /home/SySeVR/data/CVE_2012_5238_PATCHED_proto_register_lcp.c [u'ett'] 247"
p272
I0
sS"278 /home/SySeVR/data/CVE_2015_0833_PATCHED_NS_main.c [u'applyDirLongPath'] 598"
p273
I0
sS"266 /home/SySeVR/data/CVE_2014_8714_PATCHED_dissect_write_structured_field.c [u'qss_byte1'] 15"
p274
I0
sS"157 /home/SySeVR/data/CVE_2013_1707_PATCHED_NS_main.c [u'installDir'] 597"
p275
I0
sS"79 /home/SySeVR/data/CVE_2012_2652_VULN_bdrv_open.c [u'backing_filename'] 80"
p276
I0
sS"4 /home/SySeVR/data/CVE-2016-7179_VULN_parse_outhdr_string.c [u'digit_array'] 8"
p277
I0
sS"139 /home/SySeVR/data/CVE_2013_0867_PATCHED_decode_slice_header.c [u'id_list'] 637"
p278
I0
sS"311 /home/SySeVR/data/CVE_2012_2776_PATCHED_decode_cell_data.c [u'delta'] 3"
p279
I0
sS"238 /home/SySeVR/data/CVE_2014_8714_PATCHED_dissect_write_structured_field.c [u'dfdpck_toprowflag2'] 272"
p280
I0
sS"75 /home/SySeVR/data/CVE_2012_1947_VULN_nsNativeCharsetConverter__UnicodeToNative.c [u'ubuf'] 30"
p281
I0
sS"142 /home/SySeVR/data/CVE_2013_0867_VULN_decode_slice_header.c [u'max'] 447"
p282
I0
sS"149 /home/SySeVR/data/CVE_2013_1672_PATCHED_ProcessSoftwareUpdateCommand.c [u'updaterIdentity'] 101"
p283
I0
sS"276 /home/SySeVR/data/CVE_2015_0833_PATCHED_NS_main.c [u'buffer'] 622"
p284
I0
sS"12 /home/SySeVR/data/CVE_2007_4521_PATCHED_play_message.c [u'category'] 9"
p285
I0
sS"292 /home/SySeVR/data/CVE_2015_1158_VULN_release_job.c [u'username', u'scheme', u'resource', u'host'] 9"
p286
I1
sS"106 /home/SySeVR/data/CVE_2012_4293_PATCHED_dissect_ecat_eoe.c [u'szText'] 7"
p287
I0
sS"181 /home/SySeVR/data/CVE_2013_1726_PATCHED_mar_read_product_info_block.c [u'buf'] 10"
p288
I0
sS"114 /home/SySeVR/data/CVE_2012_5237_VULN_dissect_hsrp.c [u'auth_buf'] 49"
p289
I0
sS"215 /home/SySeVR/data/CVE_2013_7011_VULN_read_header.c [u'state'] 3"
p290
I1
sS"78 /home/SySeVR/data/CVE_2012_2652_VULN_bdrv_open.c [u'backing_filename'] 80"
p291
I0
sS"72 /home/SySeVR/data/CVE_2012_1183_PATCHED_milliwatt_generate.c [u'buf'] 3"
p292
I0
sS"237 /home/SySeVR/data/CVE_2014_8714_PATCHED_dissect_write_structured_field.c [u'dfdpck_toprowflag3'] 284"
p293
I0
sS"200 /home/SySeVR/data/CVE_2013_5641_PATCHED_handle_incoming.c [u'totag'] 184"
p294
I0
sS"184 /home/SySeVR/data/CVE_2013_1772_PATCHED_call_console_drivers.c [u'buf_prefix'] 16"
p295
I0
sS"186 /home/SySeVR/data/CVE_2013_1848_PATCHED_ext3_blkdev_get.c [u'b'] 4"
p296
I0
sS"127 /home/SySeVR/data/CVE_2013_0777_PATCHED_nsCSSRendering__PaintBoxShadowOuter.c [u'twipsRadii'] 29"
p297
I0
sS"44 /home/SySeVR/data/CVE_2011_1175_VULN_handle_tcptls_connection.c [u'err'] 7"
p298
I0
sS"62 /home/SySeVR/data/CVE_2011_4598_VULN_handle_request_info.c [u'buf'] 3"
p299
I0
sS"66 /home/SySeVR/data/CVE_2012_0067_VULN_iptrace_read_1_0.c [u'header'] 6"
p300
I1
sS"173 /home/SySeVR/data/CVE_2013_1707_VULN_NS_main.c [u'maintenanceServiceKey'] 321"
p301
I0
sS"203 /home/SySeVR/data/CVE_2013_5642_VULN_process_sdp.c [u's2', u's1'] 699"
p302
I1
sS"51 /home/SySeVR/data/CVE_2011_3362_PATCHED_decode_residual_block.c [u'run_buf'] 7"
p303
I0
sS"128 /home/SySeVR/data/CVE_2013_0777_VULN_nsCSSRendering__PaintBoxShadowOuter.c [u'borderSizes'] 156"
p304
I1
sS"105 /home/SySeVR/data/CVE_2012_4289_VULN_proto_register_afp.c [u'ett'] 1504"
p305
I0
sS"69 /home/SySeVR/data/CVE_2012_0477_PATCHED_nsISO2022CNToUnicode__Convert.c [u'cns'] 198"
p306
I0
sS"148 /home/SySeVR/data/CVE_2013_0868_VULN_generate_joint_tables.c [u'symbols'] 3"
p307
I0
sS"90 /home/SySeVR/data/CVE_2012_2652_VULN_bdrv_open.c [u'backing_filename'] 14"
p308
I0
sS"247 /home/SySeVR/data/CVE_2014_8714_PATCHED_dissect_write_structured_field.c [u'wts_fields'] 174"
p309
I0
sS"289 /home/SySeVR/data/CVE_2015_1158_VULN_add_job.c [u'mimetype'] 149"
p310
I0
sS"143 /home/SySeVR/data/CVE_2013_0868_PATCHED_generate_joint_tables.c [u'len'] 5"
p311
I0
sS"53 /home/SySeVR/data/CVE_2011_3362_VULN_decode_residual_block.c [u'run_buf'] 6"
p312
I0
sS"5 /home/SySeVR/data/CVE-2016-7180_VULN_dissect_ipmi_trace.c [u'str'] 38"
p313
I0
sS"225 /home/SySeVR/data/CVE_2014_5163_PATCHED_decode_apn.c [u'str'] 4"
p314
I0
s.