(lp0
(lp1
(lp2
S'static'
p3
aS'int'
p4
aS'func_0'
p5
aS'('
p6
aS'void'
p7
aS'*'
p8
aS'variable_0'
p9
aS','
p10
aS'variable_1'
p11
ag8
aS'variable_2'
p12
aS')'
p13
aS'variable_3'
p14
ag8
aS'variable_4'
p15
aS'='
p16
aS'variable_5'
p17
aS'->'
p18
aS'variable_6'
p19
aS';'
p20
aS'const'
p21
aS'uint8_t'
p22
ag8
aS'variable_7'
p23
ag16
aS'variable_2'
p24
aS'->'
p25
aS'variable_8'
p26
aS'>'
p27
ag16
aS'2'
p28
aS'?'
p29
aS'variable_2'
p30
aS'->'
p31
aS'variable_0'
p32
aS'+'
p33
aS'func_1'
p34
ag6
aS'variable_2'
p35
aS'->'
p36
aS'variable_0'
p37
ag13
aS':'
p38
aS'NULL'
p39
ag20
aS'const'
p40
aS'int'
p41
aS'variable_9'
p42
ag16
aS'variable_2'
p43
aS'->'
p44
aS'variable_8'
p45
ag27
ag16
ag28
ag29
aS'variable_2'
p46
aS'->'
p47
aS'variable_8'
p48
aS'-'
p49
aS'func_2'
p50
ag6
aS'variable_2'
p51
aS'->'
p52
aS'variable_0'
p53
ag13
ag38
aS'0'
p54
ag20
aS'const'
p55
aS'uint8_t'
p56
ag8
aS'variable_10'
p57
ag16
aS'variable_7'
p58
ag33
aS'variable_9'
p59
ag20
aS'int'
p60
aS'variable_11'
p61
ag10
aS'variable_12'
p62
ag10
aS'variable_13'
p63
ag20
aS'if'
p64
ag6
ag6
aS'variable_13'
p65
ag16
aS'func_3'
p66
ag6
aS'variable_5'
p67
ag10
aS'variable_2'
p68
ag13
ag13
aS'<'
p69
ag54
ag13
aS'if'
p70
ag6
aS'variable_4'
p71
aS'->'
p72
aS'variable_14'
p73
ag13
aS'if'
p74
ag6
ag6
aS'variable_13'
p75
ag16
aS'variable_5'
p76
aS'->'
p77
aS'func_4'
p78
ag6
aS'variable_5'
p79
ag10
aS'&'
p80
aS'variable_4'
p81
aS'->'
p82
aS'variable_15'
p83
ag13
ag13
ag69
ag54
ag13
aS'if'
p84
ag6
ag6
aS'variable_13'
p85
ag16
aS'func_5'
p86
ag6
aS'variable_5'
p87
ag10
ag80
aS'variable_4'
p88
aS'->'
p89
aS'variable_15'
p90
ag13
ag13
ag69
ag54
ag13
aS'if'
p91
ag6
aS'variable_5'
p92
aS'->'
p93
aS'variable_16'
p94
ag69
ag16
aS'8'
p95
aS'&&'
p96
aS'variable_5'
p97
aS'->'
p98
aS'variable_17'
p99
aS'=='
p100
aS'variable_18'
p101
ag13
aS'if'
p102
ag6
ag6
aS'variable_13'
p103
ag16
aS'func_6'
p104
ag6
aS'variable_5'
p105
ag10
ag6
aS'uint32_t'
p106
ag8
ag13
aS'variable_4'
p107
aS'->'
p108
aS'variable_15'
p109
aS'.'
p110
aS'variable_0'
p111
aS'['
p112
aS'1'
p113
aS']'
p114
ag13
ag13
ag69
ag54
ag13
aS'if'
p115
ag6
aS'variable_5'
p116
aS'->'
p117
aS'variable_17'
p118
aS'=='
p119
aS'variable_19'
p120
aS'&&'
p121
aS'variable_5'
p122
aS'->'
p123
aS'variable_16'
p124
ag69
ag16
ag95
ag13
aS'if'
p125
ag6
ag6
aS'variable_13'
p126
ag16
aS'func_7'
p127
ag6
aS'variable_5'
p128
ag10
aS'variable_4'
p129
aS'->'
p130
aS'variable_20'
p131
ag13
ag13
ag69
ag54
ag13
aS'variable_4'
p132
aS'->'
p133
aS'variable_14'
p134
ag16
ag113
ag20
aS'switch'
p135
ag6
aS'variable_4'
p136
aS'->'
p137
aS'variable_21'
p138
ag13
aS'if'
p139
ag6
aS'variable_5'
p140
aS'->'
p141
aS'variable_22'
p142
aS'=='
p143
aS'func_8'
p144
ag6
aS"'"
p145
aS'A'
p146
ag145
ag10
ag145
aS'C'
p147
ag145
ag10
ag145
aS'B'
p148
ag145
ag10
ag145
aS'M'
p149
ag145
ag13
ag13
aS'if'
p150
ag6
aS'variable_5'
p151
aS'->'
p152
aS'variable_22'
p153
aS'=='
p154
aS'func_9'
p155
ag6
ag145
aS'D'
p156
ag145
ag10
ag145
aS'E'
p157
ag145
ag10
ag145
ag157
ag145
ag10
ag145
aS'P'
p158
ag145
ag13
ag13
aS'if'
p159
ag6
aS'variable_5'
p160
aS'->'
p161
aS'variable_22'
p162
aS'=='
p163
aS'func_10'
p164
ag6
ag145
aS'I'
p165
ag145
ag10
ag145
aS'L'
p166
ag145
ag10
ag145
ag148
ag145
ag10
ag145
ag149
ag145
ag13
ag13
aS'if'
p167
ag6
aS'variable_5'
p168
aS'->'
p169
aS'variable_22'
p170
aS'=='
p171
aS'func_11'
p172
ag6
ag145
ag158
ag145
ag10
ag145
ag148
ag145
ag10
ag145
ag149
ag145
ag10
ag145
ag145
ag13
ag13
aS'if'
p173
ag6
aS'variable_5'
p174
aS'->'
p175
aS'variable_17'
p176
aS'=='
p177
aS'variable_18'
p178
aS'||'
p179
aS'variable_5'
p180
aS'->'
p181
aS'variable_17'
p182
aS'=='
p183
aS'variable_23'
p184
ag13
aS'if'
p185
ag6
aS'variable_4'
p186
aS'->'
p187
aS'variable_24'
p188
ag13
aS'for'
p189
ag6
aS'variable_11'
p190
ag16
ag54
ag20
aS'variable_11'
p191
ag69
aS'variable_5'
p192
aS'->'
p193
aS'variable_25'
p194
aS'&&'
p195
aS'variable_10'
p196
ag27
aS'variable_7'
p197
ag20
aS'variable_11'
p198
aS'++'
p199
ag13
aS'memcpy'
p200
ag6
aS'variable_4'
p201
aS'->'
p202
aS'variable_26'
p203
ag10
aS'variable_7'
p204
ag10
aS'func_12'
p205
ag6
aS'variable_5'
p206
aS'->'
p207
aS'variable_27'
p208
ag10
aS'variable_10'
p209
ag49
aS'variable_7'
p210
ag13
ag13
ag20
aS'variable_7'
p211
aS'+='
p212
aS'variable_5'
p213
aS'->'
p214
aS'variable_27'
p215
ag33
ag6
aS'variable_5'
p216
aS'->'
p217
aS'variable_27'
p218
ag80
ag113
ag13
ag20
aS'func_13'
p219
ag6
ag6
aS'uint32_t'
p220
ag8
ag13
aS'variable_28'
p221
ag10
aS'variable_4'
p222
aS'->'
p223
aS'variable_26'
p224
ag10
aS'variable_4'
p225
aS'->'
p226
aS'variable_29'
p227
ag10
aS'variable_4'
p228
aS'->'
p229
aS'variable_30'
p230
ag13
ag20
aa(lp231
S'static'
p232
aS'int'
p233
aS'func_0'
p234
ag6
aS'void'
p235
ag8
aS'variable_0'
p236
ag10
aS'variable_1'
p237
ag8
aS'variable_2'
p238
ag13
aS'variable_3'
p239
ag8
aS'variable_4'
p240
ag16
aS'variable_5'
p241
aS'->'
p242
aS'variable_6'
p243
ag20
aS'const'
p244
aS'uint8_t'
p245
ag8
aS'variable_7'
p246
ag16
aS'variable_2'
p247
aS'->'
p248
aS'variable_8'
p249
ag27
ag16
ag28
ag29
aS'variable_2'
p250
aS'->'
p251
aS'variable_0'
p252
ag33
aS'func_1'
p253
ag6
aS'variable_2'
p254
aS'->'
p255
aS'variable_0'
p256
ag13
ag38
aS'NULL'
p257
ag20
aS'const'
p258
aS'int'
p259
aS'variable_9'
p260
ag16
aS'variable_2'
p261
aS'->'
p262
aS'variable_8'
p263
ag27
ag16
ag28
ag29
aS'variable_2'
p264
aS'->'
p265
aS'variable_8'
p266
ag49
aS'func_2'
p267
ag6
aS'variable_2'
p268
aS'->'
p269
aS'variable_0'
p270
ag13
ag38
ag54
ag20
aS'const'
p271
aS'uint8_t'
p272
ag8
aS'variable_10'
p273
ag16
aS'variable_7'
p274
ag33
aS'variable_9'
p275
ag20
aS'int'
p276
aS'variable_11'
p277
ag10
aS'variable_12'
p278
ag10
aS'variable_13'
p279
ag20
aS'if'
p280
ag6
ag6
aS'variable_13'
p281
ag16
aS'func_3'
p282
ag6
aS'variable_5'
p283
ag10
aS'variable_2'
p284
ag13
ag13
ag69
ag54
ag13
aS'if'
p285
ag6
aS'variable_4'
p286
aS'->'
p287
aS'variable_14'
p288
ag13
aS'if'
p289
ag6
ag6
aS'variable_13'
p290
ag16
aS'variable_5'
p291
aS'->'
p292
aS'func_4'
p293
ag6
aS'variable_5'
p294
ag10
ag80
aS'variable_4'
p295
aS'->'
p296
aS'variable_15'
p297
ag13
ag13
ag69
ag54
ag13
aS'if'
p298
ag6
ag6
aS'variable_13'
p299
ag16
aS'func_5'
p300
ag6
aS'variable_5'
p301
ag10
ag80
aS'variable_4'
p302
aS'->'
p303
aS'variable_15'
p304
ag13
ag13
ag69
ag54
ag13
aS'if'
p305
ag6
aS'variable_5'
p306
aS'->'
p307
aS'variable_16'
p308
ag69
ag16
ag95
aS'&&'
p309
aS'variable_5'
p310
aS'->'
p311
aS'variable_17'
p312
aS'=='
p313
aS'variable_18'
p314
ag13
aS'if'
p315
ag6
ag6
aS'variable_13'
p316
ag16
aS'func_6'
p317
ag6
aS'variable_5'
p318
ag10
ag6
aS'uint32_t'
p319
ag8
ag13
aS'variable_4'
p320
aS'->'
p321
aS'variable_15'
p322
ag110
aS'variable_0'
p323
ag112
ag113
ag114
ag13
ag13
ag69
ag54
ag13
aS'if'
p324
ag6
aS'variable_5'
p325
aS'->'
p326
aS'variable_17'
p327
aS'=='
p328
aS'variable_19'
p329
aS'&&'
p330
aS'variable_5'
p331
aS'->'
p332
aS'variable_16'
p333
ag69
ag16
ag95
ag13
aS'if'
p334
ag6
ag6
aS'variable_13'
p335
ag16
aS'func_7'
p336
ag6
aS'variable_5'
p337
ag10
aS'variable_4'
p338
aS'->'
p339
aS'variable_20'
p340
ag13
ag13
ag69
ag54
ag13
aS'variable_4'
p341
aS'->'
p342
aS'variable_14'
p343
ag16
ag113
ag20
aS'switch'
p344
ag6
aS'variable_4'
p345
aS'->'
p346
aS'variable_21'
p347
ag13
aS'if'
p348
ag6
aS'variable_5'
p349
aS'->'
p350
aS'variable_22'
p351
aS'=='
p352
aS'func_8'
p353
ag6
ag145
ag146
ag145
ag10
ag145
ag147
ag145
ag10
ag145
ag148
ag145
ag10
ag145
ag149
ag145
ag13
ag13
aS'if'
p354
ag6
aS'variable_5'
p355
aS'->'
p356
aS'variable_22'
p357
aS'=='
p358
aS'func_9'
p359
ag6
ag145
ag156
ag145
ag10
ag145
ag157
ag145
ag10
ag145
ag157
ag145
ag10
ag145
ag158
ag145
ag13
ag13
aS'if'
p360
ag6
aS'variable_5'
p361
aS'->'
p362
aS'variable_22'
p363
aS'=='
p364
aS'func_10'
p365
ag6
ag145
ag165
ag145
ag10
ag145
ag166
ag145
ag10
ag145
ag148
ag145
ag10
ag145
ag149
ag145
ag13
ag13
aS'if'
p366
ag6
aS'variable_5'
p367
aS'->'
p368
aS'variable_22'
p369
aS'=='
p370
aS'func_11'
p371
ag6
ag145
ag158
ag145
ag10
ag145
ag148
ag145
ag10
ag145
ag149
ag145
ag10
ag145
ag145
ag13
ag13
aS'if'
p372
ag6
aS'variable_5'
p373
aS'->'
p374
aS'variable_17'
p375
aS'=='
p376
aS'variable_18'
p377
aS'||'
p378
aS'variable_5'
p379
aS'->'
p380
aS'variable_17'
p381
aS'=='
p382
aS'variable_23'
p383
ag13
aS'for'
p384
ag6
aS'variable_11'
p385
ag16
ag54
ag20
aS'variable_11'
p386
ag69
aS'variable_5'
p387
aS'->'
p388
aS'variable_24'
p389
aS'&&'
p390
aS'variable_10'
p391
ag27
aS'variable_7'
p392
ag20
aS'variable_11'
p393
aS'++'
p394
ag13
aS'variable_25'
p395
ag8
aS'variable_26'
p396
ag16
ag80
aS'variable_4'
p397
aS'->'
p398
aS'variable_15'
p399
ag110
aS'variable_0'
p400
ag112
ag54
ag114
ag112
aS'variable_11'
p401
ag8
aS'variable_4'
p402
aS'->'
p403
aS'variable_15'
p404
ag110
aS'variable_27'
p405
ag112
ag54
ag114
ag114
ag20
aS'memcpy'
p406
ag6
aS'variable_26'
p407
ag10
aS'variable_7'
p408
ag10
aS'func_12'
p409
ag6
aS'variable_5'
p410
aS'->'
p411
aS'variable_28'
p412
ag10
aS'variable_10'
p413
ag49
aS'variable_7'
p414
ag13
ag13
ag20
aS'variable_7'
p415
aS'+='
p416
aS'variable_5'
p417
aS'->'
p418
aS'variable_28'
p419
ag33
ag6
aS'variable_5'
p420
aS'->'
p421
aS'variable_28'
p422
aS'%'
p423
ag28
ag13
ag20
aa(lp424
S'static'
p425
aS'int'
p426
aS'func_0'
p427
ag6
aS'void'
p428
ag8
aS'variable_0'
p429
ag10
aS'variable_1'
p430
ag8
aS'variable_2'
p431
ag13
aS'variable_3'
p432
ag8
aS'variable_4'
p433
ag16
aS'variable_5'
p434
aS'->'
p435
aS'variable_6'
p436
ag20
aS'const'
p437
aS'uint8_t'
p438
ag8
aS'variable_7'
p439
ag16
aS'variable_2'
p440
aS'->'
p441
aS'variable_8'
p442
ag27
ag16
ag28
ag29
aS'variable_2'
p443
aS'->'
p444
aS'variable_0'
p445
ag33
aS'func_1'
p446
ag6
aS'variable_2'
p447
aS'->'
p448
aS'variable_0'
p449
ag13
ag38
aS'NULL'
p450
ag20
aS'const'
p451
aS'int'
p452
aS'variable_9'
p453
ag16
aS'variable_2'
p454
aS'->'
p455
aS'variable_8'
p456
ag27
ag16
ag28
ag29
aS'variable_2'
p457
aS'->'
p458
aS'variable_8'
p459
ag49
aS'func_2'
p460
ag6
aS'variable_2'
p461
aS'->'
p462
aS'variable_0'
p463
ag13
ag38
ag54
ag20
aS'const'
p464
aS'uint8_t'
p465
ag8
aS'variable_10'
p466
ag16
aS'variable_7'
p467
ag33
aS'variable_9'
p468
ag20
aS'int'
p469
aS'variable_11'
p470
ag10
aS'variable_12'
p471
ag10
aS'variable_13'
p472
ag20
aS'if'
p473
ag6
ag6
aS'variable_13'
p474
ag16
aS'func_3'
p475
ag6
aS'variable_5'
p476
ag10
aS'variable_2'
p477
ag13
ag13
ag69
ag54
ag13
aS'if'
p478
ag6
aS'variable_4'
p479
aS'->'
p480
aS'variable_14'
p481
ag13
aS'if'
p482
ag6
ag6
aS'variable_13'
p483
ag16
aS'variable_5'
p484
aS'->'
p485
aS'func_4'
p486
ag6
aS'variable_5'
p487
ag10
ag80
aS'variable_4'
p488
aS'->'
p489
aS'variable_15'
p490
ag13
ag13
ag69
ag54
ag13
aS'if'
p491
ag6
ag6
aS'variable_13'
p492
ag16
aS'func_5'
p493
ag6
aS'variable_5'
p494
ag10
ag80
aS'variable_4'
p495
aS'->'
p496
aS'variable_15'
p497
ag13
ag13
ag69
ag54
ag13
aS'if'
p498
ag6
aS'variable_5'
p499
aS'->'
p500
aS'variable_16'
p501
ag69
ag16
ag95
aS'&&'
p502
aS'variable_5'
p503
aS'->'
p504
aS'variable_17'
p505
aS'=='
p506
aS'variable_18'
p507
ag13
aS'if'
p508
ag6
ag6
aS'variable_13'
p509
ag16
aS'func_6'
p510
ag6
aS'variable_5'
p511
ag10
ag6
aS'uint32_t'
p512
ag8
ag13
aS'variable_4'
p513
aS'->'
p514
aS'variable_15'
p515
ag110
aS'variable_0'
p516
ag112
ag113
ag114
ag13
ag13
ag69
ag54
ag13
aS'if'
p517
ag6
aS'variable_5'
p518
aS'->'
p519
aS'variable_17'
p520
aS'=='
p521
aS'variable_19'
p522
aS'&&'
p523
aS'variable_5'
p524
aS'->'
p525
aS'variable_16'
p526
ag69
ag16
ag95
ag13
aS'if'
p527
ag6
ag6
aS'variable_13'
p528
ag16
aS'func_7'
p529
ag6
aS'variable_5'
p530
ag10
aS'variable_4'
p531
aS'->'
p532
aS'variable_20'
p533
ag13
ag13
ag69
ag54
ag13
aS'variable_4'
p534
aS'->'
p535
aS'variable_14'
p536
ag16
ag113
ag20
aS'switch'
p537
ag6
aS'variable_4'
p538
aS'->'
p539
aS'variable_21'
p540
ag13
aS'if'
p541
ag6
aS'variable_5'
p542
aS'->'
p543
aS'variable_22'
p544
aS'=='
p545
aS'func_8'
p546
ag6
ag145
ag146
ag145
ag10
ag145
ag147
ag145
ag10
ag145
ag148
ag145
ag10
ag145
ag149
ag145
ag13
ag13
aS'if'
p547
ag6
aS'variable_5'
p548
aS'->'
p549
aS'variable_22'
p550
aS'=='
p551
aS'func_9'
p552
ag6
ag145
ag156
ag145
ag10
ag145
ag157
ag145
ag10
ag145
ag157
ag145
ag10
ag145
ag158
ag145
ag13
ag13
aS'const'
p553
aS'AVPixFmtDescriptor'
p554
ag8
aS'variable_23'
p555
ag16
aS'func_10'
p556
ag6
aS'variable_5'
p557
aS'->'
p558
aS'variable_17'
p559
ag13
ag20
aS'int'
p560
aS'variable_24'
p561
ag16
aS'variable_5'
p562
aS'->'
p563
aS'variable_25'
p564
ag8
ag6
aS'func_11'
p565
ag6
aS'variable_23'
p566
ag13
aS'>>'
p567
aS'3'
p568
ag13
ag20
aS'for'
p569
ag6
aS'variable_11'
p570
ag16
ag54
ag20
aS'variable_11'
p571
ag69
aS'variable_5'
p572
aS'->'
p573
aS'variable_26'
p574
aS'&&'
p575
aS'variable_7'
p576
ag69
aS'variable_10'
p577
ag20
aS'variable_11'
p578
aS'++'
p579
ag13
aS'variable_27'
p580
ag8
aS'variable_28'
p581
ag16
ag80
aS'variable_4'
p582
aS'->'
p583
aS'variable_15'
p584
ag110
aS'variable_0'
p585
ag112
ag54
ag114
ag112
aS'variable_11'
p586
ag8
aS'variable_4'
p587
aS'->'
p588
aS'variable_15'
p589
ag110
aS'variable_29'
p590
ag112
ag54
ag114
ag114
ag20
aS'memcpy'
p591
ag6
aS'variable_28'
p592
ag10
aS'variable_7'
p593
ag10
aS'func_12'
p594
ag6
aS'variable_24'
p595
ag10
aS'variable_10'
p596
ag49
aS'variable_7'
p597
ag13
ag13
ag20
aS'variable_7'
p598
aS'+='
p599
aS'variable_24'
p600
ag20
aS'variable_28'
p601
ag112
aS'4'
p602
ag8
aS'variable_30'
p603
ag33
ag568
ag114
ag16
aS'variable_28'
p604
ag112
ag602
ag8
aS'variable_30'
p605
ag33
ag568
ag114
ag80
aS'0xF0'
p606
aS'|'
p607
ag6
aS'variable_28'
p608
ag112
ag602
ag8
aS'variable_30'
p609
ag33
ag568
ag114
aS'>>'
p610
ag602
ag13
ag20
aaa(lp611
I0
aI0
aI0
aa(lp612
I363
aI383
aI348
aa(lp613
(lp614
S'main'
p615
aa(lp616
g615
aa(lp617
g615
aaa(lp618
S'570 /home/SySeVR/data/CVE_2014_5272_PATCHED_decode_frame.c memcpy 111'
p619
aS'571 /home/SySeVR/data/CVE_2014_5272_PATCHED_decode_frame.c memcpy 105'
p620
aS'572 /home/SySeVR/data/CVE_2014_5272_PATCHED_decode_frame.c memcpy 64'
p621
aa.