(lp0
(lp1
(lp2
S'static'
p3
aS'int'
p4
aS'func_0'
p5
aS'('
p6
aS'void'
p7
aS'*'
p8
aS'variable_0'
p9
aS','
p10
aS'variable_1'
p11
ag8
aS'variable_2'
p12
aS')'
p13
aS'variable_3'
p14
ag8
aS'variable_4'
p15
aS'='
p16
aS'variable_5'
p17
aS'->'
p18
aS'variable_6'
p19
aS';'
p20
aS'int'
p21
aS'variable_7'
p22
ag10
aS'variable_8'
p23
ag10
aS'variable_9'
p24
ag20
aS'if'
p25
ag6
ag6
aS'variable_9'
p26
ag16
aS'func_1'
p27
ag6
aS'variable_5'
p28
ag10
aS'variable_2'
p29
ag13
ag13
aS'<'
p30
aS'0'
p31
ag13
aS'if'
p32
ag6
aS'variable_4'
p33
aS'->'
p34
aS'variable_10'
p35
ag13
aS'if'
p36
ag6
ag6
aS'variable_9'
p37
ag16
aS'variable_5'
p38
aS'->'
p39
aS'func_2'
p40
ag6
aS'variable_5'
p41
ag10
aS'&'
p42
aS'variable_4'
p43
aS'->'
p44
aS'variable_11'
p45
ag13
ag13
ag30
ag31
ag13
aS'if'
p46
ag6
ag6
aS'variable_9'
p47
ag16
aS'func_3'
p48
ag6
aS'variable_5'
p49
ag10
ag42
aS'variable_4'
p50
aS'->'
p51
aS'variable_11'
p52
ag13
ag13
ag30
ag31
ag13
aS'if'
p53
ag6
aS'variable_5'
p54
aS'->'
p55
aS'variable_12'
p56
ag30
ag16
aS'8'
p57
aS'&&'
p58
aS'variable_5'
p59
aS'->'
p60
aS'variable_13'
p61
aS'=='
p62
aS'variable_14'
p63
ag13
aS'if'
p64
ag6
ag6
aS'variable_9'
p65
ag16
aS'func_4'
p66
ag6
aS'variable_5'
p67
ag10
ag6
aS'uint32_t'
p68
ag8
ag13
aS'variable_4'
p69
aS'->'
p70
aS'variable_11'
p71
aS'.'
p72
aS'variable_0'
p73
aS'['
p74
aS'1'
p75
aS']'
p76
ag13
ag13
ag30
ag31
ag13
aS'if'
p77
ag6
aS'variable_5'
p78
aS'->'
p79
aS'variable_13'
p80
aS'=='
p81
aS'variable_15'
p82
aS'&&'
p83
aS'variable_5'
p84
aS'->'
p85
aS'variable_12'
p86
ag30
ag16
ag57
ag13
aS'if'
p87
ag6
ag6
aS'variable_9'
p88
ag16
aS'func_5'
p89
ag6
aS'variable_5'
p90
ag10
aS'variable_4'
p91
aS'->'
p92
aS'variable_16'
p93
ag13
ag13
ag30
ag31
ag13
aS'variable_4'
p94
aS'->'
p95
aS'variable_10'
p96
ag16
ag75
ag20
aS'switch'
p97
ag6
aS'variable_4'
p98
aS'->'
p99
aS'variable_17'
p100
ag13
aS'if'
p101
ag6
aS'variable_5'
p102
aS'->'
p103
aS'variable_18'
p104
aS'=='
p105
aS'func_6'
p106
ag6
aS"'"
p107
aS'I'
p108
ag107
ag10
ag107
aS'L'
p109
ag107
ag10
ag107
aS'B'
p110
ag107
ag10
ag107
aS'M'
p111
ag107
ag13
ag13
aS'if'
p112
ag6
aS'variable_5'
p113
aS'->'
p114
aS'variable_18'
p115
aS'=='
p116
aS'func_7'
p117
ag6
ag107
aS'P'
p118
ag107
ag10
ag107
ag110
ag107
ag10
ag107
ag111
ag107
ag10
ag107
ag107
ag13
ag13
aS'if'
p119
ag6
aS'variable_5'
p120
aS'->'
p121
aS'variable_13'
p122
aS'=='
p123
aS'variable_14'
p124
aS'||'
p125
aS'variable_5'
p126
aS'->'
p127
aS'variable_13'
p128
aS'=='
p129
aS'variable_19'
p130
ag13
aS'if'
p131
ag6
aS'variable_4'
p132
aS'->'
p133
aS'variable_20'
p134
ag13
aS'for'
p135
ag6
aS'variable_7'
p136
ag16
ag31
ag20
aS'variable_7'
p137
ag30
aS'variable_5'
p138
aS'->'
p139
aS'variable_21'
p140
ag20
aS'variable_7'
p141
aS'++'
p142
ag13
aS'variable_22'
p143
ag8
aS'variable_23'
p144
ag16
ag42
aS'variable_4'
p145
aS'->'
p146
aS'variable_11'
p147
ag72
aS'variable_0'
p148
ag74
ag31
ag76
ag74
aS'variable_7'
p149
ag8
aS'variable_4'
p150
aS'->'
p151
aS'variable_11'
p152
ag72
aS'variable_24'
p153
ag74
ag31
ag76
ag76
ag20
aS'func_8'
p154
ag6
ag6
aS'uint32_t'
p155
ag8
ag13
aS'variable_23'
p156
ag10
aS'variable_4'
p157
aS'->'
p158
aS'variable_25'
p159
ag10
aS'variable_4'
p160
aS'->'
p161
aS'variable_26'
p162
ag10
aS'variable_4'
p163
aS'->'
p164
aS'variable_27'
p165
ag13
ag20
aa(lp166
S'static'
p167
aS'int'
p168
aS'func_0'
p169
ag6
aS'void'
p170
ag8
aS'variable_0'
p171
ag10
aS'variable_1'
p172
ag8
aS'variable_2'
p173
ag13
aS'variable_3'
p174
ag8
aS'variable_4'
p175
ag16
aS'variable_5'
p176
aS'->'
p177
aS'variable_6'
p178
ag20
aS'int'
p179
aS'variable_7'
p180
ag10
aS'variable_8'
p181
ag10
aS'variable_9'
p182
ag20
aS'if'
p183
ag6
ag6
aS'variable_9'
p184
ag16
aS'func_1'
p185
ag6
aS'variable_5'
p186
ag10
aS'variable_2'
p187
ag13
ag13
ag30
ag31
ag13
aS'if'
p188
ag6
aS'variable_4'
p189
aS'->'
p190
aS'variable_10'
p191
ag13
aS'if'
p192
ag6
ag6
aS'variable_9'
p193
ag16
aS'variable_5'
p194
aS'->'
p195
aS'func_2'
p196
ag6
aS'variable_5'
p197
ag10
ag42
aS'variable_4'
p198
aS'->'
p199
aS'variable_11'
p200
ag13
ag13
ag30
ag31
ag13
aS'if'
p201
ag6
ag6
aS'variable_9'
p202
ag16
aS'func_3'
p203
ag6
aS'variable_5'
p204
ag10
ag42
aS'variable_4'
p205
aS'->'
p206
aS'variable_11'
p207
ag13
ag13
ag30
ag31
ag13
aS'if'
p208
ag6
aS'variable_5'
p209
aS'->'
p210
aS'variable_12'
p211
ag30
ag16
ag57
aS'&&'
p212
aS'variable_5'
p213
aS'->'
p214
aS'variable_13'
p215
aS'=='
p216
aS'variable_14'
p217
ag13
aS'if'
p218
ag6
ag6
aS'variable_9'
p219
ag16
aS'func_4'
p220
ag6
aS'variable_5'
p221
ag10
ag6
aS'uint32_t'
p222
ag8
ag13
aS'variable_4'
p223
aS'->'
p224
aS'variable_11'
p225
ag72
aS'variable_0'
p226
ag74
ag75
ag76
ag13
ag13
ag30
ag31
ag13
aS'if'
p227
ag6
aS'variable_5'
p228
aS'->'
p229
aS'variable_13'
p230
aS'=='
p231
aS'variable_15'
p232
aS'&&'
p233
aS'variable_5'
p234
aS'->'
p235
aS'variable_12'
p236
ag30
ag16
ag57
ag13
aS'if'
p237
ag6
ag6
aS'variable_9'
p238
ag16
aS'func_5'
p239
ag6
aS'variable_5'
p240
ag10
aS'variable_4'
p241
aS'->'
p242
aS'variable_16'
p243
ag13
ag13
ag30
ag31
ag13
aS'variable_4'
p244
aS'->'
p245
aS'variable_10'
p246
ag16
ag75
ag20
aS'switch'
p247
ag6
aS'variable_4'
p248
aS'->'
p249
aS'variable_17'
p250
ag13
aS'if'
p251
ag6
aS'variable_5'
p252
aS'->'
p253
aS'variable_18'
p254
aS'=='
p255
aS'func_6'
p256
ag6
ag107
ag108
ag107
ag10
ag107
ag109
ag107
ag10
ag107
ag110
ag107
ag10
ag107
ag111
ag107
ag13
ag13
aS'if'
p257
ag6
aS'variable_5'
p258
aS'->'
p259
aS'variable_18'
p260
aS'=='
p261
aS'func_7'
p262
ag6
ag107
ag118
ag107
ag10
ag107
ag110
ag107
ag10
ag107
ag111
ag107
ag10
ag107
ag107
ag13
ag13
aS'if'
p263
ag6
aS'variable_5'
p264
aS'->'
p265
aS'variable_13'
p266
aS'=='
p267
aS'variable_14'
p268
aS'||'
p269
aS'variable_5'
p270
aS'->'
p271
aS'variable_13'
p272
aS'=='
p273
aS'variable_19'
p274
ag13
aS'for'
p275
ag6
aS'variable_7'
p276
ag16
ag31
ag20
aS'variable_7'
p277
ag30
aS'variable_5'
p278
aS'->'
p279
aS'variable_20'
p280
ag20
aS'variable_7'
p281
aS'++'
p282
ag13
aS'variable_21'
p283
ag8
aS'variable_22'
p284
ag16
ag42
aS'variable_4'
p285
aS'->'
p286
aS'variable_11'
p287
ag72
aS'variable_0'
p288
ag74
ag31
ag76
ag74
aS'variable_7'
p289
ag8
aS'variable_4'
p290
aS'->'
p291
aS'variable_11'
p292
ag72
aS'variable_23'
p293
ag74
ag31
ag76
ag76
ag20
aS'variable_24'
p294
aS'+='
p295
aS'func_8'
p296
ag6
aS'variable_22'
p297
ag10
aS'variable_5'
p298
aS'->'
p299
aS'variable_25'
p300
ag10
aS'variable_24'
p301
ag10
aS'variable_26'
p302
ag13
ag20
aa(lp303
S'static'
p304
aS'int'
p305
aS'func_0'
p306
ag6
aS'void'
p307
ag8
aS'variable_0'
p308
ag10
aS'variable_1'
p309
ag8
aS'variable_2'
p310
ag13
aS'variable_3'
p311
ag8
aS'variable_4'
p312
ag16
aS'variable_5'
p313
aS'->'
p314
aS'variable_6'
p315
ag20
aS'int'
p316
aS'variable_7'
p317
ag10
aS'variable_8'
p318
ag10
aS'variable_9'
p319
ag20
aS'if'
p320
ag6
ag6
aS'variable_9'
p321
ag16
aS'func_1'
p322
ag6
aS'variable_5'
p323
ag10
aS'variable_2'
p324
ag13
ag13
ag30
ag31
ag13
aS'if'
p325
ag6
aS'variable_4'
p326
aS'->'
p327
aS'variable_10'
p328
ag13
aS'if'
p329
ag6
ag6
aS'variable_9'
p330
ag16
aS'variable_5'
p331
aS'->'
p332
aS'func_2'
p333
ag6
aS'variable_5'
p334
ag10
ag42
aS'variable_4'
p335
aS'->'
p336
aS'variable_11'
p337
ag13
ag13
ag30
ag31
ag13
aS'if'
p338
ag6
ag6
aS'variable_9'
p339
ag16
aS'func_3'
p340
ag6
aS'variable_5'
p341
ag10
ag42
aS'variable_4'
p342
aS'->'
p343
aS'variable_11'
p344
ag13
ag13
ag30
ag31
ag13
aS'if'
p345
ag6
aS'variable_5'
p346
aS'->'
p347
aS'variable_12'
p348
ag30
ag16
ag57
aS'&&'
p349
aS'variable_5'
p350
aS'->'
p351
aS'variable_13'
p352
aS'=='
p353
aS'variable_14'
p354
ag13
aS'if'
p355
ag6
ag6
aS'variable_9'
p356
ag16
aS'func_4'
p357
ag6
aS'variable_5'
p358
ag10
ag6
aS'uint32_t'
p359
ag8
ag13
aS'variable_4'
p360
aS'->'
p361
aS'variable_11'
p362
ag72
aS'variable_0'
p363
ag74
ag75
ag76
ag13
ag13
ag30
ag31
ag13
aS'if'
p364
ag6
aS'variable_5'
p365
aS'->'
p366
aS'variable_13'
p367
aS'=='
p368
aS'variable_15'
p369
aS'&&'
p370
aS'variable_5'
p371
aS'->'
p372
aS'variable_12'
p373
ag30
ag16
ag57
ag13
aS'if'
p374
ag6
ag6
aS'variable_9'
p375
ag16
aS'func_5'
p376
ag6
aS'variable_5'
p377
ag10
aS'variable_4'
p378
aS'->'
p379
aS'variable_16'
p380
ag13
ag13
ag30
ag31
ag13
aS'variable_4'
p381
aS'->'
p382
aS'variable_10'
p383
ag16
ag75
ag20
aS'switch'
p384
ag6
aS'variable_4'
p385
aS'->'
p386
aS'variable_17'
p387
ag13
aS'if'
p388
ag6
aS'variable_5'
p389
aS'->'
p390
aS'variable_18'
p391
aS'=='
p392
aS'func_6'
p393
ag6
ag107
ag108
ag107
ag10
ag107
ag109
ag107
ag10
ag107
ag110
ag107
ag10
ag107
ag111
ag107
ag13
ag13
aS'if'
p394
ag6
aS'variable_5'
p395
aS'->'
p396
aS'variable_13'
p397
aS'=='
p398
aS'variable_14'
p399
aS'||'
p400
aS'variable_5'
p401
aS'->'
p402
aS'variable_13'
p403
aS'=='
p404
aS'variable_19'
p405
ag13
aS'if'
p406
ag6
aS'variable_5'
p407
aS'->'
p408
aS'variable_12'
p409
ag30
ag16
ag57
ag13
aS'if'
p410
ag6
aS'variable_4'
p411
aS'->'
p412
aS'variable_20'
p413
ag13
aS'for'
p414
ag6
aS'variable_7'
p415
ag16
ag31
ag20
aS'variable_7'
p416
ag30
aS'variable_5'
p417
aS'->'
p418
aS'variable_21'
p419
ag20
aS'variable_7'
p420
aS'++'
p421
ag13
aS'variable_22'
p422
ag8
aS'variable_23'
p423
ag16
ag42
aS'variable_4'
p424
aS'->'
p425
aS'variable_11'
p426
ag72
aS'variable_0'
p427
ag74
ag31
ag76
ag74
aS'variable_7'
p428
ag8
aS'variable_4'
p429
aS'->'
p430
aS'variable_11'
p431
ag72
aS'variable_24'
p432
ag74
ag31
ag76
ag76
ag20
aS'memset'
p433
ag6
aS'variable_23'
p434
ag10
ag31
ag10
aS'variable_5'
p435
aS'->'
p436
aS'variable_25'
p437
aS'<<'
p438
aS'2'
p439
ag13
ag20
aS'func_7'
p440
ag6
ag6
aS'uint32_t'
p441
ag8
ag13
aS'variable_23'
p442
ag10
aS'variable_4'
p443
aS'->'
p444
aS'variable_26'
p445
ag10
aS'variable_4'
p446
aS'->'
p447
aS'variable_27'
p448
ag10
aS'variable_8'
p449
ag13
ag20
aa(lp450
S'static'
p451
aS'int'
p452
aS'func_0'
p453
ag6
aS'void'
p454
ag8
aS'variable_0'
p455
ag10
aS'variable_1'
p456
ag8
aS'variable_2'
p457
ag13
aS'variable_3'
p458
ag8
aS'variable_4'
p459
ag16
aS'variable_5'
p460
aS'->'
p461
aS'variable_6'
p462
ag20
aS'int'
p463
aS'variable_7'
p464
ag10
aS'variable_8'
p465
ag10
aS'variable_9'
p466
ag20
aS'if'
p467
ag6
ag6
aS'variable_9'
p468
ag16
aS'func_1'
p469
ag6
aS'variable_5'
p470
ag10
aS'variable_2'
p471
ag13
ag13
ag30
ag31
ag13
aS'if'
p472
ag6
aS'variable_4'
p473
aS'->'
p474
aS'variable_10'
p475
ag13
aS'if'
p476
ag6
ag6
aS'variable_9'
p477
ag16
aS'variable_5'
p478
aS'->'
p479
aS'func_2'
p480
ag6
aS'variable_5'
p481
ag10
ag42
aS'variable_4'
p482
aS'->'
p483
aS'variable_11'
p484
ag13
ag13
ag30
ag31
ag13
aS'if'
p485
ag6
ag6
aS'variable_9'
p486
ag16
aS'func_3'
p487
ag6
aS'variable_5'
p488
ag10
ag42
aS'variable_4'
p489
aS'->'
p490
aS'variable_11'
p491
ag13
ag13
ag30
ag31
ag13
aS'if'
p492
ag6
aS'variable_5'
p493
aS'->'
p494
aS'variable_12'
p495
ag30
ag16
ag57
aS'&&'
p496
aS'variable_5'
p497
aS'->'
p498
aS'variable_13'
p499
aS'=='
p500
aS'variable_14'
p501
ag13
aS'if'
p502
ag6
ag6
aS'variable_9'
p503
ag16
aS'func_4'
p504
ag6
aS'variable_5'
p505
ag10
ag6
aS'uint32_t'
p506
ag8
ag13
aS'variable_4'
p507
aS'->'
p508
aS'variable_11'
p509
ag72
aS'variable_0'
p510
ag74
ag75
ag76
ag13
ag13
ag30
ag31
ag13
aS'if'
p511
ag6
aS'variable_5'
p512
aS'->'
p513
aS'variable_13'
p514
aS'=='
p515
aS'variable_15'
p516
aS'&&'
p517
aS'variable_5'
p518
aS'->'
p519
aS'variable_12'
p520
ag30
ag16
ag57
ag13
aS'if'
p521
ag6
ag6
aS'variable_9'
p522
ag16
aS'func_5'
p523
ag6
aS'variable_5'
p524
ag10
aS'variable_4'
p525
aS'->'
p526
aS'variable_16'
p527
ag13
ag13
ag30
ag31
ag13
aS'variable_4'
p528
aS'->'
p529
aS'variable_10'
p530
ag16
ag75
ag20
aS'switch'
p531
ag6
aS'variable_4'
p532
aS'->'
p533
aS'variable_17'
p534
ag13
aS'if'
p535
ag6
aS'variable_5'
p536
aS'->'
p537
aS'variable_18'
p538
aS'=='
p539
aS'func_6'
p540
ag6
ag107
ag108
ag107
ag10
ag107
ag109
ag107
ag10
ag107
ag110
ag107
ag10
ag107
ag111
ag107
ag13
ag13
aS'if'
p541
ag6
aS'variable_5'
p542
aS'->'
p543
aS'variable_13'
p544
aS'=='
p545
aS'variable_14'
p546
aS'||'
p547
aS'variable_5'
p548
aS'->'
p549
aS'variable_13'
p550
aS'=='
p551
aS'variable_19'
p552
ag13
aS'if'
p553
ag6
aS'variable_5'
p554
aS'->'
p555
aS'variable_12'
p556
ag30
ag16
ag57
ag13
aS'if'
p557
ag6
aS'variable_4'
p558
aS'->'
p559
aS'variable_20'
p560
ag13
aS'for'
p561
ag6
aS'variable_7'
p562
ag16
ag31
ag20
aS'variable_7'
p563
ag30
aS'variable_5'
p564
aS'->'
p565
aS'variable_21'
p566
ag20
aS'variable_7'
p567
aS'++'
p568
ag13
aS'variable_22'
p569
ag8
aS'variable_23'
p570
ag16
ag42
aS'variable_4'
p571
aS'->'
p572
aS'variable_11'
p573
ag72
aS'variable_0'
p574
ag74
ag31
ag76
ag74
aS'variable_7'
p575
ag8
aS'variable_4'
p576
aS'->'
p577
aS'variable_11'
p578
ag72
aS'variable_24'
p579
ag74
ag31
ag76
ag76
ag20
aS'func_7'
p580
ag6
ag6
aS'uint32_t'
p581
ag8
ag13
aS'variable_23'
p582
ag10
aS'variable_4'
p583
aS'->'
p584
aS'variable_25'
p585
ag10
aS'variable_4'
p586
aS'->'
p587
aS'variable_26'
p588
ag10
aS'variable_4'
p589
aS'->'
p590
aS'variable_27'
p591
ag13
ag20
aa(lp592
S'static'
p593
aS'int'
p594
aS'func_0'
p595
ag6
aS'void'
p596
ag8
aS'variable_0'
p597
ag10
aS'variable_1'
p598
ag8
aS'variable_2'
p599
ag13
aS'variable_3'
p600
ag8
aS'variable_4'
p601
ag16
aS'variable_5'
p602
aS'->'
p603
aS'variable_6'
p604
ag20
aS'int'
p605
aS'variable_7'
p606
ag10
aS'variable_8'
p607
ag10
aS'variable_9'
p608
ag20
aS'if'
p609
ag6
ag6
aS'variable_9'
p610
ag16
aS'func_1'
p611
ag6
aS'variable_5'
p612
ag10
aS'variable_2'
p613
ag13
ag13
ag30
ag31
ag13
aS'if'
p614
ag6
aS'variable_4'
p615
aS'->'
p616
aS'variable_10'
p617
ag13
aS'if'
p618
ag6
ag6
aS'variable_9'
p619
ag16
aS'variable_5'
p620
aS'->'
p621
aS'func_2'
p622
ag6
aS'variable_5'
p623
ag10
ag42
aS'variable_4'
p624
aS'->'
p625
aS'variable_11'
p626
ag13
ag13
ag30
ag31
ag13
aS'if'
p627
ag6
ag6
aS'variable_9'
p628
ag16
aS'func_3'
p629
ag6
aS'variable_5'
p630
ag10
ag42
aS'variable_4'
p631
aS'->'
p632
aS'variable_11'
p633
ag13
ag13
ag30
ag31
ag13
aS'if'
p634
ag6
aS'variable_5'
p635
aS'->'
p636
aS'variable_12'
p637
ag30
ag16
ag57
aS'&&'
p638
aS'variable_5'
p639
aS'->'
p640
aS'variable_13'
p641
aS'=='
p642
aS'variable_14'
p643
ag13
aS'if'
p644
ag6
ag6
aS'variable_9'
p645
ag16
aS'func_4'
p646
ag6
aS'variable_5'
p647
ag10
ag6
aS'uint32_t'
p648
ag8
ag13
aS'variable_4'
p649
aS'->'
p650
aS'variable_11'
p651
ag72
aS'variable_0'
p652
ag74
ag75
ag76
ag13
ag13
ag30
ag31
ag13
aS'if'
p653
ag6
aS'variable_5'
p654
aS'->'
p655
aS'variable_13'
p656
aS'=='
p657
aS'variable_15'
p658
aS'&&'
p659
aS'variable_5'
p660
aS'->'
p661
aS'variable_12'
p662
ag30
ag16
ag57
ag13
aS'if'
p663
ag6
ag6
aS'variable_9'
p664
ag16
aS'func_5'
p665
ag6
aS'variable_5'
p666
ag10
aS'variable_4'
p667
aS'->'
p668
aS'variable_16'
p669
ag13
ag13
ag30
ag31
ag13
aS'variable_4'
p670
aS'->'
p671
aS'variable_10'
p672
ag16
ag75
ag20
aS'switch'
p673
ag6
aS'variable_4'
p674
aS'->'
p675
aS'variable_17'
p676
ag13
aS'if'
p677
ag6
aS'variable_5'
p678
aS'->'
p679
aS'variable_18'
p680
aS'=='
p681
aS'func_6'
p682
ag6
ag107
ag108
ag107
ag10
ag107
ag109
ag107
ag10
ag107
ag110
ag107
ag10
ag107
ag111
ag107
ag13
ag13
aS'if'
p683
ag6
aS'variable_5'
p684
aS'->'
p685
aS'variable_13'
p686
aS'=='
p687
aS'variable_14'
p688
aS'||'
p689
aS'variable_5'
p690
aS'->'
p691
aS'variable_13'
p692
aS'=='
p693
aS'variable_19'
p694
ag13
aS'if'
p695
ag6
aS'variable_5'
p696
aS'->'
p697
aS'variable_12'
p698
ag30
ag16
ag57
ag13
aS'for'
p699
ag6
aS'variable_7'
p700
ag16
ag31
ag20
aS'variable_7'
p701
ag30
aS'variable_5'
p702
aS'->'
p703
aS'variable_20'
p704
ag20
aS'variable_7'
p705
aS'++'
p706
ag13
aS'variable_21'
p707
ag8
aS'variable_22'
p708
ag16
ag42
aS'variable_4'
p709
aS'->'
p710
aS'variable_11'
p711
ag72
aS'variable_0'
p712
ag74
ag31
ag76
ag74
aS'variable_7'
p713
ag8
aS'variable_4'
p714
aS'->'
p715
aS'variable_11'
p716
ag72
aS'variable_23'
p717
ag74
ag31
ag76
ag76
ag20
aS'func_7'
p718
ag6
ag6
aS'uint32_t'
p719
ag8
ag13
aS'variable_22'
p720
ag10
aS'variable_4'
p721
aS'->'
p722
aS'variable_24'
p723
ag10
aS'variable_4'
p724
aS'->'
p725
aS'variable_16'
p726
ag10
aS'variable_5'
p727
aS'->'
p728
aS'variable_25'
p729
ag13
ag20
aa(lp730
S'static'
p731
aS'int'
p732
aS'func_0'
p733
ag6
aS'void'
p734
ag8
aS'variable_0'
p735
ag10
aS'variable_1'
p736
ag8
aS'variable_2'
p737
ag13
aS'variable_3'
p738
ag8
aS'variable_4'
p739
ag16
aS'variable_5'
p740
aS'->'
p741
aS'variable_6'
p742
ag20
aS'int'
p743
aS'variable_7'
p744
ag10
aS'variable_8'
p745
ag10
aS'variable_9'
p746
ag20
aS'if'
p747
ag6
ag6
aS'variable_9'
p748
ag16
aS'func_1'
p749
ag6
aS'variable_5'
p750
ag10
aS'variable_2'
p751
ag13
ag13
ag30
ag31
ag13
aS'if'
p752
ag6
aS'variable_4'
p753
aS'->'
p754
aS'variable_10'
p755
ag13
aS'if'
p756
ag6
ag6
aS'variable_9'
p757
ag16
aS'variable_5'
p758
aS'->'
p759
aS'func_2'
p760
ag6
aS'variable_5'
p761
ag10
ag42
aS'variable_4'
p762
aS'->'
p763
aS'variable_11'
p764
ag13
ag13
ag30
ag31
ag13
aS'if'
p765
ag6
ag6
aS'variable_9'
p766
ag16
aS'func_3'
p767
ag6
aS'variable_5'
p768
ag10
ag42
aS'variable_4'
p769
aS'->'
p770
aS'variable_11'
p771
ag13
ag13
ag30
ag31
ag13
aS'if'
p772
ag6
aS'variable_5'
p773
aS'->'
p774
aS'variable_12'
p775
ag30
ag16
ag57
aS'&&'
p776
aS'variable_5'
p777
aS'->'
p778
aS'variable_13'
p779
aS'=='
p780
aS'variable_14'
p781
ag13
aS'if'
p782
ag6
ag6
aS'variable_9'
p783
ag16
aS'func_4'
p784
ag6
aS'variable_5'
p785
ag10
ag6
aS'uint32_t'
p786
ag8
ag13
aS'variable_4'
p787
aS'->'
p788
aS'variable_11'
p789
ag72
aS'variable_0'
p790
ag74
ag75
ag76
ag13
ag13
ag30
ag31
ag13
aS'if'
p791
ag6
aS'variable_5'
p792
aS'->'
p793
aS'variable_13'
p794
aS'=='
p795
aS'variable_15'
p796
aS'&&'
p797
aS'variable_5'
p798
aS'->'
p799
aS'variable_12'
p800
ag30
ag16
ag57
ag13
aS'if'
p801
ag6
ag6
aS'variable_9'
p802
ag16
aS'func_5'
p803
ag6
aS'variable_5'
p804
ag10
aS'variable_4'
p805
aS'->'
p806
aS'variable_16'
p807
ag13
ag13
ag30
ag31
ag13
aS'variable_4'
p808
aS'->'
p809
aS'variable_10'
p810
ag16
ag75
ag20
aS'switch'
p811
ag6
aS'variable_4'
p812
aS'->'
p813
aS'variable_17'
p814
ag13
aS'if'
p815
ag6
aS'variable_5'
p816
aS'->'
p817
aS'variable_18'
p818
aS'=='
p819
aS'func_6'
p820
ag6
ag107
ag108
ag107
ag10
ag107
ag109
ag107
ag10
ag107
ag110
ag107
ag10
ag107
ag111
ag107
ag13
ag13
aS'if'
p821
ag6
aS'variable_5'
p822
aS'->'
p823
aS'variable_13'
p824
aS'=='
p825
aS'variable_14'
p826
aS'||'
p827
aS'variable_5'
p828
aS'->'
p829
aS'variable_13'
p830
aS'=='
p831
aS'variable_19'
p832
ag13
aS'for'
p833
ag6
aS'variable_7'
p834
ag16
ag31
ag20
aS'variable_7'
p835
ag30
aS'variable_5'
p836
aS'->'
p837
aS'variable_20'
p838
ag20
aS'variable_7'
p839
aS'++'
p840
ag13
aS'variable_21'
p841
ag8
aS'variable_22'
p842
ag16
ag42
aS'variable_4'
p843
aS'->'
p844
aS'variable_11'
p845
ag72
aS'variable_0'
p846
ag74
ag31
ag76
ag74
aS'variable_7'
p847
ag8
aS'variable_4'
p848
aS'->'
p849
aS'variable_11'
p850
ag72
aS'variable_23'
p851
ag74
ag31
ag76
ag76
ag20
aS'memset'
p852
ag6
aS'variable_22'
p853
ag10
ag31
ag10
aS'variable_5'
p854
aS'->'
p855
aS'variable_24'
p856
ag13
ag20
aS'func_7'
p857
ag6
aS'variable_22'
p858
ag10
aS'variable_4'
p859
aS'->'
p860
aS'variable_25'
p861
ag10
aS'variable_4'
p862
aS'->'
p863
aS'variable_26'
p864
ag10
aS'variable_8'
p865
ag13
ag20
aa(lp866
S'static'
p867
aS'int'
p868
aS'func_0'
p869
ag6
aS'void'
p870
ag8
aS'variable_0'
p871
ag10
aS'variable_1'
p872
ag8
aS'variable_2'
p873
ag13
aS'variable_3'
p874
ag8
aS'variable_4'
p875
ag16
aS'variable_5'
p876
aS'->'
p877
aS'variable_6'
p878
ag20
aS'const'
p879
aS'uint8_t'
p880
ag8
aS'variable_7'
p881
ag16
aS'variable_2'
p882
aS'->'
p883
aS'variable_8'
p884
aS'>'
p885
ag16
ag439
aS'?'
p886
aS'variable_2'
p887
aS'->'
p888
aS'variable_0'
p889
aS'+'
p890
aS'func_1'
p891
ag6
aS'variable_2'
p892
aS'->'
p893
aS'variable_0'
p894
ag13
aS':'
p895
aS'NULL'
p896
ag20
aS'const'
p897
aS'int'
p898
aS'variable_9'
p899
ag16
aS'variable_2'
p900
aS'->'
p901
aS'variable_8'
p902
ag885
ag16
ag439
ag886
aS'variable_2'
p903
aS'->'
p904
aS'variable_8'
p905
aS'-'
p906
aS'func_2'
p907
ag6
aS'variable_2'
p908
aS'->'
p909
aS'variable_0'
p910
ag13
ag895
ag31
ag20
aS'const'
p911
aS'uint8_t'
p912
ag8
aS'variable_10'
p913
ag16
aS'variable_7'
p914
ag890
aS'variable_9'
p915
ag20
aS'int'
p916
aS'variable_11'
p917
ag10
aS'variable_12'
p918
ag10
aS'variable_13'
p919
ag20
aS'if'
p920
ag6
ag6
aS'variable_13'
p921
ag16
aS'func_3'
p922
ag6
aS'variable_5'
p923
ag10
aS'variable_2'
p924
ag13
ag13
ag30
ag31
ag13
aS'if'
p925
ag6
aS'variable_4'
p926
aS'->'
p927
aS'variable_14'
p928
ag13
aS'if'
p929
ag6
ag6
aS'variable_13'
p930
ag16
aS'variable_5'
p931
aS'->'
p932
aS'func_4'
p933
ag6
aS'variable_5'
p934
ag10
ag42
aS'variable_4'
p935
aS'->'
p936
aS'variable_15'
p937
ag13
ag13
ag30
ag31
ag13
aS'if'
p938
ag6
ag6
aS'variable_13'
p939
ag16
aS'func_5'
p940
ag6
aS'variable_5'
p941
ag10
ag42
aS'variable_4'
p942
aS'->'
p943
aS'variable_15'
p944
ag13
ag13
ag30
ag31
ag13
aS'if'
p945
ag6
aS'variable_5'
p946
aS'->'
p947
aS'variable_16'
p948
ag30
ag16
ag57
aS'&&'
p949
aS'variable_5'
p950
aS'->'
p951
aS'variable_17'
p952
aS'=='
p953
aS'variable_18'
p954
ag13
aS'if'
p955
ag6
ag6
aS'variable_13'
p956
ag16
aS'func_6'
p957
ag6
aS'variable_5'
p958
ag10
ag6
aS'uint32_t'
p959
ag8
ag13
aS'variable_4'
p960
aS'->'
p961
aS'variable_15'
p962
ag72
aS'variable_0'
p963
ag74
ag75
ag76
ag13
ag13
ag30
ag31
ag13
aS'if'
p964
ag6
aS'variable_5'
p965
aS'->'
p966
aS'variable_17'
p967
aS'=='
p968
aS'variable_19'
p969
aS'&&'
p970
aS'variable_5'
p971
aS'->'
p972
aS'variable_16'
p973
ag30
ag16
ag57
ag13
aS'if'
p974
ag6
ag6
aS'variable_13'
p975
ag16
aS'func_7'
p976
ag6
aS'variable_5'
p977
ag10
aS'variable_4'
p978
aS'->'
p979
aS'variable_20'
p980
ag13
ag13
ag30
ag31
ag13
aS'variable_4'
p981
aS'->'
p982
aS'variable_14'
p983
ag16
ag75
ag20
aS'switch'
p984
ag6
aS'variable_4'
p985
aS'->'
p986
aS'variable_21'
p987
ag13
aS'if'
p988
ag6
aS'variable_5'
p989
aS'->'
p990
aS'variable_22'
p991
aS'=='
p992
aS'func_8'
p993
ag6
ag107
aS'A'
p994
ag107
ag10
ag107
aS'C'
p995
ag107
ag10
ag107
ag110
ag107
ag10
ag107
ag111
ag107
ag13
ag13
aS'if'
p996
ag6
aS'variable_5'
p997
aS'->'
p998
aS'variable_22'
p999
aS'=='
p1000
aS'func_9'
p1001
ag6
ag107
aS'D'
p1002
ag107
ag10
ag107
aS'E'
p1003
ag107
ag10
ag107
ag1003
ag107
ag10
ag107
ag118
ag107
ag13
ag13
aS'if'
p1004
ag6
aS'variable_5'
p1005
aS'->'
p1006
aS'variable_22'
p1007
aS'=='
p1008
aS'func_10'
p1009
ag6
ag107
ag108
ag107
ag10
ag107
ag109
ag107
ag10
ag107
ag110
ag107
ag10
ag107
ag111
ag107
ag13
ag13
aS'if'
p1010
ag6
aS'variable_5'
p1011
aS'->'
p1012
aS'variable_22'
p1013
aS'=='
p1014
aS'func_11'
p1015
ag6
ag107
ag118
ag107
ag10
ag107
ag110
ag107
ag10
ag107
ag111
ag107
ag10
ag107
ag107
ag13
ag13
aS'if'
p1016
ag6
aS'variable_5'
p1017
aS'->'
p1018
aS'variable_17'
p1019
aS'=='
p1020
aS'variable_18'
p1021
aS'||'
p1022
aS'variable_5'
p1023
aS'->'
p1024
aS'variable_17'
p1025
aS'=='
p1026
aS'variable_23'
p1027
ag13
aS'if'
p1028
ag6
aS'variable_4'
p1029
aS'->'
p1030
aS'variable_24'
p1031
ag13
aS'for'
p1032
ag6
aS'variable_11'
p1033
ag16
ag31
ag20
aS'variable_11'
p1034
ag30
aS'variable_5'
p1035
aS'->'
p1036
aS'variable_25'
p1037
aS'&&'
p1038
aS'variable_10'
p1039
ag885
aS'variable_7'
p1040
ag20
aS'variable_11'
p1041
aS'++'
p1042
ag13
aS'variable_26'
p1043
ag8
aS'variable_27'
p1044
ag16
ag42
aS'variable_4'
p1045
aS'->'
p1046
aS'variable_15'
p1047
ag72
aS'variable_0'
p1048
ag74
ag31
ag76
ag74
aS'variable_11'
p1049
ag8
aS'variable_4'
p1050
aS'->'
p1051
aS'variable_15'
p1052
ag72
aS'variable_28'
p1053
ag74
ag31
ag76
ag76
ag20
aS'variable_7'
p1054
aS'+='
p1055
aS'variable_5'
p1056
aS'->'
p1057
aS'variable_29'
p1058
ag890
ag6
aS'variable_5'
p1059
aS'->'
p1060
aS'variable_29'
p1061
ag42
ag75
ag13
ag20
aS'func_12'
p1062
ag6
ag6
aS'uint32_t'
p1063
ag8
ag13
aS'variable_27'
p1064
ag10
aS'variable_4'
p1065
aS'->'
p1066
aS'variable_30'
p1067
ag10
aS'variable_4'
p1068
aS'->'
p1069
aS'variable_31'
p1070
ag10
aS'variable_4'
p1071
aS'->'
p1072
aS'variable_32'
p1073
ag13
ag20
aa(lp1074
S'static'
p1075
aS'int'
p1076
aS'func_0'
p1077
ag6
aS'void'
p1078
ag8
aS'variable_0'
p1079
ag10
aS'variable_1'
p1080
ag8
aS'variable_2'
p1081
ag13
aS'variable_3'
p1082
ag8
aS'variable_4'
p1083
ag16
aS'variable_5'
p1084
aS'->'
p1085
aS'variable_6'
p1086
ag20
aS'const'
p1087
aS'uint8_t'
p1088
ag8
aS'variable_7'
p1089
ag16
aS'variable_2'
p1090
aS'->'
p1091
aS'variable_8'
p1092
ag885
ag16
ag439
ag886
aS'variable_2'
p1093
aS'->'
p1094
aS'variable_0'
p1095
ag890
aS'func_1'
p1096
ag6
aS'variable_2'
p1097
aS'->'
p1098
aS'variable_0'
p1099
ag13
ag895
aS'NULL'
p1100
ag20
aS'const'
p1101
aS'int'
p1102
aS'variable_9'
p1103
ag16
aS'variable_2'
p1104
aS'->'
p1105
aS'variable_8'
p1106
ag885
ag16
ag439
ag886
aS'variable_2'
p1107
aS'->'
p1108
aS'variable_8'
p1109
ag906
aS'func_2'
p1110
ag6
aS'variable_2'
p1111
aS'->'
p1112
aS'variable_0'
p1113
ag13
ag895
ag31
ag20
aS'const'
p1114
aS'uint8_t'
p1115
ag8
aS'variable_10'
p1116
ag16
aS'variable_7'
p1117
ag890
aS'variable_9'
p1118
ag20
aS'int'
p1119
aS'variable_11'
p1120
ag10
aS'variable_12'
p1121
ag10
aS'variable_13'
p1122
ag20
aS'if'
p1123
ag6
ag6
aS'variable_13'
p1124
ag16
aS'func_3'
p1125
ag6
aS'variable_5'
p1126
ag10
aS'variable_2'
p1127
ag13
ag13
ag30
ag31
ag13
aS'if'
p1128
ag6
aS'variable_4'
p1129
aS'->'
p1130
aS'variable_14'
p1131
ag13
aS'if'
p1132
ag6
ag6
aS'variable_13'
p1133
ag16
aS'variable_5'
p1134
aS'->'
p1135
aS'func_4'
p1136
ag6
aS'variable_5'
p1137
ag10
ag42
aS'variable_4'
p1138
aS'->'
p1139
aS'variable_15'
p1140
ag13
ag13
ag30
ag31
ag13
aS'if'
p1141
ag6
ag6
aS'variable_13'
p1142
ag16
aS'func_5'
p1143
ag6
aS'variable_5'
p1144
ag10
ag42
aS'variable_4'
p1145
aS'->'
p1146
aS'variable_15'
p1147
ag13
ag13
ag30
ag31
ag13
aS'if'
p1148
ag6
aS'variable_5'
p1149
aS'->'
p1150
aS'variable_16'
p1151
ag30
ag16
ag57
aS'&&'
p1152
aS'variable_5'
p1153
aS'->'
p1154
aS'variable_17'
p1155
aS'=='
p1156
aS'variable_18'
p1157
ag13
aS'if'
p1158
ag6
ag6
aS'variable_13'
p1159
ag16
aS'func_6'
p1160
ag6
aS'variable_5'
p1161
ag10
ag6
aS'uint32_t'
p1162
ag8
ag13
aS'variable_4'
p1163
aS'->'
p1164
aS'variable_15'
p1165
ag72
aS'variable_0'
p1166
ag74
ag75
ag76
ag13
ag13
ag30
ag31
ag13
aS'if'
p1167
ag6
aS'variable_5'
p1168
aS'->'
p1169
aS'variable_17'
p1170
aS'=='
p1171
aS'variable_19'
p1172
aS'&&'
p1173
aS'variable_5'
p1174
aS'->'
p1175
aS'variable_16'
p1176
ag30
ag16
ag57
ag13
aS'if'
p1177
ag6
ag6
aS'variable_13'
p1178
ag16
aS'func_7'
p1179
ag6
aS'variable_5'
p1180
ag10
aS'variable_4'
p1181
aS'->'
p1182
aS'variable_20'
p1183
ag13
ag13
ag30
ag31
ag13
aS'variable_4'
p1184
aS'->'
p1185
aS'variable_14'
p1186
ag16
ag75
ag20
aS'switch'
p1187
ag6
aS'variable_4'
p1188
aS'->'
p1189
aS'variable_21'
p1190
ag13
aS'if'
p1191
ag6
aS'variable_5'
p1192
aS'->'
p1193
aS'variable_22'
p1194
aS'=='
p1195
aS'func_8'
p1196
ag6
ag107
ag994
ag107
ag10
ag107
ag995
ag107
ag10
ag107
ag110
ag107
ag10
ag107
ag111
ag107
ag13
ag13
aS'if'
p1197
ag6
aS'variable_5'
p1198
aS'->'
p1199
aS'variable_22'
p1200
aS'=='
p1201
aS'func_9'
p1202
ag6
ag107
ag1002
ag107
ag10
ag107
ag1003
ag107
ag10
ag107
ag1003
ag107
ag10
ag107
ag118
ag107
ag13
ag13
aS'if'
p1203
ag6
aS'variable_5'
p1204
aS'->'
p1205
aS'variable_22'
p1206
aS'=='
p1207
aS'func_10'
p1208
ag6
ag107
ag108
ag107
ag10
ag107
ag109
ag107
ag10
ag107
ag110
ag107
ag10
ag107
ag111
ag107
ag13
ag13
aS'if'
p1209
ag6
aS'variable_5'
p1210
aS'->'
p1211
aS'variable_22'
p1212
aS'=='
p1213
aS'func_11'
p1214
ag6
ag107
ag118
ag107
ag10
ag107
ag110
ag107
ag10
ag107
ag111
ag107
ag10
ag107
ag107
ag13
ag13
aS'if'
p1215
ag6
aS'variable_5'
p1216
aS'->'
p1217
aS'variable_17'
p1218
aS'=='
p1219
aS'variable_18'
p1220
aS'||'
p1221
aS'variable_5'
p1222
aS'->'
p1223
aS'variable_17'
p1224
aS'=='
p1225
aS'variable_23'
p1226
ag13
aS'for'
p1227
ag6
aS'variable_11'
p1228
ag16
ag31
ag20
aS'variable_11'
p1229
ag30
aS'variable_5'
p1230
aS'->'
p1231
aS'variable_24'
p1232
aS'&&'
p1233
aS'variable_10'
p1234
ag885
aS'variable_7'
p1235
ag20
aS'variable_11'
p1236
aS'++'
p1237
ag13
aS'variable_25'
p1238
ag8
aS'variable_26'
p1239
ag16
ag42
aS'variable_4'
p1240
aS'->'
p1241
aS'variable_15'
p1242
ag72
aS'variable_0'
p1243
ag74
ag31
ag76
ag74
aS'variable_11'
p1244
ag8
aS'variable_4'
p1245
aS'->'
p1246
aS'variable_15'
p1247
ag72
aS'variable_27'
p1248
ag74
ag31
ag76
ag76
ag20
aS'memcpy'
p1249
ag6
aS'variable_26'
p1250
ag10
aS'variable_7'
p1251
ag10
aS'func_12'
p1252
ag6
aS'variable_5'
p1253
aS'->'
p1254
aS'variable_28'
p1255
ag10
aS'variable_10'
p1256
ag906
aS'variable_7'
p1257
ag13
ag13
ag20
aS'variable_7'
p1258
aS'+='
p1259
aS'variable_5'
p1260
aS'->'
p1261
aS'variable_28'
p1262
ag890
ag6
aS'variable_5'
p1263
aS'->'
p1264
aS'variable_28'
p1265
aS'%'
p1266
ag439
ag13
ag20
aa(lp1267
S'static'
p1268
aS'int'
p1269
aS'func_0'
p1270
ag6
aS'void'
p1271
ag8
aS'variable_0'
p1272
ag10
aS'variable_1'
p1273
ag8
aS'variable_2'
p1274
ag13
aS'variable_3'
p1275
ag8
aS'variable_4'
p1276
ag16
aS'variable_5'
p1277
aS'->'
p1278
aS'variable_6'
p1279
ag20
aS'int'
p1280
aS'variable_7'
p1281
ag10
aS'variable_8'
p1282
ag10
aS'variable_9'
p1283
ag20
aS'if'
p1284
ag6
ag6
aS'variable_9'
p1285
ag16
aS'func_1'
p1286
ag6
aS'variable_5'
p1287
ag10
aS'variable_2'
p1288
ag13
ag13
ag30
ag31
ag13
aS'if'
p1289
ag6
aS'variable_4'
p1290
aS'->'
p1291
aS'variable_10'
p1292
ag13
aS'if'
p1293
ag6
ag6
aS'variable_9'
p1294
ag16
aS'variable_5'
p1295
aS'->'
p1296
aS'func_2'
p1297
ag6
aS'variable_5'
p1298
ag10
ag42
aS'variable_4'
p1299
aS'->'
p1300
aS'variable_11'
p1301
ag13
ag13
ag30
ag31
ag13
aS'if'
p1302
ag6
ag6
aS'variable_9'
p1303
ag16
aS'func_3'
p1304
ag6
aS'variable_5'
p1305
ag10
ag42
aS'variable_4'
p1306
aS'->'
p1307
aS'variable_11'
p1308
ag13
ag13
ag30
ag31
ag13
aS'if'
p1309
ag6
aS'variable_5'
p1310
aS'->'
p1311
aS'variable_12'
p1312
ag30
ag16
ag57
aS'&&'
p1313
aS'variable_5'
p1314
aS'->'
p1315
aS'variable_13'
p1316
aS'=='
p1317
aS'variable_14'
p1318
ag13
aS'if'
p1319
ag6
ag6
aS'variable_9'
p1320
ag16
aS'func_4'
p1321
ag6
aS'variable_5'
p1322
ag10
ag6
aS'uint32_t'
p1323
ag8
ag13
aS'variable_4'
p1324
aS'->'
p1325
aS'variable_11'
p1326
ag72
aS'variable_0'
p1327
ag74
ag75
ag76
ag13
ag13
ag30
ag31
ag13
aS'if'
p1328
ag6
aS'variable_5'
p1329
aS'->'
p1330
aS'variable_13'
p1331
aS'=='
p1332
aS'variable_15'
p1333
aS'&&'
p1334
aS'variable_5'
p1335
aS'->'
p1336
aS'variable_12'
p1337
ag30
ag16
ag57
ag13
aS'if'
p1338
ag6
ag6
aS'variable_9'
p1339
ag16
aS'func_5'
p1340
ag6
aS'variable_5'
p1341
ag10
aS'variable_4'
p1342
aS'->'
p1343
aS'variable_16'
p1344
ag13
ag13
ag30
ag31
ag13
aS'variable_4'
p1345
aS'->'
p1346
aS'variable_10'
p1347
ag16
ag75
ag20
aS'switch'
p1348
ag6
aS'variable_4'
p1349
aS'->'
p1350
aS'variable_17'
p1351
ag13
aS'if'
p1352
ag6
aS'variable_5'
p1353
aS'->'
p1354
aS'variable_18'
p1355
aS'=='
p1356
aS'func_6'
p1357
ag6
ag107
ag994
ag107
ag10
ag107
ag995
ag107
ag10
ag107
ag110
ag107
ag10
ag107
ag111
ag107
ag13
ag13
aS'if'
p1358
ag6
aS'variable_5'
p1359
aS'->'
p1360
aS'variable_18'
p1361
aS'=='
p1362
aS'func_7'
p1363
ag6
ag107
ag1002
ag107
ag10
ag107
ag1003
ag107
ag10
ag107
ag1003
ag107
ag10
ag107
ag118
ag107
ag13
ag13
aS'if'
p1364
ag6
aS'variable_5'
p1365
aS'->'
p1366
aS'variable_18'
p1367
aS'=='
p1368
aS'func_8'
p1369
ag6
ag107
ag108
ag107
ag10
ag107
ag109
ag107
ag10
ag107
ag110
ag107
ag10
ag107
ag111
ag107
ag13
ag13
aS'if'
p1370
ag6
aS'variable_5'
p1371
aS'->'
p1372
aS'variable_13'
p1373
aS'=='
p1374
aS'variable_14'
p1375
aS'||'
p1376
aS'variable_5'
p1377
aS'->'
p1378
aS'variable_13'
p1379
aS'=='
p1380
aS'variable_19'
p1381
ag13
aS'if'
p1382
ag6
aS'variable_4'
p1383
aS'->'
p1384
aS'variable_20'
p1385
ag13
aS'for'
p1386
ag6
aS'variable_7'
p1387
ag16
ag31
ag20
aS'variable_7'
p1388
ag30
aS'variable_5'
p1389
aS'->'
p1390
aS'variable_21'
p1391
ag20
aS'variable_7'
p1392
aS'++'
p1393
ag13
aS'variable_22'
p1394
ag8
aS'variable_23'
p1395
ag16
ag42
aS'variable_4'
p1396
aS'->'
p1397
aS'variable_11'
p1398
ag72
aS'variable_0'
p1399
ag74
ag31
ag76
ag74
aS'variable_7'
p1400
ag8
aS'variable_4'
p1401
aS'->'
p1402
aS'variable_11'
p1403
ag72
aS'variable_24'
p1404
ag74
ag31
ag76
ag76
ag20
aS'memset'
p1405
ag6
aS'variable_23'
p1406
ag10
ag31
ag10
aS'variable_5'
p1407
aS'->'
p1408
aS'variable_25'
p1409
aS'<<'
p1410
ag439
ag13
ag20
aS'func_9'
p1411
ag6
ag6
aS'uint32_t'
p1412
ag8
ag13
aS'variable_23'
p1413
ag10
aS'variable_26'
p1414
ag10
aS'func_10'
p1415
ag6
aS'variable_4'
p1416
aS'->'
p1417
aS'variable_27'
p1418
ag10
aS'variable_28'
p1419
ag906
aS'variable_26'
p1420
ag13
ag10
aS'variable_8'
p1421
ag13
ag20
aa(lp1422
S'static'
p1423
aS'int'
p1424
aS'func_0'
p1425
ag6
aS'void'
p1426
ag8
aS'variable_0'
p1427
ag10
aS'variable_1'
p1428
ag8
aS'variable_2'
p1429
ag13
aS'variable_3'
p1430
ag8
aS'variable_4'
p1431
ag16
aS'variable_5'
p1432
aS'->'
p1433
aS'variable_6'
p1434
ag20
aS'int'
p1435
aS'variable_7'
p1436
ag10
aS'variable_8'
p1437
ag10
aS'variable_9'
p1438
ag20
aS'if'
p1439
ag6
ag6
aS'variable_9'
p1440
ag16
aS'func_1'
p1441
ag6
aS'variable_5'
p1442
ag10
aS'variable_2'
p1443
ag13
ag13
ag30
ag31
ag13
aS'if'
p1444
ag6
aS'variable_4'
p1445
aS'->'
p1446
aS'variable_10'
p1447
ag13
aS'if'
p1448
ag6
ag6
aS'variable_9'
p1449
ag16
aS'variable_5'
p1450
aS'->'
p1451
aS'func_2'
p1452
ag6
aS'variable_5'
p1453
ag10
ag42
aS'variable_4'
p1454
aS'->'
p1455
aS'variable_11'
p1456
ag13
ag13
ag30
ag31
ag13
aS'if'
p1457
ag6
ag6
aS'variable_9'
p1458
ag16
aS'func_3'
p1459
ag6
aS'variable_5'
p1460
ag10
ag42
aS'variable_4'
p1461
aS'->'
p1462
aS'variable_11'
p1463
ag13
ag13
ag30
ag31
ag13
aS'if'
p1464
ag6
aS'variable_5'
p1465
aS'->'
p1466
aS'variable_12'
p1467
ag30
ag16
ag57
aS'&&'
p1468
aS'variable_5'
p1469
aS'->'
p1470
aS'variable_13'
p1471
aS'=='
p1472
aS'variable_14'
p1473
ag13
aS'if'
p1474
ag6
ag6
aS'variable_9'
p1475
ag16
aS'func_4'
p1476
ag6
aS'variable_5'
p1477
ag10
ag6
aS'uint32_t'
p1478
ag8
ag13
aS'variable_4'
p1479
aS'->'
p1480
aS'variable_11'
p1481
ag72
aS'variable_0'
p1482
ag74
ag75
ag76
ag13
ag13
ag30
ag31
ag13
aS'if'
p1483
ag6
aS'variable_5'
p1484
aS'->'
p1485
aS'variable_13'
p1486
aS'=='
p1487
aS'variable_15'
p1488
aS'&&'
p1489
aS'variable_5'
p1490
aS'->'
p1491
aS'variable_12'
p1492
ag30
ag16
ag57
ag13
aS'if'
p1493
ag6
ag6
aS'variable_9'
p1494
ag16
aS'func_5'
p1495
ag6
aS'variable_5'
p1496
ag10
aS'variable_4'
p1497
aS'->'
p1498
aS'variable_16'
p1499
ag13
ag13
ag30
ag31
ag13
aS'variable_4'
p1500
aS'->'
p1501
aS'variable_10'
p1502
ag16
ag75
ag20
aS'switch'
p1503
ag6
aS'variable_4'
p1504
aS'->'
p1505
aS'variable_17'
p1506
ag13
aS'if'
p1507
ag6
aS'variable_5'
p1508
aS'->'
p1509
aS'variable_18'
p1510
aS'=='
p1511
aS'func_6'
p1512
ag6
ag107
ag994
ag107
ag10
ag107
ag995
ag107
ag10
ag107
ag110
ag107
ag10
ag107
ag111
ag107
ag13
ag13
aS'if'
p1513
ag6
aS'variable_5'
p1514
aS'->'
p1515
aS'variable_18'
p1516
aS'=='
p1517
aS'func_7'
p1518
ag6
ag107
ag1002
ag107
ag10
ag107
ag1003
ag107
ag10
ag107
ag1003
ag107
ag10
ag107
ag118
ag107
ag13
ag13
aS'if'
p1519
ag6
aS'variable_5'
p1520
aS'->'
p1521
aS'variable_18'
p1522
aS'=='
p1523
aS'func_8'
p1524
ag6
ag107
ag108
ag107
ag10
ag107
ag109
ag107
ag10
ag107
ag110
ag107
ag10
ag107
ag111
ag107
ag13
ag13
aS'if'
p1525
ag6
aS'variable_5'
p1526
aS'->'
p1527
aS'variable_13'
p1528
aS'=='
p1529
aS'variable_14'
p1530
aS'||'
p1531
aS'variable_5'
p1532
aS'->'
p1533
aS'variable_13'
p1534
aS'=='
p1535
aS'variable_19'
p1536
ag13
aS'if'
p1537
ag6
aS'variable_4'
p1538
aS'->'
p1539
aS'variable_20'
p1540
ag13
aS'for'
p1541
ag6
aS'variable_7'
p1542
ag16
ag31
ag20
aS'variable_7'
p1543
ag30
aS'variable_5'
p1544
aS'->'
p1545
aS'variable_21'
p1546
ag20
aS'variable_7'
p1547
aS'++'
p1548
ag13
aS'variable_22'
p1549
ag8
aS'variable_23'
p1550
ag16
ag42
aS'variable_4'
p1551
aS'->'
p1552
aS'variable_11'
p1553
ag72
aS'variable_0'
p1554
ag74
ag31
ag76
ag74
aS'variable_7'
p1555
ag8
aS'variable_4'
p1556
aS'->'
p1557
aS'variable_11'
p1558
ag72
aS'variable_24'
p1559
ag74
ag31
ag76
ag76
ag20
aS'func_9'
p1560
ag6
ag6
aS'uint32_t'
p1561
ag8
ag13
aS'variable_23'
p1562
ag10
aS'variable_4'
p1563
aS'->'
p1564
aS'variable_25'
p1565
ag10
aS'variable_4'
p1566
aS'->'
p1567
aS'variable_26'
p1568
ag10
aS'variable_4'
p1569
aS'->'
p1570
aS'variable_27'
p1571
ag13
ag20
aa(lp1572
S'static'
p1573
aS'int'
p1574
aS'func_0'
p1575
ag6
aS'void'
p1576
ag8
aS'variable_0'
p1577
ag10
aS'variable_1'
p1578
ag8
aS'variable_2'
p1579
ag13
aS'variable_3'
p1580
ag8
aS'variable_4'
p1581
ag16
aS'variable_5'
p1582
aS'->'
p1583
aS'variable_6'
p1584
ag20
aS'int'
p1585
aS'variable_7'
p1586
ag10
aS'variable_8'
p1587
ag10
aS'variable_9'
p1588
ag20
aS'if'
p1589
ag6
ag6
aS'variable_9'
p1590
ag16
aS'func_1'
p1591
ag6
aS'variable_5'
p1592
ag10
aS'variable_2'
p1593
ag13
ag13
ag30
ag31
ag13
aS'if'
p1594
ag6
aS'variable_4'
p1595
aS'->'
p1596
aS'variable_10'
p1597
ag13
aS'if'
p1598
ag6
ag6
aS'variable_9'
p1599
ag16
aS'variable_5'
p1600
aS'->'
p1601
aS'func_2'
p1602
ag6
aS'variable_5'
p1603
ag10
ag42
aS'variable_4'
p1604
aS'->'
p1605
aS'variable_11'
p1606
ag13
ag13
ag30
ag31
ag13
aS'if'
p1607
ag6
ag6
aS'variable_9'
p1608
ag16
aS'func_3'
p1609
ag6
aS'variable_5'
p1610
ag10
ag42
aS'variable_4'
p1611
aS'->'
p1612
aS'variable_11'
p1613
ag13
ag13
ag30
ag31
ag13
aS'if'
p1614
ag6
aS'variable_5'
p1615
aS'->'
p1616
aS'variable_12'
p1617
ag30
ag16
ag57
aS'&&'
p1618
aS'variable_5'
p1619
aS'->'
p1620
aS'variable_13'
p1621
aS'=='
p1622
aS'variable_14'
p1623
ag13
aS'if'
p1624
ag6
ag6
aS'variable_9'
p1625
ag16
aS'func_4'
p1626
ag6
aS'variable_5'
p1627
ag10
ag6
aS'uint32_t'
p1628
ag8
ag13
aS'variable_4'
p1629
aS'->'
p1630
aS'variable_11'
p1631
ag72
aS'variable_0'
p1632
ag74
ag75
ag76
ag13
ag13
ag30
ag31
ag13
aS'if'
p1633
ag6
aS'variable_5'
p1634
aS'->'
p1635
aS'variable_13'
p1636
aS'=='
p1637
aS'variable_15'
p1638
aS'&&'
p1639
aS'variable_5'
p1640
aS'->'
p1641
aS'variable_12'
p1642
ag30
ag16
ag57
ag13
aS'if'
p1643
ag6
ag6
aS'variable_9'
p1644
ag16
aS'func_5'
p1645
ag6
aS'variable_5'
p1646
ag10
aS'variable_4'
p1647
aS'->'
p1648
aS'variable_16'
p1649
ag13
ag13
ag30
ag31
ag13
aS'variable_4'
p1650
aS'->'
p1651
aS'variable_10'
p1652
ag16
ag75
ag20
aS'switch'
p1653
ag6
aS'variable_4'
p1654
aS'->'
p1655
aS'variable_17'
p1656
ag13
aS'if'
p1657
ag6
aS'variable_5'
p1658
aS'->'
p1659
aS'variable_18'
p1660
aS'=='
p1661
aS'func_6'
p1662
ag6
ag107
ag994
ag107
ag10
ag107
ag995
ag107
ag10
ag107
ag110
ag107
ag10
ag107
ag111
ag107
ag13
ag13
aS'if'
p1663
ag6
aS'variable_5'
p1664
aS'->'
p1665
aS'variable_18'
p1666
aS'=='
p1667
aS'func_7'
p1668
ag6
ag107
ag1002
ag107
ag10
ag107
ag1003
ag107
ag10
ag107
ag1003
ag107
ag10
ag107
ag118
ag107
ag13
ag13
aS'if'
p1669
ag6
aS'variable_5'
p1670
aS'->'
p1671
aS'variable_18'
p1672
aS'=='
p1673
aS'func_8'
p1674
ag6
ag107
ag108
ag107
ag10
ag107
ag109
ag107
ag10
ag107
ag110
ag107
ag10
ag107
ag111
ag107
ag13
ag13
aS'if'
p1675
ag6
aS'variable_5'
p1676
aS'->'
p1677
aS'variable_13'
p1678
aS'=='
p1679
aS'variable_14'
p1680
aS'||'
p1681
aS'variable_5'
p1682
aS'->'
p1683
aS'variable_13'
p1684
aS'=='
p1685
aS'variable_19'
p1686
ag13
aS'for'
p1687
ag6
aS'variable_7'
p1688
ag16
ag31
ag20
aS'variable_7'
p1689
ag30
aS'variable_5'
p1690
aS'->'
p1691
aS'variable_20'
p1692
ag20
aS'variable_7'
p1693
aS'++'
p1694
ag13
aS'variable_21'
p1695
ag8
aS'variable_22'
p1696
ag16
ag42
aS'variable_4'
p1697
aS'->'
p1698
aS'variable_11'
p1699
ag72
aS'variable_0'
p1700
ag74
ag31
ag76
ag74
aS'variable_7'
p1701
ag8
aS'variable_4'
p1702
aS'->'
p1703
aS'variable_11'
p1704
ag72
aS'variable_23'
p1705
ag74
ag31
ag76
ag76
ag20
aS'memset'
p1706
ag6
aS'variable_22'
p1707
ag10
ag31
ag10
aS'variable_5'
p1708
aS'->'
p1709
aS'variable_24'
p1710
ag13
ag20
aS'func_9'
p1711
ag6
aS'variable_22'
p1712
ag10
aS'variable_25'
p1713
ag10
aS'func_10'
p1714
ag6
aS'variable_4'
p1715
aS'->'
p1716
aS'variable_26'
p1717
ag10
aS'variable_27'
p1718
ag906
aS'variable_25'
p1719
ag13
ag10
aS'variable_8'
p1720
ag13
ag20
aa(lp1721
S'static'
p1722
aS'int'
p1723
aS'func_0'
p1724
ag6
aS'void'
p1725
ag8
aS'variable_0'
p1726
ag10
aS'variable_1'
p1727
ag8
aS'variable_2'
p1728
ag13
aS'variable_3'
p1729
ag8
aS'variable_4'
p1730
ag16
aS'variable_5'
p1731
aS'->'
p1732
aS'variable_6'
p1733
ag20
aS'const'
p1734
aS'uint8_t'
p1735
ag8
aS'variable_7'
p1736
ag16
aS'variable_2'
p1737
aS'->'
p1738
aS'variable_8'
p1739
ag885
ag16
ag439
ag886
aS'variable_2'
p1740
aS'->'
p1741
aS'variable_0'
p1742
ag890
aS'func_1'
p1743
ag6
aS'variable_2'
p1744
aS'->'
p1745
aS'variable_0'
p1746
ag13
ag895
aS'NULL'
p1747
ag20
aS'const'
p1748
aS'int'
p1749
aS'variable_9'
p1750
ag16
aS'variable_2'
p1751
aS'->'
p1752
aS'variable_8'
p1753
ag885
ag16
ag439
ag886
aS'variable_2'
p1754
aS'->'
p1755
aS'variable_8'
p1756
ag906
aS'func_2'
p1757
ag6
aS'variable_2'
p1758
aS'->'
p1759
aS'variable_0'
p1760
ag13
ag895
ag31
ag20
aS'const'
p1761
aS'uint8_t'
p1762
ag8
aS'variable_10'
p1763
ag16
aS'variable_7'
p1764
ag890
aS'variable_9'
p1765
ag20
aS'int'
p1766
aS'variable_11'
p1767
ag10
aS'variable_12'
p1768
ag10
aS'variable_13'
p1769
ag20
aS'if'
p1770
ag6
ag6
aS'variable_13'
p1771
ag16
aS'func_3'
p1772
ag6
aS'variable_5'
p1773
ag10
aS'variable_2'
p1774
ag13
ag13
ag30
ag31
ag13
aS'if'
p1775
ag6
aS'variable_4'
p1776
aS'->'
p1777
aS'variable_14'
p1778
ag13
aS'if'
p1779
ag6
ag6
aS'variable_13'
p1780
ag16
aS'variable_5'
p1781
aS'->'
p1782
aS'func_4'
p1783
ag6
aS'variable_5'
p1784
ag10
ag42
aS'variable_4'
p1785
aS'->'
p1786
aS'variable_15'
p1787
ag13
ag13
ag30
ag31
ag13
aS'if'
p1788
ag6
ag6
aS'variable_13'
p1789
ag16
aS'func_5'
p1790
ag6
aS'variable_5'
p1791
ag10
ag42
aS'variable_4'
p1792
aS'->'
p1793
aS'variable_15'
p1794
ag13
ag13
ag30
ag31
ag13
aS'if'
p1795
ag6
aS'variable_5'
p1796
aS'->'
p1797
aS'variable_16'
p1798
ag30
ag16
ag57
aS'&&'
p1799
aS'variable_5'
p1800
aS'->'
p1801
aS'variable_17'
p1802
aS'=='
p1803
aS'variable_18'
p1804
ag13
aS'if'
p1805
ag6
ag6
aS'variable_13'
p1806
ag16
aS'func_6'
p1807
ag6
aS'variable_5'
p1808
ag10
ag6
aS'uint32_t'
p1809
ag8
ag13
aS'variable_4'
p1810
aS'->'
p1811
aS'variable_15'
p1812
ag72
aS'variable_0'
p1813
ag74
ag75
ag76
ag13
ag13
ag30
ag31
ag13
aS'if'
p1814
ag6
aS'variable_5'
p1815
aS'->'
p1816
aS'variable_17'
p1817
aS'=='
p1818
aS'variable_19'
p1819
aS'&&'
p1820
aS'variable_5'
p1821
aS'->'
p1822
aS'variable_16'
p1823
ag30
ag16
ag57
ag13
aS'if'
p1824
ag6
ag6
aS'variable_13'
p1825
ag16
aS'func_7'
p1826
ag6
aS'variable_5'
p1827
ag10
aS'variable_4'
p1828
aS'->'
p1829
aS'variable_20'
p1830
ag13
ag13
ag30
ag31
ag13
aS'variable_4'
p1831
aS'->'
p1832
aS'variable_14'
p1833
ag16
ag75
ag20
aS'switch'
p1834
ag6
aS'variable_4'
p1835
aS'->'
p1836
aS'variable_21'
p1837
ag13
aS'if'
p1838
ag6
aS'variable_5'
p1839
aS'->'
p1840
aS'variable_22'
p1841
aS'=='
p1842
aS'func_8'
p1843
ag6
ag107
ag994
ag107
ag10
ag107
ag995
ag107
ag10
ag107
ag110
ag107
ag10
ag107
ag111
ag107
ag13
ag13
aS'if'
p1844
ag6
aS'variable_5'
p1845
aS'->'
p1846
aS'variable_22'
p1847
aS'=='
p1848
aS'func_9'
p1849
ag6
ag107
ag1002
ag107
ag10
ag107
ag1003
ag107
ag10
ag107
ag1003
ag107
ag10
ag107
ag118
ag107
ag13
ag13
aS'const'
p1850
aS'AVPixFmtDescriptor'
p1851
ag8
aS'variable_23'
p1852
ag16
aS'func_10'
p1853
ag6
aS'variable_5'
p1854
aS'->'
p1855
aS'variable_17'
p1856
ag13
ag20
aS'int'
p1857
aS'variable_24'
p1858
ag16
aS'variable_5'
p1859
aS'->'
p1860
aS'variable_25'
p1861
ag8
ag6
aS'func_11'
p1862
ag6
aS'variable_23'
p1863
ag13
aS'>>'
p1864
aS'3'
p1865
ag13
ag20
aS'for'
p1866
ag6
aS'variable_11'
p1867
ag16
ag31
ag20
aS'variable_11'
p1868
ag30
aS'variable_5'
p1869
aS'->'
p1870
aS'variable_26'
p1871
aS'&&'
p1872
aS'variable_7'
p1873
ag30
aS'variable_10'
p1874
ag20
aS'variable_11'
p1875
aS'++'
p1876
ag13
aS'variable_27'
p1877
ag8
aS'variable_28'
p1878
ag16
ag42
aS'variable_4'
p1879
aS'->'
p1880
aS'variable_15'
p1881
ag72
aS'variable_0'
p1882
ag74
ag31
ag76
ag74
aS'variable_11'
p1883
ag8
aS'variable_4'
p1884
aS'->'
p1885
aS'variable_15'
p1886
ag72
aS'variable_29'
p1887
ag74
ag31
ag76
ag76
ag20
aS'memcpy'
p1888
ag6
aS'variable_28'
p1889
ag10
aS'variable_7'
p1890
ag10
aS'func_12'
p1891
ag6
aS'variable_24'
p1892
ag10
aS'variable_10'
p1893
ag906
aS'variable_7'
p1894
ag13
ag13
ag20
aS'variable_7'
p1895
aS'+='
p1896
aS'variable_24'
p1897
ag20
aS'variable_28'
p1898
ag74
aS'4'
p1899
ag8
aS'variable_30'
p1900
ag890
ag1865
ag76
ag16
aS'variable_28'
p1901
ag74
ag1899
ag8
aS'variable_30'
p1902
ag890
ag1865
ag76
ag42
aS'0xF0'
p1903
aS'|'
p1904
ag6
aS'variable_28'
p1905
ag74
ag1899
ag8
aS'variable_30'
p1906
ag890
ag1865
ag76
aS'>>'
p1907
ag1899
ag13
ag20
aa(lp1908
S'static'
p1909
aS'int'
p1910
aS'func_0'
p1911
ag6
aS'void'
p1912
ag8
aS'variable_0'
p1913
ag10
aS'variable_1'
p1914
ag8
aS'variable_2'
p1915
ag13
aS'variable_3'
p1916
ag8
aS'variable_4'
p1917
ag16
aS'variable_5'
p1918
aS'->'
p1919
aS'variable_6'
p1920
ag20
aS'const'
p1921
aS'uint8_t'
p1922
ag8
aS'variable_7'
p1923
ag16
aS'variable_2'
p1924
aS'->'
p1925
aS'variable_8'
p1926
ag885
ag16
ag439
ag886
aS'variable_2'
p1927
aS'->'
p1928
aS'variable_0'
p1929
ag890
aS'func_1'
p1930
ag6
aS'variable_2'
p1931
aS'->'
p1932
aS'variable_0'
p1933
ag13
ag895
aS'NULL'
p1934
ag20
aS'const'
p1935
aS'int'
p1936
aS'variable_9'
p1937
ag16
aS'variable_2'
p1938
aS'->'
p1939
aS'variable_8'
p1940
ag885
ag16
ag439
ag886
aS'variable_2'
p1941
aS'->'
p1942
aS'variable_8'
p1943
ag906
aS'func_2'
p1944
ag6
aS'variable_2'
p1945
aS'->'
p1946
aS'variable_0'
p1947
ag13
ag895
ag31
ag20
aS'const'
p1948
aS'uint8_t'
p1949
ag8
aS'variable_10'
p1950
ag16
aS'variable_7'
p1951
ag890
aS'variable_9'
p1952
ag20
aS'int'
p1953
aS'variable_11'
p1954
ag10
aS'variable_12'
p1955
ag10
aS'variable_13'
p1956
ag20
aS'if'
p1957
ag6
ag6
aS'variable_13'
p1958
ag16
aS'func_3'
p1959
ag6
aS'variable_5'
p1960
ag10
aS'variable_2'
p1961
ag13
ag13
ag30
ag31
ag13
aS'if'
p1962
ag6
aS'variable_4'
p1963
aS'->'
p1964
aS'variable_14'
p1965
ag13
aS'if'
p1966
ag6
ag6
aS'variable_13'
p1967
ag16
aS'variable_5'
p1968
aS'->'
p1969
aS'func_4'
p1970
ag6
aS'variable_5'
p1971
ag10
ag42
aS'variable_4'
p1972
aS'->'
p1973
aS'variable_15'
p1974
ag13
ag13
ag30
ag31
ag13
aS'if'
p1975
ag6
ag6
aS'variable_13'
p1976
ag16
aS'func_5'
p1977
ag6
aS'variable_5'
p1978
ag10
ag42
aS'variable_4'
p1979
aS'->'
p1980
aS'variable_15'
p1981
ag13
ag13
ag30
ag31
ag13
aS'if'
p1982
ag6
aS'variable_5'
p1983
aS'->'
p1984
aS'variable_16'
p1985
ag30
ag16
ag57
aS'&&'
p1986
aS'variable_5'
p1987
aS'->'
p1988
aS'variable_17'
p1989
aS'=='
p1990
aS'variable_18'
p1991
ag13
aS'if'
p1992
ag6
ag6
aS'variable_13'
p1993
ag16
aS'func_6'
p1994
ag6
aS'variable_5'
p1995
ag10
ag6
aS'uint32_t'
p1996
ag8
ag13
aS'variable_4'
p1997
aS'->'
p1998
aS'variable_15'
p1999
ag72
aS'variable_0'
p2000
ag74
ag75
ag76
ag13
ag13
ag30
ag31
ag13
aS'if'
p2001
ag6
aS'variable_5'
p2002
aS'->'
p2003
aS'variable_17'
p2004
aS'=='
p2005
aS'variable_19'
p2006
aS'&&'
p2007
aS'variable_5'
p2008
aS'->'
p2009
aS'variable_16'
p2010
ag30
ag16
ag57
ag13
aS'if'
p2011
ag6
ag6
aS'variable_13'
p2012
ag16
aS'func_7'
p2013
ag6
aS'variable_5'
p2014
ag10
aS'variable_4'
p2015
aS'->'
p2016
aS'variable_20'
p2017
ag13
ag13
ag30
ag31
ag13
aS'variable_4'
p2018
aS'->'
p2019
aS'variable_14'
p2020
ag16
ag75
ag20
aS'switch'
p2021
ag6
aS'variable_4'
p2022
aS'->'
p2023
aS'variable_21'
p2024
ag13
aS'if'
p2025
ag6
aS'variable_5'
p2026
aS'->'
p2027
aS'variable_22'
p2028
aS'=='
p2029
aS'func_8'
p2030
ag6
ag107
ag994
ag107
ag10
ag107
ag995
ag107
ag10
ag107
ag110
ag107
ag10
ag107
ag111
ag107
ag13
ag13
aS'if'
p2031
ag6
aS'variable_5'
p2032
aS'->'
p2033
aS'variable_17'
p2034
aS'=='
p2035
aS'variable_18'
p2036
aS'||'
p2037
aS'variable_5'
p2038
aS'->'
p2039
aS'variable_17'
p2040
aS'=='
p2041
aS'variable_23'
p2042
ag13
aS'if'
p2043
ag6
aS'variable_4'
p2044
aS'->'
p2045
aS'variable_24'
p2046
ag13
aS'for'
p2047
ag6
aS'variable_11'
p2048
ag16
ag31
ag20
aS'variable_11'
p2049
ag30
aS'variable_5'
p2050
aS'->'
p2051
aS'variable_25'
p2052
ag20
aS'variable_11'
p2053
aS'++'
p2054
ag13
aS'memset'
p2055
ag6
aS'variable_4'
p2056
aS'->'
p2057
aS'variable_26'
p2058
ag10
ag31
ag10
aS'variable_4'
p2059
aS'->'
p2060
aS'variable_27'
p2061
ag8
ag57
ag13
ag20
aS'for'
p2062
ag6
aS'variable_12'
p2063
ag16
ag31
ag20
aS'variable_12'
p2064
ag30
aS'variable_4'
p2065
aS'->'
p2066
aS'variable_28'
p2067
ag20
aS'variable_12'
p2068
aS'++'
p2069
ag13
aS'const'
p2070
aS'uint8_t'
p2071
ag8
aS'variable_29'
p2072
ag16
aS'variable_7'
p2073
ag890
ag6
aS'variable_12'
p2074
ag8
aS'variable_5'
p2075
aS'->'
p2076
aS'variable_25'
p2077
ag890
aS'variable_11'
p2078
ag13
ag8
aS'variable_4'
p2079
aS'->'
p2080
aS'variable_27'
p2081
ag20
aS'if'
p2082
ag6
aS'variable_29'
p2083
ag885
ag16
aS'variable_10'
p2084
ag13
aS'func_9'
p2085
ag6
aS'variable_4'
p2086
aS'->'
p2087
aS'variable_26'
p2088
ag10
aS'variable_29'
p2089
ag10
aS'func_10'
p2090
ag6
aS'variable_4'
p2091
aS'->'
p2092
aS'variable_27'
p2093
ag10
aS'variable_10'
p2094
ag906
aS'variable_29'
p2095
ag13
ag10
aS'variable_12'
p2096
ag13
ag20
aa(lp2097
S'static'
p2098
aS'int'
p2099
aS'func_0'
p2100
ag6
aS'void'
p2101
ag8
aS'variable_0'
p2102
ag10
aS'variable_1'
p2103
ag8
aS'variable_2'
p2104
ag13
aS'variable_3'
p2105
ag8
aS'variable_4'
p2106
ag16
aS'variable_5'
p2107
aS'->'
p2108
aS'variable_6'
p2109
ag20
aS'int'
p2110
aS'variable_7'
p2111
ag10
aS'variable_8'
p2112
ag10
aS'variable_9'
p2113
ag20
aS'if'
p2114
ag6
ag6
aS'variable_9'
p2115
ag16
aS'func_1'
p2116
ag6
aS'variable_5'
p2117
ag10
aS'variable_2'
p2118
ag13
ag13
ag30
ag31
ag13
aS'if'
p2119
ag6
aS'variable_4'
p2120
aS'->'
p2121
aS'variable_10'
p2122
ag13
aS'if'
p2123
ag6
ag6
aS'variable_9'
p2124
ag16
aS'variable_5'
p2125
aS'->'
p2126
aS'func_2'
p2127
ag6
aS'variable_5'
p2128
ag10
ag42
aS'variable_4'
p2129
aS'->'
p2130
aS'variable_11'
p2131
ag13
ag13
ag30
ag31
ag13
aS'if'
p2132
ag6
ag6
aS'variable_9'
p2133
ag16
aS'func_3'
p2134
ag6
aS'variable_5'
p2135
ag10
ag42
aS'variable_4'
p2136
aS'->'
p2137
aS'variable_11'
p2138
ag13
ag13
ag30
ag31
ag13
aS'if'
p2139
ag6
aS'variable_5'
p2140
aS'->'
p2141
aS'variable_12'
p2142
ag30
ag16
ag57
aS'&&'
p2143
aS'variable_5'
p2144
aS'->'
p2145
aS'variable_13'
p2146
aS'=='
p2147
aS'variable_14'
p2148
ag13
aS'if'
p2149
ag6
ag6
aS'variable_9'
p2150
ag16
aS'func_4'
p2151
ag6
aS'variable_5'
p2152
ag10
ag6
aS'uint32_t'
p2153
ag8
ag13
aS'variable_4'
p2154
aS'->'
p2155
aS'variable_11'
p2156
ag72
aS'variable_0'
p2157
ag74
ag75
ag76
ag13
ag13
ag30
ag31
ag13
aS'if'
p2158
ag6
aS'variable_5'
p2159
aS'->'
p2160
aS'variable_13'
p2161
aS'=='
p2162
aS'variable_15'
p2163
aS'&&'
p2164
aS'variable_5'
p2165
aS'->'
p2166
aS'variable_12'
p2167
ag30
ag16
ag57
ag13
aS'if'
p2168
ag6
ag6
aS'variable_9'
p2169
ag16
aS'func_5'
p2170
ag6
aS'variable_5'
p2171
ag10
aS'variable_4'
p2172
aS'->'
p2173
aS'variable_16'
p2174
ag13
ag13
ag30
ag31
ag13
aS'variable_4'
p2175
aS'->'
p2176
aS'variable_10'
p2177
ag16
ag75
ag20
aS'switch'
p2178
ag6
aS'variable_4'
p2179
aS'->'
p2180
aS'variable_17'
p2181
ag13
aS'if'
p2182
ag6
aS'variable_5'
p2183
aS'->'
p2184
aS'variable_18'
p2185
aS'=='
p2186
aS'func_6'
p2187
ag6
ag107
ag994
ag107
ag10
ag107
ag995
ag107
ag10
ag107
ag110
ag107
ag10
ag107
ag111
ag107
ag13
ag13
aS'if'
p2188
ag6
aS'variable_5'
p2189
aS'->'
p2190
aS'variable_13'
p2191
aS'=='
p2192
aS'variable_14'
p2193
aS'||'
p2194
aS'variable_5'
p2195
aS'->'
p2196
aS'variable_13'
p2197
aS'=='
p2198
aS'variable_19'
p2199
ag13
aS'if'
p2200
ag6
aS'variable_4'
p2201
aS'->'
p2202
aS'variable_20'
p2203
ag13
aS'memset'
p2204
ag6
aS'variable_4'
p2205
aS'->'
p2206
aS'variable_11'
p2207
ag72
aS'variable_0'
p2208
ag74
ag31
ag76
ag10
ag31
ag10
aS'variable_5'
p2209
aS'->'
p2210
aS'variable_21'
p2211
ag8
aS'variable_4'
p2212
aS'->'
p2213
aS'variable_11'
p2214
ag72
aS'variable_22'
p2215
ag74
ag31
ag76
ag13
ag20
aS'for'
p2216
ag6
aS'variable_7'
p2217
ag16
ag31
ag20
aS'variable_7'
p2218
ag30
aS'variable_5'
p2219
aS'->'
p2220
aS'variable_21'
p2221
ag20
aS'variable_7'
p2222
aS'++'
p2223
ag13
aS'variable_23'
p2224
ag8
aS'variable_24'
p2225
ag16
ag42
aS'variable_4'
p2226
aS'->'
p2227
aS'variable_11'
p2228
ag72
aS'variable_0'
p2229
ag74
ag31
ag76
ag74
aS'variable_7'
p2230
ag8
aS'variable_4'
p2231
aS'->'
p2232
aS'variable_11'
p2233
ag72
aS'variable_22'
p2234
ag74
ag31
ag76
ag76
ag20
aS'func_7'
p2235
ag6
ag6
aS'uint32_t'
p2236
ag8
ag13
aS'variable_24'
p2237
ag10
aS'variable_4'
p2238
aS'->'
p2239
aS'variable_25'
p2240
ag10
aS'variable_4'
p2241
aS'->'
p2242
aS'variable_26'
p2243
ag10
aS'variable_4'
p2244
aS'->'
p2245
aS'variable_27'
p2246
ag13
ag20
aa(lp2247
S'static'
p2248
aS'int'
p2249
aS'func_0'
p2250
ag6
aS'void'
p2251
ag8
aS'variable_0'
p2252
ag10
aS'variable_1'
p2253
ag8
aS'variable_2'
p2254
ag13
aS'variable_3'
p2255
ag8
aS'variable_4'
p2256
ag16
aS'variable_5'
p2257
aS'->'
p2258
aS'variable_6'
p2259
ag20
aS'const'
p2260
aS'uint8_t'
p2261
ag8
aS'variable_7'
p2262
ag16
aS'variable_2'
p2263
aS'->'
p2264
aS'variable_8'
p2265
ag885
ag16
ag439
ag886
aS'variable_2'
p2266
aS'->'
p2267
aS'variable_0'
p2268
ag890
aS'func_1'
p2269
ag6
aS'variable_2'
p2270
aS'->'
p2271
aS'variable_0'
p2272
ag13
ag895
aS'NULL'
p2273
ag20
aS'const'
p2274
aS'int'
p2275
aS'variable_9'
p2276
ag16
aS'variable_2'
p2277
aS'->'
p2278
aS'variable_8'
p2279
ag885
ag16
ag439
ag886
aS'variable_2'
p2280
aS'->'
p2281
aS'variable_8'
p2282
ag906
aS'func_2'
p2283
ag6
aS'variable_2'
p2284
aS'->'
p2285
aS'variable_0'
p2286
ag13
ag895
ag31
ag20
aS'const'
p2287
aS'uint8_t'
p2288
ag8
aS'variable_10'
p2289
ag16
aS'variable_7'
p2290
ag890
aS'variable_9'
p2291
ag20
aS'int'
p2292
aS'variable_11'
p2293
ag10
aS'variable_12'
p2294
ag10
aS'variable_13'
p2295
ag20
aS'if'
p2296
ag6
ag6
aS'variable_13'
p2297
ag16
aS'func_3'
p2298
ag6
aS'variable_5'
p2299
ag10
aS'variable_2'
p2300
ag13
ag13
ag30
ag31
ag13
aS'if'
p2301
ag6
aS'variable_4'
p2302
aS'->'
p2303
aS'variable_14'
p2304
ag13
aS'if'
p2305
ag6
ag6
aS'variable_13'
p2306
ag16
aS'variable_5'
p2307
aS'->'
p2308
aS'func_4'
p2309
ag6
aS'variable_5'
p2310
ag10
ag42
aS'variable_4'
p2311
aS'->'
p2312
aS'variable_15'
p2313
ag13
ag13
ag30
ag31
ag13
aS'if'
p2314
ag6
ag6
aS'variable_13'
p2315
ag16
aS'func_5'
p2316
ag6
aS'variable_5'
p2317
ag10
ag42
aS'variable_4'
p2318
aS'->'
p2319
aS'variable_15'
p2320
ag13
ag13
ag30
ag31
ag13
aS'if'
p2321
ag6
aS'variable_5'
p2322
aS'->'
p2323
aS'variable_16'
p2324
ag30
ag16
ag57
aS'&&'
p2325
aS'variable_5'
p2326
aS'->'
p2327
aS'variable_17'
p2328
aS'=='
p2329
aS'variable_18'
p2330
ag13
aS'if'
p2331
ag6
ag6
aS'variable_13'
p2332
ag16
aS'func_6'
p2333
ag6
aS'variable_5'
p2334
ag10
ag6
aS'uint32_t'
p2335
ag8
ag13
aS'variable_4'
p2336
aS'->'
p2337
aS'variable_15'
p2338
ag72
aS'variable_0'
p2339
ag74
ag75
ag76
ag13
ag13
ag30
ag31
ag13
aS'if'
p2340
ag6
aS'variable_5'
p2341
aS'->'
p2342
aS'variable_17'
p2343
aS'=='
p2344
aS'variable_19'
p2345
aS'&&'
p2346
aS'variable_5'
p2347
aS'->'
p2348
aS'variable_16'
p2349
ag30
ag16
ag57
ag13
aS'if'
p2350
ag6
ag6
aS'variable_13'
p2351
ag16
aS'func_7'
p2352
ag6
aS'variable_5'
p2353
ag10
aS'variable_4'
p2354
aS'->'
p2355
aS'variable_20'
p2356
ag13
ag13
ag30
ag31
ag13
aS'variable_4'
p2357
aS'->'
p2358
aS'variable_14'
p2359
ag16
ag75
ag20
aS'switch'
p2360
ag6
aS'variable_4'
p2361
aS'->'
p2362
aS'variable_21'
p2363
ag13
aS'if'
p2364
ag6
aS'variable_5'
p2365
aS'->'
p2366
aS'variable_22'
p2367
aS'=='
p2368
aS'func_8'
p2369
ag6
ag107
ag994
ag107
ag10
ag107
ag995
ag107
ag10
ag107
ag110
ag107
ag10
ag107
ag111
ag107
ag13
ag13
aS'if'
p2370
ag6
aS'variable_5'
p2371
aS'->'
p2372
aS'variable_17'
p2373
aS'=='
p2374
aS'variable_18'
p2375
aS'||'
p2376
aS'variable_5'
p2377
aS'->'
p2378
aS'variable_17'
p2379
aS'=='
p2380
aS'variable_23'
p2381
ag13
aS'memset'
p2382
ag6
aS'variable_4'
p2383
aS'->'
p2384
aS'variable_15'
p2385
ag72
aS'variable_0'
p2386
ag74
ag31
ag76
ag10
ag31
ag10
aS'variable_5'
p2387
aS'->'
p2388
aS'variable_24'
p2389
ag8
aS'variable_4'
p2390
aS'->'
p2391
aS'variable_15'
p2392
ag72
aS'variable_25'
p2393
ag74
ag31
ag76
ag13
ag20
aS'for'
p2394
ag6
aS'variable_12'
p2395
ag16
ag31
ag20
aS'variable_12'
p2396
ag30
aS'variable_4'
p2397
aS'->'
p2398
aS'variable_26'
p2399
ag20
aS'variable_12'
p2400
aS'++'
p2401
ag13
aS'for'
p2402
ag6
aS'variable_11'
p2403
ag16
ag31
ag20
aS'variable_11'
p2404
ag30
aS'variable_5'
p2405
aS'->'
p2406
aS'variable_24'
p2407
aS'&&'
p2408
aS'variable_7'
p2409
ag30
aS'variable_10'
p2410
ag20
aS'variable_11'
p2411
aS'++'
p2412
ag13
aS'variable_27'
p2413
ag8
aS'variable_28'
p2414
ag16
ag42
aS'variable_4'
p2415
aS'->'
p2416
aS'variable_15'
p2417
ag72
aS'variable_0'
p2418
ag74
ag31
ag76
ag74
aS'variable_11'
p2419
ag8
aS'variable_4'
p2420
aS'->'
p2421
aS'variable_15'
p2422
ag72
aS'variable_25'
p2423
ag74
ag31
ag76
ag76
ag20
aS'func_9'
p2424
ag6
aS'variable_28'
p2425
ag10
aS'variable_7'
p2426
ag10
aS'func_10'
p2427
ag6
aS'variable_4'
p2428
aS'->'
p2429
aS'variable_29'
p2430
ag10
aS'variable_10'
p2431
ag906
aS'variable_7'
p2432
ag13
ag10
aS'variable_12'
p2433
ag13
ag20
aS'variable_7'
p2434
aS'+='
p2435
aS'variable_4'
p2436
aS'->'
p2437
aS'variable_29'
p2438
ag20
aa(lp2439
S'static'
p2440
aS'int'
p2441
aS'func_0'
p2442
ag6
aS'void'
p2443
ag8
aS'variable_0'
p2444
ag10
aS'variable_1'
p2445
ag8
aS'variable_2'
p2446
ag13
aS'const'
p2447
aS'uint8_t'
p2448
ag8
aS'variable_3'
p2449
ag16
aS'variable_2'
p2450
aS'->'
p2451
aS'variable_4'
p2452
ag885
ag16
ag439
ag886
aS'variable_2'
p2453
aS'->'
p2454
aS'variable_0'
p2455
ag890
aS'func_1'
p2456
ag6
aS'variable_2'
p2457
aS'->'
p2458
aS'variable_0'
p2459
ag13
ag895
aS'NULL'
p2460
ag20
aS'const'
p2461
aS'int'
p2462
aS'variable_5'
p2463
ag16
aS'variable_2'
p2464
aS'->'
p2465
aS'variable_4'
p2466
ag885
ag16
ag439
ag886
aS'variable_2'
p2467
aS'->'
p2468
aS'variable_4'
p2469
ag906
aS'func_2'
p2470
ag6
aS'variable_2'
p2471
aS'->'
p2472
aS'variable_0'
p2473
ag13
ag895
ag31
ag20
aS'const'
p2474
aS'uint8_t'
p2475
ag8
aS'variable_6'
p2476
ag16
aS'variable_3'
p2477
ag890
aS'variable_5'
p2478
ag20
aS'for'
p2479
ag6
aS'variable_7'
p2480
ag16
ag31
ag20
aS'variable_7'
p2481
ag30
aS'variable_8'
p2482
aS'->'
p2483
aS'variable_9'
p2484
aS'&&'
p2485
aS'variable_3'
p2486
ag30
aS'variable_6'
p2487
ag20
aS'variable_7'
p2488
aS'++'
p2489
ag13
aS'func_3'
p2490
ag6
aS'variable_10'
p2491
ag10
aS'variable_3'
p2492
ag10
aS'func_4'
p2493
ag6
aS'variable_11'
p2494
aS'->'
p2495
aS'variable_12'
p2496
ag10
aS'variable_6'
p2497
ag906
aS'variable_3'
p2498
ag13
ag10
aS'variable_13'
p2499
ag13
ag20
aS'if'
p2500
ag6
aS'variable_14'
p2501
ag885
ag16
aS'variable_6'
p2502
ag13
aS'func_5'
p2503
ag6
aS'variable_11'
p2504
aS'->'
p2505
aS'variable_15'
p2506
ag10
aS'variable_14'
p2507
ag10
aS'func_6'
p2508
ag6
aS'variable_11'
p2509
aS'->'
p2510
aS'variable_12'
p2511
ag10
aS'variable_6'
p2512
ag906
aS'variable_14'
p2513
ag13
ag10
aS'variable_13'
p2514
ag13
ag20
aS'for'
p2515
ag6
aS'variable_7'
p2516
ag16
ag31
ag20
aS'variable_7'
p2517
ag30
aS'variable_8'
p2518
aS'->'
p2519
aS'variable_9'
p2520
aS'&&'
p2521
aS'variable_3'
p2522
ag30
aS'variable_6'
p2523
ag20
aS'variable_7'
p2524
aS'++'
p2525
ag13
aS'memcpy'
p2526
ag6
aS'variable_10'
p2527
ag10
aS'variable_3'
p2528
ag10
aS'func_7'
p2529
ag6
aS'variable_16'
p2530
ag10
aS'variable_6'
p2531
ag906
aS'variable_3'
p2532
ag13
ag13
ag20
aS'variable_10'
p2533
ag74
ag1899
ag8
aS'variable_17'
p2534
ag890
ag1865
ag76
ag16
aS'variable_10'
p2535
ag74
ag1899
ag8
aS'variable_17'
p2536
ag890
ag1865
ag76
ag42
aS'0xF0'
p2537
ag1904
ag6
aS'variable_10'
p2538
ag74
ag1899
ag8
aS'variable_17'
p2539
ag890
ag1865
ag76
aS'>>'
p2540
ag1899
ag13
ag20
aS'for'
p2541
ag6
aS'variable_13'
p2542
ag16
ag31
ag20
aS'variable_13'
p2543
ag30
aS'variable_11'
p2544
aS'->'
p2545
aS'variable_18'
p2546
aS'&&'
p2547
aS'variable_3'
p2548
ag30
aS'variable_6'
p2549
ag20
aS'variable_13'
p2550
aS'++'
p2551
ag13
aS'func_8'
p2552
ag6
aS'variable_10'
p2553
ag10
aS'variable_3'
p2554
ag10
aS'func_9'
p2555
ag6
aS'variable_11'
p2556
aS'->'
p2557
aS'variable_12'
p2558
ag10
aS'variable_6'
p2559
ag906
aS'variable_3'
p2560
ag13
ag10
aS'variable_13'
p2561
ag13
ag20
aS'for'
p2562
ag6
aS'variable_13'
p2563
ag16
ag31
ag20
aS'variable_13'
p2564
ag30
aS'variable_11'
p2565
aS'->'
p2566
aS'variable_18'
p2567
aS'&&'
p2568
aS'variable_3'
p2569
ag30
aS'variable_6'
p2570
ag20
aS'variable_13'
p2571
aS'++'
p2572
ag13
aS'func_10'
p2573
ag6
aS'variable_11'
p2574
aS'->'
p2575
aS'variable_15'
p2576
ag10
aS'variable_3'
p2577
ag10
aS'func_11'
p2578
ag6
aS'variable_11'
p2579
aS'->'
p2580
aS'variable_12'
p2581
ag10
aS'variable_6'
p2582
ag906
aS'variable_3'
p2583
ag13
ag10
aS'variable_13'
p2584
ag13
ag20
aS'for'
p2585
ag6
aS'variable_13'
p2586
ag16
ag31
ag20
aS'variable_13'
p2587
ag30
aS'variable_11'
p2588
aS'->'
p2589
aS'variable_18'
p2590
aS'&&'
p2591
aS'variable_3'
p2592
ag30
aS'variable_6'
p2593
ag20
aS'variable_13'
p2594
aS'++'
p2595
ag13
aS'func_12'
p2596
ag6
ag6
aS'uint32_t'
p2597
ag8
ag13
aS'variable_10'
p2598
ag10
aS'variable_3'
p2599
ag10
aS'func_13'
p2600
ag6
aS'variable_11'
p2601
aS'->'
p2602
aS'variable_12'
p2603
ag10
aS'variable_6'
p2604
ag906
aS'variable_3'
p2605
ag13
ag10
aS'variable_13'
p2606
ag13
ag20
aS'for'
p2607
ag6
aS'variable_7'
p2608
ag16
ag31
ag20
aS'variable_7'
p2609
ag30
aS'variable_8'
p2610
aS'->'
p2611
aS'variable_9'
p2612
aS'&&'
p2613
aS'variable_6'
p2614
ag885
aS'variable_3'
p2615
ag20
aS'variable_7'
p2616
aS'++'
p2617
ag13
aS'memcpy'
p2618
ag6
aS'variable_10'
p2619
ag10
aS'variable_3'
p2620
ag10
aS'func_14'
p2621
ag6
aS'variable_8'
p2622
aS'->'
p2623
aS'variable_19'
p2624
ag10
aS'variable_6'
p2625
ag906
aS'variable_3'
p2626
ag13
ag13
ag20
aS'for'
p2627
ag6
aS'variable_7'
p2628
ag16
ag31
ag20
aS'variable_7'
p2629
ag30
aS'variable_8'
p2630
aS'->'
p2631
aS'variable_9'
p2632
aS'&&'
p2633
aS'variable_6'
p2634
ag885
aS'variable_3'
p2635
ag20
aS'variable_7'
p2636
aS'++'
p2637
ag13
aS'memcpy'
p2638
ag6
aS'variable_11'
p2639
aS'->'
p2640
aS'variable_15'
p2641
ag10
aS'variable_3'
p2642
ag10
aS'func_15'
p2643
ag6
aS'variable_8'
p2644
aS'->'
p2645
aS'variable_19'
p2646
ag10
aS'variable_6'
p2647
ag906
aS'variable_3'
p2648
ag13
ag13
ag20
aS'func_16'
p2649
ag6
ag6
aS'uint32_t'
p2650
ag8
ag13
aS'variable_10'
p2651
ag10
aS'variable_11'
p2652
aS'->'
p2653
aS'variable_15'
p2654
ag10
aS'variable_11'
p2655
aS'->'
p2656
aS'variable_20'
p2657
ag10
aS'variable_11'
p2658
aS'->'
p2659
aS'variable_12'
p2660
ag13
ag20
aS'variable_3'
p2661
aS'+='
p2662
aS'func_17'
p2663
ag6
aS'variable_11'
p2664
aS'->'
p2665
aS'variable_21'
p2666
ag10
aS'variable_11'
p2667
aS'->'
p2668
aS'variable_12'
p2669
ag10
aS'variable_3'
p2670
ag10
aS'variable_6'
p2671
ag13
ag20
aS'variable_3'
p2672
aS'+='
p2673
aS'func_18'
p2674
ag6
aS'variable_11'
p2675
aS'->'
p2676
aS'variable_21'
p2677
ag10
aS'variable_11'
p2678
aS'->'
p2679
aS'variable_12'
p2680
ag10
aS'variable_3'
p2681
ag10
aS'variable_6'
p2682
ag13
ag20
aS'variable_3'
p2683
aS'+='
p2684
aS'func_19'
p2685
ag6
aS'variable_11'
p2686
aS'->'
p2687
aS'variable_21'
p2688
ag10
aS'variable_11'
p2689
aS'->'
p2690
aS'variable_12'
p2691
ag10
aS'variable_3'
p2692
ag10
aS'variable_6'
p2693
ag13
ag20
aS'variable_3'
p2694
aS'+='
p2695
aS'func_20'
p2696
ag6
aS'variable_11'
p2697
aS'->'
p2698
aS'variable_21'
p2699
ag10
aS'variable_11'
p2700
aS'->'
p2701
aS'variable_12'
p2702
ag10
aS'variable_3'
p2703
ag10
aS'variable_6'
p2704
ag13
ag20
aS'variable_3'
p2705
aS'+='
p2706
aS'func_21'
p2707
ag6
aS'variable_10'
p2708
ag10
aS'variable_8'
p2709
aS'->'
p2710
aS'variable_19'
p2711
ag10
aS'variable_3'
p2712
ag10
aS'variable_6'
p2713
ag13
ag20
aS'variable_3'
p2714
aS'+='
p2715
aS'func_22'
p2716
ag6
aS'variable_11'
p2717
aS'->'
p2718
aS'variable_15'
p2719
ag10
aS'variable_8'
p2720
aS'->'
p2721
aS'variable_19'
p2722
ag10
aS'variable_3'
p2723
ag10
aS'variable_6'
p2724
ag13
ag20
aa(lp2725
S'static'
p2726
aS'int'
p2727
aS'func_0'
p2728
ag6
aS'void'
p2729
ag8
aS'variable_0'
p2730
ag10
aS'variable_1'
p2731
ag8
aS'variable_2'
p2732
ag13
aS'const'
p2733
aS'int'
p2734
aS'variable_3'
p2735
ag16
aS'variable_2'
p2736
aS'->'
p2737
aS'variable_4'
p2738
ag885
ag16
ag439
ag886
aS'variable_2'
p2739
aS'->'
p2740
aS'variable_4'
p2741
ag906
aS'func_1'
p2742
ag6
aS'variable_2'
p2743
aS'->'
p2744
aS'variable_0'
p2745
ag13
ag895
ag31
ag20
aS'const'
p2746
aS'uint8_t'
p2747
ag8
aS'variable_5'
p2748
ag16
aS'variable_6'
p2749
ag890
aS'variable_3'
p2750
ag20
aS'for'
p2751
ag6
aS'variable_7'
p2752
ag16
ag31
ag20
aS'variable_7'
p2753
ag30
aS'variable_8'
p2754
aS'->'
p2755
aS'variable_9'
p2756
aS'&&'
p2757
aS'variable_6'
p2758
ag30
aS'variable_5'
p2759
ag20
aS'variable_7'
p2760
aS'++'
p2761
ag13
aS'func_2'
p2762
ag6
aS'variable_10'
p2763
ag10
aS'variable_6'
p2764
ag10
aS'func_3'
p2765
ag6
aS'variable_11'
p2766
aS'->'
p2767
aS'variable_12'
p2768
ag10
aS'variable_5'
p2769
ag906
aS'variable_6'
p2770
ag13
ag10
aS'variable_13'
p2771
ag13
ag20
aS'if'
p2772
ag6
aS'variable_14'
p2773
ag885
ag16
aS'variable_5'
p2774
ag13
aS'func_4'
p2775
ag6
aS'variable_11'
p2776
aS'->'
p2777
aS'variable_15'
p2778
ag10
aS'variable_14'
p2779
ag10
aS'func_5'
p2780
ag6
aS'variable_11'
p2781
aS'->'
p2782
aS'variable_12'
p2783
ag10
aS'variable_5'
p2784
ag906
aS'variable_14'
p2785
ag13
ag10
aS'variable_13'
p2786
ag13
ag20
aS'for'
p2787
ag6
aS'variable_7'
p2788
ag16
ag31
ag20
aS'variable_7'
p2789
ag30
aS'variable_8'
p2790
aS'->'
p2791
aS'variable_9'
p2792
aS'&&'
p2793
aS'variable_6'
p2794
ag30
aS'variable_5'
p2795
ag20
aS'variable_7'
p2796
aS'++'
p2797
ag13
aS'memcpy'
p2798
ag6
aS'variable_10'
p2799
ag10
aS'variable_6'
p2800
ag10
aS'func_6'
p2801
ag6
aS'variable_16'
p2802
ag10
aS'variable_5'
p2803
ag906
aS'variable_6'
p2804
ag13
ag13
ag20
aS'variable_10'
p2805
ag74
ag1899
ag8
aS'variable_17'
p2806
ag890
ag1865
ag76
ag16
aS'variable_10'
p2807
ag74
ag1899
ag8
aS'variable_17'
p2808
ag890
ag1865
ag76
ag42
aS'0xF0'
p2809
ag1904
ag6
aS'variable_10'
p2810
ag74
ag1899
ag8
aS'variable_17'
p2811
ag890
ag1865
ag76
aS'>>'
p2812
ag1899
ag13
ag20
aS'for'
p2813
ag6
aS'variable_13'
p2814
ag16
ag31
ag20
aS'variable_13'
p2815
ag30
aS'variable_11'
p2816
aS'->'
p2817
aS'variable_18'
p2818
aS'&&'
p2819
aS'variable_6'
p2820
ag30
aS'variable_5'
p2821
ag20
aS'variable_13'
p2822
aS'++'
p2823
ag13
aS'func_7'
p2824
ag6
aS'variable_10'
p2825
ag10
aS'variable_6'
p2826
ag10
aS'func_8'
p2827
ag6
aS'variable_11'
p2828
aS'->'
p2829
aS'variable_12'
p2830
ag10
aS'variable_5'
p2831
ag906
aS'variable_6'
p2832
ag13
ag10
aS'variable_13'
p2833
ag13
ag20
aS'for'
p2834
ag6
aS'variable_13'
p2835
ag16
ag31
ag20
aS'variable_13'
p2836
ag30
aS'variable_11'
p2837
aS'->'
p2838
aS'variable_18'
p2839
aS'&&'
p2840
aS'variable_6'
p2841
ag30
aS'variable_5'
p2842
ag20
aS'variable_13'
p2843
aS'++'
p2844
ag13
aS'func_9'
p2845
ag6
aS'variable_11'
p2846
aS'->'
p2847
aS'variable_15'
p2848
ag10
aS'variable_6'
p2849
ag10
aS'func_10'
p2850
ag6
aS'variable_11'
p2851
aS'->'
p2852
aS'variable_12'
p2853
ag10
aS'variable_5'
p2854
ag906
aS'variable_6'
p2855
ag13
ag10
aS'variable_13'
p2856
ag13
ag20
aS'for'
p2857
ag6
aS'variable_13'
p2858
ag16
ag31
ag20
aS'variable_13'
p2859
ag30
aS'variable_11'
p2860
aS'->'
p2861
aS'variable_18'
p2862
aS'&&'
p2863
aS'variable_6'
p2864
ag30
aS'variable_5'
p2865
ag20
aS'variable_13'
p2866
aS'++'
p2867
ag13
aS'func_11'
p2868
ag6
ag6
aS'uint32_t'
p2869
ag8
ag13
aS'variable_10'
p2870
ag10
aS'variable_6'
p2871
ag10
aS'func_12'
p2872
ag6
aS'variable_11'
p2873
aS'->'
p2874
aS'variable_12'
p2875
ag10
aS'variable_5'
p2876
ag906
aS'variable_6'
p2877
ag13
ag10
aS'variable_13'
p2878
ag13
ag20
aS'for'
p2879
ag6
aS'variable_7'
p2880
ag16
ag31
ag20
aS'variable_7'
p2881
ag30
aS'variable_8'
p2882
aS'->'
p2883
aS'variable_9'
p2884
aS'&&'
p2885
aS'variable_5'
p2886
ag885
aS'variable_6'
p2887
ag20
aS'variable_7'
p2888
aS'++'
p2889
ag13
aS'memcpy'
p2890
ag6
aS'variable_10'
p2891
ag10
aS'variable_6'
p2892
ag10
aS'func_13'
p2893
ag6
aS'variable_8'
p2894
aS'->'
p2895
aS'variable_19'
p2896
ag10
aS'variable_5'
p2897
ag906
aS'variable_6'
p2898
ag13
ag13
ag20
aS'for'
p2899
ag6
aS'variable_7'
p2900
ag16
ag31
ag20
aS'variable_7'
p2901
ag30
aS'variable_8'
p2902
aS'->'
p2903
aS'variable_9'
p2904
aS'&&'
p2905
aS'variable_5'
p2906
ag885
aS'variable_6'
p2907
ag20
aS'variable_7'
p2908
aS'++'
p2909
ag13
aS'memcpy'
p2910
ag6
aS'variable_11'
p2911
aS'->'
p2912
aS'variable_15'
p2913
ag10
aS'variable_6'
p2914
ag10
aS'func_14'
p2915
ag6
aS'variable_8'
p2916
aS'->'
p2917
aS'variable_19'
p2918
ag10
aS'variable_5'
p2919
ag906
aS'variable_6'
p2920
ag13
ag13
ag20
aS'func_15'
p2921
ag6
ag6
aS'uint32_t'
p2922
ag8
ag13
aS'variable_10'
p2923
ag10
aS'variable_11'
p2924
aS'->'
p2925
aS'variable_15'
p2926
ag10
aS'variable_11'
p2927
aS'->'
p2928
aS'variable_20'
p2929
ag10
aS'variable_11'
p2930
aS'->'
p2931
aS'variable_12'
p2932
ag13
ag20
aS'variable_6'
p2933
aS'+='
p2934
aS'func_16'
p2935
ag6
aS'variable_11'
p2936
aS'->'
p2937
aS'variable_21'
p2938
ag10
aS'variable_11'
p2939
aS'->'
p2940
aS'variable_12'
p2941
ag10
aS'variable_6'
p2942
ag10
aS'variable_5'
p2943
ag13
ag20
aS'variable_6'
p2944
aS'+='
p2945
aS'func_17'
p2946
ag6
aS'variable_11'
p2947
aS'->'
p2948
aS'variable_21'
p2949
ag10
aS'variable_11'
p2950
aS'->'
p2951
aS'variable_12'
p2952
ag10
aS'variable_6'
p2953
ag10
aS'variable_5'
p2954
ag13
ag20
aS'variable_6'
p2955
aS'+='
p2956
aS'func_18'
p2957
ag6
aS'variable_11'
p2958
aS'->'
p2959
aS'variable_21'
p2960
ag10
aS'variable_11'
p2961
aS'->'
p2962
aS'variable_12'
p2963
ag10
aS'variable_6'
p2964
ag10
aS'variable_5'
p2965
ag13
ag20
aS'variable_6'
p2966
aS'+='
p2967
aS'func_19'
p2968
ag6
aS'variable_11'
p2969
aS'->'
p2970
aS'variable_21'
p2971
ag10
aS'variable_11'
p2972
aS'->'
p2973
aS'variable_12'
p2974
ag10
aS'variable_6'
p2975
ag10
aS'variable_5'
p2976
ag13
ag20
aS'variable_6'
p2977
aS'+='
p2978
aS'func_20'
p2979
ag6
aS'variable_10'
p2980
ag10
aS'variable_8'
p2981
aS'->'
p2982
aS'variable_19'
p2983
ag10
aS'variable_6'
p2984
ag10
aS'variable_5'
p2985
ag13
ag20
aS'variable_6'
p2986
aS'+='
p2987
aS'func_21'
p2988
ag6
aS'variable_11'
p2989
aS'->'
p2990
aS'variable_15'
p2991
ag10
aS'variable_8'
p2992
aS'->'
p2993
aS'variable_19'
p2994
ag10
aS'variable_6'
p2995
ag10
aS'variable_5'
p2996
ag13
ag20
aS'func_22'
p2997
ag6
aS'variable_11'
p2998
aS'->'
p2999
aS'variable_22'
p3000
ag72
aS'variable_0'
p3001
ag74
ag31
ag76
ag10
aS'variable_6'
p3002
ag10
aS'variable_3'
p3003
ag10
aS'variable_8'
p3004
aS'->'
p3005
aS'variable_19'
p3006
ag10
aS'variable_8'
p3007
aS'->'
p3008
aS'variable_9'
p3009
ag10
aS'variable_11'
p3010
aS'->'
p3011
aS'variable_22'
p3012
ag72
aS'variable_23'
p3013
ag74
ag31
ag76
ag13
ag20
aS'func_23'
p3014
ag6
ag42
aS'variable_24'
p3015
ag10
aS'variable_6'
p3016
ag10
aS'variable_3'
p3017
ag13
ag20
aS'func_24'
p3018
ag6
aS'variable_11'
p3019
aS'->'
p3020
aS'variable_22'
p3021
ag72
aS'variable_0'
p3022
ag74
ag31
ag76
ag10
aS'variable_6'
p3023
ag10
aS'variable_3'
p3024
ag10
aS'variable_8'
p3025
aS'->'
p3026
aS'variable_19'
p3027
ag10
aS'variable_8'
p3028
aS'->'
p3029
aS'variable_9'
p3030
ag10
aS'variable_11'
p3031
aS'->'
p3032
aS'variable_22'
p3033
ag72
aS'variable_23'
p3034
ag74
ag31
ag76
ag10
aS'variable_11'
p3035
aS'->'
p3036
aS'variable_25'
p3037
ag13
ag20
aS'return'
p3038
aS'variable_3'
p3039
ag20
aa(lp3040
S'static'
p3041
aS'int'
p3042
aS'func_0'
p3043
ag6
aS'void'
p3044
ag8
aS'variable_0'
p3045
ag10
aS'variable_1'
p3046
ag8
aS'variable_2'
p3047
ag13
aS'const'
p3048
aS'uint8_t'
p3049
ag8
aS'variable_3'
p3050
ag16
aS'variable_2'
p3051
aS'->'
p3052
aS'variable_4'
p3053
ag885
ag16
ag439
ag886
aS'variable_2'
p3054
aS'->'
p3055
aS'variable_0'
p3056
ag890
aS'func_1'
p3057
ag6
aS'variable_2'
p3058
aS'->'
p3059
aS'variable_0'
p3060
ag13
ag895
aS'NULL'
p3061
ag20
aS'const'
p3062
aS'uint8_t'
p3063
ag8
aS'variable_5'
p3064
ag16
aS'variable_3'
p3065
ag890
aS'variable_6'
p3066
ag20
aS'for'
p3067
ag6
aS'variable_7'
p3068
ag16
ag31
ag20
aS'variable_7'
p3069
ag30
aS'variable_8'
p3070
aS'->'
p3071
aS'variable_9'
p3072
aS'&&'
p3073
aS'variable_3'
p3074
ag30
aS'variable_5'
p3075
ag20
aS'variable_7'
p3076
aS'++'
p3077
ag13
aS'func_2'
p3078
ag6
aS'variable_10'
p3079
ag10
aS'variable_3'
p3080
ag10
aS'func_3'
p3081
ag6
aS'variable_11'
p3082
aS'->'
p3083
aS'variable_12'
p3084
ag10
aS'variable_5'
p3085
ag906
aS'variable_3'
p3086
ag13
ag10
aS'variable_13'
p3087
ag13
ag20
aS'variable_3'
p3088
aS'+='
p3089
aS'variable_11'
p3090
aS'->'
p3091
aS'variable_12'
p3092
ag20
aS'const'
p3093
aS'uint8_t'
p3094
ag8
aS'variable_14'
p3095
ag16
aS'variable_3'
p3096
ag890
ag6
aS'variable_13'
p3097
ag8
aS'variable_8'
p3098
aS'->'
p3099
aS'variable_9'
p3100
ag890
aS'variable_7'
p3101
ag13
ag8
aS'variable_11'
p3102
aS'->'
p3103
aS'variable_12'
p3104
ag20
aS'if'
p3105
ag6
aS'variable_14'
p3106
ag885
ag16
aS'variable_5'
p3107
ag13
aS'func_4'
p3108
ag6
aS'variable_11'
p3109
aS'->'
p3110
aS'variable_15'
p3111
ag10
aS'variable_14'
p3112
ag10
aS'func_5'
p3113
ag6
aS'variable_11'
p3114
aS'->'
p3115
aS'variable_12'
p3116
ag10
aS'variable_5'
p3117
ag906
aS'variable_14'
p3118
ag13
ag10
aS'variable_13'
p3119
ag13
ag20
aS'for'
p3120
ag6
aS'variable_7'
p3121
ag16
ag31
ag20
aS'variable_7'
p3122
ag30
aS'variable_8'
p3123
aS'->'
p3124
aS'variable_9'
p3125
aS'&&'
p3126
aS'variable_3'
p3127
ag30
aS'variable_5'
p3128
ag20
aS'variable_7'
p3129
aS'++'
p3130
ag13
aS'memcpy'
p3131
ag6
aS'variable_10'
p3132
ag10
aS'variable_3'
p3133
ag10
aS'func_6'
p3134
ag6
aS'variable_16'
p3135
ag10
aS'variable_5'
p3136
ag906
aS'variable_3'
p3137
ag13
ag13
ag20
aS'variable_3'
p3138
aS'+='
p3139
aS'variable_16'
p3140
ag20
aS'variable_10'
p3141
ag74
ag1899
ag8
aS'variable_17'
p3142
ag890
ag1865
ag76
ag16
aS'variable_10'
p3143
ag74
ag1899
ag8
aS'variable_17'
p3144
ag890
ag1865
ag76
ag42
aS'0xF0'
p3145
ag1904
ag6
aS'variable_10'
p3146
ag74
ag1899
ag8
aS'variable_17'
p3147
ag890
ag1865
ag76
aS'>>'
p3148
ag1899
ag13
ag20
aS'for'
p3149
ag6
aS'variable_13'
p3150
ag16
ag31
ag20
aS'variable_13'
p3151
ag30
aS'variable_11'
p3152
aS'->'
p3153
aS'variable_18'
p3154
aS'&&'
p3155
aS'variable_3'
p3156
ag30
aS'variable_5'
p3157
ag20
aS'variable_13'
p3158
aS'++'
p3159
ag13
aS'func_7'
p3160
ag6
aS'variable_10'
p3161
ag10
aS'variable_3'
p3162
ag10
aS'func_8'
p3163
ag6
aS'variable_11'
p3164
aS'->'
p3165
aS'variable_12'
p3166
ag10
aS'variable_5'
p3167
ag906
aS'variable_3'
p3168
ag13
ag10
aS'variable_13'
p3169
ag13
ag20
aS'variable_3'
p3170
aS'+='
p3171
aS'variable_11'
p3172
aS'->'
p3173
aS'variable_12'
p3174
ag20
aS'for'
p3175
ag6
aS'variable_13'
p3176
ag16
ag31
ag20
aS'variable_13'
p3177
ag30
aS'variable_11'
p3178
aS'->'
p3179
aS'variable_18'
p3180
aS'&&'
p3181
aS'variable_3'
p3182
ag30
aS'variable_5'
p3183
ag20
aS'variable_13'
p3184
aS'++'
p3185
ag13
aS'func_9'
p3186
ag6
aS'variable_11'
p3187
aS'->'
p3188
aS'variable_15'
p3189
ag10
aS'variable_3'
p3190
ag10
aS'func_10'
p3191
ag6
aS'variable_11'
p3192
aS'->'
p3193
aS'variable_12'
p3194
ag10
aS'variable_5'
p3195
ag906
aS'variable_3'
p3196
ag13
ag10
aS'variable_13'
p3197
ag13
ag20
aS'variable_3'
p3198
aS'+='
p3199
aS'variable_11'
p3200
aS'->'
p3201
aS'variable_12'
p3202
ag20
aS'for'
p3203
ag6
aS'variable_13'
p3204
ag16
ag31
ag20
aS'variable_13'
p3205
ag30
aS'variable_11'
p3206
aS'->'
p3207
aS'variable_18'
p3208
aS'&&'
p3209
aS'variable_3'
p3210
ag30
aS'variable_5'
p3211
ag20
aS'variable_13'
p3212
aS'++'
p3213
ag13
aS'func_11'
p3214
ag6
ag6
aS'uint32_t'
p3215
ag8
ag13
aS'variable_10'
p3216
ag10
aS'variable_3'
p3217
ag10
aS'func_12'
p3218
ag6
aS'variable_11'
p3219
aS'->'
p3220
aS'variable_12'
p3221
ag10
aS'variable_5'
p3222
ag906
aS'variable_3'
p3223
ag13
ag10
aS'variable_13'
p3224
ag13
ag20
aS'variable_3'
p3225
aS'+='
p3226
aS'variable_11'
p3227
aS'->'
p3228
aS'variable_12'
p3229
ag20
aS'for'
p3230
ag6
aS'variable_7'
p3231
ag16
ag31
ag20
aS'variable_7'
p3232
ag30
aS'variable_8'
p3233
aS'->'
p3234
aS'variable_9'
p3235
aS'&&'
p3236
aS'variable_5'
p3237
ag885
aS'variable_3'
p3238
ag20
aS'variable_7'
p3239
aS'++'
p3240
ag13
aS'memcpy'
p3241
ag6
aS'variable_10'
p3242
ag10
aS'variable_3'
p3243
ag10
aS'func_13'
p3244
ag6
aS'variable_8'
p3245
aS'->'
p3246
aS'variable_19'
p3247
ag10
aS'variable_5'
p3248
ag906
aS'variable_3'
p3249
ag13
ag13
ag20
aS'variable_3'
p3250
aS'+='
p3251
aS'variable_8'
p3252
aS'->'
p3253
aS'variable_19'
p3254
ag890
ag6
aS'variable_8'
p3255
aS'->'
p3256
aS'variable_19'
p3257
ag1266
ag439
ag13
ag20
aS'for'
p3258
ag6
aS'variable_7'
p3259
ag16
ag31
ag20
aS'variable_7'
p3260
ag30
aS'variable_8'
p3261
aS'->'
p3262
aS'variable_9'
p3263
aS'&&'
p3264
aS'variable_5'
p3265
ag885
aS'variable_3'
p3266
ag20
aS'variable_7'
p3267
aS'++'
p3268
ag13
aS'memcpy'
p3269
ag6
aS'variable_11'
p3270
aS'->'
p3271
aS'variable_15'
p3272
ag10
aS'variable_3'
p3273
ag10
aS'func_14'
p3274
ag6
aS'variable_8'
p3275
aS'->'
p3276
aS'variable_19'
p3277
ag10
aS'variable_5'
p3278
ag906
aS'variable_3'
p3279
ag13
ag13
ag20
aS'variable_3'
p3280
aS'+='
p3281
aS'variable_8'
p3282
aS'->'
p3283
aS'variable_19'
p3284
ag890
ag6
aS'variable_8'
p3285
aS'->'
p3286
aS'variable_19'
p3287
ag42
ag75
ag13
ag20
aS'func_15'
p3288
ag6
ag6
aS'uint32_t'
p3289
ag8
ag13
aS'variable_10'
p3290
ag10
aS'variable_11'
p3291
aS'->'
p3292
aS'variable_15'
p3293
ag10
aS'variable_11'
p3294
aS'->'
p3295
aS'variable_20'
p3296
ag10
aS'variable_11'
p3297
aS'->'
p3298
aS'variable_12'
p3299
ag13
ag20
aS'variable_3'
p3300
aS'+='
p3301
aS'func_16'
p3302
ag6
aS'variable_11'
p3303
aS'->'
p3304
aS'variable_21'
p3305
ag10
aS'variable_11'
p3306
aS'->'
p3307
aS'variable_12'
p3308
ag10
aS'variable_3'
p3309
ag10
aS'variable_5'
p3310
ag13
ag20
aS'variable_3'
p3311
aS'+='
p3312
aS'func_17'
p3313
ag6
aS'variable_11'
p3314
aS'->'
p3315
aS'variable_21'
p3316
ag10
aS'variable_11'
p3317
aS'->'
p3318
aS'variable_12'
p3319
ag10
aS'variable_3'
p3320
ag10
aS'variable_5'
p3321
ag13
ag20
aS'variable_3'
p3322
aS'+='
p3323
aS'func_18'
p3324
ag6
aS'variable_11'
p3325
aS'->'
p3326
aS'variable_21'
p3327
ag10
aS'variable_11'
p3328
aS'->'
p3329
aS'variable_12'
p3330
ag10
aS'variable_3'
p3331
ag10
aS'variable_5'
p3332
ag13
ag20
aS'variable_3'
p3333
aS'+='
p3334
aS'func_19'
p3335
ag6
aS'variable_11'
p3336
aS'->'
p3337
aS'variable_21'
p3338
ag10
aS'variable_11'
p3339
aS'->'
p3340
aS'variable_12'
p3341
ag10
aS'variable_3'
p3342
ag10
aS'variable_5'
p3343
ag13
ag20
aS'variable_3'
p3344
aS'+='
p3345
aS'func_20'
p3346
ag6
aS'variable_10'
p3347
ag10
aS'variable_8'
p3348
aS'->'
p3349
aS'variable_19'
p3350
ag10
aS'variable_3'
p3351
ag10
aS'variable_5'
p3352
ag13
ag20
aS'variable_3'
p3353
aS'+='
p3354
aS'func_21'
p3355
ag6
aS'variable_11'
p3356
aS'->'
p3357
aS'variable_15'
p3358
ag10
aS'variable_8'
p3359
aS'->'
p3360
aS'variable_19'
p3361
ag10
aS'variable_3'
p3362
ag10
aS'variable_5'
p3363
ag13
ag20
aS'func_22'
p3364
ag6
aS'variable_11'
p3365
aS'->'
p3366
aS'variable_22'
p3367
ag72
aS'variable_0'
p3368
ag74
ag31
ag76
ag10
aS'variable_3'
p3369
ag10
aS'variable_6'
p3370
ag10
aS'variable_8'
p3371
aS'->'
p3372
aS'variable_19'
p3373
ag10
aS'variable_8'
p3374
aS'->'
p3375
aS'variable_9'
p3376
ag10
aS'variable_11'
p3377
aS'->'
p3378
aS'variable_22'
p3379
ag72
aS'variable_23'
p3380
ag74
ag31
ag76
ag13
ag20
aS'func_23'
p3381
ag6
ag42
aS'variable_24'
p3382
ag10
aS'variable_3'
p3383
ag10
aS'variable_6'
p3384
ag13
ag20
aS'func_24'
p3385
ag6
aS'variable_11'
p3386
aS'->'
p3387
aS'variable_22'
p3388
ag72
aS'variable_0'
p3389
ag74
ag31
ag76
ag10
aS'variable_3'
p3390
ag10
aS'variable_6'
p3391
ag10
aS'variable_8'
p3392
aS'->'
p3393
aS'variable_19'
p3394
ag10
aS'variable_8'
p3395
aS'->'
p3396
aS'variable_9'
p3397
ag10
aS'variable_11'
p3398
aS'->'
p3399
aS'variable_22'
p3400
ag72
aS'variable_23'
p3401
ag74
ag31
ag76
ag10
aS'variable_11'
p3402
aS'->'
p3403
aS'variable_25'
p3404
ag13
ag20
aaa(lp3405
I0
aI0
aI0
aI0
aI0
aI0
aI0
aI0
aI0
aI0
aI0
aI0
aI0
aI0
aI0
aI0
aI0
aI0
aa(lp3406
I278
aI272
aI262
aI262
aI256
aI248
aI388
aI382
aI304
aI304
aI298
aI347
aI335
aI281
aI350
aI67
aI34
aI35
aa(lp3407
(lp3408
S'main'
p3409
aa(lp3410
g3409
aa(lp3411
g3409
aa(lp3412
g3409
aa(lp3413
g3409
aa(lp3414
g3409
aa(lp3415
g3409
aa(lp3416
g3409
aa(lp3417
g3409
aa(lp3418
g3409
aa(lp3419
g3409
aa(lp3420
g3409
aa(lp3421
g3409
aa(lp3422
g3409
aa(lp3423
g3409
aa(lp3424
g3409
aa(lp3425
g3409
aa(lp3426
g3409
aaa(lp3427
S'898 /home/SySeVR/data/CVE_2014_5272_PATCHED_decode_frame.c uint8_t * row = & s -> frame . data [ 0 ] [ y * s -> frame . linesize [ 0 ] ] ; 168'
p3428
aS'899 /home/SySeVR/data/CVE_2014_5272_PATCHED_decode_frame.c uint8_t * row = & s -> frame . data [ 0 ] [ y * s -> frame . linesize [ 0 ] ] ; 163'
p3429
aS'900 /home/SySeVR/data/CVE_2014_5272_PATCHED_decode_frame.c uint8_t * row = & s -> frame . data [ 0 ] [ y * s -> frame . linesize [ 0 ] ] ; 152'
p3430
aS'901 /home/SySeVR/data/CVE_2014_5272_PATCHED_decode_frame.c uint8_t * row = & s -> frame . data [ 0 ] [ y * s -> frame . linesize [ 0 ] ] ; 142'
p3431
aS'902 /home/SySeVR/data/CVE_2014_5272_PATCHED_decode_frame.c uint8_t * row = & s -> frame . data [ 0 ] [ y * s -> frame . linesize [ 0 ] ] ; 132'
p3432
aS'903 /home/SySeVR/data/CVE_2014_5272_PATCHED_decode_frame.c uint8_t * row = & s -> frame . data [ 0 ] [ y * s -> frame . linesize [ 0 ] ] ; 123'
p3433
aS'904 /home/SySeVR/data/CVE_2014_5272_PATCHED_decode_frame.c uint8_t * row = & s -> frame . data [ 0 ] [ y * s -> frame . linesize [ 0 ] ] ; 110'
p3434
aS'905 /home/SySeVR/data/CVE_2014_5272_PATCHED_decode_frame.c uint8_t * row = & s -> frame . data [ 0 ] [ y * s -> frame . linesize [ 0 ] ] ; 104'
p3435
aS'906 /home/SySeVR/data/CVE_2014_5272_PATCHED_decode_frame.c uint8_t * row = & s -> frame . data [ 0 ] [ y * s -> frame . linesize [ 0 ] ] ; 93'
p3436
aS'907 /home/SySeVR/data/CVE_2014_5272_PATCHED_decode_frame.c uint8_t * row = & s -> frame . data [ 0 ] [ y * s -> frame . linesize [ 0 ] ] ; 83'
p3437
aS'908 /home/SySeVR/data/CVE_2014_5272_PATCHED_decode_frame.c uint8_t * row = & s -> frame . data [ 0 ] [ y * s -> frame . linesize [ 0 ] ] ; 74'
p3438
aS'909 /home/SySeVR/data/CVE_2014_5272_PATCHED_decode_frame.c uint8_t * row = & s -> frame . data [ 0 ] [ y * s -> frame . linesize [ 0 ] ] ; 63'
p3439
aS'910 /home/SySeVR/data/CVE_2014_5272_PATCHED_decode_frame.c const uint8_t * start = buf + ( plane * avctx -> height + y ) * s -> planesize ; 49'
p3440
aS'911 /home/SySeVR/data/CVE_2014_5272_PATCHED_decode_frame.c uint8_t * row = & s -> frame . data [ 0 ] [ y * s -> frame . linesize [ 0 ] ] ; 46'
p3441
aS'912 /home/SySeVR/data/CVE_2014_5272_PATCHED_decode_frame.c uint8_t * row = & s -> frame . data [ 0 ] [ y * s -> frame . linesize [ 0 ] ] ; 38'
p3442
aS'913 /home/SySeVR/data/CVE_2014_5272_PATCHED_decode_frame.c const uint8_t * buf_end = buf + buf_size ; 8'
p3443
aS'914 /home/SySeVR/data/CVE_2014_5272_PATCHED_decode_frame.c const int buf_size = avpkt -> size >= 2 ? avpkt -> size - AV_RB16 ( avpkt -> data ) : 0 ; 7'
p3444
aS'915 /home/SySeVR/data/CVE_2014_5272_PATCHED_decode_frame.c const uint8_t * buf = avpkt -> size >= 2 ? avpkt -> data + AV_RB16 ( avpkt -> data ) : NULL ; 6'
p3445
aa.