(lp0
(lp1
(lp2
S'int'
p3
aS'func_0'
p4
aS'('
p5
aS'const'
p6
aS'char'
p7
aS'*'
p8
aS'variable_0'
p9
aS','
p10
aS'struct'
p11
aS'variable_1'
p12
ag8
aS'variable_2'
p13
ag10
aS'int'
p14
aS'variable_3'
p15
ag10
aS'int'
p16
aS'variable_4'
p17
aS')'
p18
aS'int'
p19
aS'variable_5'
p20
aS';'
p21
aS'char'
p22
ag8
aS'variable_6'
p23
ag10
aS'variable_7'
p24
aS'['
p25
aS'512'
p26
aS']'
p27
ag10
aS'variable_8'
p28
ag25
aS'512'
p29
ag27
ag21
aS'struct'
p30
aS'variable_9'
p31
ag8
aS'variable_10'
p32
aS'='
p33
aS'func_1'
p34
ag5
aS'16'
p35
ag18
ag21
aS'if'
p36
ag5
aS'func_2'
p37
ag5
aS'variable_0'
p38
ag18
aS'||'
p39
aS'!'
p40
aS'variable_2'
p41
aS'||'
p42
ag40
aS'variable_10'
p43
ag18
aS'variable_6'
p44
ag33
aS'func_3'
p45
ag5
aS'func_4'
p46
ag5
aS'variable_10'
p47
ag18
ag18
ag21
aS'if'
p48
ag5
aS'func_5'
p49
ag5
aS'variable_6'
p50
ag10
aS'"'
p51
aS'Digest'
p52
ag51
ag10
aS'strlen'
p53
ag5
ag51
aS'Digest'
p54
ag51
ag18
ag18
ag18
aS'variable_6'
p55
aS'+='
p56
aS'strlen'
p57
ag5
ag51
aS'Digest'
p58
ag51
ag18
ag21
aS'while'
p59
ag5
ag8
aS'variable_6'
p60
aS'&&'
p61
ag8
ag5
aS'variable_6'
p62
ag33
aS'func_6'
p63
ag5
aS'variable_6'
p64
ag18
ag18
ag18
aS'variable_5'
p65
ag33
aS'0'
p66
ag21
aS'while'
p67
ag5
ag8
aS'variable_6'
p68
aS'&&'
p69
ag8
aS'variable_6'
p70
aS'!='
p71
aS"'"
p72
ag33
ag72
aS'&&'
p73
ag8
aS'variable_6'
p74
aS'!='
p75
ag72
ag10
ag72
aS'&&'
p76
ag40
aS'isspace'
p77
ag5
ag8
aS'variable_6'
p78
ag18
ag18
aS'variable_7'
p79
ag25
aS'variable_5'
p80
aS'++'
p81
ag27
ag33
ag8
aS'variable_6'
p82
aS'++'
p83
ag21
aS'variable_7'
p84
ag25
aS'variable_5'
p85
ag27
ag33
ag72
aS'\\'
p86
ag66
ag72
ag21
aS'variable_6'
p87
ag33
aS'func_7'
p88
ag5
aS'variable_6'
p89
ag18
ag21
aS'if'
p90
ag5
ag8
aS'variable_6'
p91
aS'=='
p92
ag72
ag33
ag72
ag18
aS'variable_6'
p93
ag33
aS'func_8'
p94
ag5
aS'++'
p95
aS'variable_6'
p96
ag18
ag21
aS'variable_5'
p97
ag33
ag66
ag21
aS'if'
p98
ag5
ag8
aS'variable_6'
p99
aS'=='
p100
ag72
ag86
ag51
ag72
ag18
aS'variable_6'
p101
aS'++'
p102
ag21
aS'while'
p103
ag5
ag8
aS'variable_6'
p104
aS'&&'
p105
ag8
aS'variable_6'
p106
aS'!='
p107
ag72
ag86
ag51
ag72
ag18
aS'if'
p108
ag5
ag8
aS'variable_6'
p109
aS'=='
p110
ag72
ag86
ag86
ag72
aS'&&'
p111
aS'variable_6'
p112
ag25
aS'1'
p113
ag27
aS'!='
p114
ag72
ag86
ag66
ag72
ag18
aS'variable_6'
p115
aS'++'
p116
ag21
aS'variable_8'
p117
ag25
aS'variable_5'
p118
aS'++'
p119
ag27
ag33
ag8
aS'variable_6'
p120
aS'++'
p121
ag21
aS'while'
p122
ag5
ag8
aS'variable_6'
p123
aS'&&'
p124
ag8
aS'variable_6'
p125
aS'!='
p126
ag72
ag10
ag72
aS'&&'
p127
ag40
aS'isspace'
p128
ag5
ag8
aS'variable_6'
p129
ag18
ag18
aS'variable_8'
p130
ag25
aS'variable_5'
p131
aS'++'
p132
ag27
ag33
ag8
aS'variable_6'
p133
aS'++'
p134
ag21
aS'variable_8'
p135
ag25
aS'variable_5'
p136
ag27
ag33
ag72
ag86
ag66
ag72
ag21
aS'while'
p137
ag5
ag8
aS'variable_6'
p138
aS'&&'
p139
ag8
aS'variable_6'
p140
aS'!='
p141
ag72
ag10
ag72
ag18
aS'variable_6'
p142
aS'++'
p143
ag21
aS'if'
p144
ag5
ag8
aS'variable_6'
p145
ag18
aS'variable_6'
p146
aS'++'
p147
ag21
aS'if'
p148
ag5
ag40
aS'func_9'
p149
ag5
aS'variable_7'
p150
ag10
ag51
aS'username'
p151
ag51
ag18
ag18
aS'if'
p152
ag5
ag40
aS'func_10'
p153
ag5
aS'variable_7'
p154
ag10
ag51
aS'realm'
p155
ag51
ag18
ag18
aS'if'
p156
ag5
ag40
aS'func_11'
p157
ag5
aS'variable_7'
p158
ag10
ag51
aS'nonce'
p159
ag51
ag18
ag18
aS'if'
p160
ag5
ag40
aS'func_12'
p161
ag5
aS'variable_7'
p162
ag10
ag51
aS'uri'
p163
ag51
ag18
ag18
aS'if'
p164
ag5
ag40
aS'func_13'
p165
ag5
aS'variable_7'
p166
ag10
ag51
aS'domain'
p167
ag51
ag18
ag18
aS'if'
p168
ag5
ag40
aS'func_14'
p169
ag5
aS'variable_7'
p170
ag10
ag51
aS'response'
p171
ag51
ag18
ag18
aS'if'
p172
ag5
ag40
aS'func_15'
p173
ag5
aS'variable_7'
p174
ag10
ag51
aS'algorithm'
p175
ag51
ag18
ag18
aS'if'
p176
ag5
aS'func_16'
p177
ag5
aS'variable_8'
p178
ag10
ag51
aS'MD5'
p179
ag51
ag18
ag18
aS'if'
p180
ag5
ag40
aS'func_17'
p181
ag5
aS'variable_7'
p182
ag10
ag51
aS'cnonce'
p183
ag51
ag18
ag18
aS'if'
p184
ag5
ag40
aS'func_18'
p185
ag5
aS'variable_7'
p186
ag10
ag51
aS'opaque'
p187
ag51
ag18
ag18
aS'if'
p188
ag5
ag40
aS'func_19'
p189
ag5
aS'variable_7'
p190
ag10
ag51
aS'qop'
p191
ag51
ag18
aS'&&'
p192
ag40
aS'func_20'
p193
ag5
aS'variable_8'
p194
ag10
ag51
aS'auth'
p195
ag51
ag18
ag18
aS'if'
p196
ag5
ag40
aS'func_21'
p197
ag5
aS'variable_7'
p198
ag10
ag51
aS'nc'
p199
ag51
ag18
ag18
aS'if'
p200
ag5
aS'sscanf'
p201
ag5
aS'variable_8'
p202
ag10
ag51
aS'%'
p203
aS'30lx'
p204
ag51
ag10
aS'&'
p205
aS'variable_11'
p206
ag18
aS'!='
p207
ag113
ag18
aaa(lp208
I1
aa(lp209
I465
aa(lp210
(lp211
S'main'
p212
aaa(lp213
S'879 /home/SySeVR/data/CVE_2012_1184_VULN_ast_parse_digest.c sscanf 85'
p214
aa.