(lp0
(lp1
(lp2
S'static'
p3
aS'int'
p4
aS'func_0'
p5
aS'('
p6
aS'void'
p7
aS'*'
p8
aS'variable_0'
p9
aS','
p10
aS'const'
p11
aS'uint8_t'
p12
ag8
aS'variable_1'
p13
ag10
aS'int'
p14
aS'variable_2'
p15
aS')'
p16
aS'variable_3'
p17
ag8
aS'variable_4'
p18
aS'='
p19
aS'variable_5'
p20
aS'->'
p21
aS'variable_6'
p22
aS';'
p23
aS'int'
p24
aS'variable_7'
p25
ag19
aS'0'
p26
ag23
aS'int'
p27
aS'variable_8'
p28
ag23
aS'int'
p29
aS'variable_9'
p30
ag23
aS'unsigned'
p31
aS'char'
p32
aS'variable_10'
p33
ag23
aS'unsigned'
p34
aS'char'
p35
aS'variable_11'
p36
ag23
aS'unsigned'
p37
aS'int'
p38
aS'variable_12'
p39
ag23
aS'int'
p40
aS'variable_13'
p41
ag23
aS'unsigned'
p42
aS'int'
p43
aS'variable_14'
p44
ag23
aS'int'
p45
aS'variable_15'
p46
ag23
aS'int'
p47
aS'variable_16'
p48
ag10
aS'variable_17'
p49
ag23
aS'int'
p50
aS'variable_18'
p51
ag23
aS'int'
p52
aS'variable_19'
p53
ag23
aS'int'
p54
aS'variable_20'
p55
ag23
aS'unsigned'
p56
aS'char'
p57
aS'variable_21'
p58
ag10
aS'variable_22'
p59
ag10
aS'variable_23'
p60
ag23
aS'int'
p61
aS'variable_24'
p62
ag23
aS'int'
p63
aS'variable_25'
p64
ag23
aS'int'
p65
aS'variable_26'
p66
ag23
aS'signed'
p67
aS'short'
p68
aS'variable_27'
p69
ag23
aS'int'
p70
aS'variable_28'
p71
ag23
aS'int'
p72
aS'variable_29'
p73
ag23
aS'int'
p74
aS'variable_30'
p75
ag23
aS'int'
p76
aS'variable_31'
p77
ag23
aS'variable_4'
p78
aS'->'
p79
aS'variable_32'
p80
aS'.'
p81
aS'variable_33'
p82
ag19
aS'1'
p83
ag23
aS'variable_4'
p84
aS'->'
p85
aS'variable_32'
p86
ag81
aS'variable_34'
p87
ag19
aS'variable_35'
p88
aS'|'
p89
aS'variable_36'
p90
ag89
aS'variable_37'
p91
ag23
aS'if'
p92
ag6
aS'variable_5'
p93
aS'->'
p94
aS'func_1'
p95
ag6
aS'variable_5'
p96
ag10
aS'&'
p97
aS'variable_4'
p98
aS'->'
p99
aS'variable_32'
p100
ag16
aS'<'
p101
ag26
ag16
aS'variable_12'
p102
ag19
aS'func_2'
p103
ag6
ag97
aS'variable_1'
p104
aS'['
p105
aS'variable_7'
p106
aS']'
p107
ag16
ag23
aS'variable_7'
p108
aS'+='
p109
aS'6'
p110
ag23
aS'variable_13'
p111
ag19
aS'func_3'
p112
ag6
ag97
aS'variable_1'
p113
ag105
aS'variable_7'
p114
ag107
ag16
ag23
aS'variable_7'
p115
aS'+='
p116
aS'10'
p117
ag23
aS'variable_12'
p118
aS'-='
p119
aS'16'
p120
ag23
aS'while'
p121
ag6
ag6
aS'variable_12'
p122
aS'>'
p123
ag26
ag16
aS'&&'
p124
ag6
aS'variable_13'
p125
ag123
ag26
ag16
ag16
aS'variable_14'
p126
ag19
aS'func_4'
p127
ag6
ag97
aS'variable_1'
p128
ag105
aS'variable_7'
p129
ag107
ag16
ag23
aS'variable_7'
p130
aS'+='
p131
aS'4'
p132
ag23
aS'variable_15'
p133
ag19
aS'func_5'
p134
ag6
ag97
aS'variable_1'
p135
ag105
aS'variable_7'
p136
ag107
ag16
ag23
aS'variable_7'
p137
aS'+='
p138
aS'2'
p139
ag23
aS'switch'
p140
ag6
aS'variable_15'
p141
ag16
aS'variable_8'
p142
ag19
aS'variable_7'
p143
aS'+'
p144
aS'variable_14'
p145
aS'-'
p146
ag110
ag23
aS'if'
p147
ag6
ag6
aS'variable_15'
p148
aS'=='
p149
aS'variable_38'
p150
ag16
aS'&&'
p151
ag6
aS'variable_4'
p152
aS'->'
p153
aS'variable_39'
p154
aS'!='
p155
aS'variable_40'
p156
ag16
ag16
aS'variable_20'
p157
ag19
ag26
ag23
aS'variable_20'
p158
ag19
ag139
ag23
aS'variable_18'
p159
ag19
aS'func_6'
p160
ag6
ag97
aS'variable_1'
p161
ag105
aS'variable_7'
p162
ag107
ag16
ag23
aS'variable_7'
p163
aS'+='
p164
ag139
ag23
aS'variable_9'
p165
ag19
ag26
ag23
aS'for'
p166
ag6
aS'variable_16'
p167
ag19
ag26
ag23
aS'variable_16'
p168
ag101
aS'variable_18'
p169
ag23
aS'variable_16'
p170
aS'++'
p171
ag16
aS'variable_9'
p172
aS'+='
p173
aS'variable_1'
p174
ag105
aS'variable_7'
p175
aS'++'
p176
ag107
ag23
aS'variable_19'
p177
ag19
aS'variable_1'
p178
ag105
aS'variable_7'
p179
aS'++'
p180
ag107
ag23
aS'if'
p181
ag6
aS'variable_19'
p182
aS'=='
p183
ag26
ag16
aS'variable_19'
p184
ag19
aS'256'
p185
ag23
aS'for'
p186
ag6
aS'variable_17'
p187
ag19
ag26
ag23
aS'variable_17'
p188
ag101
aS'variable_19'
p189
ag23
aS'variable_17'
p190
aS'++'
p191
ag16
aS'unsigned'
p192
aS'int'
p193
aS'variable_41'
p194
ag23
aS'if'
p195
ag6
ag6
aS'unsigned'
p196
ag16
aS'variable_9'
p197
ag123
ag19
aS'256'
p198
ag16
aS'variable_9'
p199
ag19
ag26
ag23
aS'variable_21'
p200
ag19
aS'variable_1'
p201
ag105
aS'variable_7'
p202
aS'++'
p203
ag107
aS'<<'
p204
aS'variable_20'
p205
ag23
aS'variable_22'
p206
ag19
aS'variable_1'
p207
ag105
aS'variable_7'
p208
aS'++'
p209
ag107
aS'<<'
p210
aS'variable_20'
p211
ag23
aS'variable_23'
p212
ag19
aS'variable_1'
p213
ag105
aS'variable_7'
p214
aS'++'
p215
ag107
aS'<<'
p216
aS'variable_20'
p217
ag23
aS'variable_41'
p218
ag19
ag6
aS'variable_21'
p219
aS'<<'
p220
aS'16'
p221
ag16
ag89
ag6
aS'variable_22'
p222
aS'<<'
p223
aS'8'
p224
ag16
ag89
aS'variable_23'
p225
ag23
aS'if'
p226
ag6
aS'variable_4'
p227
aS'->'
p228
aS'variable_42'
p229
ag105
aS'variable_9'
p230
ag107
aS'!='
p231
aS'variable_41'
p232
ag16
aS'variable_4'
p233
aS'->'
p234
aS'variable_43'
p235
ag19
ag83
ag23
aS'variable_4'
p236
aS'->'
p237
aS'variable_42'
p238
ag105
aS'variable_9'
p239
aS'++'
p240
ag107
ag19
aS'variable_41'
p241
ag23
aS'variable_7'
p242
ag19
aS'variable_8'
p243
ag23
aS'variable_28'
p244
ag19
ag26
ag23
aS'variable_25'
p245
ag19
aS'func_7'
p246
ag6
ag97
aS'variable_1'
p247
ag105
aS'variable_7'
p248
ag107
ag16
ag23
aS'variable_7'
p249
aS'+='
p250
ag139
ag23
aS'while'
p251
ag6
aS'variable_25'
p252
ag123
ag26
ag16
aS'variable_27'
p253
ag19
aS'func_8'
p254
ag6
ag97
aS'variable_1'
p255
ag105
aS'variable_7'
p256
ag107
ag16
ag23
aS'variable_7'
p257
aS'+='
p258
ag139
ag23
aS'if'
p259
ag6
ag6
aS'variable_27'
p260
ag97
aS'0xC000'
p261
ag16
aS'=='
p262
aS'0xC000'
p263
ag16
aS'variable_27'
p264
ag19
ag146
aS'variable_27'
p265
ag23
aS'variable_28'
p266
aS'+='
p267
aS'variable_27'
p268
ag8
aS'variable_4'
p269
aS'->'
p270
aS'variable_32'
p271
ag81
aS'variable_44'
p272
ag105
ag26
ag107
ag23
aS'if'
p273
ag6
ag6
aS'variable_27'
p274
ag97
aS'0xC000'
p275
ag16
aS'=='
p276
aS'0x4000'
p277
ag16
aS'if'
p278
ag6
ag6
aS'variable_27'
p279
ag97
aS'0xC000'
p280
ag16
aS'=='
p281
aS'0x8000'
p282
ag16
aS'variable_25'
p283
aS'--'
p284
ag23
aS'variable_31'
p285
ag19
aS'variable_4'
p286
aS'->'
p287
aS'variable_5'
p288
aS'->'
p289
aS'variable_45'
p290
ag23
aS'for'
p291
ag6
aS'variable_16'
p292
ag19
ag26
ag23
aS'variable_16'
p293
ag101
aS'variable_27'
p294
ag23
aS'variable_16'
p295
aS'++'
p296
ag16
aS'variable_30'
p297
ag19
aS'variable_1'
p298
ag105
aS'variable_7'
p299
aS'++'
p300
ag107
ag23
aS'variable_31'
p301
aS'-='
p302
aS'variable_30'
p303
ag23
aS'variable_29'
p304
ag19
ag6
aS'signed'
p305
aS'char'
p306
ag16
ag6
aS'variable_1'
p307
ag105
aS'variable_7'
p308
aS'++'
p309
ag107
ag16
ag23
aS'if'
p310
ag6
aS'variable_29'
p311
ag101
ag26
ag16
aS'variable_29'
p312
ag19
ag146
aS'variable_29'
p313
ag23
aS'variable_10'
p314
ag19
aS'variable_1'
p315
ag105
aS'variable_7'
p316
aS'++'
p317
ag107
ag23
aS'variable_11'
p318
ag19
aS'variable_1'
p319
ag105
aS'variable_7'
p320
aS'++'
p321
ag107
ag23
aS'for'
p322
ag6
aS'variable_17'
p323
ag19
ag26
ag23
aS'variable_17'
p324
ag101
aS'variable_29'
p325
ag23
aS'variable_17'
p326
aS'++'
p327
ag10
aS'variable_31'
p328
aS'-='
p329
ag139
ag16
aS'for'
p330
ag6
aS'variable_17'
p331
ag19
ag26
ag23
aS'variable_17'
p332
ag101
aS'variable_29'
p333
ag8
ag139
ag23
aS'variable_17'
p334
aS'++'
p335
ag10
aS'variable_31'
p336
aS'--'
p337
ag16
aS'variable_10'
p338
ag19
aS'variable_1'
p339
ag105
aS'variable_7'
p340
aS'++'
p341
ag107
ag23
aS'variable_28'
p342
aS'+='
p343
aS'variable_4'
p344
aS'->'
p345
aS'variable_32'
p346
ag81
aS'variable_44'
p347
ag105
ag26
ag107
ag23
aS'variable_26'
p348
ag19
aS'func_9'
p349
ag6
ag97
aS'variable_1'
p350
ag105
aS'variable_7'
p351
ag107
ag16
ag23
aS'variable_7'
p352
aS'+='
p353
ag139
ag23
aS'variable_28'
p354
ag19
ag26
ag23
aS'variable_28'
p355
aS'+='
p356
aS'variable_26'
p357
ag8
aS'variable_4'
p358
aS'->'
p359
aS'variable_32'
p360
ag81
aS'variable_44'
p361
ag105
ag26
ag107
ag23
aS'variable_25'
p362
ag19
aS'func_10'
p363
ag6
ag97
aS'variable_1'
p364
ag105
aS'variable_7'
p365
ag107
ag16
ag23
aS'variable_7'
p366
aS'+='
p367
ag139
ag23
aS'while'
p368
ag6
aS'variable_25'
p369
ag123
ag26
ag16
aS'variable_31'
p370
ag19
aS'variable_4'
p371
aS'->'
p372
aS'variable_5'
p373
aS'->'
p374
aS'variable_45'
p375
ag23
aS'variable_27'
p376
ag19
aS'variable_1'
p377
ag105
aS'variable_7'
p378
aS'++'
p379
ag107
ag23
aS'if'
p380
ag6
aS'variable_27'
p381
ag123
ag26
ag16
aS'for'
p382
ag6
aS'variable_16'
p383
ag19
ag26
ag23
aS'variable_16'
p384
ag101
aS'variable_27'
p385
ag23
aS'variable_16'
p386
aS'++'
p387
ag16
aS'variable_30'
p388
ag19
aS'variable_1'
p389
ag105
aS'variable_7'
p390
aS'++'
p391
ag107
ag23
aS'variable_31'
p392
aS'-='
p393
aS'variable_30'
p394
ag23
aS'variable_29'
p395
ag19
ag6
aS'signed'
p396
aS'char'
p397
ag16
ag6
aS'variable_1'
p398
ag105
aS'variable_7'
p399
aS'++'
p400
ag107
ag16
ag23
aS'if'
p401
ag6
aS'variable_29'
p402
ag123
ag26
ag16
aS'for'
p403
ag6
aS'variable_17'
p404
ag19
ag26
ag23
aS'variable_17'
p405
ag101
aS'variable_29'
p406
ag23
aS'variable_17'
p407
aS'++'
p408
ag10
aS'variable_31'
p409
aS'--'
p410
ag16
aS'variable_10'
p411
ag19
aS'variable_1'
p412
ag105
aS'variable_7'
p413
aS'++'
p414
ag107
ag23
aS'if'
p415
ag6
aS'variable_29'
p416
ag101
ag26
ag16
aS'variable_29'
p417
ag19
ag146
aS'variable_29'
p418
ag23
aS'variable_10'
p419
ag19
aS'variable_1'
p420
ag105
aS'variable_7'
p421
aS'++'
p422
ag107
ag23
aS'for'
p423
ag6
aS'variable_17'
p424
ag19
ag26
ag23
aS'variable_17'
p425
ag101
aS'variable_29'
p426
ag23
aS'variable_17'
p427
aS'++'
p428
ag10
aS'variable_31'
p429
aS'--'
p430
ag16
aS'variable_28'
p431
aS'+='
p432
aS'variable_4'
p433
aS'->'
p434
aS'variable_32'
p435
ag81
aS'variable_44'
p436
ag105
ag26
ag107
ag23
aS'variable_25'
p437
aS'--'
p438
ag23
aS'variable_28'
p439
ag19
ag26
ag23
aS'for'
p440
ag6
aS'variable_24'
p441
ag19
ag26
ag23
aS'variable_24'
p442
ag101
aS'variable_4'
p443
aS'->'
p444
aS'variable_5'
p445
aS'->'
p446
aS'variable_46'
p447
ag23
aS'variable_24'
p448
aS'++'
p449
ag16
aS'variable_7'
p450
aS'++'
p451
ag23
aS'variable_31'
p452
ag19
aS'variable_4'
p453
aS'->'
p454
aS'variable_5'
p455
aS'->'
p456
aS'variable_45'
p457
ag23
aS'while'
p458
ag6
aS'variable_31'
p459
ag123
ag26
ag16
aS'variable_29'
p460
ag19
ag6
aS'signed'
p461
aS'char'
p462
ag16
ag6
aS'variable_1'
p463
ag105
aS'variable_7'
p464
aS'++'
p465
ag107
ag16
ag23
aS'if'
p466
ag6
aS'variable_29'
p467
ag123
ag26
ag16
aS'variable_10'
p468
ag19
aS'variable_1'
p469
ag105
aS'variable_7'
p470
aS'++'
p471
ag107
ag23
aS'for'
p472
ag6
aS'variable_17'
p473
ag19
ag26
ag23
aS'variable_17'
p474
ag101
aS'variable_29'
p475
ag23
aS'variable_17'
p476
aS'++'
p477
ag16
aS'variable_31'
p478
aS'--'
p479
ag23
aS'variable_29'
p480
ag19
ag146
aS'variable_29'
p481
ag23
aS'for'
p482
ag6
aS'variable_17'
p483
ag19
ag26
ag23
aS'variable_17'
p484
ag101
aS'variable_29'
p485
ag23
aS'variable_17'
p486
aS'++'
p487
ag16
aS'variable_10'
p488
ag19
aS'variable_1'
p489
ag105
aS'variable_7'
p490
aS'++'
p491
ag107
ag23
aS'variable_31'
p492
aS'--'
p493
ag23
aS'variable_28'
p494
aS'+='
p495
aS'variable_4'
p496
aS'->'
p497
aS'variable_32'
p498
ag81
aS'variable_44'
p499
ag105
ag26
ag107
ag23
aS'if'
p500
ag6
aS'variable_14'
p501
ag146
ag110
ag123
aS'variable_4'
p502
aS'->'
p503
aS'variable_5'
p504
aS'->'
p505
aS'variable_45'
p506
ag8
aS'variable_4'
p507
aS'->'
p508
aS'variable_5'
p509
aS'->'
p510
aS'variable_46'
p511
ag16
aS'variable_7'
p512
aS'+='
p513
aS'variable_14'
p514
ag146
ag110
ag23
aS'for'
p515
ag6
aS'variable_28'
p516
ag19
ag26
ag23
aS'variable_28'
p517
ag101
aS'variable_4'
p518
aS'->'
p519
aS'variable_32'
p520
ag81
aS'variable_44'
p521
ag105
ag26
ag107
ag8
aS'variable_28'
p522
aS'+='
p523
aS'variable_4'
p524
aS'->'
p525
aS'variable_32'
p526
ag81
aS'variable_44'
p527
ag105
ag26
ag107
ag16
aS'variable_7'
p528
aS'+='
p529
aS'variable_4'
p530
aS'->'
p531
aS'variable_5'
p532
aS'->'
p533
aS'variable_45'
p534
ag23
aS'variable_7'
p535
aS'+='
p536
aS'variable_14'
p537
ag146
ag110
ag23
aS'variable_12'
p538
aS'-='
p539
aS'variable_14'
p540
ag23
aS'variable_13'
p541
aS'--'
p542
ag23
aS'memcpy'
p543
ag6
aS'variable_4'
p544
aS'->'
p545
aS'variable_32'
p546
ag81
aS'variable_0'
p547
ag105
ag83
ag107
ag10
aS'variable_4'
p548
aS'->'
p549
aS'variable_42'
p550
ag10
aS'variable_47'
p551
ag16
ag23
aS'variable_4'
p552
aS'->'
p553
aS'variable_32'
p554
ag81
aS'variable_48'
p555
ag19
ag83
ag23
aS'variable_4'
p556
aS'->'
p557
aS'variable_43'
p558
ag19
ag26
ag23
ag8
ag6
aS'AVFrame'
p559
ag8
ag16
aS'variable_0'
p560
ag19
aS'variable_4'
p561
aS'->'
p562
aS'variable_32'
p563
ag23
aa(lp564
S'static'
p565
aS'int'
p566
aS'func_0'
p567
ag6
aS'void'
p568
ag8
aS'variable_0'
p569
ag10
aS'const'
p570
aS'uint8_t'
p571
ag8
aS'variable_1'
p572
ag10
aS'int'
p573
aS'variable_2'
p574
ag16
aS'variable_3'
p575
ag8
aS'variable_4'
p576
ag19
aS'variable_5'
p577
aS'->'
p578
aS'variable_6'
p579
ag23
aS'int'
p580
aS'variable_7'
p581
ag19
ag26
ag23
aS'int'
p582
aS'variable_8'
p583
ag23
aS'int'
p584
aS'variable_9'
p585
ag23
aS'int'
p586
aS'variable_10'
p587
ag23
aS'unsigned'
p588
aS'char'
p589
aS'variable_11'
p590
ag23
aS'unsigned'
p591
aS'char'
p592
aS'variable_12'
p593
ag23
aS'unsigned'
p594
aS'int'
p595
aS'variable_13'
p596
ag23
aS'int'
p597
aS'variable_14'
p598
ag23
aS'unsigned'
p599
aS'int'
p600
aS'variable_15'
p601
ag23
aS'int'
p602
aS'variable_16'
p603
ag23
aS'int'
p604
aS'variable_17'
p605
ag10
aS'variable_18'
p606
ag23
aS'int'
p607
aS'variable_19'
p608
ag23
aS'int'
p609
aS'variable_20'
p610
ag23
aS'int'
p611
aS'variable_21'
p612
ag23
aS'unsigned'
p613
aS'char'
p614
aS'variable_22'
p615
ag10
aS'variable_23'
p616
ag10
aS'variable_24'
p617
ag23
aS'int'
p618
aS'variable_25'
p619
ag23
aS'int'
p620
aS'variable_26'
p621
ag23
aS'int'
p622
aS'variable_27'
p623
ag23
aS'signed'
p624
aS'short'
p625
aS'variable_28'
p626
ag23
aS'int'
p627
aS'variable_29'
p628
ag23
aS'int'
p629
aS'variable_30'
p630
ag23
aS'int'
p631
aS'variable_31'
p632
ag23
aS'int'
p633
aS'variable_32'
p634
ag23
aS'unsigned'
p635
aS'char'
p636
ag8
aS'variable_33'
p637
ag23
aS'variable_4'
p638
aS'->'
p639
aS'variable_34'
p640
ag81
aS'variable_35'
p641
ag19
ag83
ag23
aS'variable_4'
p642
aS'->'
p643
aS'variable_34'
p644
ag81
aS'variable_36'
p645
ag19
aS'variable_37'
p646
ag89
aS'variable_38'
p647
ag89
aS'variable_39'
p648
ag23
aS'if'
p649
ag6
aS'variable_5'
p650
aS'->'
p651
aS'func_1'
p652
ag6
aS'variable_5'
p653
ag10
ag97
aS'variable_4'
p654
aS'->'
p655
aS'variable_34'
p656
ag16
ag101
ag26
ag16
aS'variable_33'
p657
ag19
aS'variable_4'
p658
aS'->'
p659
aS'variable_34'
p660
ag81
aS'variable_0'
p661
ag105
ag26
ag107
ag23
aS'variable_13'
p662
ag19
aS'func_2'
p663
ag6
ag97
aS'variable_1'
p664
ag105
aS'variable_7'
p665
ag107
ag16
ag23
aS'variable_7'
p666
aS'+='
p667
ag110
ag23
aS'variable_14'
p668
ag19
aS'func_3'
p669
ag6
ag97
aS'variable_1'
p670
ag105
aS'variable_7'
p671
ag107
ag16
ag23
aS'variable_7'
p672
aS'+='
p673
aS'10'
p674
ag23
aS'variable_13'
p675
aS'-='
p676
aS'16'
p677
ag23
aS'while'
p678
ag6
ag6
aS'variable_13'
p679
ag123
ag26
ag16
aS'&&'
p680
ag6
aS'variable_14'
p681
ag123
ag26
ag16
ag16
aS'variable_15'
p682
ag19
aS'func_4'
p683
ag6
ag97
aS'variable_1'
p684
ag105
aS'variable_7'
p685
ag107
ag16
ag23
aS'variable_7'
p686
aS'+='
p687
ag132
ag23
aS'variable_16'
p688
ag19
aS'func_5'
p689
ag6
ag97
aS'variable_1'
p690
ag105
aS'variable_7'
p691
ag107
ag16
ag23
aS'variable_7'
p692
aS'+='
p693
ag139
ag23
aS'switch'
p694
ag6
aS'variable_16'
p695
ag16
aS'variable_8'
p696
ag19
aS'variable_7'
p697
ag144
aS'variable_15'
p698
ag146
ag110
ag23
aS'if'
p699
ag6
ag6
aS'variable_16'
p700
aS'=='
p701
aS'variable_40'
p702
ag16
aS'&&'
p703
ag6
aS'variable_4'
p704
aS'->'
p705
aS'variable_41'
p706
aS'!='
p707
aS'variable_42'
p708
ag16
ag16
aS'variable_21'
p709
ag19
ag26
ag23
aS'variable_21'
p710
ag19
ag139
ag23
aS'variable_19'
p711
ag19
aS'func_6'
p712
ag6
ag97
aS'variable_1'
p713
ag105
aS'variable_7'
p714
ag107
ag16
ag23
aS'variable_7'
p715
aS'+='
p716
ag139
ag23
aS'variable_10'
p717
ag19
ag26
ag23
aS'for'
p718
ag6
aS'variable_17'
p719
ag19
ag26
ag23
aS'variable_17'
p720
ag101
aS'variable_19'
p721
ag23
aS'variable_17'
p722
aS'++'
p723
ag16
aS'variable_10'
p724
aS'+='
p725
aS'variable_1'
p726
ag105
aS'variable_7'
p727
aS'++'
p728
ag107
ag23
aS'variable_20'
p729
ag19
aS'variable_1'
p730
ag105
aS'variable_7'
p731
aS'++'
p732
ag107
ag23
aS'if'
p733
ag6
aS'variable_20'
p734
aS'=='
p735
ag26
ag16
aS'variable_20'
p736
ag19
aS'256'
p737
ag23
aS'for'
p738
ag6
aS'variable_18'
p739
ag19
ag26
ag23
aS'variable_18'
p740
ag101
aS'variable_20'
p741
ag23
aS'variable_18'
p742
aS'++'
p743
ag16
aS'unsigned'
p744
aS'int'
p745
aS'variable_43'
p746
ag23
aS'if'
p747
ag6
ag6
aS'unsigned'
p748
ag16
aS'variable_10'
p749
ag123
ag19
aS'256'
p750
ag16
aS'variable_10'
p751
ag19
ag26
ag23
aS'variable_22'
p752
ag19
aS'variable_1'
p753
ag105
aS'variable_7'
p754
aS'++'
p755
ag107
aS'<<'
p756
aS'variable_21'
p757
ag23
aS'variable_23'
p758
ag19
aS'variable_1'
p759
ag105
aS'variable_7'
p760
aS'++'
p761
ag107
aS'<<'
p762
aS'variable_21'
p763
ag23
aS'variable_24'
p764
ag19
aS'variable_1'
p765
ag105
aS'variable_7'
p766
aS'++'
p767
ag107
aS'<<'
p768
aS'variable_21'
p769
ag23
aS'variable_43'
p770
ag19
ag6
aS'variable_22'
p771
aS'<<'
p772
aS'16'
p773
ag16
ag89
ag6
aS'variable_23'
p774
aS'<<'
p775
ag224
ag16
ag89
aS'variable_24'
p776
ag23
aS'if'
p777
ag6
aS'variable_4'
p778
aS'->'
p779
aS'variable_44'
p780
ag105
aS'variable_10'
p781
ag107
aS'!='
p782
aS'variable_43'
p783
ag16
aS'variable_4'
p784
aS'->'
p785
aS'variable_45'
p786
ag19
ag83
ag23
aS'variable_4'
p787
aS'->'
p788
aS'variable_44'
p789
ag105
aS'variable_10'
p790
aS'++'
p791
ag107
ag19
aS'variable_43'
p792
ag23
aS'variable_7'
p793
ag19
aS'variable_8'
p794
ag23
aS'variable_29'
p795
ag19
ag26
ag23
aS'variable_26'
p796
ag19
aS'func_7'
p797
ag6
ag97
aS'variable_1'
p798
ag105
aS'variable_7'
p799
ag107
ag16
ag23
aS'variable_7'
p800
aS'+='
p801
ag139
ag23
aS'while'
p802
ag6
aS'variable_26'
p803
ag123
ag26
ag16
aS'variable_28'
p804
ag19
aS'func_8'
p805
ag6
ag97
aS'variable_1'
p806
ag105
aS'variable_7'
p807
ag107
ag16
ag23
aS'variable_7'
p808
aS'+='
p809
ag139
ag23
aS'if'
p810
ag6
ag6
aS'variable_28'
p811
ag97
aS'0xC000'
p812
ag16
aS'=='
p813
aS'0xC000'
p814
ag16
aS'variable_28'
p815
ag19
ag146
aS'variable_28'
p816
ag23
aS'variable_29'
p817
aS'+='
p818
aS'variable_28'
p819
ag8
aS'variable_4'
p820
aS'->'
p821
aS'variable_34'
p822
ag81
aS'variable_46'
p823
ag105
ag26
ag107
ag23
aS'if'
p824
ag6
ag6
aS'variable_28'
p825
ag97
aS'0xC000'
p826
ag16
aS'=='
p827
aS'0x4000'
p828
ag16
aS'if'
p829
ag6
ag6
aS'variable_28'
p830
ag97
aS'0xC000'
p831
ag16
aS'=='
p832
aS'0x8000'
p833
ag16
aS'variable_26'
p834
aS'--'
p835
ag23
aS'variable_9'
p836
ag19
aS'variable_29'
p837
ag23
aS'variable_32'
p838
ag19
aS'variable_4'
p839
aS'->'
p840
aS'variable_5'
p841
aS'->'
p842
aS'variable_47'
p843
ag23
aS'for'
p844
ag6
aS'variable_17'
p845
ag19
ag26
ag23
aS'variable_17'
p846
ag101
aS'variable_28'
p847
ag23
aS'variable_17'
p848
aS'++'
p849
ag16
aS'variable_31'
p850
ag19
aS'variable_1'
p851
ag105
aS'variable_7'
p852
aS'++'
p853
ag107
ag23
aS'variable_9'
p854
aS'+='
p855
aS'variable_31'
p856
ag23
aS'variable_32'
p857
aS'-='
p858
aS'variable_31'
p859
ag23
aS'variable_30'
p860
ag19
ag6
aS'signed'
p861
aS'char'
p862
ag16
ag6
aS'variable_1'
p863
ag105
aS'variable_7'
p864
aS'++'
p865
ag107
ag16
ag23
aS'if'
p866
ag6
aS'variable_30'
p867
ag101
ag26
ag16
aS'variable_30'
p868
ag19
ag146
aS'variable_30'
p869
ag23
aS'variable_11'
p870
ag19
aS'variable_1'
p871
ag105
aS'variable_7'
p872
aS'++'
p873
ag107
ag23
aS'variable_12'
p874
ag19
aS'variable_1'
p875
ag105
aS'variable_7'
p876
aS'++'
p877
ag107
ag23
aS'for'
p878
ag6
aS'variable_18'
p879
ag19
ag26
ag23
aS'variable_18'
p880
ag101
aS'variable_30'
p881
ag23
aS'variable_18'
p882
aS'++'
p883
ag10
aS'variable_32'
p884
aS'-='
p885
ag139
ag16
aS'variable_33'
p886
ag105
aS'variable_9'
p887
aS'++'
p888
ag107
ag19
aS'variable_11'
p889
ag23
aS'variable_33'
p890
ag105
aS'variable_9'
p891
aS'++'
p892
ag107
ag19
aS'variable_12'
p893
ag23
aS'for'
p894
ag6
aS'variable_18'
p895
ag19
ag26
ag23
aS'variable_18'
p896
ag101
aS'variable_30'
p897
ag8
ag139
ag23
aS'variable_18'
p898
aS'++'
p899
ag10
aS'variable_32'
p900
aS'--'
p901
ag16
aS'variable_11'
p902
ag19
aS'variable_1'
p903
ag105
aS'variable_7'
p904
aS'++'
p905
ag107
ag23
aS'variable_33'
p906
ag105
aS'variable_9'
p907
aS'++'
p908
ag107
ag19
aS'variable_11'
p909
ag23
aS'variable_29'
p910
aS'+='
p911
aS'variable_4'
p912
aS'->'
p913
aS'variable_34'
p914
ag81
aS'variable_46'
p915
ag105
ag26
ag107
ag23
aS'variable_27'
p916
ag19
aS'func_9'
p917
ag6
ag97
aS'variable_1'
p918
ag105
aS'variable_7'
p919
ag107
ag16
ag23
aS'variable_7'
p920
aS'+='
p921
ag139
ag23
aS'variable_29'
p922
ag19
ag26
ag23
aS'variable_29'
p923
aS'+='
p924
aS'variable_27'
p925
ag8
aS'variable_4'
p926
aS'->'
p927
aS'variable_34'
p928
ag81
aS'variable_46'
p929
ag105
ag26
ag107
ag23
aS'variable_26'
p930
ag19
aS'func_10'
p931
ag6
ag97
aS'variable_1'
p932
ag105
aS'variable_7'
p933
ag107
ag16
ag23
aS'variable_7'
p934
aS'+='
p935
ag139
ag23
aS'while'
p936
ag6
aS'variable_26'
p937
ag123
ag26
ag16
aS'variable_9'
p938
ag19
aS'variable_29'
p939
ag23
aS'variable_32'
p940
ag19
aS'variable_4'
p941
aS'->'
p942
aS'variable_5'
p943
aS'->'
p944
aS'variable_47'
p945
ag23
aS'variable_28'
p946
ag19
aS'variable_1'
p947
ag105
aS'variable_7'
p948
aS'++'
p949
ag107
ag23
aS'if'
p950
ag6
aS'variable_28'
p951
ag123
ag26
ag16
aS'for'
p952
ag6
aS'variable_17'
p953
ag19
ag26
ag23
aS'variable_17'
p954
ag101
aS'variable_28'
p955
ag23
aS'variable_17'
p956
aS'++'
p957
ag16
aS'variable_31'
p958
ag19
aS'variable_1'
p959
ag105
aS'variable_7'
p960
aS'++'
p961
ag107
ag23
aS'variable_9'
p962
aS'+='
p963
aS'variable_31'
p964
ag23
aS'variable_32'
p965
aS'-='
p966
aS'variable_31'
p967
ag23
aS'variable_30'
p968
ag19
ag6
aS'signed'
p969
aS'char'
p970
ag16
ag6
aS'variable_1'
p971
ag105
aS'variable_7'
p972
aS'++'
p973
ag107
ag16
ag23
aS'if'
p974
ag6
aS'variable_30'
p975
ag123
ag26
ag16
aS'for'
p976
ag6
aS'variable_18'
p977
ag19
ag26
ag23
aS'variable_18'
p978
ag101
aS'variable_30'
p979
ag23
aS'variable_18'
p980
aS'++'
p981
ag10
aS'variable_32'
p982
aS'--'
p983
ag16
aS'variable_11'
p984
ag19
aS'variable_1'
p985
ag105
aS'variable_7'
p986
aS'++'
p987
ag107
ag23
aS'variable_33'
p988
ag105
aS'variable_9'
p989
aS'++'
p990
ag107
ag19
aS'variable_11'
p991
ag23
aS'if'
p992
ag6
aS'variable_30'
p993
ag101
ag26
ag16
aS'variable_30'
p994
ag19
ag146
aS'variable_30'
p995
ag23
aS'variable_11'
p996
ag19
aS'variable_1'
p997
ag105
aS'variable_7'
p998
aS'++'
p999
ag107
ag23
aS'for'
p1000
ag6
aS'variable_18'
p1001
ag19
ag26
ag23
aS'variable_18'
p1002
ag101
aS'variable_30'
p1003
ag23
aS'variable_18'
p1004
aS'++'
p1005
ag10
aS'variable_32'
p1006
aS'--'
p1007
ag16
aS'variable_33'
p1008
ag105
aS'variable_9'
p1009
aS'++'
p1010
ag107
ag19
aS'variable_11'
p1011
ag23
aS'variable_29'
p1012
aS'+='
p1013
aS'variable_4'
p1014
aS'->'
p1015
aS'variable_34'
p1016
ag81
aS'variable_46'
p1017
ag105
ag26
ag107
ag23
aS'variable_26'
p1018
aS'--'
p1019
ag23
aS'memset'
p1020
ag6
aS'variable_33'
p1021
ag10
ag26
ag10
aS'variable_4'
p1022
aS'->'
p1023
aS'variable_34'
p1024
ag81
aS'variable_46'
p1025
ag105
ag26
ag107
ag8
aS'variable_4'
p1026
aS'->'
p1027
aS'variable_5'
p1028
aS'->'
p1029
aS'variable_48'
p1030
ag16
ag23
aS'variable_29'
p1031
ag19
ag26
ag23
aS'for'
p1032
ag6
aS'variable_25'
p1033
ag19
ag26
ag23
aS'variable_25'
p1034
ag101
aS'variable_4'
p1035
aS'->'
p1036
aS'variable_5'
p1037
aS'->'
p1038
aS'variable_48'
p1039
ag23
aS'variable_25'
p1040
aS'++'
p1041
ag16
aS'variable_9'
p1042
ag19
aS'variable_29'
p1043
ag23
aS'variable_7'
p1044
aS'++'
p1045
ag23
aS'variable_32'
p1046
ag19
aS'variable_4'
p1047
aS'->'
p1048
aS'variable_5'
p1049
aS'->'
p1050
aS'variable_47'
p1051
ag23
aS'while'
p1052
ag6
aS'variable_32'
p1053
ag123
ag26
ag16
aS'variable_30'
p1054
ag19
ag6
aS'signed'
p1055
aS'char'
p1056
ag16
ag6
aS'variable_1'
p1057
ag105
aS'variable_7'
p1058
aS'++'
p1059
ag107
ag16
ag23
aS'if'
p1060
ag6
aS'variable_30'
p1061
ag123
ag26
ag16
aS'variable_11'
p1062
ag19
aS'variable_1'
p1063
ag105
aS'variable_7'
p1064
aS'++'
p1065
ag107
ag23
aS'for'
p1066
ag6
aS'variable_18'
p1067
ag19
ag26
ag23
aS'variable_18'
p1068
ag101
aS'variable_30'
p1069
ag23
aS'variable_18'
p1070
aS'++'
p1071
ag16
aS'variable_33'
p1072
ag105
aS'variable_9'
p1073
aS'++'
p1074
ag107
ag19
aS'variable_11'
p1075
ag23
aS'variable_32'
p1076
aS'--'
p1077
ag23
aS'variable_30'
p1078
ag19
ag146
aS'variable_30'
p1079
ag23
aS'for'
p1080
ag6
aS'variable_18'
p1081
ag19
ag26
ag23
aS'variable_18'
p1082
ag101
aS'variable_30'
p1083
ag23
aS'variable_18'
p1084
aS'++'
p1085
ag16
aS'variable_11'
p1086
ag19
aS'variable_1'
p1087
ag105
aS'variable_7'
p1088
aS'++'
p1089
ag107
ag23
aS'variable_33'
p1090
ag105
aS'variable_9'
p1091
aS'++'
p1092
ag107
ag19
aS'variable_11'
p1093
ag23
aS'variable_32'
p1094
aS'--'
p1095
ag23
aS'variable_29'
p1096
aS'+='
p1097
aS'variable_4'
p1098
aS'->'
p1099
aS'variable_34'
p1100
ag81
aS'variable_46'
p1101
ag105
ag26
ag107
ag23
aS'if'
p1102
ag6
aS'variable_15'
p1103
ag146
ag110
ag123
aS'variable_4'
p1104
aS'->'
p1105
aS'variable_5'
p1106
aS'->'
p1107
aS'variable_47'
p1108
ag8
aS'variable_4'
p1109
aS'->'
p1110
aS'variable_5'
p1111
aS'->'
p1112
aS'variable_48'
p1113
ag16
aS'variable_7'
p1114
aS'+='
p1115
aS'variable_15'
p1116
ag146
ag110
ag23
aS'for'
p1117
ag6
aS'variable_29'
p1118
ag19
ag26
ag23
aS'variable_29'
p1119
ag101
aS'variable_4'
p1120
aS'->'
p1121
aS'variable_34'
p1122
ag81
aS'variable_46'
p1123
ag105
ag26
ag107
ag8
aS'variable_29'
p1124
aS'+='
p1125
aS'variable_4'
p1126
aS'->'
p1127
aS'variable_34'
p1128
ag81
aS'variable_46'
p1129
ag105
ag26
ag107
ag16
aS'memcpy'
p1130
ag6
ag97
aS'variable_33'
p1131
ag105
aS'variable_29'
p1132
ag107
ag10
ag97
aS'variable_1'
p1133
ag105
aS'variable_7'
p1134
ag107
ag10
aS'variable_4'
p1135
aS'->'
p1136
aS'variable_5'
p1137
aS'->'
p1138
aS'variable_47'
p1139
ag16
ag23
aS'variable_7'
p1140
aS'+='
p1141
aS'variable_4'
p1142
aS'->'
p1143
aS'variable_5'
p1144
aS'->'
p1145
aS'variable_47'
p1146
ag23
aS'variable_7'
p1147
aS'+='
p1148
aS'variable_15'
p1149
ag146
ag110
ag23
aS'variable_13'
p1150
aS'-='
p1151
aS'variable_15'
p1152
ag23
aS'variable_14'
p1153
aS'--'
p1154
ag23
aaa(lp1155
I0
aI0
aa(lp1156
I1026
aI1122
aa(lp1157
(lp1158
S'main'
p1159
aa(lp1160
g1159
aaa(lp1161
S'440 /home/SySeVR/data/CVE_2010_3429_PATCHED_flic_decode_frame_8BPP.c memcpy 293'
p1162
aS'441 /home/SySeVR/data/CVE_2010_3429_PATCHED_flic_decode_frame_8BPP.c memcpy 265'
p1163
aa.