(lp0
(lp1
(lp2
S'static'
p3
aS'int'
p4
aS'func_0'
p5
aS'('
p6
aS'void'
p7
aS'*'
p8
aS'variable_0'
p9
aS','
p10
aS'const'
p11
aS'uint8_t'
p12
ag8
aS'variable_1'
p13
ag10
aS'int'
p14
aS'variable_2'
p15
aS')'
p16
aS'variable_3'
p17
ag8
aS'variable_4'
p18
aS'='
p19
aS'variable_5'
p20
aS'->'
p21
aS'variable_6'
p22
aS';'
p23
aS'int'
p24
aS'variable_7'
p25
ag19
aS'0'
p26
ag23
aS'int'
p27
aS'variable_8'
p28
ag23
aS'int'
p29
aS'variable_9'
p30
ag23
aS'int'
p31
aS'variable_10'
p32
ag23
aS'unsigned'
p33
aS'char'
p34
aS'variable_11'
p35
ag23
aS'unsigned'
p36
aS'char'
p37
aS'variable_12'
p38
ag23
aS'unsigned'
p39
aS'int'
p40
aS'variable_13'
p41
ag23
aS'int'
p42
aS'variable_14'
p43
ag23
aS'unsigned'
p44
aS'int'
p45
aS'variable_15'
p46
ag23
aS'int'
p47
aS'variable_16'
p48
ag23
aS'int'
p49
aS'variable_17'
p50
ag10
aS'variable_18'
p51
ag23
aS'int'
p52
aS'variable_19'
p53
ag23
aS'int'
p54
aS'variable_20'
p55
ag23
aS'int'
p56
aS'variable_21'
p57
ag23
aS'unsigned'
p58
aS'char'
p59
aS'variable_22'
p60
ag10
aS'variable_23'
p61
ag10
aS'variable_24'
p62
ag23
aS'int'
p63
aS'variable_25'
p64
ag23
aS'int'
p65
aS'variable_26'
p66
ag23
aS'int'
p67
aS'variable_27'
p68
ag23
aS'signed'
p69
aS'short'
p70
aS'variable_28'
p71
ag23
aS'int'
p72
aS'variable_29'
p73
ag23
aS'int'
p74
aS'variable_30'
p75
ag23
aS'int'
p76
aS'variable_31'
p77
ag23
aS'int'
p78
aS'variable_32'
p79
ag23
aS'variable_4'
p80
aS'->'
p81
aS'variable_33'
p82
aS'.'
p83
aS'variable_34'
p84
ag19
aS'1'
p85
ag23
aS'variable_4'
p86
aS'->'
p87
aS'variable_33'
p88
ag83
aS'variable_35'
p89
ag19
aS'variable_36'
p90
aS'|'
p91
aS'variable_37'
p92
ag91
aS'variable_38'
p93
ag23
aS'if'
p94
ag6
aS'variable_5'
p95
aS'->'
p96
aS'func_1'
p97
ag6
aS'variable_5'
p98
ag10
aS'&'
p99
aS'variable_4'
p100
aS'->'
p101
aS'variable_33'
p102
ag16
aS'<'
p103
ag26
ag16
aS'variable_13'
p104
ag19
aS'func_2'
p105
ag6
ag99
aS'variable_1'
p106
aS'['
p107
aS'variable_7'
p108
aS']'
p109
ag16
ag23
aS'variable_7'
p110
aS'+='
p111
aS'6'
p112
ag23
aS'variable_14'
p113
ag19
aS'func_3'
p114
ag6
ag99
aS'variable_1'
p115
ag107
aS'variable_7'
p116
ag109
ag16
ag23
aS'variable_7'
p117
aS'+='
p118
aS'10'
p119
ag23
aS'variable_13'
p120
aS'-='
p121
aS'16'
p122
ag23
aS'while'
p123
ag6
ag6
aS'variable_13'
p124
aS'>'
p125
ag26
ag16
aS'&&'
p126
ag6
aS'variable_14'
p127
ag125
ag26
ag16
ag16
aS'variable_15'
p128
ag19
aS'func_4'
p129
ag6
ag99
aS'variable_1'
p130
ag107
aS'variable_7'
p131
ag109
ag16
ag23
aS'variable_7'
p132
aS'+='
p133
aS'4'
p134
ag23
aS'variable_16'
p135
ag19
aS'func_5'
p136
ag6
ag99
aS'variable_1'
p137
ag107
aS'variable_7'
p138
ag109
ag16
ag23
aS'variable_7'
p139
aS'+='
p140
aS'2'
p141
ag23
aS'switch'
p142
ag6
aS'variable_16'
p143
ag16
aS'variable_8'
p144
ag19
aS'variable_7'
p145
aS'+'
p146
aS'variable_15'
p147
aS'-'
p148
ag112
ag23
aS'if'
p149
ag6
ag6
aS'variable_16'
p150
aS'=='
p151
aS'variable_39'
p152
ag16
aS'&&'
p153
ag6
aS'variable_4'
p154
aS'->'
p155
aS'variable_40'
p156
aS'!='
p157
aS'variable_41'
p158
ag16
ag16
aS'variable_21'
p159
ag19
ag26
ag23
aS'variable_21'
p160
ag19
ag141
ag23
aS'variable_19'
p161
ag19
aS'func_6'
p162
ag6
ag99
aS'variable_1'
p163
ag107
aS'variable_7'
p164
ag109
ag16
ag23
aS'variable_7'
p165
aS'+='
p166
ag141
ag23
aS'variable_10'
p167
ag19
ag26
ag23
aS'for'
p168
ag6
aS'variable_17'
p169
ag19
ag26
ag23
aS'variable_17'
p170
ag103
aS'variable_19'
p171
ag23
aS'variable_17'
p172
aS'++'
p173
ag16
aS'variable_10'
p174
aS'+='
p175
aS'variable_1'
p176
ag107
aS'variable_7'
p177
aS'++'
p178
ag109
ag23
aS'variable_20'
p179
ag19
aS'variable_1'
p180
ag107
aS'variable_7'
p181
aS'++'
p182
ag109
ag23
aS'if'
p183
ag6
aS'variable_20'
p184
aS'=='
p185
ag26
ag16
aS'variable_20'
p186
ag19
aS'256'
p187
ag23
aS'for'
p188
ag6
aS'variable_18'
p189
ag19
ag26
ag23
aS'variable_18'
p190
ag103
aS'variable_20'
p191
ag23
aS'variable_18'
p192
aS'++'
p193
ag16
aS'unsigned'
p194
aS'int'
p195
aS'variable_42'
p196
ag23
aS'if'
p197
ag6
ag6
aS'unsigned'
p198
ag16
aS'variable_10'
p199
ag125
ag19
aS'256'
p200
ag16
aS'variable_10'
p201
ag19
ag26
ag23
aS'variable_22'
p202
ag19
aS'variable_1'
p203
ag107
aS'variable_7'
p204
aS'++'
p205
ag109
aS'<<'
p206
aS'variable_21'
p207
ag23
aS'variable_23'
p208
ag19
aS'variable_1'
p209
ag107
aS'variable_7'
p210
aS'++'
p211
ag109
aS'<<'
p212
aS'variable_21'
p213
ag23
aS'variable_24'
p214
ag19
aS'variable_1'
p215
ag107
aS'variable_7'
p216
aS'++'
p217
ag109
aS'<<'
p218
aS'variable_21'
p219
ag23
aS'variable_42'
p220
ag19
ag6
aS'variable_22'
p221
aS'<<'
p222
aS'16'
p223
ag16
ag91
ag6
aS'variable_23'
p224
aS'<<'
p225
aS'8'
p226
ag16
ag91
aS'variable_24'
p227
ag23
aS'if'
p228
ag6
aS'variable_4'
p229
aS'->'
p230
aS'variable_43'
p231
ag107
aS'variable_10'
p232
ag109
aS'!='
p233
aS'variable_42'
p234
ag16
aS'variable_4'
p235
aS'->'
p236
aS'variable_44'
p237
ag19
ag85
ag23
aS'variable_4'
p238
aS'->'
p239
aS'variable_43'
p240
ag107
aS'variable_10'
p241
aS'++'
p242
ag109
ag19
aS'variable_42'
p243
ag23
aS'variable_7'
p244
ag19
aS'variable_8'
p245
ag23
aS'variable_29'
p246
ag19
ag26
ag23
aS'variable_26'
p247
ag19
aS'func_7'
p248
ag6
ag99
aS'variable_1'
p249
ag107
aS'variable_7'
p250
ag109
ag16
ag23
aS'variable_7'
p251
aS'+='
p252
ag141
ag23
aS'while'
p253
ag6
aS'variable_26'
p254
ag125
ag26
ag16
aS'variable_28'
p255
ag19
aS'func_8'
p256
ag6
ag99
aS'variable_1'
p257
ag107
aS'variable_7'
p258
ag109
ag16
ag23
aS'variable_7'
p259
aS'+='
p260
ag141
ag23
aS'if'
p261
ag6
ag6
aS'variable_28'
p262
ag99
aS'0xC000'
p263
ag16
aS'=='
p264
aS'0xC000'
p265
ag16
aS'variable_28'
p266
ag19
ag148
aS'variable_28'
p267
ag23
aS'variable_29'
p268
aS'+='
p269
aS'variable_28'
p270
ag8
aS'variable_4'
p271
aS'->'
p272
aS'variable_33'
p273
ag83
aS'variable_45'
p274
ag107
ag26
ag109
ag23
aS'if'
p275
ag6
ag6
aS'variable_28'
p276
ag99
aS'0xC000'
p277
ag16
aS'=='
p278
aS'0x4000'
p279
ag16
aS'if'
p280
ag6
ag6
aS'variable_28'
p281
ag99
aS'0xC000'
p282
ag16
aS'=='
p283
aS'0x8000'
p284
ag16
aS'variable_9'
p285
ag19
aS'variable_29'
p286
ag146
aS'variable_4'
p287
aS'->'
p288
aS'variable_33'
p289
ag83
aS'variable_45'
p290
ag107
ag26
ag109
ag148
ag85
ag23
aS'variable_46'
p291
ag107
aS'variable_9'
p292
ag109
ag19
aS'variable_28'
p293
ag99
aS'0xff'
p294
ag23
aS'variable_26'
p295
aS'--'
p296
ag23
aS'variable_32'
p297
ag19
aS'variable_4'
p298
aS'->'
p299
aS'variable_5'
p300
aS'->'
p301
aS'variable_47'
p302
ag23
aS'for'
p303
ag6
aS'variable_17'
p304
ag19
ag26
ag23
aS'variable_17'
p305
ag103
aS'variable_28'
p306
ag23
aS'variable_17'
p307
aS'++'
p308
ag16
aS'variable_31'
p309
ag19
aS'variable_1'
p310
ag107
aS'variable_7'
p311
aS'++'
p312
ag109
ag23
aS'variable_32'
p313
aS'-='
p314
aS'variable_31'
p315
ag23
aS'variable_30'
p316
ag19
ag6
aS'signed'
p317
aS'char'
p318
ag16
ag6
aS'variable_1'
p319
ag107
aS'variable_7'
p320
aS'++'
p321
ag109
ag16
ag23
aS'if'
p322
ag6
aS'variable_30'
p323
ag103
ag26
ag16
aS'variable_30'
p324
ag19
ag148
aS'variable_30'
p325
ag23
aS'variable_11'
p326
ag19
aS'variable_1'
p327
ag107
aS'variable_7'
p328
aS'++'
p329
ag109
ag23
aS'variable_12'
p330
ag19
aS'variable_1'
p331
ag107
aS'variable_7'
p332
aS'++'
p333
ag109
ag23
aS'for'
p334
ag6
aS'variable_18'
p335
ag19
ag26
ag23
aS'variable_18'
p336
ag103
aS'variable_30'
p337
ag23
aS'variable_18'
p338
aS'++'
p339
ag10
aS'variable_32'
p340
aS'-='
p341
ag141
ag16
aS'for'
p342
ag6
aS'variable_18'
p343
ag19
ag26
ag23
aS'variable_18'
p344
ag103
aS'variable_30'
p345
ag8
ag141
ag23
aS'variable_18'
p346
aS'++'
p347
ag10
aS'variable_32'
p348
aS'--'
p349
ag16
aS'variable_11'
p350
ag19
aS'variable_1'
p351
ag107
aS'variable_7'
p352
aS'++'
p353
ag109
ag23
aS'variable_29'
p354
aS'+='
p355
aS'variable_4'
p356
aS'->'
p357
aS'variable_33'
p358
ag83
aS'variable_45'
p359
ag107
ag26
ag109
ag23
aS'variable_27'
p360
ag19
aS'func_9'
p361
ag6
ag99
aS'variable_1'
p362
ag107
aS'variable_7'
p363
ag109
ag16
ag23
aS'variable_7'
p364
aS'+='
p365
ag141
ag23
aS'variable_29'
p366
ag19
ag26
ag23
aS'variable_29'
p367
aS'+='
p368
aS'variable_27'
p369
ag8
aS'variable_4'
p370
aS'->'
p371
aS'variable_33'
p372
ag83
aS'variable_45'
p373
ag107
ag26
ag109
ag23
aS'variable_26'
p374
ag19
aS'func_10'
p375
ag6
ag99
aS'variable_1'
p376
ag107
aS'variable_7'
p377
ag109
ag16
ag23
aS'variable_7'
p378
aS'+='
p379
ag141
ag23
aS'while'
p380
ag6
aS'variable_26'
p381
ag125
ag26
ag16
aS'variable_32'
p382
ag19
aS'variable_4'
p383
aS'->'
p384
aS'variable_5'
p385
aS'->'
p386
aS'variable_47'
p387
ag23
aS'variable_28'
p388
ag19
aS'variable_1'
p389
ag107
aS'variable_7'
p390
aS'++'
p391
ag109
ag23
aS'if'
p392
ag6
aS'variable_28'
p393
ag125
ag26
ag16
aS'for'
p394
ag6
aS'variable_17'
p395
ag19
ag26
ag23
aS'variable_17'
p396
ag103
aS'variable_28'
p397
ag23
aS'variable_17'
p398
aS'++'
p399
ag16
aS'variable_31'
p400
ag19
aS'variable_1'
p401
ag107
aS'variable_7'
p402
aS'++'
p403
ag109
ag23
aS'variable_32'
p404
aS'-='
p405
aS'variable_31'
p406
ag23
aS'variable_30'
p407
ag19
ag6
aS'signed'
p408
aS'char'
p409
ag16
ag6
aS'variable_1'
p410
ag107
aS'variable_7'
p411
aS'++'
p412
ag109
ag16
ag23
aS'if'
p413
ag6
aS'variable_30'
p414
ag125
ag26
ag16
aS'for'
p415
ag6
aS'variable_18'
p416
ag19
ag26
ag23
aS'variable_18'
p417
ag103
aS'variable_30'
p418
ag23
aS'variable_18'
p419
aS'++'
p420
ag10
aS'variable_32'
p421
aS'--'
p422
ag16
aS'variable_11'
p423
ag19
aS'variable_1'
p424
ag107
aS'variable_7'
p425
aS'++'
p426
ag109
ag23
aS'if'
p427
ag6
aS'variable_30'
p428
ag103
ag26
ag16
aS'variable_30'
p429
ag19
ag148
aS'variable_30'
p430
ag23
aS'variable_11'
p431
ag19
aS'variable_1'
p432
ag107
aS'variable_7'
p433
aS'++'
p434
ag109
ag23
aS'for'
p435
ag6
aS'variable_18'
p436
ag19
ag26
ag23
aS'variable_18'
p437
ag103
aS'variable_30'
p438
ag23
aS'variable_18'
p439
aS'++'
p440
ag10
aS'variable_32'
p441
aS'--'
p442
ag16
aS'variable_29'
p443
aS'+='
p444
aS'variable_4'
p445
aS'->'
p446
aS'variable_33'
p447
ag83
aS'variable_45'
p448
ag107
ag26
ag109
ag23
aS'variable_26'
p449
aS'--'
p450
ag23
aS'variable_29'
p451
ag19
ag26
ag23
aS'for'
p452
ag6
aS'variable_25'
p453
ag19
ag26
ag23
aS'variable_25'
p454
ag103
aS'variable_4'
p455
aS'->'
p456
aS'variable_5'
p457
aS'->'
p458
aS'variable_48'
p459
ag23
aS'variable_25'
p460
aS'++'
p461
ag16
aS'variable_7'
p462
aS'++'
p463
ag23
aS'variable_32'
p464
ag19
aS'variable_4'
p465
aS'->'
p466
aS'variable_5'
p467
aS'->'
p468
aS'variable_47'
p469
ag23
aS'while'
p470
ag6
aS'variable_32'
p471
ag125
ag26
ag16
aS'variable_30'
p472
ag19
ag6
aS'signed'
p473
aS'char'
p474
ag16
ag6
aS'variable_1'
p475
ag107
aS'variable_7'
p476
aS'++'
p477
ag109
ag16
ag23
aS'if'
p478
ag6
aS'variable_30'
p479
ag125
ag26
ag16
aS'variable_11'
p480
ag19
aS'variable_1'
p481
ag107
aS'variable_7'
p482
aS'++'
p483
ag109
ag23
aS'for'
p484
ag6
aS'variable_18'
p485
ag19
ag26
ag23
aS'variable_18'
p486
ag103
aS'variable_30'
p487
ag23
aS'variable_18'
p488
aS'++'
p489
ag16
aS'variable_32'
p490
aS'--'
p491
ag23
aS'variable_30'
p492
ag19
ag148
aS'variable_30'
p493
ag23
aS'for'
p494
ag6
aS'variable_18'
p495
ag19
ag26
ag23
aS'variable_18'
p496
ag103
aS'variable_30'
p497
ag23
aS'variable_18'
p498
aS'++'
p499
ag16
aS'variable_11'
p500
ag19
aS'variable_1'
p501
ag107
aS'variable_7'
p502
aS'++'
p503
ag109
ag23
aS'variable_32'
p504
aS'--'
p505
ag23
aS'variable_29'
p506
aS'+='
p507
aS'variable_4'
p508
aS'->'
p509
aS'variable_33'
p510
ag83
aS'variable_45'
p511
ag107
ag26
ag109
ag23
aS'if'
p512
ag6
aS'variable_15'
p513
ag148
ag112
ag125
aS'variable_4'
p514
aS'->'
p515
aS'variable_5'
p516
aS'->'
p517
aS'variable_47'
p518
ag8
aS'variable_4'
p519
aS'->'
p520
aS'variable_5'
p521
aS'->'
p522
aS'variable_48'
p523
ag16
aS'variable_7'
p524
aS'+='
p525
aS'variable_15'
p526
ag148
ag112
ag23
aS'for'
p527
ag6
aS'variable_29'
p528
ag19
ag26
ag23
aS'variable_29'
p529
ag103
aS'variable_4'
p530
aS'->'
p531
aS'variable_33'
p532
ag83
aS'variable_45'
p533
ag107
ag26
ag109
ag8
aS'variable_29'
p534
aS'+='
p535
aS'variable_4'
p536
aS'->'
p537
aS'variable_33'
p538
ag83
aS'variable_45'
p539
ag107
ag26
ag109
ag16
aS'variable_7'
p540
aS'+='
p541
aS'variable_4'
p542
aS'->'
p543
aS'variable_5'
p544
aS'->'
p545
aS'variable_47'
p546
ag23
aS'variable_7'
p547
aS'+='
p548
aS'variable_15'
p549
ag148
ag112
ag23
aS'variable_13'
p550
aS'-='
p551
aS'variable_15'
p552
ag23
aS'variable_14'
p553
aS'--'
p554
ag23
aa(lp555
S'static'
p556
aS'int'
p557
aS'func_0'
p558
ag6
aS'void'
p559
ag8
aS'variable_0'
p560
ag10
aS'const'
p561
aS'uint8_t'
p562
ag8
aS'variable_1'
p563
ag10
aS'int'
p564
aS'variable_2'
p565
ag16
aS'variable_3'
p566
ag8
aS'variable_4'
p567
ag19
aS'variable_5'
p568
aS'->'
p569
aS'variable_6'
p570
ag23
aS'int'
p571
aS'variable_7'
p572
ag19
ag26
ag23
aS'int'
p573
aS'variable_8'
p574
ag23
aS'int'
p575
aS'variable_9'
p576
ag23
aS'unsigned'
p577
aS'char'
p578
aS'variable_10'
p579
ag23
aS'unsigned'
p580
aS'char'
p581
aS'variable_11'
p582
ag23
aS'unsigned'
p583
aS'int'
p584
aS'variable_12'
p585
ag23
aS'int'
p586
aS'variable_13'
p587
ag23
aS'unsigned'
p588
aS'int'
p589
aS'variable_14'
p590
ag23
aS'int'
p591
aS'variable_15'
p592
ag23
aS'int'
p593
aS'variable_16'
p594
ag10
aS'variable_17'
p595
ag23
aS'int'
p596
aS'variable_18'
p597
ag23
aS'int'
p598
aS'variable_19'
p599
ag23
aS'int'
p600
aS'variable_20'
p601
ag23
aS'unsigned'
p602
aS'char'
p603
aS'variable_21'
p604
ag10
aS'variable_22'
p605
ag10
aS'variable_23'
p606
ag23
aS'int'
p607
aS'variable_24'
p608
ag23
aS'int'
p609
aS'variable_25'
p610
ag23
aS'int'
p611
aS'variable_26'
p612
ag23
aS'signed'
p613
aS'short'
p614
aS'variable_27'
p615
ag23
aS'int'
p616
aS'variable_28'
p617
ag23
aS'int'
p618
aS'variable_29'
p619
ag23
aS'int'
p620
aS'variable_30'
p621
ag23
aS'int'
p622
aS'variable_31'
p623
ag23
aS'variable_4'
p624
aS'->'
p625
aS'variable_32'
p626
ag83
aS'variable_33'
p627
ag19
ag85
ag23
aS'variable_4'
p628
aS'->'
p629
aS'variable_32'
p630
ag83
aS'variable_34'
p631
ag19
aS'variable_35'
p632
ag91
aS'variable_36'
p633
ag91
aS'variable_37'
p634
ag23
aS'if'
p635
ag6
aS'variable_5'
p636
aS'->'
p637
aS'func_1'
p638
ag6
aS'variable_5'
p639
ag10
ag99
aS'variable_4'
p640
aS'->'
p641
aS'variable_32'
p642
ag16
ag103
ag26
ag16
aS'variable_12'
p643
ag19
aS'func_2'
p644
ag6
ag99
aS'variable_1'
p645
ag107
aS'variable_7'
p646
ag109
ag16
ag23
aS'variable_7'
p647
aS'+='
p648
ag112
ag23
aS'variable_13'
p649
ag19
aS'func_3'
p650
ag6
ag99
aS'variable_1'
p651
ag107
aS'variable_7'
p652
ag109
ag16
ag23
aS'variable_7'
p653
aS'+='
p654
aS'10'
p655
ag23
aS'variable_12'
p656
aS'-='
p657
aS'16'
p658
ag23
aS'while'
p659
ag6
ag6
aS'variable_12'
p660
ag125
ag26
ag16
aS'&&'
p661
ag6
aS'variable_13'
p662
ag125
ag26
ag16
ag16
aS'variable_14'
p663
ag19
aS'func_4'
p664
ag6
ag99
aS'variable_1'
p665
ag107
aS'variable_7'
p666
ag109
ag16
ag23
aS'variable_7'
p667
aS'+='
p668
ag134
ag23
aS'variable_15'
p669
ag19
aS'func_5'
p670
ag6
ag99
aS'variable_1'
p671
ag107
aS'variable_7'
p672
ag109
ag16
ag23
aS'variable_7'
p673
aS'+='
p674
ag141
ag23
aS'switch'
p675
ag6
aS'variable_15'
p676
ag16
aS'variable_8'
p677
ag19
aS'variable_7'
p678
ag146
aS'variable_14'
p679
ag148
ag112
ag23
aS'if'
p680
ag6
ag6
aS'variable_15'
p681
aS'=='
p682
aS'variable_38'
p683
ag16
aS'&&'
p684
ag6
aS'variable_4'
p685
aS'->'
p686
aS'variable_39'
p687
aS'!='
p688
aS'variable_40'
p689
ag16
ag16
aS'variable_20'
p690
ag19
ag26
ag23
aS'variable_20'
p691
ag19
ag141
ag23
aS'variable_18'
p692
ag19
aS'func_6'
p693
ag6
ag99
aS'variable_1'
p694
ag107
aS'variable_7'
p695
ag109
ag16
ag23
aS'variable_7'
p696
aS'+='
p697
ag141
ag23
aS'variable_9'
p698
ag19
ag26
ag23
aS'for'
p699
ag6
aS'variable_16'
p700
ag19
ag26
ag23
aS'variable_16'
p701
ag103
aS'variable_18'
p702
ag23
aS'variable_16'
p703
aS'++'
p704
ag16
aS'variable_9'
p705
aS'+='
p706
aS'variable_1'
p707
ag107
aS'variable_7'
p708
aS'++'
p709
ag109
ag23
aS'variable_19'
p710
ag19
aS'variable_1'
p711
ag107
aS'variable_7'
p712
aS'++'
p713
ag109
ag23
aS'if'
p714
ag6
aS'variable_19'
p715
aS'=='
p716
ag26
ag16
aS'variable_19'
p717
ag19
aS'256'
p718
ag23
aS'for'
p719
ag6
aS'variable_17'
p720
ag19
ag26
ag23
aS'variable_17'
p721
ag103
aS'variable_19'
p722
ag23
aS'variable_17'
p723
aS'++'
p724
ag16
aS'unsigned'
p725
aS'int'
p726
aS'variable_41'
p727
ag23
aS'if'
p728
ag6
ag6
aS'unsigned'
p729
ag16
aS'variable_9'
p730
ag125
ag19
aS'256'
p731
ag16
aS'variable_9'
p732
ag19
ag26
ag23
aS'variable_21'
p733
ag19
aS'variable_1'
p734
ag107
aS'variable_7'
p735
aS'++'
p736
ag109
aS'<<'
p737
aS'variable_20'
p738
ag23
aS'variable_22'
p739
ag19
aS'variable_1'
p740
ag107
aS'variable_7'
p741
aS'++'
p742
ag109
aS'<<'
p743
aS'variable_20'
p744
ag23
aS'variable_23'
p745
ag19
aS'variable_1'
p746
ag107
aS'variable_7'
p747
aS'++'
p748
ag109
aS'<<'
p749
aS'variable_20'
p750
ag23
aS'variable_41'
p751
ag19
ag6
aS'variable_21'
p752
aS'<<'
p753
aS'16'
p754
ag16
ag91
ag6
aS'variable_22'
p755
aS'<<'
p756
ag226
ag16
ag91
aS'variable_23'
p757
ag23
aS'if'
p758
ag6
aS'variable_4'
p759
aS'->'
p760
aS'variable_42'
p761
ag107
aS'variable_9'
p762
ag109
aS'!='
p763
aS'variable_41'
p764
ag16
aS'variable_4'
p765
aS'->'
p766
aS'variable_43'
p767
ag19
ag85
ag23
aS'variable_4'
p768
aS'->'
p769
aS'variable_42'
p770
ag107
aS'variable_9'
p771
aS'++'
p772
ag109
ag19
aS'variable_41'
p773
ag23
aS'variable_7'
p774
ag19
aS'variable_8'
p775
ag23
aS'variable_28'
p776
ag19
ag26
ag23
aS'variable_25'
p777
ag19
aS'func_7'
p778
ag6
ag99
aS'variable_1'
p779
ag107
aS'variable_7'
p780
ag109
ag16
ag23
aS'variable_7'
p781
aS'+='
p782
ag141
ag23
aS'while'
p783
ag6
aS'variable_25'
p784
ag125
ag26
ag16
aS'variable_27'
p785
ag19
aS'func_8'
p786
ag6
ag99
aS'variable_1'
p787
ag107
aS'variable_7'
p788
ag109
ag16
ag23
aS'variable_7'
p789
aS'+='
p790
ag141
ag23
aS'if'
p791
ag6
ag6
aS'variable_27'
p792
ag99
aS'0xC000'
p793
ag16
aS'=='
p794
aS'0xC000'
p795
ag16
aS'variable_27'
p796
ag19
ag148
aS'variable_27'
p797
ag23
aS'variable_28'
p798
aS'+='
p799
aS'variable_27'
p800
ag8
aS'variable_4'
p801
aS'->'
p802
aS'variable_32'
p803
ag83
aS'variable_44'
p804
ag107
ag26
ag109
ag23
aS'if'
p805
ag6
ag6
aS'variable_27'
p806
ag99
aS'0xC000'
p807
ag16
aS'=='
p808
aS'0x4000'
p809
ag16
aS'func_9'
p810
ag6
aS'variable_5'
p811
ag10
aS'variable_45'
p812
ag10
aS'"'
p813
aS'Undefined'
p814
aS'opcode'
p815
ag6
aS'%'
p816
aS'x'
p817
ag16
aS'in'
p818
aS'DELTA_FLI'
p819
aS'\\'
p820
aS'n'
p821
ag813
ag10
aS'variable_27'
p822
ag16
ag23
aS'if'
p823
ag6
ag6
aS'variable_27'
p824
ag99
aS'0xC000'
p825
ag16
aS'=='
p826
aS'0x8000'
p827
ag16
aS'variable_46'
p828
ag19
aS'variable_28'
p829
ag146
aS'variable_4'
p830
aS'->'
p831
aS'variable_32'
p832
ag83
aS'variable_44'
p833
ag107
ag26
ag109
ag148
ag85
ag23
aS'variable_47'
p834
ag107
aS'variable_46'
p835
ag109
ag19
aS'variable_27'
p836
ag99
aS'0xff'
p837
ag23
aS'variable_25'
p838
aS'--'
p839
ag23
aS'variable_46'
p840
ag19
aS'variable_28'
p841
ag23
aS'variable_31'
p842
ag19
aS'variable_4'
p843
aS'->'
p844
aS'variable_5'
p845
aS'->'
p846
aS'variable_48'
p847
ag23
aS'for'
p848
ag6
aS'variable_16'
p849
ag19
ag26
ag23
aS'variable_16'
p850
ag103
aS'variable_27'
p851
ag23
aS'variable_16'
p852
aS'++'
p853
ag16
aS'variable_30'
p854
ag19
aS'variable_1'
p855
ag107
aS'variable_7'
p856
aS'++'
p857
ag109
ag23
aS'variable_46'
p858
aS'+='
p859
aS'variable_30'
p860
ag23
aS'variable_31'
p861
aS'-='
p862
aS'variable_30'
p863
ag23
aS'variable_29'
p864
ag19
ag6
aS'signed'
p865
aS'char'
p866
ag16
ag6
aS'variable_1'
p867
ag107
aS'variable_7'
p868
aS'++'
p869
ag109
ag16
ag23
aS'if'
p870
ag6
aS'variable_29'
p871
ag103
ag26
ag16
aS'variable_29'
p872
ag19
ag148
aS'variable_29'
p873
ag23
aS'variable_10'
p874
ag19
aS'variable_1'
p875
ag107
aS'variable_7'
p876
aS'++'
p877
ag109
ag23
aS'variable_11'
p878
ag19
aS'variable_1'
p879
ag107
aS'variable_7'
p880
aS'++'
p881
ag109
ag23
aS'func_10'
p882
ag6
aS'variable_29'
p883
ag8
ag141
ag16
ag23
aS'for'
p884
ag6
aS'variable_17'
p885
ag19
ag26
ag23
aS'variable_17'
p886
ag103
aS'variable_29'
p887
ag23
aS'variable_17'
p888
aS'++'
p889
ag10
aS'variable_31'
p890
aS'-='
p891
ag141
ag16
aS'variable_47'
p892
ag107
aS'variable_46'
p893
aS'++'
p894
ag109
ag19
aS'variable_10'
p895
ag23
aS'variable_47'
p896
ag107
aS'variable_46'
p897
aS'++'
p898
ag109
ag19
aS'variable_11'
p899
ag23
aS'func_11'
p900
ag6
aS'variable_29'
p901
ag8
ag141
ag16
ag23
aS'for'
p902
ag6
aS'variable_17'
p903
ag19
ag26
ag23
aS'variable_17'
p904
ag103
aS'variable_29'
p905
ag8
ag141
ag23
aS'variable_17'
p906
aS'++'
p907
ag10
aS'variable_31'
p908
aS'--'
p909
ag16
aS'variable_10'
p910
ag19
aS'variable_1'
p911
ag107
aS'variable_7'
p912
aS'++'
p913
ag109
ag23
aS'variable_47'
p914
ag107
aS'variable_46'
p915
aS'++'
p916
ag109
ag19
aS'variable_10'
p917
ag23
aS'variable_28'
p918
aS'+='
p919
aS'variable_4'
p920
aS'->'
p921
aS'variable_32'
p922
ag83
aS'variable_44'
p923
ag107
ag26
ag109
ag23
aS'variable_26'
p924
ag19
aS'func_12'
p925
ag6
ag99
aS'variable_1'
p926
ag107
aS'variable_7'
p927
ag109
ag16
ag23
aS'variable_7'
p928
aS'+='
p929
ag141
ag23
aS'variable_28'
p930
ag19
ag26
ag23
aS'variable_28'
p931
aS'+='
p932
aS'variable_26'
p933
ag8
aS'variable_4'
p934
aS'->'
p935
aS'variable_32'
p936
ag83
aS'variable_44'
p937
ag107
ag26
ag109
ag23
aS'variable_25'
p938
ag19
aS'func_13'
p939
ag6
ag99
aS'variable_1'
p940
ag107
aS'variable_7'
p941
ag109
ag16
ag23
aS'variable_7'
p942
aS'+='
p943
ag141
ag23
aS'while'
p944
ag6
aS'variable_25'
p945
ag125
ag26
ag16
aS'variable_46'
p946
ag19
aS'variable_28'
p947
ag23
aS'variable_31'
p948
ag19
aS'variable_4'
p949
aS'->'
p950
aS'variable_5'
p951
aS'->'
p952
aS'variable_48'
p953
ag23
aS'variable_27'
p954
ag19
aS'variable_1'
p955
ag107
aS'variable_7'
p956
aS'++'
p957
ag109
ag23
aS'if'
p958
ag6
aS'variable_27'
p959
ag125
ag26
ag16
aS'for'
p960
ag6
aS'variable_16'
p961
ag19
ag26
ag23
aS'variable_16'
p962
ag103
aS'variable_27'
p963
ag23
aS'variable_16'
p964
aS'++'
p965
ag16
aS'variable_30'
p966
ag19
aS'variable_1'
p967
ag107
aS'variable_7'
p968
aS'++'
p969
ag109
ag23
aS'variable_46'
p970
aS'+='
p971
aS'variable_30'
p972
ag23
aS'variable_31'
p973
aS'-='
p974
aS'variable_30'
p975
ag23
aS'variable_29'
p976
ag19
ag6
aS'signed'
p977
aS'char'
p978
ag16
ag6
aS'variable_1'
p979
ag107
aS'variable_7'
p980
aS'++'
p981
ag109
ag16
ag23
aS'if'
p982
ag6
aS'variable_29'
p983
ag125
ag26
ag16
aS'func_14'
p984
ag6
aS'variable_29'
p985
ag16
ag23
aS'for'
p986
ag6
aS'variable_17'
p987
ag19
ag26
ag23
aS'variable_17'
p988
ag103
aS'variable_29'
p989
ag23
aS'variable_17'
p990
aS'++'
p991
ag10
aS'variable_31'
p992
aS'--'
p993
ag16
aS'variable_10'
p994
ag19
aS'variable_1'
p995
ag107
aS'variable_7'
p996
aS'++'
p997
ag109
ag23
aS'variable_47'
p998
ag107
aS'variable_46'
p999
aS'++'
p1000
ag109
ag19
aS'variable_10'
p1001
ag23
aS'if'
p1002
ag6
aS'variable_29'
p1003
ag103
ag26
ag16
aS'variable_29'
p1004
ag19
ag148
aS'variable_29'
p1005
ag23
aS'variable_10'
p1006
ag19
aS'variable_1'
p1007
ag107
aS'variable_7'
p1008
aS'++'
p1009
ag109
ag23
aS'func_15'
p1010
ag6
aS'variable_29'
p1011
ag16
ag23
aS'for'
p1012
ag6
aS'variable_17'
p1013
ag19
ag26
ag23
aS'variable_17'
p1014
ag103
aS'variable_29'
p1015
ag23
aS'variable_17'
p1016
aS'++'
p1017
ag10
aS'variable_31'
p1018
aS'--'
p1019
ag16
aS'variable_47'
p1020
ag107
aS'variable_46'
p1021
aS'++'
p1022
ag109
ag19
aS'variable_10'
p1023
ag23
aS'variable_28'
p1024
aS'+='
p1025
aS'variable_4'
p1026
aS'->'
p1027
aS'variable_32'
p1028
ag83
aS'variable_44'
p1029
ag107
ag26
ag109
ag23
aS'variable_25'
p1030
aS'--'
p1031
ag23
aS'memset'
p1032
ag6
aS'variable_47'
p1033
ag10
ag26
ag10
aS'variable_4'
p1034
aS'->'
p1035
aS'variable_32'
p1036
ag83
aS'variable_44'
p1037
ag107
ag26
ag109
ag8
aS'variable_4'
p1038
aS'->'
p1039
aS'variable_5'
p1040
aS'->'
p1041
aS'variable_49'
p1042
ag16
ag23
aS'variable_28'
p1043
ag19
ag26
ag23
aS'for'
p1044
ag6
aS'variable_24'
p1045
ag19
ag26
ag23
aS'variable_24'
p1046
ag103
aS'variable_4'
p1047
aS'->'
p1048
aS'variable_5'
p1049
aS'->'
p1050
aS'variable_49'
p1051
ag23
aS'variable_24'
p1052
aS'++'
p1053
ag16
aS'variable_46'
p1054
ag19
aS'variable_28'
p1055
ag23
aS'variable_7'
p1056
aS'++'
p1057
ag23
aS'variable_31'
p1058
ag19
aS'variable_4'
p1059
aS'->'
p1060
aS'variable_5'
p1061
aS'->'
p1062
aS'variable_48'
p1063
ag23
aS'while'
p1064
ag6
aS'variable_31'
p1065
ag125
ag26
ag16
aS'variable_29'
p1066
ag19
ag6
aS'signed'
p1067
aS'char'
p1068
ag16
ag6
aS'variable_1'
p1069
ag107
aS'variable_7'
p1070
aS'++'
p1071
ag109
ag16
ag23
aS'if'
p1072
ag6
aS'variable_29'
p1073
ag125
ag26
ag16
aS'variable_10'
p1074
ag19
aS'variable_1'
p1075
ag107
aS'variable_7'
p1076
aS'++'
p1077
ag109
ag23
aS'func_16'
p1078
ag6
aS'variable_29'
p1079
ag16
ag23
aS'for'
p1080
ag6
aS'variable_17'
p1081
ag19
ag26
ag23
aS'variable_17'
p1082
ag103
aS'variable_29'
p1083
ag23
aS'variable_17'
p1084
aS'++'
p1085
ag16
aS'variable_47'
p1086
ag107
aS'variable_46'
p1087
aS'++'
p1088
ag109
ag19
aS'variable_10'
p1089
ag23
aS'variable_31'
p1090
aS'--'
p1091
ag23
aS'if'
p1092
ag6
aS'variable_31'
p1093
ag103
ag26
ag16
aS'func_17'
p1094
ag6
aS'variable_5'
p1095
ag10
aS'variable_45'
p1096
ag10
ag813
aS'pixel_countdown'
p1097
ag103
ag26
ag6
ag816
aS'd'
p1098
ag16
aS'at'
p1099
aS'line'
p1100
ag816
ag1098
ag820
ag821
ag813
ag10
aS'variable_31'
p1101
ag10
aS'variable_24'
p1102
ag16
ag23
aS'variable_29'
p1103
ag19
ag148
aS'variable_29'
p1104
ag23
aS'func_18'
p1105
ag6
aS'variable_29'
p1106
ag16
ag23
aS'for'
p1107
ag6
aS'variable_17'
p1108
ag19
ag26
ag23
aS'variable_17'
p1109
ag103
aS'variable_29'
p1110
ag23
aS'variable_17'
p1111
aS'++'
p1112
ag16
aS'variable_10'
p1113
ag19
aS'variable_1'
p1114
ag107
aS'variable_7'
p1115
aS'++'
p1116
ag109
ag23
aS'variable_47'
p1117
ag107
aS'variable_46'
p1118
aS'++'
p1119
ag109
ag19
aS'variable_10'
p1120
ag23
aS'variable_31'
p1121
aS'--'
p1122
ag23
aS'if'
p1123
ag6
aS'variable_31'
p1124
ag103
ag26
ag16
aS'func_19'
p1125
ag6
aS'variable_5'
p1126
ag10
aS'variable_45'
p1127
ag10
ag813
aS'pixel_countdown'
p1128
ag103
ag26
ag6
ag816
ag1098
ag16
aS'at'
p1129
aS'line'
p1130
ag816
ag1098
ag820
ag821
ag813
ag10
aS'variable_31'
p1131
ag10
aS'variable_24'
p1132
ag16
ag23
aS'variable_28'
p1133
aS'+='
p1134
aS'variable_4'
p1135
aS'->'
p1136
aS'variable_32'
p1137
ag83
aS'variable_44'
p1138
ag107
ag26
ag109
ag23
aS'if'
p1139
ag6
aS'variable_14'
p1140
ag148
ag112
ag125
aS'variable_4'
p1141
aS'->'
p1142
aS'variable_5'
p1143
aS'->'
p1144
aS'variable_48'
p1145
ag8
aS'variable_4'
p1146
aS'->'
p1147
aS'variable_5'
p1148
aS'->'
p1149
aS'variable_49'
p1150
ag16
aS'func_20'
p1151
ag6
aS'variable_5'
p1152
ag10
aS'variable_45'
p1153
ag10
ag813
aS'bigger'
p1154
aS'than'
p1155
aS'image'
p1156
ag10
aS'skipping'
p1157
aS'chunk'
p1158
ag820
ag821
ag813
ag10
aS'variable_14'
p1159
ag148
ag112
ag16
aS'variable_7'
p1160
aS'+='
p1161
aS'variable_14'
p1162
ag148
ag112
ag23
aS'for'
p1163
ag6
aS'variable_28'
p1164
ag19
ag26
ag23
aS'variable_28'
p1165
ag103
aS'variable_4'
p1166
aS'->'
p1167
aS'variable_32'
p1168
ag83
aS'variable_44'
p1169
ag107
ag26
ag109
ag8
aS'variable_28'
p1170
aS'+='
p1171
aS'variable_4'
p1172
aS'->'
p1173
aS'variable_32'
p1174
ag83
aS'variable_44'
p1175
ag107
ag26
ag109
ag16
aS'memcpy'
p1176
ag6
ag99
aS'variable_47'
p1177
ag107
aS'variable_28'
p1178
ag109
ag10
ag99
aS'variable_1'
p1179
ag107
aS'variable_7'
p1180
ag109
ag10
aS'variable_4'
p1181
aS'->'
p1182
aS'variable_5'
p1183
aS'->'
p1184
aS'variable_48'
p1185
ag16
ag23
aS'variable_7'
p1186
aS'+='
p1187
aS'variable_4'
p1188
aS'->'
p1189
aS'variable_5'
p1190
aS'->'
p1191
aS'variable_48'
p1192
ag23
aS'variable_7'
p1193
aS'+='
p1194
aS'variable_14'
p1195
ag148
ag112
ag23
aS'func_21'
p1196
ag6
aS'variable_5'
p1197
ag10
aS'variable_45'
p1198
ag10
ag813
aS'Unrecognized'
p1199
aS'chunk'
p1200
aS'type'
p1201
aS':'
p1202
ag816
ag1098
ag820
ag821
ag813
ag10
aS'variable_15'
p1203
ag16
ag23
aS'variable_12'
p1204
aS'-='
p1205
aS'variable_14'
p1206
ag23
aS'variable_13'
p1207
aS'--'
p1208
ag23
aS'if'
p1209
ag6
ag6
aS'variable_7'
p1210
aS'!='
p1211
aS'variable_2'
p1212
ag16
aS'&&'
p1213
ag6
aS'variable_7'
p1214
aS'!='
p1215
aS'variable_2'
p1216
ag148
ag85
ag16
ag16
aS'memcpy'
p1217
ag6
aS'variable_4'
p1218
aS'->'
p1219
aS'variable_32'
p1220
ag83
aS'variable_0'
p1221
ag107
ag85
ag109
ag10
aS'variable_4'
p1222
aS'->'
p1223
aS'variable_42'
p1224
ag10
aS'variable_50'
p1225
ag16
ag23
aS'if'
p1226
ag6
aS'variable_4'
p1227
aS'->'
p1228
aS'variable_43'
p1229
ag16
aS'variable_4'
p1230
aS'->'
p1231
aS'variable_32'
p1232
ag83
aS'variable_51'
p1233
ag19
ag85
ag23
aS'variable_4'
p1234
aS'->'
p1235
aS'variable_43'
p1236
ag19
ag26
ag23
ag8
ag6
aS'AVFrame'
p1237
ag8
ag16
aS'variable_0'
p1238
ag19
aS'variable_4'
p1239
aS'->'
p1240
aS'variable_32'
p1241
ag23
aaa(lp1242
I0
aI0
aa(lp1243
I523
aI228
aa(lp1244
(lp1245
S'main'
p1246
aa(lp1247
g1246
aaa(lp1248
S'142 /home/SySeVR/data/CVE_2010_3429_PATCHED_flic_decode_frame_8BPP.c pixel_ptr = y_ptr + s -> frame . linesize [ 0 ] - 1 130'
p1249
aS'143 /home/SySeVR/data/CVE_2010_3429_PATCHED_flic_decode_frame_8BPP.c stream_ptr_after_color_chunk = stream_ptr + chunk_size - 6 65'
p1250
aa.