(lp0
(lp1
(lp2
S'variable_0'
p3
aS':'
p4
ag4
aS'func_0'
p5
aS'('
p6
aS')'
p7
aS'WCHAR'
p8
aS'variable_1'
p9
aS'['
p10
aS'variable_2'
p11
aS'+'
p12
aS'sizeof'
p13
ag6
aS'"'
p14
aS'sensor'
p15
aS'.'
p16
aS'dll'
p17
ag14
ag7
aS']'
p18
aS';'
p19
aS'if'
p20
ag6
aS'func_1'
p21
ag6
aS'variable_1'
p22
aS','
p23
aS'variable_2'
p24
ag7
ag7
aS'variable_3'
p25
aS'='
p26
aS'func_2'
p27
ag6
aS'variable_1'
p28
ag7
ag19
aS'if'
p29
ag6
aS'!'
p30
aS'variable_3'
p31
ag7
aS'variable_4'
p32
ag26
ag6
aS'variable_5'
p33
ag7
aS'func_3'
p34
ag6
aS'variable_3'
p35
ag23
ag14
aS'ShockproofGetAccelerometerData'
p36
ag14
ag7
ag19
aS'if'
p37
ag6
ag30
aS'variable_4'
p38
ag7
aS'FreeLibrary'
p39
ag6
aS'variable_3'
p40
ag7
ag19
aaa(lp41
I0
aa(lp42
I32
aa(lp43
(lp44
S'main'
p45
aaa(lp46
S'862 /home/SySeVR/data/CVE_2011_2980_PATCHED_ThinkPadSensor__Startup.c LoadLibraryW 7'
p47
aa.