(lp0
(lp1
(lp2
S'func_0'
p3
aS'('
p4
aS'variable_0'
p5
aS'*'
p6
aS'variable_1'
p7
aS','
p8
aS'variable_2'
p9
ag6
aS'variable_3'
p10
ag8
aS'variable_4'
p11
ag6
aS'variable_5'
p12
ag8
aS'variable_6'
p13
ag6
aS'variable_7'
p14
aS')'
p15
aS'const'
p16
aS'jschar'
p17
ag6
aS'variable_8'
p18
aS';'
p19
aS'size_t'
p20
aS'variable_9'
p21
ag19
aS'if'
p22
ag4
aS'variable_5'
p23
ag15
aS'variable_9'
p24
aS'='
p25
aS'variable_5'
p26
aS'->'
p27
aS'func_1'
p28
ag4
ag15
ag19
aS'variable_8'
p29
ag25
aS'variable_5'
p30
aS'->'
p31
aS'func_2'
p32
ag4
aS'variable_1'
p33
ag15
ag19
aS'if'
p34
ag4
aS'!'
p35
aS'variable_8'
p36
ag15
aS'variable_9'
p37
ag25
aS'1'
p38
ag19
aS'AutoArrayCycleDetector'
p39
aS'func_3'
p40
ag4
aS'variable_1'
p41
ag8
aS'variable_3'
p42
ag15
ag19
aS'if'
p43
ag4
ag35
aS'variable_10'
p44
aS'.'
p45
aS'func_4'
p46
ag4
ag15
ag15
aS'if'
p47
ag4
aS'variable_10'
p48
ag45
aS'func_5'
p49
ag4
ag15
ag15
aS'jsuint'
p50
aS'variable_11'
p51
ag19
aS'if'
p52
ag4
ag35
aS'func_6'
p53
ag4
aS'variable_1'
p54
ag8
aS'variable_3'
p55
ag8
aS'&'
p56
aS'variable_11'
p57
ag15
ag15
aS'if'
p58
ag4
ag35
aS'variable_12'
p59
aS'&&'
p60
ag35
aS'variable_9'
p61
aS'&&'
p62
aS'variable_3'
p63
aS'->'
p64
aS'func_7'
p65
ag4
ag15
aS'&&'
p66
ag35
aS'func_8'
p67
ag4
aS'variable_1'
p68
ag8
aS'variable_3'
p69
ag15
ag15
aS'const'
p70
aS'Value'
p71
ag6
aS'variable_13'
p72
ag25
aS'variable_3'
p73
aS'->'
p74
aS'func_9'
p75
ag4
ag15
ag19
aS'const'
p76
aS'Value'
p77
ag6
aS'variable_14'
p78
ag25
aS'variable_13'
p79
aS'+'
p80
aS'func_10'
p81
ag4
aS'variable_11'
p82
ag8
aS'variable_3'
p83
aS'->'
p84
aS'func_11'
p85
ag4
ag15
ag15
ag19
aS'for'
p86
ag4
aS'const'
p87
aS'Value'
p88
ag6
aS'variable_15'
p89
ag25
aS'variable_13'
p90
ag19
aS'variable_15'
p91
aS'!='
p92
aS'variable_14'
p93
ag19
aS'++'
p94
aS'variable_15'
p95
ag15
aaa(lp96
I0
aa(lp97
I147
aa(lp98
(lp99
S'main'
p100
aaa(lp101
S'772 /home/SySeVR/data/CVE_2012_0464_VULN_array_toString_sub.c const Value * end = beg + Min ( length , obj -> getDenseArrayInitializedLength ( ) ) ; 36'
p102
aa.