(lp0
(lp1
(lp2
S'int'
p3
aS'func_0'
p4
aS'('
p5
aS'struct'
p6
aS'variable_0'
p7
aS'*'
p8
aS'variable_0'
p9
aS','
p10
aS'void'
p11
aS'variable_1'
p12
ag8
aS'variable_2'
p13
ag10
aS'int'
p14
aS'variable_3'
p15
aS')'
p16
aS'unsigned'
p17
aS'long'
p18
aS'variable_4'
p19
aS';'
p20
aS'void'
p21
ag8
aS'variable_5'
p22
ag20
aS'variable_5'
p23
aS'='
p24
aS'func_1'
p25
ag5
aS'variable_0'
p26
ag16
ag20
aS'if'
p27
ag5
aS'variable_3'
p28
ag16
aS'variable_4'
p29
ag24
aS'func_2'
p30
ag5
aS'variable_5'
p31
aS'+'
p32
aS'variable_6'
p33
ag10
aS'variable_2'
p34
ag10
aS'variable_7'
p35
ag16
ag20
aS'return'
p36
aS'variable_4'
p37
aS'?'
p38
aS'-'
p39
aS'variable_8'
p40
aS':'
p41
aS'0'
p42
ag20
aa(lp43
S'int'
p44
aS'func_0'
p45
ag5
aS'struct'
p46
aS'variable_0'
p47
ag8
aS'variable_0'
p48
ag10
aS'void'
p49
aS'variable_1'
p50
ag8
aS'variable_2'
p51
ag10
aS'int'
p52
aS'variable_3'
p53
ag16
aS'unsigned'
p54
aS'long'
p55
aS'variable_4'
p56
ag20
aS'void'
p57
ag8
aS'variable_5'
p58
ag20
aS'variable_5'
p59
ag24
aS'func_1'
p60
ag5
aS'variable_0'
p61
ag16
ag20
aS'if'
p62
ag5
aS'variable_3'
p63
ag16
aS'variable_4'
p64
ag24
aS'func_2'
p65
ag5
aS'variable_2'
p66
ag10
aS'variable_5'
p67
ag32
aS'variable_6'
p68
ag10
aS'variable_7'
p69
ag16
ag20
aS'return'
p70
aS'variable_4'
p71
ag38
ag39
aS'variable_8'
p72
ag41
ag42
ag20
aaa(lp73
I0
aI0
aa(lp74
I48
aI48
aa(lp75
(lp76
S'main'
p77
aa(lp78
g77
aaa(lp79
S'160 /home/SySeVR/data/CVE_2010_3904_PATCHED_rds_page_copy_user.c ret = copy_from_user ( addr + offset , ptr , bytes ) 14'
p80
aS'161 /home/SySeVR/data/CVE_2010_3904_PATCHED_rds_page_copy_user.c ret = copy_to_user ( ptr , addr + offset , bytes ) 11'
p81
aa.