(lp0
(lp1
(lp2
S'variable_0'
p3
aS':'
p4
ag4
aS'func_0'
p5
aS'('
p6
aS'variable_1'
p7
aS'*'
p8
aS'variable_2'
p9
aS'&'
p10
aS'const'
p11
aS'variable_3'
p12
ag10
aS'variable_4'
p13
ag10
aS'variable_5'
p14
aS')'
p15
aS'PRTime'
p16
aS'variable_6'
p17
aS'='
p18
aS'0'
p19
aS';'
p20
aS'if'
p21
ag6
aS'variable_7'
p22
ag15
aS'variable_6'
p23
ag18
aS'func_1'
p24
ag6
ag15
ag20
aS'const'
p25
aS'nsHTMLReflowState'
p26
ag8
aS'variable_8'
p27
ag18
ag10
aS'variable_9'
p28
ag20
aS'variable_10'
p29
aS'<'
p30
aS'variable_3'
p31
aS'>'
p32
aS'variable_11'
p33
ag20
aS'if'
p34
ag6
aS'variable_9'
p35
aS'.'
p36
aS'variable_12'
p37
aS'!='
p38
aS'variable_13'
p39
aS'&&'
p40
aS'variable_9'
p41
ag36
aS'func_2'
p42
ag6
ag15
aS'!='
p43
aS'variable_14'
p44
aS'&&'
p45
aS'func_3'
p46
ag6
aS'variable_15'
p47
aS','
p48
aS'variable_9'
p49
ag36
aS'variable_16'
p50
ag15
ag15
aS'nsMargin'
p51
aS'variable_17'
p52
ag18
aS'variable_9'
p53
ag36
aS'variable_18'
p54
ag20
aS'if'
p55
ag6
aS'func_4'
p56
ag6
ag15
ag10
aS'variable_19'
p57
ag15
aS'variable_17'
p58
ag36
aS'variable_20'
p59
ag18
ag19
ag20
aS'variable_17'
p60
ag36
aS'variable_20'
p61
aS'+='
p62
aS'variable_9'
p63
ag36
aS'variable_21'
p64
ag36
aS'variable_20'
p65
ag20
aS'if'
p66
ag6
aS'func_5'
p67
ag6
aS'variable_9'
p68
ag15
aS'+'
p69
aS'variable_17'
p70
ag36
aS'func_6'
p71
ag6
ag15
ag30
ag18
aS'variable_9'
p72
ag36
aS'variable_12'
p73
ag15
aS'variable_11'
p74
ag18
aS'new'
p75
aS'func_7'
p76
ag6
aS'variable_9'
p77
ag15
ag20
aS'variable_11'
p78
aS'->'
p79
aS'variable_12'
p80
ag18
aS'variable_13'
p81
ag20
aS'variable_8'
p82
ag18
aS'variable_11'
p83
ag20
aS'if'
p84
ag6
aS'func_8'
p85
ag6
ag8
aS'variable_8'
p86
ag48
aS'variable_22'
p87
ag48
aS'variable_5'
p88
ag15
ag15
aS'nsBlockReflowState'
p89
aS'func_9'
p90
ag6
ag8
aS'variable_8'
p91
ag48
aS'variable_23'
p92
ag48
aS'variable_15'
p93
ag48
aS'variable_22'
p94
ag48
aS'variable_24'
p95
ag48
aS'variable_25'
p96
ag48
aS'variable_26'
p97
ag15
ag20
aS'variable_27'
p98
ag36
aS'variable_28'
p99
ag18
ag10
aS'variable_29'
p100
ag20
aS'nsOverflowAreas'
p101
aS'variable_30'
p102
ag20
aS'nsReflowStatus'
p103
aS'variable_31'
p104
ag18
aS'variable_32'
p105
ag20
aS'variable_33'
p106
ag18
aS'func_10'
p107
ag6
aS'variable_27'
p108
ag48
aS'variable_30'
p109
ag48
aS'variable_31'
p110
ag15
ag20
aS'variable_33'
p111
ag18
aS'func_11'
p112
ag6
aS'variable_27'
p113
ag15
ag20
aS'if'
p114
ag6
aS'func_12'
p115
ag6
aS'variable_33'
p116
ag15
ag15
aS'if'
p117
ag6
aS'variable_7'
p118
ag15
aS'PRTime'
p119
aS'variable_34'
p120
ag18
aS'func_13'
p121
ag6
ag15
ag20
aS'int32_t'
p122
aS'variable_35'
p123
ag18
aS'variable_36'
p124
ag36
aS'func_14'
p125
ag6
ag15
ag20
aS'if'
p126
ag6
aS'!'
p127
aS'variable_35'
p128
ag15
aS'variable_35'
p129
ag18
aS'1'
p130
ag20
aS'PRTime'
p131
aS'variable_37'
p132
ag48
aS'variable_38'
p133
ag48
aS'variable_39'
p134
ag20
aS'variable_39'
p135
ag18
aS'func_15'
p136
ag6
aS'variable_35'
p137
ag15
ag20
aS'variable_37'
p138
ag18
aS'variable_34'
p139
aS'-'
p140
aS'variable_6'
p141
ag20
aS'variable_38'
p142
ag18
aS'variable_37'
p143
aS'/'
p144
aS'variable_39'
p145
ag20
aS'func_16'
p146
ag6
aS'variable_40'
p147
ag48
aS'sizeof'
p148
ag6
aS'variable_40'
p149
ag15
ag48
aS'"'
p150
ag4
aS'%'
p151
aS'lld'
p152
aS'elapsed'
p153
ag6
ag151
aS'lld'
p154
aS'per'
p155
aS'line'
p156
ag15
ag6
ag151
aS'd'
p157
aS'lines'
p158
ag20
ag151
ag157
aS'new'
p159
aS'lines'
p160
ag15
ag150
ag48
aS'variable_37'
p161
ag48
aS'variable_38'
p162
ag48
aS'variable_35'
p163
ag48
aS'variable_41'
p164
ag140
aS'variable_42'
p165
ag15
ag20
aa(lp166
S'variable_0'
p167
ag4
ag4
aS'func_0'
p168
ag6
aS'variable_1'
p169
ag8
aS'variable_2'
p170
ag10
aS'const'
p171
aS'variable_3'
p172
ag10
aS'variable_4'
p173
ag10
aS'variable_5'
p174
ag15
aS'PRTime'
p175
aS'variable_6'
p176
ag18
ag19
ag20
aS'if'
p177
ag6
aS'variable_7'
p178
ag15
aS'variable_6'
p179
ag18
aS'func_1'
p180
ag6
ag15
ag20
aS'const'
p181
aS'nsHTMLReflowState'
p182
ag8
aS'variable_8'
p183
ag18
ag10
aS'variable_9'
p184
ag20
aS'variable_10'
p185
ag30
aS'variable_3'
p186
ag32
aS'variable_11'
p187
ag20
aS'if'
p188
ag6
aS'variable_9'
p189
ag36
aS'variable_12'
p190
aS'!='
p191
aS'variable_13'
p192
aS'&&'
p193
aS'variable_9'
p194
ag36
aS'func_2'
p195
ag6
ag15
aS'!='
p196
aS'variable_14'
p197
aS'&&'
p198
aS'func_3'
p199
ag6
aS'variable_15'
p200
ag48
aS'variable_9'
p201
ag36
aS'variable_16'
p202
ag15
ag15
aS'nsMargin'
p203
aS'variable_17'
p204
ag18
aS'variable_9'
p205
ag36
aS'variable_18'
p206
ag20
aS'if'
p207
ag6
aS'func_4'
p208
ag6
ag15
ag10
aS'variable_19'
p209
ag15
aS'variable_17'
p210
ag36
aS'variable_20'
p211
ag18
ag19
ag20
aS'variable_17'
p212
ag36
aS'variable_20'
p213
aS'+='
p214
aS'variable_9'
p215
ag36
aS'variable_21'
p216
ag36
aS'variable_20'
p217
ag20
aS'if'
p218
ag6
aS'func_5'
p219
ag6
aS'variable_9'
p220
ag15
ag69
aS'variable_17'
p221
ag36
aS'func_6'
p222
ag6
ag15
ag30
ag18
aS'variable_9'
p223
ag36
aS'variable_12'
p224
ag15
aS'variable_11'
p225
ag18
aS'new'
p226
aS'func_7'
p227
ag6
aS'variable_9'
p228
ag15
ag20
aS'variable_11'
p229
aS'->'
p230
aS'variable_12'
p231
ag18
aS'variable_13'
p232
ag20
aS'variable_8'
p233
ag18
aS'variable_11'
p234
ag20
aS'if'
p235
ag6
aS'func_8'
p236
ag6
ag8
aS'variable_8'
p237
ag48
aS'variable_22'
p238
ag48
aS'variable_5'
p239
ag15
ag15
aS'nsBlockReflowState'
p240
aS'func_9'
p241
ag6
ag8
aS'variable_8'
p242
ag48
aS'variable_23'
p243
ag48
aS'variable_15'
p244
ag48
aS'variable_22'
p245
ag48
aS'variable_24'
p246
ag48
aS'variable_25'
p247
ag48
aS'variable_26'
p248
ag15
ag20
aS'variable_27'
p249
ag36
aS'variable_28'
p250
ag18
ag10
aS'variable_29'
p251
ag20
aS'nsOverflowAreas'
p252
aS'variable_30'
p253
ag20
aS'nsReflowStatus'
p254
aS'variable_31'
p255
ag18
aS'variable_32'
p256
ag20
aS'variable_33'
p257
ag18
aS'func_10'
p258
ag6
aS'variable_27'
p259
ag48
aS'variable_30'
p260
ag48
aS'variable_31'
p261
ag15
ag20
aS'variable_33'
p262
ag18
aS'func_11'
p263
ag6
aS'variable_27'
p264
ag15
ag20
aS'if'
p265
ag6
aS'func_12'
p266
ag6
aS'variable_33'
p267
ag15
ag15
aS'if'
p268
ag6
aS'variable_7'
p269
ag15
aS'PRTime'
p270
aS'variable_34'
p271
ag18
aS'func_13'
p272
ag6
ag15
ag20
aS'PRTime'
p273
aS'variable_35'
p274
ag48
aS'variable_36'
p275
ag48
aS'variable_37'
p276
ag20
aS'variable_35'
p277
ag18
aS'variable_34'
p278
ag140
aS'variable_6'
p279
ag20
aS'variable_36'
p280
ag18
aS'variable_35'
p281
ag144
aS'variable_37'
p282
ag20
aS'func_14'
p283
ag6
aS'variable_38'
p284
ag48
aS'sizeof'
p285
ag6
aS'variable_38'
p286
ag15
ag48
ag150
ag4
ag151
aS'lld'
p287
aS'elapsed'
p288
ag6
ag151
aS'lld'
p289
aS'per'
p290
aS'line'
p291
ag15
ag6
ag151
ag157
aS'lines'
p292
ag20
ag151
ag157
aS'new'
p293
aS'lines'
p294
ag15
ag150
ag48
aS'variable_35'
p295
ag48
aS'variable_36'
p296
ag48
aS'variable_39'
p297
ag48
aS'variable_40'
p298
ag140
aS'variable_41'
p299
ag15
ag20
aa(lp300
S'variable_0'
p301
ag4
ag4
aS'func_0'
p302
ag6
aS'variable_1'
p303
ag8
aS'variable_2'
p304
ag10
aS'const'
p305
aS'variable_3'
p306
ag10
aS'variable_4'
p307
ag10
aS'variable_5'
p308
ag15
aS'const'
p309
aS'nsHTMLReflowState'
p310
ag8
aS'variable_6'
p311
ag18
ag10
aS'variable_7'
p312
ag20
aS'variable_8'
p313
ag30
aS'variable_3'
p314
ag32
aS'variable_9'
p315
ag20
aS'if'
p316
ag6
aS'variable_7'
p317
ag36
aS'variable_10'
p318
aS'!='
p319
aS'variable_11'
p320
aS'&&'
p321
aS'variable_7'
p322
ag36
aS'func_1'
p323
ag6
ag15
aS'!='
p324
aS'variable_12'
p325
aS'&&'
p326
aS'func_2'
p327
ag6
aS'variable_13'
p328
ag48
aS'variable_7'
p329
ag36
aS'variable_14'
p330
ag15
ag15
aS'nsMargin'
p331
aS'variable_15'
p332
ag18
aS'variable_7'
p333
ag36
aS'variable_16'
p334
ag20
aS'if'
p335
ag6
aS'func_3'
p336
ag6
ag15
ag10
aS'variable_17'
p337
ag15
aS'variable_15'
p338
ag36
aS'variable_18'
p339
ag18
ag19
ag20
aS'variable_15'
p340
ag36
aS'variable_18'
p341
aS'+='
p342
aS'variable_7'
p343
ag36
aS'variable_19'
p344
ag36
aS'variable_18'
p345
ag20
aS'if'
p346
ag6
aS'func_4'
p347
ag6
aS'variable_7'
p348
ag15
ag69
aS'variable_15'
p349
ag36
aS'func_5'
p350
ag6
ag15
ag30
ag18
aS'variable_7'
p351
ag36
aS'variable_10'
p352
ag15
aS'variable_9'
p353
ag18
aS'new'
p354
aS'func_6'
p355
ag6
aS'variable_7'
p356
ag15
ag20
aS'variable_9'
p357
aS'->'
p358
aS'variable_10'
p359
ag18
aS'variable_11'
p360
ag20
aS'variable_6'
p361
ag18
aS'variable_9'
p362
ag20
aS'if'
p363
ag6
aS'func_7'
p364
ag6
ag8
aS'variable_6'
p365
ag48
aS'variable_20'
p366
ag48
aS'variable_5'
p367
ag15
ag15
aS'nsBlockReflowState'
p368
aS'func_8'
p369
ag6
ag8
aS'variable_6'
p370
ag48
aS'variable_21'
p371
ag48
aS'variable_13'
p372
ag48
aS'variable_20'
p373
ag48
aS'variable_22'
p374
ag48
aS'variable_23'
p375
ag48
aS'variable_24'
p376
ag15
ag20
aS'variable_25'
p377
ag36
aS'variable_26'
p378
ag18
ag10
aS'variable_27'
p379
ag20
aS'nsOverflowAreas'
p380
aS'variable_28'
p381
ag20
aS'nsReflowStatus'
p382
aS'variable_29'
p383
ag18
aS'variable_30'
p384
ag20
aS'variable_31'
p385
ag18
aS'func_9'
p386
ag6
aS'variable_25'
p387
ag48
aS'variable_28'
p388
ag48
aS'variable_29'
p389
ag15
ag20
aS'variable_31'
p390
ag18
aS'func_10'
p391
ag6
aS'variable_25'
p392
ag15
ag20
aS'if'
p393
ag6
aS'func_11'
p394
ag6
aS'variable_31'
p395
ag15
ag15
aS'if'
p396
ag6
aS'func_12'
p397
ag6
ag15
aS'&&'
p398
ag127
aS'variable_32'
p399
ag36
aS'func_13'
p400
ag6
ag15
aS'&&'
p401
ag6
aS'variable_32'
p402
ag36
aS'func_14'
p403
ag6
ag15
aS'->'
p404
aS'func_15'
p405
ag6
ag15
aS'||'
p406
ag6
ag19
aS'=='
p407
aS'variable_32'
p408
ag36
aS'func_16'
p409
ag6
ag15
aS'->'
p410
aS'variable_33'
p411
ag36
aS'variable_34'
p412
aS'&&'
p413
aS'variable_32'
p414
ag36
aS'func_17'
p415
ag6
ag15
aS'!='
p416
aS'variable_32'
p417
ag36
aS'func_18'
p418
ag6
ag15
aS'&&'
p419
aS'variable_32'
p420
ag36
aS'begin'
p421
ag6
ag15
ag36
aS'next'
p422
ag6
ag15
aS'->'
p423
aS'func_19'
p424
ag6
ag15
ag15
ag15
ag15
aS'nsHTMLReflowMetrics'
p425
aS'variable_35'
p426
ag20
aS'variable_36'
p427
ag4
ag4
aS'LinePosition'
p428
aS'variable_37'
p429
ag20
aS'bool'
p430
aS'variable_38'
p431
ag18
aS'variable_36'
p432
ag4
ag4
aS'func_20'
p433
ag6
aS'variable_13'
p434
ag48
ag10
aS'variable_37'
p435
ag15
ag20
aS'variable_39'
p436
ag8
aS'variable_40'
p437
ag18
aS'func_21'
p438
ag6
ag15
ag20
aS'if'
p439
ag6
aS'variable_38'
p440
aS'&&'
p441
ag127
aS'func_22'
p442
ag6
ag15
ag15
aS'nsRect'
p443
aS'variable_41'
p444
ag18
aS'variable_40'
p445
aS'->'
p446
aS'func_23'
p447
ag6
ag15
ag20
aS'variable_41'
p448
ag36
aS'variable_42'
p449
ag18
aS'variable_37'
p450
ag36
aS'variable_43'
p451
ag140
aS'variable_35'
p452
ag36
aS'variable_44'
p453
ag20
aS'variable_40'
p454
aS'->'
p455
aS'SetRect'
p456
ag6
aS'variable_41'
p457
ag15
ag20
aaa(lp458
I0
aI0
aI0
aa(lp459
I260
aI229
aI316
aa(lp460
(lp461
S'main'
p462
aa(lp463
g462
aa(lp464
g462
aaa(lp465
S'483 /home/SySeVR/data/CVE_2013_1732_VULN_nsBlockFrame__Reflow.c perLineDelta = delta / lines 321'
p466
aS'484 /home/SySeVR/data/CVE_2013_1732_VULN_nsBlockFrame__Reflow.c delta = end - start 320'
p467
aS'485 /home/SySeVR/data/CVE_2013_1732_VULN_nsBlockFrame__Reflow.c bbox . y = position . mBaseline - metrics . ascent 189'
p468
aa.