(lp0
(lp1
(lp2
S'func_0'
p3
aS'('
p4
aS'const'
p5
aS'guchar'
p6
aS'*'
p7
aS'variable_0'
p8
aS','
p9
aS'size_t'
p10
aS'variable_1'
p11
ag9
aS'variable_2'
p12
ag7
aS'variable_3'
p13
aS')'
p14
aS'const'
p15
aS'guchar'
p16
ag7
aS'variable_4'
p17
ag9
ag7
aS'variable_5'
p18
aS';'
p19
aS'int'
p20
aS'variable_6'
p21
ag19
aS'gchar'
p22
aS'variable_7'
p23
aS'['
p24
aS'4'
p25
aS']'
p26
ag19
aS'if'
p27
ag4
aS'variable_1'
p28
aS'>'
p29
aS'='
p30
aS'5'
p31
aS'&&'
p32
aS'func_1'
p33
ag4
aS'"'
p34
aS'RTSP'
p35
aS'/'
p36
ag34
ag9
aS'variable_0'
p37
ag9
ag31
ag14
aS'=='
p38
aS'0'
p39
ag14
aS'variable_6'
p40
ag30
aS'func_2'
p41
ag4
aS'variable_0'
p42
ag9
aS'variable_0'
p43
aS'+'
p44
ag31
ag9
aS'&'
p45
aS'variable_4'
p46
ag14
ag19
aS'if'
p47
ag4
aS'variable_6'
p48
aS'!='
p49
ag39
ag14
aS'variable_6'
p50
ag30
aS'func_3'
p51
ag4
aS'variable_4'
p52
ag9
aS'variable_0'
p53
ag44
aS'variable_1'
p54
ag9
ag45
aS'variable_5'
p55
ag14
ag19
aS'if'
p56
ag4
aS'variable_6'
p57
ag29
ag30
aS'3'
p58
ag14
aS'memcpy'
p59
ag4
aS'variable_7'
p60
ag9
aS'variable_4'
p61
ag9
ag58
ag14
ag19
aS'variable_7'
p62
ag24
ag58
ag26
ag30
aS"'"
p63
aS'\\'
p64
ag39
ag63
ag19
aS'variable_8'
p65
aS'->'
p66
aS'variable_9'
p67
ag30
ag4
aS'variable_10'
p68
ag14
aS'strtoul'
p69
ag4
aS'variable_7'
p70
ag9
aS'NULL'
p71
ag9
aS'10'
p72
ag14
ag19
aaa(lp73
I0
aa(lp74
I91
aa(lp75
(lp76
S'main'
p77
aaa(lp78
S'575 /home/SySeVR/data/CVE_2014_6427_PATCHED_is_rtsp_request_or_reply.c memcpy 21'
p79
aa.