(lp0
(lp1
(lp2
S'func_0'
p3
aS'('
p4
aS'const'
p5
aS'guchar'
p6
aS'*'
p7
aS'variable_0'
p8
aS','
p9
aS'size_t'
p10
aS'variable_1'
p11
ag9
aS'variable_2'
p12
ag7
aS'variable_3'
p13
aS')'
p14
aS'const'
p15
aS'guchar'
p16
ag7
aS'variable_4'
p17
ag9
ag7
aS'variable_5'
p18
aS';'
p19
aS'int'
p20
aS'variable_6'
p21
ag19
aS'if'
p22
ag4
aS'variable_1'
p23
aS'>'
p24
aS'='
p25
aS'5'
p26
aS'&&'
p27
aS'func_1'
p28
ag4
aS'"'
p29
aS'RTSP'
p30
aS'/'
p31
ag29
ag9
aS'variable_0'
p32
ag9
ag26
ag14
aS'=='
p33
aS'0'
p34
ag14
aS'variable_6'
p35
ag25
aS'func_2'
p36
ag4
aS'variable_0'
p37
ag9
aS'variable_0'
p38
aS'+'
p39
ag26
ag9
aS'&'
p40
aS'variable_4'
p41
ag14
ag19
aS'if'
p42
ag4
aS'variable_6'
p43
aS'!='
p44
ag34
ag14
aS'variable_6'
p45
ag25
aS'func_3'
p46
ag4
aS'variable_4'
p47
ag9
aS'variable_0'
p48
ag39
aS'variable_1'
p49
ag9
ag40
aS'variable_5'
p50
ag14
ag19
aS'if'
p51
ag4
aS'variable_6'
p52
ag24
ag25
aS'3'
p53
ag14
aaa(lp54
I0
aa(lp55
I77
aa(lp56
(lp57
S'main'
p58
aaa(lp59
S'629 /home/SySeVR/data/CVE_2014_6427_PATCHED_is_rtsp_request_or_reply.c tokenlen = get_token_len ( token , line + linelen , & next_token ) 19'
p60
aa.