(lp0
(lp1
(lp2
S'static'
p3
aS'void'
p4
aS'func_0'
p5
aS'('
p6
aS'variable_0'
p7
aS'*'
p8
aS'variable_1'
p9
aS')'
p10
aS'if'
p11
ag6
aS'variable_1'
p12
aS'->'
p13
aS'variable_2'
p14
aS'<'
p15
aS'24'
p16
ag10
aS'int'
p17
aS'variable_3'
p18
aS','
p19
aS'variable_4'
p20
ag19
aS'variable_5'
p21
ag19
aS'variable_6'
p22
aS';'
p23
aS'int'
p24
aS'variable_4'
p25
ag19
aS'variable_7'
p26
ag19
aS'variable_8'
p27
ag19
aS'variable_9'
p28
ag19
aS'variable_10'
p29
ag23
aS'int'
p30
aS'variable_11'
p31
aS'='
p32
aS'variable_1'
p33
aS'->'
p34
aS'variable_12'
p35
ag23
aS'int'
p36
aS'variable_13'
p37
ag32
aS'!'
p38
aS'variable_1'
p39
aS'->'
p40
aS'variable_12'
p41
ag23
aS'for'
p42
ag6
aS'variable_4'
p43
ag32
aS'0'
p44
ag19
aS'variable_8'
p45
ag32
aS'-'
p46
aS'16'
p47
ag23
aS'variable_8'
p48
ag15
aS'16'
p49
ag23
aS'variable_8'
p50
aS'++'
p51
ag10
aS'int'
p52
aS'variable_14'
p53
ag32
aS'variable_1'
p54
aS'->'
p55
aS'variable_15'
p56
aS'['
p57
aS'variable_11'
p58
aS']'
p59
ag57
aS'variable_8'
p60
aS'&'
p61
aS'255'
p62
ag59
ag23
aS'int'
p63
aS'variable_16'
p64
ag32
aS'variable_17'
p65
ag46
aS'variable_14'
p66
ag23
aS'if'
p67
ag6
aS'variable_16'
p68
ag15
aS'2'
p69
ag10
aS'for'
p70
ag6
aS'variable_7'
p71
ag32
ag46
aS'16'
p72
ag23
aS'variable_7'
p73
ag15
aS'16'
p74
ag23
aS'variable_7'
p75
aS'++'
p76
ag10
aS'int'
p77
aS'variable_18'
p78
ag32
aS'variable_1'
p79
aS'->'
p80
aS'variable_15'
p81
ag57
aS'variable_13'
p82
ag59
ag57
aS'variable_7'
p83
ag61
aS'255'
p84
ag59
ag23
aS'int'
p85
aS'variable_19'
p86
ag32
aS'variable_16'
p87
ag46
aS'variable_18'
p88
ag23
aS'if'
p89
ag6
aS'variable_19'
p90
ag15
aS'1'
p91
ag10
aS'if'
p92
ag6
aS'variable_20'
p93
aS'>'
p94
aS'variable_19'
p95
ag10
aa(lp96
S'static'
p97
aS'void'
p98
aS'func_0'
p99
ag6
aS'variable_0'
p100
ag8
aS'variable_1'
p101
ag10
aS'if'
p102
ag6
aS'variable_1'
p103
aS'->'
p104
aS'variable_2'
p105
ag15
aS'24'
p106
ag10
aS'int'
p107
aS'variable_3'
p108
ag19
aS'variable_4'
p109
ag19
aS'variable_5'
p110
ag19
aS'variable_6'
p111
ag23
aS'int'
p112
aS'variable_4'
p113
ag19
aS'variable_7'
p114
ag19
aS'variable_8'
p115
ag19
aS'variable_9'
p116
ag19
aS'variable_10'
p117
ag23
aS'int'
p118
aS'variable_11'
p119
ag32
aS'variable_1'
p120
aS'->'
p121
aS'variable_12'
p122
ag23
aS'for'
p123
ag6
aS'variable_4'
p124
ag32
ag44
ag19
aS'variable_8'
p125
ag32
ag46
aS'16'
p126
ag23
aS'variable_8'
p127
ag15
aS'16'
p128
ag23
aS'variable_8'
p129
aS'++'
p130
ag10
aS'int'
p131
aS'variable_13'
p132
ag32
aS'variable_1'
p133
aS'->'
p134
aS'variable_14'
p135
ag57
aS'variable_11'
p136
ag59
ag57
aS'variable_8'
p137
ag61
aS'255'
p138
ag59
ag23
aS'int'
p139
aS'variable_15'
p140
ag32
aS'variable_16'
p141
ag46
aS'variable_13'
p142
ag23
aS'if'
p143
ag6
aS'variable_15'
p144
ag15
ag69
ag10
aS'int'
p145
aS'variable_17'
p146
ag32
aS'variable_15'
p147
ag46
aS'variable_18'
p148
ag23
aS'if'
p149
ag6
aS'variable_17'
p150
ag15
ag91
ag10
aS'if'
p151
ag6
aS'variable_19'
p152
ag94
aS'variable_17'
p153
ag10
aa(lp154
S'static'
p155
aS'void'
p156
aS'func_0'
p157
ag6
aS'variable_0'
p158
ag8
aS'variable_1'
p159
ag10
aS'if'
p160
ag6
aS'variable_1'
p161
aS'->'
p162
aS'variable_2'
p163
ag15
aS'24'
p164
ag10
aS'int'
p165
aS'variable_3'
p166
ag19
aS'variable_4'
p167
ag19
aS'variable_5'
p168
ag19
aS'variable_6'
p169
ag23
aS'for'
p170
ag6
aS'variable_3'
p171
ag32
ag44
ag23
aS'variable_3'
p172
ag15
aS'3'
p173
ag23
aS'variable_3'
p174
aS'++'
p175
ag10
aS'for'
p176
ag6
aS'variable_4'
p177
ag32
aS'variable_5'
p178
ag32
ag44
ag23
aS'variable_5'
p179
ag15
aS'256'
p180
ag23
aS'variable_5'
p181
aS'++'
p182
ag10
aS'int'
p183
aS'variable_7'
p184
ag32
aS'variable_1'
p185
aS'->'
p186
aS'variable_8'
p187
ag57
ag44
ag59
ag57
aS'variable_5'
p188
ag59
ag23
aS'int'
p189
aS'variable_9'
p190
ag32
aS'variable_10'
p191
ag46
aS'variable_7'
p192
ag23
aS'if'
p193
ag6
aS'variable_9'
p194
ag15
ag32
ag44
ag10
aS'if'
p195
ag6
aS'variable_11'
p196
ag94
aS'variable_9'
p197
ag10
aaa(lp198
I0
aI0
aI0
aa(lp199
I132
aI82
aI72
aa(lp200
(lp201
S'main'
p202
aa(lp203
g202
aa(lp204
g202
aaa(lp205
S'816 /home/SySeVR/data/CVE_2013_0868_VULN_generate_joint_tables.c int limit1 = limit0 - len1 ; 44'
p206
aS'817 /home/SySeVR/data/CVE_2013_0868_VULN_generate_joint_tables.c int limit0 = VLC_BITS - len0 ; 39'
p207
aS'818 /home/SySeVR/data/CVE_2013_0868_VULN_generate_joint_tables.c int limit = VLC_BITS - len0 ; 11'
p208
aa.