(lp0
(lp1
(lp2
S'func_0'
p3
aS'('
p4
aS'variable_0'
p5
aS'*'
p6
aS'variable_1'
p7
aS','
p8
aS'variable_2'
p9
ag6
aS'variable_3'
p10
ag8
aS'variable_4'
p11
ag6
aS'variable_5'
p12
ag8
aS'gint'
p13
aS'variable_6'
p14
ag8
aS'variable_7'
p15
ag6
aS'variable_8'
p16
aS')'
p17
aS'gint'
p18
aS'variable_9'
p19
aS'='
p20
aS'0'
p21
aS';'
p22
aS'gint'
p23
aS'variable_10'
p24
ag22
aS'int'
p25
aS'variable_11'
p26
ag22
aS'guint8'
p27
aS'variable_12'
p28
ag22
aS'guint8'
p29
aS'variable_13'
p30
ag20
ag21
ag22
aS'guint8'
p31
aS'variable_14'
p32
ag22
aS'struct'
p33
aS'ip6_hdr'
p34
aS'variable_15'
p35
ag22
aS'struct'
p36
aS'variable_16'
p37
ag6
aS'variable_17'
p38
ag22
aS'variable_9'
p39
aS'+='
p40
aS'sizeof'
p41
ag4
aS'variable_18'
p42
ag17
ag22
aS'variable_12'
p43
ag20
aS'func_1'
p44
ag4
aS'variable_1'
p45
ag8
aS'variable_9'
p46
ag17
ag22
aS'variable_14'
p47
ag20
ag4
ag4
aS'variable_12'
p48
aS'&'
p49
aS'variable_19'
p50
ag17
aS'>>'
p51
aS'1'
p52
ag17
ag22
aS'variable_9'
p53
aS'+='
p54
aS'sizeof'
p55
ag4
aS'variable_18'
p56
ag17
ag22
aS'if'
p57
ag4
aS'variable_12'
p58
ag49
aS'variable_20'
p59
ag17
aS'if'
p60
ag4
aS'variable_14'
p61
aS'=='
p62
aS'variable_21'
p63
ag17
aS'variable_13'
p64
ag20
aS'func_2'
p65
ag4
aS'variable_1'
p66
ag8
aS'variable_9'
p67
ag17
ag22
aS'variable_9'
p68
aS'+='
p69
aS'sizeof'
p70
ag4
aS'variable_18'
p71
ag17
ag22
aS'variable_10'
p72
ag20
aS'variable_9'
p73
aS'<<'
p74
aS'3'
p75
ag22
aS'variable_15'
p76
aS'.'
p77
aS'variable_22'
p78
ag20
aS'func_3'
p79
ag4
aS'variable_1'
p80
ag8
aS'variable_10'
p81
ag8
aS'variable_23'
p82
ag17
ag22
aS'variable_10'
p83
aS'+='
p84
aS'variable_23'
p85
ag22
aS'variable_9'
p86
ag20
aS'variable_10'
p87
ag22
aS'if'
p88
ag4
aS'!'
p89
ag4
aS'variable_12'
p90
ag49
aS'variable_24'
p91
ag17
ag17
aS'for'
p92
ag4
aS'variable_11'
p93
ag20
ag21
ag22
aS'variable_11'
p94
aS'<'
p95
aS'8'
p96
ag22
aS'variable_11'
p97
aS'++'
p98
ag8
aS'variable_10'
p99
aS'+='
p100
ag96
ag17
aS'variable_15'
p101
ag77
aS'variable_25'
p102
ag77
aS'variable_26'
p103
aS'['
p104
aS'variable_11'
p105
aS']'
p106
ag20
aS'func_4'
p107
ag4
aS'variable_1'
p108
ag8
aS'variable_10'
p109
ag8
ag96
ag17
ag22
aS'memcpy'
p110
ag4
aS'variable_15'
p111
ag77
aS'variable_25'
p112
ag77
aS'variable_26'
p113
ag8
aS'variable_27'
p114
ag8
aS'sizeof'
p115
ag4
aS'variable_27'
p116
ag17
ag17
ag22
aS'if'
p117
ag4
ag89
ag4
aS'variable_12'
p118
ag49
aS'variable_28'
p119
ag17
ag17
aS'for'
p120
ag4
aS'variable_11'
p121
ag20
ag96
ag22
aS'variable_11'
p122
ag95
aS'16'
p123
ag22
aS'variable_11'
p124
aS'++'
p125
ag8
aS'variable_10'
p126
aS'+='
p127
ag96
ag17
aS'variable_15'
p128
ag77
aS'variable_25'
p129
ag77
aS'variable_26'
p130
ag104
aS'variable_11'
p131
ag106
ag20
aS'func_5'
p132
ag4
aS'variable_1'
p133
ag8
aS'variable_10'
p134
ag8
ag96
ag17
ag22
aS'if'
p135
ag4
aS'variable_3'
p136
aS'->'
p137
aS'variable_29'
p138
ag77
aS'variable_30'
p139
aS'=='
p140
aS'variable_31'
p141
ag17
aS'memcpy'
p142
ag4
ag49
aS'variable_15'
p143
ag77
aS'variable_25'
p144
ag77
aS'variable_26'
p145
ag104
ag96
ag106
ag8
aS'variable_3'
p146
aS'->'
p147
aS'variable_29'
p148
ag77
aS'variable_32'
p149
ag8
ag96
ag17
ag22
aS'variable_9'
p150
ag20
aS'variable_10'
p151
ag22
aS'if'
p152
ag4
ag89
ag4
aS'variable_12'
p153
ag49
aS'variable_33'
p154
ag17
ag17
aS'for'
p155
ag4
aS'variable_11'
p156
ag20
ag21
ag22
aS'variable_11'
p157
ag95
ag96
ag22
aS'variable_11'
p158
aS'++'
p159
ag8
aS'variable_10'
p160
aS'+='
p161
ag96
ag17
aS'variable_15'
p162
ag77
aS'variable_34'
p163
ag77
aS'variable_26'
p164
ag104
aS'variable_11'
p165
ag106
ag20
aS'func_6'
p166
ag4
aS'variable_1'
p167
ag8
aS'variable_10'
p168
ag8
ag96
ag17
ag22
aS'if'
p169
ag4
ag89
ag4
aS'variable_12'
p170
ag49
aS'variable_35'
p171
ag17
ag17
aS'for'
p172
ag4
aS'variable_11'
p173
ag20
ag96
ag22
aS'variable_11'
p174
ag95
aS'16'
p175
ag22
aS'variable_11'
p176
aS'++'
p177
ag8
aS'variable_10'
p178
aS'+='
p179
ag96
ag17
aS'if'
p180
ag4
ag89
ag4
aS'variable_12'
p181
ag49
aS'variable_36'
p182
ag17
ag17
aS'variable_10'
p183
aS'+='
p184
aS'variable_37'
p185
ag22
aS'variable_10'
p186
aS'+='
p187
aS'variable_38'
p188
ag22
aS'if'
p189
ag4
aS'variable_14'
p190
aS'=='
p191
aS'variable_21'
p192
ag17
aS'if'
p193
ag4
aS'variable_14'
p194
aS'=='
p195
aS'variable_39'
p196
ag17
aS'if'
p197
ag4
aS'variable_14'
p198
aS'=='
p199
aS'variable_40'
p200
ag17
aS'variable_10'
p201
aS'+='
p202
aS'variable_41'
p203
ag22
aS'if'
p204
ag4
ag4
aS'variable_12'
p205
ag49
aS'variable_20'
p206
ag17
aS'&&'
p207
ag4
aS'variable_14'
p208
aS'=='
p209
aS'variable_21'
p210
ag17
ag17
aS'struct'
p211
aS'udp_hdr'
p212
aS'variable_42'
p213
ag22
aS'gint'
p214
aS'variable_43'
p215
ag22
aS'variable_9'
p216
ag20
aS'variable_10'
p217
ag22
aS'if'
p218
ag4
aS'variable_13'
p219
ag49
aS'variable_44'
p220
ag17
aS'variable_42'
p221
ag77
aS'variable_45'
p222
ag20
aS'func_7'
p223
ag4
aS'variable_1'
p224
ag8
aS'variable_10'
p225
ag8
aS'variable_46'
p226
ag17
aS'+'
p227
aS'variable_47'
p228
ag22
aS'variable_10'
p229
aS'+='
p230
aS'variable_46'
p231
ag22
aS'variable_42'
p232
ag77
aS'variable_45'
p233
ag20
aS'func_8'
p234
ag4
aS'variable_1'
p235
ag8
aS'variable_10'
p236
ag8
aS'variable_48'
p237
ag8
aS'variable_49'
p238
ag17
ag22
aS'variable_10'
p239
aS'+='
p240
aS'variable_48'
p241
ag22
aS'variable_42'
p242
ag77
aS'variable_45'
p243
ag20
aS'func_9'
p244
ag4
aS'variable_42'
p245
ag77
aS'variable_45'
p246
ag17
ag22
aS'variable_9'
p247
ag20
aS'variable_10'
p248
ag22
aS'if'
p249
ag4
aS'variable_13'
p250
ag49
aS'variable_50'
p251
ag17
aS'variable_42'
p252
ag77
aS'variable_51'
p253
ag20
aS'func_10'
p254
ag4
aS'variable_1'
p255
ag8
aS'variable_10'
p256
ag8
aS'variable_46'
p257
ag17
ag227
aS'variable_47'
p258
ag22
aS'variable_10'
p259
aS'+='
p260
aS'variable_46'
p261
ag22
aS'variable_42'
p262
ag77
aS'variable_51'
p263
ag20
aS'func_11'
p264
ag4
aS'variable_1'
p265
ag8
aS'variable_10'
p266
ag8
aS'variable_48'
p267
ag8
aS'variable_49'
p268
ag17
ag22
aS'variable_10'
p269
aS'+='
p270
aS'variable_48'
p271
ag22
aS'variable_42'
p272
ag77
aS'variable_51'
p273
ag20
aS'func_12'
p274
ag4
aS'variable_42'
p275
ag77
aS'variable_51'
p276
ag17
ag22
aS'if'
p277
ag4
ag89
ag4
aS'variable_13'
p278
ag49
aS'variable_52'
p279
ag17
ag17
aS'variable_42'
p280
ag77
aS'variable_43'
p281
ag20
aS'func_13'
p282
ag4
aS'variable_1'
p283
ag8
aS'variable_10'
p284
ag8
aS'variable_53'
p285
ag8
aS'variable_49'
p286
ag17
ag22
aS'variable_10'
p287
aS'+='
p288
aS'variable_53'
p289
ag22
aS'if'
p290
ag4
aS'variable_6'
p291
aS'>'
p292
ag20
ag21
ag17
aS'if'
p293
ag4
aS'variable_6'
p294
ag95
ag4
aS'variable_54'
p295
ag17
aS'sizeof'
p296
ag4
aS'struct'
p297
aS'variable_55'
p298
ag17
ag17
aS'variable_42'
p299
ag77
aS'variable_43'
p300
ag20
aS'variable_6'
p301
aS'-'
p302
ag4
aS'variable_54'
p303
ag17
aS'sizeof'
p304
ag4
aS'struct'
p305
aS'variable_55'
p306
ag17
ag22
aS'variable_42'
p307
ag77
aS'variable_43'
p308
ag20
aS'func_14'
p309
ag4
aS'variable_1'
p310
ag17
ag22
aS'variable_42'
p311
ag77
aS'variable_43'
p312
aS'-='
p313
aS'func_15'
p314
ag4
ag21
ag8
aS'variable_10'
p315
ag227
aS'variable_56'
p316
ag17
ag22
aS'variable_42'
p317
ag77
aS'variable_43'
p318
aS'+='
p319
aS'sizeof'
p320
ag4
aS'struct'
p321
aS'variable_57'
p322
ag17
ag22
aS'variable_42'
p323
ag77
aS'variable_43'
p324
ag20
aS'func_16'
p325
ag4
aS'variable_42'
p326
ag77
aS'variable_43'
p327
ag17
ag22
aS'variable_42'
p328
ag77
aS'variable_58'
p329
ag20
aS'func_17'
p330
ag4
aS'variable_1'
p331
ag8
aS'variable_10'
p332
ag8
aS'variable_56'
p333
ag8
aS'variable_49'
p334
ag17
ag22
aS'variable_10'
p335
aS'+='
p336
aS'variable_56'
p337
ag22
aS'variable_42'
p338
ag77
aS'variable_58'
p339
ag20
aS'func_18'
p340
ag4
aS'variable_42'
p341
ag77
aS'variable_58'
p342
ag17
ag22
aS'variable_9'
p343
ag20
aS'func_19'
p344
ag4
ag21
ag8
aS'variable_10'
p345
ag17
ag22
aS'variable_43'
p346
ag20
aS'func_20'
p347
ag4
aS'variable_1'
p348
ag8
aS'variable_9'
p349
ag17
ag22
aS'variable_17'
p350
ag20
ag4
aS'struct'
p351
aS'lowpan_nhdr'
p352
ag6
ag17
aS'func_21'
p353
ag4
aS'sizeof'
p354
ag4
aS'struct'
p355
aS'variable_16'
p356
ag17
ag227
aS'sizeof'
p357
ag4
aS'struct'
p358
aS'variable_57'
p359
ag17
ag227
aS'variable_43'
p360
ag17
ag22
aS'variable_17'
p361
aS'->'
p362
aS'variable_59'
p363
ag20
aS'NULL'
p364
ag22
aS'variable_17'
p365
aS'->'
p366
aS'variable_60'
p367
ag20
aS'variable_61'
p368
ag22
aS'variable_17'
p369
aS'->'
p370
aS'variable_43'
p371
ag20
aS'variable_43'
p372
ag227
aS'sizeof'
p373
ag4
aS'struct'
p374
aS'variable_57'
p375
ag17
ag22
aS'variable_17'
p376
aS'->'
p377
aS'variable_62'
p378
ag20
aS'func_22'
p379
ag4
aS'variable_42'
p380
ag77
aS'variable_43'
p381
ag17
ag22
aS'memcpy'
p382
ag4
aS'func_23'
p383
ag4
aS'variable_17'
p384
ag17
ag8
ag49
aS'variable_42'
p385
ag8
aS'sizeof'
p386
ag4
aS'struct'
p387
aS'variable_57'
p388
ag17
ag17
ag22
aa(lp389
S'func_0'
p390
ag4
aS'variable_0'
p391
ag6
aS'variable_1'
p392
ag8
aS'variable_2'
p393
ag6
aS'variable_3'
p394
ag8
aS'variable_4'
p395
ag6
aS'variable_5'
p396
ag8
aS'gint'
p397
aS'variable_6'
p398
ag8
aS'variable_7'
p399
ag6
aS'variable_8'
p400
ag17
aS'gint'
p401
aS'variable_9'
p402
ag20
ag21
ag22
aS'gint'
p403
aS'variable_10'
p404
ag22
aS'guint8'
p405
aS'variable_11'
p406
ag22
aS'guint8'
p407
aS'variable_12'
p408
ag22
aS'struct'
p409
aS'ip6_hdr'
p410
aS'variable_13'
p411
ag22
aS'variable_9'
p412
aS'+='
p413
aS'sizeof'
p414
ag4
aS'variable_14'
p415
ag17
ag22
aS'variable_11'
p416
ag20
aS'func_1'
p417
ag4
aS'variable_1'
p418
ag8
aS'variable_9'
p419
ag17
ag22
aS'variable_12'
p420
ag20
ag4
ag4
aS'variable_11'
p421
ag49
aS'variable_15'
p422
ag17
aS'>>'
p423
ag52
ag17
ag22
aS'variable_9'
p424
aS'+='
p425
aS'sizeof'
p426
ag4
aS'variable_14'
p427
ag17
ag22
aS'if'
p428
ag4
aS'variable_11'
p429
ag49
aS'variable_16'
p430
ag17
aS'if'
p431
ag4
aS'variable_12'
p432
aS'=='
p433
aS'variable_17'
p434
ag17
aS'variable_9'
p435
aS'+='
p436
aS'sizeof'
p437
ag4
aS'variable_14'
p438
ag17
ag22
aS'variable_10'
p439
ag20
aS'variable_9'
p440
aS'<<'
p441
ag75
ag22
aS'variable_13'
p442
ag77
aS'variable_18'
p443
ag20
aS'func_2'
p444
ag4
aS'variable_1'
p445
ag8
aS'variable_10'
p446
ag8
aS'variable_19'
p447
ag17
ag22
aS'if'
p448
ag4
ag89
ag4
aS'variable_11'
p449
ag49
aS'variable_20'
p450
ag17
ag17
aS'if'
p451
ag4
aS'variable_3'
p452
aS'->'
p453
aS'variable_21'
p454
ag77
aS'variable_22'
p455
aS'=='
p456
aS'variable_23'
p457
ag17
aS'memcpy'
p458
ag4
ag49
aS'variable_13'
p459
ag77
aS'variable_24'
p460
ag77
aS'variable_25'
p461
ag104
ag96
ag106
ag8
aS'variable_3'
p462
aS'->'
p463
aS'variable_21'
p464
ag77
aS'variable_26'
p465
ag8
ag96
ag17
ag22
aS'func_3'
p466
ag4
aS'variable_5'
p467
ag8
aS'variable_27'
p468
ag8
aS'variable_1'
p469
ag8
aS'variable_9'
p470
aS'>>'
p471
ag75
ag8
aS'func_4'
p472
ag4
aS'variable_9'
p473
ag8
ag4
aS'variable_10'
p474
ag302
aS'variable_9'
p475
ag17
ag17
ag8
ag4
aS'guint8'
p476
ag6
ag17
ag49
aS'variable_13'
p477
ag77
aS'variable_24'
p478
ag17
ag22
aS'variable_13'
p479
ag77
aS'variable_28'
p480
ag20
ag21
ag22
aS'variable_13'
p481
ag77
aS'variable_28'
p482
ag20
aS'func_5'
p483
ag4
aS'variable_1'
p484
ag8
aS'variable_10'
p485
ag8
aS'variable_29'
p486
ag8
aS'variable_30'
p487
ag17
ag22
aS'func_6'
p488
ag4
aS'variable_5'
p489
ag8
aS'variable_31'
p490
ag8
aS'variable_1'
p491
ag8
aS'variable_10'
p492
aS'>>'
p493
ag75
ag8
aS'func_7'
p494
ag4
aS'variable_10'
p495
ag8
aS'variable_29'
p496
ag17
ag8
aS'variable_13'
p497
ag77
aS'variable_28'
p498
ag17
ag22
aS'variable_13'
p499
ag77
aS'variable_28'
p500
ag20
aS'func_8'
p501
ag4
aS'variable_13'
p502
ag77
aS'variable_28'
p503
aS'|'
p504
ag4
aS'variable_32'
p505
aS'<<'
p506
aS'variable_29'
p507
ag17
ag17
ag22
aS'variable_13'
p508
ag77
aS'variable_33'
p509
ag20
ag4
ag4
aS'0x6'
p510
aS'<<'
p511
aS'4'
p512
ag17
ag504
ag4
aS'variable_32'
p513
aS'>>'
p514
ag512
ag17
ag17
ag22
aS'variable_13'
p515
ag77
aS'variable_34'
p516
ag20
aS'variable_35'
p517
ag22
aS'variable_13'
p518
ag77
aS'variable_34'
p519
ag20
aS'variable_36'
p520
ag22
aS'variable_13'
p521
ag77
aS'variable_34'
p522
ag20
aS'variable_37'
p523
ag22
aS'variable_13'
p524
ag77
aS'variable_34'
p525
ag20
aS'func_9'
p526
ag4
aS'variable_1'
p527
ag8
aS'variable_10'
p528
ag8
aS'variable_38'
p529
ag17
ag22
aS'func_10'
p530
ag4
aS'variable_5'
p531
ag8
aS'variable_39'
p532
ag8
aS'variable_1'
p533
ag8
aS'variable_10'
p534
aS'>>'
p535
ag75
ag8
aS'func_11'
p536
ag4
aS'variable_10'
p537
ag8
aS'variable_38'
p538
ag17
ag8
aS'variable_13'
p539
ag77
aS'variable_34'
p540
ag8
aS'"'
p541
aS'Next'
p542
aS'header'
p543
aS':'
p544
aS'%'
p545
aS's'
p546
ag4
aS'0x'
p547
ag545
aS'02x'
p548
ag17
ag541
ag8
aS'func_12'
p549
ag4
aS'variable_13'
p550
ag77
aS'variable_34'
p551
ag17
ag8
aS'variable_13'
p552
ag77
aS'variable_34'
p553
ag17
ag22
aS'variable_40'
p554
aS'->'
p555
aS'variable_41'
p556
ag20
aS'variable_13'
p557
ag77
aS'variable_34'
p558
ag22
aS'variable_40'
p559
aS'->'
p560
aS'variable_42'
p561
ag20
aS'func_13'
p562
ag4
aS'variable_1'
p563
ag8
aS'variable_9'
p564
ag17
ag22
aS'variable_40'
p565
aS'->'
p566
aS'variable_43'
p567
ag20
aS'func_14'
p568
ag4
aS'variable_1'
p569
ag8
aS'variable_9'
p570
ag17
ag22
aS'func_15'
p571
ag4
aS'variable_1'
p572
ag8
aS'func_16'
p573
ag4
aS'variable_40'
p574
ag17
ag8
aS'variable_9'
p575
ag8
aS'variable_40'
p576
aS'->'
p577
aS'variable_42'
p578
ag17
ag22
aS'variable_44'
p579
ag20
aS'func_17'
p580
ag4
aS'variable_1'
p581
ag8
ag49
aS'variable_13'
p582
ag8
aS'variable_40'
p583
ag17
ag22
aS'func_18'
p584
ag4
aS'variable_3'
p585
ag8
aS'variable_44'
p586
ag8
ag541
aS'Decompressed'
p587
aS'6LoWPAN'
p588
aS'header'
p589
ag541
ag17
ag22
aS'return'
p590
aS'variable_44'
p591
ag22
aa(lp592
S'func_0'
p593
ag4
aS'variable_0'
p594
ag6
aS'variable_1'
p595
ag8
aS'variable_2'
p596
ag6
aS'variable_3'
p597
ag8
aS'variable_4'
p598
ag6
aS'variable_5'
p599
ag8
aS'gint'
p600
aS'variable_6'
p601
ag8
aS'variable_7'
p602
ag6
aS'variable_8'
p603
ag17
aS'gint'
p604
aS'variable_9'
p605
ag20
ag21
ag22
aS'gint'
p606
aS'variable_10'
p607
ag22
aS'guint8'
p608
aS'variable_11'
p609
ag22
aS'guint8'
p610
aS'variable_12'
p611
ag22
aS'struct'
p612
aS'ip6_hdr'
p613
aS'variable_13'
p614
ag22
aS'variable_9'
p615
aS'+='
p616
aS'sizeof'
p617
ag4
aS'variable_14'
p618
ag17
ag22
aS'variable_11'
p619
ag20
aS'func_1'
p620
ag4
aS'variable_1'
p621
ag8
aS'variable_9'
p622
ag17
ag22
aS'variable_12'
p623
ag20
ag4
ag4
aS'variable_11'
p624
ag49
aS'variable_15'
p625
ag17
aS'>>'
p626
ag52
ag17
ag22
aS'variable_9'
p627
aS'+='
p628
aS'sizeof'
p629
ag4
aS'variable_14'
p630
ag17
ag22
aS'if'
p631
ag4
aS'variable_11'
p632
ag49
aS'variable_16'
p633
ag17
aS'if'
p634
ag4
aS'variable_12'
p635
aS'=='
p636
aS'variable_17'
p637
ag17
aS'variable_9'
p638
aS'+='
p639
aS'sizeof'
p640
ag4
aS'variable_14'
p641
ag17
ag22
aS'variable_10'
p642
ag20
aS'variable_9'
p643
aS'<<'
p644
ag75
ag22
aS'variable_13'
p645
ag77
aS'variable_18'
p646
ag20
aS'func_2'
p647
ag4
aS'variable_1'
p648
ag8
aS'variable_10'
p649
ag8
aS'variable_19'
p650
ag17
ag22
aS'if'
p651
ag4
ag89
ag4
aS'variable_11'
p652
ag49
aS'variable_20'
p653
ag17
ag17
aS'memcpy'
p654
ag4
aS'variable_13'
p655
ag77
aS'variable_21'
p656
ag77
aS'variable_22'
p657
ag8
aS'variable_23'
p658
ag8
aS'sizeof'
p659
ag4
aS'variable_23'
p660
ag17
ag17
ag22
aS'variable_13'
p661
ag77
aS'variable_21'
p662
ag77
aS'variable_22'
p663
ag104
aS'variable_24'
p664
ag106
ag20
aS'func_3'
p665
ag4
aS'variable_1'
p666
ag8
aS'variable_10'
p667
ag8
ag96
ag17
ag22
aa(lp668
S'func_0'
p669
ag4
aS'variable_0'
p670
ag6
aS'variable_1'
p671
ag8
aS'variable_2'
p672
ag6
aS'variable_3'
p673
ag8
aS'variable_4'
p674
ag6
aS'variable_5'
p675
ag8
aS'gint'
p676
aS'variable_6'
p677
ag8
aS'variable_7'
p678
ag6
aS'variable_8'
p679
ag17
aS'gint'
p680
aS'variable_9'
p681
ag20
ag21
ag22
aS'gint'
p682
aS'variable_10'
p683
ag22
aS'guint8'
p684
aS'variable_11'
p685
ag22
aS'guint8'
p686
aS'variable_12'
p687
ag22
aS'struct'
p688
aS'ip6_hdr'
p689
aS'variable_13'
p690
ag22
aS'variable_9'
p691
aS'+='
p692
aS'sizeof'
p693
ag4
aS'variable_14'
p694
ag17
ag22
aS'variable_11'
p695
ag20
aS'func_1'
p696
ag4
aS'variable_1'
p697
ag8
aS'variable_9'
p698
ag17
ag22
aS'variable_12'
p699
ag20
ag4
ag4
aS'variable_11'
p700
ag49
aS'variable_15'
p701
ag17
aS'>>'
p702
ag52
ag17
ag22
aS'variable_9'
p703
aS'+='
p704
aS'sizeof'
p705
ag4
aS'variable_14'
p706
ag17
ag22
aS'if'
p707
ag4
aS'variable_11'
p708
ag49
aS'variable_16'
p709
ag17
aS'if'
p710
ag4
aS'variable_12'
p711
aS'=='
p712
aS'variable_17'
p713
ag17
aS'variable_9'
p714
aS'+='
p715
aS'sizeof'
p716
ag4
aS'variable_14'
p717
ag17
ag22
aS'variable_10'
p718
ag20
aS'variable_9'
p719
aS'<<'
p720
ag75
ag22
aS'variable_13'
p721
ag77
aS'variable_18'
p722
ag20
aS'func_2'
p723
ag4
aS'variable_1'
p724
ag8
aS'variable_10'
p725
ag8
aS'variable_19'
p726
ag17
ag22
aS'if'
p727
ag4
ag89
ag4
aS'variable_11'
p728
ag49
aS'variable_20'
p729
ag17
ag17
aS'if'
p730
ag4
aS'variable_3'
p731
aS'->'
p732
aS'variable_21'
p733
ag77
aS'variable_22'
p734
aS'=='
p735
aS'variable_23'
p736
ag17
aS'memcpy'
p737
ag4
ag49
aS'variable_13'
p738
ag77
aS'variable_24'
p739
ag77
aS'variable_25'
p740
ag104
ag96
ag106
ag8
aS'variable_3'
p741
aS'->'
p742
aS'variable_21'
p743
ag77
aS'variable_26'
p744
ag8
ag96
ag17
ag22
aS'func_3'
p745
ag4
aS'variable_5'
p746
ag8
aS'variable_27'
p747
ag8
aS'variable_1'
p748
ag8
aS'variable_9'
p749
aS'>>'
p750
ag75
ag8
aS'func_4'
p751
ag4
aS'variable_9'
p752
ag8
ag4
aS'variable_10'
p753
ag302
aS'variable_9'
p754
ag17
ag17
ag8
ag4
aS'guint8'
p755
ag6
ag17
ag49
aS'variable_13'
p756
ag77
aS'variable_24'
p757
ag17
ag22
aS'variable_13'
p758
ag77
aS'variable_28'
p759
ag77
aS'variable_25'
p760
ag104
aS'variable_29'
p761
ag106
ag20
aS'func_5'
p762
ag4
aS'variable_1'
p763
ag8
aS'variable_10'
p764
ag8
ag96
ag17
ag22
aS'for'
p765
ag4
aS'variable_29'
p766
ag20
ag96
ag22
aS'variable_29'
p767
ag95
aS'16'
p768
ag22
aS'variable_29'
p769
aS'++'
p770
ag8
aS'variable_10'
p771
aS'+='
p772
ag96
ag17
aS'variable_13'
p773
ag77
aS'variable_28'
p774
ag77
aS'variable_25'
p775
ag104
aS'variable_29'
p776
ag106
ag20
aS'func_6'
p777
ag4
aS'variable_1'
p778
ag8
aS'variable_10'
p779
ag8
ag96
ag17
ag22
aS'func_7'
p780
ag4
aS'variable_5'
p781
ag8
aS'variable_30'
p782
ag8
aS'variable_1'
p783
ag8
aS'variable_9'
p784
aS'>>'
p785
ag75
ag8
aS'func_8'
p786
ag4
aS'variable_9'
p787
ag8
ag4
aS'variable_10'
p788
ag302
aS'variable_9'
p789
ag17
ag17
ag8
ag4
aS'guint8'
p790
ag6
ag17
ag49
aS'variable_13'
p791
ag77
aS'variable_28'
p792
ag17
ag22
aS'variable_31'
p793
ag20
aS'func_9'
p794
ag4
aS'variable_1'
p795
ag8
aS'variable_10'
p796
ag8
aS'variable_32'
p797
ag17
ag22
aS'func_10'
p798
ag4
aS'variable_5'
p799
ag8
aS'variable_33'
p800
ag8
aS'variable_1'
p801
ag8
aS'variable_10'
p802
aS'>>'
p803
ag75
ag8
aS'func_11'
p804
ag4
aS'variable_10'
p805
ag8
aS'variable_32'
p806
ag17
ag8
aS'variable_31'
p807
ag17
ag22
aS'variable_10'
p808
aS'+='
p809
aS'variable_32'
p810
ag22
aS'variable_13'
p811
ag77
aS'variable_34'
p812
ag20
aS'func_12'
p813
ag4
aS'variable_1'
p814
ag8
aS'variable_10'
p815
ag8
aS'variable_35'
p816
ag8
aS'variable_36'
p817
ag17
ag22
aS'func_13'
p818
ag4
aS'variable_5'
p819
ag8
aS'variable_37'
p820
ag8
aS'variable_1'
p821
ag8
aS'variable_10'
p822
aS'>>'
p823
ag75
ag8
aS'func_14'
p824
ag4
aS'variable_10'
p825
ag8
aS'variable_35'
p826
ag17
ag8
aS'variable_13'
p827
ag77
aS'variable_34'
p828
ag17
ag22
aS'variable_10'
p829
aS'+='
p830
aS'variable_35'
p831
ag22
aS'variable_13'
p832
ag77
aS'variable_34'
p833
ag20
aS'func_15'
p834
ag4
aS'variable_13'
p835
ag77
aS'variable_34'
p836
ag504
ag4
aS'variable_31'
p837
aS'<<'
p838
aS'variable_35'
p839
ag17
ag17
ag22
aS'variable_13'
p840
ag77
aS'variable_38'
p841
ag20
ag4
ag4
aS'0x6'
p842
aS'<<'
p843
ag512
ag17
ag504
ag4
aS'variable_31'
p844
aS'>>'
p845
ag512
ag17
ag17
ag22
aS'variable_13'
p846
ag77
aS'variable_39'
p847
ag20
aS'variable_40'
p848
ag22
aS'variable_13'
p849
ag77
aS'variable_39'
p850
ag20
aS'variable_41'
p851
ag22
aS'variable_13'
p852
ag77
aS'variable_39'
p853
ag20
aS'variable_42'
p854
ag22
aS'variable_13'
p855
ag77
aS'variable_39'
p856
ag20
aS'func_16'
p857
ag4
aS'variable_1'
p858
ag8
aS'variable_10'
p859
ag8
aS'variable_43'
p860
ag17
ag22
aS'func_17'
p861
ag4
aS'variable_5'
p862
ag8
aS'variable_44'
p863
ag8
aS'variable_1'
p864
ag8
aS'variable_10'
p865
aS'>>'
p866
ag75
ag8
aS'func_18'
p867
ag4
aS'variable_10'
p868
ag8
aS'variable_43'
p869
ag17
ag8
aS'variable_13'
p870
ag77
aS'variable_39'
p871
ag8
ag541
aS'Next'
p872
aS'header'
p873
ag544
ag545
ag546
ag4
aS'0x'
p874
ag545
aS'02x'
p875
ag17
ag541
ag8
aS'func_19'
p876
ag4
aS'variable_13'
p877
ag77
aS'variable_39'
p878
ag17
ag8
aS'variable_13'
p879
ag77
aS'variable_39'
p880
ag17
ag22
aS'variable_10'
p881
aS'+='
p882
aS'variable_43'
p883
ag22
aS'variable_9'
p884
ag20
aS'variable_10'
p885
ag22
aS'variable_45'
p886
ag77
aS'variable_46'
p887
ag20
aS'func_20'
p888
ag4
aS'variable_1'
p889
ag8
aS'variable_10'
p890
ag8
aS'variable_47'
p891
ag17
ag227
aS'variable_48'
p892
ag22
aS'variable_10'
p893
aS'+='
p894
aS'variable_47'
p895
ag22
aS'variable_45'
p896
ag77
aS'variable_46'
p897
ag20
aS'func_21'
p898
ag4
aS'variable_1'
p899
ag8
aS'variable_10'
p900
ag8
aS'variable_49'
p901
ag8
aS'variable_36'
p902
ag17
ag22
aS'variable_10'
p903
aS'+='
p904
aS'variable_49'
p905
ag22
aS'func_22'
p906
ag4
aS'variable_5'
p907
ag8
aS'variable_50'
p908
ag8
aS'variable_1'
p909
ag8
aS'variable_9'
p910
aS'>>'
p911
ag75
ag8
aS'func_23'
p912
ag4
aS'variable_9'
p913
ag8
ag4
aS'variable_10'
p914
ag302
aS'variable_9'
p915
ag17
ag17
ag8
aS'variable_45'
p916
ag77
aS'variable_46'
p917
ag17
ag22
aS'variable_45'
p918
ag77
aS'variable_46'
p919
ag20
aS'func_24'
p920
ag4
aS'variable_45'
p921
ag77
aS'variable_46'
p922
ag17
ag22
aS'variable_9'
p923
ag20
aS'variable_10'
p924
ag22
aS'variable_45'
p925
ag77
aS'variable_51'
p926
ag20
aS'func_25'
p927
ag4
aS'variable_1'
p928
ag8
aS'variable_10'
p929
ag8
aS'variable_47'
p930
ag17
ag227
aS'variable_48'
p931
ag22
aS'variable_10'
p932
aS'+='
p933
aS'variable_47'
p934
ag22
aS'variable_45'
p935
ag77
aS'variable_51'
p936
ag20
aS'func_26'
p937
ag4
aS'variable_1'
p938
ag8
aS'variable_10'
p939
ag8
aS'variable_49'
p940
ag8
aS'variable_36'
p941
ag17
ag22
aS'variable_10'
p942
aS'+='
p943
aS'variable_49'
p944
ag22
aS'func_27'
p945
ag4
aS'variable_5'
p946
ag8
aS'variable_52'
p947
ag8
aS'variable_1'
p948
ag8
aS'variable_9'
p949
aS'>>'
p950
ag75
ag8
aS'func_28'
p951
ag4
aS'variable_9'
p952
ag8
ag4
aS'variable_10'
p953
ag302
aS'variable_9'
p954
ag17
ag17
ag8
aS'variable_45'
p955
ag77
aS'variable_51'
p956
ag17
ag22
aS'variable_45'
p957
ag77
aS'variable_51'
p958
ag20
aS'func_29'
p959
ag4
aS'variable_45'
p960
ag77
aS'variable_51'
p961
ag17
ag22
aS'variable_45'
p962
ag77
aS'variable_53'
p963
ag20
aS'func_30'
p964
ag4
aS'variable_1'
p965
ag8
aS'variable_10'
p966
ag8
aS'variable_54'
p967
ag8
aS'variable_36'
p968
ag17
ag22
aS'func_31'
p969
ag4
aS'variable_5'
p970
ag8
aS'variable_55'
p971
ag8
aS'variable_1'
p972
ag8
aS'variable_10'
p973
aS'>>'
p974
ag75
ag8
aS'func_32'
p975
ag4
aS'variable_10'
p976
ag8
aS'variable_54'
p977
ag17
ag8
aS'variable_45'
p978
ag77
aS'variable_53'
p979
ag17
ag22
aS'variable_10'
p980
aS'+='
p981
aS'variable_54'
p982
ag22
aS'variable_45'
p983
ag77
aS'variable_53'
p984
ag20
aS'variable_6'
p985
ag302
ag4
aS'variable_56'
p986
ag17
aS'sizeof'
p987
ag4
aS'struct'
p988
aS'variable_57'
p989
ag17
ag22
aS'variable_45'
p990
ag77
aS'variable_53'
p991
ag20
aS'func_33'
p992
ag4
aS'variable_1'
p993
ag17
ag22
aS'variable_45'
p994
ag77
aS'variable_53'
p995
aS'-='
p996
aS'func_34'
p997
ag4
ag21
ag8
aS'variable_10'
p998
ag227
aS'variable_58'
p999
ag17
ag22
aS'variable_45'
p1000
ag77
aS'variable_53'
p1001
aS'+='
p1002
aS'sizeof'
p1003
ag4
aS'struct'
p1004
aS'variable_59'
p1005
ag17
ag22
aS'variable_45'
p1006
ag77
aS'variable_53'
p1007
ag20
aS'func_35'
p1008
ag4
aS'variable_45'
p1009
ag77
aS'variable_53'
p1010
ag17
ag22
aS'variable_45'
p1011
ag77
aS'variable_60'
p1012
ag20
aS'func_36'
p1013
ag4
aS'variable_1'
p1014
ag8
aS'variable_10'
p1015
ag8
aS'variable_58'
p1016
ag8
aS'variable_36'
p1017
ag17
ag22
aS'func_37'
p1018
ag4
aS'variable_5'
p1019
ag8
aS'variable_61'
p1020
ag8
aS'variable_1'
p1021
ag8
aS'variable_10'
p1022
aS'>>'
p1023
ag75
ag8
aS'func_38'
p1024
ag4
aS'variable_10'
p1025
ag8
aS'variable_58'
p1026
ag17
ag8
aS'variable_45'
p1027
ag77
aS'variable_60'
p1028
ag17
ag22
aS'variable_10'
p1029
aS'+='
p1030
aS'variable_58'
p1031
ag22
aS'variable_45'
p1032
ag77
aS'variable_60'
p1033
ag20
aS'func_39'
p1034
ag4
aS'variable_45'
p1035
ag77
aS'variable_60'
p1036
ag17
ag22
aS'variable_9'
p1037
ag20
aS'func_40'
p1038
ag4
ag21
ag8
aS'variable_10'
p1039
ag17
ag22
aS'variable_53'
p1040
ag20
aS'func_41'
p1041
ag4
aS'variable_1'
p1042
ag8
aS'variable_9'
p1043
ag17
ag22
aS'variable_62'
p1044
ag20
ag4
aS'struct'
p1045
aS'lowpan_nhdr'
p1046
ag6
ag17
aS'func_42'
p1047
ag4
aS'sizeof'
p1048
ag4
aS'struct'
p1049
aS'variable_63'
p1050
ag17
ag227
aS'sizeof'
p1051
ag4
aS'struct'
p1052
aS'variable_59'
p1053
ag17
ag227
aS'variable_53'
p1054
ag17
ag22
aS'variable_62'
p1055
aS'->'
p1056
aS'variable_64'
p1057
ag20
aS'NULL'
p1058
ag22
aS'variable_62'
p1059
aS'->'
p1060
aS'variable_65'
p1061
ag20
aS'variable_40'
p1062
ag22
aS'variable_62'
p1063
aS'->'
p1064
aS'variable_53'
p1065
ag20
aS'variable_53'
p1066
ag227
aS'sizeof'
p1067
ag4
aS'struct'
p1068
aS'variable_59'
p1069
ag17
ag22
aS'variable_62'
p1070
aS'->'
p1071
aS'variable_66'
p1072
ag20
aS'func_43'
p1073
ag4
aS'variable_45'
p1074
ag77
aS'variable_53'
p1075
ag17
ag22
aS'memcpy'
p1076
ag4
aS'func_44'
p1077
ag4
aS'variable_62'
p1078
ag17
ag8
ag49
aS'variable_45'
p1079
ag8
aS'sizeof'
p1080
ag4
aS'struct'
p1081
aS'variable_59'
p1082
ag17
ag17
ag22
aS'func_45'
p1083
ag4
aS'variable_1'
p1084
ag8
aS'func_46'
p1085
ag4
aS'variable_62'
p1086
ag17
ag227
aS'sizeof'
p1087
ag4
aS'struct'
p1088
aS'variable_59'
p1089
ag17
ag8
aS'variable_9'
p1090
ag8
aS'variable_53'
p1091
ag17
ag22
aS'variable_9'
p1092
ag20
aS'func_47'
p1093
ag4
ag21
ag8
aS'variable_10'
p1094
ag17
ag22
aS'variable_62'
p1095
ag20
ag4
aS'struct'
p1096
aS'lowpan_nhdr'
p1097
ag6
ag17
aS'func_48'
p1098
ag4
aS'sizeof'
p1099
ag4
aS'struct'
p1100
aS'variable_63'
p1101
ag17
ag227
aS'func_49'
p1102
ag4
aS'variable_1'
p1103
ag8
aS'variable_9'
p1104
ag17
ag17
ag22
aS'variable_62'
p1105
aS'->'
p1106
aS'variable_64'
p1107
ag20
aS'NULL'
p1108
ag22
aS'variable_62'
p1109
aS'->'
p1110
aS'variable_65'
p1111
ag20
aS'variable_13'
p1112
ag77
aS'variable_39'
p1113
ag22
aS'variable_62'
p1114
aS'->'
p1115
aS'variable_53'
p1116
ag20
aS'func_50'
p1117
ag4
aS'variable_1'
p1118
ag8
aS'variable_9'
p1119
ag17
ag22
aS'variable_62'
p1120
aS'->'
p1121
aS'variable_66'
p1122
ag20
aS'func_51'
p1123
ag4
aS'variable_1'
p1124
ag8
aS'variable_9'
p1125
ag17
ag22
aS'variable_62'
p1126
aS'->'
p1127
aS'variable_66'
p1128
ag20
aS'variable_6'
p1129
ag302
aS'sizeof'
p1130
ag4
aS'struct'
p1131
aS'variable_57'
p1132
ag17
ag22
aS'func_52'
p1133
ag4
aS'variable_1'
p1134
ag8
aS'func_53'
p1135
ag4
aS'variable_62'
p1136
ag17
ag8
aS'variable_9'
p1137
ag8
aS'variable_62'
p1138
aS'->'
p1139
aS'variable_53'
p1140
ag17
ag22
aS'variable_67'
p1141
ag20
aS'func_54'
p1142
ag4
aS'variable_1'
p1143
ag8
ag49
aS'variable_13'
p1144
ag8
aS'variable_62'
p1145
ag17
ag22
aS'func_55'
p1146
ag4
aS'variable_3'
p1147
ag8
aS'variable_67'
p1148
ag8
ag541
aS'Decompressed'
p1149
aS'6LoWPAN'
p1150
aS'header'
p1151
ag541
ag17
ag22
aS'return'
p1152
aS'variable_67'
p1153
ag22
aa(lp1154
S'func_0'
p1155
ag4
aS'variable_0'
p1156
ag6
aS'variable_1'
p1157
ag8
aS'variable_2'
p1158
ag6
aS'variable_3'
p1159
ag8
aS'variable_4'
p1160
ag6
aS'variable_5'
p1161
ag8
aS'gint'
p1162
aS'variable_6'
p1163
ag8
aS'variable_7'
p1164
ag6
aS'variable_8'
p1165
ag17
aS'gint'
p1166
aS'variable_9'
p1167
ag20
ag21
ag22
aS'gint'
p1168
aS'variable_10'
p1169
ag22
aS'guint8'
p1170
aS'variable_11'
p1171
ag22
aS'guint8'
p1172
aS'variable_12'
p1173
ag22
aS'struct'
p1174
aS'ip6_hdr'
p1175
aS'variable_13'
p1176
ag22
aS'variable_9'
p1177
aS'+='
p1178
aS'sizeof'
p1179
ag4
aS'variable_14'
p1180
ag17
ag22
aS'variable_11'
p1181
ag20
aS'func_1'
p1182
ag4
aS'variable_1'
p1183
ag8
aS'variable_9'
p1184
ag17
ag22
aS'variable_12'
p1185
ag20
ag4
ag4
aS'variable_11'
p1186
ag49
aS'variable_15'
p1187
ag17
aS'>>'
p1188
ag52
ag17
ag22
aS'variable_9'
p1189
aS'+='
p1190
aS'sizeof'
p1191
ag4
aS'variable_14'
p1192
ag17
ag22
aS'if'
p1193
ag4
aS'variable_11'
p1194
ag49
aS'variable_16'
p1195
ag17
aS'if'
p1196
ag4
aS'variable_12'
p1197
aS'=='
p1198
aS'variable_17'
p1199
ag17
aS'variable_9'
p1200
aS'+='
p1201
aS'sizeof'
p1202
ag4
aS'variable_14'
p1203
ag17
ag22
aS'variable_10'
p1204
ag20
aS'variable_9'
p1205
aS'<<'
p1206
ag75
ag22
aS'variable_13'
p1207
ag77
aS'variable_18'
p1208
ag20
aS'func_2'
p1209
ag4
aS'variable_1'
p1210
ag8
aS'variable_10'
p1211
ag8
aS'variable_19'
p1212
ag17
ag22
aS'if'
p1213
ag4
ag89
ag4
aS'variable_11'
p1214
ag49
aS'variable_20'
p1215
ag17
ag17
aS'memcpy'
p1216
ag4
aS'variable_13'
p1217
ag77
aS'variable_21'
p1218
ag77
aS'variable_22'
p1219
ag8
aS'variable_23'
p1220
ag8
aS'sizeof'
p1221
ag4
aS'variable_23'
p1222
ag17
ag17
ag22
aS'variable_13'
p1223
ag77
aS'variable_21'
p1224
ag77
aS'variable_22'
p1225
ag104
aS'variable_24'
p1226
ag106
ag20
aS'func_3'
p1227
ag4
aS'variable_1'
p1228
ag8
aS'variable_10'
p1229
ag8
ag96
ag17
ag22
aS'for'
p1230
ag4
aS'variable_24'
p1231
ag20
ag21
ag22
aS'variable_24'
p1232
ag95
ag96
ag22
aS'variable_24'
p1233
aS'++'
p1234
ag8
aS'variable_10'
p1235
aS'+='
p1236
ag96
ag17
aS'variable_13'
p1237
ag77
aS'variable_25'
p1238
ag77
aS'variable_22'
p1239
ag104
aS'variable_24'
p1240
ag106
ag20
aS'func_4'
p1241
ag4
aS'variable_1'
p1242
ag8
aS'variable_10'
p1243
ag8
ag96
ag17
ag22
aS'for'
p1244
ag4
aS'variable_24'
p1245
ag20
ag96
ag22
aS'variable_24'
p1246
ag95
aS'16'
p1247
ag22
aS'variable_24'
p1248
aS'++'
p1249
ag8
aS'variable_10'
p1250
aS'+='
p1251
ag96
ag17
aS'variable_13'
p1252
ag77
aS'variable_25'
p1253
ag77
aS'variable_22'
p1254
ag104
aS'variable_24'
p1255
ag106
ag20
aS'func_5'
p1256
ag4
aS'variable_1'
p1257
ag8
aS'variable_10'
p1258
ag8
ag96
ag17
ag22
aS'func_6'
p1259
ag4
aS'variable_5'
p1260
ag8
aS'variable_26'
p1261
ag8
aS'variable_1'
p1262
ag8
aS'variable_9'
p1263
aS'>>'
p1264
ag75
ag8
aS'func_7'
p1265
ag4
aS'variable_9'
p1266
ag8
ag4
aS'variable_10'
p1267
ag302
aS'variable_9'
p1268
ag17
ag17
ag8
ag4
aS'guint8'
p1269
ag6
ag17
ag49
aS'variable_13'
p1270
ag77
aS'variable_25'
p1271
ag17
ag22
aS'variable_27'
p1272
ag20
aS'func_8'
p1273
ag4
aS'variable_1'
p1274
ag8
aS'variable_10'
p1275
ag8
aS'variable_28'
p1276
ag17
ag22
aS'func_9'
p1277
ag4
aS'variable_5'
p1278
ag8
aS'variable_29'
p1279
ag8
aS'variable_1'
p1280
ag8
aS'variable_10'
p1281
aS'>>'
p1282
ag75
ag8
aS'func_10'
p1283
ag4
aS'variable_10'
p1284
ag8
aS'variable_28'
p1285
ag17
ag8
aS'variable_27'
p1286
ag17
ag22
aS'variable_10'
p1287
aS'+='
p1288
aS'variable_28'
p1289
ag22
aS'variable_13'
p1290
ag77
aS'variable_30'
p1291
ag20
aS'func_11'
p1292
ag4
aS'variable_1'
p1293
ag8
aS'variable_10'
p1294
ag8
aS'variable_31'
p1295
ag8
aS'variable_32'
p1296
ag17
ag22
aS'func_12'
p1297
ag4
aS'variable_5'
p1298
ag8
aS'variable_33'
p1299
ag8
aS'variable_1'
p1300
ag8
aS'variable_10'
p1301
aS'>>'
p1302
ag75
ag8
aS'func_13'
p1303
ag4
aS'variable_10'
p1304
ag8
aS'variable_31'
p1305
ag17
ag8
aS'variable_13'
p1306
ag77
aS'variable_30'
p1307
ag17
ag22
aS'variable_10'
p1308
aS'+='
p1309
aS'variable_31'
p1310
ag22
aS'variable_13'
p1311
ag77
aS'variable_30'
p1312
ag20
aS'func_14'
p1313
ag4
aS'variable_13'
p1314
ag77
aS'variable_30'
p1315
ag504
ag4
aS'variable_27'
p1316
aS'<<'
p1317
aS'variable_31'
p1318
ag17
ag17
ag22
aS'variable_13'
p1319
ag77
aS'variable_34'
p1320
ag20
ag4
ag4
aS'0x6'
p1321
aS'<<'
p1322
ag512
ag17
ag504
ag4
aS'variable_27'
p1323
aS'>>'
p1324
ag512
ag17
ag17
ag22
aS'variable_13'
p1325
ag77
aS'variable_35'
p1326
ag20
aS'variable_36'
p1327
ag22
aS'variable_13'
p1328
ag77
aS'variable_35'
p1329
ag20
aS'variable_37'
p1330
ag22
aS'variable_13'
p1331
ag77
aS'variable_35'
p1332
ag20
aS'variable_38'
p1333
ag22
aS'variable_13'
p1334
ag77
aS'variable_35'
p1335
ag20
aS'func_15'
p1336
ag4
aS'variable_1'
p1337
ag8
aS'variable_10'
p1338
ag8
aS'variable_39'
p1339
ag17
ag22
aS'func_16'
p1340
ag4
aS'variable_5'
p1341
ag8
aS'variable_40'
p1342
ag8
aS'variable_1'
p1343
ag8
aS'variable_10'
p1344
aS'>>'
p1345
ag75
ag8
aS'func_17'
p1346
ag4
aS'variable_10'
p1347
ag8
aS'variable_39'
p1348
ag17
ag8
aS'variable_13'
p1349
ag77
aS'variable_35'
p1350
ag8
ag541
aS'Next'
p1351
aS'header'
p1352
ag544
ag545
ag546
ag4
aS'0x'
p1353
ag545
aS'02x'
p1354
ag17
ag541
ag8
aS'func_18'
p1355
ag4
aS'variable_13'
p1356
ag77
aS'variable_35'
p1357
ag17
ag8
aS'variable_13'
p1358
ag77
aS'variable_35'
p1359
ag17
ag22
aS'variable_10'
p1360
aS'+='
p1361
aS'variable_39'
p1362
ag22
aS'variable_9'
p1363
ag20
aS'variable_10'
p1364
ag22
aS'variable_41'
p1365
ag77
aS'variable_42'
p1366
ag20
aS'func_19'
p1367
ag4
aS'variable_1'
p1368
ag8
aS'variable_10'
p1369
ag8
aS'variable_43'
p1370
ag17
ag227
aS'variable_44'
p1371
ag22
aS'variable_10'
p1372
aS'+='
p1373
aS'variable_43'
p1374
ag22
aS'variable_41'
p1375
ag77
aS'variable_42'
p1376
ag20
aS'func_20'
p1377
ag4
aS'variable_1'
p1378
ag8
aS'variable_10'
p1379
ag8
aS'variable_45'
p1380
ag8
aS'variable_32'
p1381
ag17
ag22
aS'variable_10'
p1382
aS'+='
p1383
aS'variable_45'
p1384
ag22
aS'func_21'
p1385
ag4
aS'variable_5'
p1386
ag8
aS'variable_46'
p1387
ag8
aS'variable_1'
p1388
ag8
aS'variable_9'
p1389
aS'>>'
p1390
ag75
ag8
aS'func_22'
p1391
ag4
aS'variable_9'
p1392
ag8
ag4
aS'variable_10'
p1393
ag302
aS'variable_9'
p1394
ag17
ag17
ag8
aS'variable_41'
p1395
ag77
aS'variable_42'
p1396
ag17
ag22
aS'variable_41'
p1397
ag77
aS'variable_42'
p1398
ag20
aS'func_23'
p1399
ag4
aS'variable_41'
p1400
ag77
aS'variable_42'
p1401
ag17
ag22
aS'variable_9'
p1402
ag20
aS'variable_10'
p1403
ag22
aS'variable_41'
p1404
ag77
aS'variable_47'
p1405
ag20
aS'func_24'
p1406
ag4
aS'variable_1'
p1407
ag8
aS'variable_10'
p1408
ag8
aS'variable_43'
p1409
ag17
ag227
aS'variable_44'
p1410
ag22
aS'variable_10'
p1411
aS'+='
p1412
aS'variable_43'
p1413
ag22
aS'variable_41'
p1414
ag77
aS'variable_47'
p1415
ag20
aS'func_25'
p1416
ag4
aS'variable_1'
p1417
ag8
aS'variable_10'
p1418
ag8
aS'variable_45'
p1419
ag8
aS'variable_32'
p1420
ag17
ag22
aS'variable_10'
p1421
aS'+='
p1422
aS'variable_45'
p1423
ag22
aS'func_26'
p1424
ag4
aS'variable_5'
p1425
ag8
aS'variable_48'
p1426
ag8
aS'variable_1'
p1427
ag8
aS'variable_9'
p1428
aS'>>'
p1429
ag75
ag8
aS'func_27'
p1430
ag4
aS'variable_9'
p1431
ag8
ag4
aS'variable_10'
p1432
ag302
aS'variable_9'
p1433
ag17
ag17
ag8
aS'variable_41'
p1434
ag77
aS'variable_47'
p1435
ag17
ag22
aS'variable_41'
p1436
ag77
aS'variable_47'
p1437
ag20
aS'func_28'
p1438
ag4
aS'variable_41'
p1439
ag77
aS'variable_47'
p1440
ag17
ag22
aS'variable_41'
p1441
ag77
aS'variable_49'
p1442
ag20
aS'func_29'
p1443
ag4
aS'variable_1'
p1444
ag8
aS'variable_10'
p1445
ag8
aS'variable_50'
p1446
ag8
aS'variable_32'
p1447
ag17
ag22
aS'func_30'
p1448
ag4
aS'variable_5'
p1449
ag8
aS'variable_51'
p1450
ag8
aS'variable_1'
p1451
ag8
aS'variable_10'
p1452
aS'>>'
p1453
ag75
ag8
aS'func_31'
p1454
ag4
aS'variable_10'
p1455
ag8
aS'variable_50'
p1456
ag17
ag8
aS'variable_41'
p1457
ag77
aS'variable_49'
p1458
ag17
ag22
aS'variable_10'
p1459
aS'+='
p1460
aS'variable_50'
p1461
ag22
aS'variable_41'
p1462
ag77
aS'variable_49'
p1463
ag20
aS'variable_6'
p1464
ag302
ag4
aS'variable_52'
p1465
ag17
aS'sizeof'
p1466
ag4
aS'struct'
p1467
aS'variable_53'
p1468
ag17
ag22
aS'variable_41'
p1469
ag77
aS'variable_49'
p1470
ag20
aS'func_32'
p1471
ag4
aS'variable_1'
p1472
ag17
ag22
aS'variable_41'
p1473
ag77
aS'variable_49'
p1474
aS'-='
p1475
aS'func_33'
p1476
ag4
ag21
ag8
aS'variable_10'
p1477
ag227
aS'variable_54'
p1478
ag17
ag22
aS'variable_41'
p1479
ag77
aS'variable_49'
p1480
aS'+='
p1481
aS'sizeof'
p1482
ag4
aS'struct'
p1483
aS'variable_55'
p1484
ag17
ag22
aS'variable_41'
p1485
ag77
aS'variable_49'
p1486
ag20
aS'func_34'
p1487
ag4
aS'variable_41'
p1488
ag77
aS'variable_49'
p1489
ag17
ag22
aS'variable_41'
p1490
ag77
aS'variable_56'
p1491
ag20
aS'func_35'
p1492
ag4
aS'variable_1'
p1493
ag8
aS'variable_10'
p1494
ag8
aS'variable_54'
p1495
ag8
aS'variable_32'
p1496
ag17
ag22
aS'func_36'
p1497
ag4
aS'variable_5'
p1498
ag8
aS'variable_57'
p1499
ag8
aS'variable_1'
p1500
ag8
aS'variable_10'
p1501
aS'>>'
p1502
ag75
ag8
aS'func_37'
p1503
ag4
aS'variable_10'
p1504
ag8
aS'variable_54'
p1505
ag17
ag8
aS'variable_41'
p1506
ag77
aS'variable_56'
p1507
ag17
ag22
aS'variable_10'
p1508
aS'+='
p1509
aS'variable_54'
p1510
ag22
aS'variable_41'
p1511
ag77
aS'variable_56'
p1512
ag20
aS'func_38'
p1513
ag4
aS'variable_41'
p1514
ag77
aS'variable_56'
p1515
ag17
ag22
aS'variable_9'
p1516
ag20
aS'func_39'
p1517
ag4
ag21
ag8
aS'variable_10'
p1518
ag17
ag22
aS'variable_49'
p1519
ag20
aS'func_40'
p1520
ag4
aS'variable_1'
p1521
ag8
aS'variable_9'
p1522
ag17
ag22
aS'variable_58'
p1523
ag20
ag4
aS'struct'
p1524
aS'lowpan_nhdr'
p1525
ag6
ag17
aS'func_41'
p1526
ag4
aS'sizeof'
p1527
ag4
aS'struct'
p1528
aS'variable_59'
p1529
ag17
ag227
aS'sizeof'
p1530
ag4
aS'struct'
p1531
aS'variable_55'
p1532
ag17
ag227
aS'variable_49'
p1533
ag17
ag22
aS'variable_58'
p1534
aS'->'
p1535
aS'variable_60'
p1536
ag20
aS'NULL'
p1537
ag22
aS'variable_58'
p1538
aS'->'
p1539
aS'variable_61'
p1540
ag20
aS'variable_36'
p1541
ag22
aS'variable_58'
p1542
aS'->'
p1543
aS'variable_49'
p1544
ag20
aS'variable_49'
p1545
ag227
aS'sizeof'
p1546
ag4
aS'struct'
p1547
aS'variable_55'
p1548
ag17
ag22
aS'variable_58'
p1549
aS'->'
p1550
aS'variable_62'
p1551
ag20
aS'func_42'
p1552
ag4
aS'variable_41'
p1553
ag77
aS'variable_49'
p1554
ag17
ag22
aS'memcpy'
p1555
ag4
aS'func_43'
p1556
ag4
aS'variable_58'
p1557
ag17
ag8
ag49
aS'variable_41'
p1558
ag8
aS'sizeof'
p1559
ag4
aS'struct'
p1560
aS'variable_55'
p1561
ag17
ag17
ag22
aS'func_44'
p1562
ag4
aS'variable_1'
p1563
ag8
aS'func_45'
p1564
ag4
aS'variable_58'
p1565
ag17
ag227
aS'sizeof'
p1566
ag4
aS'struct'
p1567
aS'variable_55'
p1568
ag17
ag8
aS'variable_9'
p1569
ag8
aS'variable_49'
p1570
ag17
ag22
aS'variable_9'
p1571
ag20
aS'func_46'
p1572
ag4
ag21
ag8
aS'variable_10'
p1573
ag17
ag22
aS'variable_58'
p1574
ag20
ag4
aS'struct'
p1575
aS'lowpan_nhdr'
p1576
ag6
ag17
aS'func_47'
p1577
ag4
aS'sizeof'
p1578
ag4
aS'struct'
p1579
aS'variable_59'
p1580
ag17
ag227
aS'func_48'
p1581
ag4
aS'variable_1'
p1582
ag8
aS'variable_9'
p1583
ag17
ag17
ag22
aS'variable_58'
p1584
aS'->'
p1585
aS'variable_60'
p1586
ag20
aS'NULL'
p1587
ag22
aS'variable_58'
p1588
aS'->'
p1589
aS'variable_61'
p1590
ag20
aS'variable_13'
p1591
ag77
aS'variable_35'
p1592
ag22
aS'variable_58'
p1593
aS'->'
p1594
aS'variable_49'
p1595
ag20
aS'func_49'
p1596
ag4
aS'variable_1'
p1597
ag8
aS'variable_9'
p1598
ag17
ag22
aS'variable_58'
p1599
aS'->'
p1600
aS'variable_62'
p1601
ag20
aS'func_50'
p1602
ag4
aS'variable_1'
p1603
ag8
aS'variable_9'
p1604
ag17
ag22
aS'variable_58'
p1605
aS'->'
p1606
aS'variable_62'
p1607
ag20
aS'variable_6'
p1608
ag302
aS'sizeof'
p1609
ag4
aS'struct'
p1610
aS'variable_53'
p1611
ag17
ag22
aS'func_51'
p1612
ag4
aS'variable_1'
p1613
ag8
aS'func_52'
p1614
ag4
aS'variable_58'
p1615
ag17
ag8
aS'variable_9'
p1616
ag8
aS'variable_58'
p1617
aS'->'
p1618
aS'variable_49'
p1619
ag17
ag22
aS'variable_63'
p1620
ag20
aS'func_53'
p1621
ag4
aS'variable_1'
p1622
ag8
ag49
aS'variable_13'
p1623
ag8
aS'variable_58'
p1624
ag17
ag22
aS'func_54'
p1625
ag4
aS'variable_3'
p1626
ag8
aS'variable_63'
p1627
ag8
ag541
aS'Decompressed'
p1628
aS'6LoWPAN'
p1629
aS'header'
p1630
ag541
ag17
ag22
aS'return'
p1631
aS'variable_63'
p1632
ag22
aaa(lp1633
I1
aI1
aI0
aI1
aI1
aa(lp1634
I742
aI132
aI122
aI132
aI122
aa(lp1635
(lp1636
S'main'
p1637
aa(lp1638
g1637
aa(lp1639
g1637
aa(lp1640
g1637
aa(lp1641
g1637
aaa(lp1642
S'464 /home/SySeVR/data/CVE_2011_1138_VULN_dissect_6lowpan_hc1.c memcpy 295'
p1643
aS'465 /home/SySeVR/data/CVE_2011_1138_VULN_dissect_6lowpan_hc1.c memcpy 146'
p1644
aS'466 /home/SySeVR/data/CVE_2011_1138_VULN_dissect_6lowpan_hc1.c memcpy 137'
p1645
aS'467 /home/SySeVR/data/CVE_2011_1138_VULN_dissect_6lowpan_hc1.c memcpy 109'
p1646
aS'468 /home/SySeVR/data/CVE_2011_1138_VULN_dissect_6lowpan_hc1.c memcpy 100'
p1647
aa.