(lp0
(lp1
(lp2
S'func_0'
p3
aS'('
p4
aS'variable_0'
p5
aS'*'
p6
aS'variable_1'
p7
aS','
p8
aS'variable_2'
p9
ag6
aS'variable_3'
p10
ag8
aS'variable_4'
p11
ag6
aS'variable_5'
p12
ag8
aS'gint'
p13
aS'variable_6'
p14
ag8
aS'variable_7'
p15
ag6
aS'variable_8'
p16
aS')'
p17
aS'gint'
p18
aS'variable_9'
p19
aS'='
p20
aS'0'
p21
aS';'
p22
aS'gint'
p23
aS'variable_10'
p24
ag22
aS'int'
p25
aS'variable_11'
p26
ag22
aS'guint8'
p27
aS'variable_12'
p28
ag22
aS'guint8'
p29
aS'variable_13'
p30
ag22
aS'struct'
p31
aS'ip6_hdr'
p32
aS'variable_14'
p33
ag22
aS'struct'
p34
aS'variable_15'
p35
ag6
aS'variable_16'
p36
ag22
aS'variable_9'
p37
aS'+='
p38
aS'sizeof'
p39
ag4
aS'variable_17'
p40
ag17
ag22
aS'variable_12'
p41
ag20
aS'func_1'
p42
ag4
aS'variable_1'
p43
ag8
aS'variable_9'
p44
ag17
ag22
aS'variable_13'
p45
ag20
ag4
ag4
aS'variable_12'
p46
aS'&'
p47
aS'variable_18'
p48
ag17
aS'>>'
p49
aS'1'
p50
ag17
ag22
aS'variable_9'
p51
aS'+='
p52
aS'sizeof'
p53
ag4
aS'variable_17'
p54
ag17
ag22
aS'if'
p55
ag4
aS'variable_12'
p56
ag47
aS'variable_19'
p57
ag17
aS'if'
p58
ag4
aS'variable_13'
p59
aS'=='
p60
aS'variable_20'
p61
ag17
aS'variable_9'
p62
aS'+='
p63
aS'sizeof'
p64
ag4
aS'variable_17'
p65
ag17
ag22
aS'variable_10'
p66
ag20
aS'variable_9'
p67
aS'<<'
p68
aS'3'
p69
ag22
aS'variable_14'
p70
aS'.'
p71
aS'variable_21'
p72
ag20
aS'func_2'
p73
ag4
aS'variable_1'
p74
ag8
aS'variable_10'
p75
ag8
aS'variable_22'
p76
ag17
ag22
aS'variable_10'
p77
aS'+='
p78
aS'variable_22'
p79
ag22
aS'variable_9'
p80
ag20
aS'variable_10'
p81
ag22
aS'if'
p82
ag4
aS'!'
p83
ag4
aS'variable_12'
p84
ag47
aS'variable_23'
p85
ag17
ag17
aS'for'
p86
ag4
aS'variable_11'
p87
ag20
ag21
ag22
aS'variable_11'
p88
aS'<'
p89
aS'8'
p90
ag22
aS'variable_11'
p91
aS'++'
p92
ag8
aS'variable_10'
p93
aS'+='
p94
ag90
ag17
aS'variable_14'
p95
ag71
aS'variable_24'
p96
ag71
aS'variable_25'
p97
aS'['
p98
aS'variable_11'
p99
aS']'
p100
ag20
aS'func_3'
p101
ag4
aS'variable_1'
p102
ag8
aS'variable_10'
p103
ag8
ag90
ag17
ag22
aS'memcpy'
p104
ag4
aS'variable_14'
p105
ag71
aS'variable_24'
p106
ag71
aS'variable_25'
p107
ag8
aS'variable_26'
p108
ag8
aS'sizeof'
p109
ag4
aS'variable_26'
p110
ag17
ag17
ag22
aS'if'
p111
ag4
ag83
ag4
aS'variable_12'
p112
ag47
aS'variable_27'
p113
ag17
ag17
aS'for'
p114
ag4
aS'variable_11'
p115
ag20
ag90
ag22
aS'variable_11'
p116
ag89
aS'16'
p117
ag22
aS'variable_11'
p118
aS'++'
p119
ag8
aS'variable_10'
p120
aS'+='
p121
ag90
ag17
aS'variable_14'
p122
ag71
aS'variable_24'
p123
ag71
aS'variable_25'
p124
ag98
aS'variable_11'
p125
ag100
ag20
aS'func_4'
p126
ag4
aS'variable_1'
p127
ag8
aS'variable_10'
p128
ag8
ag90
ag17
ag22
aS'if'
p129
ag4
aS'variable_3'
p130
aS'->'
p131
aS'variable_28'
p132
ag71
aS'variable_29'
p133
aS'=='
p134
aS'variable_30'
p135
ag17
aS'memcpy'
p136
ag4
ag47
aS'variable_14'
p137
ag71
aS'variable_24'
p138
ag71
aS'variable_25'
p139
ag98
ag90
ag100
ag8
aS'variable_3'
p140
aS'->'
p141
aS'variable_28'
p142
ag71
aS'variable_31'
p143
ag8
ag90
ag17
ag22
aS'variable_9'
p144
ag20
aS'variable_10'
p145
ag22
aS'if'
p146
ag4
ag83
ag4
aS'variable_12'
p147
ag47
aS'variable_32'
p148
ag17
ag17
aS'for'
p149
ag4
aS'variable_11'
p150
ag20
ag21
ag22
aS'variable_11'
p151
ag89
ag90
ag22
aS'variable_11'
p152
aS'++'
p153
ag8
aS'variable_10'
p154
aS'+='
p155
ag90
ag17
aS'variable_14'
p156
ag71
aS'variable_33'
p157
ag71
aS'variable_25'
p158
ag98
aS'variable_11'
p159
ag100
ag20
aS'func_5'
p160
ag4
aS'variable_1'
p161
ag8
aS'variable_10'
p162
ag8
ag90
ag17
ag22
aS'if'
p163
ag4
ag83
ag4
aS'variable_12'
p164
ag47
aS'variable_34'
p165
ag17
ag17
aS'for'
p166
ag4
aS'variable_11'
p167
ag20
ag90
ag22
aS'variable_11'
p168
ag89
aS'16'
p169
ag22
aS'variable_11'
p170
aS'++'
p171
ag8
aS'variable_10'
p172
aS'+='
p173
ag90
ag17
aS'if'
p174
ag4
ag83
ag4
aS'variable_12'
p175
ag47
aS'variable_35'
p176
ag17
ag17
aS'variable_10'
p177
aS'+='
p178
aS'variable_36'
p179
ag22
aS'variable_10'
p180
aS'+='
p181
aS'variable_37'
p182
ag22
aS'if'
p183
ag4
aS'variable_13'
p184
aS'=='
p185
aS'variable_20'
p186
ag17
aS'if'
p187
ag4
aS'variable_13'
p188
aS'=='
p189
aS'variable_38'
p190
ag17
aS'if'
p191
ag4
aS'variable_13'
p192
aS'=='
p193
aS'variable_39'
p194
ag17
aS'variable_10'
p195
aS'+='
p196
aS'variable_40'
p197
ag22
aS'if'
p198
ag4
ag4
aS'variable_12'
p199
ag47
aS'variable_19'
p200
ag17
aS'&&'
p201
ag4
aS'variable_13'
p202
aS'=='
p203
aS'variable_20'
p204
ag17
ag17
aS'variable_9'
p205
ag20
aS'func_6'
p206
ag4
ag21
ag8
aS'variable_10'
p207
ag17
ag22
aS'variable_16'
p208
ag20
ag4
aS'struct'
p209
aS'lowpan_nhdr'
p210
ag6
ag17
aS'func_7'
p211
ag4
aS'sizeof'
p212
ag4
aS'struct'
p213
aS'variable_15'
p214
ag17
aS'+'
p215
aS'func_8'
p216
ag4
aS'variable_1'
p217
ag8
aS'variable_9'
p218
ag17
ag17
ag22
aS'if'
p219
ag4
aS'variable_6'
p220
ag89
ag21
ag17
aS'variable_16'
p221
aS'->'
p222
aS'variable_41'
p223
ag20
aS'variable_6'
p224
aS'-'
p225
aS'sizeof'
p226
ag4
aS'struct'
p227
aS'variable_42'
p228
ag17
ag22
aS'func_9'
p229
ag4
aS'variable_1'
p230
ag8
aS'func_10'
p231
ag4
aS'variable_16'
p232
ag17
ag8
aS'variable_9'
p233
ag8
aS'variable_16'
p234
aS'->'
p235
aS'variable_43'
p236
ag17
ag22
aS'variable_44'
p237
ag20
aS'func_11'
p238
ag4
aS'variable_1'
p239
ag8
ag47
aS'variable_14'
p240
ag8
aS'variable_16'
p241
ag17
ag22
aS'func_12'
p242
ag4
aS'variable_3'
p243
ag8
aS'variable_44'
p244
ag8
aS'"'
p245
aS'Decompressed'
p246
aS'6LoWPAN'
p247
aS'header'
p248
ag245
ag17
ag22
aS'return'
p249
aS'variable_44'
p250
ag22
aa(lp251
S'func_0'
p252
ag4
aS'variable_0'
p253
ag6
aS'variable_1'
p254
ag8
aS'variable_2'
p255
ag6
aS'variable_3'
p256
ag8
aS'variable_4'
p257
ag6
aS'variable_5'
p258
ag8
aS'gint'
p259
aS'variable_6'
p260
ag8
aS'variable_7'
p261
ag6
aS'variable_8'
p262
ag17
aS'gint'
p263
aS'variable_9'
p264
ag20
ag21
ag22
aS'gint'
p265
aS'variable_10'
p266
ag22
aS'int'
p267
aS'variable_11'
p268
ag22
aS'guint8'
p269
aS'variable_12'
p270
ag22
aS'guint8'
p271
aS'variable_13'
p272
ag20
ag21
ag22
aS'guint8'
p273
aS'variable_14'
p274
ag22
aS'struct'
p275
aS'ip6_hdr'
p276
aS'variable_15'
p277
ag22
aS'struct'
p278
aS'variable_16'
p279
ag6
aS'variable_17'
p280
ag22
aS'variable_9'
p281
aS'+='
p282
aS'sizeof'
p283
ag4
aS'variable_18'
p284
ag17
ag22
aS'variable_12'
p285
ag20
aS'func_1'
p286
ag4
aS'variable_1'
p287
ag8
aS'variable_9'
p288
ag17
ag22
aS'variable_14'
p289
ag20
ag4
ag4
aS'variable_12'
p290
ag47
aS'variable_19'
p291
ag17
aS'>>'
p292
ag50
ag17
ag22
aS'variable_9'
p293
aS'+='
p294
aS'sizeof'
p295
ag4
aS'variable_18'
p296
ag17
ag22
aS'if'
p297
ag4
aS'variable_12'
p298
ag47
aS'variable_20'
p299
ag17
aS'if'
p300
ag4
aS'variable_14'
p301
aS'=='
p302
aS'variable_21'
p303
ag17
aS'variable_13'
p304
ag20
aS'func_2'
p305
ag4
aS'variable_1'
p306
ag8
aS'variable_9'
p307
ag17
ag22
aS'variable_9'
p308
aS'+='
p309
aS'sizeof'
p310
ag4
aS'variable_18'
p311
ag17
ag22
aS'variable_10'
p312
ag20
aS'variable_9'
p313
aS'<<'
p314
ag69
ag22
aS'variable_15'
p315
ag71
aS'variable_22'
p316
ag20
aS'func_3'
p317
ag4
aS'variable_1'
p318
ag8
aS'variable_10'
p319
ag8
aS'variable_23'
p320
ag17
ag22
aS'variable_10'
p321
aS'+='
p322
aS'variable_23'
p323
ag22
aS'variable_9'
p324
ag20
aS'variable_10'
p325
ag22
aS'if'
p326
ag4
ag83
ag4
aS'variable_12'
p327
ag47
aS'variable_24'
p328
ag17
ag17
aS'for'
p329
ag4
aS'variable_11'
p330
ag20
ag21
ag22
aS'variable_11'
p331
ag89
ag90
ag22
aS'variable_11'
p332
aS'++'
p333
ag8
aS'variable_10'
p334
aS'+='
p335
ag90
ag17
aS'variable_15'
p336
ag71
aS'variable_25'
p337
ag71
aS'variable_26'
p338
ag98
aS'variable_11'
p339
ag100
ag20
aS'func_4'
p340
ag4
aS'variable_1'
p341
ag8
aS'variable_10'
p342
ag8
ag90
ag17
ag22
aS'memcpy'
p343
ag4
aS'variable_15'
p344
ag71
aS'variable_25'
p345
ag71
aS'variable_26'
p346
ag8
aS'variable_27'
p347
ag8
aS'sizeof'
p348
ag4
aS'variable_27'
p349
ag17
ag17
ag22
aS'if'
p350
ag4
ag83
ag4
aS'variable_12'
p351
ag47
aS'variable_28'
p352
ag17
ag17
aS'for'
p353
ag4
aS'variable_11'
p354
ag20
ag90
ag22
aS'variable_11'
p355
ag89
aS'16'
p356
ag22
aS'variable_11'
p357
aS'++'
p358
ag8
aS'variable_10'
p359
aS'+='
p360
ag90
ag17
aS'variable_15'
p361
ag71
aS'variable_25'
p362
ag71
aS'variable_26'
p363
ag98
aS'variable_11'
p364
ag100
ag20
aS'func_5'
p365
ag4
aS'variable_1'
p366
ag8
aS'variable_10'
p367
ag8
ag90
ag17
ag22
aS'if'
p368
ag4
aS'variable_3'
p369
aS'->'
p370
aS'variable_29'
p371
ag71
aS'variable_30'
p372
aS'=='
p373
aS'variable_31'
p374
ag17
aS'memcpy'
p375
ag4
ag47
aS'variable_15'
p376
ag71
aS'variable_25'
p377
ag71
aS'variable_26'
p378
ag98
ag90
ag100
ag8
aS'variable_3'
p379
aS'->'
p380
aS'variable_29'
p381
ag71
aS'variable_32'
p382
ag8
ag90
ag17
ag22
aS'variable_9'
p383
ag20
aS'variable_10'
p384
ag22
aS'if'
p385
ag4
ag83
ag4
aS'variable_12'
p386
ag47
aS'variable_33'
p387
ag17
ag17
aS'for'
p388
ag4
aS'variable_11'
p389
ag20
ag21
ag22
aS'variable_11'
p390
ag89
ag90
ag22
aS'variable_11'
p391
aS'++'
p392
ag8
aS'variable_10'
p393
aS'+='
p394
ag90
ag17
aS'variable_15'
p395
ag71
aS'variable_34'
p396
ag71
aS'variable_26'
p397
ag98
aS'variable_11'
p398
ag100
ag20
aS'func_6'
p399
ag4
aS'variable_1'
p400
ag8
aS'variable_10'
p401
ag8
ag90
ag17
ag22
aS'if'
p402
ag4
ag83
ag4
aS'variable_12'
p403
ag47
aS'variable_35'
p404
ag17
ag17
aS'for'
p405
ag4
aS'variable_11'
p406
ag20
ag90
ag22
aS'variable_11'
p407
ag89
aS'16'
p408
ag22
aS'variable_11'
p409
aS'++'
p410
ag8
aS'variable_10'
p411
aS'+='
p412
ag90
ag17
aS'if'
p413
ag4
ag83
ag4
aS'variable_12'
p414
ag47
aS'variable_36'
p415
ag17
ag17
aS'variable_10'
p416
aS'+='
p417
aS'variable_37'
p418
ag22
aS'variable_10'
p419
aS'+='
p420
aS'variable_38'
p421
ag22
aS'if'
p422
ag4
aS'variable_14'
p423
aS'=='
p424
aS'variable_21'
p425
ag17
aS'if'
p426
ag4
aS'variable_14'
p427
aS'=='
p428
aS'variable_39'
p429
ag17
aS'if'
p430
ag4
aS'variable_14'
p431
aS'=='
p432
aS'variable_40'
p433
ag17
aS'variable_10'
p434
aS'+='
p435
aS'variable_41'
p436
ag22
aS'if'
p437
ag4
ag4
aS'variable_12'
p438
ag47
aS'variable_20'
p439
ag17
aS'&&'
p440
ag4
aS'variable_14'
p441
aS'=='
p442
aS'variable_21'
p443
ag17
ag17
aS'gint'
p444
aS'variable_42'
p445
ag22
aS'variable_9'
p446
ag20
aS'variable_10'
p447
ag22
aS'if'
p448
ag4
aS'variable_13'
p449
ag47
aS'variable_43'
p450
ag17
aS'variable_10'
p451
aS'+='
p452
aS'variable_44'
p453
ag22
aS'variable_10'
p454
aS'+='
p455
aS'variable_45'
p456
ag22
aS'variable_9'
p457
ag20
aS'variable_10'
p458
ag22
aS'if'
p459
ag4
aS'variable_13'
p460
ag47
aS'variable_46'
p461
ag17
aS'variable_10'
p462
aS'+='
p463
aS'variable_44'
p464
ag22
aS'variable_10'
p465
aS'+='
p466
aS'variable_45'
p467
ag22
aS'if'
p468
ag4
ag83
ag4
aS'variable_13'
p469
ag47
aS'variable_47'
p470
ag17
ag17
aS'variable_10'
p471
aS'+='
p472
aS'variable_48'
p473
ag22
aS'if'
p474
ag4
aS'variable_6'
p475
aS'>'
p476
ag20
ag21
ag17
aS'if'
p477
ag4
aS'variable_6'
p478
ag89
ag4
aS'variable_49'
p479
ag17
aS'sizeof'
p480
ag4
aS'struct'
p481
aS'variable_50'
p482
ag17
ag17
aS'variable_10'
p483
aS'+='
p484
aS'variable_51'
p485
ag22
aS'variable_9'
p486
ag20
aS'func_7'
p487
ag4
ag21
ag8
aS'variable_10'
p488
ag17
ag22
aS'variable_42'
p489
ag20
aS'func_8'
p490
ag4
aS'variable_1'
p491
ag8
aS'variable_9'
p492
ag17
ag22
aS'variable_17'
p493
ag20
ag4
aS'struct'
p494
aS'lowpan_nhdr'
p495
ag6
ag17
aS'func_9'
p496
ag4
aS'sizeof'
p497
ag4
aS'struct'
p498
aS'variable_16'
p499
ag17
ag215
aS'sizeof'
p500
ag4
aS'struct'
p501
aS'variable_52'
p502
ag17
ag215
aS'variable_42'
p503
ag17
ag22
aS'variable_17'
p504
aS'->'
p505
aS'variable_53'
p506
ag20
aS'NULL'
p507
ag22
aS'variable_17'
p508
aS'->'
p509
aS'variable_54'
p510
ag20
aS'variable_55'
p511
ag22
aS'variable_17'
p512
aS'->'
p513
aS'variable_42'
p514
ag20
aS'variable_42'
p515
ag215
aS'sizeof'
p516
ag4
aS'struct'
p517
aS'variable_52'
p518
ag17
ag22
aS'variable_17'
p519
aS'->'
p520
aS'variable_56'
p521
ag20
aS'func_10'
p522
ag4
aS'variable_57'
p523
ag71
aS'variable_42'
p524
ag17
ag22
aS'memcpy'
p525
ag4
aS'func_11'
p526
ag4
aS'variable_17'
p527
ag17
ag8
ag47
aS'variable_57'
p528
ag8
aS'sizeof'
p529
ag4
aS'struct'
p530
aS'variable_52'
p531
ag17
ag17
ag22
aS'func_12'
p532
ag4
aS'variable_1'
p533
ag8
aS'func_13'
p534
ag4
aS'variable_17'
p535
ag17
ag215
aS'sizeof'
p536
ag4
aS'struct'
p537
aS'variable_52'
p538
ag17
ag8
aS'variable_9'
p539
ag8
aS'variable_42'
p540
ag17
ag22
aaa(lp541
I1
aI1
aa(lp542
I439
aI544
aa(lp543
(lp544
S'main'
p545
aa(lp546
g545
aaa(lp547
S'195 /home/SySeVR/data/CVE_2011_1138_VULN_dissect_6lowpan_hc1.c nhdr_list -> reported = dgram_size - sizeof ( struct ip6_hdr ) 312'
p548
aS'196 /home/SySeVR/data/CVE_2011_1138_VULN_dissect_6lowpan_hc1.c nhdr_list -> length = length + sizeof ( struct udp_hdr ) 291'
p549
aa.