(lp0
(lp1
(lp2
S'static'
p3
aS'int'
p4
aS'func_0'
p5
aS'('
p6
aS'variable_0'
p7
aS'*'
p8
aS'variable_1'
p9
aS','
p10
aS'const'
p11
aS'uint8_t'
p12
ag8
aS'variable_2'
p13
ag10
aS'int'
p14
aS'variable_3'
p15
aS')'
p16
aS'int'
p17
aS'variable_4'
p18
ag10
aS'variable_5'
p19
aS'='
p20
aS'variable_2'
p21
aS'['
p22
aS'4'
p23
aS']'
p24
aS';'
p25
aS'if'
p26
ag6
aS'variable_3'
p27
aS'<'
p28
aS'variable_6'
p29
ag16
aS'if'
p30
ag6
aS'variable_5'
p31
aS'=='
p32
aS'variable_7'
p33
ag16
aS'if'
p34
ag6
aS'variable_5'
p35
aS'=='
p36
aS'variable_8'
p37
ag16
aS'if'
p38
ag6
aS'variable_5'
p39
aS'=='
p40
aS'variable_9'
p41
ag16
aS'if'
p42
ag6
aS'variable_2'
p43
ag22
aS'13'
p44
ag24
aS'=='
p45
aS'1'
p46
ag16
aS'int'
p47
aS'variable_10'
p48
ag22
aS'3'
p49
ag24
ag25
aS'if'
p50
ag6
aS'sscanf'
p51
ag6
aS'variable_2'
p52
aS'+'
p53
aS'14'
p54
ag10
aS'"'
p55
aS'Schroedinger'
p56
aS'%'
p57
aS'd'
p58
aS'.'
p59
ag57
ag58
ag59
ag57
ag58
ag55
ag10
aS'variable_10'
p60
ag10
aS'variable_10'
p61
ag53
ag46
ag10
aS'variable_10'
p62
ag53
aS'2'
p63
ag16
aS'=='
p64
ag49
ag16
aS'if'
p65
ag6
aS'variable_10'
p66
ag22
aS'0'
p67
ag24
aS'=='
p68
ag46
aS'&&'
p69
aS'variable_10'
p70
ag22
ag46
ag24
aS'=='
p71
ag67
aS'&&'
p72
aS'variable_10'
p73
ag22
ag63
ag24
ag28
ag20
aS'7'
p74
ag16
aaa(lp75
I0
aa(lp76
I67
aa(lp77
(lp78
S'main'
p79
aaa(lp80
S'878 /home/SySeVR/data/CVE_2011_3950_PATCHED_dirac_decode_data_unit.c sscanf 35'
p81
aa.