(lp0
(lp1
(lp2
S'static'
p3
aS'int'
p4
aS'func_0'
p5
aS'('
p6
aS'struct'
p7
aS'variable_0'
p8
aS'*'
p9
aS'variable_1'
p10
aS','
p11
aS'struct'
p12
aS'variable_2'
p13
ag9
aS'variable_3'
p14
aS')'
p15
aS'u8'
p16
aS'variable_4'
p17
aS';'
p18
aS'struct'
p19
aS'ipv6hdr'
p20
aS'variable_5'
p21
ag11
ag9
aS'variable_6'
p22
ag18
aS'variable_7'
p23
aS'='
p24
aS'variable_1'
p25
aS'->'
p26
aS'variable_8'
p27
aS'.'
p28
aS'variable_9'
p29
aS'-'
p30
aS'variable_1'
p31
aS'->'
p32
aS'variable_10'
p33
ag18
aS'variable_6'
p34
ag24
aS'func_1'
p35
ag6
aS'variable_1'
p36
ag11
aS'variable_7'
p37
ag11
aS'sizeof'
p38
ag6
aS'variable_5'
p39
ag15
ag11
aS'&'
p40
aS'variable_5'
p41
ag15
ag18
aS'if'
p42
ag6
aS'variable_6'
p43
aS'=='
p44
aS'NULL'
p45
ag15
aS'variable_4'
p46
ag24
aS'variable_6'
p47
aS'->'
p48
aS'variable_4'
p49
ag18
aS'variable_7'
p50
aS'+='
p51
aS'sizeof'
p52
ag6
aS'variable_5'
p53
ag15
ag18
aS'variable_7'
p54
ag24
aS'func_2'
p55
ag6
aS'variable_1'
p56
ag11
aS'variable_7'
p57
ag11
ag40
aS'variable_4'
p58
ag11
aS'variable_1'
p59
aS'->'
p60
aS'variable_11'
p61
ag30
aS'variable_1'
p62
aS'->'
p63
aS'variable_12'
p64
ag30
aS'variable_7'
p65
ag15
ag18
aS'if'
p66
ag6
aS'variable_7'
p67
aS'<'
p68
aS'0'
p69
ag15
aS'variable_13'
p70
ag24
aS'func_3'
p71
ag6
aS'variable_1'
p72
ag11
aS'variable_7'
p73
ag11
aS'sizeof'
p74
ag6
aS'variable_14'
p75
ag15
ag11
ag40
aS'variable_14'
p76
ag15
ag18
aS'if'
p77
ag6
aS'variable_13'
p78
aS'=='
p79
aS'NULL'
p80
ag15
aS'variable_3'
p81
aS'->'
p82
aS'variable_15'
p83
ag28
aS'variable_16'
p84
ag28
aS'variable_17'
p85
ag24
aS'variable_13'
p86
aS'->'
p87
aS'variable_18'
p88
ag18
aS'variable_3'
p89
aS'->'
p90
aS'variable_15'
p91
ag28
aS'variable_16'
p92
ag28
aS'variable_19'
p93
ag24
aS'variable_13'
p94
aS'->'
p95
aS'variable_20'
p96
ag18
aS'variable_21'
p97
ag24
aS'func_4'
p98
ag6
aS'variable_1'
p99
ag11
aS'variable_7'
p100
ag11
aS'sizeof'
p101
ag6
aS'variable_22'
p102
ag15
ag11
ag40
aS'variable_22'
p103
ag15
ag18
aS'if'
p104
ag6
aS'variable_21'
p105
aS'=='
p106
aS'NULL'
p107
ag15
aS'variable_3'
p108
aS'->'
p109
aS'variable_15'
p110
ag28
aS'variable_16'
p111
ag28
aS'variable_17'
p112
ag24
aS'variable_21'
p113
aS'->'
p114
aS'variable_18'
p115
ag18
aS'variable_3'
p116
aS'->'
p117
aS'variable_15'
p118
ag28
aS'variable_16'
p119
ag28
aS'variable_19'
p120
ag24
aS'variable_21'
p121
aS'->'
p122
aS'variable_20'
p123
ag18
aa(lp124
S'static'
p125
aS'int'
p126
aS'func_0'
p127
ag6
aS'struct'
p128
aS'variable_0'
p129
ag9
aS'variable_1'
p130
ag11
aS'struct'
p131
aS'variable_2'
p132
ag9
aS'variable_3'
p133
ag15
aS'variable_4'
p134
ag24
aS'variable_1'
p135
aS'->'
p136
aS'variable_5'
p137
ag28
aS'variable_6'
p138
ag30
aS'variable_1'
p139
aS'->'
p140
aS'variable_7'
p141
ag18
aS'variable_8'
p142
ag24
aS'func_1'
p143
ag6
aS'variable_1'
p144
ag11
aS'variable_4'
p145
ag11
aS'sizeof'
p146
ag6
aS'variable_9'
p147
ag15
ag11
ag40
aS'variable_9'
p148
ag15
ag18
aS'if'
p149
ag6
aS'variable_8'
p150
aS'=='
p151
aS'NULL'
p152
ag15
aS'func_2'
p153
ag6
ag40
aS'variable_3'
p154
aS'->'
p155
aS'variable_10'
p156
ag28
aS'variable_11'
p157
ag28
aS'variable_12'
p158
ag28
aS'variable_13'
p159
ag11
ag40
aS'variable_8'
p160
aS'->'
p161
aS'variable_13'
p162
ag15
ag18
aS'func_3'
p163
ag6
ag40
aS'variable_3'
p164
aS'->'
p165
aS'variable_10'
p166
ag28
aS'variable_11'
p167
ag28
aS'variable_12'
p168
ag28
aS'variable_14'
p169
ag11
ag40
aS'variable_8'
p170
aS'->'
p171
aS'variable_14'
p172
ag15
ag18
aS'variable_15'
p173
ag24
aS'variable_8'
p174
aS'->'
p175
aS'variable_15'
p176
ag18
aS'variable_4'
p177
aS'+='
p178
aS'sizeof'
p179
ag6
aS'variable_9'
p180
ag15
ag18
aS'variable_4'
p181
ag24
aS'func_4'
p182
ag6
aS'variable_1'
p183
ag11
aS'variable_4'
p184
ag11
ag40
aS'variable_15'
p185
ag11
aS'variable_1'
p186
aS'->'
p187
aS'variable_16'
p188
ag30
aS'variable_1'
p189
aS'->'
p190
aS'variable_17'
p191
ag30
aS'variable_4'
p192
ag15
ag18
aS'if'
p193
ag6
aS'variable_4'
p194
ag68
ag69
ag15
aS'switch'
p195
ag6
aS'variable_15'
p196
ag15
aS'variable_18'
p197
ag24
aS'func_5'
p198
ag6
aS'variable_1'
p199
ag11
aS'variable_4'
p200
ag11
aS'sizeof'
p201
ag6
aS'variable_19'
p202
ag15
ag11
ag40
aS'variable_19'
p203
ag15
ag18
aS'if'
p204
ag6
aS'variable_18'
p205
aS'=='
p206
aS'NULL'
p207
ag15
aS'variable_3'
p208
aS'->'
p209
aS'variable_10'
p210
ag28
aS'variable_11'
p211
ag28
aS'variable_20'
p212
ag24
aS'variable_18'
p213
aS'->'
p214
aS'variable_21'
p215
ag18
aS'variable_3'
p216
aS'->'
p217
aS'variable_10'
p218
ag28
aS'variable_11'
p219
ag28
aS'variable_22'
p220
ag24
aS'variable_18'
p221
aS'->'
p222
aS'variable_23'
p223
ag18
aS'variable_24'
p224
ag24
aS'func_6'
p225
ag6
aS'variable_1'
p226
ag11
aS'variable_4'
p227
ag11
aS'sizeof'
p228
ag6
aS'variable_25'
p229
ag15
ag11
ag40
aS'variable_25'
p230
ag15
ag18
aS'if'
p231
ag6
aS'variable_24'
p232
aS'=='
p233
aS'NULL'
p234
ag15
aS'variable_3'
p235
aS'->'
p236
aS'variable_10'
p237
ag28
aS'variable_11'
p238
ag28
aS'variable_20'
p239
ag24
aS'variable_24'
p240
aS'->'
p241
aS'variable_21'
p242
ag18
aS'variable_3'
p243
aS'->'
p244
aS'variable_10'
p245
ag28
aS'variable_11'
p246
ag28
aS'variable_22'
p247
ag24
aS'variable_24'
p248
aS'->'
p249
aS'variable_23'
p250
ag18
aaa(lp251
I0
aI0
aa(lp252
I92
aI24
aa(lp253
(lp254
S'main'
p255
aa(lp256
g255
aaa(lp257
S'23 /home/SySeVR/data/CVE_2005_4886_VULN_selinux_parse_skb_ipv6.c offset = ipv6_skip_exthdr ( skb , offset , & nexthdr , skb -> tail - skb -> head - offset ) 18'
p258
aS'24 /home/SySeVR/data/CVE_2005_4886_VULN_selinux_parse_skb_ipv6.c offset = skb -> nh . raw - skb -> data 7'
p259
aa.