(lp0
(lp1
(lp2
S'static'
p3
aS'int'
p4
aS'func_0'
p5
aS'('
p6
aS'struct'
p7
aS'variable_0'
p8
aS'*'
p9
aS'variable_1'
p10
aS','
p11
aS'int'
p12
ag9
aS'variable_2'
p13
ag11
aS'int'
p14
aS'variable_3'
p15
aS')'
p16
aS'struct'
p17
aS'variable_4'
p18
ag9
aS'variable_5'
p19
aS'='
p20
ag6
aS'struct'
p21
aS'full_sockaddr_ax25'
p22
ag9
ag16
aS'variable_6'
p23
aS';'
p24
aS'struct'
p25
aS'variable_1'
p26
ag9
aS'variable_7'
p27
ag20
aS'variable_1'
p28
aS'->'
p29
aS'variable_7'
p30
ag24
aS'variable_8'
p31
ag9
aS'variable_9'
p32
ag24
aS'variable_9'
p33
ag20
aS'func_1'
p34
ag6
aS'variable_7'
p35
ag16
ag24
aS'if'
p36
ag6
aS'variable_3'
p37
aS'!='
p38
aS'0'
p39
ag16
aS'variable_5'
p40
aS'->'
p41
aS'variable_10'
p42
aS'.'
p43
aS'variable_11'
p44
ag20
aS'variable_12'
p45
ag24
aS'variable_5'
p46
aS'->'
p47
aS'variable_10'
p48
ag43
aS'variable_13'
p49
ag20
aS'variable_9'
p50
aS'->'
p51
aS'variable_14'
p52
ag24
aS'variable_5'
p53
aS'->'
p54
aS'variable_10'
p55
ag43
aS'variable_15'
p56
ag20
aS'1'
p57
ag24
aS'if'
p58
ag6
aS'variable_9'
p59
aS'->'
p60
aS'variable_16'
p61
aS'!='
p62
aS'NULL'
p63
ag16
aS'memcpy'
p64
ag6
aS'&'
p65
aS'variable_5'
p66
aS'->'
p67
aS'variable_17'
p68
aS'['
p69
ag39
aS']'
p70
ag11
aS'variable_9'
p71
aS'->'
p72
aS'variable_16'
p73
aS'->'
p74
aS'variable_18'
p75
aS'->'
p76
aS'variable_19'
p77
ag11
aS'variable_20'
p78
ag16
ag24
aaa(lp79
I0
aa(lp80
I89
aa(lp81
(lp82
S'main'
p83
aaa(lp84
S'447 /home/SySeVR/data/CVE_2010_3875_PATCHED_ax25_getname.c memcpy 35'
p85
aa.