(lp0
(lp1
(lp2
S'long'
p3
aS'func_0'
p4
aS'('
p5
aS'unsigned'
p6
aS'int'
p7
aS'variable_0'
p8
aS','
p9
aS'unsigned'
p10
aS'long'
p11
aS'variable_1'
p12
aS')'
p13
aS'struct'
p14
aS'variable_2'
p15
aS'*'
p16
aS'variable_3'
p17
aS'='
p18
aS'variable_4'
p19
aS'->'
p20
aS'variable_5'
p21
aS';'
p22
aS'struct'
p23
aS'variable_6'
p24
ag16
aS'variable_7'
p25
ag22
aS'struct'
p26
aS'variable_8'
p27
ag16
aS'variable_9'
p28
ag22
aS'unsigned'
p29
aS'int'
p30
aS'variable_10'
p31
ag18
aS'func_1'
p32
ag5
aS'variable_0'
p33
ag13
ag22
aS'variable_7'
p34
ag18
aS'variable_3'
p35
aS'->'
p36
aS'variable_11'
p37
aS'->'
p38
aS'variable_7'
p39
ag22
aS'if'
p40
ag5
ag5
aS'variable_10'
p41
aS'>'
p42
ag18
aS'variable_12'
p43
ag13
aS'&&'
p44
ag5
ag5
aS'variable_10'
p45
aS'<'
p46
aS'variable_13'
p47
ag13
aS'||'
p48
ag5
aS'variable_10'
p49
ag42
ag18
aS'variable_14'
p50
ag13
ag13
ag13
aS'if'
p51
ag5
ag5
aS'variable_10'
p52
ag42
ag18
aS'variable_13'
p53
ag13
aS'&&'
p54
ag5
aS'variable_10'
p55
ag46
aS'variable_14'
p56
ag13
aS'&&'
p57
ag5
aS'variable_10'
p58
ag46
aS'variable_13'
p59
aS'+'
p60
aS'variable_7'
p61
aS'->'
p62
aS'variable_15'
p63
aS'->'
p64
aS'variable_16'
p65
ag13
ag13
aS'variable_9'
p66
ag18
aS'&'
p67
aS'variable_7'
p68
aS'->'
p69
aS'variable_15'
p70
aS'->'
p71
aS'variable_17'
p72
aS'['
p73
aS'variable_10'
p74
aS'-'
p75
aS'variable_13'
p76
aS']'
p77
ag22
aS'variable_18'
p78
ag18
aS'variable_9'
p79
aS'->'
p80
aS'variable_18'
p81
ag22
aS'if'
p82
ag5
aS'!'
p83
aS'variable_18'
p84
ag13
aS'if'
p85
ag5
ag5
ag5
aS'variable_9'
p86
aS'->'
p87
aS'variable_19'
p88
ag67
aS'variable_20'
p89
ag13
aS'&&'
p90
ag83
aS'func_2'
p91
ag5
aS'variable_21'
p92
ag13
ag13
aS'||'
p93
ag5
ag5
aS'variable_9'
p94
aS'->'
p95
aS'variable_19'
p96
ag67
aS'variable_22'
p97
ag13
aS'&&'
p98
ag83
aS'variable_3'
p99
aS'->'
p100
aS'variable_23'
p101
ag13
aS'||'
p102
ag5
ag5
aS'variable_9'
p103
aS'->'
p104
aS'variable_19'
p105
ag67
aS'variable_24'
p106
ag13
aS'&&'
p107
ag83
aS'variable_3'
p108
aS'->'
p109
aS'variable_25'
p110
ag13
aS'||'
p111
ag5
ag83
ag5
aS'variable_9'
p112
aS'->'
p113
aS'variable_19'
p114
ag67
aS'variable_26'
p115
ag13
aS'&&'
p116
ag5
aS'variable_3'
p117
aS'->'
p118
aS'variable_11'
p119
aS'->'
p120
aS'variable_27'
p121
aS'=='
p122
aS'variable_28'
p123
ag13
ag13
ag13
aS'if'
p124
ag5
aS'variable_9'
p125
aS'->'
p126
aS'variable_19'
p127
ag67
aS'variable_29'
p128
ag13
aS'variable_30'
p129
ag18
aS'func_3'
p130
ag5
aS'variable_7'
p131
ag9
aS'variable_31'
p132
ag9
aS'variable_3'
p133
ag13
ag22
aS'variable_30'
p134
ag18
aS'func_4'
p135
ag5
aS'variable_7'
p136
ag9
aS'variable_31'
p137
ag9
aS'variable_3'
p138
ag13
ag22
aS'if'
p139
ag5
aS'variable_30'
p140
ag13
aS'func_5'
p141
ag5
aS'"'
p142
aS'ret'
p143
ag18
aS'%'
p144
aS'x'
p145
aS'\\'
p146
aS'n'
p147
ag142
ag9
aS'variable_30'
p148
ag13
ag22
aS'return'
p149
aS'variable_30'
p150
ag22
aaa(lp151
I0
aa(lp152
I108
aa(lp153
(lp154
S'main'
p155
aaa(lp156
S'126 /home/SySeVR/data/CVE_2010_2803_VULN_drm_ioctl.c ioctl = & dev -> driver -> ioctls [ nr - DRM_COMMAND_BASE ] 28'
p157
aa.