(lp0
(lp1
(lp2
S'static'
p3
aS'int'
p4
aS'func_0'
p5
aS'('
p6
aS'variable_0'
p7
aS'*'
p8
aS'variable_1'
p9
aS','
p10
aS'void'
p11
ag8
aS'variable_2'
p12
ag10
aS'int'
p13
ag8
aS'variable_3'
p14
ag10
aS'variable_4'
p15
ag8
aS'variable_5'
p16
aS')'
p17
aS'const'
p18
aS'uint8_t'
p19
ag8
aS'variable_6'
p20
aS'='
p21
aS'variable_5'
p22
aS'->'
p23
aS'variable_2'
p24
aS';'
p25
aS'const'
p26
aS'uint8_t'
p27
ag8
aS'variable_7'
p28
ag21
aS'variable_6'
p29
aS'+'
p30
aS'variable_5'
p31
aS'->'
p32
aS'variable_8'
p33
ag25
aS'while'
p34
ag6
aS'variable_9'
p35
aS'<'
p36
aS'variable_10'
p37
aS'&&'
p38
aS'variable_7'
p39
aS'-'
p40
aS'2'
p41
aS'>'
p42
aS'variable_6'
p43
ag17
aS'if'
p44
ag6
aS'variable_7'
p45
ag40
aS'3'
p46
ag36
aS'variable_6'
p47
ag17
aS'if'
p48
ag6
aS'variable_7'
p49
ag40
aS'1'
p50
ag36
aS'variable_6'
p51
ag17
aaa(lp52
I0
aa(lp53
I39
aa(lp54
(lp55
S'main'
p56
aaa(lp57
S'771 /home/SySeVR/data/CVE_2011_3945_VULN_decode_frame.c const uint8_t * buf_end = buf + avpkt -> size ; 4'
p58
aa.