(lp0
(lp1
(lp2
S'static'
p3
aS'char'
p4
aS'*'
p5
aS'func_0'
p6
aS'('
p7
aS'variable_0'
p8
ag5
aS'variable_1'
p9
aS','
p10
aS'int'
p11
aS'variable_2'
p12
ag10
aS'const'
p13
aS'char'
p14
ag5
aS'variable_3'
p15
aS')'
p16
aS'int'
p17
aS'variable_4'
p18
aS';'
p19
aS'char'
p20
ag5
aS'variable_5'
p21
ag10
ag5
aS'variable_6'
p22
ag19
aS'uint64_t'
p23
aS'variable_7'
p24
ag19
aS'if'
p25
ag7
aS'!'
p26
aS'variable_3'
p27
ag16
aS'variable_3'
p28
aS'='
p29
aS'"'
p30
ag10
ag30
ag19
aS'variable_7'
p31
ag29
aS'15L'
p32
aS'variable_8'
p33
aS'+'
p34
aS'strlen'
p35
ag7
aS'variable_3'
p36
ag16
aS'if'
p37
ag7
aS'variable_2'
p38
aS'>'
p39
ag29
ag7
aS'variable_9'
p40
aS'-'
p41
aS'1'
p42
ag16
aS'/'
p43
aS'variable_7'
p44
ag16
aS'variable_5'
p45
ag29
aS'func_1'
p46
ag7
aS'variable_7'
p47
ag5
aS'variable_2'
p48
ag34
ag42
ag16
ag19
aS'if'
p49
ag7
ag26
aS'variable_5'
p50
ag16
aS'variable_6'
p51
ag29
aS'variable_5'
p52
ag19
aS'variable_5'
p53
aS'['
p54
aS'0'
p55
aS']'
p56
ag29
aS"'"
p57
aS'\\'
p58
ag55
ag57
ag19
aS'for'
p59
ag7
aS'variable_4'
p60
ag29
ag55
ag19
aS'variable_4'
p61
aS'<'
p62
aS'variable_2'
p63
ag19
aS'variable_4'
p64
aS'++'
p65
ag16
aS'unsigned'
p66
aS'variable_10'
p67
ag29
aS'snprintf'
p68
ag7
aS'variable_5'
p69
ag10
aS'variable_7'
p70
ag10
ag30
aS'%'
p71
aS'f'
p72
ag71
aS's'
p73
ag30
ag10
aS'variable_1'
p74
ag54
aS'variable_4'
p75
ag56
ag10
aS'variable_3'
p76
ag16
ag19
aS'if'
p77
ag7
aS'variable_10'
p78
ag39
ag29
aS'variable_7'
p79
ag16
aS'variable_5'
p80
aS'+='
p81
aS'variable_10'
p82
ag19
aS'variable_6'
p83
ag54
aS'strlen'
p84
ag7
aS'variable_6'
p85
ag16
ag41
aS'strlen'
p86
ag7
aS'variable_3'
p87
ag16
ag56
ag29
ag57
ag58
ag55
ag57
ag19
aS'return'
p88
aS'variable_6'
p89
ag19
aaa(lp90
I0
aa(lp91
I141
aa(lp92
(lp93
S'main'
p94
aaa(lp95
S'268 /home/SySeVR/data/CVE_2013_0874_PATCHED_doubles2str.c strlen 23'
p96
aa.