(lp0
(lp1
(lp2
S'static'
p3
aS'char'
p4
aS'*'
p5
aS'func_0'
p6
aS'('
p7
aS'variable_0'
p8
ag5
aS'variable_1'
p9
aS','
p10
aS'int'
p11
aS'variable_2'
p12
ag10
aS'const'
p13
aS'char'
p14
ag5
aS'variable_3'
p15
aS')'
p16
aS'char'
p17
ag5
aS'variable_4'
p18
ag10
ag5
aS'variable_5'
p19
aS';'
p20
aS'uint64_t'
p21
aS'variable_6'
p22
ag20
aS'if'
p23
ag7
aS'!'
p24
aS'variable_3'
p25
ag16
aS'variable_3'
p26
aS'='
p27
aS'"'
p28
ag10
ag28
ag20
aS'variable_6'
p29
ag27
aS'15L'
p30
aS'variable_7'
p31
aS'+'
p32
aS'strlen'
p33
ag7
aS'variable_3'
p34
ag16
aS'if'
p35
ag7
aS'variable_2'
p36
aS'>'
p37
ag27
ag7
aS'variable_8'
p38
aS'-'
p39
aS'1'
p40
ag16
aS'/'
p41
aS'variable_6'
p42
ag16
aS'variable_4'
p43
ag27
aS'func_1'
p44
ag7
aS'variable_6'
p45
ag5
aS'variable_2'
p46
ag32
ag40
ag16
ag20
aS'if'
p47
ag7
ag24
aS'variable_4'
p48
ag16
aS'variable_5'
p49
ag27
aS'variable_4'
p50
ag20
aS'variable_4'
p51
aS'['
p52
aS'0'
p53
aS']'
p54
ag27
aS"'"
p55
aS'\\'
p56
ag53
ag55
ag20
aS'unsigned'
p57
aS'variable_9'
p58
ag27
aS'snprintf'
p59
ag7
aS'variable_4'
p60
ag10
aS'variable_6'
p61
ag10
ag28
aS'%'
p62
aS'f'
p63
ag62
aS's'
p64
ag28
ag10
aS'variable_1'
p65
ag52
aS'variable_10'
p66
ag54
ag10
aS'variable_3'
p67
ag16
ag20
aS'if'
p68
ag7
aS'variable_9'
p69
ag37
ag27
aS'variable_6'
p70
ag16
aS'func_2'
p71
ag7
aS'variable_5'
p72
ag16
ag20
aS'variable_4'
p73
aS'+='
p74
aS'variable_9'
p75
ag20
aS'variable_5'
p76
ag52
aS'strlen'
p77
ag7
aS'variable_5'
p78
ag16
ag39
aS'strlen'
p79
ag7
aS'variable_3'
p80
ag16
ag54
ag27
ag55
ag56
ag53
ag55
ag20
aS'return'
p81
aS'variable_5'
p82
ag20
aaa(lp83
I0
aa(lp84
I68
aa(lp85
(lp86
S'main'
p87
aaa(lp88
S'441 /home/SySeVR/data/CVE_2013_0874_PATCHED_doubles2str.c ap = av_malloc ( component_len * count + 1 ) 10'
p89
aa.