(lp0
(lp1
(lp2
S'func_0'
p3
aS'('
p4
aS'variable_0'
p5
aS'*'
p6
aS'variable_1'
p7
aS','
p8
aS'variable_2'
p9
ag6
aS'variable_3'
p10
ag8
aS'variable_4'
p11
ag6
aS'variable_5'
p12
ag8
aS'gboolean'
p13
aS'variable_6'
p14
aS')'
p15
aS'gint'
p16
aS'variable_7'
p17
aS'='
p18
aS'0'
p19
aS';'
p20
aS'variable_8'
p21
ag18
aS'func_1'
p22
ag4
aS'variable_9'
p23
ag15
ag20
aS'if'
p24
ag4
aS'variable_5'
p25
aS'&&'
p26
aS'variable_5'
p27
aS'->'
p28
aS'variable_10'
p29
ag15
aS'variable_5'
p30
ag18
aS'variable_5'
p31
aS'->'
p32
aS'variable_10'
p33
ag20
aS'if'
p34
ag4
ag19
aS'&&'
p35
aS'!'
p36
aS'variable_5'
p37
ag15
aS'if'
p38
ag4
aS'variable_6'
p39
ag15
aS'variable_11'
p40
ag18
aS'variable_12'
p41
ag20
aS'variable_7'
p42
aS'+='
p43
aS'1'
p44
ag20
aS'variable_11'
p45
ag18
aS'func_2'
p46
ag4
aS'variable_1'
p47
ag8
aS'variable_7'
p48
ag15
ag20
aS'variable_11'
p49
ag18
aS'variable_11'
p50
aS'&'
p51
aS'0x03'
p52
ag20
aS'variable_7'
p53
aS'+='
p54
ag44
ag20
ag6
ag4
ag4
aS'guint16'
p55
ag6
ag15
aS'variable_8'
p56
ag15
ag18
aS'func_3'
p57
ag4
aS'variable_1'
p58
ag8
aS'variable_7'
p59
ag15
ag20
aS'switch'
p60
ag4
aS'variable_11'
p61
ag15
aS'memcpy'
p62
ag4
aS'variable_8'
p63
ag8
ag51
aS'variable_13'
p64
ag8
aS'variable_14'
p65
ag15
ag20
aS'func_4'
p66
ag4
ag51
aS'variable_3'
p67
aS'->'
p68
aS'variable_15'
p69
ag8
aS'variable_16'
p70
ag8
aS'variable_14'
p71
ag8
aS'variable_8'
p72
ag15
ag20
aS'func_5'
p73
ag4
aS'variable_8'
p74
ag8
aS'variable_9'
p75
ag8
aS'"'
p76
aS'IPv6'
p77
aS'over'
p78
aS'IB'
p79
aS'Packet'
p80
ag76
ag15
ag20
aS'func_6'
p81
ag4
ag51
aS'variable_3'
p82
aS'->'
p83
aS'variable_15'
p84
ag8
aS'variable_17'
p85
ag8
ag4
aS'int'
p86
ag15
aS'strlen'
p87
ag4
aS'variable_8'
p88
ag15
aS'+'
p89
ag44
ag8
aS'variable_8'
p90
ag15
ag20
aa(lp91
S'func_0'
p92
ag4
aS'variable_0'
p93
ag6
aS'variable_1'
p94
ag8
aS'variable_2'
p95
ag6
aS'variable_3'
p96
ag8
aS'variable_4'
p97
ag6
aS'variable_5'
p98
ag8
aS'gboolean'
p99
aS'variable_6'
p100
ag15
aS'gint'
p101
aS'variable_7'
p102
ag18
ag19
ag20
aS'variable_8'
p103
ag18
aS'func_1'
p104
ag4
aS'variable_9'
p105
ag15
ag20
aS'if'
p106
ag4
aS'variable_5'
p107
aS'&&'
p108
aS'variable_5'
p109
aS'->'
p110
aS'variable_10'
p111
ag15
aS'variable_5'
p112
ag18
aS'variable_5'
p113
aS'->'
p114
aS'variable_10'
p115
ag20
aS'if'
p116
ag4
ag19
aS'&&'
p117
ag36
aS'variable_5'
p118
ag15
aS'if'
p119
ag4
aS'variable_6'
p120
ag15
aS'variable_11'
p121
ag18
aS'variable_12'
p122
ag20
aS'variable_7'
p123
aS'+='
p124
ag44
ag20
aS'variable_11'
p125
ag18
aS'func_2'
p126
ag4
aS'variable_1'
p127
ag8
aS'variable_7'
p128
ag15
ag20
aS'variable_11'
p129
ag18
aS'variable_11'
p130
ag51
aS'0x03'
p131
ag20
aS'variable_7'
p132
aS'+='
p133
ag44
ag20
aS'variable_7'
p134
aS'+='
p135
aS'2'
p136
ag20
aS'variable_7'
p137
aS'+='
p138
ag136
ag20
ag6
ag4
ag4
aS'guint16'
p139
ag6
ag15
aS'variable_8'
p140
ag15
ag18
aS'func_3'
p141
ag4
aS'variable_1'
p142
ag8
aS'variable_7'
p143
ag15
ag20
aS'switch'
p144
ag4
aS'variable_11'
p145
ag15
aS'memcpy'
p146
ag4
aS'variable_8'
p147
ag8
ag51
aS'variable_13'
p148
ag8
aS'variable_14'
p149
ag15
ag20
aS'func_4'
p150
ag4
ag51
aS'variable_3'
p151
aS'->'
p152
aS'variable_15'
p153
ag8
aS'variable_16'
p154
ag8
aS'variable_14'
p155
ag8
aS'variable_8'
p156
ag15
ag20
aaa(lp157
I1
aI1
aa(lp158
I101
aI109
aa(lp159
(lp160
S'main'
p161
aa(lp162
g161
aaa(lp163
S'490 /home/SySeVR/data/CVE_2011_4101_VULN_dissect_infiniband_common.c memcpy 184'
p164
aS'491 /home/SySeVR/data/CVE_2011_4101_VULN_dissect_infiniband_common.c memcpy 174'
p165
aa.