(lp0
(lp1
(lp2
S'struct'
p3
aS'variable_0'
p4
aS'*'
p5
aS'variable_1'
p6
aS')'
p7
aS'variable_2'
p8
aS'='
p9
aS'func_0'
p10
aS'('
p11
aS'variable_3'
p12
aS'+'
p13
aS'1'
p14
aS','
p15
aS'variable_4'
p16
ag7
aS';'
p17
aS'if'
p18
ag11
aS'!'
p19
aS'variable_2'
p20
ag7
aS'memcpy'
p21
ag11
aS'variable_2'
p22
ag15
aS'variable_5'
p23
ag15
aS'variable_3'
p24
ag7
ag17
aS'variable_2'
p25
aS'['
p26
aS'variable_3'
p27
aS']'
p28
ag9
aS"'"
p29
aS'\\'
p30
aS'0'
p31
ag29
ag17
aS'variable_6'
p32
ag9
aS'variable_2'
p33
ag17
aS'variable_7'
p34
ag9
ag11
aS'variable_6'
p35
ag13
aS'variable_3'
p36
ag7
ag17
aS'while'
p37
ag11
aS'variable_6'
p38
aS'<'
p39
aS'variable_7'
p40
ag7
aS'if'
p41
ag11
aS'func_1'
p42
ag11
aS'variable_6'
p43
ag15
aS'&'
p44
aS'variable_8'
p45
ag15
ag44
aS'variable_9'
p46
ag7
ag39
ag31
ag7
aS'kfree'
p47
ag11
aS'variable_2'
p48
ag7
ag17
aS'kfree'
p49
ag11
aS'variable_2'
p50
ag7
ag17
aS'kfree'
p51
ag11
aS'variable_2'
p52
ag7
ag17
aS'variable_6'
p53
aS'+='
p54
aS'strlen'
p55
ag11
aS'variable_8'
p56
ag7
ag13
aS'strlen'
p57
ag11
aS'variable_9'
p58
ag7
ag13
aS'2'
p59
ag17
aS'kfree'
p60
ag11
aS'variable_2'
p61
ag7
ag17
aS'variable_6'
p62
aS'+='
p63
aS'strlen'
p64
ag11
aS'variable_8'
p65
ag7
ag13
aS'strlen'
p66
ag11
aS'variable_9'
p67
ag7
ag13
ag59
ag17
aS'kfree'
p68
ag11
aS'variable_2'
p69
ag7
ag17
aS'kfree'
p70
ag11
aS'variable_2'
p71
ag7
ag17
aS'kfree'
p72
ag11
aS'variable_2'
p73
ag7
ag17
aaa(lp74
I0
aa(lp75
I21
aa(lp76
(lp77
S'main'
p78
aaa(lp79
S'535 /home/SySeVR/data/CVE_2013_2850_PATCHED_iscsi_decode_text_input.c memcpy 17'
p80
aa.