(lp0
(lp1
(lp2
S'struct'
p3
aS'variable_0'
p4
aS'*'
p5
aS'variable_1'
p6
aS')'
p7
aS'variable_2'
p8
aS'='
p9
aS'func_0'
p10
aS'('
p11
aS'variable_3'
p12
aS'+'
p13
aS'1'
p14
aS','
p15
aS'variable_4'
p16
ag7
aS';'
p17
aS'if'
p18
ag11
aS'!'
p19
aS'variable_2'
p20
ag7
aS'memcpy'
p21
ag11
aS'variable_2'
p22
ag15
aS'variable_5'
p23
ag15
aS'variable_3'
p24
ag7
ag17
aS'variable_2'
p25
aS'['
p26
aS'variable_3'
p27
aS']'
p28
ag9
aS"'"
p29
aS'\\'
p30
aS'0'
p31
ag29
ag17
aS'variable_6'
p32
ag9
aS'variable_2'
p33
ag17
aS'variable_7'
p34
ag9
ag11
aS'variable_6'
p35
ag13
aS'variable_3'
p36
ag7
ag17
aS'while'
p37
ag11
aS'variable_6'
p38
aS'<'
p39
aS'variable_7'
p40
ag7
aaa(lp41
I0
aa(lp42
I50
aa(lp43
(lp44
S'main'
p45
aaa(lp46
S'496 /home/SySeVR/data/CVE_2013_2850_PATCHED_iscsi_decode_text_input.c end = ( start + length ) 20'
p47
aa.