(lp0
(lp1
(lp2
S'func_0'
p3
aS'('
p4
aS'variable_0'
p5
aS'*'
p6
aS'variable_1'
p7
aS')'
p8
aS'unsigned'
p9
aS'char'
p10
ag6
aS'variable_2'
p11
aS'='
p12
aS'&'
p13
aS'variable_1'
p14
aS'->'
p15
aS'variable_3'
p16
aS'->'
p17
aS'variable_4'
p18
aS'.'
p19
aS'variable_5'
p20
aS'['
p21
aS'0'
p22
aS']'
p23
aS','
p24
ag6
aS'variable_6'
p25
aS';'
p26
aS'unsigned'
p27
aS'short'
p28
aS'variable_7'
p29
ag26
aS'unsigned'
p30
aS'int'
p31
aS'variable_8'
p32
ag26
aS'unsigned'
p33
aS'int'
p34
aS'variable_9'
p35
ag12
aS'16'
p36
ag26
aS'if'
p37
ag4
aS'1'
p38
aS'+'
p39
aS'2'
p40
ag39
aS'16'
p41
aS'>'
p42
aS'variable_1'
p43
aS'->'
p44
aS'variable_3'
p45
aS'->'
p46
aS'variable_4'
p47
ag19
aS'variable_10'
p48
ag8
aS'variable_7'
p49
ag12
ag6
aS'variable_2'
p50
aS'++'
p51
ag26
aS'if'
p52
ag4
ag38
ag39
ag40
ag39
aS'variable_8'
p53
ag39
aS'16'
p54
ag42
aS'variable_1'
p55
aS'->'
p56
aS'variable_3'
p57
aS'->'
p58
aS'variable_4'
p59
ag19
aS'variable_10'
p60
ag8
aS'variable_6'
p61
ag12
aS'variable_2'
p62
ag26
aS'if'
p63
ag4
aS'variable_7'
p64
aS'=='
p65
aS'variable_11'
p66
ag8
aS'unsigned'
p67
aS'char'
p68
ag6
aS'variable_12'
p69
ag24
ag6
aS'variable_13'
p70
ag26
aS'variable_12'
p71
ag12
aS'func_1'
p72
ag4
ag38
ag39
ag40
ag39
aS'variable_8'
p73
ag39
aS'variable_9'
p74
ag8
ag26
aS'variable_13'
p75
ag12
aS'variable_12'
p76
ag26
ag6
aS'variable_13'
p77
aS'++'
p78
ag12
aS'variable_14'
p79
ag26
aS'memcpy'
p80
ag4
aS'variable_13'
p81
ag24
aS'variable_6'
p82
ag24
aS'variable_8'
p83
ag8
ag26
aS'variable_13'
p84
aS'+='
p85
aS'variable_8'
p86
ag26
aS'func_2'
p87
ag4
aS'variable_13'
p88
ag24
aS'variable_9'
p89
ag8
ag26
aaa(lp90
I0
aa(lp91
I121
aa(lp92
(lp93
S'main'
p94
aaa(lp95
S'558 /home/SySeVR/data/CVE_2014_0160_PATCHED_tls1_process_heartbeat.c memcpy 38'
p96
aa.