(lp0
(lp1
(lp2
S'func_0'
p3
aS'('
p4
aS'variable_0'
p5
aS'*'
p6
aS'variable_1'
p7
aS')'
p8
aS'unsigned'
p9
aS'char'
p10
ag6
aS'variable_2'
p11
aS'='
p12
aS'&'
p13
aS'variable_1'
p14
aS'->'
p15
aS'variable_3'
p16
aS'->'
p17
aS'variable_4'
p18
aS'.'
p19
aS'variable_5'
p20
aS'['
p21
aS'0'
p22
aS']'
p23
aS','
p24
ag6
aS'variable_6'
p25
aS';'
p26
aS'unsigned'
p27
aS'short'
p28
aS'variable_7'
p29
ag26
aS'unsigned'
p30
aS'int'
p31
aS'variable_8'
p32
ag26
aS'unsigned'
p33
aS'int'
p34
aS'variable_9'
p35
ag12
aS'16'
p36
ag26
aS'if'
p37
ag4
aS'1'
p38
aS'+'
p39
aS'2'
p40
ag39
aS'16'
p41
aS'>'
p42
aS'variable_1'
p43
aS'->'
p44
aS'variable_3'
p45
aS'->'
p46
aS'variable_4'
p47
ag19
aS'variable_10'
p48
ag8
aS'variable_7'
p49
ag12
ag6
aS'variable_2'
p50
aS'++'
p51
ag26
aS'if'
p52
ag4
ag38
ag39
ag40
ag39
aS'variable_8'
p53
ag39
aS'16'
p54
ag42
aS'variable_1'
p55
aS'->'
p56
aS'variable_3'
p57
aS'->'
p58
aS'variable_4'
p59
ag19
aS'variable_10'
p60
ag8
aS'if'
p61
ag4
aS'variable_7'
p62
aS'=='
p63
aS'variable_11'
p64
ag8
aS'unsigned'
p65
aS'char'
p66
ag6
aS'variable_12'
p67
ag24
ag6
aS'variable_13'
p68
ag26
aS'int'
p69
aS'variable_14'
p70
ag26
aS'variable_12'
p71
ag12
aS'func_1'
p72
ag4
ag38
ag39
ag40
ag39
aS'variable_8'
p73
ag39
aS'variable_9'
p74
ag8
ag26
aS'variable_14'
p75
ag12
aS'func_2'
p76
ag4
aS'variable_1'
p77
ag24
aS'variable_15'
p78
ag24
aS'variable_12'
p79
ag24
aS'3'
p80
ag39
aS'variable_8'
p81
ag39
aS'variable_9'
p82
ag8
ag26
aS'if'
p83
ag4
aS'variable_14'
p84
ag42
ag12
ag22
aS'&&'
p85
aS'variable_1'
p86
aS'->'
p87
aS'variable_16'
p88
ag8
aS'if'
p89
ag4
aS'variable_14'
p90
aS'<'
p91
ag22
ag8
aS'return'
p92
aS'variable_14'
p93
ag26
aa(lp94
S'func_0'
p95
ag4
aS'variable_0'
p96
ag6
aS'variable_1'
p97
ag8
aS'unsigned'
p98
aS'char'
p99
ag6
aS'variable_2'
p100
ag12
ag13
aS'variable_1'
p101
aS'->'
p102
aS'variable_3'
p103
aS'->'
p104
aS'variable_4'
p105
ag19
aS'variable_5'
p106
ag21
ag22
ag23
ag24
ag6
aS'variable_6'
p107
ag26
aS'unsigned'
p108
aS'short'
p109
aS'variable_7'
p110
ag26
aS'unsigned'
p111
aS'int'
p112
aS'variable_8'
p113
ag26
aS'unsigned'
p114
aS'int'
p115
aS'variable_9'
p116
ag12
aS'16'
p117
ag26
aS'if'
p118
ag4
ag38
ag39
ag40
ag39
aS'16'
p119
ag42
aS'variable_1'
p120
aS'->'
p121
aS'variable_3'
p122
aS'->'
p123
aS'variable_4'
p124
ag19
aS'variable_10'
p125
ag8
aS'variable_7'
p126
ag12
ag6
aS'variable_2'
p127
aS'++'
p128
ag26
aS'if'
p129
ag4
ag38
ag39
ag40
ag39
aS'variable_8'
p130
ag39
aS'16'
p131
ag42
aS'variable_1'
p132
aS'->'
p133
aS'variable_3'
p134
aS'->'
p135
aS'variable_4'
p136
ag19
aS'variable_10'
p137
ag8
aS'if'
p138
ag4
aS'variable_7'
p139
aS'=='
p140
aS'variable_11'
p141
ag8
aS'unsigned'
p142
aS'char'
p143
ag6
aS'variable_12'
p144
ag24
ag6
aS'variable_13'
p145
ag26
aS'variable_12'
p146
ag12
aS'func_1'
p147
ag4
ag38
ag39
ag40
ag39
aS'variable_8'
p148
ag39
aS'variable_9'
p149
ag8
ag26
aS'variable_13'
p150
ag12
aS'variable_12'
p151
ag26
ag6
aS'variable_13'
p152
aS'++'
p153
ag12
aS'variable_14'
p154
ag26
aS'func_2'
p155
ag4
aS'variable_8'
p156
ag24
aS'variable_13'
p157
ag8
ag26
aS'memcpy'
p158
ag4
aS'variable_13'
p159
ag24
aS'variable_6'
p160
ag24
aS'variable_8'
p161
ag8
ag26
aS'variable_13'
p162
aS'+='
p163
aS'variable_8'
p164
ag26
aS'func_3'
p165
ag4
aS'variable_13'
p166
ag24
aS'variable_9'
p167
ag8
ag26
aS'variable_15'
p168
ag12
aS'func_4'
p169
ag4
aS'variable_1'
p170
ag24
aS'variable_16'
p171
ag24
aS'variable_12'
p172
ag24
ag80
ag39
aS'variable_8'
p173
ag39
aS'variable_9'
p174
ag8
ag26
aS'if'
p175
ag4
aS'variable_15'
p176
ag42
ag12
ag22
aS'&&'
p177
aS'variable_1'
p178
aS'->'
p179
aS'variable_17'
p180
ag8
aS'variable_1'
p181
aS'->'
p182
aS'func_5'
p183
ag4
ag38
ag24
aS'variable_1'
p184
aS'->'
p185
aS'variable_18'
p186
ag24
aS'variable_16'
p187
ag24
aS'variable_12'
p188
ag24
ag80
ag39
aS'variable_8'
p189
ag39
aS'variable_9'
p190
ag24
aS'variable_1'
p191
ag24
aS'variable_1'
p192
aS'->'
p193
aS'variable_19'
p194
ag8
ag26
aS'func_6'
p195
ag4
aS'variable_12'
p196
ag8
ag26
aS'if'
p197
ag4
aS'variable_15'
p198
ag91
ag22
ag8
aS'return'
p199
aS'variable_15'
p200
ag26
aaa(lp201
I0
aI0
aa(lp202
I125
aI105
aa(lp203
(lp204
S'main'
p205
aa(lp206
g205
aaa(lp207
S'602 /home/SySeVR/data/CVE_2014_0160_PATCHED_tls1_process_heartbeat.c r = ssl3_write_bytes ( s , TLS1_RT_HEARTBEAT , buffer , 3 + payload + padding ) 43'
p208
aS'603 /home/SySeVR/data/CVE_2014_0160_PATCHED_tls1_process_heartbeat.c buffer = OPENSSL_malloc ( 1 + 2 + payload + padding ) 32'
p209
aa.