(lp0
(lp1
(lp2
S'int'
p3
aS'func_0'
p4
aS'('
p5
aS'variable_0'
p6
aS'*'
p7
aS'variable_1'
p8
aS','
p9
aS'unsigned'
p10
aS'char'
p11
ag7
ag7
aS'variable_2'
p12
ag9
aS'unsigned'
p13
aS'char'
p14
ag7
aS'variable_3'
p15
ag9
aS'int'
p16
aS'variable_4'
p17
ag9
aS'int'
p18
ag7
aS'variable_5'
p19
aS')'
p20
aS'unsigned'
p21
aS'short'
p22
aS'variable_6'
p23
aS';'
p24
aS'unsigned'
p25
aS'short'
p26
aS'variable_7'
p27
ag24
aS'unsigned'
p28
aS'short'
p29
aS'variable_8'
p30
ag24
aS'unsigned'
p31
aS'char'
p32
ag7
aS'variable_9'
p33
aS'='
p34
ag7
aS'variable_2'
p35
ag24
aS'variable_1'
p36
aS'->'
p37
aS'variable_10'
p38
ag34
aS'0'
p39
ag24
aS'variable_1'
p40
aS'->'
p41
aS'variable_11'
p42
ag34
aS'-'
p43
aS'1'
p44
ag24
aS'if'
p45
ag5
aS'variable_9'
p46
aS'>'
p47
ag34
ag5
aS'variable_3'
p48
aS'+'
p49
aS'variable_4'
p50
ag43
aS'2'
p51
ag20
ag20
aS'if'
p52
ag5
aS'variable_9'
p53
ag47
ag5
aS'variable_3'
p54
ag49
aS'variable_4'
p55
ag43
aS'variable_8'
p56
ag20
ag20
aS'while'
p57
ag5
aS'variable_9'
p58
aS'<'
p59
ag34
ag5
aS'variable_3'
p60
ag49
aS'variable_4'
p61
ag43
aS'4'
p62
ag20
ag20
aS'if'
p63
ag5
aS'variable_9'
p64
ag49
aS'variable_7'
p65
ag47
ag5
aS'variable_3'
p66
ag49
aS'variable_4'
p67
ag20
ag20
aS'if'
p68
ag5
aS'variable_6'
p69
aS'=='
p70
aS'variable_12'
p71
ag20
aS'unsigned'
p72
aS'char'
p73
ag7
aS'variable_13'
p74
ag24
aS'int'
p75
aS'variable_14'
p76
ag24
aS'int'
p77
aS'variable_15'
p78
ag24
aS'if'
p79
ag5
aS'variable_7'
p80
ag59
ag51
ag20
aS'variable_7'
p81
aS'-='
p82
ag51
ag24
aS'if'
p83
ag5
aS'variable_15'
p84
ag47
aS'variable_7'
p85
ag20
aS'variable_13'
p86
ag34
aS'variable_9'
p87
ag24
aS'while'
p88
ag5
aS'variable_15'
p89
ag47
aS'3'
p90
ag20
aS'variable_14'
p91
ag34
ag7
ag5
aS'variable_13'
p92
aS'++'
p93
ag20
ag24
aS'variable_15'
p94
aS'-='
p95
ag90
ag24
aS'if'
p96
ag5
aS'variable_8'
p97
ag47
aS'variable_15'
p98
ag20
aS'if'
p99
ag5
aS'variable_1'
p100
aS'->'
p101
aS'variable_10'
p102
aS'=='
p103
ag39
ag20
aS'switch'
p104
ag5
aS'variable_14'
p105
ag20
aS'if'
p106
ag5
aS'variable_1'
p107
aS'->'
p108
aS'variable_16'
p109
aS'->'
p110
aS'variable_17'
p111
aS'=='
p112
aS'NULL'
p113
ag20
aS'if'
p114
ag5
aS'variable_8'
p115
ag47
aS'variable_18'
p116
aS'||'
p117
ag5
ag5
aS'variable_1'
p118
aS'->'
p119
aS'variable_16'
p120
aS'->'
p121
aS'variable_17'
p122
ag34
aS'func_1'
p123
ag5
aS'variable_8'
p124
ag49
ag44
ag20
ag20
aS'=='
p125
aS'NULL'
p126
ag20
ag20
aS'memcpy'
p127
ag5
aS'variable_1'
p128
aS'->'
p129
aS'variable_16'
p130
aS'->'
p131
aS'variable_17'
p132
ag9
aS'variable_13'
p133
ag9
aS'variable_8'
p134
ag20
ag24
aS'variable_1'
p135
aS'->'
p136
aS'variable_16'
p137
aS'->'
p138
aS'variable_17'
p139
aS'['
p140
aS'variable_8'
p141
aS']'
p142
ag34
aS"'"
p143
aS'\\'
p144
ag39
ag143
ag24
aS'if'
p145
ag5
aS'strlen'
p146
ag5
aS'variable_1'
p147
aS'->'
p148
aS'variable_16'
p149
aS'->'
p150
aS'variable_17'
p151
ag20
aS'!='
p152
aS'variable_8'
p153
ag20
aS'variable_1'
p154
aS'->'
p155
aS'variable_16'
p156
aS'->'
p157
aS'variable_17'
p158
ag34
aS'NULL'
p159
ag24
aS'variable_1'
p160
aS'->'
p161
aS'variable_10'
p162
ag34
ag44
ag24
aS'variable_1'
p163
aS'->'
p164
aS'variable_10'
p165
ag34
aS'strlen'
p166
ag5
aS'variable_1'
p167
aS'->'
p168
aS'variable_16'
p169
aS'->'
p170
aS'variable_17'
p171
ag20
aS'=='
p172
aS'variable_8'
p173
aS'&&'
p174
aS'strncmp'
p175
ag5
aS'variable_1'
p176
aS'->'
p177
aS'variable_16'
p178
aS'->'
p179
aS'variable_17'
p180
ag9
ag5
aS'char'
p181
ag7
ag20
aS'variable_13'
p182
ag9
aS'variable_8'
p183
ag20
aS'=='
p184
ag39
ag24
aS'variable_15'
p185
aS'-='
p186
aS'variable_8'
p187
ag24
aS'if'
p188
ag5
aS'variable_15'
p189
aS'!='
p190
ag39
ag20
aS'if'
p191
ag5
aS'variable_6'
p192
aS'=='
p193
aS'variable_19'
p194
aS'&&'
p195
aS'variable_1'
p196
aS'->'
p197
aS'variable_20'
p198
aS'!='
p199
aS'variable_21'
p200
ag20
aS'unsigned'
p201
aS'char'
p202
ag7
aS'variable_13'
p203
ag34
aS'variable_9'
p204
ag24
aS'int'
p205
aS'variable_22'
p206
ag34
ag7
ag5
aS'variable_13'
p207
aS'++'
p208
ag20
ag24
aS'if'
p209
ag5
aS'variable_22'
p210
aS'!='
p211
aS'variable_7'
p212
ag43
ag44
ag20
aS'variable_1'
p213
aS'->'
p214
aS'variable_16'
p215
aS'->'
p216
aS'variable_23'
p217
ag34
ag39
ag24
aS'if'
p218
ag5
ag5
aS'variable_1'
p219
aS'->'
p220
aS'variable_16'
p221
aS'->'
p222
aS'variable_24'
p223
ag34
aS'func_2'
p224
ag5
aS'variable_22'
p225
ag20
ag20
aS'=='
p226
aS'NULL'
p227
ag20
aS'variable_1'
p228
aS'->'
p229
aS'variable_16'
p230
aS'->'
p231
aS'variable_23'
p232
ag34
aS'variable_22'
p233
ag24
aS'if'
p234
ag5
aS'variable_6'
p235
aS'=='
p236
aS'variable_25'
p237
aS'&&'
p238
aS'variable_1'
p239
aS'->'
p240
aS'variable_20'
p241
aS'!='
p242
aS'variable_21'
p243
ag20
aS'unsigned'
p244
aS'char'
p245
ag7
aS'variable_13'
p246
ag34
aS'variable_9'
p247
ag24
aS'int'
p248
aS'variable_26'
p249
ag34
ag5
ag7
ag5
aS'variable_13'
p250
aS'++'
p251
ag20
aS'<<'
p252
aS'8'
p253
ag20
ag24
aS'variable_26'
p254
aS'+='
p255
ag5
ag7
ag5
aS'variable_13'
p256
aS'++'
p257
ag20
ag20
ag24
aS'if'
p258
ag5
aS'variable_26'
p259
aS'!='
p260
aS'variable_7'
p261
ag43
ag51
ag20
aS'variable_1'
p262
aS'->'
p263
aS'variable_16'
p264
aS'->'
p265
aS'variable_27'
p266
ag34
ag39
ag24
aS'if'
p267
ag5
ag5
aS'variable_1'
p268
aS'->'
p269
aS'variable_16'
p270
aS'->'
p271
aS'variable_28'
p272
ag34
aS'func_3'
p273
ag5
aS'variable_26'
p274
ag20
ag20
aS'=='
p275
aS'NULL'
p276
ag20
aS'variable_1'
p277
aS'->'
p278
aS'variable_16'
p279
aS'->'
p280
aS'variable_27'
p281
ag34
aS'variable_26'
p282
ag24
aS'memcpy'
p283
ag5
aS'variable_1'
p284
aS'->'
p285
aS'variable_16'
p286
aS'->'
p287
aS'variable_28'
p288
ag9
aS'variable_13'
p289
ag9
aS'variable_26'
p290
ag20
ag24
aS'fprintf'
p291
ag5
aS'variable_29'
p292
ag9
aS'"'
p293
aS'CVE_2011_0014_VULN_ssl_parse_clienthello_tlsext'
p294
aS's'
p295
aS'->'
p296
aS'session'
p297
aS'->'
p298
aS'tlsext_ellipticcurvelist'
p299
ag5
aS'length'
p300
ag34
aS'%'
p301
aS'i'
p302
ag20
ag293
ag9
aS'variable_1'
p303
aS'->'
p304
aS'variable_16'
p305
aS'->'
p306
aS'variable_27'
p307
ag20
ag24
aS'variable_13'
p308
ag34
aS'variable_1'
p309
aS'->'
p310
aS'variable_16'
p311
aS'->'
p312
aS'variable_28'
p313
ag24
aS'for'
p314
ag5
aS'variable_30'
p315
ag34
ag39
ag24
aS'variable_30'
p316
ag59
aS'variable_1'
p317
aS'->'
p318
aS'variable_16'
p319
aS'->'
p320
aS'variable_27'
p321
ag24
aS'variable_30'
p322
aS'++'
p323
ag20
aS'fprintf'
p324
ag5
aS'variable_29'
p325
ag9
ag293
ag301
ag302
ag293
ag9
ag7
ag5
aS'variable_13'
p326
aS'++'
p327
ag20
ag20
ag24
aS'fprintf'
p328
ag5
aS'variable_29'
p329
ag9
ag293
ag144
aS'n'
p330
ag293
ag20
ag24
aS'if'
p331
ag5
aS'variable_6'
p332
aS'=='
p333
aS'variable_31'
p334
aS'&&'
p335
aS'variable_1'
p336
aS'->'
p337
aS'variable_20'
p338
aS'!='
p339
aS'variable_21'
p340
ag20
aS'unsigned'
p341
aS'char'
p342
ag7
aS'variable_13'
p343
ag34
aS'variable_9'
p344
ag24
aS'if'
p345
ag5
aS'variable_7'
p346
ag59
ag51
ag20
aS'if'
p347
ag5
aS'variable_1'
p348
aS'->'
p349
aS'variable_32'
p350
aS'->'
p351
aS'variable_33'
p352
aS'!='
p353
aS'variable_7'
p354
ag43
ag51
ag20
aS'if'
p355
ag5
aS'variable_1'
p356
aS'->'
p357
aS'variable_32'
p358
aS'->'
p359
aS'variable_33'
p360
aS'=='
p361
ag39
ag20
aS'variable_1'
p362
aS'->'
p363
aS'variable_32'
p364
aS'->'
p365
aS'variable_34'
p366
ag34
aS'func_4'
p367
ag5
ag44
ag20
ag24
aS'variable_1'
p368
aS'->'
p369
aS'variable_32'
p370
aS'->'
p371
aS'variable_34'
p372
ag34
aS'func_5'
p373
ag5
aS'variable_13'
p374
ag9
aS'variable_1'
p375
aS'->'
p376
aS'variable_32'
p377
aS'->'
p378
aS'variable_33'
p379
ag20
ag24
aS'if'
p380
ag5
aS'variable_1'
p381
aS'->'
p382
aS'variable_32'
p383
aS'->'
p384
aS'variable_34'
p385
aS'=='
p386
aS'NULL'
p387
ag20
aS'if'
p388
ag5
aS'variable_6'
p389
aS'=='
p390
aS'variable_35'
p391
ag20
aS'if'
p392
ag5
aS'variable_1'
p393
aS'->'
p394
aS'variable_36'
p395
aS'&&'
p396
aS'!'
p397
aS'variable_1'
p398
aS'->'
p399
aS'func_6'
p400
ag5
aS'variable_1'
p401
ag9
aS'variable_9'
p402
ag9
aS'variable_7'
p403
ag9
aS'variable_1'
p404
aS'->'
p405
aS'variable_37'
p406
ag20
ag20
aS'if'
p407
ag5
aS'variable_6'
p408
aS'=='
p409
aS'variable_38'
p410
ag20
aS'if'
p411
ag5
ag397
aS'func_7'
p412
ag5
aS'variable_1'
p413
ag9
aS'variable_9'
p414
ag9
aS'variable_7'
p415
ag9
aS'variable_5'
p416
ag20
ag20
aS'if'
p417
ag5
aS'variable_6'
p418
aS'=='
p419
aS'variable_39'
p420
aS'&&'
p421
aS'variable_1'
p422
aS'->'
p423
aS'variable_20'
p424
aS'!='
p425
aS'variable_21'
p426
aS'&&'
p427
aS'variable_1'
p428
aS'->'
p429
aS'variable_40'
p430
aS'->'
p431
aS'variable_41'
p432
ag20
aS'if'
p433
ag5
aS'variable_7'
p434
ag59
aS'5'
p435
ag20
aS'variable_1'
p436
aS'->'
p437
aS'variable_11'
p438
ag34
ag7
aS'variable_9'
p439
aS'++'
p440
ag24
aS'variable_7'
p441
aS'--'
p442
ag24
aS'if'
p443
ag5
aS'variable_1'
p444
aS'->'
p445
aS'variable_11'
p446
aS'=='
p447
aS'variable_42'
p448
ag20
aS'const'
p449
aS'unsigned'
p450
aS'char'
p451
ag7
aS'variable_13'
p452
ag24
aS'int'
p453
aS'variable_15'
p454
ag24
aS'variable_7'
p455
aS'-='
p456
ag51
ag24
aS'if'
p457
ag5
aS'variable_15'
p458
ag47
aS'variable_7'
p459
ag20
aS'while'
p460
ag5
aS'variable_15'
p461
ag47
ag39
ag20
aS'variable_43'
p462
ag7
aS'variable_44'
p463
ag24
aS'int'
p464
aS'variable_45'
p465
ag24
aS'if'
p466
ag5
aS'variable_15'
p467
ag59
ag62
ag20
aS'variable_15'
p468
aS'-='
p469
ag51
ag49
aS'variable_45'
p470
ag24
aS'if'
p471
ag5
aS'variable_15'
p472
ag59
ag39
ag20
aS'variable_13'
p473
ag34
aS'variable_9'
p474
ag24
aS'variable_9'
p475
aS'+='
p476
aS'variable_45'
p477
ag24
aS'variable_44'
p478
ag34
aS'func_8'
p479
ag5
aS'NULL'
p480
ag9
aS'&'
p481
aS'variable_13'
p482
ag9
aS'variable_45'
p483
ag20
ag24
aS'if'
p484
ag5
ag397
aS'variable_44'
p485
ag20
aS'if'
p486
ag5
aS'variable_9'
p487
aS'!='
p488
aS'variable_13'
p489
ag20
aS'if'
p490
ag5
ag397
aS'variable_1'
p491
aS'->'
p492
aS'variable_46'
p493
aS'&&'
p494
ag397
ag5
aS'variable_1'
p495
aS'->'
p496
aS'variable_46'
p497
ag34
aS'func_9'
p498
ag5
ag20
ag20
ag20
aS'if'
p499
ag5
ag397
aS'func_10'
p500
ag5
aS'variable_1'
p501
aS'->'
p502
aS'variable_46'
p503
ag9
aS'variable_44'
p504
ag20
ag20
aS'variable_7'
p505
aS'-='
p506
ag51
ag24
aS'if'
p507
ag5
aS'variable_15'
p508
ag47
aS'variable_7'
p509
ag20
aS'variable_13'
p510
ag34
aS'variable_9'
p511
ag24
aS'if'
p512
ag5
aS'variable_15'
p513
ag47
ag39
ag20
aS'variable_1'
p514
aS'->'
p515
aS'variable_47'
p516
ag34
aS'func_11'
p517
ag5
aS'NULL'
p518
ag9
ag481
aS'variable_13'
p519
ag9
aS'variable_15'
p520
ag20
ag24
aS'if'
p521
ag5
ag397
aS'variable_1'
p522
aS'->'
p523
aS'variable_47'
p524
aS'||'
p525
ag5
aS'variable_9'
p526
ag49
aS'variable_15'
p527
aS'!='
p528
aS'variable_13'
p529
ag20
ag20
aS'variable_1'
p530
aS'->'
p531
aS'variable_11'
p532
ag34
ag43
ag44
ag24
aS'variable_9'
p533
aS'+='
p534
aS'variable_7'
p535
ag24
aa(lp536
S'int'
p537
aS'func_0'
p538
ag5
aS'variable_0'
p539
ag7
aS'variable_1'
p540
ag9
aS'unsigned'
p541
aS'char'
p542
ag7
ag7
aS'variable_2'
p543
ag9
aS'unsigned'
p544
aS'char'
p545
ag7
aS'variable_3'
p546
ag9
aS'int'
p547
aS'variable_4'
p548
ag9
aS'int'
p549
ag7
aS'variable_5'
p550
ag20
aS'unsigned'
p551
aS'short'
p552
aS'variable_6'
p553
ag24
aS'unsigned'
p554
aS'short'
p555
aS'variable_7'
p556
ag24
aS'unsigned'
p557
aS'short'
p558
aS'variable_8'
p559
ag24
aS'unsigned'
p560
aS'char'
p561
ag7
aS'variable_9'
p562
ag34
ag7
aS'variable_2'
p563
ag24
aS'variable_1'
p564
aS'->'
p565
aS'variable_10'
p566
ag34
ag39
ag24
aS'variable_1'
p567
aS'->'
p568
aS'variable_11'
p569
ag34
ag43
ag44
ag24
aS'if'
p570
ag5
aS'variable_9'
p571
ag47
ag34
ag5
aS'variable_3'
p572
ag49
aS'variable_4'
p573
ag43
ag51
ag20
ag20
aS'if'
p574
ag5
aS'variable_9'
p575
ag47
ag5
aS'variable_3'
p576
ag49
aS'variable_4'
p577
ag43
aS'variable_8'
p578
ag20
ag20
aS'while'
p579
ag5
aS'variable_9'
p580
ag59
ag34
ag5
aS'variable_3'
p581
ag49
aS'variable_4'
p582
ag43
ag62
ag20
ag20
aS'if'
p583
ag5
aS'variable_9'
p584
ag49
aS'variable_7'
p585
ag47
ag5
aS'variable_3'
p586
ag49
aS'variable_4'
p587
ag20
ag20
aS'if'
p588
ag5
aS'variable_6'
p589
aS'=='
p590
aS'variable_12'
p591
ag20
aS'unsigned'
p592
aS'char'
p593
ag7
aS'variable_13'
p594
ag24
aS'int'
p595
aS'variable_14'
p596
ag24
aS'int'
p597
aS'variable_15'
p598
ag24
aS'if'
p599
ag5
aS'variable_7'
p600
ag59
ag51
ag20
aS'variable_7'
p601
aS'-='
p602
ag51
ag24
aS'if'
p603
ag5
aS'variable_15'
p604
ag47
aS'variable_7'
p605
ag20
aS'variable_13'
p606
ag34
aS'variable_9'
p607
ag24
aS'while'
p608
ag5
aS'variable_15'
p609
ag47
ag90
ag20
aS'variable_14'
p610
ag34
ag7
ag5
aS'variable_13'
p611
aS'++'
p612
ag20
ag24
aS'variable_15'
p613
aS'-='
p614
ag90
ag24
aS'if'
p615
ag5
aS'variable_8'
p616
ag47
aS'variable_15'
p617
ag20
aS'if'
p618
ag5
aS'variable_1'
p619
aS'->'
p620
aS'variable_10'
p621
aS'=='
p622
ag39
ag20
aS'switch'
p623
ag5
aS'variable_14'
p624
ag20
aS'if'
p625
ag5
aS'variable_1'
p626
aS'->'
p627
aS'variable_16'
p628
aS'->'
p629
aS'variable_17'
p630
aS'=='
p631
aS'NULL'
p632
ag20
aS'if'
p633
ag5
aS'variable_8'
p634
ag47
aS'variable_18'
p635
aS'||'
p636
ag5
ag5
aS'variable_1'
p637
aS'->'
p638
aS'variable_16'
p639
aS'->'
p640
aS'variable_17'
p641
ag34
aS'func_1'
p642
ag5
aS'variable_8'
p643
ag49
ag44
ag20
ag20
aS'=='
p644
aS'NULL'
p645
ag20
ag20
aS'memcpy'
p646
ag5
aS'variable_1'
p647
aS'->'
p648
aS'variable_16'
p649
aS'->'
p650
aS'variable_17'
p651
ag9
aS'variable_13'
p652
ag9
aS'variable_8'
p653
ag20
ag24
aS'variable_1'
p654
aS'->'
p655
aS'variable_16'
p656
aS'->'
p657
aS'variable_17'
p658
ag140
aS'variable_8'
p659
ag142
ag34
ag143
ag144
ag39
ag143
ag24
aS'if'
p660
ag5
aS'strlen'
p661
ag5
aS'variable_1'
p662
aS'->'
p663
aS'variable_16'
p664
aS'->'
p665
aS'variable_17'
p666
ag20
aS'!='
p667
aS'variable_8'
p668
ag20
aS'variable_1'
p669
aS'->'
p670
aS'variable_16'
p671
aS'->'
p672
aS'variable_17'
p673
ag34
aS'NULL'
p674
ag24
aS'variable_1'
p675
aS'->'
p676
aS'variable_10'
p677
ag34
ag44
ag24
aS'variable_1'
p678
aS'->'
p679
aS'variable_10'
p680
ag34
aS'strlen'
p681
ag5
aS'variable_1'
p682
aS'->'
p683
aS'variable_16'
p684
aS'->'
p685
aS'variable_17'
p686
ag20
aS'=='
p687
aS'variable_8'
p688
aS'&&'
p689
aS'strncmp'
p690
ag5
aS'variable_1'
p691
aS'->'
p692
aS'variable_16'
p693
aS'->'
p694
aS'variable_17'
p695
ag9
ag5
aS'char'
p696
ag7
ag20
aS'variable_13'
p697
ag9
aS'variable_8'
p698
ag20
aS'=='
p699
ag39
ag24
aS'variable_15'
p700
aS'-='
p701
aS'variable_8'
p702
ag24
aS'if'
p703
ag5
aS'variable_15'
p704
aS'!='
p705
ag39
ag20
aS'if'
p706
ag5
aS'variable_6'
p707
aS'=='
p708
aS'variable_19'
p709
aS'&&'
p710
aS'variable_1'
p711
aS'->'
p712
aS'variable_20'
p713
aS'!='
p714
aS'variable_21'
p715
ag20
aS'unsigned'
p716
aS'char'
p717
ag7
aS'variable_13'
p718
ag34
aS'variable_9'
p719
ag24
aS'int'
p720
aS'variable_22'
p721
ag34
ag7
ag5
aS'variable_13'
p722
aS'++'
p723
ag20
ag24
aS'if'
p724
ag5
aS'variable_22'
p725
aS'!='
p726
aS'variable_7'
p727
ag43
ag44
ag20
aS'variable_1'
p728
aS'->'
p729
aS'variable_16'
p730
aS'->'
p731
aS'variable_23'
p732
ag34
ag39
ag24
aS'if'
p733
ag5
ag5
aS'variable_1'
p734
aS'->'
p735
aS'variable_16'
p736
aS'->'
p737
aS'variable_24'
p738
ag34
aS'func_2'
p739
ag5
aS'variable_22'
p740
ag20
ag20
aS'=='
p741
aS'NULL'
p742
ag20
aS'variable_1'
p743
aS'->'
p744
aS'variable_16'
p745
aS'->'
p746
aS'variable_23'
p747
ag34
aS'variable_22'
p748
ag24
aS'memcpy'
p749
ag5
aS'variable_1'
p750
aS'->'
p751
aS'variable_16'
p752
aS'->'
p753
aS'variable_24'
p754
ag9
aS'variable_13'
p755
ag9
aS'variable_22'
p756
ag20
ag24
aS'fprintf'
p757
ag5
aS'variable_25'
p758
ag9
ag293
aS'CVE_2011_0014_VULN_ssl_parse_clienthello_tlsext'
p759
ag295
aS'->'
p760
aS'session'
p761
aS'->'
p762
aS'tlsext_ecpointformatlist'
p763
ag5
aS'length'
p764
ag34
ag301
ag302
ag20
ag293
ag9
aS'variable_1'
p765
aS'->'
p766
aS'variable_16'
p767
aS'->'
p768
aS'variable_23'
p769
ag20
ag24
aS'variable_13'
p770
ag34
aS'variable_1'
p771
aS'->'
p772
aS'variable_16'
p773
aS'->'
p774
aS'variable_24'
p775
ag24
aS'for'
p776
ag5
aS'variable_26'
p777
ag34
ag39
ag24
aS'variable_26'
p778
ag59
aS'variable_1'
p779
aS'->'
p780
aS'variable_16'
p781
aS'->'
p782
aS'variable_23'
p783
ag24
aS'variable_26'
p784
aS'++'
p785
ag20
aS'fprintf'
p786
ag5
aS'variable_25'
p787
ag9
ag293
ag301
ag302
ag293
ag9
ag7
ag5
aS'variable_13'
p788
aS'++'
p789
ag20
ag20
ag24
aS'fprintf'
p790
ag5
aS'variable_25'
p791
ag9
ag293
ag144
ag330
ag293
ag20
ag24
aS'if'
p792
ag5
aS'variable_6'
p793
aS'=='
p794
aS'variable_27'
p795
aS'&&'
p796
aS'variable_1'
p797
aS'->'
p798
aS'variable_20'
p799
aS'!='
p800
aS'variable_21'
p801
ag20
aS'unsigned'
p802
aS'char'
p803
ag7
aS'variable_13'
p804
ag34
aS'variable_9'
p805
ag24
aS'int'
p806
aS'variable_28'
p807
ag34
ag5
ag7
ag5
aS'variable_13'
p808
aS'++'
p809
ag20
aS'<<'
p810
ag253
ag20
ag24
aS'variable_28'
p811
aS'+='
p812
ag5
ag7
ag5
aS'variable_13'
p813
aS'++'
p814
ag20
ag20
ag24
aS'if'
p815
ag5
aS'variable_28'
p816
aS'!='
p817
aS'variable_7'
p818
ag43
ag51
ag20
aS'variable_1'
p819
aS'->'
p820
aS'variable_16'
p821
aS'->'
p822
aS'variable_29'
p823
ag34
ag39
ag24
aS'if'
p824
ag5
ag5
aS'variable_1'
p825
aS'->'
p826
aS'variable_16'
p827
aS'->'
p828
aS'variable_30'
p829
ag34
aS'func_3'
p830
ag5
aS'variable_28'
p831
ag20
ag20
aS'=='
p832
aS'NULL'
p833
ag20
aS'variable_1'
p834
aS'->'
p835
aS'variable_16'
p836
aS'->'
p837
aS'variable_29'
p838
ag34
aS'variable_28'
p839
ag24
aS'if'
p840
ag5
aS'variable_6'
p841
aS'=='
p842
aS'variable_31'
p843
aS'&&'
p844
aS'variable_1'
p845
aS'->'
p846
aS'variable_20'
p847
aS'!='
p848
aS'variable_21'
p849
ag20
aS'unsigned'
p850
aS'char'
p851
ag7
aS'variable_13'
p852
ag34
aS'variable_9'
p853
ag24
aS'if'
p854
ag5
aS'variable_7'
p855
ag59
ag51
ag20
aS'if'
p856
ag5
aS'variable_1'
p857
aS'->'
p858
aS'variable_32'
p859
aS'->'
p860
aS'variable_33'
p861
aS'!='
p862
aS'variable_7'
p863
ag43
ag51
ag20
aS'if'
p864
ag5
aS'variable_1'
p865
aS'->'
p866
aS'variable_32'
p867
aS'->'
p868
aS'variable_33'
p869
aS'=='
p870
ag39
ag20
aS'variable_1'
p871
aS'->'
p872
aS'variable_32'
p873
aS'->'
p874
aS'variable_34'
p875
ag34
aS'func_4'
p876
ag5
ag44
ag20
ag24
aS'variable_1'
p877
aS'->'
p878
aS'variable_32'
p879
aS'->'
p880
aS'variable_34'
p881
ag34
aS'func_5'
p882
ag5
aS'variable_13'
p883
ag9
aS'variable_1'
p884
aS'->'
p885
aS'variable_32'
p886
aS'->'
p887
aS'variable_33'
p888
ag20
ag24
aS'if'
p889
ag5
aS'variable_1'
p890
aS'->'
p891
aS'variable_32'
p892
aS'->'
p893
aS'variable_34'
p894
aS'=='
p895
aS'NULL'
p896
ag20
aS'if'
p897
ag5
aS'variable_6'
p898
aS'=='
p899
aS'variable_35'
p900
ag20
aS'if'
p901
ag5
aS'variable_1'
p902
aS'->'
p903
aS'variable_36'
p904
aS'&&'
p905
ag397
aS'variable_1'
p906
aS'->'
p907
aS'func_6'
p908
ag5
aS'variable_1'
p909
ag9
aS'variable_9'
p910
ag9
aS'variable_7'
p911
ag9
aS'variable_1'
p912
aS'->'
p913
aS'variable_37'
p914
ag20
ag20
aS'if'
p915
ag5
aS'variable_6'
p916
aS'=='
p917
aS'variable_38'
p918
ag20
aS'if'
p919
ag5
ag397
aS'func_7'
p920
ag5
aS'variable_1'
p921
ag9
aS'variable_9'
p922
ag9
aS'variable_7'
p923
ag9
aS'variable_5'
p924
ag20
ag20
aS'if'
p925
ag5
aS'variable_6'
p926
aS'=='
p927
aS'variable_39'
p928
aS'&&'
p929
aS'variable_1'
p930
aS'->'
p931
aS'variable_20'
p932
aS'!='
p933
aS'variable_21'
p934
aS'&&'
p935
aS'variable_1'
p936
aS'->'
p937
aS'variable_40'
p938
aS'->'
p939
aS'variable_41'
p940
ag20
aS'if'
p941
ag5
aS'variable_7'
p942
ag59
ag435
ag20
aS'variable_1'
p943
aS'->'
p944
aS'variable_11'
p945
ag34
ag7
aS'variable_9'
p946
aS'++'
p947
ag24
aS'variable_7'
p948
aS'--'
p949
ag24
aS'if'
p950
ag5
aS'variable_1'
p951
aS'->'
p952
aS'variable_11'
p953
aS'=='
p954
aS'variable_42'
p955
ag20
aS'const'
p956
aS'unsigned'
p957
aS'char'
p958
ag7
aS'variable_13'
p959
ag24
aS'int'
p960
aS'variable_15'
p961
ag24
aS'variable_7'
p962
aS'-='
p963
ag51
ag24
aS'if'
p964
ag5
aS'variable_15'
p965
ag47
aS'variable_7'
p966
ag20
aS'while'
p967
ag5
aS'variable_15'
p968
ag47
ag39
ag20
aS'variable_43'
p969
ag7
aS'variable_44'
p970
ag24
aS'int'
p971
aS'variable_45'
p972
ag24
aS'if'
p973
ag5
aS'variable_15'
p974
ag59
ag62
ag20
aS'variable_15'
p975
aS'-='
p976
ag51
ag49
aS'variable_45'
p977
ag24
aS'if'
p978
ag5
aS'variable_15'
p979
ag59
ag39
ag20
aS'variable_13'
p980
ag34
aS'variable_9'
p981
ag24
aS'variable_9'
p982
aS'+='
p983
aS'variable_45'
p984
ag24
aS'variable_44'
p985
ag34
aS'func_8'
p986
ag5
aS'NULL'
p987
ag9
ag481
aS'variable_13'
p988
ag9
aS'variable_45'
p989
ag20
ag24
aS'if'
p990
ag5
ag397
aS'variable_44'
p991
ag20
aS'if'
p992
ag5
aS'variable_9'
p993
aS'!='
p994
aS'variable_13'
p995
ag20
aS'if'
p996
ag5
ag397
aS'variable_1'
p997
aS'->'
p998
aS'variable_46'
p999
aS'&&'
p1000
ag397
ag5
aS'variable_1'
p1001
aS'->'
p1002
aS'variable_46'
p1003
ag34
aS'func_9'
p1004
ag5
ag20
ag20
ag20
aS'if'
p1005
ag5
ag397
aS'func_10'
p1006
ag5
aS'variable_1'
p1007
aS'->'
p1008
aS'variable_46'
p1009
ag9
aS'variable_44'
p1010
ag20
ag20
aS'variable_7'
p1011
aS'-='
p1012
ag51
ag24
aS'if'
p1013
ag5
aS'variable_15'
p1014
ag47
aS'variable_7'
p1015
ag20
aS'variable_13'
p1016
ag34
aS'variable_9'
p1017
ag24
aS'if'
p1018
ag5
aS'variable_15'
p1019
ag47
ag39
ag20
aS'variable_1'
p1020
aS'->'
p1021
aS'variable_47'
p1022
ag34
aS'func_11'
p1023
ag5
aS'NULL'
p1024
ag9
ag481
aS'variable_13'
p1025
ag9
aS'variable_15'
p1026
ag20
ag24
aS'if'
p1027
ag5
ag397
aS'variable_1'
p1028
aS'->'
p1029
aS'variable_47'
p1030
aS'||'
p1031
ag5
aS'variable_9'
p1032
ag49
aS'variable_15'
p1033
aS'!='
p1034
aS'variable_13'
p1035
ag20
ag20
aS'variable_1'
p1036
aS'->'
p1037
aS'variable_11'
p1038
ag34
ag43
ag44
ag24
aS'variable_9'
p1039
aS'+='
p1040
aS'variable_7'
p1041
ag24
aaa(lp1042
I0
aI0
aa(lp1043
I464
aI381
aa(lp1044
(lp1045
S'main'
p1046
aa(lp1047
g1046
aaa(lp1048
S'455 /home/SySeVR/data/CVE_2011_0014_VULN_ssl_parse_clienthello_tlsext.c memcpy 178'
p1049
aS'456 /home/SySeVR/data/CVE_2011_0014_VULN_ssl_parse_clienthello_tlsext.c memcpy 149'
p1050
aa.