(lp0
(lp1
(lp2
S'static'
p3
aS'void'
p4
aS'func_0'
p5
aS'('
p6
aS'variable_0'
p7
aS'*'
p8
aS'variable_1'
p9
aS')'
p10
aS'variable_2'
p11
ag8
aS'variable_3'
p12
aS'='
p13
ag6
aS'demux_t'
p14
ag8
ag10
aS'variable_1'
p15
aS';'
p16
aS'variable_4'
p17
ag8
aS'variable_5'
p18
ag13
aS'variable_3'
p19
aS'->'
p20
aS'variable_5'
p21
ag16
aS'free'
p22
ag6
aS'variable_5'
p23
ag10
ag16
aa(lp24
S'static'
p25
aS'void'
p26
aS'func_0'
p27
ag6
aS'variable_0'
p28
ag8
aS'variable_1'
p29
ag10
aS'variable_2'
p30
ag8
aS'variable_3'
p31
ag13
ag6
aS'demux_t'
p32
ag8
ag10
aS'variable_1'
p33
ag16
aS'variable_4'
p34
ag8
aS'variable_5'
p35
ag13
aS'variable_3'
p36
aS'->'
p37
aS'variable_5'
p38
ag16
aS'free'
p39
ag6
aS'variable_5'
p40
aS'->'
p41
aS'variable_6'
p42
ag10
ag16
aa(lp43
S'static'
p44
aS'void'
p45
aS'func_0'
p46
ag6
aS'variable_0'
p47
ag8
aS'variable_1'
p48
ag10
aS'variable_2'
p49
ag8
aS'variable_3'
p50
ag13
ag6
aS'demux_t'
p51
ag8
ag10
aS'variable_1'
p52
ag16
aS'variable_4'
p53
ag8
aS'variable_5'
p54
ag13
aS'variable_3'
p55
aS'->'
p56
aS'variable_5'
p57
ag16
aS'free'
p58
ag6
aS'variable_5'
p59
aS'->'
p60
aS'variable_6'
p61
ag10
ag16
aa(lp62
S'static'
p63
aS'void'
p64
aS'func_0'
p65
ag6
aS'variable_0'
p66
ag8
aS'variable_1'
p67
ag10
aS'variable_2'
p68
ag8
aS'variable_3'
p69
ag13
ag6
aS'demux_t'
p70
ag8
ag10
aS'variable_1'
p71
ag16
aS'variable_4'
p72
ag8
aS'variable_5'
p73
ag13
aS'variable_3'
p74
aS'->'
p75
aS'variable_5'
p76
ag16
aS'free'
p77
ag6
aS'variable_5'
p78
aS'->'
p79
aS'variable_6'
p80
ag10
ag16
aa(lp81
S'static'
p82
aS'void'
p83
aS'func_0'
p84
ag6
aS'variable_0'
p85
ag8
aS'variable_1'
p86
ag10
aS'variable_2'
p87
ag8
aS'variable_3'
p88
ag13
ag6
aS'demux_t'
p89
ag8
ag10
aS'variable_1'
p90
ag16
aS'variable_4'
p91
ag8
aS'variable_5'
p92
ag13
aS'variable_3'
p93
aS'->'
p94
aS'variable_5'
p95
ag16
aS'free'
p96
ag6
aS'variable_5'
p97
aS'->'
p98
aS'variable_6'
p99
ag10
ag16
aa(lp100
S'static'
p101
aS'void'
p102
aS'func_0'
p103
ag6
aS'variable_0'
p104
ag8
aS'variable_1'
p105
ag10
aS'variable_2'
p106
ag8
aS'variable_3'
p107
ag13
ag6
aS'demux_t'
p108
ag8
ag10
aS'variable_1'
p109
ag16
aS'variable_4'
p110
ag8
aS'variable_5'
p111
ag13
aS'variable_3'
p112
aS'->'
p113
aS'variable_5'
p114
ag16
aS'free'
p115
ag6
aS'variable_5'
p116
aS'->'
p117
aS'variable_6'
p118
ag10
ag16
aa(lp119
S'static'
p120
aS'void'
p121
aS'func_0'
p122
ag6
aS'variable_0'
p123
ag8
aS'variable_1'
p124
ag10
aS'variable_2'
p125
ag8
aS'variable_3'
p126
ag13
ag6
aS'demux_t'
p127
ag8
ag10
aS'variable_1'
p128
ag16
aS'variable_4'
p129
ag8
aS'variable_5'
p130
ag13
aS'variable_3'
p131
aS'->'
p132
aS'variable_5'
p133
ag16
aS'if'
p134
ag6
aS'variable_5'
p135
aS'->'
p136
aS'variable_6'
p137
aS'>'
p138
aS'0'
p139
ag10
aS'free'
p140
ag6
aS'variable_5'
p141
aS'->'
p142
aS'variable_7'
p143
ag10
ag16
aa(lp144
S'static'
p145
aS'void'
p146
aS'func_0'
p147
ag6
aS'variable_0'
p148
ag8
aS'variable_1'
p149
ag10
aS'variable_2'
p150
ag8
aS'variable_3'
p151
ag13
ag6
aS'demux_t'
p152
ag8
ag10
aS'variable_1'
p153
ag16
aS'variable_4'
p154
ag8
aS'variable_5'
p155
ag13
aS'variable_3'
p156
aS'->'
p157
aS'variable_5'
p158
ag16
aS'for'
p159
ag6
aS'int'
p160
aS'variable_6'
p161
ag13
ag139
ag16
aS'variable_6'
p162
aS'<'
p163
aS'variable_5'
p164
aS'->'
p165
aS'variable_7'
p166
ag16
aS'variable_6'
p167
aS'++'
p168
ag10
aS'variable_8'
p169
ag8
aS'variable_9'
p170
ag13
aS'variable_5'
p171
aS'->'
p172
aS'variable_10'
p173
aS'['
p174
aS'variable_6'
p175
aS']'
p176
ag16
aS'free'
p177
ag6
aS'variable_9'
p178
ag10
ag16
aa(lp179
S'static'
p180
aS'void'
p181
aS'func_0'
p182
ag6
aS'variable_0'
p183
ag8
aS'variable_1'
p184
ag10
aS'variable_2'
p185
ag8
aS'variable_3'
p186
ag13
ag6
aS'demux_t'
p187
ag8
ag10
aS'variable_1'
p188
ag16
aS'variable_4'
p189
ag8
aS'variable_5'
p190
ag13
aS'variable_3'
p191
aS'->'
p192
aS'variable_5'
p193
ag16
aS'for'
p194
ag6
aS'int'
p195
aS'variable_6'
p196
ag13
ag139
ag16
aS'variable_6'
p197
ag163
aS'variable_5'
p198
aS'->'
p199
aS'variable_7'
p200
ag16
aS'variable_6'
p201
aS'++'
p202
ag10
aS'variable_8'
p203
ag8
aS'variable_9'
p204
ag13
aS'variable_5'
p205
aS'->'
p206
aS'variable_10'
p207
ag174
aS'variable_6'
p208
ag176
ag16
aS'free'
p209
ag6
aS'variable_9'
p210
aS'->'
p211
aS'variable_11'
p212
ag10
ag16
aa(lp213
S'static'
p214
aS'void'
p215
aS'func_0'
p216
ag6
aS'variable_0'
p217
ag8
aS'variable_1'
p218
ag10
aS'variable_2'
p219
ag8
aS'variable_3'
p220
ag13
ag6
aS'demux_t'
p221
ag8
ag10
aS'variable_1'
p222
ag16
aS'variable_4'
p223
ag8
aS'variable_5'
p224
ag13
aS'variable_3'
p225
aS'->'
p226
aS'variable_5'
p227
ag16
aS'for'
p228
ag6
aS'int'
p229
aS'variable_6'
p230
ag13
ag139
ag16
aS'variable_6'
p231
ag163
aS'variable_5'
p232
aS'->'
p233
aS'variable_7'
p234
ag16
aS'variable_6'
p235
aS'++'
p236
ag10
aS'variable_8'
p237
ag8
aS'variable_9'
p238
ag13
aS'variable_5'
p239
aS'->'
p240
aS'variable_10'
p241
ag174
aS'variable_6'
p242
ag176
ag16
aS'free'
p243
ag6
aS'variable_9'
p244
aS'->'
p245
aS'variable_11'
p246
ag10
ag16
aaa(lp247
I0
aI0
aI0
aI0
aI0
aI0
aI0
aI0
aI0
aI0
aa(lp248
I26
aI26
aI26
aI26
aI26
aI26
aI34
aI53
aI53
aI53
aa(lp249
(lp250
S'main'
p251
aa(lp252
g251
aa(lp253
g251
aa(lp254
g251
aa(lp255
g251
aa(lp256
g251
aa(lp257
g251
aa(lp258
g251
aa(lp259
g251
aa(lp260
g251
aaa(lp261
S'320 /home/SySeVR/data/CVE_2010_3907_PATCHED_Close.c free 38'
p262
aS'321 /home/SySeVR/data/CVE_2010_3907_PATCHED_Close.c free 36'
p263
aS'322 /home/SySeVR/data/CVE_2010_3907_PATCHED_Close.c free 35'
p264
aS'323 /home/SySeVR/data/CVE_2010_3907_PATCHED_Close.c free 34'
p265
aS'324 /home/SySeVR/data/CVE_2010_3907_PATCHED_Close.c free 33'
p266
aS'325 /home/SySeVR/data/CVE_2010_3907_PATCHED_Close.c free 32'
p267
aS'326 /home/SySeVR/data/CVE_2010_3907_PATCHED_Close.c free 30'
p268
aS'327 /home/SySeVR/data/CVE_2010_3907_PATCHED_Close.c free 27'
p269
aS'328 /home/SySeVR/data/CVE_2010_3907_PATCHED_Close.c free 24'
p270
aS'329 /home/SySeVR/data/CVE_2010_3907_PATCHED_Close.c free 23'
p271
aa.