(lp0
(lp1
(lp2
S'asmlinkage'
p3
aS'long'
p4
aS'func_0'
p5
aS'('
p6
aS'const'
p7
aS'char'
p8
aS'variable_0'
p9
aS'*'
p10
aS'variable_1'
p11
aS','
p12
aS'int'
p13
aS'variable_2'
p14
ag12
aS'struct'
p15
aS'mq_attr'
p16
aS'variable_0'
p17
ag10
aS'variable_3'
p18
aS')'
p19
aS'struct'
p20
aS'variable_4'
p21
ag10
aS'variable_4'
p22
aS';'
p23
aS'char'
p24
ag10
aS'variable_5'
p25
ag23
aS'int'
p26
aS'variable_6'
p27
ag12
aS'variable_7'
p28
ag23
aS'if'
p29
ag6
aS'func_1'
p30
ag6
aS'variable_5'
p31
aS'='
p32
aS'func_2'
p33
ag6
aS'variable_1'
p34
ag19
ag19
ag19
aS'variable_6'
p35
ag32
aS'func_3'
p36
ag6
ag19
ag23
aS'if'
p37
ag6
aS'variable_6'
p38
aS'<'
p39
aS'0'
p40
ag19
aS'variable_4'
p41
ag32
aS'func_4'
p42
ag6
aS'variable_5'
p43
ag12
aS'variable_8'
p44
aS'->'
p45
aS'variable_9'
p46
ag12
aS'strlen'
p47
ag6
aS'variable_5'
p48
ag19
ag19
ag23
aS'if'
p49
ag6
aS'func_5'
p50
ag6
aS'variable_4'
p51
ag19
ag19
aS'variable_7'
p52
ag32
aS'func_6'
p53
ag6
aS'variable_4'
p54
ag19
ag23
aS'if'
p55
ag6
aS'variable_4'
p56
aS'->'
p57
aS'variable_10'
p58
ag19
aS'variable_11'
p59
ag32
ag6
aS'variable_2'
p60
aS'&'
p61
aS'variable_12'
p62
ag19
aS'?'
p63
aS'func_7'
p64
ag6
aS'-'
p65
aS'variable_13'
p66
ag19
aS':'
p67
aS'func_8'
p68
ag6
aS'variable_4'
p69
ag12
aS'variable_2'
p70
ag19
ag23
aS'variable_11'
p71
ag32
aS'func_9'
p72
ag6
aS'variable_8'
p73
aS'->'
p74
aS'variable_9'
p75
ag12
aS'variable_4'
p76
ag12
aS'variable_2'
p77
ag12
aS'variable_14'
p78
ag12
aS'variable_3'
p79
ag19
ag23
aS'variable_11'
p80
ag32
ag6
aS'variable_4'
p81
aS'->'
p82
aS'variable_10'
p83
ag19
ag63
aS'func_10'
p84
ag6
aS'variable_4'
p85
ag12
aS'variable_2'
p86
ag19
ag67
aS'func_11'
p87
ag6
ag65
aS'variable_15'
p88
ag19
ag23
aS'func_12'
p89
ag6
aS'variable_4'
p90
ag19
ag23
aS'if'
p91
ag6
aS'func_13'
p92
ag6
aS'variable_11'
p93
ag19
ag19
aS'variable_7'
p94
ag32
aS'func_14'
p95
ag6
aS'variable_11'
p96
ag19
ag23
aS'func_15'
p97
ag6
aS'variable_6'
p98
ag12
aS'variable_11'
p99
ag19
ag23
aS'variable_6'
p100
ag32
aS'variable_7'
p101
ag23
aS'return'
p102
aS'variable_6'
p103
ag23
aaa(lp104
I1
aa(lp105
I67
aa(lp106
(lp107
S'main'
p108
aaa(lp109
S'230 /home/SySeVR/data/CVE_2005_3356_VULN_sys_mq_open.c strlen 17'
p110
aa.