(lp0
I-4076022114988196732
aI-4076022114988196732
aI2896920630975419535
aI-6048701130530999825
aI8213231172614803093
aI2695539158046422239
aI2896920630975419535
aI-6048701130530999825
aI8213231172614803093
aI2695539158046422239
aI-4076022114988196732
aI-4076022114988196732
aI-2479004735899480025
aI-2479004735899480025
aI-6048701130530999825
aI8213231172614803093
aI6202648076738846728
aI-7033311595940136329
aI5217403464911064779
aI6202648076738846728
aI494908731803271143
aI-2415998946732843762
aI494908731803271143
aI7177089138344150687
aI-2415998946732843762
aI5217403464911064779
aI8084726834835078037
aI-7033311595940136329
aI8084726834835078037
aI7177089138344150687
aI-2479004735899480025
aI-2479004735899480025
aI-6048701130530999825
aI8213231172614803093
aI6202648076738846728
aI-7033311595940136329
aI5217403464911064779
aI6202648076738846728
aI494908731803271143
aI-2415998946732843762
aI494908731803271143
aI7177089138344150687
aI-2415998946732843762
aI5217403464911064779
aI8084726834835078037
aI-7033311595940136329
aI8084726834835078037
aI7177089138344150687
a.