(lp0
(lp1
(lp2
S'NS_IMETHODIMP'
p3
aS'variable_0'
p4
aS':'
p5
ag5
aS'func_0'
p6
aS'('
p7
aS'const'
p8
aS'char'
p9
aS'*'
p10
aS'variable_1'
p11
aS','
p12
aS'variable_2'
p13
ag10
aS'variable_3'
p14
ag12
aS'variable_4'
p15
ag10
aS'variable_5'
p16
ag12
aS'variable_2'
p17
ag10
aS'variable_6'
p18
aS')'
p19
aS'const'
p20
aS'unsigned'
p21
aS'char'
p22
ag10
aS'variable_7'
p23
aS'='
p24
ag7
aS'unsigned'
p25
aS'char'
p26
ag10
ag19
aS'variable_1'
p27
aS'+'
p28
ag10
aS'variable_3'
p29
aS';'
p30
aS'const'
p31
aS'unsigned'
p32
aS'char'
p33
ag10
aS'variable_8'
p34
ag24
ag7
aS'unsigned'
p35
aS'char'
p36
ag10
ag19
aS'variable_1'
p37
ag30
aS'variable_4'
p38
ag10
aS'variable_9'
p39
ag24
aS'variable_5'
p40
ag28
ag10
aS'variable_6'
p41
ag30
aS'variable_4'
p42
ag10
aS'variable_10'
p43
ag24
aS'variable_5'
p44
ag30
aS'while'
p45
ag7
aS'variable_8'
p46
aS'<'
p47
aS'variable_7'
p48
ag19
aS'if'
p49
ag7
ag10
aS'variable_8'
p50
aS'=='
p51
aS'0x0a'
p52
aS'||'
p53
ag10
aS'variable_8'
p54
aS'=='
p55
aS'0x0d'
p56
ag19
aS'variable_11'
p57
ag24
aS'variable_12'
p58
ag30
aS'switch'
p59
ag7
aS'variable_11'
p60
ag19
aS'if'
p61
ag7
aS'0x1b'
p62
aS'=='
p63
ag10
aS'variable_8'
p64
ag19
aS'variable_13'
p65
ag24
aS'variable_14'
p66
ag30
aS'variable_11'
p67
ag24
aS'variable_15'
p68
ag30
aS'variable_11'
p69
ag24
aS'variable_14'
p70
ag30
aS'if'
p71
ag7
aS'0x0e'
p72
aS'=='
p73
ag10
aS'variable_8'
p74
ag19
aS'variable_11'
p75
ag24
aS'variable_16'
p76
ag30
aS'variable_17'
p77
ag24
aS'0'
p78
ag30
aS'if'
p79
ag7
ag10
aS'variable_8'
p80
aS'&'
p81
aS'0x80'
p82
ag19
ag10
aS'variable_10'
p83
aS'++'
p84
ag24
aS'0xFFFD'
p85
ag30
aS'if'
p86
ag7
aS'variable_10'
p87
aS'>'
p88
ag24
aS'variable_9'
p89
ag19
ag10
aS'variable_10'
p90
aS'++'
p91
ag24
ag7
aS'variable_4'
p92
ag19
ag10
aS'variable_8'
p93
ag30
aS'if'
p94
ag7
aS'variable_10'
p95
ag88
ag24
aS'variable_9'
p96
ag19
aS'if'
p97
ag7
aS"'"
p98
aS'$'
p99
ag98
aS'=='
p100
ag10
aS'variable_8'
p101
ag19
aS'variable_11'
p102
ag24
aS'variable_18'
p103
ag30
aS'if'
p104
ag7
ag7
aS'variable_10'
p105
ag28
aS'2'
p106
ag19
ag88
ag24
aS'variable_9'
p107
ag19
ag10
aS'variable_10'
p108
aS'++'
p109
ag24
ag7
aS'variable_4'
p110
ag19
aS'0x1b'
p111
ag30
ag10
aS'variable_10'
p112
aS'++'
p113
ag24
ag7
aS'0x80'
p114
ag81
ag10
aS'variable_8'
p115
ag19
aS'?'
p116
aS'0xFFFD'
p117
ag5
ag7
aS'variable_4'
p118
ag19
ag10
aS'variable_8'
p119
ag30
aS'variable_11'
p120
ag24
aS'variable_13'
p121
ag30
aS'if'
p122
ag7
ag98
ag19
ag98
aS'=='
p123
ag10
aS'variable_8'
p124
ag19
aS'variable_11'
p125
ag24
aS'variable_19'
p126
ag30
aS'if'
p127
ag7
ag7
aS'variable_10'
p128
ag28
aS'3'
p129
ag19
ag88
ag24
aS'variable_9'
p130
ag19
ag10
aS'variable_10'
p131
aS'++'
p132
ag24
ag7
aS'variable_4'
p133
ag19
aS'0x1b'
p134
ag30
ag10
aS'variable_10'
p135
aS'++'
p136
ag24
ag7
aS'variable_4'
p137
ag19
ag98
ag99
ag98
ag30
ag10
aS'variable_10'
p138
aS'++'
p139
ag24
ag7
aS'0x80'
p140
ag81
ag10
aS'variable_8'
p141
ag19
ag116
aS'0xFFFD'
p142
ag5
ag7
aS'variable_4'
p143
ag19
ag10
aS'variable_8'
p144
ag30
aS'variable_11'
p145
ag24
aS'variable_13'
p146
ag30
aS'if'
p147
ag7
ag98
aS'C'
p148
ag98
aS'=='
p149
ag10
aS'variable_8'
p150
ag19
aS'variable_11'
p151
ag24
aS'variable_14'
p152
ag30
aS'variable_17'
p153
ag24
ag78
ag30
aS'if'
p154
ag7
ag7
aS'variable_10'
p155
ag28
aS'4'
p156
ag19
ag88
ag24
aS'variable_9'
p157
ag19
ag10
aS'variable_10'
p158
aS'++'
p159
ag24
ag7
aS'variable_4'
p160
ag19
aS'0x1b'
p161
ag30
ag10
aS'variable_10'
p162
aS'++'
p163
ag24
ag7
aS'variable_4'
p164
ag19
ag98
ag99
ag98
ag30
ag10
aS'variable_10'
p165
aS'++'
p166
ag24
ag7
aS'variable_4'
p167
ag19
ag98
ag19
ag98
ag30
ag10
aS'variable_10'
p168
aS'++'
p169
ag24
ag7
aS'0x80'
p170
ag81
ag10
aS'variable_8'
p171
ag19
ag116
aS'0xFFFD'
p172
ag5
ag7
aS'variable_4'
p173
ag19
ag10
aS'variable_8'
p174
ag30
aS'variable_11'
p175
ag24
aS'variable_13'
p176
ag30
aS'if'
p177
ag7
aS'0x20'
p178
ag47
ag7
aS'variable_20'
p179
ag19
ag10
aS'variable_8'
p180
aS'&&'
p181
ag7
aS'variable_20'
p182
ag19
ag10
aS'variable_8'
p183
ag47
aS'0x7f'
p184
ag19
aS'variable_11'
p185
ag24
aS'variable_21'
p186
ag30
aS'if'
p187
ag7
aS'0x0f'
p188
aS'=='
p189
ag10
aS'variable_8'
p190
ag19
aS'variable_11'
p191
ag24
aS'variable_14'
p192
ag30
aS'if'
p193
ag7
aS'variable_17'
p194
aS'=='
p195
ag78
ag19
aS'if'
p196
ag7
aS'variable_10'
p197
ag28
aS'1'
p198
ag88
ag24
aS'variable_9'
p199
ag19
ag10
aS'variable_10'
p200
aS'++'
p201
ag24
aS'0xFFFD'
p202
ag30
aS'variable_17'
p203
ag24
ag78
ag30
aS'if'
p204
ag7
ag7
aS'variable_20'
p205
ag19
ag10
aS'variable_8'
p206
aS'=='
p207
aS'0x20'
p208
aS'||'
p209
ag7
aS'variable_20'
p210
ag19
ag10
aS'variable_8'
p211
aS'=='
p212
aS'0x09'
p213
ag19
aS'variable_11'
p214
ag24
aS'variable_16'
p215
ag30
ag10
aS'variable_10'
p216
aS'++'
p217
ag24
ag7
aS'variable_4'
p218
ag19
ag10
aS'variable_8'
p219
ag30
aS'if'
p220
ag7
aS'variable_10'
p221
ag88
ag24
aS'variable_9'
p222
ag19
ag10
aS'variable_10'
p223
aS'++'
p224
ag24
aS'0xFFFD'
p225
ag30
aS'if'
p226
ag7
aS'variable_10'
p227
ag88
ag24
aS'variable_9'
p228
ag19
aS'if'
p229
ag7
aS'0x20'
p230
ag47
ag7
aS'variable_20'
p231
ag19
ag10
aS'variable_8'
p232
aS'&&'
p233
ag7
aS'variable_20'
p234
ag19
ag10
aS'variable_8'
p235
ag47
aS'0x7f'
p236
ag19
aS'if'
p237
ag7
aS'!'
p238
aS'variable_22'
p239
ag19
ag10
aS'variable_10'
p240
aS'++'
p241
ag24
aS'0xFFFD'
p242
ag30
aS'PRUnichar'
p243
aS'variable_23'
p244
ag30
ag10
aS'variable_10'
p245
aS'++'
p246
ag24
aS'variable_23'
p247
ag30
aS'if'
p248
ag7
aS'variable_10'
p249
ag88
ag24
aS'variable_9'
p250
ag19
aS'variable_11'
p251
ag24
aS'variable_16'
p252
ag30
aS'if'
p253
ag7
aS'0x0f'
p254
aS'=='
p255
ag10
aS'variable_8'
p256
ag19
aS'variable_11'
p257
ag24
aS'variable_14'
p258
ag30
aS'variable_11'
p259
ag24
aS'variable_16'
p260
ag30
ag10
aS'variable_10'
p261
aS'++'
p262
ag24
aS'0xFFFD'
p263
ag30
aS'if'
p264
ag7
aS'variable_10'
p265
ag88
ag24
aS'variable_9'
p266
ag19
aS'variable_11'
p267
ag24
aS'variable_13'
p268
ag30
ag10
aS'variable_10'
p269
aS'++'
p270
ag24
aS'0xFFFD'
p271
ag30
aS'if'
p272
ag7
aS'variable_10'
p273
ag88
ag24
aS'variable_9'
p274
ag19
aS'variable_8'
p275
aS'++'
p276
ag30
ag10
aS'variable_6'
p277
ag24
aS'variable_10'
p278
aS'-'
p279
aS'variable_5'
p280
ag30
ag10
aS'variable_6'
p281
ag24
aS'variable_10'
p282
ag279
aS'variable_5'
p283
ag30
aaa(lp284
I1
aa(lp285
I577
aa(lp286
(lp287
S'main'
p288
aaa(lp289
S'287 /home/SySeVR/data/CVE_2012_0477_VULN_nsISO2022KRToUnicode__Convert.c * aDestLen = dest - aDest 174'
p290
aa.