(lp0
(lp1
(lp2
S'static'
p3
aS'void'
p4
aS'func_0'
p5
aS'('
p6
aS'guint32'
p7
aS'variable_0'
p8
aS','
p9
aS'variable_1'
p10
aS'*'
p11
aS'variable_2'
p12
ag9
aS'variable_3'
p13
ag11
aS'variable_4'
p14
ag9
aS'guint32'
p15
aS'variable_5'
p16
ag9
aS'guint8'
p17
aS'variable_6'
p18
aS')'
p19
aS'switch'
p20
ag6
aS'variable_5'
p21
ag19
aS'guint32'
p22
aS'variable_7'
p23
aS';'
p24
aS'guint32'
p25
aS'variable_8'
p26
ag24
aS'guint32'
p27
aS'variable_9'
p28
ag24
aS'variable_7'
p29
aS'='
p30
aS'variable_0'
p31
aS'+'
p32
aS'8'
p33
ag24
aS'variable_8'
p34
ag30
aS'156'
p35
ag24
aS'for'
p36
ag6
aS'variable_9'
p37
ag30
aS'0'
p38
ag24
aS'variable_9'
p39
aS'<'
p40
aS'variable_10'
p41
ag24
aS'variable_9'
p42
aS'++'
p43
ag19
aS'guint32'
p44
aS'variable_11'
p45
ag24
aS'int'
p46
aS'variable_12'
p47
ag24
aS'variable_12'
p48
ag30
aS'variable_7'
p49
ag32
aS'variable_9'
p50
ag11
aS'variable_8'
p51
ag24
aS'variable_11'
p52
ag30
aS'func_1'
p53
ag6
aS'variable_4'
p54
ag9
aS'variable_12'
p55
ag19
ag24
aS'if'
p56
ag6
aS'variable_11'
p57
aS'=='
p58
ag38
ag19
aS'guint32'
p59
aS'variable_7'
p60
ag24
aS'guint32'
p61
aS'variable_13'
p62
ag24
aS'guint32'
p63
aS'variable_8'
p64
ag24
aS'guint32'
p65
aS'variable_9'
p66
ag24
aS'variable_13'
p67
ag30
aS'func_2'
p68
ag6
aS'variable_4'
p69
ag9
aS'variable_0'
p70
ag32
ag33
ag19
ag24
aS'if'
p71
ag6
aS'variable_13'
p72
aS'>'
p73
aS'variable_14'
p74
ag19
aS'variable_13'
p75
ag30
aS'variable_14'
p76
ag24
aS'variable_7'
p77
ag30
aS'variable_0'
p78
ag32
aS'16'
p79
ag24
aS'variable_8'
p80
ag30
aS'148'
p81
ag24
aS'for'
p82
ag6
aS'variable_9'
p83
ag30
ag38
ag24
aS'variable_9'
p84
ag40
aS'variable_13'
p85
ag24
aS'variable_9'
p86
aS'++'
p87
ag19
aS'int'
p88
aS'variable_12'
p89
ag24
aS'if'
p90
ag6
aS'variable_6'
p91
ag40
aS'3'
p92
ag19
aS'variable_0'
p93
aS'+='
p94
aS'4'
p95
ag24
aS'guint32'
p96
aS'variable_7'
p97
ag24
aS'guint32'
p98
aS'variable_8'
p99
ag24
aS'guint32'
p100
aS'variable_9'
p101
ag24
aS'guint32'
p102
aS'variable_13'
p103
ag24
aS'variable_13'
p104
ag30
aS'func_3'
p105
ag6
aS'variable_4'
p106
ag9
aS'variable_0'
p107
ag32
aS'142'
p108
ag19
ag24
aS'variable_7'
p109
ag30
aS'variable_0'
p110
ag32
aS'46'
p111
ag24
aS'variable_8'
p112
ag30
aS'6'
p113
ag24
aS'for'
p114
ag6
aS'variable_9'
p115
ag30
ag38
ag24
aS'variable_9'
p116
ag40
aS'variable_13'
p117
ag24
aS'variable_9'
p118
aS'++'
p119
ag19
aS'int'
p120
aS'variable_12'
p121
ag24
aS'variable_12'
p122
ag30
aS'variable_7'
p123
ag32
aS'variable_9'
p124
ag11
aS'variable_8'
p125
ag24
aS'func_4'
p126
ag6
aS'variable_2'
p127
ag9
aS'variable_15'
p128
ag9
aS'variable_4'
p129
ag9
aS'variable_12'
p130
ag9
ag113
ag9
aS'variable_16'
p131
ag19
ag24
aa(lp132
S'static'
p133
aS'void'
p134
aS'func_0'
p135
ag6
aS'guint32'
p136
aS'variable_0'
p137
ag9
aS'variable_1'
p138
ag11
aS'variable_2'
p139
ag9
aS'variable_3'
p140
ag11
aS'variable_4'
p141
ag9
aS'guint32'
p142
aS'variable_5'
p143
ag9
aS'guint8'
p144
aS'variable_6'
p145
ag19
aS'switch'
p146
ag6
aS'variable_5'
p147
ag19
aS'guint32'
p148
aS'variable_7'
p149
ag24
aS'guint32'
p150
aS'variable_8'
p151
ag24
aS'guint32'
p152
aS'variable_9'
p153
ag24
aS'variable_7'
p154
ag30
aS'variable_0'
p155
ag32
ag33
ag24
aS'variable_8'
p156
ag30
aS'156'
p157
ag24
aS'for'
p158
ag6
aS'variable_9'
p159
ag30
ag38
ag24
aS'variable_9'
p160
ag40
aS'variable_10'
p161
ag24
aS'variable_9'
p162
aS'++'
p163
ag19
aS'guint32'
p164
aS'variable_11'
p165
ag24
aS'int'
p166
aS'variable_12'
p167
ag24
aS'variable_12'
p168
ag30
aS'variable_7'
p169
ag32
aS'variable_9'
p170
ag11
aS'variable_8'
p171
ag24
aS'variable_11'
p172
ag30
aS'func_1'
p173
ag6
aS'variable_4'
p174
ag9
aS'variable_12'
p175
ag19
ag24
aS'if'
p176
ag6
aS'variable_11'
p177
aS'=='
p178
ag38
ag19
aS'guint32'
p179
aS'variable_7'
p180
ag24
aS'guint32'
p181
aS'variable_13'
p182
ag24
aS'guint32'
p183
aS'variable_8'
p184
ag24
aS'guint32'
p185
aS'variable_9'
p186
ag24
aS'variable_13'
p187
ag30
aS'func_2'
p188
ag6
aS'variable_4'
p189
ag9
aS'variable_0'
p190
ag32
ag33
ag19
ag24
aS'if'
p191
ag6
aS'variable_13'
p192
ag73
aS'variable_14'
p193
ag19
aS'variable_13'
p194
ag30
aS'variable_14'
p195
ag24
aS'variable_7'
p196
ag30
aS'variable_0'
p197
ag32
aS'16'
p198
ag24
aS'variable_8'
p199
ag30
aS'148'
p200
ag24
aS'for'
p201
ag6
aS'variable_9'
p202
ag30
ag38
ag24
aS'variable_9'
p203
ag40
aS'variable_13'
p204
ag24
aS'variable_9'
p205
aS'++'
p206
ag19
aS'int'
p207
aS'variable_12'
p208
ag24
aS'variable_12'
p209
ag30
aS'variable_7'
p210
ag32
aS'variable_9'
p211
ag11
aS'variable_8'
p212
ag24
aS'variable_15'
p213
ag30
aS'func_3'
p214
ag6
aS'variable_2'
p215
ag9
aS'variable_16'
p216
ag9
aS'variable_4'
p217
ag9
aS'variable_12'
p218
ag9
aS'32'
p219
ag9
aS'variable_17'
p220
aS'|'
p221
aS'variable_18'
p222
ag19
ag24
aS'variable_19'
p223
ag30
aS'func_4'
p224
ag6
aS'variable_15'
p225
ag9
aS'variable_20'
p226
aS'['
p227
aS'variable_9'
p228
aS']'
p229
ag19
ag24
aS'variable_21'
p230
ag30
aS'func_5'
p231
ag6
aS'variable_4'
p232
ag9
aS'variable_12'
p233
ag32
aS'52'
p234
ag19
ag24
aS'if'
p235
ag6
aS'variable_21'
p236
aS'!='
p237
ag38
ag19
aS'for'
p238
ag6
aS'variable_22'
p239
ag30
ag38
ag24
aS'variable_22'
p240
ag40
aS'variable_21'
p241
ag24
aS'variable_22'
p242
aS'++'
p243
ag19
aS'func_6'
p244
ag6
aS'variable_19'
p245
ag9
aS'variable_23'
p246
ag9
aS'variable_4'
p247
ag9
aS'variable_7'
p248
ag32
aS'36'
p249
ag32
aS'"'
p250
aS'-'
p251
aS'Clause'
p252
aS'20'
p253
ag19
ag250
ag19
aS'func_7'
p254
ag6
aS'variable_19'
p255
ag9
aS'variable_23'
p256
ag9
aS'variable_4'
p257
ag9
aS'variable_7'
p258
ag32
aS'36'
p259
ag9
aS'variable_21'
p260
ag9
aS'func_8'
p261
ag6
aS'variable_24'
p262
ag19
ag19
ag24
aS'func_9'
p263
ag6
aS'variable_19'
p264
ag9
aS'variable_25'
p265
ag9
aS'variable_4'
p266
ag9
aS'variable_12'
p267
ag32
aS'56'
p268
ag9
ag113
ag9
aS'variable_18'
p269
ag19
ag24
aS'func_10'
p270
ag6
aS'variable_19'
p271
ag9
aS'variable_26'
p272
ag9
aS'variable_4'
p273
ag9
aS'variable_12'
p274
ag32
aS'62'
p275
ag9
aS'2'
p276
ag9
aS'variable_27'
p277
ag19
ag24
aS'func_11'
p278
ag6
aS'variable_19'
p279
ag9
aS'variable_28'
p280
ag9
aS'variable_4'
p281
ag9
aS'variable_12'
p282
ag32
aS'64'
p283
ag9
ag95
ag9
aS'variable_27'
p284
ag19
ag24
aS'func_12'
p285
ag6
aS'variable_19'
p286
ag9
aS'variable_29'
p287
ag9
aS'variable_4'
p288
ag9
aS'variable_12'
p289
ag32
aS'68'
p290
ag9
ag95
ag9
aS'variable_27'
p291
ag19
ag24
aS'func_13'
p292
ag6
aS'variable_19'
p293
ag9
aS'variable_30'
p294
ag9
aS'variable_4'
p295
ag9
aS'variable_12'
p296
ag32
aS'72'
p297
ag9
ag95
ag9
aS'variable_27'
p298
ag19
ag24
aS'func_14'
p299
ag6
aS'variable_19'
p300
ag9
aS'variable_31'
p301
ag9
aS'variable_4'
p302
ag9
aS'variable_12'
p303
ag32
aS'76'
p304
ag9
ag95
ag9
aS'variable_27'
p305
ag19
ag24
aS'func_15'
p306
ag6
aS'variable_19'
p307
ag9
aS'variable_32'
p308
ag9
aS'variable_4'
p309
ag9
aS'variable_12'
p310
ag32
aS'80'
p311
ag9
ag95
ag9
aS'variable_27'
p312
ag19
ag24
aS'func_16'
p313
ag6
aS'variable_2'
p314
ag9
aS'variable_25'
p315
ag9
aS'variable_4'
p316
ag9
aS'variable_12'
p317
ag9
ag113
ag9
aS'variable_18'
p318
ag19
ag24
aa(lp319
S'static'
p320
aS'void'
p321
aS'func_0'
p322
ag6
aS'guint32'
p323
aS'variable_0'
p324
ag9
aS'variable_1'
p325
ag11
aS'variable_2'
p326
ag9
aS'variable_3'
p327
ag11
aS'variable_4'
p328
ag9
aS'guint32'
p329
aS'variable_5'
p330
ag9
aS'guint8'
p331
aS'variable_6'
p332
ag19
aS'switch'
p333
ag6
aS'variable_5'
p334
ag19
aS'guint32'
p335
aS'variable_7'
p336
ag24
aS'guint32'
p337
aS'variable_8'
p338
ag24
aS'guint32'
p339
aS'variable_9'
p340
ag24
aS'variable_7'
p341
ag30
aS'variable_0'
p342
ag32
ag33
ag24
aS'variable_8'
p343
ag30
aS'156'
p344
ag24
aS'for'
p345
ag6
aS'variable_9'
p346
ag30
ag38
ag24
aS'variable_9'
p347
ag40
aS'variable_10'
p348
ag24
aS'variable_9'
p349
aS'++'
p350
ag19
aS'guint32'
p351
aS'variable_11'
p352
ag24
aS'int'
p353
aS'variable_12'
p354
ag24
aS'variable_12'
p355
ag30
aS'variable_7'
p356
ag32
aS'variable_9'
p357
ag11
aS'variable_8'
p358
ag24
aS'variable_11'
p359
ag30
aS'func_1'
p360
ag6
aS'variable_4'
p361
ag9
aS'variable_12'
p362
ag19
ag24
aS'if'
p363
ag6
aS'variable_11'
p364
aS'=='
p365
ag38
ag19
aS'variable_13'
p366
ag30
aS'func_2'
p367
ag6
aS'variable_2'
p368
ag9
aS'variable_14'
p369
ag9
aS'variable_4'
p370
ag9
aS'variable_12'
p371
ag9
ag95
ag9
aS'variable_11'
p372
ag9
ag250
aS'Interface'
p373
aS'state'
p374
aS'change'
p375
aS'%'
p376
aS'd'
p377
ag250
ag9
aS'variable_9'
p378
ag19
ag24
aS'variable_15'
p379
ag30
aS'func_3'
p380
ag6
aS'variable_13'
p381
ag9
aS'variable_16'
p382
ag227
aS'variable_9'
p383
ag229
ag19
ag24
aS'func_4'
p384
ag6
aS'variable_15'
p385
ag9
aS'variable_14'
p386
ag9
aS'variable_4'
p387
ag9
aS'variable_12'
p388
ag9
ag95
ag9
aS'variable_17'
p389
ag19
ag24
aS'func_5'
p390
ag6
aS'variable_15'
p391
ag9
aS'variable_18'
p392
ag9
aS'variable_4'
p393
ag9
aS'variable_12'
p394
ag9
ag95
ag9
aS'variable_17'
p395
ag19
ag24
aS'func_6'
p396
ag6
aS'variable_15'
p397
ag9
aS'variable_19'
p398
ag9
aS'variable_4'
p399
ag9
aS'variable_12'
p400
ag32
ag95
ag9
ag95
ag9
aS'variable_17'
p401
ag19
ag24
aS'func_7'
p402
ag6
aS'variable_15'
p403
ag9
aS'variable_20'
p404
ag9
aS'variable_4'
p405
ag9
aS'variable_12'
p406
ag32
ag33
ag9
ag95
ag9
aS'variable_17'
p407
ag19
ag24
aS'func_8'
p408
ag6
aS'variable_12'
p409
ag32
aS'12'
p410
ag9
aS'variable_15'
p411
ag9
aS'variable_4'
p412
ag19
ag24
aS'func_9'
p413
ag6
aS'variable_15'
p414
ag9
aS'variable_21'
p415
ag9
aS'variable_4'
p416
ag9
aS'variable_12'
p417
ag32
aS'108'
p418
ag9
ag33
ag9
aS'variable_17'
p419
ag19
ag24
aS'func_10'
p420
ag6
aS'variable_15'
p421
ag9
aS'variable_22'
p422
ag9
aS'variable_4'
p423
ag9
aS'variable_12'
p424
ag32
aS'116'
p425
ag9
ag276
ag9
aS'variable_17'
p426
ag19
ag24
aS'if'
p427
ag6
aS'func_11'
p428
ag6
aS'variable_4'
p429
ag9
aS'variable_12'
p430
ag32
aS'116'
p431
ag19
aS'=='
p432
aS'variable_23'
p433
ag19
aS'func_12'
p434
ag6
aS'variable_15'
p435
ag9
aS'variable_24'
p436
ag9
aS'variable_4'
p437
ag9
aS'variable_12'
p438
ag32
aS'124'
p439
ag9
ag95
ag9
aS'variable_17'
p440
ag19
ag24
aS'func_13'
p441
ag6
aS'variable_15'
p442
ag9
aS'variable_25'
p443
ag9
aS'variable_4'
p444
ag9
aS'variable_12'
p445
ag32
aS'124'
p446
ag9
aS'16'
p447
ag9
aS'variable_26'
p448
ag19
ag24
aS'variable_27'
p449
ag30
aS'func_14'
p450
ag6
aS'variable_2'
p451
ag9
aS'variable_28'
p452
ag9
aS'variable_4'
p453
ag9
aS'variable_12'
p454
ag9
aS'32'
p455
ag9
aS'variable_29'
p456
ag221
aS'variable_26'
p457
ag19
ag24
aS'variable_30'
p458
ag30
aS'func_15'
p459
ag6
aS'variable_27'
p460
ag9
aS'variable_31'
p461
ag227
aS'variable_9'
p462
ag229
ag19
ag24
aS'variable_32'
p463
ag30
aS'func_16'
p464
ag6
aS'variable_4'
p465
ag9
aS'variable_12'
p466
ag32
aS'52'
p467
ag19
ag24
aS'if'
p468
ag6
aS'variable_32'
p469
aS'!='
p470
ag38
ag19
aS'for'
p471
ag6
aS'variable_33'
p472
ag30
ag38
ag24
aS'variable_33'
p473
ag40
aS'variable_32'
p474
ag24
aS'variable_33'
p475
aS'++'
p476
ag19
aS'func_17'
p477
ag6
aS'variable_30'
p478
ag9
aS'variable_34'
p479
ag9
aS'variable_4'
p480
ag9
aS'variable_7'
p481
ag32
aS'36'
p482
ag32
ag250
ag251
aS'Clause'
p483
aS'20'
p484
ag19
ag250
ag19
aS'func_18'
p485
ag6
aS'variable_30'
p486
ag9
aS'variable_34'
p487
ag9
aS'variable_4'
p488
ag9
aS'variable_7'
p489
ag32
aS'36'
p490
ag9
aS'variable_32'
p491
ag9
aS'func_19'
p492
ag6
aS'variable_35'
p493
ag19
ag19
ag24
aS'func_20'
p494
ag6
aS'variable_30'
p495
ag9
aS'variable_36'
p496
ag9
aS'variable_4'
p497
ag9
aS'variable_12'
p498
ag32
aS'56'
p499
ag9
ag113
ag9
aS'variable_26'
p500
ag19
ag24
aS'func_21'
p501
ag6
aS'variable_30'
p502
ag9
aS'variable_37'
p503
ag9
aS'variable_4'
p504
ag9
aS'variable_12'
p505
ag32
aS'62'
p506
ag9
ag276
ag9
aS'variable_17'
p507
ag19
ag24
aS'func_22'
p508
ag6
aS'variable_30'
p509
ag9
aS'variable_38'
p510
ag9
aS'variable_4'
p511
ag9
aS'variable_12'
p512
ag32
aS'64'
p513
ag9
ag95
ag9
aS'variable_17'
p514
ag19
ag24
aS'func_23'
p515
ag6
aS'variable_30'
p516
ag9
aS'variable_39'
p517
ag9
aS'variable_4'
p518
ag9
aS'variable_12'
p519
ag32
aS'68'
p520
ag9
ag95
ag9
aS'variable_17'
p521
ag19
ag24
aS'func_24'
p522
ag6
aS'variable_30'
p523
ag9
aS'variable_40'
p524
ag9
aS'variable_4'
p525
ag9
aS'variable_12'
p526
ag32
aS'72'
p527
ag9
ag95
ag9
aS'variable_17'
p528
ag19
ag24
aS'func_25'
p529
ag6
aS'variable_30'
p530
ag9
aS'variable_41'
p531
ag9
aS'variable_4'
p532
ag9
aS'variable_12'
p533
ag32
aS'76'
p534
ag9
ag95
ag9
aS'variable_17'
p535
ag19
ag24
aS'func_26'
p536
ag6
aS'variable_30'
p537
ag9
aS'variable_42'
p538
ag9
aS'variable_4'
p539
ag9
aS'variable_12'
p540
ag32
aS'80'
p541
ag9
ag95
ag9
aS'variable_17'
p542
ag19
ag24
aS'func_27'
p543
ag6
aS'variable_2'
p544
ag9
aS'variable_36'
p545
ag9
aS'variable_4'
p546
ag9
aS'variable_12'
p547
ag9
ag113
ag9
aS'variable_26'
p548
ag19
ag24
aaa(lp549
I0
aI0
aI0
aa(lp550
I210
aI151
aI69
aa(lp551
(lp552
S'main'
p553
aa(lp554
g553
aa(lp555
g553
aaa(lp556
S'719 /home/SySeVR/data/CVE_2015_6246_PATCHED_dissect_wa_payload.c current_offset = offset + iLoop * delta 494'
p557
aS'720 /home/SySeVR/data/CVE_2015_6246_PATCHED_dissect_wa_payload.c current_offset = offset + iLoop * delta 240'
p558
aS'721 /home/SySeVR/data/CVE_2015_6246_PATCHED_dissect_wa_payload.c current_offset = offset + iLoop * delta 137'
p559
aa.