(lp0
(lp1
(lp2
S'static'
p3
aS'bool'
p4
aS'func_0'
p5
aS'('
p6
aS'int'
p7
aS'*'
p8
aS'variable_0'
p9
aS','
p10
aS'int'
p11
aS'variable_1'
p12
aS')'
p13
aS'struct'
p14
aS'variable_2'
p15
ag8
aS'variable_3'
p16
aS'='
p17
aS'&'
p18
aS'variable_4'
p19
aS'->'
p20
aS'variable_3'
p21
aS';'
p22
aS'struct'
p23
aS'variable_5'
p24
ag8
aS'variable_6'
p25
ag17
aS'variable_4'
p26
aS'->'
p27
aS'variable_6'
p28
ag22
aS'struct'
p29
aS'variable_7'
p30
ag8
aS'variable_8'
p31
ag10
ag8
aS'variable_9'
p32
ag22
aS'struct'
p33
aS'variable_10'
p34
ag8
aS'variable_11'
p35
ag10
ag8
aS'variable_12'
p36
ag22
aS'u32'
p37
aS'variable_13'
p38
ag22
aS'u8'
p39
aS'variable_14'
p40
ag22
aS'unsigned'
p41
aS'int'
p42
aS'variable_15'
p43
ag22
aS'variable_15'
p44
ag17
aS'variable_16'
p45
aS'->'
p46
aS'variable_17'
p47
ag22
aS'variable_8'
p48
ag17
aS'func_1'
p49
ag6
ag8
aS'variable_16'
p50
ag10
aS'variable_15'
p51
ag13
ag22
aS'variable_11'
p52
ag17
ag18
aS'variable_16'
p53
aS'->'
p54
aS'variable_11'
p55
aS'['
p56
aS'variable_15'
p57
aS']'
p58
ag22
aS'while'
p59
ag6
aS'variable_8'
p60
aS'->'
p61
aS'variable_18'
p62
ag18
aS'variable_19'
p63
ag13
aS'struct'
p64
aS'variable_20'
p65
ag8
aS'variable_21'
p66
ag22
aS'u8'
p67
aS'variable_18'
p68
ag22
aS'if'
p69
ag6
ag8
aS'variable_0'
p70
aS'>'
p71
ag17
aS'variable_1'
p72
ag13
ag6
ag8
aS'variable_0'
p73
ag13
aS'++'
p74
ag22
aS'variable_18'
p75
ag17
aS'variable_8'
p76
aS'->'
p77
aS'variable_18'
p78
ag22
aS'variable_21'
p79
ag17
aS'variable_11'
p80
aS'->'
p81
aS'variable_21'
p82
ag22
aS'variable_11'
p83
aS'->'
p84
aS'variable_21'
p85
ag17
aS'NULL'
p86
ag22
aS'func_2'
p87
ag6
aS'variable_21'
p88
aS'->'
p89
aS'variable_22'
p90
aS'-'
p91
aS'variable_23'
p92
ag13
ag22
aS'if'
p93
ag6
aS'++'
p94
aS'variable_15'
p95
aS'=='
p96
aS'variable_16'
p97
aS'->'
p98
aS'variable_24'
p99
ag13
aS'variable_15'
p100
ag17
aS'0'
p101
ag22
aS'variable_9'
p102
ag17
aS'func_3'
p103
ag6
ag8
aS'variable_16'
p104
ag10
aS'variable_15'
p105
ag13
ag22
aS'variable_12'
p106
ag17
ag18
aS'variable_16'
p107
aS'->'
p108
aS'variable_11'
p109
ag56
aS'variable_15'
p110
ag58
ag22
aS'variable_13'
p111
ag17
aS'func_4'
p112
ag6
aS'variable_8'
p113
aS'->'
p114
aS'variable_13'
p115
ag13
ag22
aS'if'
p116
ag6
aS'func_5'
p117
ag6
aS'!'
p118
ag6
aS'variable_18'
p119
ag18
aS'variable_25'
p120
ag13
aS'||'
p121
ag6
aS'variable_13'
p122
aS'<'
p123
ag17
aS'4'
p124
ag13
ag13
ag13
aS'variable_11'
p125
aS'->'
p126
aS'variable_21'
p127
ag17
aS'variable_21'
p128
ag22
aS'if'
p129
ag6
aS'func_6'
p130
ag6
aS'variable_8'
p131
aS'->'
p132
aS'variable_26'
p133
ag18
aS'variable_27'
p134
ag13
ag13
aS'variable_14'
p135
ag17
ag8
ag6
aS'variable_21'
p136
aS'->'
p137
aS'variable_22'
p138
aS'+'
p139
aS'variable_13'
p140
ag91
aS'1'
p141
ag13
ag22
aS'if'
p142
ag6
aS'func_7'
p143
ag6
aS'variable_3'
p144
ag10
aS'variable_18'
p145
ag10
aS'variable_8'
p146
aS'->'
p147
aS'variable_26'
p148
ag10
aS'variable_13'
p149
ag10
aS'variable_14'
p150
ag13
ag13
aS'func_8'
p151
ag6
aS'variable_3'
p152
ag10
ag18
aS'variable_4'
p153
aS'->'
p154
aS'variable_28'
p155
ag10
aS'variable_13'
p156
ag10
aS'variable_21'
p157
aS'->'
p158
aS'variable_22'
p159
ag13
ag22
aS'variable_13'
p160
aS'--'
p161
ag22
aS'variable_11'
p162
aS'->'
p163
aS'variable_21'
p164
ag17
aS'variable_21'
p165
ag22
aS'variable_13'
p166
aS'-='
p167
ag124
ag22
aS'if'
p168
ag6
aS'variable_13'
p169
ag123
aS'variable_29'
p170
ag13
aS'struct'
p171
aS'variable_20'
p172
ag8
aS'variable_30'
p173
ag17
aS'func_9'
p174
ag6
aS'variable_6'
p175
ag10
aS'variable_13'
p176
ag139
aS'variable_23'
p177
ag13
ag22
aS'if'
p178
ag6
aS'variable_30'
p179
ag13
aS'func_10'
p180
ag6
aS'variable_30'
p181
ag10
aS'variable_23'
p182
ag13
ag22
aS'func_11'
p183
ag6
aS'variable_30'
p184
ag10
ag91
aS'variable_23'
p185
ag10
ag6
aS'variable_21'
p186
aS'->'
p187
aS'variable_22'
p188
ag91
aS'variable_23'
p189
ag13
ag10
ag6
aS'variable_13'
p190
ag139
aS'variable_23'
p191
ag13
ag13
ag22
aS'variable_11'
p192
aS'->'
p193
aS'variable_21'
p194
ag17
aS'variable_21'
p195
ag22
aS'variable_21'
p196
ag17
aS'variable_30'
p197
ag22
aS'func_12'
p198
ag6
aS'variable_21'
p199
ag10
aS'variable_13'
p200
ag13
ag22
aS'func_13'
p201
ag6
aS'variable_4'
p202
ag10
ag6
aS'variable_31'
p203
ag13
ag6
aS'variable_18'
p204
ag13
aS'|'
p205
ag6
ag6
aS'variable_31'
p206
ag13
ag6
aS'variable_8'
p207
aS'->'
p208
aS'variable_26'
p209
ag13
aS'<<'
p210
aS'24'
p211
ag13
ag10
aS'func_14'
p212
ag6
aS'variable_8'
p213
aS'->'
p214
aS'variable_32'
p215
ag13
ag10
aS'variable_21'
p216
ag13
ag22
aS'variable_21'
p217
aS'->'
p218
aS'variable_33'
p219
ag17
aS'func_15'
p220
ag6
aS'variable_21'
p221
ag10
aS'variable_6'
p222
ag13
ag22
aS'func_16'
p223
ag6
aS'variable_21'
p224
ag10
aS'variable_4'
p225
aS'->'
p226
aS'variable_34'
p227
ag10
aS'func_17'
p228
ag6
aS'variable_8'
p229
aS'->'
p230
aS'variable_35'
p231
ag13
ag13
ag22
aS'func_18'
p232
ag6
aS'variable_21'
p233
ag13
ag22
aS'variable_8'
p234
aS'->'
p235
aS'variable_18'
p236
ag17
ag101
ag22
aS'variable_8'
p237
ag17
aS'variable_9'
p238
ag22
aS'variable_11'
p239
ag17
aS'variable_12'
p240
ag22
aaa(lp241
I0
aa(lp242
I295
aa(lp243
(lp244
S'main'
p245
aaa(lp246
S'747 /home/SySeVR/data/CVE_2009_1385_PATCHED_e1000_clean_rx_irq.c struct sk_buff * new_skb = netdev_alloc_skb ( netdev , length + NET_IP_ALIGN ) ; 90'
p247
aa.