(lp0
(lp1
(lp2
S'uint32_t'
p3
aS'func_0'
p4
aS'('
p5
aS'struct'
p6
aS'variable_0'
p7
aS'*'
p8
aS'variable_1'
p9
aS')'
p10
aS'struct'
p11
aS'variable_0'
p12
ag8
aS'variable_2'
p13
aS','
p14
ag8
aS'variable_3'
p15
aS';'
p16
aS'variable_3'
p17
aS'='
p18
aS'func_1'
p19
ag5
aS'variable_1'
p20
ag10
ag16
aS'for'
p21
ag5
aS'variable_2'
p22
ag18
aS'variable_3'
p23
ag16
aS'variable_2'
p24
ag16
aS'variable_2'
p25
ag18
aS'variable_2'
p26
aS'->'
p27
aS'variable_4'
p28
ag10
aS'if'
p29
ag5
aS'!'
p30
aS'func_2'
p31
ag5
aS'variable_2'
p32
aS'->'
p33
aS'variable_5'
p34
ag14
aS'"'
p35
aS'mansession_id'
p36
ag35
ag10
ag10
aS'sscanf'
p37
ag5
aS'variable_2'
p38
aS'->'
p39
aS'variable_6'
p40
ag14
ag35
aS'%'
p41
aS'30x'
p42
ag35
ag14
aS'&'
p43
aS'variable_7'
p44
ag10
ag16
aaa(lp45
I0
aa(lp46
I51
aa(lp47
(lp48
S'main'
p49
aaa(lp50
S'893 /home/SySeVR/data/CVE_2014_2286_VULN_ast_http_manid_from_vars.c sscanf 9'
p51
aa.