(lp0
(lp1
(lp2
S'static'
p3
aS'void'
p4
aS'func_0'
p5
aS'('
p6
aS'variable_0'
p7
aS'*'
p8
aS'variable_1'
p9
aS')'
p10
aS'if'
p11
ag6
aS'!'
p12
aS'variable_1'
p13
aS'->'
p14
aS'variable_2'
p15
ag10
aS'if'
p16
ag6
aS'variable_1'
p17
aS'->'
p18
aS'variable_2'
p19
aS'>'
p20
aS'='
p21
aS'7'
p22
aS'&&'
p23
ag12
aS'memcmp'
p24
ag6
aS'variable_1'
p25
aS'->'
p26
aS'variable_3'
p27
aS','
p28
aS'"'
p29
aS'Annodex'
p30
ag29
ag28
ag22
ag10
ag10
aS'if'
p31
ag6
aS'variable_1'
p32
aS'->'
p33
aS'variable_2'
p34
ag20
ag21
ag22
aS'&&'
p35
ag12
aS'memcmp'
p36
ag6
aS'variable_1'
p37
aS'->'
p38
aS'variable_3'
p39
ag28
ag29
aS'AnxData'
p40
ag29
ag28
ag22
ag10
ag10
aS'if'
p41
ag6
aS'variable_4'
p42
aS'->'
p43
aS'variable_5'
p44
aS'.'
p45
aS'variable_6'
p46
aS'=='
p47
aS'variable_7'
p48
aS'&&'
p49
aS'variable_1'
p50
aS'->'
p51
aS'variable_3'
p52
aS'['
p53
aS'0'
p54
aS']'
p55
aS'&'
p56
aS'variable_8'
p57
ag10
aS'if'
p58
ag6
aS'variable_4'
p59
aS'->'
p60
aS'variable_9'
p61
ag10
aS'bool'
p62
aS'variable_10'
p63
aS';'
p64
aS'variable_4'
p65
aS'->'
p66
aS'variable_11'
p67
aS'++'
p68
ag64
aS'switch'
p69
ag6
aS'variable_4'
p70
aS'->'
p71
aS'variable_5'
p72
ag45
aS'variable_6'
p73
ag10
aS'if'
p74
ag6
aS'variable_4'
p75
aS'->'
p76
aS'variable_11'
p77
aS'=='
p78
aS'3'
p79
ag10
aS'variable_4'
p80
aS'->'
p81
aS'variable_9'
p82
ag21
ag54
ag64
aS'variable_10'
p83
ag21
aS'true'
p84
ag64
aS'if'
p85
ag6
ag12
aS'variable_4'
p86
aS'->'
p87
aS'variable_5'
p88
ag45
aS'variable_12'
p89
ag45
aS'variable_13'
p90
aS'&&'
p91
aS'variable_4'
p92
aS'->'
p93
aS'variable_11'
p94
aS'=='
p95
aS'2'
p96
ag10
aS'variable_4'
p97
aS'->'
p98
aS'variable_9'
p99
ag21
ag54
ag64
aS'if'
p100
ag6
aS'variable_4'
p101
aS'->'
p102
aS'variable_5'
p103
ag45
aS'variable_12'
p104
ag45
aS'variable_13'
p105
ag10
aS'variable_4'
p106
aS'->'
p107
aS'variable_9'
p108
ag21
ag54
ag64
aS'if'
p109
ag6
aS'variable_1'
p110
aS'->'
p111
aS'variable_2'
p112
ag20
ag21
aS'9'
p113
ag10
aS'variable_1'
p114
aS'->'
p115
aS'variable_3'
p116
aS'+='
p117
ag113
ag64
aS'variable_1'
p118
aS'->'
p119
aS'variable_2'
p120
aS'-='
p121
ag113
ag64
aS'variable_10'
p122
ag21
aS'false'
p123
ag64
aS'if'
p124
ag6
aS'variable_4'
p125
aS'->'
p126
aS'variable_11'
p127
aS'=='
p128
aS'variable_4'
p129
aS'->'
p130
aS'variable_14'
p131
ag10
aS'variable_4'
p132
aS'->'
p133
aS'variable_9'
p134
ag21
ag54
ag64
aS'variable_10'
p135
ag21
aS'true'
p136
ag64
aS'variable_4'
p137
aS'->'
p138
aS'variable_9'
p139
ag21
ag54
ag64
aS'variable_10'
p140
ag21
aS'false'
p141
ag64
aS'if'
p142
ag6
ag12
aS'variable_10'
p143
ag10
aS'variable_4'
p144
aS'->'
p145
aS'variable_15'
p146
aS'+='
p147
aS'variable_1'
p148
aS'->'
p149
aS'variable_2'
p150
ag64
aS'variable_4'
p151
aS'->'
p152
aS'variable_16'
p153
ag21
aS'realloc'
p154
ag6
aS'variable_4'
p155
aS'->'
p156
aS'variable_16'
p157
ag28
aS'variable_4'
p158
aS'->'
p159
aS'variable_15'
p160
ag10
ag64
aS'if'
p161
ag6
aS'variable_4'
p162
aS'->'
p163
aS'variable_16'
p164
ag10
aS'variable_4'
p165
aS'->'
p166
aS'variable_15'
p167
ag21
ag54
ag64
aS'variable_4'
p168
aS'->'
p169
aS'variable_16'
p170
ag21
aS'NULL'
p171
ag64
aS'if'
p172
ag6
aS'func_1'
p173
ag6
ag56
aS'variable_4'
p174
aS'->'
p175
aS'variable_15'
p176
ag28
ag56
aS'variable_4'
p177
aS'->'
p178
aS'variable_16'
p179
ag28
aS'variable_1'
p180
aS'->'
p181
aS'variable_2'
p182
ag28
aS'variable_1'
p183
aS'->'
p184
aS'variable_3'
p185
ag10
ag10
aS'variable_4'
p186
aS'->'
p187
aS'variable_15'
p188
ag21
ag54
ag64
aS'variable_4'
p189
aS'->'
p190
aS'variable_16'
p191
ag21
aS'NULL'
p192
ag64
aS'if'
p193
ag6
aS'variable_4'
p194
aS'->'
p195
aS'variable_15'
p196
ag20
ag54
ag10
aS'if'
p197
ag6
ag12
aS'variable_4'
p198
aS'->'
p199
aS'variable_9'
p200
ag10
aS'variable_4'
p201
aS'->'
p202
aS'variable_5'
p203
ag45
aS'variable_17'
p204
ag21
aS'variable_4'
p205
aS'->'
p206
aS'variable_15'
p207
ag64
aS'variable_4'
p208
aS'->'
p209
aS'variable_5'
p210
ag45
aS'variable_18'
p211
ag21
aS'malloc'
p212
ag6
aS'variable_4'
p213
aS'->'
p214
aS'variable_15'
p215
ag10
ag64
aS'if'
p216
ag6
aS'variable_4'
p217
aS'->'
p218
aS'variable_5'
p219
ag45
aS'variable_18'
p220
ag10
aS'memcpy'
p221
ag6
aS'variable_4'
p222
aS'->'
p223
aS'variable_5'
p224
ag45
aS'variable_18'
p225
ag28
aS'variable_4'
p226
aS'->'
p227
aS'variable_16'
p228
ag28
aS'variable_4'
p229
aS'->'
p230
aS'variable_15'
p231
ag10
ag64
aS'variable_4'
p232
aS'->'
p233
aS'variable_5'
p234
ag45
aS'variable_17'
p235
ag21
ag54
ag64
aS'if'
p236
ag6
aS'func_2'
p237
ag6
aS'variable_19'
p238
ag28
aS'variable_4'
p239
ag10
ag10
aS'func_3'
p240
ag6
aS'variable_19'
p241
aS'->'
p242
aS'variable_20'
p243
ag28
aS'variable_21'
p244
ag28
aS'variable_4'
p245
aS'->'
p246
aS'variable_22'
p247
ag28
ag56
aS'variable_4'
p248
aS'->'
p249
aS'variable_5'
p250
ag10
ag64
aS'if'
p251
ag6
aS'variable_4'
p252
aS'->'
p253
aS'variable_15'
p254
ag20
ag54
ag10
aS'func_4'
p255
ag6
aS'variable_19'
p256
ag28
aS'variable_4'
p257
aS'->'
p258
aS'variable_5'
p259
ag45
aS'variable_6'
p260
ag28
aS'variable_4'
p261
aS'->'
p262
aS'variable_16'
p263
ag28
aS'variable_4'
p264
aS'->'
p265
aS'variable_15'
p266
ag10
ag64
aS'if'
p267
ag6
aS'variable_4'
p268
aS'->'
p269
aS'variable_5'
p270
ag45
aS'variable_6'
p271
aS'=='
p272
aS'variable_23'
p273
aS'||'
p274
aS'variable_4'
p275
aS'->'
p276
aS'variable_5'
p277
ag45
aS'variable_6'
p278
aS'=='
p279
aS'variable_24'
p280
aS'||'
p281
aS'variable_4'
p282
aS'->'
p283
aS'variable_5'
p284
ag45
aS'variable_6'
p285
aS'=='
p286
aS'variable_25'
p287
ag10
aS'if'
p288
ag6
aS'variable_4'
p289
aS'->'
p290
aS'variable_26'
p291
ag20
ag21
ag54
ag10
aS'if'
p292
ag6
aS'variable_4'
p293
aS'->'
p294
aS'variable_27'
p295
aS'=='
p296
ag54
aS'&&'
p297
aS'variable_4'
p298
aS'->'
p299
aS'variable_26'
p300
ag20
ag79
ag8
aS'variable_28'
p301
ag10
aS'func_5'
p302
ag6
aS'variable_19'
p303
aS'->'
p304
aS'variable_20'
p305
ag28
aS'variable_29'
p306
ag28
aS'variable_30'
p307
aS'+'
p308
aS'variable_4'
p309
aS'->'
p310
aS'variable_26'
p311
ag10
ag64
aS'variable_4'
p312
aS'->'
p313
aS'variable_27'
p314
ag21
aS'variable_4'
p315
aS'->'
p316
aS'variable_26'
p317
ag64
aS'variable_31'
p318
ag21
aS'variable_4'
p319
aS'->'
p320
aS'variable_26'
p321
ag64
aS'variable_32'
p322
ag21
aS'variable_4'
p323
aS'->'
p324
aS'variable_33'
p325
ag64
aS'func_6'
p326
ag6
aS'variable_4'
p327
ag28
aS'variable_1'
p328
ag10
ag64
aS'if'
p329
ag6
aS'variable_4'
p330
aS'->'
p331
aS'variable_5'
p332
ag45
aS'variable_34'
p333
aS'!='
p334
aS'variable_35'
p335
ag10
aS'if'
p336
ag6
aS'variable_4'
p337
aS'->'
p338
aS'variable_26'
p339
ag20
ag21
ag54
ag10
aS'if'
p340
ag6
aS'variable_4'
p341
aS'->'
p342
aS'variable_27'
p343
aS'=='
p344
ag54
aS'&&'
p345
aS'variable_4'
p346
aS'->'
p347
aS'variable_26'
p348
ag20
ag79
ag8
aS'variable_28'
p349
ag10
aS'func_7'
p350
ag6
aS'variable_19'
p351
aS'->'
p352
aS'variable_20'
p353
ag28
aS'variable_29'
p354
ag28
aS'variable_30'
p355
ag308
aS'variable_4'
p356
aS'->'
p357
aS'variable_26'
p358
ag10
ag64
aS'if'
p359
ag6
aS'variable_4'
p360
aS'->'
p361
aS'variable_5'
p362
ag45
aS'variable_6'
p363
aS'!='
p364
aS'variable_23'
p365
aS'&&'
p366
aS'variable_4'
p367
aS'->'
p368
aS'variable_5'
p369
ag45
aS'variable_6'
p370
aS'!='
p371
aS'variable_24'
p372
aS'&&'
p373
aS'variable_4'
p374
aS'->'
p375
aS'variable_5'
p376
ag45
aS'variable_6'
p377
aS'!='
p378
aS'variable_25'
p379
aS'&&'
p380
aS'variable_4'
p381
aS'->'
p382
aS'variable_26'
p383
ag20
ag21
ag54
ag10
aS'variable_4'
p384
aS'->'
p385
aS'variable_27'
p386
ag21
aS'variable_4'
p387
aS'->'
p388
aS'variable_26'
p389
ag64
aS'variable_31'
p390
ag21
aS'variable_4'
p391
aS'->'
p392
aS'variable_26'
p393
ag64
aS'if'
p394
ag6
aS'variable_4'
p395
aS'->'
p396
aS'variable_36'
p397
ag20
ag54
ag10
aS'variable_4'
p398
aS'->'
p399
aS'variable_36'
p400
aS'--'
p401
ag64
aS'if'
p402
ag6
aS'variable_31'
p403
aS'=='
p404
ag54
ag10
aS'if'
p405
ag6
aS'variable_31'
p406
aS'=='
p407
aS'-'
p408
aS'1'
p409
aS'&&'
p410
aS'variable_32'
p411
aS'=='
p412
ag54
ag10
aS'if'
p413
ag6
aS'variable_31'
p414
aS'=='
p415
ag408
ag409
ag10
aS'if'
p416
ag6
aS'variable_4'
p417
aS'->'
p418
aS'variable_5'
p419
ag45
aS'variable_34'
p420
aS'=='
p421
aS'variable_37'
p422
ag10
aS'variable_38'
p423
aS'->'
p424
aS'variable_39'
p425
ag21
aS'variable_38'
p426
aS'->'
p427
aS'variable_31'
p428
ag21
aS'variable_31'
p429
ag64
aS'if'
p430
ag6
aS'variable_4'
p431
aS'->'
p432
aS'variable_5'
p433
ag45
aS'variable_34'
p434
aS'=='
p435
aS'variable_35'
p436
ag10
aS'variable_38'
p437
aS'->'
p438
aS'variable_39'
p439
ag21
aS'variable_38'
p440
aS'->'
p441
aS'variable_31'
p442
ag21
aS'variable_31'
p443
ag64
aS'variable_38'
p444
aS'->'
p445
aS'variable_40'
p446
ag21
ag54
ag64
aS'if'
p447
ag6
aS'variable_4'
p448
aS'->'
p449
aS'variable_5'
p450
ag45
aS'variable_6'
p451
aS'=='
p452
aS'variable_41'
p453
ag10
aS'variable_38'
p454
aS'->'
p455
aS'variable_39'
p456
ag21
aS'variable_38'
p457
aS'->'
p458
aS'variable_31'
p459
ag21
aS'variable_31'
p460
ag64
aS'if'
p461
ag6
ag6
aS'variable_1'
p462
aS'->'
p463
aS'variable_42'
p464
ag56
ag6
ag6
ag409
aS'<<'
p465
aS'variable_4'
p466
aS'->'
p467
aS'variable_43'
p468
ag10
ag408
ag409
ag10
ag10
aS'=='
p469
ag54
ag10
aS'variable_38'
p470
aS'->'
p471
aS'variable_44'
p472
aS'|'
p473
ag21
aS'variable_45'
p474
ag64
aS'if'
p475
ag6
aS'variable_4'
p476
aS'->'
p477
aS'variable_5'
p478
ag45
aS'variable_6'
p479
aS'=='
p480
aS'variable_46'
p481
ag10
aS'variable_38'
p482
aS'->'
p483
aS'variable_39'
p484
ag21
aS'variable_4'
p485
aS'->'
p486
aS'variable_26'
p487
ag64
aS'variable_38'
p488
aS'->'
p489
aS'variable_31'
p490
ag21
aS'variable_47'
p491
ag64
aS'variable_38'
p492
aS'->'
p493
aS'variable_31'
p494
ag21
aS'variable_48'
p495
ag8
aS'func_8'
p496
ag6
aS'1000000'
p497
ag10
aS'/'
p498
aS'variable_4'
p499
aS'->'
p500
aS'variable_49'
p501
ag498
ag96
ag64
aS'variable_38'
p502
aS'->'
p503
aS'variable_39'
p504
ag21
aS'variable_31'
p505
ag64
aS'variable_38'
p506
aS'->'
p507
aS'variable_31'
p508
ag21
aS'variable_47'
p509
ag64
aS'if'
p510
ag6
aS'variable_4'
p511
aS'->'
p512
aS'variable_5'
p513
ag45
aS'variable_6'
p514
aS'!='
p515
aS'variable_23'
p516
aS'&&'
p517
aS'variable_4'
p518
aS'->'
p519
aS'variable_5'
p520
ag45
aS'variable_6'
p521
aS'!='
p522
aS'variable_24'
p523
aS'&&'
p524
aS'variable_4'
p525
aS'->'
p526
aS'variable_5'
p527
ag45
aS'variable_6'
p528
aS'!='
p529
aS'variable_25'
p530
aS'&&'
p531
aS'variable_4'
p532
aS'->'
p533
aS'variable_5'
p534
ag45
aS'variable_6'
p535
aS'!='
p536
aS'variable_50'
p537
aS'&&'
p538
aS'variable_4'
p539
aS'->'
p540
aS'variable_5'
p541
ag45
aS'variable_6'
p542
aS'!='
p543
aS'variable_41'
p544
aS'&&'
p545
aS'variable_4'
p546
aS'->'
p547
aS'variable_5'
p548
ag45
aS'variable_6'
p549
aS'!='
p550
aS'variable_51'
p551
aS'&&'
p552
aS'variable_4'
p553
aS'->'
p554
aS'variable_5'
p555
ag45
aS'variable_6'
p556
aS'!='
p557
aS'variable_46'
p558
aS'&&'
p559
aS'variable_4'
p560
aS'->'
p561
aS'variable_5'
p562
ag45
aS'variable_6'
p563
aS'!='
p564
aS'variable_52'
p565
ag10
aS'if'
p566
ag6
aS'variable_4'
p567
aS'->'
p568
aS'variable_5'
p569
ag45
aS'variable_6'
p570
aS'=='
p571
aS'variable_7'
p572
ag10
aS'variable_38'
p573
aS'->'
p574
aS'variable_40'
p575
ag21
ag6
aS'variable_53'
p576
ag10
aS'variable_54'
p577
ag8
aS'1000'
p578
ag64
aS'if'
p579
ag6
aS'variable_38'
p580
aS'->'
p581
aS'variable_55'
p582
ag20
ag21
ag6
aS'unsigned'
p583
aS'int'
p584
ag10
aS'variable_56'
p585
ag10
aS'variable_38'
p586
aS'->'
p587
aS'variable_55'
p588
aS'-='
p589
aS'variable_56'
p590
ag64
aS'if'
p591
ag6
aS'variable_4'
p592
aS'->'
p593
aS'variable_5'
p594
ag45
aS'variable_6'
p595
aS'=='
p596
aS'variable_50'
p597
ag10
aS'func_9'
p598
ag6
aS'variable_19'
p599
ag28
ag29
aS'tarkin'
p600
aS'pts'
p601
aS':'
p602
aS'%'
p603
ag29
aS'variable_57'
p604
ag29
ag28
aS'granule'
p605
ag602
ag603
ag29
aS'variable_38'
p606
aS'->'
p607
aS'variable_31'
p608
ag28
aS'variable_38'
p609
aS'->'
p610
aS'variable_39'
p611
ag10
aS'memcpy'
p612
ag6
aS'variable_38'
p613
aS'->'
p614
aS'variable_58'
p615
ag28
aS'variable_1'
p616
aS'->'
p617
aS'variable_3'
p618
ag308
aS'variable_56'
p619
ag28
aS'variable_1'
p620
aS'->'
p621
aS'variable_2'
p622
ag408
aS'variable_56'
p623
ag10
ag64
aS'func_10'
p624
ag6
aS'variable_19'
p625
aS'->'
p626
aS'variable_20'
p627
ag28
aS'variable_4'
p628
aS'->'
p629
aS'variable_22'
p630
ag28
aS'variable_38'
p631
ag10
ag64
aaa(lp632
I0
aa(lp633
I323
aa(lp634
(lp635
S'main'
p636
aaa(lp637
S'711 /home/SySeVR/data/CVE_2012_3377_VULN_Ogg_DecodePacket.c malloc 114'
p638
aa.