(lp0
(lp1
(lp2
S'static'
p3
aS'void'
p4
aS'func_0'
p5
aS'('
p6
aS'variable_0'
p7
aS'*'
p8
aS'variable_1'
p9
aS')'
p10
aS'variable_2'
p11
ag8
aS'variable_3'
p12
aS';'
p13
aS'bool'
p14
aS'variable_4'
p15
ag13
aS'if'
p16
ag6
aS'!'
p17
aS'variable_1'
p18
aS'->'
p19
aS'variable_5'
p20
ag10
aS'if'
p21
ag6
aS'variable_1'
p22
aS'->'
p23
aS'variable_5'
p24
aS'>'
p25
aS'='
p26
aS'7'
p27
aS'&&'
p28
ag17
aS'memcmp'
p29
ag6
aS'variable_1'
p30
aS'->'
p31
aS'variable_6'
p32
aS','
p33
aS'"'
p34
aS'Annodex'
p35
ag34
ag33
ag27
ag10
ag10
aS'if'
p36
ag6
aS'variable_1'
p37
aS'->'
p38
aS'variable_5'
p39
ag25
ag26
ag27
aS'&&'
p40
ag17
aS'memcmp'
p41
ag6
aS'variable_1'
p42
aS'->'
p43
aS'variable_6'
p44
ag33
ag34
aS'AnxData'
p45
ag34
ag33
ag27
ag10
ag10
aS'if'
p46
ag6
aS'variable_7'
p47
aS'->'
p48
aS'variable_8'
p49
aS'.'
p50
aS'variable_9'
p51
aS'=='
p52
aS'variable_10'
p53
aS'&&'
p54
aS'variable_1'
p55
aS'->'
p56
aS'variable_6'
p57
aS'['
p58
aS'0'
p59
aS']'
p60
aS'&'
p61
aS'variable_11'
p62
ag10
aS'if'
p63
ag6
aS'variable_7'
p64
aS'->'
p65
aS'variable_12'
p66
ag10
aS'bool'
p67
aS'variable_13'
p68
ag13
aS'variable_7'
p69
aS'->'
p70
aS'variable_14'
p71
aS'++'
p72
ag13
aS'switch'
p73
ag6
aS'variable_7'
p74
aS'->'
p75
aS'variable_8'
p76
ag50
aS'variable_9'
p77
ag10
aS'if'
p78
ag6
aS'variable_7'
p79
aS'->'
p80
aS'variable_14'
p81
aS'=='
p82
aS'3'
p83
ag10
aS'variable_7'
p84
aS'->'
p85
aS'variable_12'
p86
ag26
ag59
ag13
aS'variable_13'
p87
ag26
aS'true'
p88
ag13
aS'if'
p89
ag6
ag17
aS'variable_7'
p90
aS'->'
p91
aS'variable_8'
p92
ag50
aS'variable_15'
p93
ag50
aS'variable_16'
p94
aS'&&'
p95
aS'variable_7'
p96
aS'->'
p97
aS'variable_14'
p98
aS'=='
p99
aS'2'
p100
ag10
aS'variable_7'
p101
aS'->'
p102
aS'variable_12'
p103
ag26
ag59
ag13
aS'if'
p104
ag6
aS'variable_7'
p105
aS'->'
p106
aS'variable_8'
p107
ag50
aS'variable_15'
p108
ag50
aS'variable_16'
p109
ag10
aS'variable_7'
p110
aS'->'
p111
aS'variable_12'
p112
ag26
ag59
ag13
aS'if'
p113
ag6
aS'variable_1'
p114
aS'->'
p115
aS'variable_5'
p116
ag25
ag26
aS'9'
p117
ag10
aS'variable_1'
p118
aS'->'
p119
aS'variable_6'
p120
aS'+='
p121
ag117
ag13
aS'variable_1'
p122
aS'->'
p123
aS'variable_5'
p124
aS'-='
p125
ag117
ag13
aS'variable_13'
p126
ag26
aS'false'
p127
ag13
aS'if'
p128
ag6
aS'variable_7'
p129
aS'->'
p130
aS'variable_14'
p131
aS'=='
p132
aS'variable_7'
p133
aS'->'
p134
aS'variable_17'
p135
ag10
aS'variable_7'
p136
aS'->'
p137
aS'variable_12'
p138
ag26
ag59
ag13
aS'variable_13'
p139
ag26
aS'true'
p140
ag13
aS'variable_7'
p141
aS'->'
p142
aS'variable_12'
p143
ag26
ag59
ag13
aS'variable_13'
p144
ag26
aS'false'
p145
ag13
aS'if'
p146
ag6
ag17
aS'variable_13'
p147
ag10
aS'variable_7'
p148
aS'->'
p149
aS'variable_18'
p150
aS'+='
p151
aS'variable_1'
p152
aS'->'
p153
aS'variable_5'
p154
ag13
aS'variable_7'
p155
aS'->'
p156
aS'variable_19'
p157
ag26
aS'realloc'
p158
ag6
aS'variable_7'
p159
aS'->'
p160
aS'variable_19'
p161
ag33
aS'variable_7'
p162
aS'->'
p163
aS'variable_18'
p164
ag10
ag13
aS'if'
p165
ag6
aS'variable_7'
p166
aS'->'
p167
aS'variable_19'
p168
ag10
aS'variable_7'
p169
aS'->'
p170
aS'variable_18'
p171
ag26
ag59
ag13
aS'variable_7'
p172
aS'->'
p173
aS'variable_19'
p174
ag26
aS'NULL'
p175
ag13
aS'if'
p176
ag6
aS'func_1'
p177
ag6
ag61
aS'variable_7'
p178
aS'->'
p179
aS'variable_18'
p180
ag33
ag61
aS'variable_7'
p181
aS'->'
p182
aS'variable_19'
p183
ag33
aS'variable_1'
p184
aS'->'
p185
aS'variable_5'
p186
ag33
aS'variable_1'
p187
aS'->'
p188
aS'variable_6'
p189
ag10
ag10
aS'variable_7'
p190
aS'->'
p191
aS'variable_18'
p192
ag26
ag59
ag13
aS'variable_7'
p193
aS'->'
p194
aS'variable_19'
p195
ag26
aS'NULL'
p196
ag13
aS'if'
p197
ag6
aS'variable_7'
p198
aS'->'
p199
aS'variable_18'
p200
ag25
ag59
ag10
aS'if'
p201
ag6
ag17
aS'variable_7'
p202
aS'->'
p203
aS'variable_12'
p204
ag10
aS'variable_7'
p205
aS'->'
p206
aS'variable_8'
p207
ag50
aS'variable_20'
p208
ag26
aS'variable_7'
p209
aS'->'
p210
aS'variable_18'
p211
ag13
aS'variable_7'
p212
aS'->'
p213
aS'variable_8'
p214
ag50
aS'variable_21'
p215
ag26
aS'malloc'
p216
ag6
aS'variable_7'
p217
aS'->'
p218
aS'variable_18'
p219
ag10
ag13
aS'if'
p220
ag6
aS'variable_7'
p221
aS'->'
p222
aS'variable_8'
p223
ag50
aS'variable_21'
p224
ag10
aS'variable_7'
p225
aS'->'
p226
aS'variable_8'
p227
ag50
aS'variable_20'
p228
ag26
ag59
ag13
aS'variable_4'
p229
ag26
aS'false'
p230
ag13
aS'if'
p231
ag6
aS'variable_7'
p232
aS'->'
p233
aS'variable_8'
p234
ag50
aS'variable_9'
p235
aS'=='
p236
aS'variable_22'
p237
aS'||'
p238
aS'variable_7'
p239
aS'->'
p240
aS'variable_8'
p241
ag50
aS'variable_9'
p242
aS'=='
p243
aS'variable_23'
p244
aS'||'
p245
aS'variable_7'
p246
aS'->'
p247
aS'variable_8'
p248
ag50
aS'variable_9'
p249
aS'=='
p250
aS'variable_24'
p251
ag10
aS'if'
p252
ag6
aS'variable_7'
p253
aS'->'
p254
aS'variable_25'
p255
ag25
ag26
ag59
ag10
aS'variable_7'
p256
aS'->'
p257
aS'variable_26'
p258
ag26
aS'variable_7'
p259
aS'->'
p260
aS'variable_25'
p261
ag13
aS'if'
p262
ag6
aS'variable_7'
p263
aS'->'
p264
aS'variable_8'
p265
ag50
aS'variable_9'
p266
aS'!='
p267
aS'variable_22'
p268
aS'&&'
p269
aS'variable_7'
p270
aS'->'
p271
aS'variable_8'
p272
ag50
aS'variable_9'
p273
aS'!='
p274
aS'variable_23'
p275
aS'&&'
p276
aS'variable_7'
p277
aS'->'
p278
aS'variable_8'
p279
ag50
aS'variable_9'
p280
aS'!='
p281
aS'variable_24'
p282
aS'&&'
p283
aS'variable_7'
p284
aS'->'
p285
aS'variable_25'
p286
ag25
ag26
ag59
ag10
aS'variable_7'
p287
aS'->'
p288
aS'variable_26'
p289
ag26
aS'variable_7'
p290
aS'->'
p291
aS'variable_25'
p292
ag13
aS'if'
p293
ag6
ag17
aS'variable_4'
p294
ag10
aS'if'
p295
ag6
aS'variable_1'
p296
aS'->'
p297
aS'variable_5'
p298
aS'<'
p299
ag26
ag59
ag10
aS'if'
p300
ag6
ag17
ag6
aS'variable_3'
p301
ag26
aS'func_2'
p302
ag6
aS'variable_27'
p303
ag33
aS'variable_1'
p304
aS'->'
p305
aS'variable_5'
p306
ag10
ag10
ag10
aS'if'
p307
ag6
aS'variable_7'
p308
aS'->'
p309
aS'variable_28'
p310
ag25
ag59
ag10
aS'variable_7'
p311
aS'->'
p312
aS'variable_28'
p313
aS'--'
p314
ag13
aS'if'
p315
ag6
aS'variable_7'
p316
aS'->'
p317
aS'variable_8'
p318
ag50
aS'variable_29'
p319
aS'=='
p320
aS'variable_30'
p321
ag10
aS'if'
p322
ag6
aS'variable_7'
p323
aS'->'
p324
aS'variable_8'
p325
ag50
aS'variable_29'
p326
aS'=='
p327
aS'variable_31'
p328
ag10
aS'if'
p329
ag6
aS'variable_7'
p330
aS'->'
p331
aS'variable_8'
p332
ag50
aS'variable_9'
p333
aS'=='
p334
aS'variable_32'
p335
ag10
aS'if'
p336
ag6
aS'variable_7'
p337
aS'->'
p338
aS'variable_8'
p339
ag50
aS'variable_9'
p340
aS'=='
p341
aS'variable_33'
p342
ag10
aS'ogg_int64_t'
p343
aS'variable_34'
p344
ag26
aS'variable_1'
p345
aS'->'
p346
aS'variable_35'
p347
aS'>>'
p348
aS'31'
p349
ag13
aS'ogg_int64_t'
p350
aS'variable_36'
p351
ag26
ag6
aS'variable_1'
p352
aS'->'
p353
aS'variable_35'
p354
aS'>>'
p355
ag117
ag10
ag61
aS'0x1fff'
p356
ag13
aS'uint64_t'
p357
aS'variable_37'
p358
ag26
aS'variable_34'
p359
aS'+'
p360
aS'variable_36'
p361
ag13
aS'variable_3'
p362
aS'->'
p363
aS'variable_38'
p364
ag26
aS'variable_37'
p365
ag8
aS'func_3'
p366
ag6
aS'1000000'
p367
ag10
aS'/'
p368
aS'variable_7'
p369
aS'->'
p370
aS'variable_39'
p371
ag368
ag100
ag13
aS'if'
p372
ag6
aS'variable_3'
p373
aS'->'
p374
aS'variable_40'
p375
ag25
ag26
ag6
aS'unsigned'
p376
aS'int'
p377
ag10
aS'variable_41'
p378
ag10
aS'variable_3'
p379
aS'->'
p380
aS'variable_40'
p381
aS'-='
p382
aS'variable_41'
p383
ag13
aS'memcpy'
p384
ag6
aS'variable_3'
p385
aS'->'
p386
aS'variable_42'
p387
ag33
aS'variable_1'
p388
aS'->'
p389
aS'variable_6'
p390
ag360
aS'variable_41'
p391
ag33
aS'variable_1'
p392
aS'->'
p393
aS'variable_5'
p394
aS'-'
p395
aS'variable_41'
p396
ag10
ag13
aS'func_4'
p397
ag6
aS'variable_27'
p398
aS'->'
p399
aS'variable_43'
p400
ag33
aS'variable_7'
p401
aS'->'
p402
aS'variable_44'
p403
ag33
aS'variable_3'
p404
ag10
ag13
aaa(lp405
I0
aa(lp406
I549
aa(lp407
(lp408
S'main'
p409
aaa(lp410
S'777 /home/SySeVR/data/CVE_2012_3377_VULN_Ogg_DecodePacket.c uint64_t u_pnum = dts + delay ; 242'
p411
aa.