(lp0
(lp1
(lp2
S'func_0'
p3
aS'('
p4
aS'variable_0'
p5
aS'*'
p6
aS'variable_1'
p7
aS','
p8
aS'guint'
p9
aS'variable_2'
p10
ag8
aS'variable_3'
p11
ag6
aS'variable_4'
p12
ag8
aS'int'
p13
aS'variable_5'
p14
aS')'
p15
aS'gint32'
p16
aS'variable_6'
p17
aS';'
p18
aS'guint'
p19
aS'variable_7'
p20
ag18
aS'variable_8'
p21
ag6
aS'variable_9'
p22
ag8
ag6
aS'variable_10'
p23
ag8
ag6
aS'variable_11'
p24
ag8
ag6
aS'variable_12'
p25
ag8
ag6
aS'variable_13'
p26
ag8
ag6
aS'variable_14'
p27
ag18
aS'variable_3'
p28
ag6
aS'variable_15'
p29
ag8
ag6
aS'variable_16'
p30
ag8
ag6
aS'variable_17'
p31
ag8
ag6
aS'variable_18'
p32
ag8
ag6
aS'variable_19'
p33
ag8
ag6
aS'variable_20'
p34
ag18
aS'variable_6'
p35
aS'='
p36
aS'func_1'
p37
ag4
aS'variable_1'
p38
ag8
aS'variable_2'
p39
ag15
ag18
aS'if'
p40
ag4
aS'variable_6'
p41
aS'=='
p42
aS'5'
p43
ag15
aS'variable_9'
p44
ag36
aS'func_2'
p45
ag4
aS'variable_4'
p46
ag8
aS'variable_5'
p47
ag8
aS'variable_1'
p48
ag8
aS'variable_2'
p49
ag8
aS'variable_6'
p50
ag8
aS'variable_21'
p51
ag15
ag18
aS'variable_15'
p52
ag36
aS'func_3'
p53
ag4
aS'variable_9'
p54
ag8
aS'variable_22'
p55
ag15
ag18
aS'variable_7'
p56
ag36
aS'variable_2'
p57
aS'+'
p58
aS'variable_6'
p59
ag18
aS'variable_2'
p60
aS'+='
p61
aS'4'
p62
ag18
aS'variable_10'
p63
ag36
aS'func_4'
p64
ag4
aS'variable_15'
p65
ag8
aS'variable_23'
p66
ag8
aS'variable_1'
p67
ag8
aS'variable_2'
p68
ag8
aS'variable_6'
p69
aS'-'
p70
ag43
ag8
aS'variable_21'
p71
ag15
ag18
aS'variable_16'
p72
ag36
aS'func_5'
p73
ag4
aS'variable_10'
p74
ag8
aS'variable_24'
p75
ag15
ag18
aS'gint'
p76
aS'variable_25'
p77
ag36
ag70
aS'1'
p78
ag18
aS'variable_26'
p79
ag36
aS'func_6'
p80
ag4
aS'variable_1'
p81
ag8
aS'variable_2'
p82
ag15
ag18
aS'variable_11'
p83
ag36
aS'func_7'
p84
ag4
aS'variable_16'
p85
ag8
aS'variable_27'
p86
ag8
aS'variable_1'
p87
ag8
aS'variable_2'
p88
ag58
ag78
ag8
aS'variable_25'
p89
ag70
ag78
ag8
aS'variable_28'
p90
aS'|'
p91
aS'variable_21'
p92
ag15
ag18
aS'variable_17'
p93
ag36
aS'func_8'
p94
ag4
aS'variable_11'
p95
ag8
aS'variable_29'
p96
ag15
ag18
aS'variable_2'
p97
aS'+='
p98
aS'variable_25'
p99
ag58
ag78
ag18
aS'switch'
p100
ag4
aS'variable_26'
p101
ag15
aS'variable_2'
p102
aS'+='
p103
aS'8'
p104
ag18
aS'variable_25'
p105
ag36
aS'func_9'
p106
ag4
aS'variable_1'
p107
ag8
aS'variable_2'
p108
ag15
ag18
aS'variable_2'
p109
aS'+='
p110
aS'variable_25'
p111
ag58
ag62
ag18
aS'variable_2'
p112
aS'+='
p113
aS'func_10'
p114
ag4
aS'variable_1'
p115
ag8
aS'variable_2'
p116
ag8
aS'variable_17'
p117
ag8
aS'variable_30'
p118
ag15
ag18
aS'variable_31'
p119
ag36
aS'func_11'
p120
ag4
aS'variable_1'
p121
ag8
aS'variable_2'
p122
ag15
ag18
aS'variable_2'
p123
aS'+='
p124
aS'variable_31'
p125
ag58
ag43
ag18
aS'variable_2'
p126
aS'+='
p127
aS'12'
p128
ag18
aS'variable_2'
p129
aS'+='
p130
ag78
ag18
aS'variable_2'
p131
aS'+='
p132
aS'variable_25'
p133
ag18
aS'variable_2'
p134
aS'+='
p135
aS'variable_25'
p136
ag18
aS'variable_25'
p137
ag36
aS'func_12'
p138
ag4
aS'variable_1'
p139
ag8
aS'variable_2'
p140
ag15
ag18
aS'variable_2'
p141
aS'+='
p142
aS'variable_25'
p143
ag18
aS'variable_2'
p144
aS'+='
p145
aS'12'
p146
ag18
aS'variable_31'
p147
ag36
aS'func_13'
p148
ag4
aS'variable_1'
p149
ag8
aS'variable_2'
p150
ag15
ag18
aS'variable_2'
p151
aS'+='
p152
ag62
ag18
aS'variable_25'
p153
ag36
aS'func_14'
p154
ag4
aS'variable_1'
p155
ag8
aS'variable_2'
p156
ag15
ag18
aS'variable_2'
p157
aS'+='
p158
aS'variable_25'
p159
ag58
ag62
ag18
aS'variable_32'
p160
ag36
aS'variable_31'
p161
ag70
ag4
aS'variable_25'
p162
ag58
ag104
ag15
ag18
aS'variable_14'
p163
ag36
aS'func_15'
p164
ag4
aS'variable_17'
p165
ag8
aS'variable_33'
p166
ag8
aS'variable_1'
p167
ag8
aS'variable_2'
p168
ag8
aS'variable_32'
p169
ag8
aS'variable_21'
p170
ag15
ag18
aS'variable_20'
p171
ag36
aS'func_16'
p172
ag4
aS'variable_14'
p173
ag8
aS'variable_34'
p174
ag15
ag18
aS'variable_2'
p175
aS'+='
p176
aS'func_17'
p177
ag4
aS'variable_1'
p178
ag8
aS'variable_2'
p179
ag8
aS'variable_20'
p180
ag8
aS'variable_30'
p181
ag15
ag18
aS'variable_2'
p182
aS'+='
p183
ag62
ag18
aS'variable_2'
p184
aS'+='
p185
ag104
ag18
aS'while'
p186
ag4
aS'variable_2'
p187
aS'<'
p188
aS'variable_7'
p189
ag70
ag78
ag15
aS'func_18'
p190
ag4
aS'variable_0'
p191
ag6
aS'variable_1'
p192
ag8
aS'guint'
p193
aS'variable_2'
p194
ag8
aS'variable_3'
p195
ag6
aS'variable_4'
p196
ag8
aS'int'
p197
aS'variable_5'
p198
ag15
aS'gint32'
p199
aS'variable_6'
p200
ag18
aS'guint'
p201
aS'variable_7'
p202
ag18
aS'variable_8'
p203
ag6
aS'variable_9'
p204
ag8
ag6
aS'variable_10'
p205
ag8
ag6
aS'variable_11'
p206
ag8
ag6
aS'variable_12'
p207
ag8
ag6
aS'variable_13'
p208
ag8
ag6
aS'variable_14'
p209
ag18
aS'variable_3'
p210
ag6
aS'variable_15'
p211
ag8
ag6
aS'variable_16'
p212
ag8
ag6
aS'variable_17'
p213
ag8
ag6
aS'variable_18'
p214
ag8
ag6
aS'variable_19'
p215
ag8
ag6
aS'variable_20'
p216
ag18
aS'variable_6'
p217
ag36
aS'func_19'
p218
ag4
aS'variable_1'
p219
ag8
aS'variable_2'
p220
ag15
ag18
aS'if'
p221
ag4
aS'variable_6'
p222
aS'=='
p223
ag43
ag15
aS'variable_9'
p224
ag36
aS'func_20'
p225
ag4
aS'variable_4'
p226
ag8
aS'variable_5'
p227
ag8
aS'variable_1'
p228
ag8
aS'variable_2'
p229
ag8
aS'variable_6'
p230
ag8
aS'variable_21'
p231
ag15
ag18
aS'variable_15'
p232
ag36
aS'func_21'
p233
ag4
aS'variable_9'
p234
ag8
aS'variable_22'
p235
ag15
ag18
aS'variable_7'
p236
ag36
aS'variable_2'
p237
ag58
aS'variable_6'
p238
ag18
aS'variable_2'
p239
aS'+='
p240
ag62
ag18
aS'variable_10'
p241
ag36
aS'func_22'
p242
ag4
aS'variable_15'
p243
ag8
aS'variable_23'
p244
ag8
aS'variable_1'
p245
ag8
aS'variable_2'
p246
ag8
aS'variable_6'
p247
ag70
ag43
ag8
aS'variable_21'
p248
ag15
ag18
aS'variable_16'
p249
ag36
aS'func_23'
p250
ag4
aS'variable_10'
p251
ag8
aS'variable_24'
p252
ag15
ag18
aS'gint'
p253
aS'variable_25'
p254
ag36
ag70
ag78
ag18
aS'variable_26'
p255
ag36
aS'func_24'
p256
ag4
aS'variable_1'
p257
ag8
aS'variable_2'
p258
ag15
ag18
aS'variable_11'
p259
ag36
aS'func_25'
p260
ag4
aS'variable_16'
p261
ag8
aS'variable_27'
p262
ag8
aS'variable_1'
p263
ag8
aS'variable_2'
p264
ag58
ag78
ag8
aS'variable_25'
p265
ag70
ag78
ag8
aS'variable_28'
p266
ag91
aS'variable_21'
p267
ag15
ag18
aS'variable_17'
p268
ag36
aS'func_26'
p269
ag4
aS'variable_11'
p270
ag8
aS'variable_29'
p271
ag15
ag18
aS'variable_2'
p272
aS'+='
p273
aS'variable_25'
p274
ag58
ag78
ag18
aS'switch'
p275
ag4
aS'variable_26'
p276
ag15
aS'variable_2'
p277
aS'+='
p278
ag104
ag18
aS'variable_25'
p279
ag36
aS'func_27'
p280
ag4
aS'variable_1'
p281
ag8
aS'variable_2'
p282
ag15
ag18
aS'variable_2'
p283
aS'+='
p284
aS'variable_25'
p285
ag58
ag62
ag18
aS'variable_2'
p286
aS'+='
p287
aS'func_28'
p288
ag4
aS'variable_1'
p289
ag8
aS'variable_2'
p290
ag8
aS'variable_17'
p291
ag8
aS'variable_30'
p292
ag15
ag18
aS'variable_31'
p293
ag36
aS'func_29'
p294
ag4
aS'variable_1'
p295
ag8
aS'variable_2'
p296
ag15
ag18
aS'variable_2'
p297
aS'+='
p298
aS'variable_31'
p299
ag58
ag43
ag18
aS'variable_2'
p300
aS'+='
p301
aS'12'
p302
ag18
aS'variable_2'
p303
aS'+='
p304
ag78
ag18
aS'variable_2'
p305
aS'+='
p306
aS'variable_25'
p307
ag18
aS'variable_2'
p308
aS'+='
p309
aS'variable_25'
p310
ag18
aS'variable_25'
p311
ag36
aS'func_30'
p312
ag4
aS'variable_1'
p313
ag8
aS'variable_2'
p314
ag15
ag18
aS'variable_2'
p315
aS'+='
p316
aS'variable_25'
p317
ag18
aS'variable_2'
p318
aS'+='
p319
aS'12'
p320
ag18
aS'variable_31'
p321
ag36
aS'func_31'
p322
ag4
aS'variable_1'
p323
ag8
aS'variable_2'
p324
ag15
ag18
aS'variable_2'
p325
aS'+='
p326
ag62
ag18
aS'variable_25'
p327
ag36
aS'func_32'
p328
ag4
aS'variable_1'
p329
ag8
aS'variable_2'
p330
ag15
ag18
aS'variable_2'
p331
aS'+='
p332
aS'variable_25'
p333
ag58
ag62
ag18
aS'variable_32'
p334
ag36
aS'variable_31'
p335
ag70
ag4
aS'variable_25'
p336
ag58
ag104
ag15
ag18
aS'variable_14'
p337
ag36
aS'func_33'
p338
ag4
aS'variable_17'
p339
ag8
aS'variable_33'
p340
ag8
aS'variable_1'
p341
ag8
aS'variable_2'
p342
ag8
aS'variable_32'
p343
ag8
aS'variable_21'
p344
ag15
ag18
aS'variable_20'
p345
ag36
aS'func_34'
p346
ag4
aS'variable_14'
p347
ag8
aS'variable_34'
p348
ag15
ag18
aS'variable_2'
p349
aS'+='
p350
aS'func_35'
p351
ag4
aS'variable_1'
p352
ag8
aS'variable_2'
p353
ag8
aS'variable_20'
p354
ag8
aS'variable_30'
p355
ag15
ag18
aS'variable_2'
p356
aS'+='
p357
ag62
ag18
aS'variable_2'
p358
aS'+='
p359
ag104
ag18
aS'while'
p360
ag4
aS'variable_2'
p361
ag188
aS'variable_7'
p362
ag70
ag78
ag15
aS'func_36'
p363
ag4
aS'variable_0'
p364
ag6
aS'variable_1'
p365
ag8
aS'guint'
p366
aS'variable_2'
p367
ag8
aS'variable_3'
p368
ag6
aS'variable_4'
p369
ag8
aS'int'
p370
aS'variable_5'
p371
ag15
aS'gint32'
p372
aS'variable_6'
p373
ag18
aS'guint'
p374
aS'variable_7'
p375
ag18
aS'variable_8'
p376
ag6
aS'variable_9'
p377
ag8
ag6
aS'variable_10'
p378
ag8
ag6
aS'variable_11'
p379
ag8
ag6
aS'variable_12'
p380
ag8
ag6
aS'variable_13'
p381
ag8
ag6
aS'variable_14'
p382
ag18
aS'variable_3'
p383
ag6
aS'variable_15'
p384
ag8
ag6
aS'variable_16'
p385
ag8
ag6
aS'variable_17'
p386
ag8
ag6
aS'variable_18'
p387
ag8
ag6
aS'variable_19'
p388
ag8
ag6
aS'variable_20'
p389
ag18
aS'variable_6'
p390
ag36
aS'func_37'
p391
ag4
aS'variable_1'
p392
ag8
aS'variable_2'
p393
ag15
ag18
aS'if'
p394
ag4
aS'variable_6'
p395
aS'=='
p396
ag43
ag15
aS'variable_9'
p397
ag36
aS'func_38'
p398
ag4
aS'variable_4'
p399
ag8
aS'variable_5'
p400
ag8
aS'variable_1'
p401
ag8
aS'variable_2'
p402
ag8
aS'variable_6'
p403
ag8
aS'variable_21'
p404
ag15
ag18
aS'variable_15'
p405
ag36
aS'func_39'
p406
ag4
aS'variable_9'
p407
ag8
aS'variable_22'
p408
ag15
ag18
aS'variable_7'
p409
ag36
aS'variable_2'
p410
ag58
aS'variable_6'
p411
ag18
aS'variable_2'
p412
aS'+='
p413
ag62
ag18
aS'variable_10'
p414
ag36
aS'func_40'
p415
ag4
aS'variable_15'
p416
ag8
aS'variable_23'
p417
ag8
aS'variable_1'
p418
ag8
aS'variable_2'
p419
ag8
aS'variable_6'
p420
ag70
ag43
ag8
aS'variable_21'
p421
ag15
ag18
aS'variable_16'
p422
ag36
aS'func_41'
p423
ag4
aS'variable_10'
p424
ag8
aS'variable_24'
p425
ag15
ag18
aS'gint'
p426
aS'variable_25'
p427
ag36
ag70
ag78
ag18
aS'variable_26'
p428
ag36
aS'func_42'
p429
ag4
aS'variable_1'
p430
ag8
aS'variable_2'
p431
ag15
ag18
aS'variable_11'
p432
ag36
aS'func_43'
p433
ag4
aS'variable_16'
p434
ag8
aS'variable_27'
p435
ag8
aS'variable_1'
p436
ag8
aS'variable_2'
p437
ag58
ag78
ag8
aS'variable_25'
p438
ag70
ag78
ag8
aS'variable_28'
p439
ag91
aS'variable_21'
p440
ag15
ag18
aS'variable_17'
p441
ag36
aS'func_44'
p442
ag4
aS'variable_11'
p443
ag8
aS'variable_29'
p444
ag15
ag18
aS'variable_2'
p445
aS'+='
p446
aS'variable_25'
p447
ag58
ag78
ag18
aS'switch'
p448
ag4
aS'variable_26'
p449
ag15
aS'variable_2'
p450
aS'+='
p451
ag104
ag18
aS'variable_25'
p452
ag36
aS'func_45'
p453
ag4
aS'variable_1'
p454
ag8
aS'variable_2'
p455
ag15
ag18
aS'variable_2'
p456
aS'+='
p457
aS'variable_25'
p458
ag58
ag62
ag18
aS'variable_2'
p459
aS'+='
p460
aS'func_46'
p461
ag4
aS'variable_1'
p462
ag8
aS'variable_2'
p463
ag8
aS'variable_17'
p464
ag8
aS'variable_30'
p465
ag15
ag18
aS'variable_31'
p466
ag36
aS'func_47'
p467
ag4
aS'variable_1'
p468
ag8
aS'variable_2'
p469
ag15
ag18
aS'variable_2'
p470
aS'+='
p471
aS'variable_31'
p472
ag58
ag43
ag18
aS'variable_2'
p473
aS'+='
p474
aS'12'
p475
ag18
aS'variable_2'
p476
aS'+='
p477
ag78
ag18
aS'variable_2'
p478
aS'+='
p479
aS'variable_25'
p480
ag18
aS'variable_2'
p481
aS'+='
p482
aS'variable_25'
p483
ag18
aS'variable_25'
p484
ag36
aS'func_48'
p485
ag4
aS'variable_1'
p486
ag8
aS'variable_2'
p487
ag15
ag18
aS'variable_2'
p488
aS'+='
p489
aS'variable_25'
p490
ag18
aS'variable_2'
p491
aS'+='
p492
aS'12'
p493
ag18
aS'variable_31'
p494
ag36
aS'func_49'
p495
ag4
aS'variable_1'
p496
ag8
aS'variable_2'
p497
ag15
ag18
aS'variable_2'
p498
aS'+='
p499
ag62
ag18
aS'variable_25'
p500
ag36
aS'func_50'
p501
ag4
aS'variable_1'
p502
ag8
aS'variable_2'
p503
ag15
ag18
aS'variable_2'
p504
aS'+='
p505
aS'variable_25'
p506
ag58
ag62
ag18
aS'variable_32'
p507
ag36
aS'variable_31'
p508
ag70
ag4
aS'variable_25'
p509
ag58
ag104
ag15
ag18
aS'variable_14'
p510
ag36
aS'func_51'
p511
ag4
aS'variable_17'
p512
ag8
aS'variable_33'
p513
ag8
aS'variable_1'
p514
ag8
aS'variable_2'
p515
ag8
aS'variable_32'
p516
ag8
aS'variable_21'
p517
ag15
ag18
aS'variable_20'
p518
ag36
aS'func_52'
p519
ag4
aS'variable_14'
p520
ag8
aS'variable_34'
p521
ag15
ag18
aS'variable_2'
p522
aS'+='
p523
aS'func_53'
p524
ag4
aS'variable_1'
p525
ag8
aS'variable_2'
p526
ag8
aS'variable_20'
p527
ag8
aS'variable_30'
p528
ag15
ag18
aS'variable_2'
p529
aS'+='
p530
ag62
ag18
aS'variable_2'
p531
aS'+='
p532
ag104
ag18
aS'while'
p533
ag4
aS'variable_2'
p534
ag188
aS'variable_7'
p535
ag70
ag78
ag15
aS'func_54'
p536
ag4
aS'variable_0'
p537
ag6
aS'variable_1'
p538
ag8
aS'guint'
p539
aS'variable_2'
p540
ag8
aS'variable_3'
p541
ag6
aS'variable_4'
p542
ag8
aS'int'
p543
aS'variable_5'
p544
ag15
aS'gint32'
p545
aS'variable_6'
p546
ag18
aS'guint'
p547
aS'variable_7'
p548
ag18
aS'variable_6'
p549
ag36
aS'func_55'
p550
ag4
aS'variable_1'
p551
ag8
aS'variable_2'
p552
ag15
ag18
aS'if'
p553
ag4
aS'variable_6'
p554
aS'=='
p555
ag43
ag15
aS'variable_7'
p556
ag36
aS'variable_2'
p557
ag58
aS'variable_6'
p558
ag18
aS'while'
p559
ag4
aS'variable_2'
p560
ag188
aS'variable_7'
p561
ag70
ag78
ag15
aaa(lp562
I0
aa(lp563
I105
aa(lp564
(lp565
S'main'
p566
aaa(lp567
S'320 /home/SySeVR/data/CVE_2012_4287_VULN_dissect_bson_document.c final_offset = offset + document_length 22'
p568
aa.