(lp0
(lp1
(lp2
S'static'
p3
aS'void'
p4
aS'func_0'
p5
aS'('
p6
aS'unsigned'
p7
aS'variable_0'
p8
aS','
p9
aS'unsigned'
p10
aS'variable_1'
p11
aS')'
p12
aS'unsigned'
p13
aS'variable_2'
p14
ag9
aS'variable_3'
p15
aS';'
p16
aS'static'
p17
aS'int'
p18
aS'variable_4'
p19
aS'='
p20
aS'-'
p21
aS'1'
p22
ag16
aS'variable_2'
p23
ag20
aS'variable_0'
p24
ag16
aS'while'
p25
ag6
aS'variable_2'
p26
aS'!='
p27
aS'variable_1'
p28
ag12
aS'if'
p29
ag6
aS'variable_4'
p30
aS'<'
p31
aS'0'
p32
aS'&&'
p33
ag6
ag6
aS'variable_1'
p34
ag21
aS'variable_2'
p35
ag12
aS'>'
p36
aS'2'
p37
ag12
ag12
aS'char'
p38
aS'variable_5'
p39
aS'['
p40
aS'variable_6'
p41
aS'+'
p42
ag22
aS']'
p43
ag16
aS'unsigned'
p44
aS'variable_7'
p45
ag16
aS'for'
p46
ag6
aS'variable_7'
p47
ag20
ag32
ag16
aS'variable_7'
p48
ag31
ag6
ag6
aS'variable_1'
p49
ag21
aS'variable_2'
p50
ag12
ag12
aS'&&'
p51
ag6
aS'variable_7'
p52
ag31
aS'variable_6'
p53
ag12
ag16
aS'variable_7'
p54
aS'++'
p55
ag12
aS'variable_5'
p56
ag40
aS'variable_7'
p57
ag43
ag20
aS'func_1'
p58
ag6
aS'variable_2'
p59
ag42
aS'variable_7'
p60
ag12
ag16
aS'variable_5'
p61
ag40
aS'variable_7'
p62
ag43
ag20
aS"'"
p63
aS'\\'
p64
ag32
ag63
ag16
aS'variable_2'
p65
aS'+='
p66
aS'func_2'
p67
ag6
ag6
aS'const'
p68
aS'char'
p69
aS'*'
p70
ag12
aS'&'
p71
aS'variable_5'
p72
ag9
ag71
aS'variable_4'
p73
ag9
aS'NULL'
p74
ag12
ag16
aS'variable_3'
p75
ag20
aS'variable_2'
p76
ag16
aS'while'
p77
ag6
aS'variable_2'
p78
aS'!='
p79
aS'variable_1'
p80
ag12
aS'char'
p81
aS'variable_8'
p82
ag20
aS'func_3'
p83
ag6
aS'variable_2'
p84
ag12
ag16
aS'variable_2'
p85
aS'++'
p86
ag16
aS'if'
p87
ag6
aS'variable_8'
p88
aS'=='
p89
ag63
ag64
aS'n'
p90
ag63
ag12
aS'func_4'
p91
ag6
aS'variable_3'
p92
ag9
aS'variable_2'
p93
ag9
aS'variable_4'
p94
ag12
ag16
aS'variable_4'
p95
ag20
ag21
ag22
ag16
aS'variable_3'
p96
ag20
aS'variable_2'
p97
ag16
aS'func_5'
p98
ag6
aS'variable_3'
p99
ag9
aS'variable_1'
p100
ag9
aS'variable_4'
p101
ag12
ag16
aaa(lp102
I0
aa(lp103
I94
aa(lp104
(lp105
S'main'
p106
aaa(lp107
S'491 /home/SySeVR/data/CVE_2013_1772_PATCHED_call_console_drivers.c buf_prefix [ i ] = LOG_BUF ( cur_index + i ) 19'
p108
aa.