(lp0
(lp1
(lp2
S'static'
p3
aS'int'
p4
aS'func_0'
p5
aS'('
p6
aS'variable_0'
p7
aS'*'
p8
aS'variable_1'
p9
aS','
p10
aS'void'
p11
ag8
aS'variable_2'
p12
ag10
aS'variable_3'
p13
ag8
aS'variable_4'
p14
aS')'
p15
aS'const'
p16
aS'uint8_t'
p17
ag8
aS'variable_5'
p18
aS'='
p19
aS'variable_4'
p20
aS'->'
p21
aS'variable_2'
p22
aS';'
p23
aS'int'
p24
aS'variable_6'
p25
ag19
aS'variable_4'
p26
aS'->'
p27
aS'variable_7'
p28
ag23
aS'int'
p29
aS'variable_8'
p30
ag23
aS'const'
p31
aS'uint8_t'
p32
ag8
aS'variable_9'
p33
ag23
aS'const'
p34
aS'uint8_t'
p35
ag8
aS'variable_10'
p36
ag23
aS'uint32_t'
p37
aS'variable_11'
p38
ag19
aS'-'
p39
aS'1'
p40
ag23
aS'if'
p41
ag6
aS'variable_6'
p42
aS'=='
p43
aS'0'
p44
ag15
aS'variable_10'
p45
ag19
aS'variable_5'
p46
ag23
aS'variable_9'
p47
ag19
aS'variable_5'
p48
aS'+'
p49
aS'variable_6'
p50
ag23
aS'variable_10'
p51
ag19
aS'func_1'
p52
ag6
aS'variable_10'
p53
ag10
aS'variable_9'
p54
ag10
aS'&'
p55
aS'variable_11'
p56
ag15
ag23
aS'if'
p57
ag6
aS'variable_11'
p58
ag55
aS'0xFFFFFE00'
p59
ag15
aS'variable_8'
p60
ag19
ag6
aS'variable_9'
p61
ag39
aS'variable_10'
p62
ag15
ag8
aS'8'
p63
ag23
aS'func_2'
p64
ag6
ag55
aS'variable_12'
p65
aS'->'
p66
aS'variable_13'
p67
ag10
aS'variable_10'
p68
ag10
aS'variable_8'
p69
ag15
ag23
aS'func_3'
p70
ag6
ag55
aS'variable_12'
p71
aS'->'
p72
aS'variable_13'
p73
ag10
aS'variable_10'
p74
ag10
aS'variable_8'
p75
ag15
ag23
aS'func_4'
p76
ag6
ag55
aS'variable_12'
p77
aS'->'
p78
aS'variable_13'
p79
ag10
aS'variable_10'
p80
ag10
aS'variable_8'
p81
ag15
ag23
aa(lp82
S'static'
p83
aS'int'
p84
aS'func_0'
p85
ag6
aS'variable_0'
p86
ag8
aS'variable_1'
p87
ag10
aS'void'
p88
ag8
aS'variable_2'
p89
ag10
aS'variable_3'
p90
ag8
aS'variable_4'
p91
ag15
aS'const'
p92
aS'uint8_t'
p93
ag8
aS'variable_5'
p94
ag19
aS'variable_4'
p95
aS'->'
p96
aS'variable_2'
p97
ag23
aS'int'
p98
aS'variable_6'
p99
ag19
aS'variable_4'
p100
aS'->'
p101
aS'variable_7'
p102
ag23
aS'const'
p103
aS'uint8_t'
p104
ag8
aS'variable_8'
p105
ag23
aS'if'
p106
ag6
aS'variable_6'
p107
aS'=='
p108
ag44
ag15
aS'variable_8'
p109
ag19
aS'variable_5'
p110
ag49
aS'variable_6'
p111
ag23
aS'variable_9'
p112
ag19
aS'func_1'
p113
ag6
aS'variable_9'
p114
ag10
aS'variable_8'
p115
ag10
ag55
aS'variable_10'
p116
ag15
ag23
aS'return'
p117
aS'func_2'
p118
ag6
ag44
ag10
aS'variable_9'
p119
ag39
aS'variable_5'
p120
ag39
aS'variable_11'
p121
aS'->'
p122
aS'variable_12'
p123
aS'.'
p124
aS'variable_13'
p125
ag15
ag23
aS'variable_14'
p126
ag19
ag6
aS'variable_8'
p127
ag39
aS'variable_9'
p128
ag15
ag8
ag63
ag23
aS'func_3'
p129
ag6
ag55
aS'variable_11'
p130
aS'->'
p131
aS'variable_15'
p132
ag10
aS'variable_9'
p133
ag10
aS'variable_14'
p134
ag15
ag23
aS'func_4'
p135
ag6
ag55
aS'variable_11'
p136
aS'->'
p137
aS'variable_15'
p138
ag10
aS'variable_9'
p139
ag10
aS'variable_14'
p140
ag15
ag23
aS'func_5'
p141
ag6
ag55
aS'variable_11'
p142
aS'->'
p143
aS'variable_15'
p144
ag10
aS'variable_9'
p145
ag10
aS'variable_14'
p146
ag15
ag23
aaa(lp147
I1
aI0
aa(lp148
I93
aI47
aa(lp149
(lp150
S'main'
p151
aa(lp152
g151
aaa(lp153
S'274 /home/SySeVR/data/CVE_2011_3973_VULN_cavs_decode_frame.c input_size = ( buf_end - buf_ptr ) * 8 29'
p154
aS'275 /home/SySeVR/data/CVE_2011_3973_VULN_cavs_decode_frame.c buf_end = buf + buf_size 24'
p155
aa.