(lp0
(lp1
(lp2
S'static'
p3
aS'int'
p4
aS'func_0'
p5
aS'('
p6
aS'unsigned'
p7
aS'long'
p8
aS'variable_0'
p9
aS')'
p10
aS'struct'
p11
aS'variable_1'
p12
aS'*'
p13
aS'variable_2'
p14
aS'='
p15
aS'func_1'
p16
ag6
aS'variable_3'
p17
aS','
p18
aS'struct'
p19
aS'variable_1'
p20
ag18
aS'variable_3'
p21
ag10
aS'struct'
p22
aS'variable_4'
p23
ag13
aS'variable_5'
p24
ag15
aS'NULL'
p25
ag18
ag13
aS'variable_6'
p26
ag15
aS'NULL'
p27
aS';'
p28
aS'struct'
p29
aS'variable_7'
p30
ag13
aS'variable_8'
p31
ag15
aS'variable_9'
p32
ag28
aS'dma_addr_t'
p33
aS'variable_10'
p34
ag18
aS'variable_11'
p35
ag28
aS'u32'
p36
aS'variable_12'
p37
ag18
aS'variable_13'
p38
ag18
aS'variable_14'
p39
ag28
aS'int'
p40
aS'variable_15'
p41
ag18
aS'variable_16'
p42
ag18
aS'variable_17'
p43
ag28
aS'int'
p44
aS'variable_18'
p45
ag18
aS'variable_19'
p46
ag18
aS'variable_20'
p47
ag18
aS'variable_21'
p48
ag18
aS'variable_22'
p49
ag28
aS'variable_20'
p50
ag15
aS'variable_8'
p51
aS'->'
p52
aS'variable_23'
p53
aS'/'
p54
aS'variable_2'
p55
aS'->'
p56
aS'variable_3'
p57
aS'.'
p58
aS'variable_21'
p59
ag28
aS'variable_21'
p60
ag15
aS'max'
p61
ag6
aS'variable_2'
p62
aS'->'
p63
aS'variable_3'
p64
ag58
aS'variable_21'
p65
ag18
ag6
aS'size_t'
p66
ag10
aS'8'
p67
ag10
ag28
aS'variable_13'
p68
ag15
aS'func_2'
p69
ag6
aS'variable_21'
p70
ag18
aS'sizeof'
p71
ag6
ag13
aS'variable_5'
p72
ag10
ag10
ag28
aS'variable_18'
p73
ag15
aS'variable_0'
p74
aS'>>'
p75
aS'variable_24'
p76
ag28
aS'variable_19'
p77
ag15
aS'variable_0'
p78
aS'&'
p79
aS'~'
p80
aS'variable_25'
p81
ag28
aS'variable_22'
p82
ag15
aS'variable_8'
p83
aS'->'
p84
aS'variable_26'
p85
ag54
aS'variable_20'
p86
ag28
aS'for'
p87
ag6
aS'variable_15'
p88
ag15
aS'0'
p89
ag28
aS'variable_15'
p90
aS'<'
p91
aS'variable_20'
p92
ag28
aS'variable_15'
p93
aS'++'
p94
ag10
aS'variable_12'
p95
ag15
aS'func_3'
p96
ag6
aS'variable_22'
p97
aS'+'
p98
aS'variable_19'
p99
ag18
aS'variable_27'
p100
ag10
ag98
aS'1'
p101
ag28
aS'variable_5'
p102
ag15
aS'func_4'
p103
ag6
ag79
aS'variable_2'
p104
aS'->'
p105
aS'variable_28'
p106
ag18
aS'variable_12'
p107
ag98
aS'variable_13'
p108
ag18
ag79
aS'variable_10'
p109
ag10
ag28
aS'if'
p110
ag6
aS'variable_5'
p111
aS'=='
p112
aS'NULL'
p113
ag10
aS'variable_5'
p114
aS'->'
p115
aS'variable_29'
p116
ag15
aS'func_5'
p117
ag6
aS'variable_30'
p118
aS'|'
p119
aS'variable_31'
p120
ag10
ag28
aS'if'
p121
ag6
aS'variable_8'
p122
aS'->'
p123
aS'variable_32'
p124
aS'&&'
p125
aS'variable_15'
p126
aS'=='
p127
ag89
ag10
aS'variable_5'
p128
aS'->'
p129
aS'variable_29'
p130
ag119
ag15
aS'func_6'
p131
ag6
aS'variable_33'
p132
ag10
ag28
aS'variable_5'
p133
aS'->'
p134
aS'variable_34'
p135
ag15
aS'func_7'
p136
ag6
aS'variable_21'
p137
ag10
ag28
aS'variable_5'
p138
aS'->'
p139
aS'variable_35'
p140
ag15
aS'variable_5'
p141
aS'->'
p142
aS'variable_34'
p143
ag28
aS'variable_5'
p144
aS'->'
p145
aS'variable_36'
p146
ag15
ag89
ag28
aS'variable_5'
p147
aS'->'
p148
aS'variable_37'
p149
ag15
aS'func_8'
p150
ag6
aS'variable_10'
p151
ag98
ag6
aS'variable_12'
p152
ag13
aS'sizeof'
p153
ag6
ag13
aS'variable_5'
p154
ag10
ag10
ag10
ag28
aS'variable_14'
p155
ag15
aS'variable_22'
p156
ag28
aS'for'
p157
ag6
aS'variable_16'
p158
ag15
ag101
ag28
aS'variable_16'
p159
ag91
aS'variable_12'
p160
ag28
aS'variable_16'
p161
aS'++'
p162
ag10
aS'variable_6'
p163
ag15
aS'variable_5'
p164
ag98
aS'variable_16'
p165
ag28
aS'variable_6'
p166
aS'->'
p167
aS'variable_29'
p168
ag15
aS'func_9'
p169
ag6
aS'variable_30'
p170
ag119
aS'variable_31'
p171
ag10
ag28
aS'if'
p172
ag6
aS'variable_19'
p173
ag98
aS'variable_14'
p174
ag91
aS'variable_27'
p175
ag10
aS'variable_17'
p176
ag15
aS'variable_14'
p177
ag28
aS'variable_17'
p178
ag15
aS'variable_27'
p179
aS'-'
p180
aS'variable_19'
p181
ag28
aS'variable_6'
p182
aS'->'
p183
aS'variable_34'
p184
ag15
aS'func_10'
p185
ag6
aS'variable_17'
p186
ag10
ag28
aS'variable_6'
p187
aS'->'
p188
aS'variable_35'
p189
ag15
aS'variable_6'
p190
aS'->'
p191
aS'variable_34'
p192
ag28
aS'variable_6'
p193
aS'->'
p194
aS'variable_36'
p195
ag15
ag89
ag28
aS'variable_11'
p196
ag15
aS'func_11'
p197
ag6
aS'variable_38'
p198
aS'->'
p199
aS'variable_39'
p200
aS'['
p201
aS'variable_18'
p202
aS']'
p203
ag10
ag28
aS'variable_6'
p204
aS'->'
p205
aS'variable_37'
p206
ag15
aS'func_12'
p207
ag6
aS'variable_11'
p208
ag98
aS'variable_19'
p209
ag10
ag28
aS'variable_19'
p210
ag15
ag6
aS'variable_19'
p211
ag98
aS'variable_17'
p212
ag10
ag79
ag80
aS'variable_25'
p213
ag28
aS'variable_14'
p214
aS'-='
p215
aS'variable_17'
p216
ag28
aS'if'
p217
ag6
aS'variable_19'
p218
aS'=='
p219
ag89
ag10
aS'variable_18'
p220
aS'++'
p221
ag28
aS'variable_6'
p222
aS'->'
p223
aS'variable_29'
p224
ag15
aS'func_13'
p225
ag6
aS'variable_30'
p226
ag119
aS'variable_40'
p227
ag119
aS'variable_41'
p228
ag10
ag28
aS'variable_6'
p229
aS'->'
p230
aS'variable_29'
p231
ag119
ag15
aS'func_14'
p232
ag6
aS'variable_42'
p233
ag10
ag28
aa(lp234
S'static'
p235
aS'int'
p236
aS'func_0'
p237
ag6
aS'unsigned'
p238
aS'long'
p239
aS'variable_0'
p240
ag10
aS'struct'
p241
aS'variable_1'
p242
ag13
aS'variable_2'
p243
ag15
aS'func_1'
p244
ag6
aS'variable_3'
p245
ag18
aS'struct'
p246
aS'variable_1'
p247
ag18
aS'variable_3'
p248
ag10
aS'struct'
p249
aS'variable_4'
p250
ag13
aS'variable_5'
p251
ag15
aS'NULL'
p252
ag18
ag13
aS'variable_6'
p253
ag15
aS'NULL'
p254
ag28
aS'struct'
p255
aS'variable_7'
p256
ag13
aS'variable_8'
p257
ag15
aS'variable_9'
p258
ag28
aS'dma_addr_t'
p259
aS'variable_10'
p260
ag18
aS'variable_11'
p261
ag28
aS'u32'
p262
aS'variable_12'
p263
ag18
aS'variable_13'
p264
ag18
aS'variable_14'
p265
ag28
aS'int'
p266
aS'variable_15'
p267
ag18
aS'variable_16'
p268
ag18
aS'variable_17'
p269
ag28
aS'int'
p270
aS'variable_18'
p271
ag18
aS'variable_19'
p272
ag18
aS'variable_20'
p273
ag18
aS'variable_21'
p274
ag18
aS'variable_22'
p275
ag28
aS'variable_20'
p276
ag15
aS'variable_8'
p277
aS'->'
p278
aS'variable_23'
p279
ag54
aS'variable_2'
p280
aS'->'
p281
aS'variable_3'
p282
ag58
aS'variable_21'
p283
ag28
aS'variable_21'
p284
ag15
aS'max'
p285
ag6
aS'variable_2'
p286
aS'->'
p287
aS'variable_3'
p288
ag58
aS'variable_21'
p289
ag18
ag6
aS'size_t'
p290
ag10
ag67
ag10
ag28
aS'variable_13'
p291
ag15
aS'func_2'
p292
ag6
aS'variable_21'
p293
ag18
aS'sizeof'
p294
ag6
ag13
aS'variable_5'
p295
ag10
ag10
ag28
aS'variable_19'
p296
ag15
aS'variable_0'
p297
ag79
ag80
aS'variable_24'
p298
ag28
aS'variable_22'
p299
ag15
aS'variable_8'
p300
aS'->'
p301
aS'variable_25'
p302
ag54
aS'variable_20'
p303
ag28
aS'for'
p304
ag6
aS'variable_15'
p305
ag15
ag89
ag28
aS'variable_15'
p306
ag91
aS'variable_20'
p307
ag28
aS'variable_15'
p308
aS'++'
p309
ag10
aS'variable_12'
p310
ag15
aS'func_3'
p311
ag6
aS'variable_22'
p312
ag98
aS'variable_19'
p313
ag18
aS'variable_26'
p314
ag10
ag98
ag101
ag28
aS'variable_5'
p315
ag15
aS'func_4'
p316
ag6
ag79
aS'variable_2'
p317
aS'->'
p318
aS'variable_27'
p319
ag18
aS'variable_12'
p320
ag98
aS'variable_13'
p321
ag18
ag79
aS'variable_10'
p322
ag10
ag28
aS'if'
p323
ag6
aS'variable_5'
p324
aS'=='
p325
aS'NULL'
p326
ag10
aS'variable_5'
p327
aS'->'
p328
aS'variable_28'
p329
ag15
aS'func_5'
p330
ag6
aS'variable_29'
p331
ag119
aS'variable_30'
p332
ag10
ag28
aS'if'
p333
ag6
aS'variable_8'
p334
aS'->'
p335
aS'variable_31'
p336
aS'&&'
p337
aS'variable_15'
p338
aS'=='
p339
ag89
ag10
aS'variable_5'
p340
aS'->'
p341
aS'variable_28'
p342
ag119
ag15
aS'func_6'
p343
ag6
aS'variable_32'
p344
ag10
ag28
aS'variable_5'
p345
aS'->'
p346
aS'variable_33'
p347
ag15
aS'func_7'
p348
ag6
aS'variable_21'
p349
ag10
ag28
aS'variable_5'
p350
aS'->'
p351
aS'variable_34'
p352
ag15
aS'variable_5'
p353
aS'->'
p354
aS'variable_33'
p355
ag28
aS'variable_5'
p356
aS'->'
p357
aS'variable_35'
p358
ag15
ag89
ag28
aS'variable_5'
p359
aS'->'
p360
aS'variable_36'
p361
ag15
aS'func_8'
p362
ag6
aS'variable_10'
p363
ag98
ag6
aS'variable_12'
p364
ag13
aS'sizeof'
p365
ag6
ag13
aS'variable_5'
p366
ag10
ag10
ag10
ag28
aS'variable_14'
p367
ag15
aS'variable_22'
p368
ag28
aS'for'
p369
ag6
aS'variable_16'
p370
ag15
ag101
ag28
aS'variable_16'
p371
ag91
aS'variable_12'
p372
ag28
aS'variable_16'
p373
aS'++'
p374
ag10
aS'variable_6'
p375
ag15
aS'variable_5'
p376
ag98
aS'variable_16'
p377
ag28
aS'variable_6'
p378
aS'->'
p379
aS'variable_28'
p380
ag15
aS'func_9'
p381
ag6
aS'variable_29'
p382
ag119
aS'variable_30'
p383
ag10
ag28
aS'if'
p384
ag6
aS'variable_19'
p385
ag98
aS'variable_14'
p386
ag91
aS'variable_26'
p387
ag10
aS'variable_17'
p388
ag15
aS'variable_14'
p389
ag28
aS'variable_17'
p390
ag15
aS'variable_26'
p391
ag180
aS'variable_19'
p392
ag28
aS'variable_6'
p393
aS'->'
p394
aS'variable_33'
p395
ag15
aS'func_10'
p396
ag6
aS'variable_17'
p397
ag10
ag28
aS'variable_6'
p398
aS'->'
p399
aS'variable_34'
p400
ag15
aS'variable_6'
p401
aS'->'
p402
aS'variable_33'
p403
ag28
aS'variable_6'
p404
aS'->'
p405
aS'variable_35'
p406
ag15
ag89
ag28
aS'variable_6'
p407
aS'->'
p408
aS'variable_36'
p409
ag15
aS'func_11'
p410
ag6
aS'variable_11'
p411
ag98
aS'variable_19'
p412
ag10
ag28
aS'variable_19'
p413
ag15
ag6
aS'variable_19'
p414
ag98
aS'variable_17'
p415
ag10
ag79
ag80
aS'variable_24'
p416
ag28
aS'variable_14'
p417
aS'-='
p418
aS'variable_17'
p419
ag28
aS'variable_6'
p420
aS'->'
p421
aS'variable_28'
p422
ag15
aS'func_12'
p423
ag6
aS'variable_29'
p424
ag119
aS'variable_37'
p425
ag119
aS'variable_38'
p426
ag10
ag28
aS'variable_6'
p427
aS'->'
p428
aS'variable_28'
p429
ag119
ag15
aS'func_13'
p430
ag6
aS'variable_39'
p431
ag10
ag28
aa(lp432
S'static'
p433
aS'int'
p434
aS'func_0'
p435
ag6
aS'unsigned'
p436
aS'long'
p437
aS'variable_0'
p438
ag10
aS'struct'
p439
aS'variable_1'
p440
ag13
aS'variable_2'
p441
ag15
aS'func_1'
p442
ag6
aS'variable_3'
p443
ag18
aS'struct'
p444
aS'variable_1'
p445
ag18
aS'variable_3'
p446
ag10
aS'struct'
p447
aS'variable_4'
p448
ag13
aS'variable_5'
p449
ag15
aS'NULL'
p450
ag18
ag13
aS'variable_6'
p451
ag15
aS'NULL'
p452
ag28
aS'struct'
p453
aS'variable_7'
p454
ag13
aS'variable_8'
p455
ag15
aS'variable_9'
p456
ag28
aS'dma_addr_t'
p457
aS'variable_10'
p458
ag18
aS'variable_11'
p459
ag28
aS'u32'
p460
aS'variable_12'
p461
ag18
aS'variable_13'
p462
ag18
aS'variable_14'
p463
ag28
aS'int'
p464
aS'variable_15'
p465
ag18
aS'variable_16'
p466
ag18
aS'variable_17'
p467
ag28
aS'int'
p468
aS'variable_18'
p469
ag18
aS'variable_19'
p470
ag18
aS'variable_20'
p471
ag18
aS'variable_21'
p472
ag18
aS'variable_22'
p473
ag28
aS'variable_20'
p474
ag15
aS'variable_8'
p475
aS'->'
p476
aS'variable_23'
p477
ag54
aS'variable_2'
p478
aS'->'
p479
aS'variable_3'
p480
ag58
aS'variable_21'
p481
ag28
aS'variable_21'
p482
ag15
aS'max'
p483
ag6
aS'variable_2'
p484
aS'->'
p485
aS'variable_3'
p486
ag58
aS'variable_21'
p487
ag18
ag6
aS'size_t'
p488
ag10
ag67
ag10
ag28
aS'variable_13'
p489
ag15
aS'func_2'
p490
ag6
aS'variable_21'
p491
ag18
aS'sizeof'
p492
ag6
ag13
aS'variable_5'
p493
ag10
ag10
ag28
aS'variable_19'
p494
ag15
aS'variable_0'
p495
ag79
ag80
aS'variable_24'
p496
ag28
aS'variable_22'
p497
ag15
aS'variable_8'
p498
aS'->'
p499
aS'variable_25'
p500
ag54
aS'variable_20'
p501
ag28
aS'for'
p502
ag6
aS'variable_15'
p503
ag15
ag89
ag28
aS'variable_15'
p504
ag91
aS'variable_20'
p505
ag28
aS'variable_15'
p506
aS'++'
p507
ag10
aS'variable_12'
p508
ag15
aS'func_3'
p509
ag6
aS'variable_22'
p510
ag98
aS'variable_19'
p511
ag18
aS'variable_26'
p512
ag10
ag98
ag101
ag28
aS'variable_5'
p513
ag15
aS'func_4'
p514
ag6
ag79
aS'variable_2'
p515
aS'->'
p516
aS'variable_27'
p517
ag18
aS'variable_12'
p518
ag98
aS'variable_13'
p519
ag18
ag79
aS'variable_10'
p520
ag10
ag28
aS'if'
p521
ag6
aS'variable_5'
p522
aS'=='
p523
aS'NULL'
p524
ag10
aS'variable_5'
p525
aS'->'
p526
aS'variable_28'
p527
ag15
aS'func_5'
p528
ag6
aS'variable_29'
p529
ag119
aS'variable_30'
p530
ag10
ag28
aS'if'
p531
ag6
aS'variable_8'
p532
aS'->'
p533
aS'variable_31'
p534
aS'&&'
p535
aS'variable_15'
p536
aS'=='
p537
ag89
ag10
aS'variable_5'
p538
aS'->'
p539
aS'variable_28'
p540
ag119
ag15
aS'func_6'
p541
ag6
aS'variable_32'
p542
ag10
ag28
aS'variable_5'
p543
aS'->'
p544
aS'variable_33'
p545
ag15
aS'func_7'
p546
ag6
aS'variable_21'
p547
ag10
ag28
aS'variable_5'
p548
aS'->'
p549
aS'variable_34'
p550
ag15
aS'variable_5'
p551
aS'->'
p552
aS'variable_33'
p553
ag28
aS'variable_5'
p554
aS'->'
p555
aS'variable_35'
p556
ag15
ag89
ag28
aS'variable_5'
p557
aS'->'
p558
aS'variable_36'
p559
ag15
aS'func_8'
p560
ag6
aS'variable_10'
p561
ag98
ag6
aS'variable_12'
p562
ag13
aS'sizeof'
p563
ag6
ag13
aS'variable_5'
p564
ag10
ag10
ag10
ag28
aS'variable_14'
p565
ag15
aS'variable_22'
p566
ag28
aS'for'
p567
ag6
aS'variable_16'
p568
ag15
ag101
ag28
aS'variable_16'
p569
ag91
aS'variable_12'
p570
ag28
aS'variable_16'
p571
aS'++'
p572
ag10
aS'variable_6'
p573
ag15
aS'variable_5'
p574
ag98
aS'variable_16'
p575
ag28
aS'variable_6'
p576
aS'->'
p577
aS'variable_28'
p578
ag15
aS'func_9'
p579
ag6
aS'variable_29'
p580
ag119
aS'variable_30'
p581
ag10
ag28
aS'if'
p582
ag6
aS'variable_19'
p583
ag98
aS'variable_14'
p584
ag91
aS'variable_26'
p585
ag10
aS'variable_17'
p586
ag15
aS'variable_14'
p587
ag28
aS'variable_17'
p588
ag15
aS'variable_26'
p589
ag180
aS'variable_19'
p590
ag28
aS'variable_6'
p591
aS'->'
p592
aS'variable_33'
p593
ag15
aS'func_10'
p594
ag6
aS'variable_17'
p595
ag10
ag28
aS'variable_6'
p596
aS'->'
p597
aS'variable_34'
p598
ag15
aS'variable_6'
p599
aS'->'
p600
aS'variable_33'
p601
ag28
aS'variable_6'
p602
aS'->'
p603
aS'variable_35'
p604
ag15
ag89
ag28
aS'variable_6'
p605
aS'->'
p606
aS'variable_36'
p607
ag15
aS'func_11'
p608
ag6
aS'variable_11'
p609
ag98
aS'variable_19'
p610
ag10
ag28
aS'variable_19'
p611
ag15
ag6
aS'variable_19'
p612
ag98
aS'variable_17'
p613
ag10
ag79
ag80
aS'variable_24'
p614
ag28
aS'variable_14'
p615
aS'-='
p616
aS'variable_17'
p617
ag28
aS'variable_6'
p618
aS'->'
p619
aS'variable_28'
p620
ag15
aS'func_12'
p621
ag6
aS'variable_29'
p622
ag119
aS'variable_37'
p623
ag119
aS'variable_38'
p624
ag10
ag28
aS'variable_6'
p625
aS'->'
p626
aS'variable_28'
p627
ag119
ag15
aS'func_13'
p628
ag6
aS'variable_39'
p629
ag10
ag28
aS'func_14'
p630
ag6
ag79
aS'variable_2'
p631
aS'->'
p632
aS'variable_27'
p633
ag18
aS'variable_5'
p634
ag18
aS'variable_12'
p635
ag18
aS'variable_13'
p636
ag10
ag28
aa(lp637
S'static'
p638
aS'int'
p639
aS'func_0'
p640
ag6
aS'unsigned'
p641
aS'long'
p642
aS'variable_0'
p643
ag10
aS'struct'
p644
aS'variable_1'
p645
ag13
aS'variable_2'
p646
ag15
aS'func_1'
p647
ag6
aS'variable_3'
p648
ag18
aS'struct'
p649
aS'variable_1'
p650
ag18
aS'variable_3'
p651
ag10
aS'struct'
p652
aS'variable_4'
p653
ag13
aS'variable_5'
p654
ag15
aS'NULL'
p655
ag18
ag13
aS'variable_6'
p656
ag15
aS'NULL'
p657
ag28
aS'struct'
p658
aS'variable_7'
p659
ag13
aS'variable_8'
p660
ag15
aS'variable_9'
p661
ag28
aS'u32'
p662
aS'variable_10'
p663
ag18
aS'variable_11'
p664
ag18
aS'variable_12'
p665
ag28
aS'int'
p666
aS'variable_13'
p667
ag18
aS'variable_14'
p668
ag18
aS'variable_15'
p669
ag28
aS'int'
p670
aS'variable_16'
p671
ag18
aS'variable_17'
p672
ag18
aS'variable_18'
p673
ag18
aS'variable_19'
p674
ag18
aS'variable_20'
p675
ag28
aS'variable_18'
p676
ag15
aS'variable_8'
p677
aS'->'
p678
aS'variable_21'
p679
ag54
aS'variable_2'
p680
aS'->'
p681
aS'variable_3'
p682
ag58
aS'variable_19'
p683
ag28
aS'variable_19'
p684
ag15
aS'max'
p685
ag6
aS'variable_2'
p686
aS'->'
p687
aS'variable_3'
p688
ag58
aS'variable_19'
p689
ag18
ag6
aS'size_t'
p690
ag10
ag67
ag10
ag28
aS'variable_11'
p691
ag15
aS'func_2'
p692
ag6
aS'variable_19'
p693
ag18
aS'sizeof'
p694
ag6
ag13
aS'variable_5'
p695
ag10
ag10
ag28
aS'variable_17'
p696
ag15
aS'variable_0'
p697
ag79
ag80
aS'variable_22'
p698
ag28
aS'variable_20'
p699
ag15
aS'variable_8'
p700
aS'->'
p701
aS'variable_23'
p702
ag54
aS'variable_18'
p703
ag28
aS'for'
p704
ag6
aS'variable_13'
p705
ag15
ag89
ag28
aS'variable_13'
p706
ag91
aS'variable_18'
p707
ag28
aS'variable_13'
p708
aS'++'
p709
ag10
aS'variable_10'
p710
ag15
aS'func_3'
p711
ag6
aS'variable_20'
p712
ag98
aS'variable_17'
p713
ag18
aS'variable_24'
p714
ag10
ag98
ag101
ag28
aS'variable_5'
p715
ag15
aS'func_4'
p716
ag6
ag79
aS'variable_2'
p717
aS'->'
p718
aS'variable_25'
p719
ag18
aS'variable_10'
p720
ag98
aS'variable_11'
p721
ag18
ag79
aS'variable_26'
p722
ag10
ag28
aS'if'
p723
ag6
aS'variable_5'
p724
aS'=='
p725
aS'NULL'
p726
ag10
aS'variable_5'
p727
aS'->'
p728
aS'variable_27'
p729
ag15
aS'func_5'
p730
ag6
aS'variable_28'
p731
ag119
aS'variable_29'
p732
ag10
ag28
aS'variable_5'
p733
aS'->'
p734
aS'variable_27'
p735
ag119
ag15
aS'func_6'
p736
ag6
aS'variable_30'
p737
ag10
ag28
aS'variable_5'
p738
aS'->'
p739
aS'variable_31'
p740
ag15
aS'func_7'
p741
ag6
aS'variable_19'
p742
ag10
ag28
aS'variable_5'
p743
aS'->'
p744
aS'variable_32'
p745
ag15
aS'variable_5'
p746
aS'->'
p747
aS'variable_31'
p748
ag28
aS'variable_5'
p749
aS'->'
p750
aS'variable_33'
p751
ag15
ag89
ag28
aS'variable_5'
p752
aS'->'
p753
aS'variable_34'
p754
ag15
aS'func_8'
p755
ag6
aS'variable_26'
p756
ag98
ag6
aS'variable_10'
p757
ag13
aS'sizeof'
p758
ag6
ag13
aS'variable_5'
p759
ag10
ag10
ag10
ag28
aS'variable_12'
p760
ag15
aS'variable_20'
p761
ag28
aS'for'
p762
ag6
aS'variable_14'
p763
ag15
ag101
ag28
aS'variable_14'
p764
ag91
aS'variable_10'
p765
ag28
aS'variable_14'
p766
aS'++'
p767
ag10
aS'variable_6'
p768
ag15
aS'variable_5'
p769
ag98
aS'variable_14'
p770
ag28
aS'variable_6'
p771
aS'->'
p772
aS'variable_27'
p773
ag15
aS'func_9'
p774
ag6
aS'variable_28'
p775
ag119
aS'variable_29'
p776
ag10
ag28
aS'if'
p777
ag6
aS'variable_17'
p778
ag98
aS'variable_12'
p779
ag91
aS'variable_24'
p780
ag10
aS'variable_15'
p781
ag15
aS'variable_12'
p782
ag28
aS'variable_15'
p783
ag15
aS'variable_24'
p784
ag180
aS'variable_17'
p785
ag28
aS'variable_6'
p786
aS'->'
p787
aS'variable_31'
p788
ag15
aS'func_10'
p789
ag6
aS'variable_15'
p790
ag10
ag28
aS'variable_6'
p791
aS'->'
p792
aS'variable_32'
p793
ag15
aS'variable_6'
p794
aS'->'
p795
aS'variable_31'
p796
ag28
aS'variable_6'
p797
aS'->'
p798
aS'variable_33'
p799
ag15
ag89
ag28
aS'variable_6'
p800
aS'->'
p801
aS'variable_34'
p802
ag15
aS'func_11'
p803
ag6
aS'variable_35'
p804
ag98
aS'variable_17'
p805
ag10
ag28
aS'variable_17'
p806
ag15
ag6
aS'variable_17'
p807
ag98
aS'variable_15'
p808
ag10
ag79
ag80
aS'variable_22'
p809
ag28
aS'variable_12'
p810
aS'-='
p811
aS'variable_15'
p812
ag28
aS'variable_6'
p813
aS'->'
p814
aS'variable_27'
p815
ag15
aS'func_12'
p816
ag6
aS'variable_28'
p817
ag119
aS'variable_36'
p818
ag119
aS'variable_37'
p819
ag10
ag28
aS'variable_6'
p820
aS'->'
p821
aS'variable_27'
p822
ag119
ag15
aS'func_13'
p823
ag6
aS'variable_38'
p824
ag10
ag28
aS'func_14'
p825
ag6
ag79
aS'variable_2'
p826
aS'->'
p827
aS'variable_25'
p828
ag18
aS'variable_5'
p829
ag18
aS'variable_10'
p830
ag18
aS'variable_11'
p831
ag10
ag28
aa(lp832
S'static'
p833
aS'int'
p834
aS'func_0'
p835
ag6
aS'unsigned'
p836
aS'long'
p837
aS'variable_0'
p838
ag10
aS'struct'
p839
aS'variable_1'
p840
ag13
aS'variable_2'
p841
ag15
aS'func_1'
p842
ag6
aS'variable_3'
p843
ag18
aS'struct'
p844
aS'variable_1'
p845
ag18
aS'variable_3'
p846
ag10
aS'struct'
p847
aS'variable_4'
p848
ag13
aS'variable_5'
p849
ag15
aS'variable_6'
p850
ag28
aS'int'
p851
aS'variable_7'
p852
ag18
aS'variable_8'
p853
ag18
aS'variable_9'
p854
ag18
aS'variable_10'
p855
ag18
aS'variable_11'
p856
ag28
aS'variable_9'
p857
ag15
aS'variable_5'
p858
aS'->'
p859
aS'variable_12'
p860
ag54
aS'variable_2'
p861
aS'->'
p862
aS'variable_3'
p863
ag58
aS'variable_10'
p864
ag28
aS'variable_11'
p865
ag15
aS'variable_5'
p866
aS'->'
p867
aS'variable_13'
p868
ag54
aS'variable_9'
p869
ag28
aS'variable_14'
p870
ag15
aS'func_2'
p871
ag6
aS'variable_11'
p872
ag98
aS'variable_8'
p873
ag18
aS'variable_15'
p874
ag10
ag98
ag101
ag28
aS'variable_16'
p875
ag15
aS'func_3'
p876
ag6
ag79
aS'variable_2'
p877
aS'->'
p878
aS'variable_17'
p879
ag18
aS'variable_14'
p880
ag98
aS'variable_18'
p881
ag18
ag79
aS'variable_19'
p882
ag10
ag28
aS'if'
p883
ag6
aS'variable_16'
p884
aS'=='
p885
aS'NULL'
p886
ag10
aS'variable_16'
p887
aS'->'
p888
aS'variable_20'
p889
ag15
aS'func_4'
p890
ag6
aS'variable_21'
p891
ag119
aS'variable_22'
p892
ag10
ag28
aS'variable_16'
p893
aS'->'
p894
aS'variable_20'
p895
ag119
ag15
aS'func_5'
p896
ag6
aS'variable_23'
p897
ag10
ag28
aS'variable_16'
p898
aS'->'
p899
aS'variable_24'
p900
ag15
aS'func_6'
p901
ag6
aS'variable_10'
p902
ag10
ag28
aS'variable_16'
p903
aS'->'
p904
aS'variable_25'
p905
ag15
aS'variable_16'
p906
aS'->'
p907
aS'variable_24'
p908
ag28
aS'variable_16'
p909
aS'->'
p910
aS'variable_26'
p911
ag15
ag89
ag28
aS'variable_16'
p912
aS'->'
p913
aS'variable_27'
p914
ag15
aS'func_7'
p915
ag6
aS'variable_19'
p916
ag98
ag6
aS'variable_14'
p917
ag13
aS'sizeof'
p918
ag6
ag13
aS'variable_16'
p919
ag10
ag10
ag10
ag28
aS'variable_28'
p920
ag15
aS'variable_11'
p921
ag28
aS'for'
p922
ag6
aS'variable_29'
p923
ag15
ag101
ag28
aS'variable_29'
p924
ag91
aS'variable_14'
p925
ag28
aS'variable_29'
p926
aS'++'
p927
ag10
aS'variable_30'
p928
ag15
aS'variable_16'
p929
ag98
aS'variable_29'
p930
ag28
aS'variable_30'
p931
aS'->'
p932
aS'variable_20'
p933
ag15
aS'func_8'
p934
ag6
aS'variable_21'
p935
ag119
aS'variable_22'
p936
ag10
ag28
aS'if'
p937
ag6
aS'variable_8'
p938
ag98
aS'variable_28'
p939
ag91
aS'variable_15'
p940
ag10
aS'variable_31'
p941
ag15
aS'variable_28'
p942
ag28
aS'variable_31'
p943
ag15
aS'variable_15'
p944
ag180
aS'variable_8'
p945
ag28
aS'variable_30'
p946
aS'->'
p947
aS'variable_24'
p948
ag15
aS'func_9'
p949
ag6
aS'variable_31'
p950
ag10
ag28
aS'variable_30'
p951
aS'->'
p952
aS'variable_25'
p953
ag15
aS'variable_30'
p954
aS'->'
p955
aS'variable_24'
p956
ag28
aS'variable_30'
p957
aS'->'
p958
aS'variable_26'
p959
ag15
ag89
ag28
aS'variable_30'
p960
aS'->'
p961
aS'variable_27'
p962
ag15
aS'func_10'
p963
ag6
aS'variable_32'
p964
ag98
aS'variable_8'
p965
ag10
ag28
aS'variable_8'
p966
ag15
ag6
aS'variable_8'
p967
ag98
aS'variable_31'
p968
ag10
ag79
ag80
aS'variable_33'
p969
ag28
aS'variable_28'
p970
aS'-='
p971
aS'variable_31'
p972
ag28
aS'if'
p973
ag6
aS'variable_8'
p974
aS'=='
p975
ag89
ag10
aS'variable_30'
p976
aS'->'
p977
aS'variable_20'
p978
ag15
aS'func_11'
p979
ag6
aS'variable_21'
p980
ag119
aS'variable_34'
p981
ag119
aS'variable_35'
p982
ag10
ag28
aS'variable_30'
p983
aS'->'
p984
aS'variable_20'
p985
ag119
ag15
aS'func_12'
p986
ag6
aS'variable_36'
p987
ag10
ag28
aS'func_13'
p988
ag6
ag79
aS'variable_2'
p989
aS'->'
p990
aS'variable_17'
p991
ag18
aS'variable_16'
p992
ag18
aS'variable_14'
p993
ag18
aS'variable_18'
p994
ag10
ag28
aa(lp995
S'static'
p996
aS'int'
p997
aS'func_0'
p998
ag6
aS'unsigned'
p999
aS'long'
p1000
aS'variable_0'
p1001
ag10
aS'struct'
p1002
aS'variable_1'
p1003
ag13
aS'variable_2'
p1004
ag15
aS'func_1'
p1005
ag6
aS'variable_3'
p1006
ag18
aS'struct'
p1007
aS'variable_1'
p1008
ag18
aS'variable_3'
p1009
ag10
aS'struct'
p1010
aS'variable_4'
p1011
ag13
aS'variable_5'
p1012
ag15
aS'variable_6'
p1013
ag28
aS'int'
p1014
aS'variable_7'
p1015
ag18
aS'variable_8'
p1016
ag18
aS'variable_9'
p1017
ag18
aS'variable_10'
p1018
ag18
aS'variable_11'
p1019
ag28
aS'variable_9'
p1020
ag15
aS'variable_5'
p1021
aS'->'
p1022
aS'variable_12'
p1023
ag54
aS'variable_2'
p1024
aS'->'
p1025
aS'variable_3'
p1026
ag58
aS'variable_10'
p1027
ag28
aS'variable_11'
p1028
ag15
aS'variable_5'
p1029
aS'->'
p1030
aS'variable_13'
p1031
ag54
aS'variable_9'
p1032
ag28
aS'for'
p1033
ag6
aS'variable_14'
p1034
ag15
ag89
ag28
aS'variable_14'
p1035
ag91
aS'variable_9'
p1036
ag28
aS'variable_14'
p1037
aS'++'
p1038
ag10
aS'variable_15'
p1039
ag15
aS'func_2'
p1040
ag6
aS'variable_11'
p1041
ag98
aS'variable_8'
p1042
ag18
aS'variable_16'
p1043
ag10
ag98
ag101
ag28
aS'variable_17'
p1044
ag15
aS'func_3'
p1045
ag6
ag79
aS'variable_2'
p1046
aS'->'
p1047
aS'variable_18'
p1048
ag18
aS'variable_15'
p1049
ag98
aS'variable_19'
p1050
ag18
ag79
aS'variable_20'
p1051
ag10
ag28
aS'if'
p1052
ag6
aS'variable_17'
p1053
aS'=='
p1054
aS'NULL'
p1055
ag10
aS'variable_17'
p1056
aS'->'
p1057
aS'variable_21'
p1058
ag15
aS'func_4'
p1059
ag6
aS'variable_22'
p1060
ag119
aS'variable_23'
p1061
ag10
ag28
aS'variable_17'
p1062
aS'->'
p1063
aS'variable_21'
p1064
ag119
ag15
aS'func_5'
p1065
ag6
aS'variable_24'
p1066
ag10
ag28
aS'variable_17'
p1067
aS'->'
p1068
aS'variable_25'
p1069
ag15
aS'func_6'
p1070
ag6
aS'variable_10'
p1071
ag10
ag28
aS'variable_17'
p1072
aS'->'
p1073
aS'variable_26'
p1074
ag15
aS'variable_17'
p1075
aS'->'
p1076
aS'variable_25'
p1077
ag28
aS'variable_17'
p1078
aS'->'
p1079
aS'variable_27'
p1080
ag15
ag89
ag28
aS'variable_17'
p1081
aS'->'
p1082
aS'variable_28'
p1083
ag15
aS'func_7'
p1084
ag6
aS'variable_20'
p1085
ag98
ag6
aS'variable_15'
p1086
ag13
aS'sizeof'
p1087
ag6
ag13
aS'variable_17'
p1088
ag10
ag10
ag10
ag28
aS'variable_29'
p1089
ag15
aS'variable_11'
p1090
ag28
aS'for'
p1091
ag6
aS'variable_30'
p1092
ag15
ag101
ag28
aS'variable_30'
p1093
ag91
aS'variable_15'
p1094
ag28
aS'variable_30'
p1095
aS'++'
p1096
ag10
aS'variable_31'
p1097
ag15
aS'variable_17'
p1098
ag98
aS'variable_30'
p1099
ag28
aS'variable_31'
p1100
aS'->'
p1101
aS'variable_21'
p1102
ag15
aS'func_8'
p1103
ag6
aS'variable_22'
p1104
ag119
aS'variable_23'
p1105
ag10
ag28
aS'if'
p1106
ag6
aS'variable_8'
p1107
ag98
aS'variable_29'
p1108
ag91
aS'variable_16'
p1109
ag10
aS'variable_32'
p1110
ag15
aS'variable_29'
p1111
ag28
aS'variable_32'
p1112
ag15
aS'variable_16'
p1113
ag180
aS'variable_8'
p1114
ag28
aS'variable_31'
p1115
aS'->'
p1116
aS'variable_25'
p1117
ag15
aS'func_9'
p1118
ag6
aS'variable_32'
p1119
ag10
ag28
aS'variable_31'
p1120
aS'->'
p1121
aS'variable_26'
p1122
ag15
aS'variable_31'
p1123
aS'->'
p1124
aS'variable_25'
p1125
ag28
aS'variable_31'
p1126
aS'->'
p1127
aS'variable_27'
p1128
ag15
ag89
ag28
aS'variable_31'
p1129
aS'->'
p1130
aS'variable_28'
p1131
ag15
aS'func_10'
p1132
ag6
aS'variable_33'
p1133
ag98
aS'variable_8'
p1134
ag10
ag28
aS'variable_8'
p1135
ag15
ag6
aS'variable_8'
p1136
ag98
aS'variable_32'
p1137
ag10
ag79
ag80
aS'variable_34'
p1138
ag28
aS'variable_29'
p1139
aS'-='
p1140
aS'variable_32'
p1141
ag28
aS'if'
p1142
ag6
aS'variable_8'
p1143
aS'=='
p1144
ag89
ag10
aS'variable_31'
p1145
aS'->'
p1146
aS'variable_21'
p1147
ag15
aS'func_11'
p1148
ag6
aS'variable_22'
p1149
ag119
aS'variable_35'
p1150
ag119
aS'variable_36'
p1151
ag10
ag28
aS'if'
p1152
ag6
aS'variable_5'
p1153
aS'->'
p1154
aS'variable_37'
p1155
aS'&&'
p1156
aS'variable_14'
p1157
aS'=='
p1158
aS'variable_9'
p1159
ag180
ag101
ag10
aS'variable_31'
p1160
aS'->'
p1161
aS'variable_21'
p1162
ag119
ag15
aS'func_12'
p1163
ag6
aS'variable_38'
p1164
ag10
ag28
aS'func_13'
p1165
ag6
ag79
aS'variable_2'
p1166
aS'->'
p1167
aS'variable_18'
p1168
ag18
aS'variable_17'
p1169
ag18
aS'variable_15'
p1170
ag18
aS'variable_19'
p1171
ag10
ag28
aaa(lp1172
I0
aI0
aI0
aI0
aI0
aI0
aa(lp1173
I354
aI273
aI248
aI166
aI61
aI53
aa(lp1174
(lp1175
S'main'
p1176
aa(lp1177
g1176
aa(lp1178
g1176
aa(lp1179
g1176
aa(lp1180
g1176
aa(lp1181
g1176
aaa(lp1182
S'100 /home/SySeVR/data/CVE_2009_4138_VULN_ohci_queue_iso_receive_packet_per_buffer.c pd -> data_address = cpu_to_le32 ( page_bus + offset ) 59'
p1183
aS'102 /home/SySeVR/data/CVE_2009_4138_VULN_ohci_queue_iso_receive_packet_per_buffer.c pd = d + j 46'
p1184
aS'103 /home/SySeVR/data/CVE_2009_4138_VULN_ohci_queue_iso_receive_packet_per_buffer.c d -> data_address = cpu_to_le32 ( d_bus + ( z * sizeof ( * d ) ) ) 42'
p1185
aS'104 /home/SySeVR/data/CVE_2009_4138_VULN_ohci_queue_iso_receive_packet_per_buffer.c d = context_get_descriptors ( & ctx -> context , z + header_z , & d_bus ) 30'
p1186
aS'106 /home/SySeVR/data/CVE_2009_4138_VULN_ohci_queue_iso_receive_packet_per_buffer.c payload_per_buffer = p -> payload_length / packet_count 25'
p1187
aS'107 /home/SySeVR/data/CVE_2009_4138_VULN_ohci_queue_iso_receive_packet_per_buffer.c packet_count = p -> header_length / ctx -> base . header_size 18'
p1188
aa.