(lp0
(lp1
(lp2
S'struct'
p3
aS'variable_0'
p4
aS'*'
p5
aS'func_0'
p6
aS'('
p7
aS'size_t'
p8
aS'variable_1'
p9
aS','
p10
aS'u32'
p11
aS'variable_2'
p12
aS')'
p13
aS'int'
p14
aS'variable_3'
p15
aS';'
p16
aS'if'
p17
ag7
aS'!'
p18
aS'variable_4'
p19
ag13
aS'if'
p20
ag7
ag7
aS'func_1'
p21
ag7
aS'&'
p22
aS'variable_4'
p23
aS'->'
p24
aS'variable_5'
p25
ag13
aS'+'
p26
aS'variable_1'
p27
ag13
aS'>'
p28
aS'variable_4'
p29
aS'->'
p30
aS'variable_6'
p31
ag13
aS'variable_3'
p32
aS'='
p33
ag7
aS'variable_1'
p34
ag26
aS'variable_7'
p35
aS'-'
p36
aS'1'
p37
ag13
aS'/'
p38
aS'variable_7'
p39
ag16
aS'new'
p40
ag33
aS'func_2'
p41
ag7
aS'variable_3'
p42
ag13
aS'if'
p43
ag7
aS'new'
p44
aS'=='
p45
aS'NULL'
p46
ag13
aS'if'
p47
ag7
aS'variable_4'
p48
aS'->'
p49
aS'variable_8'
p50
aS'->'
p51
aS'func_3'
p52
ag7
aS'variable_4'
p53
ag10
aS'new'
p54
ag10
aS'variable_1'
p55
ag13
aS'func_4'
p56
ag7
aS'new'
p57
ag13
aS'func_5'
p58
ag7
aS'new'
p59
ag13
aS'new'
p60
aS'->'
p61
aS'variable_9'
p62
aS'['
p63
aS'variable_10'
p64
aS']'
p65
ag33
aS'new'
p66
aS'->'
p67
aS'variable_1'
p68
aS'++'
p69
aaa(lp70
I0
aa(lp71
I43
aa(lp72
(lp73
S'main'
p74
aaa(lp75
S'203 /home/SySeVR/data/CVE_2011_1747_VULN_agp_allocate_memory.c scratch_pages = ( page_count + ENTRIES_PER_PAGE - 1 ) / ENTRIES_PER_PAGE 28'
p76
aa.