(lp0
(lp1
(lp2
S'static'
p3
aS'int'
p4
aS'func_0'
p5
aS'('
p6
aS'variable_0'
p7
aS'*'
p8
aS'variable_1'
p9
aS','
p10
aS'int'
p11
aS'variable_2'
p12
aS')'
p13
aS'int'
p14
ag8
aS'variable_3'
p15
ag10
ag8
aS'variable_4'
p16
aS';'
p17
aS'if'
p18
ag6
aS'variable_1'
p19
aS'->'
p20
aS'variable_2'
p21
aS'<'
p22
aS'variable_2'
p23
ag13
aS'if'
p24
ag6
aS'variable_1'
p25
aS'->'
p26
aS'variable_5'
p27
ag13
aS'variable_4'
p28
aS'='
p29
aS'malloc'
p30
ag6
aS'sizeof'
p31
ag6
aS'int'
p32
ag13
ag8
aS'variable_2'
p33
ag13
ag17
aS'if'
p34
ag6
aS'!'
p35
aS'variable_3'
p36
aS'||'
p37
ag35
aS'variable_4'
p38
ag13
aS'if'
p39
ag6
aS'variable_4'
p40
ag13
aS'variable_1'
p41
aS'->'
p42
aS'variable_6'
p43
ag29
aS'variable_4'
p44
ag17
aS'memset'
p45
ag6
aS'&'
p46
aS'variable_4'
p47
aS'['
p48
aS'variable_1'
p49
aS'->'
p50
aS'variable_2'
p51
aS']'
p52
ag10
aS'0'
p53
ag10
ag6
aS'variable_2'
p54
aS'-'
p55
aS'variable_1'
p56
aS'->'
p57
aS'variable_2'
p58
ag13
ag8
aS'sizeof'
p59
ag6
aS'int'
p60
ag13
ag13
ag17
aS'variable_1'
p61
aS'->'
p62
aS'variable_6'
p63
ag29
aS'variable_4'
p64
ag17
aS'variable_1'
p65
aS'->'
p66
aS'variable_2'
p67
ag29
aS'variable_2'
p68
ag17
aa(lp69
S'static'
p70
aS'int'
p71
aS'func_0'
p72
ag6
aS'variable_0'
p73
ag8
aS'variable_1'
p74
ag10
aS'int'
p75
aS'variable_2'
p76
ag13
aS'int'
p77
ag8
aS'variable_3'
p78
ag10
ag8
aS'variable_4'
p79
ag17
aS'if'
p80
ag6
aS'variable_1'
p81
aS'->'
p82
aS'variable_2'
p83
ag22
aS'variable_2'
p84
ag13
aS'if'
p85
ag6
aS'variable_1'
p86
aS'->'
p87
aS'variable_5'
p88
ag13
aS'variable_3'
p89
ag29
aS'malloc'
p90
ag6
aS'sizeof'
p91
ag6
aS'int'
p92
ag13
ag8
aS'variable_2'
p93
ag13
ag17
aS'if'
p94
ag6
ag35
aS'variable_3'
p95
aS'||'
p96
ag35
aS'variable_4'
p97
ag13
aS'if'
p98
ag6
aS'variable_3'
p99
ag13
aS'variable_1'
p100
aS'->'
p101
aS'variable_5'
p102
ag29
aS'variable_3'
p103
ag17
aS'variable_1'
p104
aS'->'
p105
aS'variable_6'
p106
ag29
aS'variable_4'
p107
ag17
aS'memset'
p108
ag6
ag46
aS'variable_3'
p109
ag48
aS'variable_1'
p110
aS'->'
p111
aS'variable_2'
p112
ag52
ag10
ag53
ag10
ag6
aS'variable_2'
p113
ag55
aS'variable_1'
p114
aS'->'
p115
aS'variable_2'
p116
ag13
ag8
aS'sizeof'
p117
ag6
aS'int'
p118
ag13
ag13
ag17
aS'variable_1'
p119
aS'->'
p120
aS'variable_5'
p121
ag29
aS'variable_3'
p122
ag17
aS'variable_1'
p123
aS'->'
p124
aS'variable_6'
p125
ag29
aS'variable_4'
p126
ag17
aS'variable_1'
p127
aS'->'
p128
aS'variable_2'
p129
ag29
aS'variable_2'
p130
ag17
aaa(lp131
I1
aI1
aa(lp132
I34
aI34
aa(lp133
(lp134
S'main'
p135
aa(lp136
g135
aaa(lp137
S'707 /home/SySeVR/data/CVE_2011_3002_VULN_GrowAtomTable.c malloc 11'
p138
aS'708 /home/SySeVR/data/CVE_2011_3002_VULN_GrowAtomTable.c malloc 10'
p139
aa.