(lp0
(lp1
(lp2
S'static'
p3
aS'void'
p4
aS'func_0'
p5
aS'('
p6
aS'struct'
p7
aS'variable_0'
p8
aS'*'
p9
aS'variable_1'
p10
aS','
p11
aS'struct'
p12
aS'variable_2'
p13
ag9
aS'variable_3'
p14
ag11
aS'size_t'
p15
aS'variable_4'
p16
aS')'
p17
aS'struct'
p18
aS'variable_5'
p19
ag9
aS'variable_6'
p20
aS'='
p21
aS'func_1'
p22
ag6
aS'variable_1'
p23
ag17
aS';'
p24
aS'unsigned'
p25
aS'char'
p26
aS'variable_7'
p27
ag21
aS'func_2'
p28
ag6
aS'variable_6'
p29
aS'->'
p30
aS'variable_8'
p31
ag17
aS'&'
p32
aS'0xff'
p33
ag24
aS'struct'
p34
aS'variable_0'
p35
ag9
aS'variable_9'
p36
ag24
aS'struct'
p37
aS'variable_10'
p38
ag9
aS'variable_11'
p39
ag21
aS'variable_1'
p40
aS'->'
p41
aS'variable_12'
p42
aS'->'
p43
aS'variable_13'
p44
ag24
aS'if'
p45
ag6
aS'!'
p46
aS'variable_11'
p47
ag17
aS'if'
p48
ag6
ag6
aS'variable_14'
p49
ag21
aS'func_3'
p50
ag6
aS'variable_3'
p51
aS'->'
p52
aS'variable_15'
p53
ag11
aS'variable_7'
p54
ag11
aS'variable_11'
p55
aS'->'
p56
aS'variable_16'
p57
ag17
ag17
aS'=='
p58
aS'NULL'
p59
ag17
aS'variable_9'
p60
ag21
aS'func_4'
p61
ag6
ag6
aS'variable_4'
p62
aS'-'
p63
aS'sizeof'
p64
ag6
aS'struct'
p65
aS'variable_2'
p66
ag17
aS'+'
p67
aS'15'
p68
ag17
ag32
aS'~'
p69
aS'15'
p70
ag11
aS'variable_17'
p71
ag17
ag24
aS'if'
p72
ag6
aS'variable_9'
p73
aS'=='
p74
aS'NULL'
p75
ag17
aS'memcpy'
p76
ag6
aS'func_5'
p77
ag6
aS'variable_9'
p78
ag11
aS'variable_4'
p79
ag63
aS'sizeof'
p80
ag6
aS'struct'
p81
aS'variable_2'
p82
ag17
ag17
ag11
ag6
aS'void'
p83
ag9
ag17
ag6
aS'variable_3'
p84
ag67
aS'1'
p85
ag17
ag11
aS'variable_4'
p86
ag63
aS'sizeof'
p87
ag6
aS'struct'
p88
aS'variable_2'
p89
ag17
ag17
ag24
aS'if'
p90
ag6
aS'func_6'
p91
ag6
aS'variable_14'
p92
ag11
aS'variable_9'
p93
ag11
aS'variable_7'
p94
ag11
aS'variable_11'
p95
aS'->'
p96
aS'variable_16'
p97
ag11
aS'variable_3'
p98
aS'->'
p99
aS'variable_18'
p100
ag11
aS'variable_3'
p101
aS'->'
p102
aS'variable_15'
p103
ag17
ag17
aS'func_7'
p104
ag6
aS'variable_9'
p105
ag17
ag24
aaa(lp106
I0
aa(lp107
I93
aa(lp108
(lp109
S'main'
p110
aaa(lp111
S'173 /home/SySeVR/data/CVE_2010_4342_VULN_aun_incoming.c newskb = alloc_skb ( ( len - sizeof ( struct aunhdr ) + 15 ) & ~15 , GFP_ATOMIC ) 15'
p112
aa.