(lp0
(lp1
(lp2
S'void'
p3
aS'variable_0'
p4
aS':'
p5
ag5
aS'func_0'
p6
aS'('
p7
aS'variable_1'
p8
aS'*'
p9
aS'variable_2'
p10
ag9
aS'variable_3'
p11
aS')'
p12
aS'variable_4'
p13
ag9
aS'variable_5'
p14
aS'='
p15
aS'variable_6'
p16
aS'->'
p17
aS'func_1'
p18
ag7
ag12
aS';'
p19
aS'gfxRect'
p20
aS'variable_7'
p21
ag15
aS'variable_5'
p22
aS'->'
p23
aS'func_2'
p24
ag7
aS'variable_8'
p25
aS'+'
p26
aS'func_3'
p27
ag7
ag12
ag12
ag19
aS'gfxFloat'
p28
aS'variable_9'
p29
ag15
aS'variable_5'
p30
aS'->'
p31
aS'func_4'
p32
ag7
aS'variable_10'
p33
ag12
ag19
aS'switch'
p34
ag7
aS'variable_11'
p35
ag12
aS'gfxFloat'
p36
aS'variable_12'
p37
ag15
aS'variable_7'
p38
aS'.'
p39
aS'func_5'
p40
ag7
ag12
ag19
aS'gfxFloat'
p41
aS'variable_13'
p42
ag15
aS'variable_7'
p43
ag39
aS'func_6'
p44
ag7
ag12
ag19
aS'gfxFloat'
p45
aS'variable_14'
p46
ag15
aS'sqrt'
p47
ag7
aS'variable_12'
p48
ag9
aS'variable_12'
p49
ag26
aS'variable_13'
p50
ag9
aS'variable_13'
p51
ag12
ag19
aS'gfxFloat'
p52
aS'variable_15'
p53
ag15
aS'func_7'
p54
ag7
aS'variable_16'
p55
ag12
ag9
aS'variable_9'
p56
aS'/'
p57
aS'variable_14'
p58
ag19
aS'gfxFloat'
p59
aS'variable_17'
p60
ag15
aS'variable_13'
p61
ag9
aS'variable_15'
p62
ag19
aS'variable_18'
p63
aS'->'
p64
aS'func_8'
p65
ag7
aS'variable_7'
p66
ag39
aS'func_9'
p67
ag7
ag12
aS','
p68
aS'variable_7'
p69
ag39
aS'func_10'
p70
ag7
ag12
ag26
aS'func_11'
p71
ag7
aS'-'
p72
ag39
aS'7'
p73
ag9
aS'variable_19'
p74
ag68
ag39
ag73
ag9
aS'variable_17'
p75
ag12
ag12
ag19
aS'gfxPoint'
p76
aS'variable_20'
p77
aS'['
p78
aS']'
p79
ag15
aS'{'
p80
aS'variable_7'
p81
ag39
aS'func_12'
p82
ag7
ag12
ag68
aS'variable_7'
p83
ag39
aS'func_13'
p84
ag7
ag12
ag26
aS'func_14'
p85
ag7
ag72
aS'variable_19'
p86
ag72
ag39
aS'4'
p87
ag9
aS'variable_17'
p88
ag68
aS'variable_21'
p89
ag5
ag5
aS'max'
p90
ag7
ag72
aS'variable_9'
p91
ag57
aS'2'
p92
ag39
aS'0'
p93
ag68
aS'variable_17'
p94
ag72
ag39
ag87
ag9
aS'variable_19'
p95
ag12
ag12
ag68
aS'variable_7'
p96
ag39
aS'func_15'
p97
ag7
ag12
ag26
aS'func_16'
p98
ag7
ag72
ag39
ag73
ag9
aS'variable_19'
p99
ag68
ag39
ag73
ag9
aS'variable_17'
p100
ag12
ag68
aS'variable_7'
p101
ag39
aS'func_17'
p102
ag7
ag12
ag26
aS'func_18'
p103
ag7
aS'variable_21'
p104
ag5
ag5
aS'min'
p105
ag7
aS'variable_9'
p106
ag57
ag92
ag39
ag93
ag68
ag72
aS'variable_19'
p107
ag26
ag39
ag87
ag9
aS'variable_17'
p108
ag12
ag68
aS'variable_17'
p109
ag26
ag39
ag87
ag9
aS'variable_19'
p110
ag12
ag68
aS'variable_7'
p111
ag39
aS'func_19'
p112
ag7
ag12
aS'}'
p113
ag19
aS'variable_18'
p114
aS'->'
p115
aS'Polygon'
p116
ag7
aS'variable_20'
p117
ag68
aS'sizeof'
p118
ag7
aS'variable_20'
p119
ag12
ag12
ag19
aa(lp120
S'void'
p121
aS'variable_0'
p122
ag5
ag5
aS'func_0'
p123
ag7
aS'variable_1'
p124
ag9
aS'variable_2'
p125
ag9
aS'variable_3'
p126
ag12
aS'variable_4'
p127
ag9
aS'variable_5'
p128
ag15
aS'variable_6'
p129
aS'->'
p130
aS'func_1'
p131
ag7
ag12
ag19
aS'gfxRect'
p132
aS'variable_7'
p133
ag15
aS'variable_5'
p134
aS'->'
p135
aS'func_2'
p136
ag7
aS'variable_8'
p137
ag26
aS'func_3'
p138
ag7
ag12
ag12
ag19
aS'gfxFloat'
p139
aS'variable_9'
p140
ag15
aS'variable_5'
p141
aS'->'
p142
aS'func_4'
p143
ag7
aS'variable_10'
p144
ag12
ag19
aS'switch'
p145
ag7
aS'variable_11'
p146
ag12
aS'gfxFloat'
p147
aS'variable_12'
p148
ag15
aS'variable_7'
p149
ag39
aS'func_5'
p150
ag7
ag12
ag19
aS'gfxFloat'
p151
aS'variable_13'
p152
ag15
aS'variable_7'
p153
ag39
aS'func_6'
p154
ag7
ag12
ag19
aS'gfxFloat'
p155
aS'variable_14'
p156
ag15
aS'sqrt'
p157
ag7
aS'variable_12'
p158
ag9
aS'variable_12'
p159
ag26
aS'variable_13'
p160
ag9
aS'variable_13'
p161
ag12
ag19
aS'gfxFloat'
p162
aS'variable_15'
p163
ag15
aS'func_7'
p164
ag7
aS'variable_16'
p165
ag12
ag9
aS'variable_9'
p166
ag57
aS'variable_14'
p167
ag19
aS'gfxFloat'
p168
aS'variable_17'
p169
ag15
aS'variable_12'
p170
ag9
aS'variable_15'
p171
ag19
aS'variable_18'
p172
aS'->'
p173
aS'func_8'
p174
ag7
aS'variable_7'
p175
ag39
aS'func_9'
p176
ag7
ag12
ag68
aS'variable_7'
p177
ag39
aS'func_10'
p178
ag7
ag12
ag26
aS'func_11'
p179
ag7
ag72
ag39
ag73
ag9
aS'variable_17'
p180
ag68
ag39
ag73
ag9
aS'variable_19'
p181
ag12
ag12
ag19
aS'gfxPoint'
p182
aS'variable_20'
p183
ag78
ag79
ag15
ag80
aS'variable_7'
p184
ag39
aS'func_12'
p185
ag7
ag12
ag68
aS'variable_7'
p186
ag39
aS'func_13'
p187
ag7
ag12
ag26
aS'func_14'
p188
ag7
ag72
aS'variable_17'
p189
ag72
ag39
ag87
ag9
aS'variable_19'
p190
ag68
aS'variable_21'
p191
ag5
ag5
aS'max'
p192
ag7
ag72
aS'variable_9'
p193
ag57
ag92
ag39
ag93
ag68
aS'variable_19'
p194
ag72
ag39
ag87
ag9
aS'variable_17'
p195
ag12
ag12
ag68
aS'variable_7'
p196
ag39
aS'func_15'
p197
ag7
ag12
ag26
aS'func_16'
p198
ag7
ag72
ag39
ag73
ag9
aS'variable_17'
p199
ag68
ag39
ag73
ag9
aS'variable_19'
p200
ag12
ag68
aS'variable_7'
p201
ag39
aS'func_17'
p202
ag7
ag12
ag26
aS'func_18'
p203
ag7
aS'variable_21'
p204
ag5
ag5
aS'min'
p205
ag7
aS'variable_9'
p206
ag57
ag92
ag39
ag93
ag68
ag72
aS'variable_17'
p207
ag26
ag39
ag87
ag9
aS'variable_19'
p208
ag12
ag68
aS'variable_19'
p209
ag26
ag39
ag87
ag9
aS'variable_17'
p210
ag12
ag68
aS'variable_7'
p211
ag39
aS'func_19'
p212
ag7
ag12
ag113
ag19
aS'variable_18'
p213
aS'->'
p214
aS'Polygon'
p215
ag7
aS'variable_20'
p216
ag68
aS'sizeof'
p217
ag7
aS'variable_20'
p218
ag12
ag12
ag19
aa(lp219
S'void'
p220
aS'variable_0'
p221
ag5
ag5
aS'func_0'
p222
ag7
aS'variable_1'
p223
ag9
aS'variable_2'
p224
ag9
aS'variable_3'
p225
ag12
aS'variable_4'
p226
ag9
aS'variable_5'
p227
ag15
aS'variable_6'
p228
aS'->'
p229
aS'func_1'
p230
ag7
ag12
ag19
aS'gfxRect'
p231
aS'variable_7'
p232
ag15
aS'variable_5'
p233
aS'->'
p234
aS'func_2'
p235
ag7
aS'variable_8'
p236
ag26
aS'func_3'
p237
ag7
ag12
ag12
ag19
aS'gfxFloat'
p238
aS'variable_9'
p239
ag15
aS'variable_5'
p240
aS'->'
p241
aS'func_4'
p242
ag7
aS'variable_10'
p243
ag12
ag19
aS'switch'
p244
ag7
aS'variable_11'
p245
ag12
aS'gfxFloat'
p246
aS'variable_12'
p247
ag15
aS'variable_7'
p248
ag39
aS'func_5'
p249
ag7
ag12
ag19
aS'gfxFloat'
p250
aS'variable_13'
p251
ag15
aS'variable_7'
p252
ag39
aS'func_6'
p253
ag7
ag12
ag19
aS'gfxFloat'
p254
aS'variable_14'
p255
ag15
aS'sqrt'
p256
ag7
aS'variable_12'
p257
ag9
aS'variable_12'
p258
ag26
aS'variable_13'
p259
ag9
aS'variable_13'
p260
ag12
ag19
aS'gfxFloat'
p261
aS'variable_15'
p262
ag15
aS'func_7'
p263
ag7
aS'variable_16'
p264
ag12
ag9
aS'variable_9'
p265
ag57
aS'variable_14'
p266
ag19
aS'gfxFloat'
p267
aS'variable_17'
p268
ag15
aS'variable_12'
p269
ag9
aS'variable_15'
p270
ag19
aS'gfxFloat'
p271
aS'variable_18'
p272
ag15
aS'variable_13'
p273
ag9
aS'variable_15'
p274
ag19
aS'variable_19'
p275
aS'->'
p276
aS'func_8'
p277
ag7
aS'variable_7'
p278
ag39
aS'func_9'
p279
ag7
ag12
ag68
aS'variable_7'
p280
ag39
aS'func_10'
p281
ag7
ag12
ag26
aS'func_11'
p282
ag7
ag72
ag39
ag73
ag9
aS'variable_17'
p283
ag68
ag39
ag73
ag9
aS'variable_18'
p284
ag12
ag12
ag19
aS'gfxPoint'
p285
aS'variable_20'
p286
ag78
ag79
ag15
ag80
aS'variable_7'
p287
ag39
aS'func_12'
p288
ag7
ag12
ag68
aS'variable_7'
p289
ag39
aS'func_13'
p290
ag7
ag12
ag26
aS'func_14'
p291
ag7
ag72
aS'variable_17'
p292
ag72
ag39
ag87
ag9
aS'variable_18'
p293
ag68
aS'variable_21'
p294
ag5
ag5
aS'max'
p295
ag7
ag72
aS'variable_9'
p296
ag57
ag92
ag39
ag93
ag68
aS'variable_18'
p297
ag72
ag39
ag87
ag9
aS'variable_17'
p298
ag12
ag12
ag68
aS'variable_7'
p299
ag39
aS'func_15'
p300
ag7
ag12
ag26
aS'func_16'
p301
ag7
ag72
ag39
ag73
ag9
aS'variable_17'
p302
ag68
ag39
ag73
ag9
aS'variable_18'
p303
ag12
ag68
aS'variable_7'
p304
ag39
aS'func_17'
p305
ag7
ag12
ag26
aS'func_18'
p306
ag7
aS'variable_21'
p307
ag5
ag5
aS'min'
p308
ag7
aS'variable_9'
p309
ag57
ag92
ag39
ag93
ag68
ag72
aS'variable_17'
p310
ag26
ag39
ag87
ag9
aS'variable_18'
p311
ag12
ag68
aS'variable_18'
p312
ag26
ag39
ag87
ag9
aS'variable_17'
p313
ag12
ag68
aS'variable_7'
p314
ag39
aS'func_19'
p315
ag7
ag12
ag113
ag19
aS'variable_19'
p316
aS'->'
p317
aS'Polygon'
p318
ag7
aS'variable_20'
p319
ag68
aS'sizeof'
p320
ag7
aS'variable_20'
p321
ag12
ag12
ag19
aa(lp322
S'void'
p323
aS'variable_0'
p324
ag5
ag5
aS'func_0'
p325
ag7
aS'variable_1'
p326
ag9
aS'variable_2'
p327
ag9
aS'variable_3'
p328
ag12
aS'variable_4'
p329
ag9
aS'variable_5'
p330
ag15
aS'variable_6'
p331
aS'->'
p332
aS'func_1'
p333
ag7
ag12
ag19
aS'gfxRect'
p334
aS'variable_7'
p335
ag15
aS'variable_5'
p336
aS'->'
p337
aS'func_2'
p338
ag7
aS'variable_8'
p339
ag26
aS'func_3'
p340
ag7
ag12
ag12
ag19
aS'switch'
p341
ag7
aS'variable_9'
p342
ag12
aS'gfxFloat'
p343
aS'variable_10'
p344
ag15
aS'variable_7'
p345
ag39
aS'func_4'
p346
ag7
ag12
ag19
aS'gfxFloat'
p347
aS'variable_11'
p348
ag15
aS'variable_7'
p349
ag39
aS'func_5'
p350
ag7
ag12
ag19
aS'gfxFloat'
p351
aS'variable_12'
p352
ag15
aS'sqrt'
p353
ag7
aS'variable_10'
p354
ag9
aS'variable_10'
p355
ag26
aS'variable_11'
p356
ag9
aS'variable_11'
p357
ag12
ag19
aS'gfxFloat'
p358
aS'variable_13'
p359
ag15
aS'func_6'
p360
ag7
aS'variable_14'
p361
ag12
ag9
aS'variable_15'
p362
ag57
aS'variable_12'
p363
ag19
aS'gfxFloat'
p364
aS'variable_16'
p365
ag15
aS'variable_10'
p366
ag9
aS'variable_13'
p367
ag19
aS'gfxFloat'
p368
aS'variable_17'
p369
ag15
aS'variable_11'
p370
ag9
aS'variable_13'
p371
ag19
aS'variable_18'
p372
aS'->'
p373
aS'func_7'
p374
ag7
aS'variable_7'
p375
ag39
aS'func_8'
p376
ag7
ag12
ag68
aS'variable_7'
p377
ag39
aS'func_9'
p378
ag7
ag12
ag26
aS'func_10'
p379
ag7
ag72
ag39
ag73
ag9
aS'variable_16'
p380
ag68
ag39
ag73
ag9
aS'variable_17'
p381
ag12
ag12
ag19
aS'gfxPoint'
p382
aS'variable_19'
p383
ag78
ag79
ag15
ag80
aS'variable_7'
p384
ag39
aS'func_11'
p385
ag7
ag12
ag68
aS'variable_7'
p386
ag39
aS'func_12'
p387
ag7
ag12
ag26
aS'func_13'
p388
ag7
ag72
aS'variable_16'
p389
ag72
ag39
ag87
ag9
aS'variable_17'
p390
ag68
aS'variable_20'
p391
ag5
ag5
aS'max'
p392
ag7
ag72
aS'variable_15'
p393
ag57
ag92
ag39
ag93
ag68
aS'variable_17'
p394
ag72
ag39
ag87
ag9
aS'variable_16'
p395
ag12
ag12
ag68
aS'variable_7'
p396
ag39
aS'func_14'
p397
ag7
ag12
ag26
aS'func_15'
p398
ag7
ag72
ag39
ag73
ag9
aS'variable_16'
p399
ag68
ag39
ag73
ag9
aS'variable_17'
p400
ag12
ag68
aS'variable_7'
p401
ag39
aS'func_16'
p402
ag7
ag12
ag26
aS'func_17'
p403
ag7
aS'variable_20'
p404
ag5
ag5
aS'min'
p405
ag7
aS'variable_15'
p406
ag57
ag92
ag39
ag93
ag68
ag72
aS'variable_16'
p407
ag26
ag39
ag87
ag9
aS'variable_17'
p408
ag12
ag68
aS'variable_17'
p409
ag26
ag39
ag87
ag9
aS'variable_16'
p410
ag12
ag68
aS'variable_7'
p411
ag39
aS'func_18'
p412
ag7
ag12
ag113
ag19
aS'variable_18'
p413
aS'->'
p414
aS'Polygon'
p415
ag7
aS'variable_19'
p416
ag68
aS'sizeof'
p417
ag7
aS'variable_19'
p418
ag12
ag12
ag19
aa(lp419
S'void'
p420
aS'variable_0'
p421
ag5
ag5
aS'func_0'
p422
ag7
aS'variable_1'
p423
ag9
aS'variable_2'
p424
ag9
aS'variable_3'
p425
ag12
aS'variable_4'
p426
ag9
aS'variable_5'
p427
ag15
aS'variable_6'
p428
aS'->'
p429
aS'func_1'
p430
ag7
ag12
ag19
aS'gfxRect'
p431
aS'variable_7'
p432
ag15
aS'variable_5'
p433
aS'->'
p434
aS'func_2'
p435
ag7
aS'variable_8'
p436
ag26
aS'func_3'
p437
ag7
ag12
ag12
ag19
aS'variable_7'
p438
ag39
aS'func_4'
p439
ag7
aS'variable_9'
p440
ag57
ag92
ag39
ag93
ag12
ag19
aS'variable_10'
p441
aS'->'
p442
aS'Ellipse'
p443
ag7
aS'variable_7'
p444
ag39
aS'func_5'
p445
ag7
ag12
ag68
aS'variable_7'
p446
ag39
aS'func_6'
p447
ag7
ag12
ag12
ag19
aS'variable_10'
p448
aS'->'
p449
aS'func_7'
p450
ag7
aS'variable_7'
p451
ag68
aS'func_8'
p452
ag7
aS'3'
p453
ag9
aS'variable_9'
p454
ag12
ag68
aS'true'
p455
ag12
ag19
aS'variable_10'
p456
aS'->'
p457
aS'func_9'
p458
ag7
aS'variable_7'
p459
ag39
aS'func_10'
p460
ag7
ag12
ag68
aS'variable_7'
p461
ag39
aS'func_11'
p462
ag7
ag12
ag12
ag19
aS'variable_10'
p463
aS'->'
p464
aS'func_12'
p465
ag7
aS'variable_7'
p466
ag39
aS'func_13'
p467
ag7
ag12
ag68
aS'variable_7'
p468
ag39
aS'func_14'
p469
ag7
ag12
ag12
ag19
aS'gfxFloat'
p470
aS'variable_11'
p471
ag15
aS'variable_7'
p472
ag39
aS'func_15'
p473
ag7
ag12
ag19
aS'gfxFloat'
p474
aS'variable_12'
p475
ag15
aS'variable_7'
p476
ag39
aS'func_16'
p477
ag7
ag12
ag19
aS'gfxFloat'
p478
aS'variable_13'
p479
ag15
aS'sqrt'
p480
ag7
aS'variable_11'
p481
ag9
aS'variable_11'
p482
ag26
aS'variable_12'
p483
ag9
aS'variable_12'
p484
ag12
ag19
aS'gfxFloat'
p485
aS'variable_14'
p486
ag15
aS'func_17'
p487
ag7
aS'variable_15'
p488
ag12
ag9
aS'variable_9'
p489
ag57
aS'variable_13'
p490
ag19
aS'gfxFloat'
p491
aS'variable_16'
p492
ag15
aS'variable_11'
p493
ag9
aS'variable_14'
p494
ag19
aS'gfxFloat'
p495
aS'variable_17'
p496
ag15
aS'variable_12'
p497
ag9
aS'variable_14'
p498
ag19
aS'variable_10'
p499
aS'->'
p500
aS'func_18'
p501
ag7
aS'variable_7'
p502
ag39
aS'func_19'
p503
ag7
ag12
ag68
aS'variable_7'
p504
ag39
aS'func_20'
p505
ag7
ag12
ag26
aS'func_21'
p506
ag7
ag72
ag39
ag73
ag9
aS'variable_16'
p507
ag68
ag39
ag73
ag9
aS'variable_17'
p508
ag12
ag12
ag19
aS'gfxPoint'
p509
aS'variable_18'
p510
ag78
ag79
ag15
ag80
aS'variable_7'
p511
ag39
aS'func_22'
p512
ag7
ag12
ag68
aS'variable_7'
p513
ag39
aS'func_23'
p514
ag7
ag12
ag26
aS'func_24'
p515
ag7
ag72
aS'variable_16'
p516
ag72
ag39
ag87
ag9
aS'variable_17'
p517
ag68
aS'variable_19'
p518
ag5
ag5
aS'max'
p519
ag7
ag72
aS'variable_9'
p520
ag57
ag92
ag39
ag93
ag68
aS'variable_17'
p521
ag72
ag39
ag87
ag9
aS'variable_16'
p522
ag12
ag12
ag68
aS'variable_7'
p523
ag39
aS'func_25'
p524
ag7
ag12
ag26
aS'func_26'
p525
ag7
ag72
ag39
ag73
ag9
aS'variable_16'
p526
ag68
ag39
ag73
ag9
aS'variable_17'
p527
ag12
ag68
aS'variable_7'
p528
ag39
aS'func_27'
p529
ag7
ag12
ag26
aS'func_28'
p530
ag7
aS'variable_19'
p531
ag5
ag5
aS'min'
p532
ag7
aS'variable_9'
p533
ag57
ag92
ag39
ag93
ag68
ag72
aS'variable_16'
p534
ag26
ag39
ag87
ag9
aS'variable_17'
p535
ag12
ag68
aS'variable_17'
p536
ag26
ag39
ag87
ag9
aS'variable_16'
p537
ag12
ag68
aS'variable_7'
p538
ag39
aS'func_29'
p539
ag7
ag12
ag113
ag19
aS'variable_10'
p540
aS'->'
p541
aS'Polygon'
p542
ag7
aS'variable_18'
p543
ag68
aS'sizeof'
p544
ag7
aS'variable_18'
p545
ag12
ag12
ag19
aaa(lp546
I1
aI1
aI1
aI1
aI1
aa(lp547
I100
aI100
aI93
aI71
aI35
aa(lp548
(lp549
S'main'
p550
aa(lp551
g550
aa(lp552
g550
aa(lp553
g550
aa(lp554
g550
aaa(lp555
S'885 /home/SySeVR/data/CVE_2014_1508_VULN_nsDisplayNotation__Paint.c gfxFloat h = H * f ; 51'
p556
aS'886 /home/SySeVR/data/CVE_2014_1508_VULN_nsDisplayNotation__Paint.c gfxFloat w = W * f ; 51'
p557
aS'887 /home/SySeVR/data/CVE_2014_1508_VULN_nsDisplayNotation__Paint.c gfxFloat f = gfxFloat ( kArrowHeadSize ) * e / l ; 50'
p558
aS'888 /home/SySeVR/data/CVE_2014_1508_VULN_nsDisplayNotation__Paint.c gfxFloat l = sqrt ( W * W + H * H ) ; 49'
p559
aS'889 /home/SySeVR/data/CVE_2014_1508_VULN_nsDisplayNotation__Paint.c gfxRect rect = presContext -> AppUnitsToGfxUnits ( mRect + ToReferenceFrame ( ) ) ; 6'
p560
aa.