(lp0
(lp1
(lp2
S'guint16'
p3
aS'func_0'
p4
aS'('
p5
aS'variable_0'
p6
aS'*'
p7
aS'variable_1'
p8
aS','
p9
aS'variable_2'
p10
ag7
aS'variable_3'
p11
ag9
aS'variable_4'
p12
ag7
aS'variable_5'
p13
ag9
aS'guint8'
p14
aS'variable_6'
p15
ag9
aS'gint'
p16
aS'variable_7'
p17
ag9
aS'int'
p18
aS'variable_8'
p19
ag9
aS'guint32'
p20
aS'variable_9'
p21
ag9
aS'const'
p22
aS'gchar'
p23
ag7
aS'variable_10'
p24
aS')'
p25
aS'guint8'
p26
aS'variable_11'
p27
aS';'
p28
aS'guint32'
p29
aS'variable_12'
p30
ag28
aS'variable_13'
p31
ag7
aS'variable_14'
p32
ag28
aS'const'
p33
aS'gchar'
p34
ag7
aS'variable_15'
p35
ag28
aS'variable_12'
p36
aS'='
p37
aS'variable_9'
p38
ag28
aS'variable_11'
p39
ag37
aS'func_1'
p40
ag5
aS'variable_1'
p41
ag9
aS'variable_12'
p42
ag25
ag28
aS'if'
p43
ag5
ag5
aS'variable_11'
p44
aS'&'
p45
aS'0xf0'
p46
ag25
aS'=='
p47
ag5
aS'variable_6'
p48
ag45
aS'0xf0'
p49
ag25
ag25
aS'variable_15'
p50
ag37
aS'func_2'
p51
ag5
aS'variable_8'
p52
ag9
ag45
aS'variable_16'
p53
ag25
ag28
aS'variable_14'
p54
ag37
aS'func_3'
p55
ag5
aS'variable_3'
p56
ag9
aS'variable_1'
p57
ag9
aS'variable_12'
p58
ag9
aS'-'
p59
aS'1'
p60
ag9
aS'"'
p61
aS'%'
p62
aS's'
p63
ag62
ag63
ag61
ag9
aS'variable_15'
p64
aS'?'
p65
aS'variable_15'
p66
aS':'
p67
ag61
aS'Unknown'
p68
ag59
aS'aborting'
p69
aS'dissection'
p70
ag61
ag9
ag5
aS'variable_10'
p71
aS'=='
p72
aS'NULL'
p73
ag25
aS'||'
p74
ag5
aS'variable_10'
p75
aS'['
p76
aS'0'
p77
aS']'
p78
aS'=='
p79
aS"'"
p80
aS'\\'
p81
ag77
ag80
ag25
ag65
ag61
ag61
ag67
aS'variable_10'
p82
ag25
ag28
aS'variable_17'
p83
ag37
aS'func_4'
p84
ag5
aS'variable_14'
p85
ag9
aS'variable_18'
p86
ag76
aS'variable_8'
p87
ag78
ag25
ag28
aS'func_5'
p88
ag5
aS'variable_17'
p89
ag9
aS'variable_1'
p90
ag9
aS'variable_12'
p91
ag9
ag60
ag9
ag61
ag62
ag63
ag37
aS'Element'
p92
aS'ID'
p93
ag67
aS'0x'
p94
ag62
aS'1x'
p95
ag59
ag61
ag9
aS'variable_19'
p96
ag9
aS'variable_11'
p97
aS'>>'
p98
aS'4'
p99
ag25
ag28
aS'func_6'
p100
ag5
aS'variable_17'
p101
ag9
aS'variable_1'
p102
ag9
aS'variable_12'
p103
ag9
ag60
ag9
ag61
aS'No'
p104
aS'element'
p105
aS'dissector'
p106
ag9
aS'rest'
p107
aS'of'
p108
aS'dissection'
p109
aS'may'
p110
aS'be'
p111
aS'incorrect'
p112
ag61
ag25
ag28
aS'variable_20'
p113
ag37
ag5
ag7
aS'variable_21'
p114
ag76
aS'variable_8'
p115
ag78
ag25
ag5
aS'variable_1'
p116
ag9
aS'variable_17'
p117
ag9
aS'variable_5'
p118
ag9
aS'variable_12'
p119
ag9
aS'variable_22'
p120
ag9
aS'variable_23'
p121
ag9
aS'1024'
p122
ag25
ag28
aS'func_7'
p123
ag5
aS'variable_14'
p124
ag9
ag61
ag62
ag63
ag61
ag9
aS'variable_23'
p125
ag25
ag28
aS'func_8'
p126
ag5
aS'variable_14'
p127
ag9
aS'variable_20'
p128
ag25
ag28
aS'return'
p129
ag5
aS'variable_20'
p130
ag25
ag28
aaa(lp131
I0
aa(lp132
I119
aa(lp133
(lp134
S'main'
p135
aaa(lp136
S'532 /home/SySeVR/data/CVE_2013_4932_PATCHED_elem_tv_short.c item = proto_tree_add_text ( tree , tvb , curr_offset , - 1 , "%s%s" , elem_name ? elem_name : "Unknown - aborting dissection" , ( name_add == NULL ) || ( name_add [ 0 ] == \'\\0\' ) ? "" : name_add ) 25'
p137
aa.