(lp0
(lp1
(lp2
S'int'
p3
aS'func_0'
p4
aS'('
p5
aS'variable_0'
p6
aS'*'
p7
aS'variable_1'
p8
aS','
p9
aS'int'
p10
aS'variable_2'
p11
ag9
aS'const'
p12
aS'uint8_t'
p13
ag7
ag7
aS'variable_3'
p14
ag9
aS'int'
p15
ag7
aS'variable_4'
p16
aS')'
p17
aS'for'
p18
ag5
aS';'
p19
aS'variable_1'
p20
aS'->'
p21
aS'variable_5'
p22
aS'>'
p23
aS'0'
p24
ag19
aS'variable_1'
p25
aS'->'
p26
aS'variable_5'
p27
aS'--'
p28
ag17
aS'variable_1'
p29
aS'->'
p30
aS'variable_6'
p31
aS'['
p32
aS'variable_1'
p33
aS'->'
p34
aS'variable_7'
p35
aS'++'
p36
aS']'
p37
aS'='
p38
aS'variable_1'
p39
aS'->'
p40
aS'variable_6'
p41
ag32
aS'variable_1'
p42
aS'->'
p43
aS'variable_8'
p44
aS'++'
p45
ag37
ag19
aS'if'
p46
ag5
aS'!'
p47
ag7
aS'variable_4'
p48
aS'&&'
p49
aS'variable_2'
p50
aS'=='
p51
aS'variable_9'
p52
ag17
aS'variable_2'
p53
ag38
ag24
ag19
aS'variable_1'
p54
aS'->'
p55
aS'variable_10'
p56
ag38
aS'variable_1'
p57
aS'->'
p58
aS'variable_7'
p59
ag19
aS'if'
p60
ag5
aS'variable_2'
p61
aS'=='
p62
aS'variable_9'
p63
ag17
aS'void'
p64
ag7
aS'variable_11'
p65
ag38
aS'func_1'
p66
ag5
aS'variable_1'
p67
aS'->'
p68
aS'variable_6'
p69
ag9
aS'&'
p70
aS'variable_1'
p71
aS'->'
p72
aS'variable_12'
p73
ag9
ag5
ag7
aS'variable_4'
p74
ag17
aS'+'
p75
aS'variable_1'
p76
aS'->'
p77
aS'variable_7'
p78
ag75
aS'variable_13'
p79
ag17
ag19
aS'if'
p80
ag5
ag47
aS'variable_11'
p81
ag17
aS'variable_1'
p82
aS'->'
p83
aS'variable_6'
p84
ag38
aS'variable_11'
p85
ag19
aS'memcpy'
p86
ag5
ag70
aS'variable_1'
p87
aS'->'
p88
aS'variable_6'
p89
ag32
aS'variable_1'
p90
aS'->'
p91
aS'variable_7'
p92
ag37
ag9
ag7
aS'variable_3'
p93
ag9
ag7
aS'variable_4'
p94
ag17
ag19
aS'variable_1'
p95
aS'->'
p96
aS'variable_7'
p97
aS'+='
p98
ag7
aS'variable_4'
p99
ag19
ag7
aS'variable_4'
p100
ag38
aS'variable_1'
p101
aS'->'
p102
aS'variable_8'
p103
ag38
aS'variable_1'
p104
aS'->'
p105
aS'variable_7'
p106
ag75
aS'variable_2'
p107
ag19
aS'if'
p108
ag5
aS'variable_1'
p109
aS'->'
p110
aS'variable_7'
p111
ag17
aS'void'
p112
ag7
aS'variable_11'
p113
ag38
aS'func_2'
p114
ag5
aS'variable_1'
p115
aS'->'
p116
aS'variable_6'
p117
ag9
ag70
aS'variable_1'
p118
aS'->'
p119
aS'variable_12'
p120
ag9
aS'variable_2'
p121
ag75
aS'variable_1'
p122
aS'->'
p123
aS'variable_7'
p124
ag75
aS'variable_13'
p125
ag17
ag19
aS'if'
p126
ag5
ag47
aS'variable_11'
p127
ag17
aS'variable_1'
p128
aS'->'
p129
aS'variable_6'
p130
ag38
aS'variable_11'
p131
ag19
aS'if'
p132
ag5
aS'variable_2'
p133
ag23
aS'-'
p134
aS'variable_13'
p135
ag17
aS'memcpy'
p136
ag5
ag70
aS'variable_1'
p137
aS'->'
p138
aS'variable_6'
p139
ag32
aS'variable_1'
p140
aS'->'
p141
aS'variable_7'
p142
ag37
ag9
ag7
aS'variable_3'
p143
ag9
aS'variable_2'
p144
ag75
aS'variable_13'
p145
ag17
ag19
aS'variable_1'
p146
aS'->'
p147
aS'variable_7'
p148
ag38
ag24
ag19
ag7
aS'variable_3'
p149
ag38
aS'variable_1'
p150
aS'->'
p151
aS'variable_6'
p152
ag19
aS'variable_1'
p153
aS'->'
p154
aS'variable_14'
p155
ag38
ag5
aS'variable_1'
p156
aS'->'
p157
aS'variable_14'
p158
aS'<<'
p159
aS'8'
p160
ag17
aS'|'
p161
aS'variable_1'
p162
aS'->'
p163
aS'variable_6'
p164
ag32
aS'variable_1'
p165
aS'->'
p166
aS'variable_10'
p167
ag75
aS'variable_2'
p168
ag37
ag19
aS'variable_1'
p169
aS'->'
p170
aS'variable_15'
p171
ag38
ag5
aS'variable_1'
p172
aS'->'
p173
aS'variable_15'
p174
aS'<<'
p175
ag160
ag17
ag161
aS'variable_1'
p176
aS'->'
p177
aS'variable_6'
p178
ag32
aS'variable_1'
p179
aS'->'
p180
aS'variable_10'
p181
ag75
aS'variable_2'
p182
ag37
ag19
aS'variable_1'
p183
aS'->'
p184
aS'variable_5'
p185
aS'++'
p186
ag19
aS'if'
p187
ag5
aS'variable_1'
p188
aS'->'
p189
aS'variable_5'
p190
ag17
aS'func_3'
p191
ag5
aS'NULL'
p192
ag9
aS'"'
p193
aS'overread'
p194
aS'%'
p195
aS'd'
p196
ag9
aS'state'
p197
aS':'
p198
ag195
aS'X'
p199
aS'next'
p200
ag198
ag195
ag196
aS'index'
p201
ag198
ag195
ag196
aS'o_index'
p202
ag198
ag195
ag196
aS'\\'
p203
aS'n'
p204
ag193
ag9
aS'variable_1'
p205
aS'->'
p206
aS'variable_5'
p207
ag9
aS'variable_1'
p208
aS'->'
p209
aS'variable_14'
p210
ag9
aS'variable_2'
p211
ag9
aS'variable_1'
p212
aS'->'
p213
aS'variable_7'
p214
ag9
aS'variable_1'
p215
aS'->'
p216
aS'variable_8'
p217
ag17
ag19
aS'func_4'
p218
ag5
aS'NULL'
p219
ag9
ag193
ag195
ag199
ag195
ag199
ag195
ag199
ag195
ag199
ag203
ag204
ag193
ag9
ag5
ag7
aS'variable_3'
p220
ag17
ag32
ag24
ag37
ag9
ag5
ag7
aS'variable_3'
p221
ag17
ag32
aS'1'
p222
ag37
ag9
ag5
ag7
aS'variable_3'
p223
ag17
ag32
aS'2'
p224
ag37
ag9
ag5
ag7
aS'variable_3'
p225
ag17
ag32
aS'3'
p226
ag37
ag17
ag19
aa(lp227
S'int'
p228
aS'func_0'
p229
ag5
aS'variable_0'
p230
ag7
aS'variable_1'
p231
ag9
aS'int'
p232
aS'variable_2'
p233
ag9
aS'const'
p234
aS'uint8_t'
p235
ag7
ag7
aS'variable_3'
p236
ag9
aS'int'
p237
ag7
aS'variable_4'
p238
ag17
aS'for'
p239
ag5
ag19
aS'variable_1'
p240
aS'->'
p241
aS'variable_5'
p242
ag23
ag24
ag19
aS'variable_1'
p243
aS'->'
p244
aS'variable_5'
p245
aS'--'
p246
ag17
aS'variable_1'
p247
aS'->'
p248
aS'variable_6'
p249
ag32
aS'variable_1'
p250
aS'->'
p251
aS'variable_7'
p252
aS'++'
p253
ag37
ag38
aS'variable_1'
p254
aS'->'
p255
aS'variable_6'
p256
ag32
aS'variable_1'
p257
aS'->'
p258
aS'variable_8'
p259
aS'++'
p260
ag37
ag19
aS'if'
p261
ag5
ag47
ag7
aS'variable_4'
p262
aS'&&'
p263
aS'variable_2'
p264
aS'=='
p265
aS'variable_9'
p266
ag17
aS'variable_2'
p267
ag38
ag24
ag19
aS'variable_1'
p268
aS'->'
p269
aS'variable_10'
p270
ag38
aS'variable_1'
p271
aS'->'
p272
aS'variable_7'
p273
ag19
aS'if'
p274
ag5
aS'variable_2'
p275
aS'=='
p276
aS'variable_9'
p277
ag17
aS'void'
p278
ag7
aS'variable_11'
p279
ag38
aS'func_1'
p280
ag5
aS'variable_1'
p281
aS'->'
p282
aS'variable_6'
p283
ag9
ag70
aS'variable_1'
p284
aS'->'
p285
aS'variable_12'
p286
ag9
ag5
ag7
aS'variable_4'
p287
ag17
ag75
aS'variable_1'
p288
aS'->'
p289
aS'variable_7'
p290
ag75
aS'variable_13'
p291
ag17
ag19
aS'if'
p292
ag5
ag47
aS'variable_11'
p293
ag17
aS'variable_1'
p294
aS'->'
p295
aS'variable_6'
p296
ag38
aS'variable_11'
p297
ag19
aS'memcpy'
p298
ag5
ag70
aS'variable_1'
p299
aS'->'
p300
aS'variable_6'
p301
ag32
aS'variable_1'
p302
aS'->'
p303
aS'variable_7'
p304
ag37
ag9
ag7
aS'variable_3'
p305
ag9
ag7
aS'variable_4'
p306
ag17
ag19
aS'variable_1'
p307
aS'->'
p308
aS'variable_7'
p309
aS'+='
p310
ag7
aS'variable_4'
p311
ag19
ag7
aS'variable_4'
p312
ag38
aS'variable_1'
p313
aS'->'
p314
aS'variable_8'
p315
ag38
aS'variable_1'
p316
aS'->'
p317
aS'variable_7'
p318
ag75
aS'variable_2'
p319
ag19
aS'if'
p320
ag5
aS'variable_1'
p321
aS'->'
p322
aS'variable_7'
p323
ag17
aS'void'
p324
ag7
aS'variable_11'
p325
ag38
aS'func_2'
p326
ag5
aS'variable_1'
p327
aS'->'
p328
aS'variable_6'
p329
ag9
ag70
aS'variable_1'
p330
aS'->'
p331
aS'variable_12'
p332
ag9
aS'variable_2'
p333
ag75
aS'variable_1'
p334
aS'->'
p335
aS'variable_7'
p336
ag75
aS'variable_13'
p337
ag17
ag19
aS'if'
p338
ag5
ag47
aS'variable_11'
p339
ag17
aS'variable_1'
p340
aS'->'
p341
aS'variable_6'
p342
ag38
aS'variable_11'
p343
ag19
aS'memcpy'
p344
ag5
ag70
aS'variable_1'
p345
aS'->'
p346
aS'variable_6'
p347
ag32
aS'variable_1'
p348
aS'->'
p349
aS'variable_7'
p350
ag37
ag9
ag7
aS'variable_3'
p351
ag9
aS'variable_2'
p352
ag75
aS'variable_13'
p353
ag17
ag19
aS'variable_1'
p354
aS'->'
p355
aS'variable_7'
p356
ag38
ag24
ag19
ag7
aS'variable_3'
p357
ag38
aS'variable_1'
p358
aS'->'
p359
aS'variable_6'
p360
ag19
aS'variable_1'
p361
aS'->'
p362
aS'variable_14'
p363
ag38
ag5
aS'variable_1'
p364
aS'->'
p365
aS'variable_14'
p366
aS'<<'
p367
ag160
ag17
ag161
aS'variable_1'
p368
aS'->'
p369
aS'variable_6'
p370
ag32
aS'variable_1'
p371
aS'->'
p372
aS'variable_10'
p373
ag75
aS'variable_2'
p374
ag37
ag19
aS'variable_1'
p375
aS'->'
p376
aS'variable_15'
p377
ag38
ag5
aS'variable_1'
p378
aS'->'
p379
aS'variable_15'
p380
aS'<<'
p381
ag160
ag17
ag161
aS'variable_1'
p382
aS'->'
p383
aS'variable_6'
p384
ag32
aS'variable_1'
p385
aS'->'
p386
aS'variable_10'
p387
ag75
aS'variable_2'
p388
ag37
ag19
aS'variable_1'
p389
aS'->'
p390
aS'variable_5'
p391
aS'++'
p392
ag19
aS'if'
p393
ag5
aS'variable_1'
p394
aS'->'
p395
aS'variable_5'
p396
ag17
aS'func_3'
p397
ag5
aS'NULL'
p398
ag9
ag193
aS'overread'
p399
ag195
ag196
ag9
aS'state'
p400
ag198
ag195
ag199
aS'next'
p401
ag198
ag195
ag196
aS'index'
p402
ag198
ag195
ag196
aS'o_index'
p403
ag198
ag195
ag196
ag203
ag204
ag193
ag9
aS'variable_1'
p404
aS'->'
p405
aS'variable_5'
p406
ag9
aS'variable_1'
p407
aS'->'
p408
aS'variable_14'
p409
ag9
aS'variable_2'
p410
ag9
aS'variable_1'
p411
aS'->'
p412
aS'variable_7'
p413
ag9
aS'variable_1'
p414
aS'->'
p415
aS'variable_8'
p416
ag17
ag19
aS'func_4'
p417
ag5
aS'NULL'
p418
ag9
ag193
ag195
ag199
ag195
ag199
ag195
ag199
ag195
ag199
ag203
ag204
ag193
ag9
ag5
ag7
aS'variable_3'
p419
ag17
ag32
ag24
ag37
ag9
ag5
ag7
aS'variable_3'
p420
ag17
ag32
ag222
ag37
ag9
ag5
ag7
aS'variable_3'
p421
ag17
ag32
ag224
ag37
ag9
ag5
ag7
aS'variable_3'
p422
ag17
ag32
ag226
ag37
ag17
ag19
aaa(lp423
I1
aI1
aa(lp424
I207
aI120
aa(lp425
(lp426
S'main'
p427
aa(lp428
g427
aaa(lp429
S'550 /home/SySeVR/data/CVE_2013_7023_VULN_ff_combine_frame.c memcpy 44'
p430
aS'551 /home/SySeVR/data/CVE_2013_7023_VULN_ff_combine_frame.c memcpy 28'
p431
aa.