(lp0
(lp1
(lp2
S'int'
p3
aS'func_0'
p4
aS'('
p5
aS'variable_0'
p6
aS'*'
p7
aS'variable_1'
p8
aS','
p9
aS'int'
p10
aS'variable_2'
p11
ag9
aS'const'
p12
aS'uint8_t'
p13
ag7
ag7
aS'variable_3'
p14
ag9
aS'int'
p15
ag7
aS'variable_4'
p16
aS')'
p17
aS'for'
p18
ag5
aS';'
p19
aS'variable_1'
p20
aS'->'
p21
aS'variable_5'
p22
aS'>'
p23
aS'0'
p24
ag19
aS'variable_1'
p25
aS'->'
p26
aS'variable_5'
p27
aS'--'
p28
ag17
aS'variable_1'
p29
aS'->'
p30
aS'variable_6'
p31
aS'['
p32
aS'variable_1'
p33
aS'->'
p34
aS'variable_7'
p35
aS'++'
p36
aS']'
p37
aS'='
p38
aS'variable_1'
p39
aS'->'
p40
aS'variable_6'
p41
ag32
aS'variable_1'
p42
aS'->'
p43
aS'variable_8'
p44
aS'++'
p45
ag37
ag19
aS'if'
p46
ag5
aS'!'
p47
ag7
aS'variable_4'
p48
aS'&&'
p49
aS'variable_2'
p50
aS'=='
p51
aS'variable_9'
p52
ag17
aS'variable_2'
p53
ag38
ag24
ag19
aS'variable_1'
p54
aS'->'
p55
aS'variable_10'
p56
ag38
aS'variable_1'
p57
aS'->'
p58
aS'variable_7'
p59
ag19
aS'if'
p60
ag5
aS'variable_2'
p61
aS'=='
p62
aS'variable_9'
p63
ag17
aS'void'
p64
ag7
aS'variable_11'
p65
ag38
aS'func_1'
p66
ag5
aS'variable_1'
p67
aS'->'
p68
aS'variable_6'
p69
ag9
aS'&'
p70
aS'variable_1'
p71
aS'->'
p72
aS'variable_12'
p73
ag9
ag5
ag7
aS'variable_4'
p74
ag17
aS'+'
p75
aS'variable_1'
p76
aS'->'
p77
aS'variable_7'
p78
ag75
aS'variable_13'
p79
ag17
ag19
aS'if'
p80
ag5
ag47
aS'variable_11'
p81
ag17
aS'variable_1'
p82
aS'->'
p83
aS'variable_6'
p84
ag38
aS'variable_11'
p85
ag19
aS'memcpy'
p86
ag5
ag70
aS'variable_1'
p87
aS'->'
p88
aS'variable_6'
p89
ag32
aS'variable_1'
p90
aS'->'
p91
aS'variable_7'
p92
ag37
ag9
ag7
aS'variable_3'
p93
ag9
ag7
aS'variable_4'
p94
ag17
ag19
aS'variable_1'
p95
aS'->'
p96
aS'variable_7'
p97
aS'+='
p98
ag7
aS'variable_4'
p99
ag19
ag7
aS'variable_4'
p100
ag38
aS'variable_1'
p101
aS'->'
p102
aS'variable_8'
p103
ag38
aS'variable_1'
p104
aS'->'
p105
aS'variable_7'
p106
ag75
aS'variable_2'
p107
ag19
aS'if'
p108
ag5
aS'variable_1'
p109
aS'->'
p110
aS'variable_7'
p111
ag17
aS'void'
p112
ag7
aS'variable_11'
p113
ag38
aS'func_2'
p114
ag5
aS'variable_1'
p115
aS'->'
p116
aS'variable_6'
p117
ag9
ag70
aS'variable_1'
p118
aS'->'
p119
aS'variable_12'
p120
ag9
aS'variable_2'
p121
ag75
aS'variable_1'
p122
aS'->'
p123
aS'variable_7'
p124
ag75
aS'variable_13'
p125
ag17
ag19
aS'if'
p126
ag5
ag47
aS'variable_11'
p127
ag17
aS'variable_1'
p128
aS'->'
p129
aS'variable_6'
p130
ag38
aS'variable_11'
p131
ag19
aS'if'
p132
ag5
aS'variable_2'
p133
ag23
aS'-'
p134
aS'variable_13'
p135
ag17
aS'memcpy'
p136
ag5
ag70
aS'variable_1'
p137
aS'->'
p138
aS'variable_6'
p139
ag32
aS'variable_1'
p140
aS'->'
p141
aS'variable_7'
p142
ag37
ag9
ag7
aS'variable_3'
p143
ag9
aS'variable_2'
p144
ag75
aS'variable_13'
p145
ag17
ag19
aS'variable_1'
p146
aS'->'
p147
aS'variable_7'
p148
ag38
ag24
ag19
aS'for'
p149
ag5
ag19
aS'variable_2'
p150
aS'<'
p151
ag24
ag19
aS'variable_2'
p152
aS'++'
p153
ag17
aS'variable_1'
p154
aS'->'
p155
aS'variable_14'
p156
ag38
ag5
aS'variable_1'
p157
aS'->'
p158
aS'variable_14'
p159
aS'<<'
p160
aS'8'
p161
ag17
aS'|'
p162
aS'variable_1'
p163
aS'->'
p164
aS'variable_6'
p165
ag32
aS'variable_1'
p166
aS'->'
p167
aS'variable_10'
p168
ag75
aS'variable_2'
p169
ag37
ag19
aS'variable_1'
p170
aS'->'
p171
aS'variable_15'
p172
ag38
ag5
aS'variable_1'
p173
aS'->'
p174
aS'variable_15'
p175
aS'<<'
p176
ag161
ag17
ag162
aS'variable_1'
p177
aS'->'
p178
aS'variable_6'
p179
ag32
aS'variable_1'
p180
aS'->'
p181
aS'variable_10'
p182
ag75
aS'variable_2'
p183
ag37
ag19
aS'variable_1'
p184
aS'->'
p185
aS'variable_5'
p186
aS'++'
p187
ag19
aS'if'
p188
ag5
aS'variable_1'
p189
aS'->'
p190
aS'variable_5'
p191
ag17
aS'func_3'
p192
ag5
aS'NULL'
p193
ag9
aS'"'
p194
aS'overread'
p195
aS'%'
p196
aS'd'
p197
ag9
aS'state'
p198
aS':'
p199
ag196
aS'X'
p200
aS'next'
p201
ag199
ag196
ag197
aS'index'
p202
ag199
ag196
ag197
aS'o_index'
p203
ag199
ag196
ag197
aS'\\'
p204
aS'n'
p205
ag194
ag9
aS'variable_1'
p206
aS'->'
p207
aS'variable_5'
p208
ag9
aS'variable_1'
p209
aS'->'
p210
aS'variable_14'
p211
ag9
aS'variable_2'
p212
ag9
aS'variable_1'
p213
aS'->'
p214
aS'variable_7'
p215
ag9
aS'variable_1'
p216
aS'->'
p217
aS'variable_8'
p218
ag17
ag19
aa(lp219
S'int'
p220
aS'func_0'
p221
ag5
aS'variable_0'
p222
ag7
aS'variable_1'
p223
ag9
aS'int'
p224
aS'variable_2'
p225
ag9
aS'const'
p226
aS'uint8_t'
p227
ag7
ag7
aS'variable_3'
p228
ag9
aS'int'
p229
ag7
aS'variable_4'
p230
ag17
aS'for'
p231
ag5
ag19
aS'variable_1'
p232
aS'->'
p233
aS'variable_5'
p234
ag23
ag24
ag19
aS'variable_1'
p235
aS'->'
p236
aS'variable_5'
p237
aS'--'
p238
ag17
aS'variable_1'
p239
aS'->'
p240
aS'variable_6'
p241
ag32
aS'variable_1'
p242
aS'->'
p243
aS'variable_7'
p244
aS'++'
p245
ag37
ag38
aS'variable_1'
p246
aS'->'
p247
aS'variable_6'
p248
ag32
aS'variable_1'
p249
aS'->'
p250
aS'variable_8'
p251
aS'++'
p252
ag37
ag19
aS'if'
p253
ag5
ag47
ag7
aS'variable_4'
p254
aS'&&'
p255
aS'variable_2'
p256
aS'=='
p257
aS'variable_9'
p258
ag17
aS'variable_2'
p259
ag38
ag24
ag19
aS'variable_1'
p260
aS'->'
p261
aS'variable_10'
p262
ag38
aS'variable_1'
p263
aS'->'
p264
aS'variable_7'
p265
ag19
aS'if'
p266
ag5
aS'variable_2'
p267
aS'=='
p268
aS'variable_9'
p269
ag17
aS'void'
p270
ag7
aS'variable_11'
p271
ag38
aS'func_1'
p272
ag5
aS'variable_1'
p273
aS'->'
p274
aS'variable_6'
p275
ag9
ag70
aS'variable_1'
p276
aS'->'
p277
aS'variable_12'
p278
ag9
ag5
ag7
aS'variable_4'
p279
ag17
ag75
aS'variable_1'
p280
aS'->'
p281
aS'variable_7'
p282
ag75
aS'variable_13'
p283
ag17
ag19
aS'if'
p284
ag5
ag47
aS'variable_11'
p285
ag17
aS'variable_1'
p286
aS'->'
p287
aS'variable_6'
p288
ag38
aS'variable_11'
p289
ag19
aS'memcpy'
p290
ag5
ag70
aS'variable_1'
p291
aS'->'
p292
aS'variable_6'
p293
ag32
aS'variable_1'
p294
aS'->'
p295
aS'variable_7'
p296
ag37
ag9
ag7
aS'variable_3'
p297
ag9
ag7
aS'variable_4'
p298
ag17
ag19
aS'variable_1'
p299
aS'->'
p300
aS'variable_7'
p301
aS'+='
p302
ag7
aS'variable_4'
p303
ag19
ag7
aS'variable_4'
p304
ag38
aS'variable_1'
p305
aS'->'
p306
aS'variable_8'
p307
ag38
aS'variable_1'
p308
aS'->'
p309
aS'variable_7'
p310
ag75
aS'variable_2'
p311
ag19
aS'if'
p312
ag5
aS'variable_1'
p313
aS'->'
p314
aS'variable_7'
p315
ag17
aS'void'
p316
ag7
aS'variable_11'
p317
ag38
aS'func_2'
p318
ag5
aS'variable_1'
p319
aS'->'
p320
aS'variable_6'
p321
ag9
ag70
aS'variable_1'
p322
aS'->'
p323
aS'variable_12'
p324
ag9
aS'variable_2'
p325
ag75
aS'variable_1'
p326
aS'->'
p327
aS'variable_7'
p328
ag75
aS'variable_13'
p329
ag17
ag19
aS'if'
p330
ag5
ag47
aS'variable_11'
p331
ag17
aS'variable_1'
p332
aS'->'
p333
aS'variable_6'
p334
ag38
aS'variable_11'
p335
ag19
aS'memcpy'
p336
ag5
ag70
aS'variable_1'
p337
aS'->'
p338
aS'variable_6'
p339
ag32
aS'variable_1'
p340
aS'->'
p341
aS'variable_7'
p342
ag37
ag9
ag7
aS'variable_3'
p343
ag9
aS'variable_2'
p344
ag75
aS'variable_13'
p345
ag17
ag19
aS'variable_1'
p346
aS'->'
p347
aS'variable_7'
p348
ag38
ag24
ag19
ag7
aS'variable_3'
p349
ag38
aS'variable_1'
p350
aS'->'
p351
aS'variable_6'
p352
ag19
aS'variable_1'
p353
aS'->'
p354
aS'variable_14'
p355
ag38
ag5
aS'variable_1'
p356
aS'->'
p357
aS'variable_14'
p358
aS'<<'
p359
ag161
ag17
ag162
aS'variable_1'
p360
aS'->'
p361
aS'variable_6'
p362
ag32
aS'variable_1'
p363
aS'->'
p364
aS'variable_10'
p365
ag75
aS'variable_2'
p366
ag37
ag19
aS'variable_1'
p367
aS'->'
p368
aS'variable_15'
p369
ag38
ag5
aS'variable_1'
p370
aS'->'
p371
aS'variable_15'
p372
aS'<<'
p373
ag161
ag17
ag162
aS'variable_1'
p374
aS'->'
p375
aS'variable_6'
p376
ag32
aS'variable_1'
p377
aS'->'
p378
aS'variable_10'
p379
ag75
aS'variable_2'
p380
ag37
ag19
aS'variable_1'
p381
aS'->'
p382
aS'variable_5'
p383
aS'++'
p384
ag19
aS'if'
p385
ag5
aS'variable_1'
p386
aS'->'
p387
aS'variable_5'
p388
ag17
aS'func_3'
p389
ag5
aS'NULL'
p390
ag9
ag194
aS'overread'
p391
ag196
ag197
ag9
aS'state'
p392
ag199
ag196
ag200
aS'next'
p393
ag199
ag196
ag197
aS'index'
p394
ag199
ag196
ag197
aS'o_index'
p395
ag199
ag196
ag197
ag204
ag205
ag194
ag9
aS'variable_1'
p396
aS'->'
p397
aS'variable_5'
p398
ag9
aS'variable_1'
p399
aS'->'
p400
aS'variable_14'
p401
ag9
aS'variable_2'
p402
ag9
aS'variable_1'
p403
aS'->'
p404
aS'variable_7'
p405
ag9
aS'variable_1'
p406
aS'->'
p407
aS'variable_8'
p408
ag17
ag19
aS'func_4'
p409
ag5
aS'NULL'
p410
ag9
ag194
ag196
ag200
ag196
ag200
ag196
ag200
ag196
ag200
ag204
ag205
ag194
ag9
ag5
ag7
aS'variable_3'
p411
ag17
ag32
ag24
ag37
ag9
ag5
ag7
aS'variable_3'
p412
ag17
ag32
aS'1'
p413
ag37
ag9
ag5
ag7
aS'variable_3'
p414
ag17
ag32
aS'2'
p415
ag37
ag9
ag5
ag7
aS'variable_3'
p416
ag17
ag32
aS'3'
p417
ag37
ag17
ag19
aaa(lp418
I0
aI0
aa(lp419
I287
aI157
aa(lp420
(lp421
S'main'
p422
aa(lp423
g422
aaa(lp424
S'592 /home/SySeVR/data/CVE_2013_7023_VULN_ff_combine_frame.c pc -> state64 = ( pc -> state64 << 8 ) | pc -> buffer [ pc -> last_index + next ] 53'
p425
aS'594 /home/SySeVR/data/CVE_2013_7023_VULN_ff_combine_frame.c * buf_size = pc -> overread_index = pc -> index + next 33'
p426
aa.