(dp0
S'CVE_2013_2547_VULN_crypto_report_one.c'
p1
(dp2
sS'CVE_2014_1522_VULN_ComputeCustom.c'
p3
(dp4
sS'CVE_2011_4594_PATCHED___sys_sendmsg.c'
p5
(dp6
sS'CVE_2013_4079_VULN_dissect_schedule_message.c'
p7
(dp8
sS'CVE_2013_0777_VULN_nsCSSRendering__PaintBoxShadowOuter.c'
p9
(dp10
sS'CVE_2014_7937_PATCHED_vorbis_residue_decode_internal.c'
p11
(dp12
sS'CVE_2011_3003_VULN_ZeroDataIfElementArray.c'
p13
(dp14
sS'CVE_2011_1592_PATCHED_dissect_nfs_clientaddr4.c'
p15
(dp16
sS'CVE_2011_1044_VULN_ib_uverbs_poll_cq.c'
p17
(dp18
sS'CVE_2010_3876_VULN_packet_getname.c'
p19
(dp20
sS'CVE_2013_1678_PATCHED__cairo_xlib_surface_add_glyph.c'
p21
(dp22
sS'CVE_2013_1920_PATCHED_get_free_port.c'
p23
(dp24
sS'CVE_2014_2289_PATCHED_copy_body_types.c'
p25
(dp26
sS'CVE_2014_5472_PATCHED_isofs_read_inode.c'
p27
(dp28
sS'CVE_2011_4598_PATCHED_handle_request_info.c'
p29
(dp30
sS'CVE_2011_2689_VULN_gfs2_fallocate.c'
p31
(dp32
sS'CVE_2011_3003_PATCHED_CopyDataIfElementArray.c'
p33
(dp34
sS'CVE_2009_1336_PATCHED_nfs_init_server.c'
p35
(dp36
sS'CVE_2012_6617_PATCHED_prepare_sdp_description.c'
p37
(dp38
sS'CVE_2012_4298_VULN_vwr_read_rec_data_ethernet.c'
p39
(dp40
sS'CVE_2010_3429_VULN_flic_decode_frame_8BPP.c'
p41
(dp42
sS'CVE_2013_1828_VULN_sctp_getsockopt_assoc_stats.c'
p43
(dp44
sS'CVE_2013_6378_VULN_lbs_debugfs_write.c'
p45
(dp46
sS'CVE_2011_2588_PATCHED_AVI_ChunkRead_strf.c'
p47
(dp48
sS'CVE_2012_5532_VULN_main.c'
p49
(dp50
sS'CVE_2010_3875_PATCHED_ax25_getname.c'
p51
(dp52
sS'CVE_2012_4298_PATCHED_vwr_read_rec_data_ethernet.c'
p53
(dp54
sS'CVE_2013_7024_PATCHED_jpeg2000_decode_tile.c'
p55
(dp56
sS'CVE_2011_3000_VULN_nsHttpHeaderArray__ParseHeaderLine.c'
p57
(dp58
sS'CVE_2009_1439_PATCHED_CIFSTCon.c'
p59
(dp60
sS'CVE_2013_0750_VULN_ReplaceRegExpCallback.c'
p61
(dp62
sS'CVE_2005_3356_PATCHED_sys_mq_open.c'
p63
(dp64
sS'CVE_2013_1707_PATCHED_NS_main.c'
p65
(dp66
sS'CVE_2013_2547_PATCHED_crypto_report_one.c'
p67
(dp68
sS'CVE_2011_1138_VULN_dissect_6lowpan_hc1.c'
p69
(dp70
sS'CVE_2010_2805_PATCHED_FT_Stream_EnterFrame.c'
p71
(dp72
sS'CVE_2013_6378_PATCHED_lbs_debugfs_write.c'
p73
(dp74
sS'CVE_2011_4101_VULN_dissect_infiniband_common.c'
p75
(dp76
sS'CVE_2013_7268_PATCHED_ipx_recvmsg.c'
p77
(dp78
sS'CVE_2015_6246_PATCHED_dissect_wa_payload.c'
p79
(dp80
sS'CVE_2011_3363_PATCHED_cifs_mount.c'
p81
(dp82
sS'CVE_2011_1138_PATCHED_dissect_6lowpan_iphc.c'
p83
(dp84
sS'CVE_2015_2922_PATCHED_ndisc_router_discovery.c'
p85
(dp86
sS'CVE_2015_0228_VULN_lua_websocket_read.c'
p87
(dp88
sS'CVE_2008_0420_PATCHED_nsBMPDecoder__ProcessData.c'
p89
(dp90
sS'CVE_2013_4514_VULN_wvlan_set_station_nickname.c'
p91
(dp92
sS'CVE_2012_2669_VULN_main.c'
p93
(dp94
sS'CVE_2014_2889_VULN_bpf_jit_compile.c'
p95
(dp96
sS'CVE_2010_4649_VULN_ib_uverbs_poll_cq.c'
p97
(dp98
sS'CVE-2016-4002_VULN_mipsnet_receive.c'
p99
(dp100
sS'CVE_2013_7017_PATCHED_ff_jpeg2000_cleanup.c'
p101
(dp102
sS'CVE_2013_3670_VULN_rle_unpack.c'
p103
(dp104
sS'CVE_2012_1960_PATCHED_compute_curve_gamma_table_type_parametric.c'
p105
(dp106
sS'CVE_2013_0874_VULN_doubles2str.c'
p107
(dp108
sS'CVE_2012_4186_PATCHED_nsWaveReader__LoadFormatChunk.c'
p109
(dp110
sS'CVE-2016-2213_VULN_jpeg2000_decode_tile.c'
p111
(dp112
sS'CVE_2010_2068_PATCHED_ap_proxy_http_process_response.c'
p113
(dp114
sS'CVE_2014_8369_PATCHED_kvm_pin_pages.c'
p115
(dp116
sS'CVE_2015_0833_VULN_UpdateThreadFunc.c'
p117
(dp118
sS'CVE_2012_2390_PATCHED_hugetlb_reserve_pages.c'
p119
(dp120
sS'CVE_2013_1767_VULN_shmem_remount_fs.c'
p121
(dp122
sS'CVE_2013_0864_PATCHED_gif_copy_img_rect.c'
p123
(dp124
sS'CVE_2012_2776_PATCHED_decode_cell_data.c'
p125
(dp126
sS'CVE_2008_5134_PATCHED_lbs_process_bss.c'
p127
(dp128
sS'CVE_2013_0844_VULN_adpcm_decode_frame.c'
p129
(dp130
sS'CVE_2014_9679_VULN_cupsRasterReadPixels.c'
p131
(dp132
sS'CVE_2013_4921_PATCHED_dissect_radiotap.c'
p133
(dp134
sS'CVE_2014_2889_PATCHED_bpf_jit_compile.c'
p135
(dp136
sS'CVE_2013_0772_VULN_nsGIFDecoder2__OutputRow.c'
p137
(dp138
sS'CVE_2006_6106_VULN_cmtp_recv_interopmsg.c'
p139
(dp140
sS'CVE_2008_3915_PATCHED_init_state.c'
p141
(dp142
sS'CVE_2013_4516_PATCHED_mp_get_count.c'
p143
(dp144
sS'CVE_2015_3331_PATCHED___driver_rfc4106_decrypt.c'
p145
(dp146
sS'CVE_2009_1439_VULN_CIFSTCon.c'
p147
(dp148
sS'CVE_2012_0477_VULN_nsISO2022KRToUnicode__Convert.c'
p149
(dp150
sS'CVE_2013_2850_VULN_iscsi_add_notunderstood_response.c'
p151
(dp152
sS'CVE_2011_3973_PATCHED_cavs_decode_frame.c'
p153
(dp154
sS'CVE_2013_1588_PATCHED_dissect_pft_fec_detailed.c'
p155
(dp156
sS'CVE_2013_4563_PATCHED_udp6_ufo_fragment.c'
p157
(dp158
sS'CVE_2011_1175_VULN_handle_tcptls_connection.c'
p159
(dp160
sS'CVE_2013_4932_PATCHED_elem_lv.c'
p161
(dp162
sS'CVE_2013_7264_VULN_l2tp_ip_recvmsg.c'
p163
(dp164
sS'CVE_2015_3811_PATCHED_wcp_uncompress.c'
p165
(dp166
sS'CVE_2013_0851_PATCHED_decode_frame.c'
p167
(dp168
sS'CVE_2013_7264_PATCHED_l2tp_ip_recvmsg.c'
p169
(dp170
sS'CVE_2013_1726_PATCHED_mar_read_product_info_block.c'
p171
(dp172
sS'CVE_2011_0021_PATCHED_DecodeScroll.c'
p173
(dp174
sS'CVE_2013_1681_PATCHED_nsContentUtils__RemoveScriptBlocker.c'
p175
(dp176
sS'CVE_2015_6242_VULN_wmem_block_split_free_chunk.c'
p177
(dp178
sS'CVE_2013_2850_PATCHED_iscsi_add_notunderstood_response.c'
p179
(dp180
sS'CVE_2013_0761_PATCHED_CopyTrackData.c'
p181
(dp182
sS'CVE_2013_1583_PATCHED_dissect_version_4_primary_header.c'
p183
(dp184
sS'CVE_2011_0726_VULN_do_task_stat.c'
p185
(dp186
sS'CVE_2013_2486_PATCHED_dissect_diagnosticrequest.c'
p187
(dp188
sS'CVE_2014_7145_PATCHED_SMB2_tcon.c'
p189
(dp190
sS'CVE_2013_0782_PATCHED_nsSaveAsCharset__DoCharsetConversion.c'
p191
(dp192
sS'CVE_2009_2844_VULN_cmp_ies.c'
p193
(dp194
sS'CVE_2010_2521_PATCHED_nfsd4_decode_compound.c'
p195
(dp196
sS'CVE_2008_2826_VULN_sctp_getsockopt_local_addrs_old.c'
p197
(dp198
sS'CVE_2006_6333_PATCHED_tr_rx.c'
p199
(dp200
sS'CVE_2013_0868_VULN_read_old_huffman_tables.c'
p201
(dp202
sS'CVE_2015_1158_PATCHED_print_job.c'
p203
(dp204
sS'CVE_2012_2783_VULN_ff_vp56_decode_frame.c'
p205
(dp206
sS'CVE_2012_5669_PATCHED__bdf_parse_glyphs.c'
p207
(dp208
sS'CVE_2009_2846_PATCHED_eisa_eeprom_read.c'
p209
(dp210
sS'CVE_2012_6547_PATCHED___tun_chr_ioctl.c'
p211
(dp212
sS'CVE_2013_7014_PATCHED_add_bytes_l2_c.c'
p213
(dp214
sS'CVE-2016-2328_VULN_bayer_to_yv12_wrapper.c'
p215
(dp216
sS'CVE_2010_2431_VULN_cupsFileOpen.c'
p217
(dp218
sS'CVE_2012_6616_VULN_mov_text_decode_frame.c'
p219
(dp220
sS'CVE_2011_2174_PATCHED_tvb_uncompress.c'
p221
(dp222
sS'CVE_2013_4470_PATCHED_ip_ufo_append_data.c'
p223
(dp224
sS'CVE_2010_0307_PATCHED_load_elf_binary.c'
p225
(dp226
sS'CVE_2014_3631_PATCHED_assoc_array_gc.c'
p227
(dp228
sS'CVE_2015_1158_VULN_release_job.c'
p229
(dp230
sS'CVE_2013_5593_VULN_nsComboboxControlFrame__AbsolutelyPositionDropDown.c'
p231
(dp232
sS'CVE_2014_8546_VULN_cinepak_decode_vectors.c'
p233
(dp234
sS'CVE_2009_1385_PATCHED_e1000_clean_rx_irq.c'
p235
(dp236
sS'CVE_2011_1747_VULN_agp_allocate_memory.c'
p237
(dp238
sS'CVE_2013_1588_VULN_dissect_pft_fec_detailed.c'
p239
(dp240
sS'CVE_2012_2390_PATCHED_hugetlb_vm_op_close.c'
p241
(dp242
sS'CVE_2013_0856_PATCHED_lpc_prediction.c'
p243
(dp244
sS'CVE_2011_0021_VULN_DecodeTileBlock.c'
p245
(dp246
sS'CVE_2014_0221_PATCHED_dtls1_get_message_fragment.c'
p247
(dp248
sS'CVE_2009_3080_PATCHED_gdth_read_event.c'
p249
(dp250
sS'CVE_2013_0792_PATCHED_qcms_transform_create.c'
p251
(dp252
sS'CVE_2013_0756_PATCHED_obj_toSource.c'
p253
(dp254
sS'CVE_2011_3934_PATCHED_vp3_update_thread_context.c'
p255
(dp256
sS'CVE_2011_3936_VULN_dv_extract_audio.c'
p257
(dp258
sS'CVE_2006_2448_VULN_restore_sigcontext.c'
p259
(dp260
sS'CVE_2010_3849_PATCHED_econet_sendmsg.c'
p261
(dp262
sS'CVE_2013_3670_PATCHED_rle_unpack.c'
p263
(dp264
sS'CVE_2014_1508_VULN_nsDisplayNotation__Paint.c'
p265
(dp266
sS'CVE_2013_0772_PATCHED_nsGIFDecoder2__DoLzw.c'
p267
(dp268
sS'CVE_2012_2100_VULN_ext4_fill_flex_info.c'
p269
(dp270
sS'CVE_2009_2909_PATCHED_ax25_setsockopt.c'
p271
(dp272
sS'CVE_2009_2909_VULN_ax25_setsockopt.c'
p273
(dp274
sS'CVE_2007_1217_VULN_bufprint.c'
p275
(dp276
sS'CVE_2014_0160_VULN_dtls1_process_heartbeat.c'
p277
(dp278
sS'CVE_2013_7017_VULN_ff_jpeg2000_init_component.c'
p279
(dp280
sS'CVE_2013_4076_PATCHED_dissect_iphc_crtp_fh.c'
p281
(dp282
sS'CVE-2015-1872_VULN_ff_mjpeg_decode_sof.c'
p283
(dp284
sS'CVE_2011_3002_PATCHED_GrowAtomTable.c'
p285
(dp286
sS'CVE_2010_2500_PATCHED_gray_render_span.c'
p287
(dp288
sS'CVE_2011_2588_VULN_AVI_ChunkRead_strf.c'
p289
(dp290
sS'CVE_2013_4470_VULN_ip6_ufo_append_data.c'
p291
(dp292
sS'CVE_2011_3003_VULN_CopyDataIfElementArray.c'
p293
(dp294
sS'CVE_2006_5751_PATCHED_get_fdb_entries.c'
p295
(dp296
sS'CVE_2010_3864_VULN_ssl_parse_clienthello_tlsext.c'
p297
(dp298
sS'CVE_2013_4933_PATCHED_netmon_open.c'
p299
(dp300
sS'CVE_2010_2521_PATCHED_read_buf.c'
p301
(dp302
sS'CVE_2009_2484_VULN_Win32AddConnection.c'
p303
(dp304
sS'CVE_2011_0021_VULN_DecodeScroll.c'
p305
(dp306
sS'CVE_2013_0792_VULN_qcms_transform_create.c'
p307
(dp308
sS'CVE_2010_3904_VULN_rds_page_copy_user.c'
p309
(dp310
sS'CVE_2013_0868_PATCHED_read_old_huffman_tables.c'
p311
(dp312
sS'CVE_2014_4608_VULN_lzo1x_decompress_safe.c'
p313
(dp314
sS'CVE_2010_3429_PATCHED_flic_decode_frame_15_16BPP.c'
p315
(dp316
sS'CVE_2012_1184_VULN_ast_parse_digest.c'
p317
(dp318
sS'CVE_2012_2797_PATCHED_decode_frame_mp3on4.c'
p319
(dp320
sS'CVE_2013_0867_PATCHED_decode_slice_header.c'
p321
(dp322
sS'CVE_2015_3331_VULN___driver_rfc4106_decrypt.c'
p323
(dp324
sS'CVE_2013_6380_PATCHED_aac_send_raw_srb.c'
p325
(dp326
sS'CVE-2016-2327_VULN_apng_encode_frame.c'
p327
(dp328
sS'CVE_2009_1298_PATCHED_ip_frag_reasm.c'
p329
(dp330
sS'CVE_2011_3363_VULN_cifs_mount.c'
p331
(dp332
sS'CVE_2013_7010_PATCHED_add_bytes_c.c'
p333
(dp334
sS'CVE_2009_3888_PATCHED_do_mmap_pgoff.c'
p335
(dp336
sS'CVE_2009_2844_PATCHED_cmp_ies.c'
p337
(dp338
sS'CVE_2013_4470_PATCHED_ip6_ufo_append_data.c'
p339
(dp340
sS'CVE_2014_9743_PATCHED_httpd_HtmlError.c'
p341
(dp342
sS'CVE_2014_9679_PATCHED_cupsRasterReadPixels.c'
p343
(dp344
sS'CVE_2014_0069_PATCHED_cifs_iovec_write.c'
p345
(dp346
sS'CVE_2015_3809_PATCHED_dissect_lbmr_pser.c'
p347
(dp348
sS'CVE_2009_0946_PATCHED_tt_cmap8_validate.c'
p349
(dp350
sS'CVE_2012_1960_PATCHED_build_input_gamma_table.c'
p351
(dp352
sS'CVE_2009_4410_PATCHED_fuse_ioctl_copy_user.c'
p353
(dp354
sS'CVE_2012_1183_PATCHED_milliwatt_generate.c'
p355
(dp356
sS'CVE_2012_3969_PATCHED_nsSVGFEMorphologyElement__Filter.c'
p357
(dp358
sS'CVE_2010_2962_PATCHED_i915_gem_gtt_pwrite_fast.c'
p359
(dp360
sS'CVE_2013_7009_VULN_rpza_decode_stream.c'
p361
(dp362
sS'CVE_2014_7825_PATCHED_perf_syscall_enter.c'
p363
(dp364
sS'CVE_2011_2998_VULN_ExecuteREBytecode.c'
p365
(dp366
sS'CVE_2010_4165_VULN_do_tcp_setsockopt.c'
p367
(dp368
sS'CVE_2015_6249_PATCHED_dissect_wccp2r1_address_table_info.c'
p369
(dp370
sS'CVE_2014_8643_VULN_XRE_InitChildProcess.c'
p371
(dp372
sS'CVE_2006_5751_VULN_get_fdb_entries.c'
p373
(dp374
sS'CVE_2010_4649_PATCHED_ib_uverbs_poll_cq.c'
p375
(dp376
sS'CVE_2013_0850_PATCHED_decode_slice_header.c'
p377
(dp378
sS'CVE_2015_3808_VULN_dissect_lbmr_pser.c'
p379
(dp380
sS'CVE_2013_3674_VULN_cdg_decode_frame.c'
p381
(dp382
sS'CVE_2011_3936_PATCHED_dv_extract_audio.c'
p383
(dp384
sS'CVE_2014_8713_VULN_build_expert_data.c'
p385
(dp386
sS'CVE_2007_3642_VULN_decode_seq.c'
p387
(dp388
sS'CVE_2013_7013_VULN_g2m_init_buffers.c'
p389
(dp390
sS'CVE_2014_5163_PATCHED_decode_apn.c'
p391
(dp392
sS'CVE_2010_3848_VULN_econet_sendmsg.c'
p393
(dp394
sS'CVE_2012_2652_VULN_bdrv_open.c'
p395
(dp396
sS'CVE_2011_1495_VULN__ctl_diag_read_buffer.c'
p397
(dp398
sS'CVE_2010_3015_PATCHED_ext4_ext_get_blocks.c'
p399
(dp400
sS'CVE_2013_0799_VULN_ProcessSoftwareUpdateCommand.c'
p401
(dp402
sS'CVE_2009_4138_PATCHED_ohci_queue_iso_receive_packet_per_buffer.c'
p403
(dp404
sS'CVE_2013_7017_PATCHED_ff_jpeg2000_init_component.c'
p405
(dp406
sS'CVE_2011_1010_VULN_mac_partition.c'
p407
(dp408
sS'CVE_2007_4521_PATCHED_play_message.c'
p409
(dp410
sS'CVE_2011_1495_PATCHED__ctl_do_mpt_command.c'
p411
(dp412
sS'CVE_2013_1707_VULN_NS_main.c'
p413
(dp414
sS'CVE_2012_4293_PATCHED_dissect_ecat_eoe.c'
p415
(dp416
sS'CVE_2008_1390_VULN_generic_http_callback.c'
p417
(dp418
sS'CVE_2013_0311_VULN_translate_desc.c'
p419
(dp420
sS'CVE_2013_0859_VULN_add_doubles_metadata.c'
p421
(dp422
sS'CVE_2012_3553_PATCHED_setsubstate.c'
p423
(dp424
sS'CVE_2011_1147_VULN_udptl_rx_packet.c'
p425
(dp426
sS'CVE_2013_5642_VULN_process_sdp.c'
p427
(dp428
sS'CVE_2014_0160_PATCHED_tls1_process_heartbeat.c'
p429
(dp430
sS'CVE_2013_7270_VULN_packet_recvmsg.c'
p431
(dp432
sS'CVE_2013_1693_VULN_nsSVGFEMorphologyElement__Filter.c'
p433
(dp434
sS'CVE_2013_4516_VULN_mp_get_count.c'
p435
(dp436
sS'CVE_2011_3973_VULN_cavs_decode_frame.c'
p437
(dp438
sS'CVE_2012_6542_VULN_llc_ui_getname.c'
p439
(dp440
sS'CVE_2013_1767_PATCHED_shmem_remount_fs.c'
p441
(dp442
sS'CVE_2008_2826_PATCHED_sctp_getsockopt_local_addrs_old.c'
p443
(dp444
sS'CVE_2013_0777_PATCHED_nsCSSRendering__PaintBoxShadowOuter.c'
p445
(dp446
sS'CVE_2015_3395_VULN_msrle_decode_pal4.c'
p447
(dp448
sS'CVE_2012_6542_PATCHED_llc_ui_getname.c'
p449
(dp450
sS'CVE_2014_9374_PATCHED_AST_OPTIONAL_API_NAME.c'
p451
(dp452
sS'CVE_2010_3429_VULN_flic_decode_frame_15_16BPP.c'
p453
(dp454
sS'CVE_2013_7010_VULN_diff_bytes_c.c'
p455
(dp456
sS'CVE_2014_9657_PATCHED_tt_face_load_hdmx.c'
p457
(dp458
sS'CVE_2014_9676_PATCHED_seg_write_packet.c'
p459
(dp460
sS'CVE_2010_4342_VULN_aun_incoming.c'
p461
(dp462
sS'CVE_2010_1437_PATCHED_find_keyring_by_name.c'
p463
(dp464
sS'CVE_2012_5237_PATCHED_dissect_hsrp.c'
p465
(dp466
sS'CVE_2010_2498_PATCHED_psh_glyph_find_strong_points.c'
p467
(dp468
sS'CVE_2009_4138_VULN_ohci_queue_iso_receive_packet_per_buffer.c'
p469
(dp470
sS'CVE_2012_3969_VULN_nsSVGFEMorphologyElement__Filter.c'
p471
(dp472
sS'CVE_2014_3185_PATCHED_command_port_read_callback.c'
p473
(dp474
sS'CVE_2012_1594_PATCHED_dissect_rsn_ie.c'
p475
(dp476
sS'CVE_2013_7023_VULN_ff_combine_frame.c'
p477
(dp478
sS'CVE_2008_3686_VULN_rt6_fill_node.c'
p479
(dp480
sS'CVE_2013_1676_VULN_nsBidiPresUtils__ResolveParagraph.c'
p481
(dp482
sS'CVE_2010_1224_PATCHED_ast_append_ha.c'
p483
(dp484
sS'CVE_2009_2287_VULN_kvm_arch_vcpu_ioctl_set_sregs.c'
p485
(dp486
sS'CVE_2011_1023_PATCHED_rds_loop_xmit.c'
p487
(dp488
sS'CVE_2011_3648_VULN_nsShiftJISToUnicode__Convert.c'
p489
(dp490
sS'CVE_2014_3523_PATCHED_winnt_accept.c'
p491
(dp492
sS'CVE_2011_3945_PATCHED_decode_frame.c'
p493
(dp494
sS'CVE_2010_2500_VULN_gray_render_span.c'
p495
(dp496
sS'CVE_2013_4591_PATCHED___nfs4_get_acl_uncached.c'
p497
(dp498
sS'CVE_2013_4534_PATCHED_openpic_load.c'
p499
(dp500
sS'CVE_2004_1151_PATCHED_sys32_ni_syscall.c'
p501
(dp502
sS'CVE_2009_4307_PATCHED_ext4_fill_flex_info.c'
p503
(dp504
sS'CVE_2013_1708_VULN_WaveReader__LoadListChunk.c'
p505
(dp506
sS'CVE_2006_2935_VULN_dvd_read_bca.c'
p507
(dp508
sS'CVE_2010_2962_VULN_i915_gem_gtt_pwrite_fast.c'
p509
(dp510
sS'CVE_2013_7270_PATCHED_packet_recvmsg.c'
p511
(dp512
sS'CVE_2011_2587_VULN_DemuxAudioSipr.c'
p513
(dp514
sS'CVE_2014_1509_VULN__cairo_dwrite_load_truetype_table.c'
p515
(dp516
sS'CVE_2012_1097_PATCHED_fill_thread_core_info.c'
p517
(dp518
sS'CVE_2012_2790_VULN_read_var_block_data.c'
p519
(dp520
sS'CVE_2006_2448_PATCHED_restore_sigcontext.c'
p521
(dp522
sS'CVE_2010_3859_PATCHED_verify_iovec.c'
p523
(dp524
sS'CVE_2011_1592_VULN_dissect_nfs_clientaddr4.c'
p525
(dp526
sS'CVE_2012_3364_PATCHED_nci_extract_activation_params_iso_dep.c'
p527
(dp528
sS'CVE_2014_0221_VULN_dtls1_get_message_fragment.c'
p529
(dp530
sS'CVE_2012_4530_VULN_load_script.c'
p531
(dp532
sS'CVE_2012_6547_VULN___tun_chr_ioctl.c'
p533
(dp534
sS'CVE_2013_7010_PATCHED_diff_bytes_c.c'
p535
(dp536
sS'CVE_2012_4288_VULN_dissect_xtp_ecntl.c'
p537
(dp538
sS'CVE_2009_1336_PATCHED_nfs_create_server.c'
p539
(dp540
sS'CVE_2012_2390_VULN_hugetlb_reserve_pages.c'
p541
(dp542
sS'CVE_2015_3811_VULN_wcp_uncompress.c'
p543
(dp544
sS'CVE_2014_1497_VULN_WaveReader__LoadFormatChunk.c'
p545
(dp546
sS'CVE_2014_9743_VULN_httpd_HtmlError.c'
p547
(dp548
sS'CVE_2015_3339_PATCHED_prepare_binprm.c'
p549
(dp550
sS'CVE_2008_5134_VULN_lbs_process_bss.c'
p551
(dp552
sS'CVE_2013_7011_VULN_read_header.c'
p553
(dp554
sS'CVE_2004_1151_VULN_sys32_ni_syscall.c'
p555
(dp556
sS'CVE_2010_3904_PATCHED_rds_page_copy_user.c'
p557
(dp558
sS'CVE_2013_4932_PATCHED_elem_tv_short.c'
p559
(dp560
sS'CVE_2013_4163_VULN_ip6_append_data_mtu.c'
p561
(dp562
sS'CVE_2012_6618_VULN_av_probe_input_buffer.c'
p563
(dp564
sS'CVE_2013_1735_VULN_ImageDocument__ScrollImageTo.c'
p565
(dp566
sS'CVE_2009_0946_VULN_cff_charset_load.c'
p567
(dp568
sS'CVE_2010_4342_PATCHED_aun_incoming.c'
p569
(dp570
sS'CVE_2010_2495_VULN_pppol2tp_sendmsg.c'
p571
(dp572
sS'CVE_2011_4598_VULN_handle_request_info.c'
p573
(dp574
sS'CVE-2016-8658_VULN_brcmf_cfg80211_start_ap.c'
p575
(dp576
sS'CVE_2012_1183_VULN_milliwatt_generate.c'
p577
(dp578
sS'CVE_2011_3934_VULN_vp3_update_thread_context.c'
p579
(dp580
sS'CVE_2010_1224_VULN_ast_append_ha.c'
p581
(dp582
sS'CVE_2014_4655_PATCHED_snd_ctl_elem_add.c'
p583
(dp584
sS'CVE_2005_4886_VULN_selinux_parse_skb_ipv6.c'
p585
(dp586
sS'CVE_2014_4654_VULN_snd_ctl_elem_add.c'
p587
(dp588
sS'CVE_2010_3849_VULN_econet_sendmsg.c'
p589
(dp590
sS'CVE_2011_2689_PATCHED_gfs2_fallocate.c'
p591
(dp592
sS'CVE_2013_7268_VULN_ipx_recvmsg.c'
p593
(dp594
sS'CVE_2014_8709_VULN_ieee80211_fragment.c'
p595
(dp596
sS'CVE_2013_1584_PATCHED_dissect_version_5_and_6_primary_header.c'
p597
(dp598
sS'CVE_2013_4153_PATCHED_qemuAgentGetVCPUs.c'
p599
(dp600
sS'CVE_2011_3362_VULN_decode_residual_block.c'
p601
(dp602
sS'CVE_2010_3859_VULN_verify_iovec.c'
p603
(dp604
sS'CVE_2012_2375_VULN___nfs4_get_acl_uncached.c'
p605
(dp606
sS'CVE_2015_1158_VULN_authenticate_job.c'
p607
(dp608
sS'CVE_2011_1573_VULN_sctp_make_init_ack.c'
p609
(dp610
sS'CVE_2013_6381_PATCHED_qeth_snmp_command.c'
p611
(dp612
sS'CVE_2013_4082_VULN_vwr_read.c'
p613
(dp614
sS'CVE_2012_6617_VULN_prepare_sdp_description.c'
p615
(dp616
sS'CVE_2012_6538_PATCHED_copy_to_user_auth.c'
p617
(dp618
sS'CVE_2013_0859_PATCHED_add_doubles_metadata.c'
p619
(dp620
sS'CVE_2013_7022_VULN_g2m_init_buffers.c'
p621
(dp622
sS'CVE_2014_0160_VULN_tls1_process_heartbeat.c'
p623
(dp624
sS'CVE_2014_3183_VULN_logi_dj_ll_raw_request.c'
p625
(dp626
sS'CVE_2012_6618_PATCHED_av_probe_input_buffer.c'
p627
(dp628
sS'CVE_2013_0850_VULN_decode_slice_header.c'
p629
(dp630
sS'CVE_2013_1672_PATCHED_ProcessSoftwareUpdateCommand.c'
p631
(dp632
sS'CVE_2014_6427_PATCHED_is_rtsp_request_or_reply.c'
p633
(dp634
sS'CVE_2012_5237_VULN_dissect_hsrp.c'
p635
(dp636
sS'CVE_2011_3002_VULN_GrowAtomTable.c'
p637
(dp638
sS'CVE_2005_4618_PATCHED_sysctl_string.c'
p639
(dp640
sS'CVE_2015_3813_PATCHED_fragment_add_work.c'
p641
(dp642
sS'CVE_2012_6538_VULN_copy_to_user_auth.c'
p643
(dp644
sS'CVE_2014_9658_VULN_tt_face_load_kern.c'
p645
(dp646
sS'CVE_2013_7021_PATCHED_filter_frame.c'
p647
(dp648
sS'CVE_2014_2282_VULN_dissect_protocol_data_parameter.c'
p649
(dp650
sS'CVE-2016-2522_VULN_dissect_ber_constrained_bitstring.c'
p651
(dp652
sS'CVE_2013_3559_PATCHED_dissect_pft_fec_detailed.c'
p653
(dp654
sS'CVE_2014_8541_VULN_ff_mjpeg_decode_sof.c'
p655
(dp656
sS'CVE_2013_4933_VULN_netmon_open.c'
p657
(dp658
sS'CVE_2013_1587_PATCHED_dissect_rohc_ir_packet.c'
p659
(dp660
sS'CVE_2013_7027_PATCHED_ieee80211_radiotap_iterator_init.c'
p661
(dp662
sS'CVE_2013_0867_VULN_decode_slice_header.c'
p663
(dp664
sS'CVE_2011_1747_PATCHED_agp_create_user_memory.c'
p665
(dp666
sS'CVE_2012_4287_VULN_dissect_bson_document.c'
p667
(dp668
sS'CVE_2013_0797_PATCHED_AutoLoadSystemDependencies.c'
p669
(dp670
sS'CVE_2005_3356_VULN_sys_mq_open.c'
p671
(dp672
sS'CVE_2013_1920_VULN_get_free_port.c'
p673
(dp674
sS'CVE_2014_6432_PATCHED_SnifferDecompress.c'
p675
(dp676
sS'CVE_2012_1594_VULN_dissect_rsn_ie.c'
p677
(dp678
sS'CVE_2006_4813_PATCHED___block_prepare_write.c'
p679
(dp680
sS'CVE_2013_0799_VULN_GetInstallationDir.c'
p681
(dp682
sS'CVE_2011_3192_VULN_ap_set_byterange.c'
p683
(dp684
sS'CVE_2013_6367_PATCHED_apic_get_tmcct.c'
p685
(dp686
sS'CVE_2011_0014_VULN_ssl_parse_clienthello_tlsext.c'
p687
(dp688
sS'CVE_2013_1722_VULN_nsAnimationManager__BuildAnimations.c'
p689
(dp690
sS'CVE_2014_3640_VULN_udp_input.c'
p691
(dp692
sS'CVE_2014_6429_VULN_SnifferDecompress.c'
p693
(dp694
sS'CVE_2013_0868_PATCHED_generate_joint_tables.c'
p695
(dp696
sS'CVE_2008_4302_PATCHED_pipe_to_file.c'
p697
(dp698
sS'CVE_2012_1960_VULN_compute_curve_gamma_table_type_parametric.c'
p699
(dp700
s.