(dp0
S'CVE_2011_2980_PATCHED_ThinkPadSensor__Startup.c'
p1
(dp2
sS'CVE_2014_3509_PATCHED_ssl_parse_serverhello_tlsext.c'
p3
(dp4
sS'CVE_2012_2783_PATCHED_ff_vp56_decode_frame.c'
p5
(dp6
sS'CVE_2013_0874_PATCHED_doubles2str.c'
p7
(dp8
sS'CVE_2007_1217_PATCHED_bufprint.c'
p9
(dp10
sS'CVE_2011_0014_PATCHED_ssl_parse_clienthello_tlsext.c'
p11
(dp12
sS'CVE_2010_3907_PATCHED_Close.c'
p13
(dp14
sS'CVE_2010_0437_VULN_ip6_dst_lookup_tail.c'
p15
(dp16
sS'CVE_2011_0521_VULN_dvb_ca_ioctl.c'
p17
(dp18
sS'CVE_2014_5163_VULN_decode_apn.c'
p19
(dp20
S'main'
p21
(lp22
S'TP'
p23
aS'FP'
p24
assS'CVE_2013_5641_PATCHED_handle_incoming.c'
p25
(dp26
sS'CVE_2013_7339_VULN_rds_ib_laddr_check.c'
p27
(dp28
S'main'
p29
(lp30
g23
ag24
assS'CVE_2013_0848_VULN_decode_init.c'
p31
(dp32
sS'CVE_2012_3377_VULN_Ogg_DecodePacket.c'
p33
(dp34
sS'CVE_2013_6380_VULN_aac_send_raw_srb.c'
p35
(dp36
sS'CVE_2012_4530_PATCHED_load_script.c'
p37
(dp38
sS'CVE_2011_1076_PATCHED_dns_resolver_instantiate.c'
p39
(dp40
sS'CVE_2013_2850_VULN_iscsi_decode_text_input.c'
p41
(dp42
S'main'
p43
(lp44
g23
ag24
assS'CVE_2013_1672_VULN_ProcessSoftwareUpdateCommand.c'
p45
(dp46
sS'CVE_2013_1792_PATCHED_install_user_keyrings.c'
p47
(dp48
sS'CVE_2013_0851_VULN_decode_frame.c'
p49
(dp50
sS'CVE_2013_0782_PATCHED_nsSaveAsCharset__HandleFallBack.c'
p51
(dp52
sS'CVE_2014_5272_PATCHED_decode_frame.c'
p53
(dp54
sS'CVE_2010_3848_PATCHED_econet_sendmsg.c'
p55
(dp56
sS'CVE_2013_1705_VULN_cryptojs_interpret_key_gen_type.c'
p57
(dp58
S'main'
p59
(lp60
g23
ag24
assS'CVE_2011_3003_PATCHED_CopySubDataIfElementArray.c'
p61
(dp62
sS'CVE_2013_2850_PATCHED_iscsi_decode_text_input.c'
p63
(dp64
sS'CVE_2015_1158_VULN_cupsdProcessIPPRequest.c'
p65
(dp66
sS'CVE_2011_3950_PATCHED_dirac_decode_data_unit.c'
p67
(dp68
sS'CVE_2014_8709_PATCHED_ieee80211_fragment.c'
p69
(dp70
sS'CVE_2011_3000_PATCHED_nsHttpHeaderArray__ParseHeaderLine.c'
p71
(dp72
sS'CVE_2014_8545_VULN_decode_frame.c'
p73
(dp74
sS'CVE_2011_2518_PATCHED_tomoyo_mount_acl.c'
p75
(dp76
sS'CVE_2012_0041_VULN_dissect_packet.c'
p77
(dp78
sS'CVE_2013_1726_VULN_mar_read_product_info_block.c'
p79
(dp80
sS'CVE_2014_2286_VULN_ast_http_manid_from_vars.c'
p81
(dp82
sS'CVE_2010_3876_VULN_packet_getname_spkt.c'
p83
(dp84
sS'CVE_2008_3527_PATCHED_sysenter_setup.c'
p85
(dp86
sS'CVE_2014_1642_VULN_pirq_guest_bind.c'
p87
(dp88
sS'CVE_2013_6381_VULN_qeth_snmp_command.c'
p89
(dp90
S'main'
p91
(lp92
g23
ag24
assS'CVE_2013_4922_VULN_dissect_dcom_ActivationProperties.c'
p93
(dp94
sS'CVE_2012_3364_VULN_nci_extract_rf_params_nfca_passive_poll.c'
p95
(dp96
sS'CVE_2013_4247_PATCHED_build_unc_path_to_root.c'
p97
(dp98
sS'CVE_2015_1158_VULN_add_job.c'
p99
(dp100
S'main'
p101
(lp102
g23
ag23
ag23
ag24
ag24
ag24
assS'CVE_2014_9428_VULN_batadv_frag_merge_packets.c'
p103
(dp104
sS'CVE_2011_1833_PATCHED_ecryptfs_parse_options.c'
p105
(dp106
sS'CVE_2010_3429_PATCHED_flic_decode_frame_8BPP.c'
p107
(dp108
sS'CVE_2015_0833_PATCHED_NS_main.c'
p109
(dp110
sS'CVE_2013_1576_VULN_dissect_sdp_media_attribute.c'
p111
(dp112
sS'CVE_2008_3915_VULN_init_state.c'
p113
(dp114
s.