(lp0
(lp1
(lp2
S'int'
p3
aS'func_0'
p4
aS'('
p5
aS'variable_0'
p6
aS'*'
p7
aS'variable_1'
p8
aS','
p9
aS'void'
p10
ag7
aS'variable_2'
p11
ag9
aS'variable_3'
p12
ag7
aS'variable_4'
p13
aS')'
p14
aS'const'
p15
aS'uint8_t'
p16
ag7
aS'variable_5'
p17
aS'='
p18
aS'variable_4'
p19
aS'->'
p20
aS'variable_2'
p21
aS';'
p22
aS'variable_6'
p23
ag7
aS'variable_7'
p24
ag18
aS'variable_1'
p25
aS'->'
p26
aS'variable_8'
p27
ag22
aS'AVFrame'
p28
ag7
aS'const'
p29
aS'variable_9'
p30
ag18
aS'variable_7'
p31
aS'->'
p32
aS'variable_10'
p33
aS'['
p34
aS'variable_11'
p35
aS']'
p36
aS'int'
p37
aS'variable_12'
p38
ag18
aS'variable_4'
p39
aS'->'
p40
aS'variable_13'
p41
ag22
aS'int'
p42
aS'variable_14'
p43
ag9
aS'func_1'
p44
ag5
aS'variable_15'
p45
ag14
ag22
aS'if'
p46
ag5
aS'variable_7'
p47
aS'->'
p48
aS'variable_16'
p49
ag14
aS'if'
p50
ag5
aS'variable_12'
p51
aS'<'
p52
aS'3'
p53
ag14
aS'variable_15'
p54
ag18
aS'func_2'
p55
ag5
aS'&'
p56
aS'variable_5'
p57
ag14
ag22
aS'variable_12'
p58
aS'-='
p59
ag53
ag22
aS'if'
p60
ag5
aS'variable_12'
p61
ag52
aS'variable_15'
p62
ag14
aS'for'
p63
ag5
aS'variable_14'
p64
ag18
aS'0'
p65
ag22
aS'variable_14'
p66
ag52
aS'1'
p67
aS'+'
p68
aS'variable_7'
p69
aS'->'
p70
aS'variable_16'
p71
ag22
aS'variable_14'
p72
aS'++'
p73
ag14
aS'int'
p74
aS'variable_17'
p75
ag9
aS'variable_18'
p76
ag9
aS'variable_19'
p77
ag9
aS'variable_20'
p78
ag18
ag65
ag22
aS'int'
p79
aS'variable_21'
p80
ag9
aS'variable_22'
p81
ag9
aS'variable_23'
p82
ag9
aS'variable_24'
p83
ag9
aS'variable_25'
p84
ag22
aS'int'
p85
aS'variable_26'
p86
ag18
ag65
ag22
aS'int'
p87
aS'variable_27'
p88
ag22
aS'variable_7'
p89
aS'->'
p90
aS'variable_28'
p91
ag18
ag56
aS'variable_7'
p92
aS'->'
p93
aS'variable_29'
p94
ag34
aS'variable_14'
p95
ag36
ag22
aS'variable_27'
p96
ag18
aS'variable_7'
p97
aS'->'
p98
aS'func_3'
p99
ag5
aS'variable_7'
p100
ag9
aS'variable_5'
p101
ag9
aS'variable_12'
p102
ag9
ag56
aS'variable_26'
p103
ag14
ag22
aS'if'
p104
ag5
aS'!'
p105
aS'variable_27'
p106
ag14
aS'if'
p107
ag5
aS'variable_27'
p108
aS'=='
p109
aS'2'
p110
ag14
aS'if'
p111
ag5
aS'variable_7'
p112
aS'->'
p113
aS'variable_30'
p114
ag34
aS'variable_31'
p115
ag36
aS'.'
p116
aS'variable_2'
p117
ag34
ag65
ag36
ag14
aS'if'
p118
ag5
aS'variable_14'
p119
ag14
aS'if'
p120
ag5
ag105
aS'variable_14'
p121
ag14
aS'variable_9'
p122
aS'->'
p123
aS'variable_32'
p124
ag18
ag67
ag22
aS'if'
p125
ag5
aS'variable_1'
p126
aS'->'
p127
aS'func_4'
p128
ag5
aS'variable_1'
p129
ag9
aS'variable_9'
p130
ag14
ag52
ag65
ag14
aS'if'
p131
ag5
aS'variable_27'
p132
aS'=='
p133
ag110
ag14
aS'if'
p134
ag5
aS'func_5'
p135
ag5
aS'variable_1'
p136
ag14
ag14
aS'if'
p137
ag5
aS'variable_9'
p138
aS'->'
p139
aS'variable_33'
p140
ag14
aS'variable_9'
p141
aS'->'
p142
aS'variable_34'
p143
ag18
aS'variable_35'
p144
ag22
aS'for'
p145
ag5
aS'variable_21'
p146
ag18
ag65
ag22
aS'variable_21'
p147
ag52
aS'variable_7'
p148
aS'->'
p149
aS'variable_36'
p150
ag7
aS'variable_7'
p151
aS'->'
p152
aS'variable_37'
p153
ag22
aS'variable_21'
p154
aS'++'
p155
ag14
aS'variable_7'
p156
aS'->'
p157
aS'variable_38'
p158
ag34
aS'variable_21'
p159
ag36
ag116
aS'variable_39'
p160
ag18
aS'variable_40'
p161
ag22
aS'variable_9'
p162
aS'->'
p163
aS'variable_34'
p164
ag18
aS'variable_41'
p165
ag22
aS'variable_7'
p166
aS'->'
p167
aS'variable_42'
p168
ag18
aS'variable_43'
p169
ag22
aS'if'
p170
ag5
aS'variable_7'
p171
aS'->'
p172
aS'func_6'
p173
ag5
aS'variable_7'
p174
ag14
ag14
aS'memset'
p175
ag5
aS'variable_7'
p176
aS'->'
p177
aS'variable_44'
p178
ag9
ag65
ag9
aS'sizeof'
p179
ag5
aS'variable_7'
p180
aS'->'
p181
aS'variable_44'
p182
ag14
ag14
ag22
aS'variable_7'
p183
aS'->'
p184
aS'variable_44'
p185
ag34
ag67
ag36
ag34
aS'variable_11'
p186
ag36
ag18
aS'128'
p187
ag22
aS'variable_7'
p188
aS'->'
p189
aS'variable_44'
p190
ag34
ag110
ag36
ag34
aS'variable_11'
p191
ag36
ag18
aS'128'
p192
ag22
aS'for'
p193
ag5
aS'variable_21'
p194
ag18
ag65
ag22
aS'variable_21'
p195
ag52
aS'4'
p196
ag7
aS'variable_7'
p197
aS'->'
p198
aS'variable_37'
p199
ag68
aS'6'
p200
ag22
aS'variable_21'
p201
aS'++'
p202
ag14
aS'variable_7'
p203
aS'->'
p204
aS'variable_45'
p205
ag34
aS'variable_21'
p206
ag36
ag116
aS'variable_46'
p207
ag18
aS'variable_47'
p208
ag22
aS'variable_7'
p209
aS'->'
p210
aS'variable_45'
p211
ag34
aS'variable_21'
p212
ag36
ag116
aS'variable_48'
p213
ag18
ag65
ag22
aS'variable_7'
p214
aS'->'
p215
aS'variable_45'
p216
ag34
aS'variable_21'
p217
ag36
ag116
aS'variable_49'
p218
ag18
ag65
ag22
aS'variable_7'
p219
aS'->'
p220
aS'variable_45'
p221
ag34
ag110
ag7
aS'variable_7'
p222
aS'->'
p223
aS'variable_37'
p224
ag68
ag110
ag36
ag116
aS'variable_46'
p225
ag18
aS'variable_11'
p226
ag22
aS'variable_7'
p227
aS'->'
p228
aS'variable_45'
p229
ag34
ag53
ag7
aS'variable_7'
p230
aS'->'
p231
aS'variable_37'
p232
ag68
ag196
ag36
ag116
aS'variable_46'
p233
ag18
aS'variable_11'
p234
ag22
aS'variable_24'
p235
ag18
aS'variable_9'
p236
aS'->'
p237
aS'variable_50'
p238
ag34
ag65
ag36
ag22
aS'variable_25'
p239
ag18
aS'variable_9'
p240
aS'->'
p241
aS'variable_50'
p242
ag34
ag67
ag36
ag22
aS'if'
p243
ag5
aS'variable_7'
p244
aS'->'
p245
aS'variable_51'
p246
ag52
ag65
ag14
aS'variable_20'
p247
ag18
aS'7'
p248
ag22
aS'for'
p249
ag5
aS'variable_17'
p250
ag18
ag65
ag22
aS'variable_17'
p251
ag52
aS'variable_7'
p252
aS'->'
p253
aS'variable_36'
p254
ag22
aS'variable_17'
p255
aS'++'
p256
ag14
aS'if'
p257
ag5
aS'variable_7'
p258
aS'->'
p259
aS'variable_51'
p260
ag52
ag65
ag14
aS'variable_19'
p261
ag18
aS'variable_7'
p262
aS'->'
p263
aS'variable_36'
p264
aS'-'
p265
aS'variable_17'
p266
ag265
ag67
ag22
aS'variable_19'
p267
ag18
aS'variable_17'
p268
ag22
aS'for'
p269
ag5
aS'variable_21'
p270
ag18
ag65
ag22
aS'variable_21'
p271
ag52
ag196
ag22
aS'variable_21'
p272
aS'++'
p273
ag14
aS'variable_7'
p274
aS'->'
p275
aS'variable_52'
p276
ag34
aS'variable_21'
p277
ag36
ag116
aS'variable_46'
p278
ag18
aS'variable_47'
p279
ag22
aS'variable_7'
p280
aS'->'
p281
aS'variable_52'
p282
ag34
aS'variable_21'
p283
ag36
ag116
aS'variable_48'
p284
ag18
ag65
ag22
aS'variable_7'
p285
aS'->'
p286
aS'variable_52'
p287
ag34
aS'variable_21'
p288
ag36
ag116
aS'variable_49'
p289
ag18
ag65
ag22
aS'memset'
p290
ag5
aS'variable_7'
p291
aS'->'
p292
aS'variable_53'
p293
ag9
ag65
ag9
aS'sizeof'
p294
ag5
aS'variable_7'
p295
aS'->'
p296
aS'variable_53'
p297
ag14
ag14
ag22
aS'memset'
p298
ag5
aS'variable_7'
p299
aS'->'
p300
aS'variable_54'
p301
ag9
aS'24'
p302
ag9
aS'sizeof'
p303
ag5
aS'variable_7'
p304
aS'->'
p305
aS'variable_54'
p306
ag14
ag14
ag22
aS'variable_7'
p307
aS'->'
p308
aS'variable_55'
p309
ag34
ag65
ag36
ag18
ag67
ag22
aS'variable_7'
p310
aS'->'
p311
aS'variable_55'
p312
ag34
ag67
ag36
ag18
ag110
ag22
aS'variable_7'
p313
aS'->'
p314
aS'variable_55'
p315
ag34
ag110
ag36
ag18
ag67
ag22
aS'variable_7'
p316
aS'->'
p317
aS'variable_55'
p318
ag34
ag53
ag36
ag18
ag110
ag22
aS'variable_7'
p319
aS'->'
p320
aS'variable_55'
p321
ag34
ag196
ag36
ag18
ag110
ag7
aS'variable_7'
p322
aS'->'
p323
aS'variable_37'
p324
ag68
ag110
ag68
ag67
ag22
aS'variable_7'
p325
aS'->'
p326
aS'variable_55'
p327
ag34
aS'5'
p328
ag36
ag18
ag53
ag7
aS'variable_7'
p329
aS'->'
p330
aS'variable_37'
p331
ag68
ag196
ag68
ag67
ag22
aS'variable_7'
p332
aS'->'
p333
aS'variable_56'
p334
ag34
aS'variable_7'
p335
aS'->'
p336
aS'variable_57'
p337
ag36
ag18
ag5
aS'variable_19'
p338
ag7
aS'16'
p339
ag68
aS'variable_20'
p340
ag14
ag7
aS'variable_24'
p341
ag22
aS'variable_7'
p342
aS'->'
p343
aS'variable_56'
p344
ag34
aS'variable_7'
p345
aS'->'
p346
aS'variable_58'
p347
ag36
ag18
aS'variable_7'
p348
aS'->'
p349
aS'variable_56'
p350
ag34
aS'variable_7'
p351
aS'->'
p352
aS'variable_57'
p353
ag36
ag68
aS'8'
p354
ag7
aS'variable_24'
p355
ag22
aS'variable_7'
p356
aS'->'
p357
aS'variable_56'
p358
ag34
ag67
ag36
ag18
aS'variable_7'
p359
aS'->'
p360
aS'variable_56'
p361
ag34
ag65
ag36
ag68
ag354
ag22
aS'variable_7'
p362
aS'->'
p363
aS'variable_56'
p364
ag34
ag53
ag36
ag18
aS'variable_7'
p365
aS'->'
p366
aS'variable_56'
p367
ag34
ag110
ag36
ag68
ag354
ag22
aS'variable_7'
p368
aS'->'
p369
aS'variable_56'
p370
ag34
ag196
ag36
ag18
ag5
aS'variable_19'
p371
ag7
ag354
ag68
aS'variable_20'
p372
ag14
ag7
aS'variable_25'
p373
ag22
aS'variable_7'
p374
aS'->'
p375
aS'variable_56'
p376
ag34
ag328
ag36
ag18
aS'variable_7'
p377
aS'->'
p378
aS'variable_56'
p379
ag34
ag196
ag36
ag22
aS'for'
p380
ag5
aS'variable_18'
p381
ag18
ag65
ag22
aS'variable_18'
p382
ag52
aS'variable_7'
p383
aS'->'
p384
aS'variable_37'
p385
ag22
aS'variable_18'
p386
aS'++'
p387
ag14
aS'func_7'
p388
ag5
aS'variable_7'
p389
ag9
aS'variable_17'
p390
ag9
aS'variable_18'
p391
ag9
aS'variable_14'
p392
ag14
ag22
aS'for'
p393
ag5
aS'variable_22'
p394
ag18
ag65
ag22
aS'variable_22'
p395
ag52
ag196
ag22
aS'variable_22'
p396
aS'++'
p397
ag14
aS'variable_7'
p398
aS'->'
p399
aS'variable_55'
p400
ag34
aS'variable_22'
p401
ag36
aS'+='
p402
ag110
ag22
aS'variable_7'
p403
aS'->'
p404
aS'variable_56'
p405
ag34
aS'variable_22'
p406
ag36
aS'+='
p407
aS'16'
p408
ag22
aS'for'
p409
ag5
aS'variable_23'
p410
ag18
ag196
ag22
aS'variable_23'
p411
ag52
ag200
ag22
aS'variable_23'
p412
aS'++'
p413
ag14
aS'variable_7'
p414
aS'->'
p415
aS'variable_55'
p416
ag34
aS'variable_23'
p417
ag36
aS'+='
p418
ag67
ag22
aS'variable_7'
p419
aS'->'
p420
aS'variable_56'
p421
ag34
aS'variable_23'
p422
ag36
aS'+='
p423
ag354
ag22
aS'if'
p424
ag5
aS'variable_9'
p425
aS'->'
p426
aS'variable_33'
p427
aS'||'
p428
aS'variable_26'
p429
ag14
aS'if'
p430
ag5
aS'variable_7'
p431
aS'->'
p432
aS'variable_10'
p433
ag34
aS'variable_59'
p434
ag36
aS'->'
p435
aS'variable_2'
p436
ag34
ag65
ag36
aS'&&'
p437
aS'variable_7'
p438
aS'->'
p439
aS'variable_10'
p440
ag34
aS'variable_59'
p441
ag36
aS'!='
p442
aS'variable_7'
p443
aS'->'
p444
aS'variable_10'
p445
ag34
aS'variable_60'
p446
ag36
ag14
aS'variable_1'
p447
aS'->'
p448
aS'func_8'
p449
ag5
aS'variable_1'
p450
ag9
aS'variable_7'
p451
aS'->'
p452
aS'variable_10'
p453
ag34
aS'variable_59'
p454
ag36
ag14
ag22
aS'variable_7'
p455
aS'->'
p456
aS'variable_10'
p457
ag34
aS'variable_59'
p458
ag36
ag18
aS'variable_9'
p459
ag22
aS'if'
p460
ag5
aS'variable_7'
p461
aS'->'
p462
aS'variable_16'
p463
ag14
aS'func_9'
p464
ag5
aS'variable_61'
p465
ag7
ag9
aS'variable_7'
p466
aS'->'
p467
aS'variable_10'
p468
ag34
aS'variable_59'
p469
ag36
aS'variable_7'
p470
aS'->'
p471
aS'variable_10'
p472
ag34
aS'variable_60'
p473
ag36
ag14
aS'variable_5'
p474
aS'+='
p475
aS'variable_15'
p476
ag22
aS'variable_12'
p477
aS'-='
p478
aS'variable_15'
p479
ag22
aS'if'
p480
ag5
aS'variable_7'
p481
aS'->'
p482
aS'variable_10'
p483
ag34
aS'variable_62'
p484
ag36
aS'=='
p485
aS'variable_7'
p486
aS'->'
p487
aS'variable_10'
p488
ag34
aS'variable_59'
p489
ag36
aS'||'
p490
aS'variable_7'
p491
aS'->'
p492
aS'variable_10'
p493
ag34
aS'variable_62'
p494
ag36
aS'=='
p495
aS'variable_7'
p496
aS'->'
p497
aS'variable_10'
p498
ag34
aS'variable_60'
p499
ag36
ag14
aS'if'
p500
ag5
aS'variable_7'
p501
aS'->'
p502
aS'variable_10'
p503
ag34
aS'variable_63'
p504
ag36
aS'!='
p505
aS'variable_7'
p506
aS'->'
p507
aS'variable_10'
p508
ag34
aS'variable_59'
p509
ag36
aS'&&'
p510
aS'variable_7'
p511
aS'->'
p512
aS'variable_10'
p513
ag34
aS'variable_63'
p514
ag36
aS'!='
p515
aS'variable_7'
p516
aS'->'
p517
aS'variable_10'
p518
ag34
aS'variable_60'
p519
ag36
ag14
aS'func_10'
p520
ag5
aS'variable_61'
p521
ag7
ag9
aS'variable_7'
p522
aS'->'
p523
aS'variable_10'
p524
ag34
aS'variable_62'
p525
ag36
aS'variable_7'
p526
aS'->'
p527
aS'variable_10'
p528
ag34
aS'variable_63'
p529
ag36
ag14
aS'func_11'
p530
ag5
aS'variable_61'
p531
ag7
ag9
aS'variable_7'
p532
aS'->'
p533
aS'variable_10'
p534
ag34
aS'variable_62'
p535
ag36
aS'variable_7'
p536
aS'->'
p537
aS'variable_10'
p538
ag34
aS'variable_64'
p539
ag36
ag14
aS'if'
p540
ag5
aS'variable_7'
p541
aS'->'
p542
aS'variable_10'
p543
ag34
aS'variable_62'
p544
ag36
aS'->'
p545
aS'variable_2'
p546
ag34
ag65
ag36
ag14
aS'variable_1'
p547
aS'->'
p548
aS'func_12'
p549
ag5
aS'variable_1'
p550
ag9
aS'variable_7'
p551
aS'->'
p552
aS'variable_10'
p553
ag34
aS'variable_62'
p554
ag36
ag14
ag22
aS'func_13'
p555
ag5
aS'variable_61'
p556
ag7
ag9
aS'variable_7'
p557
aS'->'
p558
aS'variable_10'
p559
ag34
aS'variable_11'
p560
ag36
aS'variable_7'
p561
aS'->'
p562
aS'variable_10'
p563
ag34
aS'variable_62'
p564
ag36
ag14
aS'variable_9'
p565
aS'->'
p566
aS'variable_65'
p567
ag18
aS'variable_7'
p568
aS'->'
p569
aS'variable_65'
p570
ag22
aS'variable_9'
p571
aS'->'
p572
aS'variable_66'
p573
ag18
aS'variable_67'
p574
ag22
ag7
ag5
aS'AVFrame'
p575
ag7
ag14
aS'variable_2'
p576
ag18
ag7
aS'variable_9'
p577
ag22
aaa(lp578
I1
aa(lp579
I547
aa(lp580
(lp581
S'main'
p582
aaa(lp583
S'78 /home/SySeVR/data/CVE_2012_2783_VULN_ff_vp56_decode_frame.c memset 103'
p584
aa.