(lp0
(lp1
(lp2
S'static'
p3
aS'int'
p4
aS'func_0'
p5
aS'('
p6
aS'struct'
p7
aS'variable_0'
p8
aS'*'
p9
aS'variable_1'
p10
aS','
p11
aS'struct'
p12
aS'variable_2'
p13
ag9
aS'variable_3'
p14
ag11
aS'size_t'
p15
aS'variable_4'
p16
ag11
aS'int'
p17
aS'variable_5'
p18
aS')'
p19
aS'struct'
p20
aS'variable_6'
p21
ag9
aS'variable_7'
p22
aS'='
p23
aS'variable_6'
p24
aS'->'
p25
aS'variable_7'
p26
aS';'
p27
aS'struct'
p28
aS'variable_8'
p29
ag9
aS'variable_9'
p30
ag23
aS'func_1'
p31
ag6
aS'variable_7'
p32
ag19
ag27
aS'struct'
p33
aS'variable_10'
p34
ag9
aS'variable_11'
p35
ag23
ag6
aS'struct'
p36
aS'sockaddr_ipx'
p37
ag9
ag19
aS'variable_3'
p38
aS'->'
p39
aS'variable_12'
p40
ag27
aS'struct'
p41
aS'variable_13'
p42
ag9
aS'variable_14'
p43
ag27
aS'int'
p44
aS'variable_15'
p45
ag11
aS'variable_16'
p46
ag27
aS'if'
p47
ag6
aS'!'
p48
aS'variable_9'
p49
aS'->'
p50
aS'variable_17'
p51
ag19
aS'struct'
p52
aS'sockaddr_ipx'
p53
aS'variable_18'
p54
ag27
aS'variable_18'
p55
aS'.'
p56
aS'variable_19'
p57
ag23
aS'0'
p58
ag27
aS'variable_18'
p59
ag56
aS'variable_20'
p60
ag23
ag58
ag27
aS'variable_16'
p61
ag23
aS'-'
p62
aS'variable_21'
p63
ag27
aS'if'
p64
ag6
ag48
aS'variable_9'
p65
aS'->'
p66
aS'variable_22'
p67
ag19
aS'memcpy'
p68
ag6
aS'variable_18'
p69
ag56
aS'variable_23'
p70
ag11
aS'variable_9'
p71
aS'->'
p72
aS'variable_22'
p73
aS'->'
p74
aS'variable_24'
p75
ag11
aS'variable_25'
p76
ag19
ag27
aS'variable_16'
p77
ag23
aS'func_2'
p78
ag6
aS'variable_6'
p79
ag11
ag6
aS'struct'
p80
aS'sockaddr'
p81
ag9
ag19
aS'&'
p82
aS'variable_18'
p83
ag11
aS'sizeof'
p84
ag6
aS'struct'
p85
aS'variable_10'
p86
ag19
ag19
ag27
aS'if'
p87
ag6
aS'variable_16'
p88
ag19
aS'variable_16'
p89
ag23
ag62
aS'variable_26'
p90
ag27
aS'if'
p91
ag6
aS'func_3'
p92
ag6
aS'variable_7'
p93
ag11
aS'variable_27'
p94
ag19
ag19
aS'variable_14'
p95
ag23
aS'func_4'
p96
ag6
aS'variable_7'
p97
ag11
aS'variable_5'
p98
ag82
aS'~'
p99
aS'variable_28'
p100
ag11
aS'variable_5'
p101
ag82
aS'variable_28'
p102
ag11
ag82
aS'variable_16'
p103
ag19
ag27
aS'if'
p104
ag6
ag48
aS'variable_14'
p105
ag19
aS'variable_29'
p106
ag23
aS'func_5'
p107
ag6
aS'variable_14'
p108
ag19
ag27
aS'variable_15'
p109
ag23
aS'func_6'
p110
ag6
aS'variable_29'
p111
aS'->'
p112
aS'variable_30'
p113
ag19
ag62
aS'sizeof'
p114
ag6
aS'struct'
p115
aS'variable_31'
p116
ag19
ag27
aS'if'
p117
ag6
aS'variable_15'
p118
aS'>'
p119
aS'variable_4'
p120
ag19
aS'variable_15'
p121
ag23
aS'variable_4'
p122
ag27
aS'variable_3'
p123
aS'->'
p124
aS'variable_32'
p125
aS'|'
p126
ag23
aS'variable_33'
p127
ag27
aS'variable_16'
p128
ag23
aS'func_7'
p129
ag6
aS'variable_14'
p130
ag11
aS'sizeof'
p131
ag6
aS'struct'
p132
aS'variable_31'
p133
ag19
ag11
aS'variable_3'
p134
aS'->'
p135
aS'variable_34'
p136
ag11
aS'variable_15'
p137
ag19
ag27
aS'if'
p138
ag6
aS'variable_16'
p139
ag19
aS'if'
p140
ag6
aS'variable_11'
p141
ag19
aS'variable_11'
p142
aS'->'
p143
aS'variable_35'
p144
ag23
aS'variable_36'
p145
ag27
aS'variable_11'
p146
aS'->'
p147
aS'variable_19'
p148
ag23
aS'variable_29'
p149
aS'->'
p150
aS'variable_37'
p151
ag56
aS'variable_6'
p152
ag27
aS'memcpy'
p153
ag6
aS'variable_11'
p154
aS'->'
p155
aS'variable_23'
p156
ag11
aS'variable_29'
p157
aS'->'
p158
aS'variable_37'
p159
ag56
aS'variable_38'
p160
ag11
aS'variable_25'
p161
ag19
ag27
aS'variable_11'
p162
aS'->'
p163
aS'variable_20'
p164
ag23
aS'func_8'
p165
ag6
aS'variable_14'
p166
ag19
aS'->'
p167
aS'variable_39'
p168
ag27
aS'variable_11'
p169
aS'->'
p170
aS'variable_40'
p171
ag23
aS'variable_29'
p172
aS'->'
p173
aS'variable_41'
p174
ag27
aS'variable_11'
p175
aS'->'
p176
aS'variable_42'
p177
ag23
ag58
ag27
aa(lp178
S'static'
p179
aS'int'
p180
aS'func_0'
p181
ag6
aS'struct'
p182
aS'variable_0'
p183
ag9
aS'variable_1'
p184
ag11
aS'struct'
p185
aS'variable_2'
p186
ag9
aS'variable_3'
p187
ag11
aS'size_t'
p188
aS'variable_4'
p189
ag11
aS'int'
p190
aS'variable_5'
p191
ag19
aS'struct'
p192
aS'variable_6'
p193
ag9
aS'variable_7'
p194
ag23
aS'variable_6'
p195
aS'->'
p196
aS'variable_7'
p197
ag27
aS'struct'
p198
aS'variable_8'
p199
ag9
aS'variable_9'
p200
ag23
aS'func_1'
p201
ag6
aS'variable_7'
p202
ag19
ag27
aS'if'
p203
ag6
ag48
aS'variable_9'
p204
aS'->'
p205
aS'variable_10'
p206
ag19
aS'struct'
p207
aS'sockaddr_ipx'
p208
aS'variable_11'
p209
ag27
aS'variable_11'
p210
ag56
aS'variable_12'
p211
ag23
ag58
ag27
aS'variable_11'
p212
ag56
aS'variable_13'
p213
ag23
ag58
ag27
aS'if'
p214
ag6
ag48
aS'variable_9'
p215
aS'->'
p216
aS'variable_14'
p217
ag19
aS'memcpy'
p218
ag6
aS'variable_11'
p219
ag56
aS'variable_15'
p220
ag11
aS'variable_9'
p221
aS'->'
p222
aS'variable_14'
p223
aS'->'
p224
aS'variable_16'
p225
ag11
aS'variable_17'
p226
ag19
ag27
aS'variable_18'
p227
ag23
aS'func_2'
p228
ag6
aS'variable_6'
p229
ag11
ag6
aS'struct'
p230
aS'sockaddr'
p231
ag9
ag19
ag82
aS'variable_11'
p232
ag11
aS'sizeof'
p233
ag6
aS'struct'
p234
aS'variable_19'
p235
ag19
ag19
ag27
aS'if'
p236
ag6
aS'variable_18'
p237
ag19
aS'return'
p238
aS'variable_18'
p239
ag27
aaa(lp240
I0
aI0
aa(lp241
I259
aI70
aa(lp242
(lp243
S'main'
p244
aa(lp245
g244
aaa(lp246
S'554 /home/SySeVR/data/CVE_2013_7268_VULN_ipx_recvmsg.c memcpy 60'
p247
aS'555 /home/SySeVR/data/CVE_2013_7268_VULN_ipx_recvmsg.c memcpy 23'
p248
aa.