(lp0
(lp1
(lp2
S'static'
p3
aS'void'
p4
aS'func_0'
p5
aS'('
p6
aS'struct'
p7
aS'variable_0'
p8
aS'*'
p9
aS'variable_0'
p10
aS')'
p11
aS'struct'
p12
aS'variable_1'
p13
ag9
aS'variable_2'
p14
aS'='
p15
aS'variable_0'
p16
aS'->'
p17
aS'variable_3'
p18
aS';'
p19
aS'struct'
p20
aS'variable_4'
p21
ag9
aS'variable_5'
p22
ag19
aS'int'
p23
aS'variable_6'
p24
ag15
aS'variable_0'
p25
aS'->'
p26
aS'variable_6'
p27
ag19
aS'unsigned'
p28
aS'char'
p29
ag9
aS'variable_7'
p30
ag15
aS'variable_0'
p31
aS'->'
p32
aS'variable_8'
p33
ag19
aS'variable_5'
p34
ag15
aS'func_1'
p35
ag6
aS'variable_2'
p36
ag11
ag19
aS'if'
p37
ag6
aS'!'
p38
aS'variable_5'
p39
ag11
aS'if'
p40
ag6
ag38
aS'variable_0'
p41
aS'->'
p42
aS'variable_9'
p43
ag11
aS'if'
p44
ag6
aS'variable_6'
p45
ag11
aS'if'
p46
ag6
aS'variable_7'
p47
aS'['
p48
aS'0'
p49
aS']'
p50
aS'=='
p51
aS'variable_10'
p52
ag11
aS'if'
p53
ag6
aS'variable_7'
p54
ag48
ag49
ag50
aS'=='
p55
aS'variable_11'
p56
ag11
aS'if'
p57
ag6
aS'variable_7'
p58
ag48
ag49
ag50
aS'=='
p59
aS'variable_12'
p60
ag11
aS'if'
p61
ag6
ag6
aS'variable_7'
p62
ag48
ag49
ag50
aS'=='
p63
aS'variable_13'
p64
ag11
aS'&&'
p65
ag6
aS'variable_0'
p66
aS'->'
p67
aS'variable_9'
p68
aS'-'
p69
aS'1'
p70
aS'<'
p71
ag15
aS'sizeof'
p72
ag6
aS'variable_5'
p73
aS'->'
p74
aS'variable_14'
p75
ag11
ag11
ag11
aS'memcpy'
p76
ag6
aS'variable_5'
p77
aS'->'
p78
aS'variable_14'
p79
aS','
p80
aS'&'
p81
aS'variable_7'
p82
ag48
ag70
ag50
ag80
aS'variable_0'
p83
aS'->'
p84
aS'variable_9'
p85
ag69
ag70
ag11
ag19
aS'variable_5'
p86
aS'->'
p87
aS'variable_15'
p88
ag15
aS'variable_10'
p89
ag19
aS'func_2'
p90
ag6
ag81
aS'variable_5'
p91
aS'->'
p92
aS'variable_16'
p93
ag11
ag19
aaa(lp94
I0
aa(lp95
I115
aa(lp96
(lp97
S'main'
p98
aaa(lp99
S'563 /home/SySeVR/data/CVE_2014_3185_PATCHED_command_port_read_callback.c memcpy 40'
p100
aa.