(lp0
(lp1
(lp2
S'int'
p3
aS'func_0'
p4
aS'('
p5
aS'struct'
p6
aS'variable_0'
p7
aS'*'
p8
aS'variable_1'
p9
aS')'
p10
aS'unsigned'
p11
aS'char'
p12
ag8
aS'variable_2'
p13
aS';'
p14
aS'int'
p15
aS'variable_3'
p16
aS','
p17
aS'variable_4'
p18
ag14
aS'unsigned'
p19
aS'variable_5'
p20
ag14
aS'struct'
p21
aS'variable_6'
p22
ag8
aS'variable_7'
p23
ag14
aS'struct'
p24
aS'variable_8'
p25
ag8
aS'variable_9'
p26
ag14
aS'variable_9'
p27
aS'='
p28
aS'func_1'
p29
ag5
aS'variable_1'
p30
ag17
aS'0'
p31
ag17
aS'&'
p32
aS'variable_10'
p33
ag10
ag14
aS'if'
p34
ag5
aS'!'
p35
aS'variable_9'
p36
ag10
aS'if'
p37
ag5
aS'func_2'
p38
ag5
aS'variable_9'
p39
aS'->'
p40
aS'variable_11'
p41
ag10
aS'!='
p42
aS'variable_12'
p43
ag10
aS'variable_5'
p44
ag28
aS'func_3'
p45
ag5
aS'variable_9'
p46
aS'->'
p47
aS'variable_13'
p48
ag10
ag14
aS'variable_2'
p49
ag28
aS'func_4'
p50
ag5
aS'variable_1'
p51
ag17
aS'variable_5'
p52
aS'/'
p53
aS'512'
p54
ag17
ag32
aS'variable_10'
p55
ag10
ag14
aS'if'
p56
ag5
ag35
aS'variable_2'
p57
ag10
aS'variable_7'
p58
ag28
ag5
aS'struct'
p59
aS'CVE_2011_1010_VULN_mac_partition'
p60
ag8
ag10
ag5
aS'variable_2'
p61
aS'+'
p62
aS'variable_5'
p63
aS'%'
p64
aS'512'
p65
ag10
ag14
aS'if'
p66
ag5
aS'func_5'
p67
ag5
aS'variable_7'
p68
aS'->'
p69
aS'variable_11'
p70
ag10
aS'!='
p71
aS'variable_14'
p72
ag10
aS'variable_4'
p73
ag28
aS'func_6'
p74
ag5
aS'variable_7'
p75
aS'->'
p76
aS'variable_15'
p77
ag10
ag14
aS'for'
p78
ag5
aS'variable_3'
p79
ag28
aS'1'
p80
ag14
aS'variable_3'
p81
aS'<'
p82
ag28
aS'variable_4'
p83
ag14
aS'++'
p84
aS'variable_3'
p85
ag10
aS'int'
p86
aS'variable_16'
p87
ag28
aS'variable_3'
p88
ag8
aS'variable_5'
p89
ag14
aS'variable_2'
p90
ag28
aS'func_7'
p91
ag5
aS'variable_1'
p92
ag17
aS'variable_16'
p93
ag53
aS'512'
p94
ag17
ag32
aS'variable_10'
p95
ag10
ag14
aS'if'
p96
ag5
ag35
aS'variable_2'
p97
ag10
aS'variable_7'
p98
ag28
ag5
aS'struct'
p99
aS'CVE_2011_1010_VULN_mac_partition'
p100
ag8
ag10
ag5
aS'variable_2'
p101
ag62
aS'variable_16'
p102
ag64
aS'512'
p103
ag10
ag14
aS'if'
p104
ag5
aS'func_8'
p105
ag5
aS'variable_7'
p106
aS'->'
p107
aS'variable_11'
p108
ag10
aS'!='
p109
aS'variable_14'
p110
ag10
aS'if'
p111
ag5
aS'func_9'
p112
ag5
aS'variable_17'
p113
ag10
ag10
aS'if'
p114
ag5
aS'func_10'
p115
ag5
aS'variable_7'
p116
aS'->'
p117
aS'variable_18'
p118
ag17
aS'"'
p119
aS'Apple_UNIX_SVR2'
p120
ag119
ag10
aS'=='
p121
ag31
aS'||'
p122
ag5
aS'func_11'
p123
ag5
aS'variable_7'
p124
aS'->'
p125
aS'variable_18'
p126
ag17
ag119
aS'Linux'
p127
ag119
ag17
aS'5'
p128
ag10
aS'=='
p129
ag31
aS'&&'
p130
aS'func_12'
p131
ag5
aS'variable_7'
p132
aS'->'
p133
aS'variable_18'
p134
ag17
ag119
aS'Linux_swap'
p135
ag119
ag10
aS'!='
p136
ag31
ag10
ag10
aS'if'
p137
ag5
aS'strcmp'
p138
ag5
aS'variable_7'
p139
aS'->'
p140
aS'variable_19'
p141
ag17
ag119
ag53
ag119
ag10
aS'=='
p142
ag31
ag10
aaa(lp143
I1
aa(lp144
I241
aa(lp145
(lp146
S'main'
p147
aaa(lp148
S'731 /home/SySeVR/data/CVE_2011_1010_VULN_mac_partition.c strcmp 73'
p149
aa.