(lp0
(lp1
(lp2
S'int'
p3
aS'func_0'
p4
aS'('
p5
aS'struct'
p6
aS'variable_0'
p7
aS'*'
p8
aS'variable_1'
p9
aS')'
p10
aS'unsigned'
p11
aS'char'
p12
ag8
aS'variable_2'
p13
aS';'
p14
aS'int'
p15
aS'variable_3'
p16
aS','
p17
aS'variable_4'
p18
ag14
aS'unsigned'
p19
aS'variable_5'
p20
ag14
aS'struct'
p21
aS'variable_6'
p22
ag8
aS'variable_7'
p23
ag14
aS'struct'
p24
aS'variable_8'
p25
ag8
aS'variable_9'
p26
ag14
aS'variable_9'
p27
aS'='
p28
aS'func_1'
p29
ag5
aS'variable_1'
p30
ag17
aS'0'
p31
ag17
aS'&'
p32
aS'variable_10'
p33
ag10
ag14
aS'if'
p34
ag5
aS'!'
p35
aS'variable_9'
p36
ag10
aS'if'
p37
ag5
aS'func_2'
p38
ag5
aS'variable_9'
p39
aS'->'
p40
aS'variable_11'
p41
ag10
aS'!='
p42
aS'variable_12'
p43
ag10
aS'variable_5'
p44
ag28
aS'func_3'
p45
ag5
aS'variable_9'
p46
aS'->'
p47
aS'variable_13'
p48
ag10
ag14
aS'variable_2'
p49
ag28
aS'func_4'
p50
ag5
aS'variable_1'
p51
ag17
aS'variable_5'
p52
aS'/'
p53
aS'512'
p54
ag17
ag32
aS'variable_10'
p55
ag10
ag14
aS'if'
p56
ag5
ag35
aS'variable_2'
p57
ag10
aS'variable_7'
p58
ag28
ag5
aS'struct'
p59
aS'CVE_2011_1010_VULN_mac_partition'
p60
ag8
ag10
ag5
aS'variable_2'
p61
aS'+'
p62
aS'variable_5'
p63
aS'%'
p64
aS'512'
p65
ag10
ag14
aS'if'
p66
ag5
aS'func_5'
p67
ag5
aS'variable_7'
p68
aS'->'
p69
aS'variable_11'
p70
ag10
aS'!='
p71
aS'variable_14'
p72
ag10
aS'variable_4'
p73
ag28
aS'func_6'
p74
ag5
aS'variable_7'
p75
aS'->'
p76
aS'variable_15'
p77
ag10
ag14
aS'for'
p78
ag5
aS'variable_3'
p79
ag28
aS'1'
p80
ag14
aS'variable_3'
p81
aS'<'
p82
ag28
aS'variable_4'
p83
ag14
aS'++'
p84
aS'variable_3'
p85
ag10
aS'int'
p86
aS'variable_16'
p87
ag28
aS'variable_3'
p88
ag8
aS'variable_5'
p89
ag14
aS'variable_2'
p90
ag28
aS'func_7'
p91
ag5
aS'variable_1'
p92
ag17
aS'variable_16'
p93
ag53
aS'512'
p94
ag17
ag32
aS'variable_10'
p95
ag10
ag14
aS'if'
p96
ag5
ag35
aS'variable_2'
p97
ag10
aS'variable_7'
p98
ag28
ag5
aS'struct'
p99
aS'CVE_2011_1010_VULN_mac_partition'
p100
ag8
ag10
ag5
aS'variable_2'
p101
ag62
aS'variable_16'
p102
ag64
aS'512'
p103
ag10
ag14
aS'if'
p104
ag5
aS'func_8'
p105
ag5
aS'variable_7'
p106
aS'->'
p107
aS'variable_11'
p108
ag10
aS'!='
p109
aS'variable_14'
p110
ag10
aS'func_9'
p111
ag5
aS'variable_1'
p112
ag17
aS'variable_17'
p113
ag17
aS'func_10'
p114
ag5
aS'variable_7'
p115
aS'->'
p116
aS'variable_18'
p117
ag10
ag8
ag5
aS'variable_5'
p118
ag53
aS'512'
p119
ag10
ag17
aS'func_11'
p120
ag5
aS'variable_7'
p121
aS'->'
p122
aS'variable_19'
p123
ag10
ag8
ag5
aS'variable_5'
p124
ag53
aS'512'
p125
ag10
ag10
ag14
aS'if'
p126
ag5
ag35
aS'func_12'
p127
ag5
aS'variable_7'
p128
aS'->'
p129
aS'variable_20'
p130
ag17
aS'"'
p131
aS'Linux_RAID'
p132
ag131
ag17
aS'10'
p133
ag10
ag10
aS'func_13'
p134
ag5
aS'variable_7'
p135
aS'->'
p136
aS'variable_21'
p137
ag17
aS'16'
p138
ag10
ag14
aS'func_14'
p139
ag5
aS'variable_7'
p140
aS'->'
p141
aS'variable_22'
p142
ag17
aS'32'
p143
ag10
ag14
aS'func_15'
p144
ag5
aS'variable_7'
p145
aS'->'
p146
aS'variable_20'
p147
ag17
aS'32'
p148
ag10
ag14
aS'if'
p149
ag5
ag5
aS'func_16'
p150
ag5
aS'variable_7'
p151
aS'->'
p152
aS'variable_23'
p153
ag10
ag32
aS'variable_24'
p154
ag10
aS'&&'
p155
aS'func_17'
p156
ag5
aS'variable_7'
p157
aS'->'
p158
aS'variable_21'
p159
ag17
ag131
aS'powerpc'
p160
ag131
ag10
aS'=='
p161
ag31
ag10
aS'if'
p162
ag5
aS'func_18'
p163
ag5
aS'variable_7'
p164
aS'->'
p165
aS'variable_20'
p166
ag17
ag131
aS'Apple_UNIX_SVR2'
p167
ag131
ag10
aS'=='
p168
ag31
aS'||'
p169
ag5
aS'func_19'
p170
ag5
aS'variable_7'
p171
aS'->'
p172
aS'variable_20'
p173
ag17
ag131
aS'Linux'
p174
ag131
ag17
aS'5'
p175
ag10
aS'=='
p176
ag31
aS'&&'
p177
aS'func_20'
p178
ag5
aS'variable_7'
p179
aS'->'
p180
aS'variable_20'
p181
ag17
ag131
aS'Linux_swap'
p182
ag131
ag10
aS'!='
p183
ag31
ag10
ag10
aS'variable_25'
p184
ag28
aS'strlen'
p185
ag5
aS'variable_7'
p186
aS'->'
p187
aS'variable_22'
p188
ag10
ag14
aS'if'
p189
ag5
aS'strcmp'
p190
ag5
aS'variable_7'
p191
aS'->'
p192
aS'variable_22'
p193
ag17
ag131
ag53
ag131
ag10
aS'=='
p194
ag31
ag10
aS'for'
p195
ag5
aS'variable_26'
p196
ag28
ag31
ag14
aS'variable_26'
p197
ag82
ag28
aS'variable_25'
p198
aS'-'
p199
aS'4'
p200
ag14
aS'++'
p201
aS'variable_26'
p202
ag10
aS'if'
p203
ag5
aS'func_21'
p204
ag5
aS'variable_7'
p205
aS'->'
p206
aS'variable_22'
p207
ag62
aS'variable_26'
p208
ag17
ag131
aS'root'
p209
ag131
ag17
ag200
ag10
aS'=='
p210
ag31
ag10
aS'if'
p211
ag5
aS'func_22'
p212
ag5
aS'variable_7'
p213
aS'->'
p214
aS'variable_22'
p215
ag17
ag131
aS'swap'
p216
ag131
ag17
ag200
ag10
aS'=='
p217
ag31
ag10
aa(lp218
S'int'
p219
aS'func_0'
p220
ag5
aS'struct'
p221
aS'variable_0'
p222
ag8
aS'variable_1'
p223
ag10
aS'unsigned'
p224
aS'char'
p225
ag8
aS'variable_2'
p226
ag14
aS'unsigned'
p227
aS'variable_3'
p228
ag14
aS'struct'
p229
aS'variable_4'
p230
ag8
aS'variable_5'
p231
ag14
aS'struct'
p232
aS'variable_6'
p233
ag8
aS'variable_7'
p234
ag14
aS'variable_7'
p235
ag28
aS'func_1'
p236
ag5
aS'variable_1'
p237
ag17
ag31
ag17
ag32
aS'variable_8'
p238
ag10
ag14
aS'if'
p239
ag5
ag35
aS'variable_7'
p240
ag10
aS'if'
p241
ag5
aS'func_2'
p242
ag5
aS'variable_7'
p243
aS'->'
p244
aS'variable_9'
p245
ag10
aS'!='
p246
aS'variable_10'
p247
ag10
aS'variable_3'
p248
ag28
aS'func_3'
p249
ag5
aS'variable_7'
p250
aS'->'
p251
aS'variable_11'
p252
ag10
ag14
aS'variable_2'
p253
ag28
aS'func_4'
p254
ag5
aS'variable_1'
p255
ag17
aS'variable_3'
p256
ag53
aS'512'
p257
ag17
ag32
aS'variable_8'
p258
ag10
ag14
aS'if'
p259
ag5
ag35
aS'variable_2'
p260
ag10
aS'variable_5'
p261
ag28
ag5
aS'struct'
p262
aS'CVE_2011_1010_VULN_mac_partition'
p263
ag8
ag10
ag5
aS'variable_2'
p264
ag62
aS'variable_3'
p265
ag64
aS'512'
p266
ag10
ag14
aS'if'
p267
ag5
aS'func_5'
p268
ag5
aS'variable_5'
p269
aS'->'
p270
aS'variable_9'
p271
ag10
aS'!='
p272
aS'variable_12'
p273
ag10
aS'variable_13'
p274
ag28
aS'func_6'
p275
ag5
aS'variable_5'
p276
aS'->'
p277
aS'variable_14'
p278
ag10
ag14
aS'for'
p279
ag5
aS'variable_15'
p280
ag28
ag80
ag14
aS'variable_15'
p281
ag82
ag28
aS'variable_13'
p282
ag14
aS'++'
p283
aS'variable_15'
p284
ag10
aS'if'
p285
ag5
aS'func_7'
p286
ag5
aS'variable_5'
p287
aS'->'
p288
aS'variable_9'
p289
ag10
aS'!='
p290
aS'variable_12'
p291
ag10
aS'func_8'
p292
ag5
aS'variable_1'
p293
ag17
aS'variable_16'
p294
ag17
aS'func_9'
p295
ag5
aS'variable_5'
p296
aS'->'
p297
aS'variable_17'
p298
ag10
ag8
ag5
aS'variable_3'
p299
ag53
aS'512'
p300
ag10
ag17
aS'func_10'
p301
ag5
aS'variable_5'
p302
aS'->'
p303
aS'variable_18'
p304
ag10
ag8
ag5
aS'variable_3'
p305
ag53
aS'512'
p306
ag10
ag10
ag14
aS'if'
p307
ag5
ag35
aS'func_11'
p308
ag5
aS'variable_5'
p309
aS'->'
p310
aS'variable_19'
p311
ag17
ag131
aS'Linux_RAID'
p312
ag131
ag17
aS'10'
p313
ag10
ag10
aS'func_12'
p314
ag5
aS'variable_5'
p315
aS'->'
p316
aS'variable_20'
p317
ag17
aS'16'
p318
ag10
ag14
aS'func_13'
p319
ag5
aS'variable_5'
p320
aS'->'
p321
aS'variable_21'
p322
ag17
aS'32'
p323
ag10
ag14
aS'func_14'
p324
ag5
aS'variable_5'
p325
aS'->'
p326
aS'variable_19'
p327
ag17
aS'32'
p328
ag10
ag14
aS'if'
p329
ag5
ag5
aS'func_15'
p330
ag5
aS'variable_5'
p331
aS'->'
p332
aS'variable_22'
p333
ag10
ag32
aS'variable_23'
p334
ag10
aS'&&'
p335
aS'func_16'
p336
ag5
aS'variable_5'
p337
aS'->'
p338
aS'variable_20'
p339
ag17
ag131
aS'powerpc'
p340
ag131
ag10
aS'=='
p341
ag31
ag10
aS'if'
p342
ag5
aS'func_17'
p343
ag5
aS'variable_5'
p344
aS'->'
p345
aS'variable_19'
p346
ag17
ag131
aS'Apple_UNIX_SVR2'
p347
ag131
ag10
aS'=='
p348
ag31
aS'||'
p349
ag5
aS'func_18'
p350
ag5
aS'variable_5'
p351
aS'->'
p352
aS'variable_19'
p353
ag17
ag131
aS'Linux'
p354
ag131
ag17
ag175
ag10
aS'=='
p355
ag31
aS'&&'
p356
aS'func_19'
p357
ag5
aS'variable_5'
p358
aS'->'
p359
aS'variable_19'
p360
ag17
ag131
aS'Linux_swap'
p361
ag131
ag10
aS'!='
p362
ag31
ag10
ag10
aS'variable_24'
p363
ag28
aS'strlen'
p364
ag5
aS'variable_5'
p365
aS'->'
p366
aS'variable_21'
p367
ag10
ag14
aS'if'
p368
ag5
aS'strcmp'
p369
ag5
aS'variable_5'
p370
aS'->'
p371
aS'variable_21'
p372
ag17
ag131
ag53
ag131
ag10
aS'=='
p373
ag31
ag10
aS'for'
p374
ag5
aS'variable_25'
p375
ag28
ag31
ag14
aS'variable_25'
p376
ag82
ag28
aS'variable_24'
p377
ag199
ag200
ag14
aS'++'
p378
aS'variable_25'
p379
ag10
aS'if'
p380
ag5
aS'func_20'
p381
ag5
aS'variable_5'
p382
aS'->'
p383
aS'variable_21'
p384
ag62
aS'variable_25'
p385
ag17
ag131
aS'root'
p386
ag131
ag17
ag200
ag10
aS'=='
p387
ag31
ag10
aS'if'
p388
ag5
aS'func_21'
p389
ag5
aS'variable_5'
p390
aS'->'
p391
aS'variable_21'
p392
ag17
ag131
aS'swap'
p393
ag131
ag17
ag200
ag10
aS'=='
p394
ag31
ag10
aaa(lp395
I1
aI1
aa(lp396
I167
aI88
aa(lp397
(lp398
S'main'
p399
aa(lp400
g399
aaa(lp401
S'183 /home/SySeVR/data/CVE_2011_1010_VULN_mac_partition.c part = ( struct CVE_2011_1010_VULN_mac_partition * ) ( data + pos % 512 ) 41'
p402
aS'184 /home/SySeVR/data/CVE_2011_1010_VULN_mac_partition.c part = ( struct CVE_2011_1010_VULN_mac_partition * ) ( data + secsize % 512 ) 28'
p403
aa.