(lp0
(lp1
(lp2
S'static'
p3
aS'variable_0'
p4
aS'*'
p5
aS'func_0'
p6
aS'('
p7
aS'variable_0'
p8
ag5
aS'variable_1'
p9
aS')'
p10
aS'variable_2'
p11
aS'->'
p12
aS'variable_3'
p13
aS'='
p14
aS'func_1'
p15
ag7
ag5
ag7
ag7
aS'__u16'
p16
ag5
ag10
aS'variable_1'
p17
ag10
ag10
aS';'
p18
aS'variable_1'
p19
aS'+='
p20
aS'2'
p21
ag18
aS'variable_2'
p22
aS'->'
p23
aS'variable_4'
p24
ag14
ag5
aS'variable_1'
p25
aS'++'
p26
ag18
aS'memcpy'
p27
ag7
aS'variable_2'
p28
aS'->'
p29
aS'variable_5'
p30
aS','
p31
aS'variable_1'
p32
ag31
aS'variable_2'
p33
aS'->'
p34
aS'variable_4'
p35
ag10
ag18
aS'variable_1'
p36
aS'+='
p37
aS'variable_2'
p38
aS'->'
p39
aS'variable_4'
p40
ag18
aS'variable_2'
p41
aS'->'
p42
aS'variable_6'
p43
ag14
ag5
aS'variable_1'
p44
aS'++'
p45
ag18
aS'if'
p46
ag7
aS'variable_2'
p47
aS'->'
p48
aS'variable_6'
p49
aS'!='
p50
aS'0'
p51
ag10
aS'variable_2'
p52
aS'->'
p53
aS'variable_7'
p54
ag14
ag5
aS'variable_1'
p55
aS'++'
p56
ag18
aS'func_2'
p57
ag7
aS'"'
p58
aS'sel_res_len'
p59
aS'%'
p60
aS'd'
p61
ag31
aS'sel_res'
p62
aS'0x'
p63
ag60
aS'x'
p64
aS'\\'
p65
aS'n'
p66
ag58
ag31
aS'variable_2'
p67
aS'->'
p68
aS'variable_6'
p69
ag31
aS'variable_2'
p70
aS'->'
p71
aS'variable_7'
p72
ag10
ag18
aS'return'
p73
aS'variable_1'
p74
ag18
aaa(lp75
I1
aa(lp76
I39
aa(lp77
(lp78
S'main'
p79
aaa(lp80
S'495 /home/SySeVR/data/CVE_2012_3364_VULN_nci_extract_rf_params_nfca_passive_poll.c memcpy 13'
p81
aa.