(lp0
(lp1
(lp2
S'func_0'
p3
aS'('
p4
aS'struct'
p5
aS'variable_0'
p6
aS'*'
p7
aS'variable_1'
p8
aS','
p9
aS'int'
p10
aS'variable_2'
p11
aS')'
p12
aS'memset'
p13
ag4
aS'variable_1'
p14
ag9
aS'0'
p15
ag9
aS'sizeof'
p16
ag4
aS'struct'
p17
aS'variable_0'
p18
ag12
ag12
aS';'
p19
aS'variable_1'
p20
aS'->'
p21
aS'variable_3'
p22
aS'='
p23
aS'1'
p24
ag19
aS'variable_1'
p25
aS'->'
p26
aS'variable_4'
p27
ag23
aS'func_1'
p28
ag4
aS'variable_5'
p29
ag9
aS'variable_6'
p30
ag12
ag19
aS'if'
p31
ag4
aS'!'
p32
aS'variable_1'
p33
aS'->'
p34
aS'variable_4'
p35
ag12
aS'variable_1'
p36
aS'->'
p37
aS'variable_7'
p38
ag23
aS'func_2'
p39
ag4
aS'variable_5'
p40
ag9
aS'variable_6'
p41
ag12
ag19
aS'if'
p42
ag4
ag32
aS'variable_1'
p43
aS'->'
p44
aS'variable_7'
p45
ag12
aS'kfree'
p46
ag4
aS'variable_1'
p47
aS'->'
p48
aS'variable_4'
p49
ag12
ag19
aaa(lp50
I0
aa(lp51
I10
aa(lp52
(lp53
S'main'
p54
aaa(lp55
S'43 /home/SySeVR/data/CVE_2008_3915_PATCHED_init_state.c memset 6'
p56
aa.