(lp0
(lp1
(lp2
S'func_0'
p3
aS'('
p4
aS'struct'
p5
aS'variable_0'
p6
aS'*'
p7
aS'variable_1'
p8
aS','
p9
aS'int'
p10
aS'variable_2'
p11
aS')'
p12
aS'int'
p13
aS'variable_3'
p14
aS';'
p15
aS'variable_3'
p16
aS'='
p17
aS'sizeof'
p18
ag4
aS'struct'
p19
aS'variable_4'
p20
ag12
aS'+'
p21
aS'variable_2'
p22
ag7
aS'sizeof'
p23
ag4
aS'struct'
p24
aS'variable_5'
p25
ag12
ag15
aS'variable_1'
p26
aS'->'
p27
aS'variable_6'
p28
ag17
aS'func_1'
p29
ag4
aS'variable_3'
p30
ag9
aS'variable_7'
p31
ag12
ag15
aS'if'
p32
ag4
aS'!'
p33
aS'variable_1'
p34
aS'->'
p35
aS'variable_6'
p36
ag12
aS'variable_1'
p37
aS'->'
p38
aS'variable_8'
p39
ag17
aS'func_2'
p40
ag4
aS'variable_3'
p41
ag9
aS'variable_7'
p42
ag12
ag15
aS'if'
p43
ag4
ag33
aS'variable_1'
p44
aS'->'
p45
aS'variable_8'
p46
ag12
aS'kfree'
p47
ag4
aS'variable_1'
p48
aS'->'
p49
aS'variable_6'
p50
ag12
ag15
aaa(lp51
I0
aa(lp52
I19
aa(lp53
(lp54
S'main'
p55
aaa(lp56
S'50 /home/SySeVR/data/CVE_2008_3915_PATCHED_init_state.c alloc = sizeof ( struct posix_ace_state_array ) + cnt * sizeof ( struct posix_user_ace_state ) 13'
p57
aa.