(lp0
(lp1
(lp2
S'static'
p3
aS'int'
p4
aS'func_0'
p5
aS'('
p6
aS'variable_0'
p7
aS'*'
p8
aS'variable_1'
p9
aS','
p10
aS'const'
p11
aS'AVCodecContext'
p12
ag8
aS'variable_2'
p13
aS')'
p14
aS'variable_3'
p15
ag8
aS'variable_4'
p16
aS'='
p17
aS'variable_1'
p18
aS'->'
p19
aS'variable_5'
p20
ag10
ag8
aS'variable_6'
p21
ag17
aS'variable_2'
p22
aS'->'
p23
aS'variable_5'
p24
aS';'
p25
aS'if'
p26
ag6
aS'!'
p27
aS'variable_6'
p28
aS'->'
p29
aS'variable_7'
p30
aS'.'
p31
aS'variable_8'
p32
aS'['
p33
aS'0'
p34
aS']'
p35
aS'||'
p36
aS'variable_4'
p37
aS'->'
p38
aS'variable_9'
p39
aS'!='
p40
aS'variable_6'
p41
aS'->'
p42
aS'variable_9'
p43
aS'||'
p44
aS'variable_4'
p45
aS'->'
p46
aS'variable_10'
p47
aS'!='
p48
aS'variable_6'
p49
aS'->'
p50
aS'variable_10'
p51
ag14
aS'if'
p52
ag6
aS'variable_4'
p53
aS'!='
p54
aS'variable_6'
p55
ag14
aS'if'
p56
ag6
ag27
aS'variable_4'
p57
aS'->'
p58
aS'variable_7'
p59
ag31
aS'variable_8'
p60
ag33
ag34
ag35
ag14
aS'int'
p61
aS'variable_11'
p62
ag10
aS'variable_12'
p63
ag25
aS'variable_4'
p64
aS'->'
p65
aS'variable_13'
p66
ag17
aS'variable_1'
p67
ag25
aS'variable_14'
p68
ag17
aS'func_1'
p69
ag6
aS'variable_1'
p70
ag14
ag25
aS'if'
p71
ag6
aS'variable_14'
p72
ag14
aS'variable_11'
p73
ag17
aS'variable_4'
p74
aS'->'
p75
aS'variable_15'
p76
ag33
ag34
ag35
ag8
aS'variable_4'
p77
aS'->'
p78
aS'variable_16'
p79
ag33
ag34
ag35
ag25
aS'variable_12'
p80
ag17
aS'variable_4'
p81
aS'->'
p82
aS'variable_15'
p83
ag33
aS'1'
p84
ag35
ag8
aS'variable_4'
p85
aS'->'
p86
aS'variable_16'
p87
ag33
ag84
ag35
ag25
aS'memcpy'
p88
ag6
aS'variable_4'
p89
aS'->'
p90
aS'variable_17'
p91
ag33
ag34
ag35
ag10
aS'variable_6'
p92
aS'->'
p93
aS'variable_17'
p94
ag33
ag34
ag35
ag10
aS'variable_11'
p95
ag8
aS'sizeof'
p96
ag6
ag8
aS'variable_4'
p97
aS'->'
p98
aS'variable_17'
p99
ag33
ag34
ag35
ag14
ag14
ag25
aS'memcpy'
p100
ag6
aS'variable_4'
p101
aS'->'
p102
aS'variable_17'
p103
ag33
ag84
ag35
ag10
aS'variable_6'
p104
aS'->'
p105
aS'variable_17'
p106
ag33
ag84
ag35
ag10
aS'variable_12'
p107
ag8
aS'sizeof'
p108
ag6
ag8
aS'variable_4'
p109
aS'->'
p110
aS'variable_17'
p111
ag33
ag84
ag35
ag14
ag14
ag25
aS'for'
p112
ag6
aS'variable_18'
p113
ag17
ag34
ag25
aS'variable_18'
p114
aS'<'
p115
aS'3'
p116
ag25
aS'variable_18'
p117
aS'++'
p118
ag14
aS'if'
p119
ag6
aS'variable_4'
p120
aS'->'
p121
aS'variable_19'
p122
ag33
aS'variable_18'
p123
ag35
aS'!='
p124
aS'variable_6'
p125
aS'->'
p126
aS'variable_19'
p127
ag33
ag84
ag35
ag14
aS'memcpy'
p128
ag6
aS'&'
p129
aS'variable_4'
p130
aS'->'
p131
aS'variable_20'
p132
ag33
aS'variable_18'
p133
ag35
ag10
ag129
aS'variable_6'
p134
aS'->'
p135
aS'variable_20'
p136
ag33
aS'variable_18'
p137
ag35
ag10
aS'sizeof'
p138
ag6
aS'variable_4'
p139
aS'->'
p140
aS'variable_20'
p141
ag33
aS'variable_18'
p142
ag35
ag14
ag14
ag25
aS'if'
p143
ag6
aS'variable_4'
p144
aS'->'
p145
aS'variable_19'
p146
ag33
ag34
ag35
aS'!='
p147
aS'variable_6'
p148
aS'->'
p149
aS'variable_19'
p150
ag33
ag34
ag35
ag14
aS'memcpy'
p151
ag6
ag129
aS'variable_4'
p152
aS'->'
p153
aS'variable_21'
p154
ag10
ag129
aS'variable_6'
p155
aS'->'
p156
aS'variable_21'
p157
ag10
aS'sizeof'
p158
ag6
aS'variable_4'
p159
aS'->'
p160
aS'variable_21'
p161
ag14
ag14
ag25
aS'func_2'
p162
ag6
aS'variable_4'
p163
ag10
aS'variable_6'
p164
ag10
aS'variable_19'
p165
ag10
aS'variable_22'
p166
ag14
ag25
aa(lp167
S'static'
p168
aS'int'
p169
aS'func_0'
p170
ag6
aS'variable_0'
p171
ag8
aS'variable_1'
p172
ag10
aS'const'
p173
aS'AVCodecContext'
p174
ag8
aS'variable_2'
p175
ag14
aS'variable_3'
p176
ag8
aS'variable_4'
p177
ag17
aS'variable_1'
p178
aS'->'
p179
aS'variable_5'
p180
ag10
ag8
aS'variable_6'
p181
ag17
aS'variable_2'
p182
aS'->'
p183
aS'variable_5'
p184
ag25
aS'if'
p185
ag6
ag27
aS'variable_6'
p186
aS'->'
p187
aS'variable_7'
p188
ag31
aS'variable_8'
p189
ag33
ag34
ag35
aS'||'
p190
aS'variable_4'
p191
aS'->'
p192
aS'variable_9'
p193
aS'!='
p194
aS'variable_6'
p195
aS'->'
p196
aS'variable_9'
p197
aS'||'
p198
aS'variable_4'
p199
aS'->'
p200
aS'variable_10'
p201
aS'!='
p202
aS'variable_6'
p203
aS'->'
p204
aS'variable_10'
p205
ag14
aS'if'
p206
ag6
aS'variable_4'
p207
aS'!='
p208
aS'variable_6'
p209
ag14
aS'if'
p210
ag6
ag27
aS'variable_4'
p211
aS'->'
p212
aS'variable_7'
p213
ag31
aS'variable_8'
p214
ag33
ag34
ag35
ag14
aS'int'
p215
aS'variable_11'
p216
ag10
aS'variable_12'
p217
ag25
aS'variable_4'
p218
aS'->'
p219
aS'variable_13'
p220
ag17
aS'variable_1'
p221
ag25
aS'variable_14'
p222
ag17
aS'func_1'
p223
ag6
aS'variable_1'
p224
ag14
ag25
aS'if'
p225
ag6
aS'variable_14'
p226
ag14
aS'variable_11'
p227
ag17
aS'variable_4'
p228
aS'->'
p229
aS'variable_15'
p230
ag33
ag34
ag35
ag8
aS'variable_4'
p231
aS'->'
p232
aS'variable_16'
p233
ag33
ag34
ag35
ag25
aS'variable_12'
p234
ag17
aS'variable_4'
p235
aS'->'
p236
aS'variable_15'
p237
ag33
ag84
ag35
ag8
aS'variable_4'
p238
aS'->'
p239
aS'variable_16'
p240
ag33
ag84
ag35
ag25
aS'memcpy'
p241
ag6
aS'variable_4'
p242
aS'->'
p243
aS'variable_17'
p244
ag33
ag34
ag35
ag10
aS'variable_6'
p245
aS'->'
p246
aS'variable_17'
p247
ag33
ag34
ag35
ag10
aS'variable_11'
p248
ag8
aS'sizeof'
p249
ag6
ag8
aS'variable_4'
p250
aS'->'
p251
aS'variable_17'
p252
ag33
ag34
ag35
ag14
ag14
ag25
aS'memcpy'
p253
ag6
aS'variable_4'
p254
aS'->'
p255
aS'variable_17'
p256
ag33
ag84
ag35
ag10
aS'variable_6'
p257
aS'->'
p258
aS'variable_17'
p259
ag33
ag84
ag35
ag10
aS'variable_12'
p260
ag8
aS'sizeof'
p261
ag6
ag8
aS'variable_4'
p262
aS'->'
p263
aS'variable_17'
p264
ag33
ag84
ag35
ag14
ag14
ag25
aS'func_2'
p265
ag6
aS'variable_4'
p266
ag10
aS'variable_6'
p267
ag10
aS'variable_18'
p268
ag10
aS'variable_19'
p269
ag14
ag25
aS'if'
p270
ag6
aS'variable_4'
p271
aS'->'
p272
aS'variable_20'
p273
ag33
aS'variable_21'
p274
ag35
aS'!='
p275
aS'variable_6'
p276
aS'->'
p277
aS'variable_20'
p278
ag33
ag84
ag35
ag14
aS'memcpy'
p279
ag6
ag129
aS'variable_4'
p280
aS'->'
p281
aS'variable_22'
p282
ag33
aS'variable_21'
p283
ag35
ag10
ag129
aS'variable_6'
p284
aS'->'
p285
aS'variable_22'
p286
ag33
aS'variable_21'
p287
ag35
ag10
aS'sizeof'
p288
ag6
aS'variable_4'
p289
aS'->'
p290
aS'variable_22'
p291
ag33
aS'variable_21'
p292
ag35
ag14
ag14
ag25
aS'if'
p293
ag6
aS'variable_4'
p294
aS'->'
p295
aS'variable_20'
p296
ag33
ag34
ag35
aS'!='
p297
aS'variable_6'
p298
aS'->'
p299
aS'variable_20'
p300
ag33
ag34
ag35
ag14
aS'memcpy'
p301
ag6
ag129
aS'variable_4'
p302
aS'->'
p303
aS'variable_23'
p304
ag10
ag129
aS'variable_6'
p305
aS'->'
p306
aS'variable_23'
p307
ag10
aS'sizeof'
p308
ag6
aS'variable_4'
p309
aS'->'
p310
aS'variable_23'
p311
ag14
ag14
ag25
aS'func_3'
p312
ag6
aS'variable_4'
p313
ag10
aS'variable_6'
p314
ag10
aS'variable_20'
p315
ag10
aS'variable_24'
p316
ag14
ag25
aa(lp317
S'static'
p318
aS'int'
p319
aS'func_0'
p320
ag6
aS'variable_0'
p321
ag8
aS'variable_1'
p322
ag10
aS'const'
p323
aS'AVCodecContext'
p324
ag8
aS'variable_2'
p325
ag14
aS'variable_3'
p326
ag8
aS'variable_4'
p327
ag17
aS'variable_1'
p328
aS'->'
p329
aS'variable_5'
p330
ag10
ag8
aS'variable_6'
p331
ag17
aS'variable_2'
p332
aS'->'
p333
aS'variable_5'
p334
ag25
aS'if'
p335
ag6
ag27
aS'variable_6'
p336
aS'->'
p337
aS'variable_7'
p338
ag31
aS'variable_8'
p339
ag33
ag34
ag35
aS'||'
p340
aS'variable_4'
p341
aS'->'
p342
aS'variable_9'
p343
aS'!='
p344
aS'variable_6'
p345
aS'->'
p346
aS'variable_9'
p347
aS'||'
p348
aS'variable_4'
p349
aS'->'
p350
aS'variable_10'
p351
aS'!='
p352
aS'variable_6'
p353
aS'->'
p354
aS'variable_10'
p355
ag14
aS'if'
p356
ag6
aS'variable_4'
p357
aS'!='
p358
aS'variable_6'
p359
ag14
aS'if'
p360
ag6
ag27
aS'variable_4'
p361
aS'->'
p362
aS'variable_7'
p363
ag31
aS'variable_8'
p364
ag33
ag34
ag35
ag14
aS'int'
p365
aS'variable_11'
p366
ag10
aS'variable_12'
p367
ag25
aS'variable_4'
p368
aS'->'
p369
aS'variable_13'
p370
ag17
aS'variable_1'
p371
ag25
aS'variable_14'
p372
ag17
aS'func_1'
p373
ag6
aS'variable_1'
p374
ag14
ag25
aS'if'
p375
ag6
aS'variable_14'
p376
ag14
aS'variable_11'
p377
ag17
aS'variable_4'
p378
aS'->'
p379
aS'variable_15'
p380
ag33
ag34
ag35
ag8
aS'variable_4'
p381
aS'->'
p382
aS'variable_16'
p383
ag33
ag34
ag35
ag25
aS'memcpy'
p384
ag6
aS'variable_4'
p385
aS'->'
p386
aS'variable_17'
p387
ag33
ag34
ag35
ag10
aS'variable_6'
p388
aS'->'
p389
aS'variable_17'
p390
ag33
ag34
ag35
ag10
aS'variable_11'
p391
ag8
aS'sizeof'
p392
ag6
ag8
aS'variable_4'
p393
aS'->'
p394
aS'variable_17'
p395
ag33
ag34
ag35
ag14
ag14
ag25
aS'memcpy'
p396
ag6
aS'variable_4'
p397
aS'->'
p398
aS'variable_17'
p399
ag33
ag84
ag35
ag10
aS'variable_6'
p400
aS'->'
p401
aS'variable_17'
p402
ag33
ag84
ag35
ag10
aS'variable_12'
p403
ag8
aS'sizeof'
p404
ag6
ag8
aS'variable_4'
p405
aS'->'
p406
aS'variable_17'
p407
ag33
ag84
ag35
ag14
ag14
ag25
aS'func_2'
p408
ag6
aS'variable_4'
p409
ag10
aS'variable_6'
p410
ag10
aS'variable_18'
p411
ag10
aS'variable_19'
p412
ag14
ag25
aS'if'
p413
ag6
aS'variable_4'
p414
aS'->'
p415
aS'variable_20'
p416
ag33
aS'variable_21'
p417
ag35
aS'!='
p418
aS'variable_6'
p419
aS'->'
p420
aS'variable_20'
p421
ag33
ag84
ag35
ag14
aS'memcpy'
p422
ag6
ag129
aS'variable_4'
p423
aS'->'
p424
aS'variable_22'
p425
ag33
aS'variable_21'
p426
ag35
ag10
ag129
aS'variable_6'
p427
aS'->'
p428
aS'variable_22'
p429
ag33
aS'variable_21'
p430
ag35
ag10
aS'sizeof'
p431
ag6
aS'variable_4'
p432
aS'->'
p433
aS'variable_22'
p434
ag33
aS'variable_21'
p435
ag35
ag14
ag14
ag25
aS'if'
p436
ag6
aS'variable_4'
p437
aS'->'
p438
aS'variable_20'
p439
ag33
ag34
ag35
aS'!='
p440
aS'variable_6'
p441
aS'->'
p442
aS'variable_20'
p443
ag33
ag34
ag35
ag14
aS'memcpy'
p444
ag6
ag129
aS'variable_4'
p445
aS'->'
p446
aS'variable_23'
p447
ag10
ag129
aS'variable_6'
p448
aS'->'
p449
aS'variable_23'
p450
ag10
aS'sizeof'
p451
ag6
aS'variable_4'
p452
aS'->'
p453
aS'variable_23'
p454
ag14
ag14
ag25
aS'func_3'
p455
ag6
aS'variable_4'
p456
ag10
aS'variable_6'
p457
ag10
aS'variable_20'
p458
ag10
aS'variable_24'
p459
ag14
ag25
aaa(lp460
I0
aI0
aI0
aa(lp461
I262
aI158
aI112
aa(lp462
(lp463
S'main'
p464
aa(lp465
g464
aa(lp466
g464
aaa(lp467
S'486 /home/SySeVR/data/CVE_2011_3934_VULN_vp3_update_thread_context.c memcpy 42'
p468
aS'488 /home/SySeVR/data/CVE_2011_3934_VULN_vp3_update_thread_context.c memcpy 27'
p469
aS'489 /home/SySeVR/data/CVE_2011_3934_VULN_vp3_update_thread_context.c memcpy 26'
p470
aa.