(lp0
(lp1
(lp2
S'func_0'
p3
aS'('
p4
aS'variable_0'
p5
aS'*'
p6
aS'variable_1'
p7
aS','
p8
aS'variable_2'
p9
ag6
aS'variable_3'
p10
ag8
aS'variable_4'
p11
ag6
aS'variable_5'
p12
ag8
aS'guint32'
p13
aS'variable_6'
p14
ag8
aS'guint'
p15
aS'variable_7'
p16
ag8
aS'int'
p17
aS'variable_8'
p18
ag8
aS'variable_9'
p19
ag6
aS'variable_10'
p20
aS')'
p21
aS'guint8'
p22
aS'variable_11'
p23
ag8
aS'variable_12'
p24
aS';'
p25
aS'guint32'
p26
aS'variable_13'
p27
ag8
aS'variable_14'
p28
ag8
aS'variable_15'
p29
ag25
aS'variable_13'
p30
aS'='
p31
aS'variable_6'
p32
ag25
aS'variable_11'
p33
ag31
aS'func_1'
p34
ag4
aS'variable_1'
p35
ag8
aS'variable_13'
p36
ag21
aS'&'
p37
aS'0x80'
p38
ag25
aS'variable_13'
p39
aS'++'
p40
ag25
aS'if'
p41
ag4
aS'!'
p42
aS'variable_11'
p43
ag21
aS'variable_13'
p44
aS'++'
p45
ag25
aS'variable_15'
p46
ag31
aS'variable_7'
p47
aS'-'
p48
ag4
aS'variable_13'
p49
ag48
aS'variable_6'
p50
ag21
ag25
aS'variable_16'
p51
ag31
ag4
aS'guint8'
p52
ag6
ag21
aS'func_2'
p53
ag4
aS'func_3'
p54
ag4
ag21
ag8
aS'variable_1'
p55
ag8
aS'variable_13'
p56
ag8
aS'variable_15'
p57
ag21
ag25
aS'func_4'
p58
ag4
aS'variable_17'
p59
ag8
aS'variable_16'
p60
ag8
aS'variable_15'
p61
ag8
ag37
aS'variable_18'
p62
ag21
ag25
aS'variable_19'
p63
ag31
aS'func_5'
p64
ag4
aS'variable_3'
p65
ag8
aS'variable_8'
p66
ag8
aS'variable_1'
p67
ag8
aS'variable_13'
p68
ag8
aS'variable_15'
p69
ag8
aS'variable_17'
p70
ag8
aS'"'
p71
aS'BCD'
p72
aS'Digits'
p73
aS':'
p74
aS'%'
p75
aS's'
p76
ag71
ag8
aS'variable_17'
p77
ag21
ag25
aS'for'
p78
ag4
aS'variable_14'
p79
ag31
aS'0'
p80
ag25
aS'variable_14'
p81
aS'<'
p82
aS'variable_15'
p83
ag48
aS'1'
p84
ag25
aS'variable_14'
p85
aS'++'
p86
ag21
aS'variable_12'
p87
ag31
aS'variable_16'
p88
aS'['
p89
aS'variable_14'
p90
aS']'
p91
ag25
aS'if'
p92
ag4
ag4
ag4
aS'variable_12'
p93
ag37
aS'0xf0'
p94
ag21
aS'=='
p95
aS'0xf0'
p96
ag21
aS'||'
p97
ag4
ag4
aS'variable_12'
p98
ag37
aS'0x0f'
p99
ag21
aS'=='
p100
aS'0x0f'
p101
ag21
ag21
aS'variable_12'
p102
ag31
aS'variable_16'
p103
ag89
aS'variable_15'
p104
ag48
ag84
ag91
ag25
aS'if'
p105
ag4
ag4
aS'variable_12'
p106
ag37
aS'0x0f'
p107
ag21
aS'=='
p108
aS'0x0f'
p109
ag21
aS'func_6'
p110
ag4
aS'variable_5'
p111
ag8
aS'variable_19'
p112
ag8
ag37
aS'variable_20'
p113
ag21
ag25
aaa(lp114
I1
aa(lp115
I73
aa(lp116
(lp117
S'main'
p118
aaa(lp119
S'717 /home/SySeVR/data/CVE_2015_4652_VULN_de_bcd_num.c num_string_len = len - ( curr_offset - offset ) 30'
p120
aa.