(lp0
(lp1
(lp2
S'static'
p3
aS'int'
p4
aS'func_0'
p5
aS'('
p6
aS'struct'
p7
aS'variable_0'
p8
aS'*'
p9
aS'variable_1'
p10
aS','
p11
aS'struct'
p12
aS'variable_2'
p13
ag9
aS'variable_3'
p14
ag11
aS'int'
p15
aS'variable_4'
p16
ag11
aS'int'
p17
aS'variable_5'
p18
ag11
aS'u32'
p19
aS'variable_6'
p20
ag11
aS'int'
p21
aS'variable_7'
p22
ag11
aS'int'
p23
aS'variable_8'
p24
ag11
aS'unsigned'
p25
aS'int'
p26
aS'variable_9'
p27
aS')'
p28
aS'struct'
p29
aS'variable_10'
p30
ag9
aS'variable_11'
p31
aS';'
p32
aS'struct'
p33
aS'variable_12'
p34
ag9
aS'variable_13'
p35
ag32
aS'long'
p36
aS'variable_14'
p37
ag32
aS'if'
p38
ag6
aS'variable_7'
p39
ag28
aS'if'
p40
ag6
aS'!'
p41
ag6
aS'variable_15'
p42
aS'->'
p43
aS'variable_16'
p44
aS'&'
p45
aS'variable_17'
p46
ag28
ag28
aS'variable_13'
p47
aS'='
p48
aS'func_1'
p49
ag6
aS'variable_1'
p50
ag11
aS'variable_6'
p51
ag11
aS'variable_18'
p52
ag11
aS'variable_5'
p53
ag11
aS'sizeof'
p54
ag6
ag9
aS'variable_11'
p55
ag28
ag11
aS'variable_9'
p56
ag28
ag32
aS'if'
p57
ag6
aS'variable_13'
p58
aS'=='
p59
aS'NULL'
p60
ag28
aS'variable_11'
p61
ag48
aS'func_2'
p62
ag6
aS'variable_13'
p63
ag28
ag32
aS'if'
p64
ag6
aS'variable_15'
p65
aS'->'
p66
aS'variable_16'
p67
ag45
aS'variable_19'
p68
ag28
aS'if'
p69
ag6
aS'variable_15'
p70
aS'->'
p71
aS'variable_20'
p72
aS'&&'
p73
ag6
aS'variable_15'
p74
aS'->'
p75
aS'variable_20'
p76
aS'->'
p77
aS'variable_9'
p78
ag45
aS'variable_21'
p79
ag28
ag28
aS'variable_11'
p80
aS'->'
p81
aS'variable_22'
p82
ag48
aS'variable_23'
p83
ag32
aS'variable_11'
p84
aS'->'
p85
aS'variable_24'
p86
ag48
aS'0'
p87
ag32
aS'variable_11'
p88
aS'->'
p89
aS'variable_25'
p90
ag48
aS'variable_26'
p91
ag32
aS'variable_11'
p92
aS'->'
p93
aS'variable_27'
p94
ag48
aS'variable_15'
p95
aS'->'
p96
aS'variable_28'
p97
ag32
aS'if'
p98
ag6
aS'variable_15'
p99
aS'->'
p100
aS'variable_16'
p101
ag45
aS'variable_29'
p102
ag28
aS'variable_11'
p103
aS'->'
p104
aS'variable_27'
p105
ag48
aS'variable_30'
p106
ag32
aS'if'
p107
ag6
aS'variable_15'
p108
aS'->'
p109
aS'variable_16'
p110
ag45
aS'variable_31'
p111
ag28
aS'variable_11'
p112
aS'->'
p113
aS'variable_27'
p114
ag48
aS'variable_32'
p115
ag32
aS'if'
p116
ag6
aS'variable_15'
p117
aS'->'
p118
aS'variable_16'
p119
ag45
aS'variable_33'
p120
ag28
aS'variable_11'
p121
aS'->'
p122
aS'variable_27'
p123
ag48
aS'variable_34'
p124
ag32
aS'if'
p125
ag6
aS'variable_15'
p126
aS'->'
p127
aS'variable_16'
p128
ag45
aS'variable_35'
p129
ag28
aS'variable_11'
p130
aS'->'
p131
aS'variable_24'
p132
aS'|'
p133
ag48
aS'variable_36'
p134
ag32
aS'if'
p135
ag6
aS'variable_3'
p136
ag28
aS'variable_11'
p137
aS'->'
p138
aS'variable_37'
p139
ag48
aS'128'
p140
ag32
aS'if'
p141
ag6
aS'variable_38'
p142
ag28
aS'variable_11'
p143
aS'->'
p144
aS'variable_39'
p145
ag48
aS'128'
p146
ag32
aS'if'
p147
ag6
aS'variable_4'
p148
ag28
aS'if'
p149
ag6
aS'func_3'
p150
ag6
ag45
aS'variable_15'
p151
aS'->'
p152
aS'variable_40'
p153
aS'.'
p154
aS'variable_41'
p155
ag28
ag28
aS'int'
p156
aS'variable_42'
p157
ag48
aS'func_4'
p158
ag6
aS'variable_1'
p159
ag11
aS'variable_11'
p160
ag11
aS'variable_8'
p161
ag28
ag32
aS'if'
p162
ag6
aS'variable_42'
p163
aS'<'
p164
ag48
ag87
ag28
aS'if'
p165
ag6
ag41
aS'variable_8'
p166
ag28
aS'if'
p167
ag6
aS'variable_42'
p168
aS'=='
p169
aS'-'
p170
aS'variable_43'
p171
ag28
aS'if'
p172
ag6
aS'func_5'
p173
ag6
aS'variable_1'
p174
ag11
aS'variable_15'
p175
aS'->'
p176
aS'variable_44'
p177
ag154
aS'variable_3'
p178
ag154
aS'variable_45'
p179
ag28
ag164
ag87
ag28
aS'if'
p180
ag6
ag41
ag6
aS'variable_15'
p181
aS'->'
p182
aS'variable_16'
p183
ag45
aS'variable_46'
p184
ag28
ag28
aS'if'
p185
ag6
aS'variable_15'
p186
aS'->'
p187
aS'variable_47'
p188
ag170
aS'variable_48'
p189
ag164
aS'variable_49'
p190
ag28
aS'variable_14'
p191
ag48
aS'variable_15'
p192
aS'->'
p193
aS'variable_47'
p194
ag170
aS'variable_48'
p195
ag32
aS'if'
p196
ag6
aS'func_6'
p197
ag6
aS'variable_1'
p198
ag11
ag45
aS'variable_15'
p199
aS'->'
p200
aS'variable_44'
p201
ag154
aS'variable_3'
p202
ag11
ag87
ag11
ag87
ag11
ag87
ag11
aS'variable_14'
p203
ag11
aS'variable_15'
p204
aS'->'
p205
aS'variable_44'
p206
ag154
aS'variable_3'
p207
ag154
aS'variable_50'
p208
ag28
ag164
ag87
ag28
aaa(lp209
I0
aa(lp210
I314
aa(lp211
(lp212
S'main'
p213
aaa(lp214
S'49 /home/SySeVR/data/CVE_2008_3686_VULN_rt6_fill_node.c expires = rt -> rt6i_expires - jiffies 102'
p215
aa.