(lp0
(lp1
(lp2
S'int'
p3
aS'func_0'
p4
aS'('
p5
aS'variable_0'
p6
aS'*'
p7
aS'variable_1'
p8
aS','
p9
aS'unsigned'
p10
aS'int'
p11
aS'variable_2'
p12
ag9
aS'int'
p13
aS'variable_3'
p14
aS')'
p15
aS'struct'
p16
aS'ext4_extent'
p17
aS'variable_4'
p18
ag9
ag7
aS'variable_5'
p19
aS';'
p20
aS'variable_6'
p21
aS'='
p22
aS'func_1'
p23
ag5
aS'variable_7'
p24
ag9
aS'variable_8'
p25
ag9
aS'&'
p26
aS'variable_4'
p27
ag15
ag20
aS'if'
p28
ag5
aS'variable_6'
p29
ag15
aS'if'
p30
ag5
aS'variable_6'
p31
aS'=='
p32
aS'variable_9'
p33
ag15
aS'if'
p34
ag5
ag5
aS'variable_3'
p35
ag26
aS'variable_10'
p36
ag15
aS'=='
p37
aS'0'
p38
ag15
aS'if'
p39
ag5
aS'variable_6'
p40
aS'=='
p41
aS'variable_11'
p42
ag15
aS'variable_12'
p43
ag22
aS'func_2'
p44
ag5
aS'variable_7'
p45
ag9
aS'variable_8'
p46
ag9
aS'NULL'
p47
ag15
ag20
aS'if'
p48
ag5
aS'func_3'
p49
ag5
aS'variable_12'
p50
ag15
ag15
aS'variable_13'
p51
ag22
aS'func_4'
p52
ag5
aS'variable_7'
p53
ag15
ag20
aS'if'
p54
ag5
aS'variable_12'
p55
aS'['
p56
aS'variable_13'
p57
aS']'
p58
aS'.'
p59
aS'variable_14'
p60
aS'=='
p61
aS'NULL'
p62
aS'&&'
p63
aS'variable_13'
p64
aS'!='
p65
ag38
ag15
aS'variable_5'
p66
ag22
aS'variable_12'
p67
ag56
aS'variable_13'
p68
ag58
ag59
aS'variable_14'
p69
ag20
aS'if'
p70
ag5
aS'variable_5'
p71
ag15
aS'ext4_lblk_t'
p72
aS'variable_15'
p73
ag22
aS'func_5'
p74
ag5
aS'variable_5'
p75
aS'->'
p76
aS'variable_15'
p77
ag15
ag20
aS'unsigned'
p78
aS'short'
p79
aS'variable_16'
p80
ag20
aS'variable_16'
p81
ag22
aS'func_6'
p82
ag5
aS'variable_5'
p83
ag15
ag20
aS'if'
p84
ag5
aS'func_7'
p85
ag5
aS'variable_8'
p86
ag9
aS'variable_15'
p87
ag9
aS'variable_16'
p88
ag15
ag15
aS'variable_17'
p89
ag22
aS'variable_16'
p90
aS'-'
p91
ag5
aS'variable_8'
p92
ag91
aS'variable_15'
p93
ag15
ag20
aS'variable_18'
p94
ag22
aS'func_8'
p95
ag5
aS'variable_1'
p96
ag9
aS'variable_7'
p97
ag9
aS'variable_8'
p98
ag9
aS'variable_2'
p99
ag9
aS'variable_12'
p100
ag9
aS'variable_3'
p101
ag9
aS'variable_17'
p102
ag9
aS'variable_19'
p103
ag9
aS'variable_20'
p104
ag15
ag20
aS'return'
p105
aS'variable_18'
p106
ag20
aS'if'
p107
ag5
aS'variable_17'
p108
aS'>'
p109
aS'variable_2'
p110
ag15
aS'return'
p111
aS'variable_21'
p112
aS'?'
p113
aS'variable_21'
p114
aS':'
p115
aS'variable_17'
p116
ag20
aa(lp117
S'int'
p118
aS'func_0'
p119
ag5
aS'variable_0'
p120
ag7
aS'variable_1'
p121
ag9
aS'unsigned'
p122
aS'int'
p123
aS'variable_2'
p124
ag9
aS'int'
p125
aS'variable_3'
p126
ag15
aS'struct'
p127
aS'ext4_extent'
p128
aS'variable_4'
p129
ag9
ag7
aS'variable_5'
p130
ag20
aS'ext4_fsblk_t'
p131
aS'variable_6'
p132
ag20
aS'variable_7'
p133
ag22
aS'func_1'
p134
ag5
aS'variable_8'
p135
ag9
aS'variable_9'
p136
ag9
ag26
aS'variable_4'
p137
ag15
ag20
aS'if'
p138
ag5
aS'variable_7'
p139
ag15
aS'if'
p140
ag5
aS'variable_7'
p141
aS'=='
p142
aS'variable_10'
p143
ag15
aS'if'
p144
ag5
ag5
aS'variable_3'
p145
ag26
aS'variable_11'
p146
ag15
aS'=='
p147
ag38
ag15
aS'if'
p148
ag5
aS'variable_7'
p149
aS'=='
p150
aS'variable_12'
p151
ag15
aS'variable_13'
p152
ag22
aS'func_2'
p153
ag5
aS'variable_8'
p154
ag9
aS'variable_9'
p155
ag9
aS'NULL'
p156
ag15
ag20
aS'if'
p157
ag5
aS'func_3'
p158
ag5
aS'variable_13'
p159
ag15
ag15
aS'variable_14'
p160
ag22
aS'func_4'
p161
ag5
aS'variable_8'
p162
ag15
ag20
aS'if'
p163
ag5
aS'variable_13'
p164
ag56
aS'variable_14'
p165
ag58
ag59
aS'variable_15'
p166
aS'=='
p167
aS'NULL'
p168
aS'&&'
p169
aS'variable_14'
p170
aS'!='
p171
ag38
ag15
aS'variable_5'
p172
ag22
aS'variable_13'
p173
ag56
aS'variable_14'
p174
ag58
ag59
aS'variable_15'
p175
ag20
aS'if'
p176
ag5
aS'variable_5'
p177
ag15
aS'ext4_lblk_t'
p178
aS'variable_16'
p179
ag22
aS'func_5'
p180
ag5
aS'variable_5'
p181
aS'->'
p182
aS'variable_16'
p183
ag15
ag20
aS'ext4_fsblk_t'
p184
aS'variable_17'
p185
ag22
aS'func_6'
p186
ag5
aS'variable_5'
p187
ag15
ag20
aS'unsigned'
p188
aS'short'
p189
aS'variable_18'
p190
ag20
aS'variable_18'
p191
ag22
aS'func_7'
p192
ag5
aS'variable_5'
p193
ag15
ag20
aS'if'
p194
ag5
aS'func_8'
p195
ag5
aS'variable_9'
p196
ag9
aS'variable_16'
p197
ag9
aS'variable_18'
p198
ag15
ag15
aS'variable_6'
p199
ag22
aS'variable_9'
p200
ag91
aS'variable_16'
p201
aS'+'
p202
aS'variable_17'
p203
ag20
aS'func_9'
p204
ag5
aS'"'
p205
aS'%'
p206
aS'u'
p207
aS'fit'
p208
aS'into'
p209
ag206
ag207
ag115
ag206
aS'd'
p210
aS'->'
p211
ag206
aS'llu'
p212
aS'\\'
p213
aS'n'
p214
ag205
ag9
aS'variable_9'
p215
ag9
aS'variable_16'
p216
ag9
aS'variable_18'
p217
ag9
aS'variable_6'
p218
ag15
ag20
aS'variable_19'
p219
ag22
aS'func_10'
p220
ag5
aS'variable_1'
p221
ag9
aS'variable_8'
p222
ag9
aS'variable_9'
p223
ag9
aS'variable_2'
p224
ag9
aS'variable_13'
p225
ag9
aS'variable_3'
p226
ag9
aS'variable_20'
p227
ag9
aS'variable_21'
p228
ag9
aS'variable_6'
p229
ag15
ag20
aS'return'
p230
aS'variable_19'
p231
ag20
aS'variable_21'
p232
aS'->'
p233
aS'variable_22'
p234
ag22
aS'variable_6'
p235
ag20
aa(lp236
S'int'
p237
aS'func_0'
p238
ag5
aS'variable_0'
p239
ag7
aS'variable_1'
p240
ag9
aS'unsigned'
p241
aS'int'
p242
aS'variable_2'
p243
ag9
aS'int'
p244
aS'variable_3'
p245
ag15
aS'struct'
p246
aS'ext4_extent'
p247
aS'variable_4'
p248
ag9
ag7
aS'variable_5'
p249
ag20
aS'variable_6'
p250
ag22
aS'func_1'
p251
ag5
aS'variable_7'
p252
ag9
aS'variable_8'
p253
ag9
ag26
aS'variable_4'
p254
ag15
ag20
aS'if'
p255
ag5
aS'variable_6'
p256
ag15
aS'if'
p257
ag5
aS'variable_6'
p258
aS'=='
p259
aS'variable_9'
p260
ag15
aS'if'
p261
ag5
aS'variable_6'
p262
aS'=='
p263
aS'variable_10'
p264
ag15
aS'variable_11'
p265
ag22
aS'func_2'
p266
ag5
ag26
aS'variable_4'
p267
ag15
ag91
ag5
aS'variable_8'
p268
ag91
aS'func_3'
p269
ag5
aS'variable_4'
p270
ag59
aS'variable_12'
p271
ag15
ag15
ag20
aS'if'
p272
ag5
aS'variable_11'
p273
ag109
aS'variable_2'
p274
ag15
aS'return'
p275
aS'variable_13'
p276
ag113
aS'variable_13'
p277
ag115
aS'variable_11'
p278
ag20
aa(lp279
S'int'
p280
aS'func_0'
p281
ag5
aS'variable_0'
p282
ag7
aS'variable_1'
p283
ag9
aS'unsigned'
p284
aS'int'
p285
aS'variable_2'
p286
ag9
aS'int'
p287
aS'variable_3'
p288
ag15
aS'struct'
p289
aS'ext4_extent'
p290
aS'variable_4'
p291
ag9
ag7
aS'variable_5'
p292
ag20
aS'ext4_fsblk_t'
p293
aS'variable_6'
p294
ag20
aS'variable_7'
p295
ag22
aS'func_1'
p296
ag5
aS'variable_8'
p297
ag9
aS'variable_9'
p298
ag9
ag26
aS'variable_4'
p299
ag15
ag20
aS'if'
p300
ag5
aS'variable_7'
p301
ag15
aS'if'
p302
ag5
aS'variable_7'
p303
aS'=='
p304
aS'variable_10'
p305
ag15
aS'if'
p306
ag5
aS'variable_7'
p307
aS'=='
p308
aS'variable_11'
p309
ag15
aS'variable_6'
p310
ag22
aS'variable_9'
p311
ag91
aS'func_2'
p312
ag5
aS'variable_4'
p313
ag59
aS'variable_12'
p314
ag15
ag202
aS'func_3'
p315
ag5
ag26
aS'variable_4'
p316
ag15
ag20
aS'variable_13'
p317
aS'->'
p318
aS'variable_14'
p319
ag22
aS'variable_6'
p320
ag20
aaa(lp321
I0
aI0
aI0
aI0
aa(lp322
I154
aI163
aI57
aI63
aa(lp323
(lp324
S'main'
p325
aa(lp326
g325
aa(lp327
g325
aa(lp328
g325
aaa(lp329
S'134 /home/SySeVR/data/CVE_2010_3015_PATCHED_ext4_ext_get_blocks.c allocated = ee_len - ( iblock - ee_block ) 84'
p330
aS'135 /home/SySeVR/data/CVE_2010_3015_PATCHED_ext4_ext_get_blocks.c newblock = iblock - ee_block + ee_start 82'
p331
aS'136 /home/SySeVR/data/CVE_2010_3015_PATCHED_ext4_ext_get_blocks.c allocated = ext4_ext_get_actual_len ( & newex ) - ( iblock - le32_to_cpu ( newex . ee_block ) ) 37'
p332
aS'137 /home/SySeVR/data/CVE_2010_3015_PATCHED_ext4_ext_get_blocks.c newblock = iblock - le32_to_cpu ( newex . ee_block ) + ext_pblock ( & newex ) 33'
p333
aa.