(lp0
(lp1
(lp2
S'func_0'
p3
aS'('
p4
aS'variable_0'
p5
aS'*'
p6
aS'variable_1'
p7
aS','
p8
aS'int'
p9
aS'variable_2'
p10
ag8
aS'variable_3'
p11
ag6
aS'variable_4'
p12
aS')'
p13
aS'char'
p14
ag6
aS'variable_5'
p15
aS'='
p16
aS'NULL'
p17
aS';'
p18
aS'char'
p19
ag6
aS'variable_6'
p20
ag16
aS'NULL'
p21
ag18
aS'guint8'
p22
aS'variable_7'
p23
ag8
aS'variable_8'
p24
ag8
aS'variable_9'
p25
ag8
aS'variable_10'
p26
ag8
aS'variable_11'
p27
ag8
aS'variable_12'
p28
ag8
aS'variable_13'
p29
ag8
aS'variable_14'
p30
ag8
aS'variable_15'
p31
ag8
aS'variable_16'
p32
ag18
aS'if'
p33
ag4
aS'strlen'
p34
ag4
aS'variable_6'
p35
ag13
aS'=='
p36
aS'3'
p37
aS'&&'
p38
aS'strncmp'
p39
ag4
aS'variable_6'
p40
ag8
aS'"'
p41
aS'tcp'
p42
ag41
ag8
ag37
ag13
aS'=='
p43
aS'0'
p44
ag13
aS'if'
p45
ag4
aS'variable_5'
p46
aS'&&'
p47
aS'sscanf'
p48
ag4
aS'variable_5'
p49
ag8
ag41
aS'%'
p50
aS'hhu'
p51
aS'.'
p52
ag50
aS'hhu'
p53
ag52
ag50
aS'hhu'
p54
ag52
ag50
aS'hhu'
p55
ag52
ag50
aS'hhu'
p56
ag52
ag50
aS'hhu'
p57
ag41
ag8
aS'&'
p58
aS'variable_7'
p59
ag8
ag58
aS'variable_8'
p60
ag8
ag58
aS'variable_9'
p61
ag8
ag58
aS'variable_10'
p62
ag8
ag58
aS'variable_11'
p63
ag8
ag58
aS'variable_12'
p64
ag13
aS'=='
p65
aS'6'
p66
ag13
aS'if'
p67
ag4
aS'variable_5'
p68
aS'&&'
p69
aS'sscanf'
p70
ag4
aS'variable_5'
p71
ag8
ag41
ag50
aS'hhu'
p72
ag52
ag50
aS'hhu'
p73
ag41
ag8
ag58
aS'variable_7'
p74
ag8
ag58
aS'variable_8'
p75
ag13
aS'=='
p76
aS'2'
p77
ag13
aS'if'
p78
ag4
aS'variable_5'
p79
aS'&&'
p80
aS'sscanf'
p81
ag4
aS'variable_5'
p82
ag8
ag41
ag50
aS'2hhx'
p83
aS':'
p84
ag50
aS'2hhx'
p85
ag84
ag50
aS'2hhx'
p86
ag84
ag50
aS'2hhx'
p87
ag84
ag50
aS'2hhx'
p88
ag84
ag50
aS'2hhx'
p89
ag84
ag50
aS'2hhx'
p90
ag84
ag50
aS'2hhx'
p91
ag52
ag50
aS'hhu'
p92
ag52
ag50
aS'hhu'
p93
ag41
ag8
ag58
aS'variable_7'
p94
ag8
ag58
aS'variable_8'
p95
ag8
ag58
aS'variable_9'
p96
ag8
ag58
aS'variable_10'
p97
ag8
ag58
aS'variable_11'
p98
ag8
ag58
aS'variable_12'
p99
ag8
ag58
aS'variable_13'
p100
ag8
ag58
aS'variable_14'
p101
ag8
ag58
aS'variable_15'
p102
ag8
ag58
aS'variable_16'
p103
ag13
aS'=='
p104
aS'10'
p105
ag13
aa(lp106
S'func_0'
p107
ag4
aS'variable_0'
p108
ag6
aS'variable_1'
p109
ag8
aS'int'
p110
aS'variable_2'
p111
ag8
aS'variable_3'
p112
ag6
aS'variable_4'
p113
ag13
aS'char'
p114
ag6
aS'variable_5'
p115
ag16
aS'NULL'
p116
ag18
aS'char'
p117
ag6
aS'variable_6'
p118
ag16
aS'NULL'
p119
ag18
aS'guint8'
p120
aS'variable_7'
p121
ag8
aS'variable_8'
p122
ag8
aS'variable_9'
p123
ag8
aS'variable_10'
p124
ag8
aS'variable_11'
p125
ag8
aS'variable_12'
p126
ag8
aS'variable_13'
p127
ag8
aS'variable_14'
p128
ag8
aS'variable_15'
p129
ag8
aS'variable_16'
p130
ag18
aS'if'
p131
ag4
aS'strlen'
p132
ag4
aS'variable_6'
p133
ag13
aS'=='
p134
ag37
aS'&&'
p135
aS'strncmp'
p136
ag4
aS'variable_6'
p137
ag8
ag41
aS'tcp'
p138
ag41
ag8
ag37
ag13
aS'=='
p139
ag44
ag13
aS'if'
p140
ag4
aS'variable_5'
p141
aS'&&'
p142
aS'sscanf'
p143
ag4
aS'variable_5'
p144
ag8
ag41
ag50
aS'hhu'
p145
ag52
ag50
aS'hhu'
p146
ag52
ag50
aS'hhu'
p147
ag52
ag50
aS'hhu'
p148
ag52
ag50
aS'hhu'
p149
ag52
ag50
aS'hhu'
p150
ag41
ag8
ag58
aS'variable_7'
p151
ag8
ag58
aS'variable_8'
p152
ag8
ag58
aS'variable_9'
p153
ag8
ag58
aS'variable_10'
p154
ag8
ag58
aS'variable_11'
p155
ag8
ag58
aS'variable_12'
p156
ag13
aS'=='
p157
ag66
ag13
aS'if'
p158
ag4
aS'variable_5'
p159
aS'&&'
p160
aS'sscanf'
p161
ag4
aS'variable_5'
p162
ag8
ag41
ag50
aS'hhu'
p163
ag52
ag50
aS'hhu'
p164
ag41
ag8
ag58
aS'variable_7'
p165
ag8
ag58
aS'variable_8'
p166
ag13
aS'=='
p167
ag77
ag13
aa(lp168
S'func_0'
p169
ag4
aS'variable_0'
p170
ag6
aS'variable_1'
p171
ag8
aS'int'
p172
aS'variable_2'
p173
ag8
aS'variable_3'
p174
ag6
aS'variable_4'
p175
ag13
aS'char'
p176
ag6
aS'variable_5'
p177
ag16
aS'NULL'
p178
ag18
aS'char'
p179
ag6
aS'variable_6'
p180
ag16
aS'NULL'
p181
ag18
aS'guint8'
p182
aS'variable_7'
p183
ag8
aS'variable_8'
p184
ag8
aS'variable_9'
p185
ag8
aS'variable_10'
p186
ag8
aS'variable_11'
p187
ag8
aS'variable_12'
p188
ag8
aS'variable_13'
p189
ag8
aS'variable_14'
p190
ag8
aS'variable_15'
p191
ag8
aS'variable_16'
p192
ag18
aS'if'
p193
ag4
aS'strlen'
p194
ag4
aS'variable_6'
p195
ag13
aS'=='
p196
ag37
aS'&&'
p197
aS'strncmp'
p198
ag4
aS'variable_6'
p199
ag8
ag41
aS'tcp'
p200
ag41
ag8
ag37
ag13
aS'=='
p201
ag44
ag13
aS'if'
p202
ag4
aS'variable_5'
p203
aS'&&'
p204
aS'sscanf'
p205
ag4
aS'variable_5'
p206
ag8
ag41
ag50
aS'hhu'
p207
ag52
ag50
aS'hhu'
p208
ag52
ag50
aS'hhu'
p209
ag52
ag50
aS'hhu'
p210
ag52
ag50
aS'hhu'
p211
ag52
ag50
aS'hhu'
p212
ag41
ag8
ag58
aS'variable_7'
p213
ag8
ag58
aS'variable_8'
p214
ag8
ag58
aS'variable_9'
p215
ag8
ag58
aS'variable_10'
p216
ag8
ag58
aS'variable_11'
p217
ag8
ag58
aS'variable_12'
p218
ag13
aS'=='
p219
ag66
ag13
aaa(lp220
I1
aI1
aI1
aa(lp221
I146
aI121
aI72
aa(lp222
(lp223
S'main'
p224
aa(lp225
g224
aa(lp226
g224
aaa(lp227
S'875 /home/SySeVR/data/CVE_2011_1592_VULN_dissect_nfs_clientaddr4.c sscanf 29'
p228
aS'876 /home/SySeVR/data/CVE_2011_1592_VULN_dissect_nfs_clientaddr4.c sscanf 22'
p229
aS'877 /home/SySeVR/data/CVE_2011_1592_VULN_dissect_nfs_clientaddr4.c sscanf 15'
p230
aa.