(lp0
(lp1
(lp2
S'static'
p3
aS'void'
p4
aS'func_0'
p5
aS'('
p6
aS'variable_0'
p7
aS'*'
p8
aS'variable_1'
p9
aS','
p10
aS'const'
p11
aS'uint8_t'
p12
ag8
aS'variable_2'
p13
ag10
aS'const'
p14
aS'uint8_t'
p15
ag8
aS'variable_3'
p16
ag10
aS'int'
p17
aS'variable_4'
p18
aS')'
p19
aS'long'
p20
aS'variable_5'
p21
aS';'
p22
aS'if'
p23
ag6
ag6
aS'long'
p24
ag19
aS'variable_3'
p25
aS'&'
p26
ag6
aS'sizeof'
p27
ag6
aS'long'
p28
ag19
aS'-'
p29
aS'1'
p30
ag19
ag19
aS'for'
p31
ag6
aS'variable_5'
p32
aS'='
p33
aS'0'
p34
ag22
aS'variable_5'
p35
aS'<'
p36
ag33
aS'variable_4'
p37
ag29
aS'sizeof'
p38
ag6
aS'long'
p39
ag19
ag22
aS'variable_5'
p40
aS'+='
p41
aS'sizeof'
p42
ag6
aS'long'
p43
ag19
ag19
aS'long'
p44
aS'variable_6'
p45
ag33
ag8
ag6
aS'long'
p46
ag8
ag19
ag6
aS'variable_2'
p47
aS'+'
p48
aS'variable_5'
p49
ag19
ag22
aS'long'
p50
aS'variable_7'
p51
ag33
ag8
ag6
aS'long'
p52
ag8
ag19
ag6
aS'variable_3'
p53
ag48
aS'variable_5'
p54
ag19
ag22
ag8
ag6
aS'long'
p55
ag8
ag19
ag6
aS'variable_1'
p56
ag48
aS'variable_5'
p57
ag19
ag33
ag6
ag6
aS'variable_6'
p58
aS'|'
p59
aS'variable_8'
p60
ag19
ag29
ag6
aS'variable_7'
p61
ag26
aS'variable_9'
p62
ag19
ag19
aS'^'
p63
ag6
ag6
aS'variable_6'
p64
ag63
aS'variable_7'
p65
ag63
aS'variable_8'
p66
ag19
ag26
aS'variable_8'
p67
ag19
ag22
aS'for'
p68
ag6
ag22
aS'variable_5'
p69
ag36
aS'variable_4'
p70
ag22
aS'variable_5'
p71
aS'++'
p72
ag19
aS'variable_1'
p73
aS'['
p74
aS'variable_5'
p75
ag48
ag34
aS']'
p76
ag33
aS'variable_2'
p77
ag74
aS'variable_5'
p78
ag48
ag34
ag76
ag29
aS'variable_3'
p79
ag74
aS'variable_5'
p80
ag48
ag34
ag76
ag22
aaa(lp81
I0
aa(lp82
I89
aa(lp83
(lp84
S'main'
p85
aaa(lp86
S'850 /home/SySeVR/data/CVE_2013_7010_VULN_diff_bytes_c.c long b = * ( long * ) ( src2 + i ) ; 19'
p87
aa.