(lp0
(lp1
(lp2
S'static'
p3
aS'unsigned'
p4
aS'int'
p5
aS'__stdcall'
p6
aS'func_0'
p7
aS'('
p8
aS'void'
p9
aS'*'
p10
aS'variable_0'
p11
aS')'
p12
aS'variable_1'
p13
ag10
aS'variable_2'
p14
aS'='
p15
ag8
aS'ap_listen_rec'
p16
ag10
ag12
aS'variable_0'
p17
aS';'
p18
aS'variable_3'
p19
ag10
aS'variable_4'
p20
ag15
aS'NULL'
p21
ag18
aS'DWORD'
p22
aS'variable_5'
p23
ag18
aS'SOCKET'
p24
aS'variable_6'
p25
ag18
aS'LPFN_ACCEPTEX'
p26
aS'variable_7'
p27
ag15
aS'NULL'
p28
ag18
aS'LPFN_GETACCEPTEXSOCKADDRS'
p29
aS'variable_8'
p30
ag15
aS'NULL'
p31
ag18
aS'GUID'
p32
aS'variable_9'
p33
ag15
aS'variable_10'
p34
ag18
aS'GUID'
p35
aS'variable_11'
p36
ag15
aS'variable_12'
p37
ag18
aS'variable_13'
p38
ag10
aS'variable_14'
p39
ag18
aS'const'
p40
aS'char'
p41
ag10
aS'variable_15'
p42
ag18
aS'int'
p43
aS'variable_16'
p44
ag18
aS'int'
p45
aS'variable_17'
p46
ag18
aS'int'
p47
aS'variable_18'
p48
ag15
aS'0'
p49
ag18
aS'HANDLE'
p50
aS'variable_19'
p51
aS'['
p52
aS'3'
p53
aS']'
p54
ag18
aS'SOCKADDR_STORAGE'
p55
aS'variable_20'
p56
ag18
aS'variable_14'
p57
ag15
aS'func_1'
p58
ag8
aS'variable_21'
p59
aS'->'
p60
aS'variable_22'
p61
ag12
ag18
aS'variable_15'
p62
ag15
aS'func_2'
p63
ag8
aS'variable_14'
p64
aS'->'
p65
aS'variable_23'
p66
aS','
p67
aS'variable_2'
p68
aS'->'
p69
aS'variable_24'
p70
ag12
ag18
aS'if'
p71
ag8
aS'!'
p72
aS'variable_15'
p73
ag12
aS'variable_17'
p74
ag15
ag49
ag18
aS'variable_15'
p75
ag15
aS'"'
p76
aS'none'
p77
ag76
ag18
aS'if'
p78
ag8
aS'strcmp'
p79
ag8
aS'variable_15'
p80
ag67
ag76
aS'data'
p81
ag76
ag12
aS'=='
p82
ag49
ag12
aS'variable_17'
p83
ag15
aS'2'
p84
ag18
aS'if'
p85
ag8
aS'strcmp'
p86
ag8
aS'variable_15'
p87
ag67
ag76
aS'connect'
p88
ag76
ag12
aS'=='
p89
ag49
ag12
aS'variable_17'
p90
ag15
aS'1'
p91
ag18
aS'if'
p92
ag8
aS'strcmp'
p93
ag8
aS'variable_15'
p94
ag67
ag76
aS'none'
p95
ag76
ag12
aS'=='
p96
ag49
ag12
aS'variable_17'
p97
ag15
ag49
ag18
aS'variable_17'
p98
ag15
ag49
ag18
aS'if'
p99
ag8
aS'func_3'
p100
ag8
aS'variable_6'
p101
ag67
ag8
aS'struct'
p102
aS'sockaddr'
p103
ag10
ag12
aS'&'
p104
aS'variable_20'
p105
ag67
ag104
aS'variable_25'
p106
ag12
aS'=='
p107
aS'variable_26'
p108
ag12
aS'if'
p109
ag8
aS'variable_17'
p110
aS'>'
p111
ag49
ag12
aS'if'
p112
ag8
aS'func_4'
p113
ag8
aS'variable_6'
p114
ag67
aS'variable_27'
p115
ag67
ag104
aS'variable_9'
p116
ag67
aS'sizeof'
p117
aS'variable_9'
p118
ag67
ag104
aS'variable_7'
p119
ag67
aS'sizeof'
p120
aS'variable_7'
p121
ag67
ag104
aS'variable_5'
p122
ag67
aS'NULL'
p123
ag67
aS'NULL'
p124
ag12
aS'=='
p125
aS'variable_26'
p126
ag12
aS'if'
p127
ag8
aS'func_5'
p128
ag8
aS'variable_6'
p129
ag67
aS'variable_27'
p130
ag67
ag104
aS'variable_11'
p131
ag67
aS'sizeof'
p132
aS'variable_11'
p133
ag67
ag104
aS'variable_8'
p134
ag67
aS'sizeof'
p135
aS'variable_8'
p136
ag67
ag104
aS'variable_5'
p137
ag67
aS'NULL'
p138
ag67
aS'NULL'
p139
ag12
aS'=='
p140
aS'variable_26'
p141
ag12
aS'variable_19'
p142
ag52
ag91
ag54
ag15
aS'variable_28'
p143
ag18
aS'variable_19'
p144
ag52
ag84
ag54
ag15
aS'variable_29'
p145
ag18
aS'variable_19'
p146
ag52
ag49
ag54
ag15
aS'variable_28'
p147
ag18
aS'variable_19'
p148
ag52
ag91
ag54
ag15
aS'variable_29'
p149
ag18
aS'variable_19'
p150
ag52
ag84
ag54
ag15
aS'CreateEvent'
p151
ag8
aS'NULL'
p152
ag67
aS'variable_30'
p153
ag67
aS'variable_30'
p154
ag67
aS'NULL'
p155
ag12
ag18
aS'variable_16'
p156
ag15
aS'func_6'
p157
ag8
aS'variable_6'
p158
ag67
aS'variable_19'
p159
ag52
ag84
ag54
ag67
aS'variable_31'
p160
ag12
ag18
aS'if'
p161
ag8
aS'variable_16'
p162
ag12
aS'while'
p163
ag8
ag72
aS'variable_32'
p164
ag12
aS'if'
p165
ag8
ag72
aS'variable_4'
p166
ag12
aS'int'
p167
aS'variable_33'
p168
ag18
aS'variable_4'
p169
ag15
aS'func_7'
p170
ag8
ag104
aS'variable_33'
p171
ag12
ag18
aS'if'
p172
ag8
ag72
aS'variable_4'
p173
ag12
aS'if'
p174
ag8
ag72
aS'variable_33'
p175
ag12
aS'if'
p176
ag8
aS'variable_18'
p177
ag111
aS'variable_34'
p178
ag12
aS'if'
p179
ag8
aS'variable_17'
p180
ag111
ag49
ag12
aS'DWORD'
p181
aS'variable_35'
p182
ag18
aS'char'
p183
ag10
aS'variable_36'
p184
ag18
aS'if'
p185
ag8
aS'variable_4'
p186
aS'->'
p187
aS'variable_37'
p188
aS'=='
p189
aS'variable_38'
p190
ag12
aS'variable_4'
p191
aS'->'
p192
aS'variable_37'
p193
ag15
aS'func_8'
p194
ag8
aS'variable_20'
p195
aS'.'
p196
aS'variable_39'
p197
ag67
aS'variable_40'
p198
ag67
aS'variable_41'
p199
ag12
ag18
aS'variable_4'
p200
aS'->'
p201
aS'variable_42'
p202
ag15
aS'variable_20'
p203
ag196
aS'variable_39'
p204
ag18
aS'if'
p205
ag8
aS'variable_4'
p206
aS'->'
p207
aS'variable_42'
p208
aS'!='
p209
aS'variable_20'
p210
ag196
aS'variable_39'
p211
ag12
aS'func_9'
p212
ag8
aS'variable_4'
p213
aS'->'
p214
aS'variable_37'
p215
ag12
ag18
aS'variable_4'
p216
aS'->'
p217
aS'variable_37'
p218
ag15
aS'func_10'
p219
ag8
aS'variable_20'
p220
ag196
aS'variable_39'
p221
ag67
aS'variable_40'
p222
ag67
aS'variable_41'
p223
ag12
ag18
aS'variable_4'
p224
aS'->'
p225
aS'variable_42'
p226
ag15
aS'variable_20'
p227
ag196
aS'variable_39'
p228
ag18
aS'if'
p229
ag8
aS'variable_4'
p230
aS'->'
p231
aS'variable_37'
p232
aS'=='
p233
aS'variable_38'
p234
ag12
aS'if'
p235
ag8
aS'variable_17'
p236
aS'=='
p237
ag84
ag12
aS'variable_35'
p238
ag15
aS'variable_43'
p239
ag18
aS'variable_36'
p240
ag15
aS'func_11'
p241
ag8
aS'variable_35'
p242
ag67
aS'variable_4'
p243
aS'->'
p244
aS'variable_44'
p245
ag12
ag18
aS'variable_35'
p246
aS'-='
p247
aS'variable_45'
p248
ag10
ag84
ag18
aS'variable_35'
p249
ag15
ag49
ag18
aS'variable_36'
p250
ag15
aS'variable_4'
p251
aS'->'
p252
aS'variable_46'
p253
ag18
aS'if'
p254
ag8
ag72
aS'func_12'
p255
ag8
aS'variable_6'
p256
ag67
aS'variable_4'
p257
aS'->'
p258
aS'variable_37'
p259
ag67
aS'variable_36'
p260
ag67
aS'variable_35'
p261
ag67
aS'variable_45'
p262
ag67
aS'variable_45'
p263
ag67
ag104
aS'variable_5'
p264
ag67
ag104
aS'variable_4'
p265
aS'->'
p266
aS'variable_47'
p267
ag12
ag12
aS'variable_16'
p268
ag15
aS'func_13'
p269
ag8
ag12
ag18
aS'if'
p270
ag8
ag8
aS'variable_16'
p271
aS'=='
p272
aS'func_14'
p273
ag8
aS'variable_48'
p274
ag12
ag12
aS'||'
p275
ag8
aS'variable_16'
p276
aS'=='
p277
aS'func_15'
p278
ag8
aS'variable_49'
p279
ag12
ag12
ag12
aS'func_16'
p280
ag8
aS'variable_36'
p281
ag12
ag18
aS'func_17'
p282
ag8
aS'variable_4'
p283
aS'->'
p284
aS'variable_37'
p285
ag12
ag18
aS'variable_4'
p286
aS'->'
p287
aS'variable_37'
p288
ag15
aS'variable_38'
p289
ag18
aS'if'
p290
ag8
ag8
aS'variable_16'
p291
aS'=='
p292
aS'func_18'
p293
ag8
aS'variable_50'
p294
ag12
ag12
aS'||'
p295
ag8
aS'variable_16'
p296
aS'=='
p297
aS'func_19'
p298
ag8
aS'variable_51'
p299
ag12
ag12
ag12
aS'func_20'
p300
ag8
aS'variable_36'
p301
ag12
ag18
aS'func_21'
p302
ag8
aS'variable_4'
p303
aS'->'
p304
aS'variable_37'
p305
ag12
ag18
aS'variable_4'
p306
aS'->'
p307
aS'variable_37'
p308
ag15
aS'variable_38'
p309
ag18
aS'if'
p310
ag8
aS'variable_18'
p311
ag111
aS'variable_34'
p312
ag12
aS'variable_18'
p313
ag15
ag49
ag18
aS'variable_17'
p314
ag15
ag49
ag18
aS'if'
p315
ag8
ag8
aS'variable_16'
p316
aS'!='
p317
aS'func_22'
p318
ag8
aS'variable_52'
p319
ag12
ag12
aS'&&'
p320
ag8
aS'variable_16'
p321
aS'!='
p322
aS'func_23'
p323
ag8
aS'variable_53'
p324
ag12
ag12
ag12
aS'func_24'
p325
ag8
aS'variable_36'
p326
ag12
ag18
aS'func_25'
p327
ag8
aS'variable_4'
p328
aS'->'
p329
aS'variable_37'
p330
ag12
ag18
aS'variable_4'
p331
aS'->'
p332
aS'variable_37'
p333
ag15
aS'variable_38'
p334
ag18
aS'if'
p335
ag8
aS'variable_18'
p336
ag111
aS'variable_34'
p337
ag12
aS'variable_18'
p338
ag15
ag49
ag18
aS'variable_17'
p339
ag15
ag49
ag18
aS'variable_18'
p340
ag15
ag49
ag18
aS'variable_19'
p341
ag52
ag49
ag54
ag15
aS'variable_4'
p342
aS'->'
p343
aS'variable_47'
p344
ag196
aS'variable_54'
p345
ag18
aS'variable_16'
p346
ag15
aS'func_26'
p347
ag8
ag53
ag67
aS'variable_19'
p348
ag67
aS'variable_30'
p349
ag67
aS'variable_55'
p350
ag67
aS'variable_56'
p351
ag12
ag18
aS'while'
p352
ag8
aS'variable_16'
p353
aS'=='
p354
aS'variable_57'
p355
ag12
aS'if'
p356
ag8
aS'variable_16'
p357
aS'=='
p358
aS'variable_58'
p359
ag12
aS'if'
p360
ag8
ag8
aS'variable_4'
p361
aS'->'
p362
aS'variable_37'
p363
aS'!='
p364
aS'variable_38'
p365
ag12
aS'&&'
p366
ag72
aS'GetOverlappedResult'
p367
ag8
ag8
aS'variable_59'
p368
ag12
aS'variable_4'
p369
aS'->'
p370
aS'variable_37'
p371
ag67
ag104
aS'variable_4'
p372
aS'->'
p373
aS'variable_47'
p374
ag67
ag104
aS'variable_5'
p375
ag67
aS'variable_30'
p376
ag12
ag12
aS'func_27'
p377
ag8
aS'variable_4'
p378
aS'->'
p379
aS'variable_37'
p380
ag12
ag18
aS'variable_4'
p381
aS'->'
p382
aS'variable_37'
p383
ag15
aS'variable_38'
p384
ag18
aS'func_28'
p385
ag8
aS'variable_4'
p386
aS'->'
p387
aS'variable_37'
p388
ag12
ag18
aS'func_29'
p389
ag8
aS'variable_36'
p390
ag12
ag18
aS'if'
p391
ag8
aS'variable_4'
p392
aS'->'
p393
aS'variable_37'
p394
aS'=='
p395
aS'variable_38'
p396
ag12
aS'func_30'
p397
ag8
aS'variable_36'
p398
ag12
ag18
aS'variable_18'
p399
ag15
ag49
ag18
aS'if'
p400
ag8
aS'func_31'
p401
ag8
aS'variable_4'
p402
aS'->'
p403
aS'variable_37'
p404
ag67
aS'variable_60'
p405
ag67
aS'variable_61'
p406
ag67
ag8
aS'char'
p407
ag10
ag12
ag104
aS'variable_6'
p408
ag67
aS'sizeof'
p409
ag8
aS'variable_6'
p410
ag12
ag12
ag12
aS'func_32'
p411
ag8
aS'variable_36'
p412
ag67
aS'variable_35'
p413
ag67
aS'variable_45'
p414
ag67
aS'variable_45'
p415
ag67
ag104
aS'variable_4'
p416
aS'->'
p417
aS'variable_62'
p418
ag67
ag104
aS'variable_4'
p419
aS'->'
p420
aS'variable_63'
p421
ag67
ag104
aS'variable_4'
p422
aS'->'
p423
aS'variable_64'
p424
ag67
ag104
aS'variable_4'
p425
aS'->'
p426
aS'variable_65'
p427
ag12
ag18
aS'if'
p428
ag8
aS'variable_17'
p429
aS'=='
p430
ag84
aS'&&'
p431
aS'variable_5'
p432
ag12
aS'variable_66'
p433
ag10
aS'variable_67'
p434
ag18
aS'variable_67'
p435
ag15
aS'func_33'
p436
ag8
aS'variable_36'
p437
ag67
aS'variable_43'
p438
ag67
aS'variable_68'
p439
ag67
aS'variable_4'
p440
aS'->'
p441
aS'variable_44'
p442
ag12
ag18
aS'variable_67'
p443
aS'->'
p444
aS'variable_69'
p445
ag15
aS'variable_5'
p446
ag18
aS'variable_4'
p447
aS'->'
p448
aS'variable_47'
p449
ag196
aS'variable_70'
p450
ag15
aS'variable_67'
p451
ag18
aS'func_34'
p452
ag8
aS'variable_36'
p453
ag12
ag18
aS'variable_4'
p454
aS'->'
p455
aS'variable_47'
p456
ag196
aS'variable_70'
p457
ag15
aS'NULL'
p458
ag18
aS'if'
p459
ag8
aS'variable_4'
p460
aS'->'
p461
aS'variable_37'
p462
aS'!='
p463
aS'variable_38'
p464
ag12
aS'func_35'
p465
ag8
aS'variable_4'
p466
aS'->'
p467
aS'variable_37'
p468
ag12
ag18
aS'variable_16'
p469
ag15
aS'func_36'
p470
ag8
ag53
ag67
aS'variable_19'
p471
ag67
aS'variable_30'
p472
ag67
aS'variable_55'
p473
ag67
aS'variable_56'
p474
ag12
ag18
aS'while'
p475
ag8
aS'variable_16'
p476
aS'=='
p477
aS'variable_57'
p478
ag12
aS'if'
p479
ag8
aS'variable_16'
p480
aS'!='
p481
aS'variable_58'
p482
aS'+'
p483
ag84
ag12
aS'variable_4'
p484
aS'->'
p485
aS'variable_62'
p486
ag15
ag8
aS'void'
p487
ag10
ag12
aS'variable_4'
p488
aS'->'
p489
aS'variable_46'
p490
ag18
aS'variable_4'
p491
aS'->'
p492
aS'variable_63'
p493
ag15
aS'sizeof'
p494
ag8
aS'variable_4'
p495
aS'->'
p496
aS'variable_46'
p497
ag12
aS'/'
p498
ag84
ag18
aS'variable_4'
p499
aS'->'
p500
aS'variable_65'
p501
ag15
aS'variable_4'
p502
aS'->'
p503
aS'variable_63'
p504
ag18
aS'variable_4'
p505
aS'->'
p506
aS'variable_64'
p507
ag15
ag8
aS'void'
p508
ag10
ag12
ag8
aS'variable_4'
p509
aS'->'
p510
aS'variable_46'
p511
ag483
aS'variable_4'
p512
aS'->'
p513
aS'variable_63'
p514
ag12
ag18
aS'variable_4'
p515
aS'->'
p516
aS'variable_37'
p517
ag15
aS'func_37'
p518
ag8
aS'variable_6'
p519
ag67
aS'variable_4'
p520
aS'->'
p521
aS'variable_62'
p522
ag67
ag104
aS'variable_4'
p523
aS'->'
p524
aS'variable_63'
p525
ag12
ag18
aS'if'
p526
ag8
aS'variable_4'
p527
aS'->'
p528
aS'variable_37'
p529
aS'=='
p530
aS'variable_38'
p531
ag12
aS'variable_16'
p532
ag15
aS'func_38'
p533
ag8
ag12
ag18
aS'if'
p534
ag8
aS'variable_16'
p535
aS'=='
p536
aS'func_39'
p537
ag8
aS'variable_48'
p538
ag12
aS'||'
p539
aS'variable_16'
p540
aS'=='
p541
aS'func_40'
p542
ag8
aS'variable_71'
p543
ag12
aS'||'
p544
aS'variable_16'
p545
aS'=='
p546
aS'func_41'
p547
ag8
aS'variable_72'
p548
ag12
ag12
aS'if'
p549
ag8
aS'variable_16'
p550
aS'=='
p551
aS'func_42'
p552
ag8
aS'variable_73'
p553
ag12
aS'||'
p554
aS'variable_16'
p555
aS'=='
p556
aS'func_43'
p557
ag8
aS'variable_74'
p558
ag12
ag12
aS'if'
p559
ag8
aS'variable_18'
p560
ag111
aS'variable_34'
p561
ag12
aS'func_44'
p562
ag8
aS'variable_4'
p563
aS'->'
p564
aS'variable_37'
p565
ag67
ag49
ag67
ag49
ag12
ag18
aS'variable_4'
p566
aS'->'
p567
aS'variable_47'
p568
ag196
aS'variable_70'
p569
ag15
aS'NULL'
p570
ag18
aS'variable_18'
p571
ag15
ag49
ag18
aS'variable_4'
p572
aS'->'
p573
aS'variable_63'
p574
ag15
aS'sizeof'
p575
ag8
aS'variable_4'
p576
aS'->'
p577
aS'variable_46'
p578
ag12
ag498
ag84
ag18
aS'if'
p579
ag8
aS'func_45'
p580
ag8
aS'variable_4'
p581
aS'->'
p582
aS'variable_37'
p583
ag67
aS'variable_4'
p584
aS'->'
p585
aS'variable_62'
p586
ag67
ag104
aS'variable_4'
p587
aS'->'
p588
aS'variable_63'
p589
ag12
aS'=='
p590
aS'variable_26'
p591
ag12
aS'if'
p592
ag8
ag8
aS'func_46'
p593
ag8
aS'variable_4'
p594
aS'->'
p595
aS'variable_37'
p596
ag67
aS'variable_4'
p597
aS'->'
p598
aS'variable_64'
p599
ag67
ag104
aS'variable_4'
p600
aS'->'
p601
aS'variable_65'
p602
ag12
ag12
aS'=='
p603
aS'variable_26'
p604
ag12
aS'memset'
p605
ag8
ag104
aS'variable_4'
p606
aS'->'
p607
aS'variable_64'
p608
ag67
aS"'"
p609
aS'\\'
p610
ag49
ag609
ag67
aS'sizeof'
p611
ag8
aS'variable_4'
p612
aS'->'
p613
aS'variable_64'
p614
ag12
ag12
ag18
aS'variable_75'
p615
ag196
aS'variable_76'
p616
ag15
ag104
aS'variable_4'
p617
aS'->'
p618
aS'variable_37'
p619
ag18
aS'variable_75'
p620
ag196
aS'variable_77'
p621
ag15
aS'variable_4'
p622
aS'->'
p623
aS'variable_62'
p624
ag18
aS'variable_75'
p625
ag196
aS'variable_78'
p626
ag15
aS'variable_4'
p627
aS'->'
p628
aS'variable_64'
p629
ag18
aS'variable_75'
p630
ag196
aS'variable_79'
p631
ag15
aS'variable_4'
p632
aS'->'
p633
aS'variable_62'
p634
aS'->'
p635
aS'variable_80'
p636
ag18
aS'variable_75'
p637
ag196
aS'variable_81'
p638
ag15
aS'variable_40'
p639
ag18
aS'variable_75'
p640
ag196
aS'variable_24'
p641
ag15
aS'variable_41'
p642
ag18
aS'func_47'
p643
ag8
aS'variable_4'
p644
aS'->'
p645
aS'variable_37'
p646
ag67
aS'variable_82'
p647
ag67
ag104
aS'variable_83'
p648
ag12
ag18
aS'func_48'
p649
ag8
aS'variable_4'
p650
aS'->'
p651
aS'variable_37'
p652
ag67
aS'variable_60'
p653
ag67
aS'variable_84'
p654
ag67
ag8
aS'char'
p655
ag10
ag12
ag104
aS'variable_83'
p656
ag67
aS'sizeof'
p657
ag8
aS'variable_83'
p658
ag12
ag12
ag18
aS'func_49'
p659
ag8
aS'variable_4'
p660
aS'->'
p661
aS'variable_37'
p662
ag67
aS'variable_60'
p663
ag67
aS'variable_85'
p664
ag67
ag8
aS'char'
p665
ag10
ag12
ag104
aS'variable_83'
p666
ag67
aS'sizeof'
p667
ag8
aS'variable_83'
p668
ag12
ag12
ag18
aS'func_50'
p669
ag8
ag104
aS'variable_4'
p670
aS'->'
p671
aS'variable_86'
p672
ag67
ag104
aS'variable_75'
p673
ag67
aS'variable_4'
p674
aS'->'
p675
aS'variable_87'
p676
ag12
ag18
aS'func_51'
p677
ag8
aS'variable_88'
p678
ag67
aS'variable_5'
p679
ag67
aS'variable_89'
p680
ag67
ag104
aS'variable_4'
p681
aS'->'
p682
aS'variable_47'
p683
ag12
ag18
aS'variable_4'
p684
ag15
aS'NULL'
p685
ag18
aS'CloseHandle'
p686
ag8
aS'variable_19'
p687
ag52
ag84
ag54
ag12
ag18
aaa(lp688
I0
aa(lp689
I423
aa(lp690
(lp691
S'main'
p692
aaa(lp693
S'807 /home/SySeVR/data/CVE_2014_3523_PATCHED_winnt_accept.c socket 158'
p694
aa.