(lp0
(lp1
(lp2
S'struct'
p3
aS'variable_0'
p4
aS'*'
p5
aS'variable_1'
p6
aS')'
p7
aS'struct'
p8
aS'variable_2'
p9
ag5
aS'variable_3'
p10
aS';'
p11
aS'if'
p12
aS'('
p13
aS'strlen'
p14
ag13
aS'variable_4'
p15
ag7
aS'>'
p16
aS'variable_5'
p17
ag7
aS'variable_3'
p18
aS'='
p19
aS'func_0'
p20
ag13
aS'sizeof'
p21
ag13
aS'struct'
p22
aS'variable_2'
p23
ag7
aS','
p24
aS'variable_6'
p25
ag7
ag11
aS'if'
p26
ag13
aS'!'
p27
aS'variable_3'
p28
ag7
aS'strncpy'
p29
ag13
aS'variable_3'
p30
aS'->'
p31
aS'variable_7'
p32
ag24
aS'variable_7'
p33
ag24
aS'strlen'
p34
ag13
aS'variable_7'
p35
ag7
aS'+'
p36
aS'1'
p37
ag7
ag11
aS'strncpy'
p38
ag13
aS'variable_3'
p39
aS'->'
p40
aS'variable_4'
p41
ag24
aS'variable_8'
p42
ag24
aS'strlen'
p43
ag13
aS'variable_8'
p44
ag7
ag36
ag37
ag7
ag11
aS'func_1'
p45
ag13
aS'&'
p46
aS'variable_3'
p47
aS'->'
p48
aS'variable_9'
p49
ag24
ag46
aS'variable_1'
p50
aS'->'
p51
aS'variable_10'
p52
ag7
ag11
aaa(lp53
I0
aa(lp54
I62
aa(lp55
(lp56
S'main'
p57
aaa(lp58
S'286 /home/SySeVR/data/CVE_2013_2850_VULN_iscsi_add_notunderstood_response.c strlen 23'
p59
aa.