(lp0
(lp1
(lp2
S'static'
p3
aS'pfn_t'
p4
aS'func_0'
p5
aS'('
p6
aS'struct'
p7
aS'variable_0'
p8
aS'*'
p9
aS'variable_1'
p10
aS','
p11
aS'unsigned'
p12
aS'long'
p13
aS'variable_2'
p14
aS')'
p15
aS'gfn_t'
p16
aS'variable_3'
p17
aS';'
p18
aS'variable_3'
p19
aS'='
p20
aS'variable_4'
p21
aS'+'
p22
aS'variable_2'
p23
ag18
aS'while'
p24
ag6
aS'variable_4'
p25
aS'<'
p26
aS'variable_3'
p27
ag15
aaa(lp28
I0
aa(lp29
I20
aa(lp30
(lp31
S'main'
p32
aaa(lp33
S'635 /home/SySeVR/data/CVE_2014_8369_PATCHED_kvm_pin_pages.c end_gfn = gfn + npages 8'
p34
aa.