(lp0
(lp1
(lp2
S'func_0'
p3
aS'('
p4
aS'FT_Int'
p5
aS'variable_0'
p6
aS')'
p7
aS'PSH_Hint_Table'
p8
aS'variable_1'
p9
aS'='
p10
aS'&'
p11
aS'variable_2'
p12
aS'->'
p13
aS'variable_3'
p14
aS'['
p15
aS'variable_0'
p16
aS']'
p17
aS';'
p18
aS'PS_Mask'
p19
aS'variable_4'
p20
ag10
aS'variable_1'
p21
aS'->'
p22
aS'variable_5'
p23
aS'->'
p24
aS'variable_6'
p25
ag18
aS'FT_UInt'
p26
aS'variable_7'
p27
ag10
aS'variable_1'
p28
aS'->'
p29
aS'variable_5'
p30
aS'->'
p31
aS'variable_7'
p32
ag18
aS'if'
p33
ag4
aS'variable_7'
p34
aS'>'
p35
aS'1'
p36
aS'&&'
p37
aS'variable_2'
p38
aS'->'
p39
aS'variable_8'
p40
ag35
aS'0'
p41
ag7
aS'variable_9'
p42
ag10
aS'variable_4'
p43
aS'->'
p44
aS'variable_10'
p45
ag35
aS'variable_2'
p46
aS'->'
p47
aS'variable_8'
p48
aS'?'
p49
aS'variable_2'
p50
aS'->'
p51
aS'variable_8'
p52
aS':'
p53
aS'variable_4'
p54
aS'->'
p55
aS'variable_10'
p56
ag18
aS'variable_4'
p57
aS'++'
p58
ag18
aS'for'
p59
ag4
ag18
aS'variable_7'
p60
ag35
ag36
ag18
aS'variable_7'
p61
aS'--'
p62
aS','
p63
aS'variable_4'
p64
aS'++'
p65
ag7
aS'FT_UInt'
p66
aS'variable_11'
p67
ag18
aS'FT_Int'
p68
aS'variable_12'
p69
ag18
aS'variable_11'
p70
ag10
aS'variable_4'
p71
aS'->'
p72
aS'variable_10'
p73
ag35
aS'variable_2'
p74
aS'->'
p75
aS'variable_8'
p76
ag49
aS'variable_2'
p77
aS'->'
p78
aS'variable_8'
p79
ag53
aS'variable_4'
p80
aS'->'
p81
aS'variable_10'
p82
ag18
aS'variable_12'
p83
ag10
aS'variable_11'
p84
aS'-'
p85
aS'variable_9'
p86
ag18
aS'if'
p87
ag4
aS'variable_12'
p88
ag35
ag41
ag7
aS'PSH_Point'
p89
aS'variable_13'
p90
ag10
aS'variable_2'
p91
aS'->'
p92
aS'variable_14'
p93
aS'+'
p94
aS'variable_9'
p95
ag18
aS'func_1'
p96
ag4
aS'variable_1'
p97
ag63
aS'variable_13'
p98
ag63
aS'variable_12'
p99
ag63
aS'variable_15'
p100
ag63
aS'variable_16'
p101
ag7
ag18
aS'variable_9'
p102
ag10
aS'variable_11'
p103
ag18
aaa(lp104
I0
aa(lp105
I124
aa(lp106
(lp107
S'main'
p108
aaa(lp109
S'753 /home/SySeVR/data/CVE_2010_2498_PATCHED_psh_glyph_find_strong_points.c PSH_Point point = glyph -> points + first ; 44'
p110
aa.