(lp0
(lp1
(lp2
S'static'
p3
aS'void'
p4
aS'func_0'
p5
aS'('
p6
aS'variable_0'
p7
aS'*'
p8
aS'variable_1'
p9
aS','
p10
aS'variable_0'
p11
ag8
aS'variable_2'
p12
ag10
aS'int'
p13
aS'variable_3'
p14
aS')'
p15
aS'long'
p16
aS'variable_4'
p17
aS';'
p18
aS'for'
p19
ag6
aS'variable_4'
p20
aS'='
p21
aS'0'
p22
ag18
aS'variable_4'
p23
aS'<'
p24
ag21
aS'variable_3'
p25
aS'-'
p26
ag6
aS'int'
p27
ag15
aS'sizeof'
p28
ag6
aS'long'
p29
ag15
ag18
aS'variable_4'
p30
aS'+='
p31
aS'sizeof'
p32
ag6
aS'long'
p33
ag15
ag15
aS'long'
p34
aS'variable_5'
p35
ag21
ag8
ag6
aS'long'
p36
ag8
ag15
ag6
aS'variable_2'
p37
aS'+'
p38
aS'variable_4'
p39
ag15
ag18
aS'long'
p40
aS'variable_6'
p41
ag21
ag8
ag6
aS'long'
p42
ag8
ag15
ag6
aS'variable_1'
p43
ag38
aS'variable_4'
p44
ag15
ag18
ag8
ag6
aS'long'
p45
ag8
ag15
ag6
aS'variable_1'
p46
ag38
aS'variable_4'
p47
ag15
ag21
ag6
ag6
aS'variable_5'
p48
aS'&'
p49
aS'variable_7'
p50
ag15
ag38
ag6
aS'variable_6'
p51
ag49
aS'variable_7'
p52
ag15
ag15
aS'^'
p53
ag6
ag6
aS'variable_5'
p54
ag53
aS'variable_6'
p55
ag15
ag49
aS'variable_8'
p56
ag15
ag18
aS'for'
p57
ag6
ag18
aS'variable_4'
p58
ag24
aS'variable_3'
p59
ag18
aS'variable_4'
p60
aS'++'
p61
ag15
aS'variable_1'
p62
aS'['
p63
aS'variable_4'
p64
ag38
ag22
aS']'
p65
aS'+='
p66
aS'variable_2'
p67
ag63
aS'variable_4'
p68
ag38
ag22
ag65
ag18
aaa(lp69
I0
aa(lp70
I70
aa(lp71
(lp72
S'main'
p73
aaa(lp74
S'844 /home/SySeVR/data/CVE_2013_7010_PATCHED_add_bytes_c.c long b = * ( long * ) ( dst + i ) ; 5'
p75
aa.