(lp0
(lp1
(lp2
S'static'
p3
aS'int'
p4
aS'func_0'
p5
aS'('
p6
aS'variable_0'
p7
aS'*'
p8
aS'variable_1'
p9
aS','
p10
aS'variable_0'
p11
ag8
aS'variable_2'
p12
aS')'
p13
aS'MpegEncContext'
p14
ag8
aS'const'
p15
aS'variable_3'
p16
aS'='
p17
aS'&'
p18
aS'variable_1'
p19
aS'->'
p20
aS'MpegEncContext'
p21
ag8
aS'const'
p22
aS'variable_4'
p23
ag17
ag18
aS'variable_2'
p24
aS'->'
p25
aS'unsigned'
p26
aS'int'
p27
aS'variable_5'
p28
aS';'
p29
aS'unsigned'
p30
aS'int'
p31
aS'variable_6'
p32
ag29
aS'unsigned'
p33
aS'int'
p34
aS'variable_7'
p35
ag10
aS'variable_8'
p36
ag10
aS'variable_9'
p37
ag10
aS'variable_10'
p38
ag29
aS'int'
p39
aS'variable_11'
p40
ag10
aS'variable_12'
p41
ag29
aS'int'
p42
aS'variable_13'
p43
ag29
aS'if'
p44
ag6
ag6
aS'variable_3'
p45
aS'->'
p46
aS'variable_14'
p47
aS'->'
p48
aS'variable_15'
p49
ag18
aS'variable_16'
p50
ag13
aS'&&'
p51
aS'!'
p52
aS'variable_1'
p53
aS'->'
p54
aS'variable_17'
p55
aS'&&'
p56
ag52
aS'variable_1'
p57
aS'->'
p58
aS'variable_18'
p59
ag13
aS'variable_3'
p60
aS'->'
p61
aS'variable_19'
p62
aS'.'
p63
aS'variable_20'
p64
ag17
aS'variable_3'
p65
aS'->'
p66
aS'variable_21'
p67
ag63
aS'variable_22'
p68
ag29
aS'variable_3'
p69
aS'->'
p70
aS'variable_19'
p71
ag63
aS'variable_23'
p72
ag17
aS'variable_3'
p73
aS'->'
p74
aS'variable_21'
p75
ag63
aS'variable_24'
p76
ag29
aS'variable_5'
p77
ag17
aS'func_1'
p78
ag6
ag18
aS'variable_3'
p79
aS'->'
p80
aS'variable_25'
p81
ag13
ag29
aS'if'
p82
ag6
aS'variable_5'
p83
aS'=='
p84
aS'0'
p85
ag13
aS'variable_2'
p86
aS'->'
p87
aS'variable_26'
p88
ag17
ag85
ag29
aS'if'
p89
ag6
ag52
aS'variable_4'
p90
aS'->'
p91
aS'variable_27'
p92
ag13
aS'variable_3'
p93
aS'->'
p94
aS'variable_28'
p95
ag17
aS'NULL'
p96
ag29
aS'variable_7'
p97
ag17
aS'func_2'
p98
ag6
ag18
aS'variable_3'
p99
aS'->'
p100
aS'variable_25'
p101
ag13
ag29
aS'if'
p102
ag6
aS'variable_7'
p103
aS'>'
p104
aS'9'
p105
ag13
aS'if'
p106
ag6
aS'variable_7'
p107
ag104
aS'4'
p108
ag13
aS'variable_7'
p109
aS'-='
p110
aS'5'
p111
ag29
aS'variable_1'
p112
aS'->'
p113
aS'variable_29'
p114
ag17
ag85
ag29
aS'variable_7'
p115
ag17
aS'variable_30'
p116
aS'['
p117
aS'variable_7'
p118
aS']'
p119
ag29
aS'variable_1'
p120
aS'->'
p121
aS'variable_7'
p122
ag17
aS'variable_7'
p123
ag29
aS'variable_1'
p124
aS'->'
p125
aS'variable_31'
p126
ag17
aS'variable_7'
p127
ag18
aS'3'
p128
ag29
aS'variable_3'
p129
aS'->'
p130
aS'variable_32'
p131
ag17
aS'variable_1'
p132
aS'->'
p133
aS'variable_7'
p134
ag29
aS'variable_6'
p135
ag17
aS'func_3'
p136
ag6
ag18
aS'variable_3'
p137
aS'->'
p138
aS'variable_25'
p139
ag13
ag29
aS'if'
p140
ag6
aS'variable_6'
p141
ag104
ag17
aS'variable_33'
p142
ag13
aS'if'
p143
ag6
ag52
aS'variable_2'
p144
aS'->'
p145
aS'variable_34'
p146
ag117
aS'variable_6'
p147
ag119
ag13
aS'variable_1'
p148
aS'->'
p149
aS'variable_35'
p150
ag17
ag8
aS'variable_2'
p151
aS'->'
p152
aS'variable_34'
p153
ag117
aS'variable_6'
p154
ag119
ag29
aS'if'
p155
ag6
ag52
aS'variable_2'
p156
aS'->'
p157
aS'variable_36'
p158
ag117
aS'variable_1'
p159
aS'->'
p160
aS'variable_35'
p161
ag63
aS'variable_37'
p162
ag119
ag13
aS'variable_1'
p163
aS'->'
p164
aS'variable_38'
p165
ag17
ag8
aS'variable_2'
p166
aS'->'
p167
aS'variable_36'
p168
ag117
aS'variable_1'
p169
aS'->'
p170
aS'variable_35'
p171
ag63
aS'variable_37'
p172
ag119
ag29
aS'variable_3'
p173
aS'->'
p174
aS'variable_14'
p175
aS'->'
p176
aS'variable_39'
p177
ag17
aS'func_4'
p178
ag6
ag18
aS'variable_1'
p179
aS'->'
p180
aS'variable_38'
p181
ag13
ag29
aS'variable_3'
p182
aS'->'
p183
aS'variable_14'
p184
aS'->'
p185
aS'variable_40'
p186
ag17
aS'variable_1'
p187
aS'->'
p188
aS'variable_38'
p189
ag63
aS'variable_41'
p190
ag29
aS'variable_3'
p191
aS'->'
p192
aS'variable_14'
p193
aS'->'
p194
aS'variable_42'
p195
ag17
aS'variable_1'
p196
aS'->'
p197
aS'variable_38'
p198
ag63
aS'variable_43'
p199
ag29
aS'variable_13'
p200
ag17
ag6
aS'variable_3'
p201
aS'->'
p202
aS'variable_44'
p203
aS'&&'
p204
ag6
aS'16'
p205
ag8
aS'variable_1'
p206
aS'->'
p207
aS'variable_38'
p208
ag63
aS'variable_45'
p209
aS'!='
p210
aS'variable_3'
p211
aS'->'
p212
aS'variable_14'
p213
aS'->'
p214
aS'variable_46'
p215
aS'||'
p216
aS'16'
p217
ag8
aS'variable_1'
p218
aS'->'
p219
aS'variable_38'
p220
ag63
aS'variable_47'
p221
ag8
ag6
aS'2'
p222
aS'-'
p223
aS'variable_1'
p224
aS'->'
p225
aS'variable_38'
p226
ag63
aS'variable_48'
p227
ag13
aS'!='
p228
aS'variable_3'
p229
aS'->'
p230
aS'variable_14'
p231
aS'->'
p232
aS'variable_49'
p233
aS'||'
p234
aS'variable_3'
p235
aS'->'
p236
aS'variable_14'
p237
aS'->'
p238
aS'variable_50'
p239
aS'!='
p240
aS'variable_1'
p241
aS'->'
p242
aS'variable_38'
p243
ag63
aS'variable_51'
p244
aS'||'
p245
aS'variable_1'
p246
aS'->'
p247
aS'variable_52'
p248
aS'!='
p249
aS'variable_1'
p250
aS'->'
p251
aS'variable_38'
p252
ag63
aS'variable_53'
p253
aS'||'
p254
aS'func_5'
p255
ag6
aS'variable_1'
p256
aS'->'
p257
aS'variable_38'
p258
ag63
aS'variable_54'
p259
ag10
aS'variable_3'
p260
aS'->'
p261
aS'variable_14'
p262
aS'->'
p263
aS'variable_55'
p264
ag13
ag13
ag13
ag29
aS'if'
p265
ag6
aS'variable_13'
p266
aS'&&'
p267
ag6
aS'variable_1'
p268
aS'!='
p269
aS'variable_2'
p270
aS'||'
p271
ag6
aS'variable_3'
p272
aS'->'
p273
aS'variable_14'
p274
aS'->'
p275
aS'variable_56'
p276
ag18
aS'variable_57'
p277
ag13
ag13
ag13
aS'variable_3'
p278
aS'->'
p279
aS'variable_45'
p280
ag17
aS'variable_1'
p281
aS'->'
p282
aS'variable_38'
p283
ag63
aS'variable_45'
p284
ag29
aS'variable_3'
p285
aS'->'
p286
aS'variable_47'
p287
ag17
aS'variable_1'
p288
aS'->'
p289
aS'variable_38'
p290
ag63
aS'variable_47'
p291
ag8
ag6
ag222
ag223
aS'variable_1'
p292
aS'->'
p293
aS'variable_38'
p294
ag63
aS'variable_48'
p295
ag13
ag29
aS'variable_1'
p296
aS'->'
p297
aS'variable_58'
p298
ag17
aS'variable_3'
p299
aS'->'
p300
aS'variable_45'
p301
ag8
ag108
ag29
aS'variable_3'
p302
aS'->'
p303
aS'variable_59'
p304
ag17
aS'variable_1'
p305
aS'->'
p306
aS'variable_38'
p307
ag63
aS'variable_53'
p308
aS'<'
p309
ag17
aS'1'
p310
ag29
aS'variable_3'
p311
aS'->'
p312
aS'variable_60'
p313
ag17
aS'16'
p314
ag8
aS'variable_3'
p315
aS'->'
p316
aS'variable_45'
p317
ag29
aS'variable_3'
p318
aS'->'
p319
aS'variable_61'
p320
ag17
aS'16'
p321
ag8
aS'variable_3'
p322
aS'->'
p323
aS'variable_47'
p324
ag29
aS'if'
p325
ag6
aS'variable_13'
p326
ag13
aS'variable_1'
p327
aS'->'
p328
aS'variable_62'
p329
ag17
ag85
ag29
aS'variable_1'
p330
aS'->'
p331
aS'variable_26'
p332
ag17
ag85
ag29
aS'if'
p333
ag6
ag52
aS'variable_3'
p334
aS'->'
p335
aS'variable_44'
p336
ag13
aS'if'
p337
ag6
aS'variable_1'
p338
aS'!='
p339
aS'variable_2'
p340
ag13
aS'if'
p341
ag6
aS'func_6'
p342
ag6
aS'variable_3'
p343
aS'->'
p344
aS'variable_14'
p345
aS'->'
p346
aS'variable_60'
p347
ag10
aS'16'
p348
ag13
aS'=='
p349
aS'variable_3'
p350
aS'->'
p351
aS'variable_60'
p352
aS'&&'
p353
aS'func_7'
p354
ag6
aS'variable_3'
p355
aS'->'
p356
aS'variable_14'
p357
aS'->'
p358
aS'variable_61'
p359
ag10
aS'16'
p360
ag8
ag6
ag222
ag223
aS'variable_1'
p361
aS'->'
p362
aS'variable_38'
p363
ag63
aS'variable_48'
p364
ag13
ag13
aS'=='
p365
aS'variable_3'
p366
aS'->'
p367
aS'variable_61'
p368
aS'&&'
p369
ag52
aS'variable_1'
p370
aS'->'
p371
aS'variable_38'
p372
ag63
aS'variable_63'
p373
aS'&&'
p374
ag52
aS'variable_1'
p375
aS'->'
p376
aS'variable_38'
p377
ag63
aS'variable_64'
p378
aS'&&'
p379
ag6
aS'variable_3'
p380
aS'->'
p381
aS'variable_14'
p382
aS'->'
p383
aS'variable_60'
p384
aS'!='
p385
aS'variable_3'
p386
aS'->'
p387
aS'variable_60'
p388
aS'||'
p389
aS'variable_3'
p390
aS'->'
p391
aS'variable_14'
p392
aS'->'
p393
aS'variable_61'
p394
aS'&&'
p395
aS'variable_3'
p396
aS'->'
p397
aS'variable_61'
p398
ag13
ag13
aS'variable_3'
p399
aS'->'
p400
aS'variable_14'
p401
aS'->'
p402
aS'variable_60'
p403
aS'-='
p404
ag6
ag222
aS'>>'
p405
aS'variable_65'
p406
ag13
ag8
aS'func_8'
p407
ag6
aS'variable_1'
p408
aS'->'
p409
aS'variable_38'
p410
ag63
aS'variable_63'
p411
ag10
ag6
aS'8'
p412
aS'<<'
p413
aS'variable_65'
p414
ag13
ag223
ag310
ag13
ag29
aS'variable_3'
p415
aS'->'
p416
aS'variable_14'
p417
aS'->'
p418
aS'variable_61'
p419
aS'-='
p420
ag6
ag310
aS'<<'
p421
aS'variable_3'
p422
aS'->'
p423
aS'variable_59'
p424
ag13
ag8
aS'func_9'
p425
ag6
aS'variable_1'
p426
aS'->'
p427
aS'variable_38'
p428
ag63
aS'variable_64'
p429
ag10
ag6
aS'16'
p430
aS'>>'
p431
aS'variable_3'
p432
aS'->'
p433
aS'variable_59'
p434
ag13
ag223
ag310
ag13
ag8
ag6
ag222
ag223
aS'variable_1'
p435
aS'->'
p436
aS'variable_38'
p437
ag63
aS'variable_48'
p438
ag13
ag29
aS'variable_3'
p439
aS'->'
p440
aS'variable_14'
p441
aS'->'
p442
aS'variable_55'
p443
ag17
aS'variable_1'
p444
aS'->'
p445
aS'variable_38'
p446
ag63
aS'variable_54'
p447
ag29
aS'if'
p448
ag6
aS'variable_3'
p449
aS'->'
p450
aS'variable_14'
p451
aS'->'
p452
aS'variable_66'
p453
aS'->'
p454
aS'variable_67'
p455
ag18
aS'variable_68'
p456
aS'&&'
p457
ag6
aS'variable_1'
p458
aS'->'
p459
aS'variable_38'
p460
ag63
aS'variable_51'
p461
aS'!='
p462
ag412
aS'||'
p463
aS'variable_1'
p464
aS'->'
p465
aS'variable_38'
p466
ag63
aS'variable_53'
p467
ag104
ag310
ag13
ag13
aS'if'
p468
ag6
aS'variable_3'
p469
aS'->'
p470
aS'variable_14'
p471
aS'->'
p472
aS'variable_50'
p473
aS'!='
p474
aS'variable_1'
p475
aS'->'
p476
aS'variable_38'
p477
ag63
aS'variable_51'
p478
aS'||'
p479
aS'variable_1'
p480
aS'->'
p481
aS'variable_52'
p482
aS'!='
p483
aS'variable_1'
p484
aS'->'
p485
aS'variable_38'
p486
ag63
aS'variable_53'
p487
ag13
aS'if'
p488
ag6
aS'variable_1'
p489
aS'->'
p490
aS'variable_38'
p491
ag63
aS'variable_51'
p492
ag104
ag17
ag412
aS'&&'
p493
aS'variable_1'
p494
aS'->'
p495
aS'variable_38'
p496
ag63
aS'variable_51'
p497
ag309
ag17
aS'14'
p498
aS'&&'
p499
aS'variable_1'
p500
aS'->'
p501
aS'variable_38'
p502
ag63
aS'variable_51'
p503
aS'!='
p504
aS'11'
p505
aS'&&'
p506
aS'variable_1'
p507
aS'->'
p508
aS'variable_38'
p509
ag63
aS'variable_51'
p510
aS'!='
p511
aS'13'
p512
aS'&&'
p513
ag6
aS'variable_1'
p514
aS'->'
p515
aS'variable_38'
p516
ag63
aS'variable_51'
p517
aS'!='
p518
ag105
aS'||'
p519
ag52
aS'variable_69'
p520
ag13
ag13
aS'variable_3'
p521
aS'->'
p522
aS'variable_14'
p523
aS'->'
p524
aS'variable_50'
p525
ag17
aS'variable_1'
p526
aS'->'
p527
aS'variable_38'
p528
ag63
aS'variable_51'
p529
ag29
aS'variable_1'
p530
aS'->'
p531
aS'variable_52'
p532
ag17
aS'variable_1'
p533
aS'->'
p534
aS'variable_38'
p535
ag63
aS'variable_53'
p536
ag29
aS'variable_1'
p537
aS'->'
p538
aS'variable_18'
p539
ag17
aS'variable_1'
p540
aS'->'
p541
aS'variable_38'
p542
ag63
aS'variable_51'
p543
ag104
ag412
ag29
aS'variable_3'
p544
aS'->'
p545
aS'variable_21'
p546
ag63
aS'variable_70'
p547
ag17
aS'variable_1'
p548
aS'->'
p549
aS'variable_38'
p550
ag63
aS'variable_51'
p551
ag104
ag412
aS'?'
p552
aS'32'
p553
aS':'
p554
aS'16'
p555
ag29
aS'if'
p556
ag6
aS'variable_1'
p557
aS'->'
p558
aS'variable_38'
p559
ag63
aS'variable_71'
p560
ag13
aS'variable_3'
p561
aS'->'
p562
aS'variable_14'
p563
aS'->'
p564
aS'variable_72'
p565
ag17
aS'variable_1'
p566
aS'->'
p567
aS'variable_38'
p568
ag63
aS'variable_73'
p569
ag104
ag85
ag552
aS'variable_74'
p570
ag554
aS'variable_75'
p571
ag29
aS'if'
p572
ag6
aS'variable_1'
p573
aS'->'
p574
aS'variable_38'
p575
ag63
aS'variable_76'
p576
ag13
aS'variable_3'
p577
aS'->'
p578
aS'variable_14'
p579
aS'->'
p580
aS'variable_77'
p581
ag17
aS'variable_1'
p582
aS'->'
p583
aS'variable_38'
p584
ag63
aS'variable_77'
p585
ag29
aS'variable_3'
p586
aS'->'
p587
aS'variable_14'
p588
aS'->'
p589
aS'variable_78'
p590
ag17
aS'variable_1'
p591
aS'->'
p592
aS'variable_38'
p593
ag63
aS'variable_78'
p594
ag29
aS'variable_3'
p595
aS'->'
p596
aS'variable_14'
p597
aS'->'
p598
aS'variable_79'
p599
ag17
aS'variable_1'
p600
aS'->'
p601
aS'variable_38'
p602
ag63
aS'variable_79'
p603
ag29
aS'switch'
p604
ag6
aS'variable_1'
p605
aS'->'
p606
aS'variable_38'
p607
ag63
aS'variable_51'
p608
ag13
aS'if'
p609
ag6
aS'variable_65'
p610
ag13
aS'if'
p611
ag6
aS'variable_3'
p612
aS'->'
p613
aS'variable_14'
p614
aS'->'
p615
aS'variable_79'
p616
aS'=='
p617
aS'variable_80'
p618
ag13
aS'variable_3'
p619
aS'->'
p620
aS'variable_14'
p621
aS'->'
p622
aS'variable_81'
p623
ag17
aS'variable_82'
p624
ag29
aS'variable_3'
p625
aS'->'
p626
aS'variable_14'
p627
aS'->'
p628
aS'variable_81'
p629
ag17
aS'variable_83'
p630
ag29
aS'if'
p631
ag6
aS'variable_69'
p632
ag13
aS'variable_3'
p633
aS'->'
p634
aS'variable_14'
p635
aS'->'
p636
aS'variable_81'
p637
ag17
aS'variable_84'
p638
ag29
aS'variable_3'
p639
aS'->'
p640
aS'variable_14'
p641
aS'->'
p642
aS'variable_81'
p643
ag17
aS'variable_85'
p644
ag29
aS'if'
p645
ag6
aS'variable_65'
p646
ag13
aS'if'
p647
ag6
aS'variable_3'
p648
aS'->'
p649
aS'variable_14'
p650
aS'->'
p651
aS'variable_79'
p652
aS'=='
p653
aS'variable_80'
p654
ag13
aS'variable_3'
p655
aS'->'
p656
aS'variable_14'
p657
aS'->'
p658
aS'variable_81'
p659
ag17
aS'variable_86'
p660
ag29
aS'variable_3'
p661
aS'->'
p662
aS'variable_14'
p663
aS'->'
p664
aS'variable_81'
p665
ag17
aS'variable_87'
p666
ag29
aS'if'
p667
ag6
aS'variable_69'
p668
ag13
aS'variable_3'
p669
aS'->'
p670
aS'variable_14'
p671
aS'->'
p672
aS'variable_81'
p673
ag17
aS'variable_88'
p674
ag29
aS'variable_3'
p675
aS'->'
p676
aS'variable_14'
p677
aS'->'
p678
aS'variable_81'
p679
ag17
aS'variable_89'
p680
ag29
aS'if'
p681
ag6
aS'variable_65'
p682
ag13
aS'if'
p683
ag6
aS'variable_3'
p684
aS'->'
p685
aS'variable_14'
p686
aS'->'
p687
aS'variable_79'
p688
aS'=='
p689
aS'variable_80'
p690
ag13
aS'variable_3'
p691
aS'->'
p692
aS'variable_14'
p693
aS'->'
p694
aS'variable_81'
p695
ag17
aS'variable_90'
p696
ag29
aS'variable_3'
p697
aS'->'
p698
aS'variable_14'
p699
aS'->'
p700
aS'variable_81'
p701
ag17
aS'variable_91'
p702
ag29
aS'if'
p703
ag6
aS'variable_69'
p704
ag13
aS'variable_3'
p705
aS'->'
p706
aS'variable_14'
p707
aS'->'
p708
aS'variable_81'
p709
ag17
aS'variable_92'
p710
ag29
aS'variable_3'
p711
aS'->'
p712
aS'variable_14'
p713
aS'->'
p714
aS'variable_81'
p715
ag17
aS'variable_93'
p716
ag29
aS'if'
p717
ag6
aS'variable_65'
p718
ag13
aS'if'
p719
ag6
aS'variable_3'
p720
aS'->'
p721
aS'variable_14'
p722
aS'->'
p723
aS'variable_79'
p724
aS'=='
p725
aS'variable_80'
p726
ag13
aS'variable_3'
p727
aS'->'
p728
aS'variable_14'
p729
aS'->'
p730
aS'variable_81'
p731
ag17
aS'variable_94'
p732
ag29
aS'variable_3'
p733
aS'->'
p734
aS'variable_14'
p735
aS'->'
p736
aS'variable_81'
p737
ag17
aS'variable_95'
p738
ag29
aS'if'
p739
ag6
aS'variable_69'
p740
ag13
aS'variable_3'
p741
aS'->'
p742
aS'variable_14'
p743
aS'->'
p744
aS'variable_81'
p745
ag17
aS'variable_96'
p746
ag29
aS'variable_3'
p747
aS'->'
p748
aS'variable_14'
p749
aS'->'
p750
aS'variable_81'
p751
ag17
aS'variable_97'
p752
ag29
aS'if'
p753
ag6
aS'variable_65'
p754
ag13
aS'variable_3'
p755
aS'->'
p756
aS'variable_14'
p757
aS'->'
p758
aS'variable_81'
p759
ag17
aS'variable_3'
p760
aS'->'
p761
aS'variable_14'
p762
aS'->'
p763
aS'variable_72'
p764
aS'=='
p765
aS'variable_74'
p766
ag552
aS'variable_98'
p767
ag554
aS'variable_99'
p768
ag29
aS'if'
p769
ag6
aS'variable_3'
p770
aS'->'
p771
aS'variable_14'
p772
aS'->'
p773
aS'variable_79'
p774
aS'=='
p775
aS'variable_80'
p776
ag13
aS'variable_3'
p777
aS'->'
p778
aS'variable_14'
p779
aS'->'
p780
aS'variable_81'
p781
ag17
aS'variable_100'
p782
ag29
aS'if'
p783
ag6
aS'variable_69'
p784
ag13
aS'variable_3'
p785
aS'->'
p786
aS'variable_14'
p787
aS'->'
p788
aS'variable_81'
p789
ag17
aS'variable_3'
p790
aS'->'
p791
aS'variable_14'
p792
aS'->'
p793
aS'variable_72'
p794
aS'=='
p795
aS'variable_74'
p796
ag552
aS'variable_101'
p797
ag554
aS'variable_102'
p798
ag29
aS'variable_3'
p799
aS'->'
p800
aS'variable_14'
p801
aS'->'
p802
aS'variable_81'
p803
ag17
aS'variable_3'
p804
aS'->'
p805
aS'variable_14'
p806
aS'->'
p807
aS'func_10'
p808
ag6
aS'variable_3'
p809
aS'->'
p810
aS'variable_14'
p811
ag10
aS'variable_3'
p812
aS'->'
p813
aS'variable_14'
p814
aS'->'
p815
aS'variable_66'
p816
aS'->'
p817
aS'variable_103'
p818
ag552
aS'variable_3'
p819
aS'->'
p820
aS'variable_14'
p821
aS'->'
p822
aS'variable_66'
p823
aS'->'
p824
aS'variable_103'
p825
ag554
aS'variable_3'
p826
aS'->'
p827
aS'variable_14'
p828
aS'->'
p829
aS'variable_72'
p830
aS'=='
p831
aS'variable_74'
p832
ag552
aS'variable_104'
p833
ag554
aS'variable_105'
p834
ag13
ag29
aS'variable_3'
p835
aS'->'
p836
aS'variable_14'
p837
aS'->'
p838
aS'variable_106'
p839
ag17
aS'func_11'
p840
ag6
aS'variable_3'
p841
aS'->'
p842
aS'variable_14'
p843
aS'->'
p844
aS'variable_66'
p845
aS'->'
p846
aS'variable_107'
p847
ag10
aS'variable_3'
p848
aS'->'
p849
aS'variable_14'
p850
aS'->'
p851
aS'variable_81'
p852
ag13
ag29
aS'if'
p853
ag6
aS'func_12'
p854
ag6
aS'variable_3'
p855
ag13
ag309
ag85
ag13
aS'variable_3'
p856
aS'->'
p857
aS'variable_27'
p858
ag17
ag85
ag29
aS'variable_1'
p859
aS'->'
p860
aS'variable_108'
p861
ag17
ag310
ag29
aS'if'
p862
ag6
aS'func_13'
p863
ag6
aS'variable_1'
p864
ag13
ag309
ag85
ag13
aS'if'
p865
ag6
ag52
aS'variable_109'
p866
aS'||'
p867
ag52
ag6
aS'variable_3'
p868
aS'->'
p869
aS'variable_14'
p870
aS'->'
p871
aS'variable_56'
p872
ag18
aS'variable_110'
p873
ag13
ag13
aS'if'
p874
ag6
aS'func_14'
p875
ag6
aS'variable_1'
p876
ag13
ag309
ag85
ag13
aS'for'
p877
ag6
aS'variable_9'
p878
ag17
ag310
ag29
aS'variable_9'
p879
ag309
aS'variable_3'
p880
aS'->'
p881
aS'variable_111'
p882
ag29
aS'variable_9'
p883
aS'++'
p884
ag13
aS'variable_0'
p885
ag8
aS'variable_112'
p886
ag29
aS'variable_112'
p887
ag17
aS'variable_1'
p888
aS'->'
p889
aS'variable_113'
p890
ag117
aS'variable_9'
p891
ag119
ag17
aS'func_15'
p892
ag6
aS'sizeof'
p893
ag6
aS'variable_0'
p894
ag13
ag13
ag29
aS'for'
p895
ag6
aS'variable_9'
p896
ag17
ag85
ag29
aS'variable_9'
p897
ag309
aS'variable_3'
p898
aS'->'
p899
aS'variable_111'
p900
ag29
aS'variable_9'
p901
aS'++'
p902
ag13
aS'if'
p903
ag6
aS'func_16'
p904
ag6
aS'variable_1'
p905
aS'->'
p906
aS'variable_113'
p907
ag117
aS'variable_9'
p908
ag119
ag13
ag309
ag85
ag13
aS'if'
p909
ag6
aS'variable_1'
p910
aS'=='
p911
aS'variable_2'
p912
aS'&&'
p913
aS'variable_1'
p914
aS'->'
p915
aS'variable_114'
p916
aS'!='
p917
aS'variable_6'
p918
ag13
aS'variable_1'
p919
aS'->'
p920
aS'variable_114'
p921
ag17
aS'variable_6'
p922
ag29
aS'variable_1'
p923
aS'->'
p924
aS'variable_115'
p925
ag17
aS'func_17'
p926
ag6
ag18
aS'variable_3'
p927
aS'->'
p928
aS'variable_25'
p929
ag10
aS'variable_1'
p930
aS'->'
p931
aS'variable_38'
p932
ag63
aS'variable_116'
p933
ag13
ag29
aS'variable_1'
p934
aS'->'
p935
aS'variable_117'
p936
ag17
ag85
ag29
aS'variable_1'
p937
aS'->'
p938
aS'variable_118'
p939
ag17
ag85
ag29
aS'variable_11'
p940
ag17
aS'variable_4'
p941
aS'->'
p942
aS'variable_119'
p943
ag29
aS'variable_12'
p944
ag17
aS'variable_3'
p945
aS'->'
p946
aS'variable_120'
p947
ag29
aS'variable_3'
p948
aS'->'
p949
aS'variable_120'
p950
ag17
aS'variable_1'
p951
aS'->'
p952
aS'variable_17'
p953
aS'=='
p954
ag85
ag29
aS'if'
p955
ag6
aS'variable_1'
p956
aS'->'
p957
aS'variable_38'
p958
ag63
aS'variable_48'
p959
ag13
aS'variable_3'
p960
aS'->'
p961
aS'variable_119'
p962
ag17
aS'variable_121'
p963
ag29
aS'if'
p964
ag6
ag52
aS'variable_1'
p965
aS'->'
p966
aS'variable_38'
p967
ag63
aS'variable_122'
p968
aS'&&'
p969
aS'variable_7'
p970
aS'=='
p971
aS'variable_123'
p972
ag13
aS'if'
p973
ag6
aS'func_18'
p974
ag6
ag18
aS'variable_3'
p975
aS'->'
p976
aS'variable_25'
p977
ag13
ag13
aS'variable_3'
p978
aS'->'
p979
aS'variable_119'
p980
ag17
aS'variable_124'
p981
aS'+'
p982
aS'func_19'
p983
ag6
ag18
aS'variable_3'
p984
aS'->'
p985
aS'variable_25'
p986
ag13
ag29
aS'variable_3'
p987
aS'->'
p988
aS'variable_119'
p989
ag17
aS'variable_121'
p990
ag29
aS'variable_1'
p991
aS'->'
p992
aS'variable_118'
p993
ag17
aS'variable_1'
p994
aS'->'
p995
aS'variable_38'
p996
ag63
aS'variable_125'
p997
ag29
aS'variable_1'
p998
aS'->'
p999
aS'variable_126'
p1000
ag17
aS'variable_3'
p1001
aS'->'
p1002
aS'variable_119'
p1003
aS'!='
p1004
aS'variable_121'
p1005
ag29
aS'if'
p1006
ag6
aS'variable_2'
p1007
aS'->'
p1008
aS'variable_26'
p1009
aS'!='
p1010
ag85
ag13
aS'if'
p1011
ag6
aS'variable_11'
p1012
aS'!='
p1013
aS'variable_3'
p1014
aS'->'
p1015
aS'variable_119'
p1016
aS'||'
p1017
aS'variable_12'
p1018
aS'!='
p1019
aS'variable_3'
p1020
aS'->'
p1021
aS'variable_120'
p1022
ag13
aS'if'
p1023
ag6
aS'variable_1'
p1024
aS'->'
p1025
aS'variable_115'
p1026
aS'!='
p1027
aS'variable_1'
p1028
aS'->'
p1029
aS'variable_127'
p1030
aS'&&'
p1031
aS'variable_1'
p1032
aS'->'
p1033
aS'variable_127'
p1034
ag104
ag17
ag85
ag13
aS'int'
p1035
aS'variable_128'
p1036
ag17
aS'variable_1'
p1037
aS'->'
p1038
aS'variable_127'
p1039
ag29
aS'int'
p1040
aS'variable_129'
p1041
ag17
ag310
aS'<<'
p1042
aS'variable_1'
p1043
aS'->'
p1044
aS'variable_38'
p1045
ag63
aS'variable_116'
p1046
ag29
aS'if'
p1047
ag6
aS'variable_128'
p1048
ag104
aS'variable_1'
p1049
aS'->'
p1050
aS'variable_115'
p1051
ag13
aS'variable_128'
p1052
aS'-='
p1053
aS'variable_129'
p1054
ag29
aS'if'
p1055
ag6
ag6
aS'variable_1'
p1056
aS'->'
p1057
aS'variable_115'
p1058
ag223
aS'variable_128'
p1059
ag13
ag104
aS'variable_1'
p1060
aS'->'
p1061
aS'variable_38'
p1062
ag63
aS'variable_43'
p1063
ag13
aS'variable_128'
p1064
ag17
ag6
aS'variable_1'
p1065
aS'->'
p1066
aS'variable_115'
p1067
ag223
aS'variable_1'
p1068
aS'->'
p1069
aS'variable_38'
p1070
ag63
aS'variable_43'
p1071
ag13
ag223
ag310
ag29
aS'if'
p1072
ag6
aS'variable_128'
p1073
ag309
ag85
ag13
aS'variable_128'
p1074
aS'+='
p1075
aS'variable_129'
p1076
ag29
aS'variable_1'
p1077
aS'->'
p1078
aS'variable_127'
p1079
ag17
aS'variable_128'
p1080
ag29
aS'if'
p1081
ag6
aS'variable_4'
p1082
aS'->'
p1083
aS'variable_27'
p1084
ag13
aS'if'
p1085
ag6
ag52
aS'variable_130'
p1086
aS'||'
p1087
aS'variable_3'
p1088
aS'->'
p1089
aS'variable_119'
p1090
aS'=='
p1091
aS'variable_11'
p1092
ag13
aS'if'
p1093
ag6
aS'variable_4'
p1094
aS'->'
p1095
aS'variable_28'
p1096
aS'->'
p1097
aS'variable_115'
p1098
aS'!='
p1099
aS'variable_1'
p1100
aS'->'
p1101
aS'variable_115'
p1102
ag13
aS'if'
p1103
ag6
ag52
ag6
ag6
aS'variable_11'
p1104
aS'=='
p1105
aS'variable_124'
p1106
aS'&&'
p1107
aS'variable_3'
p1108
aS'->'
p1109
aS'variable_119'
p1110
aS'=='
p1111
aS'variable_131'
p1112
ag13
aS'||'
p1113
ag6
aS'variable_11'
p1114
aS'=='
p1115
aS'variable_131'
p1116
aS'&&'
p1117
aS'variable_3'
p1118
aS'->'
p1119
aS'variable_119'
p1120
aS'=='
p1121
aS'variable_124'
p1122
ag13
ag13
ag13
aS'if'
p1123
ag6
aS'variable_12'
p1124
aS'!='
p1125
aS'variable_3'
p1126
aS'->'
p1127
aS'variable_120'
p1128
ag13
aS'variable_4'
p1129
aS'->'
p1130
aS'variable_28'
p1131
aS'->'
p1132
aS'variable_132'
p1133
ag17
aS'variable_4'
p1134
ag29
aS'while'
p1135
ag6
aS'variable_1'
p1136
aS'->'
p1137
aS'variable_115'
p1138
aS'!='
p1139
aS'variable_1'
p1140
aS'->'
p1141
aS'variable_127'
p1142
aS'&&'
p1143
aS'variable_1'
p1144
aS'->'
p1145
aS'variable_127'
p1146
ag104
ag17
ag85
aS'&&'
p1147
aS'variable_1'
p1148
aS'->'
p1149
aS'variable_115'
p1150
aS'!='
p1151
ag6
aS'variable_1'
p1152
aS'->'
p1153
aS'variable_127'
p1154
ag982
ag310
ag13
aS'%'
p1155
ag6
ag310
aS'<<'
p1156
aS'variable_1'
p1157
aS'->'
p1158
aS'variable_38'
p1159
ag63
aS'variable_116'
p1160
ag13
ag13
aS'variable_133'
p1161
ag8
aS'variable_134'
p1162
ag17
aS'variable_1'
p1163
aS'->'
p1164
aS'variable_135'
p1165
ag552
aS'variable_1'
p1166
aS'->'
p1167
aS'variable_136'
p1168
ag117
ag85
ag119
ag554
aS'NULL'
p1169
ag29
aS'if'
p1170
ag6
aS'func_20'
p1171
ag6
aS'variable_1'
p1172
ag13
ag309
ag85
ag13
aS'variable_1'
p1173
aS'->'
p1174
aS'variable_127'
p1175
aS'++'
p1176
ag29
aS'variable_1'
p1177
aS'->'
p1178
aS'variable_127'
p1179
ag1155
ag17
ag310
aS'<<'
p1180
aS'variable_1'
p1181
aS'->'
p1182
aS'variable_38'
p1183
ag63
aS'variable_116'
p1184
ag29
aS'variable_3'
p1185
aS'->'
p1186
aS'variable_28'
p1187
aS'->'
p1188
aS'variable_115'
p1189
ag17
aS'variable_1'
p1190
aS'->'
p1191
aS'variable_127'
p1192
ag29
aS'if'
p1193
ag6
aS'func_21'
p1194
ag6
aS'variable_1'
p1195
ag10
aS'variable_1'
p1196
aS'->'
p1197
aS'variable_137'
p1198
ag10
aS'variable_1'
p1199
aS'->'
p1200
aS'variable_138'
p1201
ag13
ag309
ag85
aS'&&'
p1202
ag6
aS'variable_3'
p1203
aS'->'
p1204
aS'variable_14'
p1205
aS'->'
p1206
aS'variable_139'
p1207
ag18
aS'variable_140'
p1208
ag13
ag13
aS'if'
p1209
ag6
aS'variable_1'
p1210
aS'->'
p1211
aS'variable_135'
p1212
ag13
aS'if'
p1213
ag6
aS'variable_134'
p1214
ag13
aS'variable_1'
p1215
aS'->'
p1216
aS'variable_136'
p1217
ag117
ag85
ag119
aS'->'
p1218
aS'variable_141'
p1219
ag17
aS'variable_134'
p1220
aS'->'
p1221
aS'variable_141'
p1222
ag982
ag222
ag29
aS'variable_1'
p1223
aS'->'
p1224
aS'variable_136'
p1225
ag117
ag85
ag119
aS'->'
p1226
aS'variable_115'
p1227
ag17
aS'variable_1'
p1228
aS'->'
p1229
aS'variable_127'
p1230
ag29
aS'if'
p1231
ag6
aS'variable_4'
p1232
aS'->'
p1233
aS'variable_27'
p1234
ag13
aS'if'
p1235
ag6
ag52
aS'variable_130'
p1236
aS'||'
p1237
aS'variable_3'
p1238
aS'->'
p1239
aS'variable_119'
p1240
aS'=='
p1241
aS'variable_11'
p1242
ag13
aS'variable_4'
p1243
aS'->'
p1244
aS'variable_28'
p1245
ag17
aS'NULL'
p1246
ag29
aS'variable_4'
p1247
aS'->'
p1248
aS'variable_27'
p1249
ag17
aS'variable_130'
p1250
ag29
aS'if'
p1251
ag6
aS'variable_4'
p1252
aS'->'
p1253
aS'variable_28'
p1254
aS'->'
p1255
aS'variable_115'
p1256
aS'!='
p1257
aS'variable_1'
p1258
aS'->'
p1259
aS'variable_115'
p1260
ag13
aS'variable_4'
p1261
aS'->'
p1262
aS'variable_27'
p1263
ag17
ag310
ag29
aS'variable_4'
p1264
aS'->'
p1265
aS'variable_28'
p1266
ag17
aS'NULL'
p1267
ag29
aS'variable_4'
p1268
aS'->'
p1269
aS'variable_27'
p1270
ag17
ag85
ag29
aS'variable_4'
p1271
aS'->'
p1272
aS'variable_27'
p1273
ag17
aS'variable_130'
p1274
ag29
aS'if'
p1275
ag6
ag52
aS'variable_130'
p1276
aS'||'
p1277
aS'variable_4'
p1278
aS'->'
p1279
aS'variable_27'
p1280
ag13
aS'if'
p1281
ag6
aS'func_22'
p1282
ag6
aS'variable_1'
p1283
ag13
ag309
ag85
ag13
aS'variable_3'
p1284
aS'->'
p1285
aS'variable_28'
p1286
aS'->'
p1287
aS'variable_115'
p1288
ag17
aS'variable_1'
p1289
aS'->'
p1290
aS'variable_115'
p1291
ag29
aS'if'
p1292
ag6
aS'variable_5'
p1293
aS'<<'
p1294
aS'variable_142'
p1295
ag104
ag17
aS'variable_3'
p1296
aS'->'
p1297
aS'variable_143'
p1298
aS'||'
p1299
aS'variable_5'
p1300
ag104
ag17
aS'variable_3'
p1301
aS'->'
p1302
aS'variable_143'
p1303
ag13
aS'variable_3'
p1304
aS'->'
p1305
aS'variable_144'
p1306
ag17
aS'variable_3'
p1307
aS'->'
p1308
aS'variable_145'
p1309
ag17
aS'variable_5'
p1310
ag1155
aS'variable_3'
p1311
aS'->'
p1312
aS'variable_45'
p1313
ag29
aS'variable_3'
p1314
aS'->'
p1315
aS'variable_146'
p1316
ag17
aS'variable_3'
p1317
aS'->'
p1318
aS'variable_147'
p1319
ag17
ag6
aS'variable_5'
p1320
aS'/'
p1321
aS'variable_3'
p1322
aS'->'
p1323
aS'variable_45'
p1324
ag13
aS'<<'
p1325
aS'variable_142'
p1326
ag29
aS'if'
p1327
ag6
aS'variable_3'
p1328
aS'->'
p1329
aS'variable_119'
p1330
aS'=='
p1331
aS'variable_131'
p1332
ag13
aS'variable_3'
p1333
aS'->'
p1334
aS'variable_146'
p1335
ag17
aS'variable_3'
p1336
aS'->'
p1337
aS'variable_147'
p1338
ag17
aS'variable_3'
p1339
aS'->'
p1340
aS'variable_147'
p1341
ag982
ag310
ag29
aS'assert'
p1342
ag6
aS'variable_3'
p1343
aS'->'
p1344
aS'variable_147'
p1345
ag309
aS'variable_3'
p1346
aS'->'
p1347
aS'variable_47'
p1348
ag13
ag29
aa(lp1349
S'static'
p1350
aS'int'
p1351
aS'func_0'
p1352
ag6
aS'variable_0'
p1353
ag8
aS'variable_1'
p1354
ag10
aS'variable_0'
p1355
ag8
aS'variable_2'
p1356
ag13
aS'MpegEncContext'
p1357
ag8
aS'const'
p1358
aS'variable_3'
p1359
ag17
ag18
aS'variable_1'
p1360
aS'->'
p1361
aS'MpegEncContext'
p1362
ag8
aS'const'
p1363
aS'variable_4'
p1364
ag17
ag18
aS'variable_2'
p1365
aS'->'
p1366
aS'unsigned'
p1367
aS'int'
p1368
aS'variable_5'
p1369
ag29
aS'unsigned'
p1370
aS'int'
p1371
aS'variable_6'
p1372
ag29
aS'unsigned'
p1373
aS'int'
p1374
aS'variable_7'
p1375
ag10
aS'variable_8'
p1376
ag10
aS'variable_9'
p1377
ag10
aS'variable_10'
p1378
ag29
aS'int'
p1379
aS'variable_11'
p1380
ag10
aS'variable_12'
p1381
ag29
aS'int'
p1382
aS'variable_13'
p1383
ag29
aS'if'
p1384
ag6
ag6
aS'variable_3'
p1385
aS'->'
p1386
aS'variable_14'
p1387
aS'->'
p1388
aS'variable_15'
p1389
ag18
aS'variable_16'
p1390
ag13
aS'&&'
p1391
ag52
aS'variable_1'
p1392
aS'->'
p1393
aS'variable_17'
p1394
aS'&&'
p1395
ag52
aS'variable_1'
p1396
aS'->'
p1397
aS'variable_18'
p1398
ag13
aS'variable_3'
p1399
aS'->'
p1400
aS'variable_19'
p1401
ag63
aS'variable_20'
p1402
ag17
aS'variable_3'
p1403
aS'->'
p1404
aS'variable_21'
p1405
ag63
aS'variable_22'
p1406
ag29
aS'variable_3'
p1407
aS'->'
p1408
aS'variable_19'
p1409
ag63
aS'variable_23'
p1410
ag17
aS'variable_3'
p1411
aS'->'
p1412
aS'variable_21'
p1413
ag63
aS'variable_24'
p1414
ag29
aS'variable_5'
p1415
ag17
aS'func_1'
p1416
ag6
ag18
aS'variable_3'
p1417
aS'->'
p1418
aS'variable_25'
p1419
ag13
ag29
aS'if'
p1420
ag6
aS'variable_5'
p1421
aS'=='
p1422
ag85
ag13
aS'variable_2'
p1423
aS'->'
p1424
aS'variable_26'
p1425
ag17
ag85
ag29
aS'if'
p1426
ag6
ag52
aS'variable_4'
p1427
aS'->'
p1428
aS'variable_27'
p1429
ag13
aS'variable_3'
p1430
aS'->'
p1431
aS'variable_28'
p1432
ag17
aS'NULL'
p1433
ag29
aS'variable_7'
p1434
ag17
aS'func_2'
p1435
ag6
ag18
aS'variable_3'
p1436
aS'->'
p1437
aS'variable_25'
p1438
ag13
ag29
aS'if'
p1439
ag6
aS'variable_7'
p1440
ag104
ag105
ag13
aS'if'
p1441
ag6
aS'variable_7'
p1442
ag104
ag108
ag13
aS'variable_7'
p1443
aS'-='
p1444
ag111
ag29
aS'variable_1'
p1445
aS'->'
p1446
aS'variable_29'
p1447
ag17
ag85
ag29
aS'variable_7'
p1448
ag17
aS'variable_30'
p1449
ag117
aS'variable_7'
p1450
ag119
ag29
aS'variable_1'
p1451
aS'->'
p1452
aS'variable_7'
p1453
ag17
aS'variable_7'
p1454
ag29
aS'variable_1'
p1455
aS'->'
p1456
aS'variable_31'
p1457
ag17
aS'variable_7'
p1458
ag18
ag128
ag29
aS'variable_3'
p1459
aS'->'
p1460
aS'variable_32'
p1461
ag17
aS'variable_1'
p1462
aS'->'
p1463
aS'variable_7'
p1464
ag29
aS'variable_6'
p1465
ag17
aS'func_3'
p1466
ag6
ag18
aS'variable_3'
p1467
aS'->'
p1468
aS'variable_25'
p1469
ag13
ag29
aS'if'
p1470
ag6
aS'variable_6'
p1471
ag104
ag17
aS'variable_33'
p1472
ag13
aS'if'
p1473
ag6
ag52
aS'variable_2'
p1474
aS'->'
p1475
aS'variable_34'
p1476
ag117
aS'variable_6'
p1477
ag119
ag13
aS'variable_1'
p1478
aS'->'
p1479
aS'variable_35'
p1480
ag17
ag8
aS'variable_2'
p1481
aS'->'
p1482
aS'variable_34'
p1483
ag117
aS'variable_6'
p1484
ag119
ag29
aS'if'
p1485
ag6
ag52
aS'variable_2'
p1486
aS'->'
p1487
aS'variable_36'
p1488
ag117
aS'variable_1'
p1489
aS'->'
p1490
aS'variable_35'
p1491
ag63
aS'variable_37'
p1492
ag119
ag13
aS'variable_1'
p1493
aS'->'
p1494
aS'variable_38'
p1495
ag17
ag8
aS'variable_2'
p1496
aS'->'
p1497
aS'variable_36'
p1498
ag117
aS'variable_1'
p1499
aS'->'
p1500
aS'variable_35'
p1501
ag63
aS'variable_37'
p1502
ag119
ag29
aS'variable_3'
p1503
aS'->'
p1504
aS'variable_14'
p1505
aS'->'
p1506
aS'variable_39'
p1507
ag17
aS'func_4'
p1508
ag6
ag18
aS'variable_1'
p1509
aS'->'
p1510
aS'variable_38'
p1511
ag13
ag29
aS'variable_3'
p1512
aS'->'
p1513
aS'variable_14'
p1514
aS'->'
p1515
aS'variable_40'
p1516
ag17
aS'variable_1'
p1517
aS'->'
p1518
aS'variable_38'
p1519
ag63
aS'variable_41'
p1520
ag29
aS'variable_3'
p1521
aS'->'
p1522
aS'variable_14'
p1523
aS'->'
p1524
aS'variable_42'
p1525
ag17
aS'variable_1'
p1526
aS'->'
p1527
aS'variable_38'
p1528
ag63
aS'variable_43'
p1529
ag29
aS'variable_13'
p1530
ag17
ag6
aS'variable_3'
p1531
aS'->'
p1532
aS'variable_44'
p1533
aS'&&'
p1534
ag6
aS'16'
p1535
ag8
aS'variable_1'
p1536
aS'->'
p1537
aS'variable_38'
p1538
ag63
aS'variable_45'
p1539
aS'!='
p1540
aS'variable_3'
p1541
aS'->'
p1542
aS'variable_14'
p1543
aS'->'
p1544
aS'variable_46'
p1545
aS'||'
p1546
aS'16'
p1547
ag8
aS'variable_1'
p1548
aS'->'
p1549
aS'variable_38'
p1550
ag63
aS'variable_47'
p1551
ag8
ag6
ag222
ag223
aS'variable_1'
p1552
aS'->'
p1553
aS'variable_38'
p1554
ag63
aS'variable_48'
p1555
ag13
aS'!='
p1556
aS'variable_3'
p1557
aS'->'
p1558
aS'variable_14'
p1559
aS'->'
p1560
aS'variable_49'
p1561
aS'||'
p1562
aS'variable_3'
p1563
aS'->'
p1564
aS'variable_14'
p1565
aS'->'
p1566
aS'variable_50'
p1567
aS'!='
p1568
aS'variable_1'
p1569
aS'->'
p1570
aS'variable_38'
p1571
ag63
aS'variable_51'
p1572
aS'||'
p1573
aS'variable_1'
p1574
aS'->'
p1575
aS'variable_52'
p1576
aS'!='
p1577
aS'variable_1'
p1578
aS'->'
p1579
aS'variable_38'
p1580
ag63
aS'variable_53'
p1581
aS'||'
p1582
aS'func_5'
p1583
ag6
aS'variable_1'
p1584
aS'->'
p1585
aS'variable_38'
p1586
ag63
aS'variable_54'
p1587
ag10
aS'variable_3'
p1588
aS'->'
p1589
aS'variable_14'
p1590
aS'->'
p1591
aS'variable_55'
p1592
ag13
ag13
ag13
ag29
aS'if'
p1593
ag6
aS'variable_13'
p1594
aS'&&'
p1595
ag6
aS'variable_1'
p1596
aS'!='
p1597
aS'variable_2'
p1598
aS'||'
p1599
ag6
aS'variable_3'
p1600
aS'->'
p1601
aS'variable_14'
p1602
aS'->'
p1603
aS'variable_56'
p1604
ag18
aS'variable_57'
p1605
ag13
ag13
ag13
aS'variable_3'
p1606
aS'->'
p1607
aS'variable_45'
p1608
ag17
aS'variable_1'
p1609
aS'->'
p1610
aS'variable_38'
p1611
ag63
aS'variable_45'
p1612
ag29
aS'variable_3'
p1613
aS'->'
p1614
aS'variable_47'
p1615
ag17
aS'variable_1'
p1616
aS'->'
p1617
aS'variable_38'
p1618
ag63
aS'variable_47'
p1619
ag8
ag6
ag222
ag223
aS'variable_1'
p1620
aS'->'
p1621
aS'variable_38'
p1622
ag63
aS'variable_48'
p1623
ag13
ag29
aS'variable_1'
p1624
aS'->'
p1625
aS'variable_58'
p1626
ag17
aS'variable_3'
p1627
aS'->'
p1628
aS'variable_45'
p1629
ag8
ag108
ag29
aS'variable_3'
p1630
aS'->'
p1631
aS'variable_59'
p1632
ag17
aS'variable_1'
p1633
aS'->'
p1634
aS'variable_38'
p1635
ag63
aS'variable_53'
p1636
ag309
ag17
ag310
ag29
aS'variable_3'
p1637
aS'->'
p1638
aS'variable_60'
p1639
ag17
aS'16'
p1640
ag8
aS'variable_3'
p1641
aS'->'
p1642
aS'variable_45'
p1643
ag29
aS'variable_3'
p1644
aS'->'
p1645
aS'variable_61'
p1646
ag17
aS'16'
p1647
ag8
aS'variable_3'
p1648
aS'->'
p1649
aS'variable_47'
p1650
ag29
aS'if'
p1651
ag6
aS'variable_13'
p1652
ag13
aS'variable_1'
p1653
aS'->'
p1654
aS'variable_62'
p1655
ag17
ag85
ag29
aS'variable_1'
p1656
aS'->'
p1657
aS'variable_26'
p1658
ag17
ag85
ag29
aS'if'
p1659
ag6
ag52
aS'variable_3'
p1660
aS'->'
p1661
aS'variable_44'
p1662
ag13
aS'if'
p1663
ag6
aS'variable_1'
p1664
aS'!='
p1665
aS'variable_2'
p1666
ag13
aS'if'
p1667
ag6
aS'func_6'
p1668
ag6
aS'variable_3'
p1669
aS'->'
p1670
aS'variable_14'
p1671
aS'->'
p1672
aS'variable_60'
p1673
ag10
aS'16'
p1674
ag13
aS'=='
p1675
aS'variable_3'
p1676
aS'->'
p1677
aS'variable_60'
p1678
aS'&&'
p1679
aS'func_7'
p1680
ag6
aS'variable_3'
p1681
aS'->'
p1682
aS'variable_14'
p1683
aS'->'
p1684
aS'variable_61'
p1685
ag10
aS'16'
p1686
ag8
ag6
ag222
ag223
aS'variable_1'
p1687
aS'->'
p1688
aS'variable_38'
p1689
ag63
aS'variable_48'
p1690
ag13
ag13
aS'=='
p1691
aS'variable_3'
p1692
aS'->'
p1693
aS'variable_61'
p1694
aS'&&'
p1695
ag52
aS'variable_1'
p1696
aS'->'
p1697
aS'variable_38'
p1698
ag63
aS'variable_63'
p1699
aS'&&'
p1700
ag52
aS'variable_1'
p1701
aS'->'
p1702
aS'variable_38'
p1703
ag63
aS'variable_64'
p1704
aS'&&'
p1705
ag6
aS'variable_3'
p1706
aS'->'
p1707
aS'variable_14'
p1708
aS'->'
p1709
aS'variable_60'
p1710
aS'!='
p1711
aS'variable_3'
p1712
aS'->'
p1713
aS'variable_60'
p1714
aS'||'
p1715
aS'variable_3'
p1716
aS'->'
p1717
aS'variable_14'
p1718
aS'->'
p1719
aS'variable_61'
p1720
aS'&&'
p1721
aS'variable_3'
p1722
aS'->'
p1723
aS'variable_61'
p1724
ag13
ag13
aS'variable_3'
p1725
aS'->'
p1726
aS'variable_14'
p1727
aS'->'
p1728
aS'variable_60'
p1729
aS'-='
p1730
ag6
ag222
aS'>>'
p1731
aS'variable_65'
p1732
ag13
ag8
aS'func_8'
p1733
ag6
aS'variable_1'
p1734
aS'->'
p1735
aS'variable_38'
p1736
ag63
aS'variable_63'
p1737
ag10
ag6
ag412
aS'<<'
p1738
aS'variable_65'
p1739
ag13
ag223
ag310
ag13
ag29
aS'variable_3'
p1740
aS'->'
p1741
aS'variable_14'
p1742
aS'->'
p1743
aS'variable_61'
p1744
aS'-='
p1745
ag6
ag310
aS'<<'
p1746
aS'variable_3'
p1747
aS'->'
p1748
aS'variable_59'
p1749
ag13
ag8
aS'func_9'
p1750
ag6
aS'variable_1'
p1751
aS'->'
p1752
aS'variable_38'
p1753
ag63
aS'variable_64'
p1754
ag10
ag6
aS'16'
p1755
aS'>>'
p1756
aS'variable_3'
p1757
aS'->'
p1758
aS'variable_59'
p1759
ag13
ag223
ag310
ag13
ag8
ag6
ag222
ag223
aS'variable_1'
p1760
aS'->'
p1761
aS'variable_38'
p1762
ag63
aS'variable_48'
p1763
ag13
ag29
aS'variable_3'
p1764
aS'->'
p1765
aS'variable_14'
p1766
aS'->'
p1767
aS'variable_55'
p1768
ag17
aS'variable_1'
p1769
aS'->'
p1770
aS'variable_38'
p1771
ag63
aS'variable_54'
p1772
ag29
aS'if'
p1773
ag6
aS'variable_3'
p1774
aS'->'
p1775
aS'variable_14'
p1776
aS'->'
p1777
aS'variable_66'
p1778
aS'->'
p1779
aS'variable_67'
p1780
ag18
aS'variable_68'
p1781
aS'&&'
p1782
ag6
aS'variable_1'
p1783
aS'->'
p1784
aS'variable_38'
p1785
ag63
aS'variable_51'
p1786
aS'!='
p1787
ag412
aS'||'
p1788
aS'variable_1'
p1789
aS'->'
p1790
aS'variable_38'
p1791
ag63
aS'variable_53'
p1792
ag104
ag310
ag13
ag13
aS'if'
p1793
ag6
aS'variable_3'
p1794
aS'->'
p1795
aS'variable_14'
p1796
aS'->'
p1797
aS'variable_50'
p1798
aS'!='
p1799
aS'variable_1'
p1800
aS'->'
p1801
aS'variable_38'
p1802
ag63
aS'variable_51'
p1803
aS'||'
p1804
aS'variable_1'
p1805
aS'->'
p1806
aS'variable_52'
p1807
aS'!='
p1808
aS'variable_1'
p1809
aS'->'
p1810
aS'variable_38'
p1811
ag63
aS'variable_53'
p1812
ag13
aS'if'
p1813
ag6
aS'variable_1'
p1814
aS'->'
p1815
aS'variable_38'
p1816
ag63
aS'variable_51'
p1817
ag104
ag17
ag412
aS'&&'
p1818
aS'variable_1'
p1819
aS'->'
p1820
aS'variable_38'
p1821
ag63
aS'variable_51'
p1822
ag309
ag17
aS'14'
p1823
aS'&&'
p1824
aS'variable_1'
p1825
aS'->'
p1826
aS'variable_38'
p1827
ag63
aS'variable_51'
p1828
aS'!='
p1829
aS'11'
p1830
aS'&&'
p1831
aS'variable_1'
p1832
aS'->'
p1833
aS'variable_38'
p1834
ag63
aS'variable_51'
p1835
aS'!='
p1836
aS'13'
p1837
aS'&&'
p1838
ag6
aS'variable_1'
p1839
aS'->'
p1840
aS'variable_38'
p1841
ag63
aS'variable_51'
p1842
aS'!='
p1843
ag105
aS'||'
p1844
ag52
aS'variable_69'
p1845
ag13
ag13
aS'variable_3'
p1846
aS'->'
p1847
aS'variable_14'
p1848
aS'->'
p1849
aS'variable_50'
p1850
ag17
aS'variable_1'
p1851
aS'->'
p1852
aS'variable_38'
p1853
ag63
aS'variable_51'
p1854
ag29
aS'variable_1'
p1855
aS'->'
p1856
aS'variable_52'
p1857
ag17
aS'variable_1'
p1858
aS'->'
p1859
aS'variable_38'
p1860
ag63
aS'variable_53'
p1861
ag29
aS'variable_1'
p1862
aS'->'
p1863
aS'variable_18'
p1864
ag17
aS'variable_1'
p1865
aS'->'
p1866
aS'variable_38'
p1867
ag63
aS'variable_51'
p1868
ag104
ag412
ag29
aS'variable_3'
p1869
aS'->'
p1870
aS'variable_21'
p1871
ag63
aS'variable_70'
p1872
ag17
aS'variable_1'
p1873
aS'->'
p1874
aS'variable_38'
p1875
ag63
aS'variable_51'
p1876
ag104
ag412
ag552
aS'32'
p1877
ag554
aS'16'
p1878
ag29
aS'if'
p1879
ag6
aS'variable_1'
p1880
aS'->'
p1881
aS'variable_38'
p1882
ag63
aS'variable_71'
p1883
ag13
aS'variable_3'
p1884
aS'->'
p1885
aS'variable_14'
p1886
aS'->'
p1887
aS'variable_72'
p1888
ag17
aS'variable_1'
p1889
aS'->'
p1890
aS'variable_38'
p1891
ag63
aS'variable_73'
p1892
ag104
ag85
ag552
aS'variable_74'
p1893
ag554
aS'variable_75'
p1894
ag29
aS'if'
p1895
ag6
aS'variable_1'
p1896
aS'->'
p1897
aS'variable_38'
p1898
ag63
aS'variable_76'
p1899
ag13
aS'variable_3'
p1900
aS'->'
p1901
aS'variable_14'
p1902
aS'->'
p1903
aS'variable_77'
p1904
ag17
aS'variable_1'
p1905
aS'->'
p1906
aS'variable_38'
p1907
ag63
aS'variable_77'
p1908
ag29
aS'variable_3'
p1909
aS'->'
p1910
aS'variable_14'
p1911
aS'->'
p1912
aS'variable_78'
p1913
ag17
aS'variable_1'
p1914
aS'->'
p1915
aS'variable_38'
p1916
ag63
aS'variable_78'
p1917
ag29
aS'variable_3'
p1918
aS'->'
p1919
aS'variable_14'
p1920
aS'->'
p1921
aS'variable_79'
p1922
ag17
aS'variable_1'
p1923
aS'->'
p1924
aS'variable_38'
p1925
ag63
aS'variable_79'
p1926
ag29
aS'switch'
p1927
ag6
aS'variable_1'
p1928
aS'->'
p1929
aS'variable_38'
p1930
ag63
aS'variable_51'
p1931
ag13
aS'if'
p1932
ag6
aS'variable_65'
p1933
ag13
aS'if'
p1934
ag6
aS'variable_3'
p1935
aS'->'
p1936
aS'variable_14'
p1937
aS'->'
p1938
aS'variable_79'
p1939
aS'=='
p1940
aS'variable_80'
p1941
ag13
aS'variable_3'
p1942
aS'->'
p1943
aS'variable_14'
p1944
aS'->'
p1945
aS'variable_81'
p1946
ag17
aS'variable_82'
p1947
ag29
aS'variable_3'
p1948
aS'->'
p1949
aS'variable_14'
p1950
aS'->'
p1951
aS'variable_81'
p1952
ag17
aS'variable_83'
p1953
ag29
aS'if'
p1954
ag6
aS'variable_69'
p1955
ag13
aS'variable_3'
p1956
aS'->'
p1957
aS'variable_14'
p1958
aS'->'
p1959
aS'variable_81'
p1960
ag17
aS'variable_84'
p1961
ag29
aS'variable_3'
p1962
aS'->'
p1963
aS'variable_14'
p1964
aS'->'
p1965
aS'variable_81'
p1966
ag17
aS'variable_85'
p1967
ag29
aS'if'
p1968
ag6
aS'variable_65'
p1969
ag13
aS'if'
p1970
ag6
aS'variable_3'
p1971
aS'->'
p1972
aS'variable_14'
p1973
aS'->'
p1974
aS'variable_79'
p1975
aS'=='
p1976
aS'variable_80'
p1977
ag13
aS'variable_3'
p1978
aS'->'
p1979
aS'variable_14'
p1980
aS'->'
p1981
aS'variable_81'
p1982
ag17
aS'variable_86'
p1983
ag29
aS'variable_3'
p1984
aS'->'
p1985
aS'variable_14'
p1986
aS'->'
p1987
aS'variable_81'
p1988
ag17
aS'variable_87'
p1989
ag29
aS'if'
p1990
ag6
aS'variable_69'
p1991
ag13
aS'variable_3'
p1992
aS'->'
p1993
aS'variable_14'
p1994
aS'->'
p1995
aS'variable_81'
p1996
ag17
aS'variable_88'
p1997
ag29
aS'variable_3'
p1998
aS'->'
p1999
aS'variable_14'
p2000
aS'->'
p2001
aS'variable_81'
p2002
ag17
aS'variable_89'
p2003
ag29
aS'if'
p2004
ag6
aS'variable_65'
p2005
ag13
aS'if'
p2006
ag6
aS'variable_3'
p2007
aS'->'
p2008
aS'variable_14'
p2009
aS'->'
p2010
aS'variable_79'
p2011
aS'=='
p2012
aS'variable_80'
p2013
ag13
aS'variable_3'
p2014
aS'->'
p2015
aS'variable_14'
p2016
aS'->'
p2017
aS'variable_81'
p2018
ag17
aS'variable_90'
p2019
ag29
aS'variable_3'
p2020
aS'->'
p2021
aS'variable_14'
p2022
aS'->'
p2023
aS'variable_81'
p2024
ag17
aS'variable_91'
p2025
ag29
aS'if'
p2026
ag6
aS'variable_69'
p2027
ag13
aS'variable_3'
p2028
aS'->'
p2029
aS'variable_14'
p2030
aS'->'
p2031
aS'variable_81'
p2032
ag17
aS'variable_92'
p2033
ag29
aS'variable_3'
p2034
aS'->'
p2035
aS'variable_14'
p2036
aS'->'
p2037
aS'variable_81'
p2038
ag17
aS'variable_93'
p2039
ag29
aS'if'
p2040
ag6
aS'variable_65'
p2041
ag13
aS'if'
p2042
ag6
aS'variable_3'
p2043
aS'->'
p2044
aS'variable_14'
p2045
aS'->'
p2046
aS'variable_79'
p2047
aS'=='
p2048
aS'variable_80'
p2049
ag13
aS'variable_3'
p2050
aS'->'
p2051
aS'variable_14'
p2052
aS'->'
p2053
aS'variable_81'
p2054
ag17
aS'variable_94'
p2055
ag29
aS'variable_3'
p2056
aS'->'
p2057
aS'variable_14'
p2058
aS'->'
p2059
aS'variable_81'
p2060
ag17
aS'variable_95'
p2061
ag29
aS'if'
p2062
ag6
aS'variable_69'
p2063
ag13
aS'variable_3'
p2064
aS'->'
p2065
aS'variable_14'
p2066
aS'->'
p2067
aS'variable_81'
p2068
ag17
aS'variable_96'
p2069
ag29
aS'variable_3'
p2070
aS'->'
p2071
aS'variable_14'
p2072
aS'->'
p2073
aS'variable_81'
p2074
ag17
aS'variable_97'
p2075
ag29
aS'if'
p2076
ag6
aS'variable_65'
p2077
ag13
aS'variable_3'
p2078
aS'->'
p2079
aS'variable_14'
p2080
aS'->'
p2081
aS'variable_81'
p2082
ag17
aS'variable_3'
p2083
aS'->'
p2084
aS'variable_14'
p2085
aS'->'
p2086
aS'variable_72'
p2087
aS'=='
p2088
aS'variable_74'
p2089
ag552
aS'variable_98'
p2090
ag554
aS'variable_99'
p2091
ag29
aS'if'
p2092
ag6
aS'variable_3'
p2093
aS'->'
p2094
aS'variable_14'
p2095
aS'->'
p2096
aS'variable_79'
p2097
aS'=='
p2098
aS'variable_80'
p2099
ag13
aS'variable_3'
p2100
aS'->'
p2101
aS'variable_14'
p2102
aS'->'
p2103
aS'variable_81'
p2104
ag17
aS'variable_100'
p2105
ag29
aS'if'
p2106
ag6
aS'variable_69'
p2107
ag13
aS'variable_3'
p2108
aS'->'
p2109
aS'variable_14'
p2110
aS'->'
p2111
aS'variable_81'
p2112
ag17
aS'variable_3'
p2113
aS'->'
p2114
aS'variable_14'
p2115
aS'->'
p2116
aS'variable_72'
p2117
aS'=='
p2118
aS'variable_74'
p2119
ag552
aS'variable_101'
p2120
ag554
aS'variable_102'
p2121
ag29
aS'variable_3'
p2122
aS'->'
p2123
aS'variable_14'
p2124
aS'->'
p2125
aS'variable_81'
p2126
ag17
aS'variable_3'
p2127
aS'->'
p2128
aS'variable_14'
p2129
aS'->'
p2130
aS'func_10'
p2131
ag6
aS'variable_3'
p2132
aS'->'
p2133
aS'variable_14'
p2134
ag10
aS'variable_3'
p2135
aS'->'
p2136
aS'variable_14'
p2137
aS'->'
p2138
aS'variable_66'
p2139
aS'->'
p2140
aS'variable_103'
p2141
ag552
aS'variable_3'
p2142
aS'->'
p2143
aS'variable_14'
p2144
aS'->'
p2145
aS'variable_66'
p2146
aS'->'
p2147
aS'variable_103'
p2148
ag554
aS'variable_3'
p2149
aS'->'
p2150
aS'variable_14'
p2151
aS'->'
p2152
aS'variable_72'
p2153
aS'=='
p2154
aS'variable_74'
p2155
ag552
aS'variable_104'
p2156
ag554
aS'variable_105'
p2157
ag13
ag29
aS'variable_3'
p2158
aS'->'
p2159
aS'variable_14'
p2160
aS'->'
p2161
aS'variable_106'
p2162
ag17
aS'func_11'
p2163
ag6
aS'variable_3'
p2164
aS'->'
p2165
aS'variable_14'
p2166
aS'->'
p2167
aS'variable_66'
p2168
aS'->'
p2169
aS'variable_107'
p2170
ag10
aS'variable_3'
p2171
aS'->'
p2172
aS'variable_14'
p2173
aS'->'
p2174
aS'variable_81'
p2175
ag13
ag29
aS'if'
p2176
ag6
aS'func_12'
p2177
ag6
aS'variable_3'
p2178
ag13
ag309
ag85
ag13
aS'variable_3'
p2179
aS'->'
p2180
aS'variable_27'
p2181
ag17
ag85
ag29
aS'variable_1'
p2182
aS'->'
p2183
aS'variable_108'
p2184
ag17
ag310
ag29
aS'if'
p2185
ag6
aS'func_13'
p2186
ag6
aS'variable_1'
p2187
ag13
ag309
ag85
ag13
aS'if'
p2188
ag6
ag52
aS'variable_109'
p2189
aS'||'
p2190
ag52
ag6
aS'variable_3'
p2191
aS'->'
p2192
aS'variable_14'
p2193
aS'->'
p2194
aS'variable_56'
p2195
ag18
aS'variable_110'
p2196
ag13
ag13
aS'if'
p2197
ag6
aS'func_14'
p2198
ag6
aS'variable_1'
p2199
ag13
ag309
ag85
ag13
aS'for'
p2200
ag6
aS'variable_9'
p2201
ag17
ag310
ag29
aS'variable_9'
p2202
ag309
aS'variable_3'
p2203
aS'->'
p2204
aS'variable_111'
p2205
ag29
aS'variable_9'
p2206
aS'++'
p2207
ag13
aS'variable_0'
p2208
ag8
aS'variable_112'
p2209
ag29
aS'variable_112'
p2210
ag17
aS'variable_1'
p2211
aS'->'
p2212
aS'variable_113'
p2213
ag117
aS'variable_9'
p2214
ag119
ag17
aS'func_15'
p2215
ag6
aS'sizeof'
p2216
ag6
aS'variable_0'
p2217
ag13
ag13
ag29
aS'for'
p2218
ag6
aS'variable_9'
p2219
ag17
ag85
ag29
aS'variable_9'
p2220
ag309
aS'variable_3'
p2221
aS'->'
p2222
aS'variable_111'
p2223
ag29
aS'variable_9'
p2224
aS'++'
p2225
ag13
aS'if'
p2226
ag6
aS'func_16'
p2227
ag6
aS'variable_1'
p2228
aS'->'
p2229
aS'variable_113'
p2230
ag117
aS'variable_9'
p2231
ag119
ag13
ag309
ag85
ag13
aS'if'
p2232
ag6
aS'variable_1'
p2233
aS'=='
p2234
aS'variable_2'
p2235
aS'&&'
p2236
aS'variable_1'
p2237
aS'->'
p2238
aS'variable_114'
p2239
aS'!='
p2240
aS'variable_6'
p2241
ag13
aS'variable_1'
p2242
aS'->'
p2243
aS'variable_114'
p2244
ag17
aS'variable_6'
p2245
ag29
aS'variable_1'
p2246
aS'->'
p2247
aS'variable_115'
p2248
ag17
aS'func_17'
p2249
ag6
ag18
aS'variable_3'
p2250
aS'->'
p2251
aS'variable_25'
p2252
ag10
aS'variable_1'
p2253
aS'->'
p2254
aS'variable_38'
p2255
ag63
aS'variable_116'
p2256
ag13
ag29
aS'variable_1'
p2257
aS'->'
p2258
aS'variable_117'
p2259
ag17
ag85
ag29
aS'variable_1'
p2260
aS'->'
p2261
aS'variable_118'
p2262
ag17
ag85
ag29
aS'variable_11'
p2263
ag17
aS'variable_4'
p2264
aS'->'
p2265
aS'variable_119'
p2266
ag29
aS'variable_12'
p2267
ag17
aS'variable_3'
p2268
aS'->'
p2269
aS'variable_120'
p2270
ag29
aS'variable_3'
p2271
aS'->'
p2272
aS'variable_120'
p2273
ag17
aS'variable_1'
p2274
aS'->'
p2275
aS'variable_17'
p2276
aS'=='
p2277
ag85
ag29
aS'if'
p2278
ag6
aS'variable_1'
p2279
aS'->'
p2280
aS'variable_38'
p2281
ag63
aS'variable_48'
p2282
ag13
aS'variable_3'
p2283
aS'->'
p2284
aS'variable_119'
p2285
ag17
aS'variable_121'
p2286
ag29
aS'if'
p2287
ag6
ag52
aS'variable_1'
p2288
aS'->'
p2289
aS'variable_38'
p2290
ag63
aS'variable_122'
p2291
aS'&&'
p2292
aS'variable_7'
p2293
aS'=='
p2294
aS'variable_123'
p2295
ag13
aS'if'
p2296
ag6
aS'func_18'
p2297
ag6
ag18
aS'variable_3'
p2298
aS'->'
p2299
aS'variable_25'
p2300
ag13
ag13
aS'variable_3'
p2301
aS'->'
p2302
aS'variable_119'
p2303
ag17
aS'variable_124'
p2304
ag982
aS'func_19'
p2305
ag6
ag18
aS'variable_3'
p2306
aS'->'
p2307
aS'variable_25'
p2308
ag13
ag29
aS'variable_3'
p2309
aS'->'
p2310
aS'variable_119'
p2311
ag17
aS'variable_121'
p2312
ag29
aS'variable_1'
p2313
aS'->'
p2314
aS'variable_118'
p2315
ag17
aS'variable_1'
p2316
aS'->'
p2317
aS'variable_38'
p2318
ag63
aS'variable_125'
p2319
ag29
aS'variable_1'
p2320
aS'->'
p2321
aS'variable_126'
p2322
ag17
aS'variable_3'
p2323
aS'->'
p2324
aS'variable_119'
p2325
aS'!='
p2326
aS'variable_121'
p2327
ag29
aS'if'
p2328
ag6
aS'variable_2'
p2329
aS'->'
p2330
aS'variable_26'
p2331
aS'!='
p2332
ag85
ag13
aS'if'
p2333
ag6
aS'variable_11'
p2334
aS'!='
p2335
aS'variable_3'
p2336
aS'->'
p2337
aS'variable_119'
p2338
aS'||'
p2339
aS'variable_12'
p2340
aS'!='
p2341
aS'variable_3'
p2342
aS'->'
p2343
aS'variable_120'
p2344
ag13
aS'if'
p2345
ag6
aS'variable_1'
p2346
aS'->'
p2347
aS'variable_115'
p2348
aS'!='
p2349
aS'variable_1'
p2350
aS'->'
p2351
aS'variable_127'
p2352
aS'&&'
p2353
aS'variable_1'
p2354
aS'->'
p2355
aS'variable_127'
p2356
ag104
ag17
ag85
ag13
aS'int'
p2357
aS'variable_128'
p2358
ag17
aS'variable_1'
p2359
aS'->'
p2360
aS'variable_127'
p2361
ag29
aS'int'
p2362
aS'variable_129'
p2363
ag17
ag310
aS'<<'
p2364
aS'variable_1'
p2365
aS'->'
p2366
aS'variable_38'
p2367
ag63
aS'variable_116'
p2368
ag29
aS'if'
p2369
ag6
aS'variable_128'
p2370
ag104
aS'variable_1'
p2371
aS'->'
p2372
aS'variable_115'
p2373
ag13
aS'variable_128'
p2374
aS'-='
p2375
aS'variable_129'
p2376
ag29
aS'if'
p2377
ag6
ag6
aS'variable_1'
p2378
aS'->'
p2379
aS'variable_115'
p2380
ag223
aS'variable_128'
p2381
ag13
ag104
aS'variable_1'
p2382
aS'->'
p2383
aS'variable_38'
p2384
ag63
aS'variable_43'
p2385
ag13
aS'variable_128'
p2386
ag17
ag6
aS'variable_1'
p2387
aS'->'
p2388
aS'variable_115'
p2389
ag223
aS'variable_1'
p2390
aS'->'
p2391
aS'variable_38'
p2392
ag63
aS'variable_43'
p2393
ag13
ag223
ag310
ag29
aS'if'
p2394
ag6
aS'variable_128'
p2395
ag309
ag85
ag13
aS'variable_128'
p2396
aS'+='
p2397
aS'variable_129'
p2398
ag29
aS'variable_1'
p2399
aS'->'
p2400
aS'variable_127'
p2401
ag17
aS'variable_128'
p2402
ag29
aS'if'
p2403
ag6
aS'variable_4'
p2404
aS'->'
p2405
aS'variable_27'
p2406
ag13
aS'if'
p2407
ag6
ag52
aS'variable_130'
p2408
aS'||'
p2409
aS'variable_3'
p2410
aS'->'
p2411
aS'variable_119'
p2412
aS'=='
p2413
aS'variable_11'
p2414
ag13
aS'if'
p2415
ag6
aS'variable_4'
p2416
aS'->'
p2417
aS'variable_28'
p2418
aS'->'
p2419
aS'variable_115'
p2420
aS'!='
p2421
aS'variable_1'
p2422
aS'->'
p2423
aS'variable_115'
p2424
ag13
aS'if'
p2425
ag6
ag52
ag6
ag6
aS'variable_11'
p2426
aS'=='
p2427
aS'variable_124'
p2428
aS'&&'
p2429
aS'variable_3'
p2430
aS'->'
p2431
aS'variable_119'
p2432
aS'=='
p2433
aS'variable_131'
p2434
ag13
aS'||'
p2435
ag6
aS'variable_11'
p2436
aS'=='
p2437
aS'variable_131'
p2438
aS'&&'
p2439
aS'variable_3'
p2440
aS'->'
p2441
aS'variable_119'
p2442
aS'=='
p2443
aS'variable_124'
p2444
ag13
ag13
ag13
aS'if'
p2445
ag6
aS'variable_12'
p2446
aS'!='
p2447
aS'variable_3'
p2448
aS'->'
p2449
aS'variable_120'
p2450
ag13
aS'variable_4'
p2451
aS'->'
p2452
aS'variable_28'
p2453
aS'->'
p2454
aS'variable_132'
p2455
ag17
aS'variable_4'
p2456
ag29
aS'while'
p2457
ag6
aS'variable_1'
p2458
aS'->'
p2459
aS'variable_115'
p2460
aS'!='
p2461
aS'variable_1'
p2462
aS'->'
p2463
aS'variable_127'
p2464
aS'&&'
p2465
aS'variable_1'
p2466
aS'->'
p2467
aS'variable_127'
p2468
ag104
ag17
ag85
aS'&&'
p2469
aS'variable_1'
p2470
aS'->'
p2471
aS'variable_115'
p2472
aS'!='
p2473
ag6
aS'variable_1'
p2474
aS'->'
p2475
aS'variable_127'
p2476
ag982
ag310
ag13
ag1155
ag6
ag310
aS'<<'
p2477
aS'variable_1'
p2478
aS'->'
p2479
aS'variable_38'
p2480
ag63
aS'variable_116'
p2481
ag13
ag13
aS'variable_133'
p2482
ag8
aS'variable_134'
p2483
ag17
aS'variable_1'
p2484
aS'->'
p2485
aS'variable_135'
p2486
ag552
aS'variable_1'
p2487
aS'->'
p2488
aS'variable_136'
p2489
ag117
ag85
ag119
ag554
aS'NULL'
p2490
ag29
aS'if'
p2491
ag6
aS'func_20'
p2492
ag6
aS'variable_1'
p2493
ag13
ag309
ag85
ag13
aS'variable_1'
p2494
aS'->'
p2495
aS'variable_127'
p2496
aS'++'
p2497
ag29
aS'variable_1'
p2498
aS'->'
p2499
aS'variable_127'
p2500
ag1155
ag17
ag310
aS'<<'
p2501
aS'variable_1'
p2502
aS'->'
p2503
aS'variable_38'
p2504
ag63
aS'variable_116'
p2505
ag29
aS'variable_3'
p2506
aS'->'
p2507
aS'variable_28'
p2508
aS'->'
p2509
aS'variable_115'
p2510
ag17
aS'variable_1'
p2511
aS'->'
p2512
aS'variable_127'
p2513
ag29
aS'if'
p2514
ag6
aS'func_21'
p2515
ag6
aS'variable_1'
p2516
ag10
aS'variable_1'
p2517
aS'->'
p2518
aS'variable_137'
p2519
ag10
aS'variable_1'
p2520
aS'->'
p2521
aS'variable_138'
p2522
ag13
ag309
ag85
aS'&&'
p2523
ag6
aS'variable_3'
p2524
aS'->'
p2525
aS'variable_14'
p2526
aS'->'
p2527
aS'variable_139'
p2528
ag18
aS'variable_140'
p2529
ag13
ag13
aS'if'
p2530
ag6
aS'variable_1'
p2531
aS'->'
p2532
aS'variable_135'
p2533
ag13
aS'if'
p2534
ag6
aS'variable_134'
p2535
ag13
aS'variable_1'
p2536
aS'->'
p2537
aS'variable_136'
p2538
ag117
ag85
ag119
aS'->'
p2539
aS'variable_141'
p2540
ag17
aS'variable_134'
p2541
aS'->'
p2542
aS'variable_141'
p2543
ag982
ag222
ag29
aS'variable_1'
p2544
aS'->'
p2545
aS'variable_136'
p2546
ag117
ag85
ag119
aS'->'
p2547
aS'variable_115'
p2548
ag17
aS'variable_1'
p2549
aS'->'
p2550
aS'variable_127'
p2551
ag29
aS'if'
p2552
ag6
aS'variable_4'
p2553
aS'->'
p2554
aS'variable_27'
p2555
ag13
aS'if'
p2556
ag6
ag52
aS'variable_130'
p2557
aS'||'
p2558
aS'variable_3'
p2559
aS'->'
p2560
aS'variable_119'
p2561
aS'=='
p2562
aS'variable_11'
p2563
ag13
aS'variable_4'
p2564
aS'->'
p2565
aS'variable_28'
p2566
ag17
aS'NULL'
p2567
ag29
aS'variable_4'
p2568
aS'->'
p2569
aS'variable_27'
p2570
ag17
aS'variable_130'
p2571
ag29
aS'if'
p2572
ag6
aS'variable_4'
p2573
aS'->'
p2574
aS'variable_28'
p2575
aS'->'
p2576
aS'variable_115'
p2577
aS'!='
p2578
aS'variable_1'
p2579
aS'->'
p2580
aS'variable_115'
p2581
ag13
aS'variable_4'
p2582
aS'->'
p2583
aS'variable_27'
p2584
ag17
ag310
ag29
aS'variable_4'
p2585
aS'->'
p2586
aS'variable_28'
p2587
ag17
aS'NULL'
p2588
ag29
aS'variable_4'
p2589
aS'->'
p2590
aS'variable_27'
p2591
ag17
ag85
ag29
aS'variable_4'
p2592
aS'->'
p2593
aS'variable_27'
p2594
ag17
aS'variable_130'
p2595
ag29
aS'if'
p2596
ag6
ag52
aS'variable_130'
p2597
aS'||'
p2598
aS'variable_4'
p2599
aS'->'
p2600
aS'variable_27'
p2601
ag13
aS'if'
p2602
ag6
aS'func_22'
p2603
ag6
aS'variable_1'
p2604
ag13
ag309
ag85
ag13
aS'variable_3'
p2605
aS'->'
p2606
aS'variable_28'
p2607
aS'->'
p2608
aS'variable_115'
p2609
ag17
aS'variable_1'
p2610
aS'->'
p2611
aS'variable_115'
p2612
ag29
aS'assert'
p2613
ag6
aS'variable_3'
p2614
aS'->'
p2615
aS'variable_142'
p2616
aS'=='
p2617
aS'variable_3'
p2618
aS'->'
p2619
aS'variable_45'
p2620
ag8
aS'variable_3'
p2621
aS'->'
p2622
aS'variable_47'
p2623
ag13
ag29
aa(lp2624
S'static'
p2625
aS'int'
p2626
aS'func_0'
p2627
ag6
aS'variable_0'
p2628
ag8
aS'variable_1'
p2629
ag10
aS'variable_0'
p2630
ag8
aS'variable_2'
p2631
ag13
aS'MpegEncContext'
p2632
ag8
aS'const'
p2633
aS'variable_3'
p2634
ag17
ag18
aS'variable_1'
p2635
aS'->'
p2636
aS'MpegEncContext'
p2637
ag8
aS'const'
p2638
aS'variable_4'
p2639
ag17
ag18
aS'variable_2'
p2640
aS'->'
p2641
aS'unsigned'
p2642
aS'int'
p2643
aS'variable_5'
p2644
ag29
aS'unsigned'
p2645
aS'int'
p2646
aS'variable_6'
p2647
ag29
aS'unsigned'
p2648
aS'int'
p2649
aS'variable_7'
p2650
ag10
aS'variable_8'
p2651
ag10
aS'variable_9'
p2652
ag10
aS'variable_10'
p2653
ag29
aS'int'
p2654
aS'variable_11'
p2655
ag10
aS'variable_12'
p2656
ag29
aS'int'
p2657
aS'variable_13'
p2658
ag29
aS'if'
p2659
ag6
ag6
aS'variable_3'
p2660
aS'->'
p2661
aS'variable_14'
p2662
aS'->'
p2663
aS'variable_15'
p2664
ag18
aS'variable_16'
p2665
ag13
aS'&&'
p2666
ag52
aS'variable_1'
p2667
aS'->'
p2668
aS'variable_17'
p2669
aS'&&'
p2670
ag52
aS'variable_1'
p2671
aS'->'
p2672
aS'variable_18'
p2673
ag13
aS'variable_3'
p2674
aS'->'
p2675
aS'variable_19'
p2676
ag63
aS'variable_20'
p2677
ag17
aS'variable_3'
p2678
aS'->'
p2679
aS'variable_21'
p2680
ag63
aS'variable_22'
p2681
ag29
aS'variable_3'
p2682
aS'->'
p2683
aS'variable_19'
p2684
ag63
aS'variable_23'
p2685
ag17
aS'variable_3'
p2686
aS'->'
p2687
aS'variable_21'
p2688
ag63
aS'variable_24'
p2689
ag29
aS'variable_5'
p2690
ag17
aS'func_1'
p2691
ag6
ag18
aS'variable_3'
p2692
aS'->'
p2693
aS'variable_25'
p2694
ag13
ag29
aS'if'
p2695
ag6
aS'variable_5'
p2696
aS'=='
p2697
ag85
ag13
aS'variable_2'
p2698
aS'->'
p2699
aS'variable_26'
p2700
ag17
ag85
ag29
aS'if'
p2701
ag6
ag52
aS'variable_4'
p2702
aS'->'
p2703
aS'variable_27'
p2704
ag13
aS'variable_3'
p2705
aS'->'
p2706
aS'variable_28'
p2707
ag17
aS'NULL'
p2708
ag29
aS'variable_7'
p2709
ag17
aS'func_2'
p2710
ag6
ag18
aS'variable_3'
p2711
aS'->'
p2712
aS'variable_25'
p2713
ag13
ag29
aS'if'
p2714
ag6
aS'variable_7'
p2715
ag104
ag105
ag13
aS'if'
p2716
ag6
aS'variable_7'
p2717
ag104
ag108
ag13
aS'variable_7'
p2718
aS'-='
p2719
ag111
ag29
aS'variable_1'
p2720
aS'->'
p2721
aS'variable_29'
p2722
ag17
ag85
ag29
aS'variable_7'
p2723
ag17
aS'variable_30'
p2724
ag117
aS'variable_7'
p2725
ag119
ag29
aS'variable_1'
p2726
aS'->'
p2727
aS'variable_7'
p2728
ag17
aS'variable_7'
p2729
ag29
aS'variable_1'
p2730
aS'->'
p2731
aS'variable_31'
p2732
ag17
aS'variable_7'
p2733
ag18
ag128
ag29
aS'variable_3'
p2734
aS'->'
p2735
aS'variable_32'
p2736
ag17
aS'variable_1'
p2737
aS'->'
p2738
aS'variable_7'
p2739
ag29
aS'variable_6'
p2740
ag17
aS'func_3'
p2741
ag6
ag18
aS'variable_3'
p2742
aS'->'
p2743
aS'variable_25'
p2744
ag13
ag29
aS'if'
p2745
ag6
aS'variable_6'
p2746
ag104
ag17
aS'variable_33'
p2747
ag13
aS'if'
p2748
ag6
ag52
aS'variable_2'
p2749
aS'->'
p2750
aS'variable_34'
p2751
ag117
aS'variable_6'
p2752
ag119
ag13
aS'variable_1'
p2753
aS'->'
p2754
aS'variable_35'
p2755
ag17
ag8
aS'variable_2'
p2756
aS'->'
p2757
aS'variable_34'
p2758
ag117
aS'variable_6'
p2759
ag119
ag29
aS'if'
p2760
ag6
ag52
aS'variable_2'
p2761
aS'->'
p2762
aS'variable_36'
p2763
ag117
aS'variable_1'
p2764
aS'->'
p2765
aS'variable_35'
p2766
ag63
aS'variable_37'
p2767
ag119
ag13
aS'variable_1'
p2768
aS'->'
p2769
aS'variable_38'
p2770
ag17
ag8
aS'variable_2'
p2771
aS'->'
p2772
aS'variable_36'
p2773
ag117
aS'variable_1'
p2774
aS'->'
p2775
aS'variable_35'
p2776
ag63
aS'variable_37'
p2777
ag119
ag29
aS'variable_3'
p2778
aS'->'
p2779
aS'variable_14'
p2780
aS'->'
p2781
aS'variable_39'
p2782
ag17
aS'func_4'
p2783
ag6
ag18
aS'variable_1'
p2784
aS'->'
p2785
aS'variable_38'
p2786
ag13
ag29
aS'variable_3'
p2787
aS'->'
p2788
aS'variable_14'
p2789
aS'->'
p2790
aS'variable_40'
p2791
ag17
aS'variable_1'
p2792
aS'->'
p2793
aS'variable_38'
p2794
ag63
aS'variable_41'
p2795
ag29
aS'variable_3'
p2796
aS'->'
p2797
aS'variable_14'
p2798
aS'->'
p2799
aS'variable_42'
p2800
ag17
aS'variable_1'
p2801
aS'->'
p2802
aS'variable_38'
p2803
ag63
aS'variable_43'
p2804
ag29
aS'variable_13'
p2805
ag17
ag6
aS'variable_3'
p2806
aS'->'
p2807
aS'variable_44'
p2808
aS'&&'
p2809
ag6
aS'16'
p2810
ag8
aS'variable_1'
p2811
aS'->'
p2812
aS'variable_38'
p2813
ag63
aS'variable_45'
p2814
aS'!='
p2815
aS'variable_3'
p2816
aS'->'
p2817
aS'variable_14'
p2818
aS'->'
p2819
aS'variable_46'
p2820
aS'||'
p2821
aS'16'
p2822
ag8
aS'variable_1'
p2823
aS'->'
p2824
aS'variable_38'
p2825
ag63
aS'variable_47'
p2826
ag8
ag6
ag222
ag223
aS'variable_1'
p2827
aS'->'
p2828
aS'variable_38'
p2829
ag63
aS'variable_48'
p2830
ag13
aS'!='
p2831
aS'variable_3'
p2832
aS'->'
p2833
aS'variable_14'
p2834
aS'->'
p2835
aS'variable_49'
p2836
aS'||'
p2837
aS'variable_3'
p2838
aS'->'
p2839
aS'variable_14'
p2840
aS'->'
p2841
aS'variable_50'
p2842
aS'!='
p2843
aS'variable_1'
p2844
aS'->'
p2845
aS'variable_38'
p2846
ag63
aS'variable_51'
p2847
aS'||'
p2848
aS'variable_1'
p2849
aS'->'
p2850
aS'variable_52'
p2851
aS'!='
p2852
aS'variable_1'
p2853
aS'->'
p2854
aS'variable_38'
p2855
ag63
aS'variable_53'
p2856
aS'||'
p2857
aS'func_5'
p2858
ag6
aS'variable_1'
p2859
aS'->'
p2860
aS'variable_38'
p2861
ag63
aS'variable_54'
p2862
ag10
aS'variable_3'
p2863
aS'->'
p2864
aS'variable_14'
p2865
aS'->'
p2866
aS'variable_55'
p2867
ag13
ag13
ag13
ag29
aS'if'
p2868
ag6
aS'variable_13'
p2869
aS'&&'
p2870
ag6
aS'variable_1'
p2871
aS'!='
p2872
aS'variable_2'
p2873
aS'||'
p2874
ag6
aS'variable_3'
p2875
aS'->'
p2876
aS'variable_14'
p2877
aS'->'
p2878
aS'variable_56'
p2879
ag18
aS'variable_57'
p2880
ag13
ag13
ag13
aS'variable_3'
p2881
aS'->'
p2882
aS'variable_45'
p2883
ag17
aS'variable_1'
p2884
aS'->'
p2885
aS'variable_38'
p2886
ag63
aS'variable_45'
p2887
ag29
aS'variable_3'
p2888
aS'->'
p2889
aS'variable_47'
p2890
ag17
aS'variable_1'
p2891
aS'->'
p2892
aS'variable_38'
p2893
ag63
aS'variable_47'
p2894
ag8
ag6
ag222
ag223
aS'variable_1'
p2895
aS'->'
p2896
aS'variable_38'
p2897
ag63
aS'variable_48'
p2898
ag13
ag29
aS'variable_1'
p2899
aS'->'
p2900
aS'variable_58'
p2901
ag17
aS'variable_3'
p2902
aS'->'
p2903
aS'variable_45'
p2904
ag8
ag108
ag29
aS'variable_3'
p2905
aS'->'
p2906
aS'variable_59'
p2907
ag17
aS'variable_1'
p2908
aS'->'
p2909
aS'variable_38'
p2910
ag63
aS'variable_53'
p2911
ag309
ag17
ag310
ag29
aS'variable_3'
p2912
aS'->'
p2913
aS'variable_60'
p2914
ag17
aS'16'
p2915
ag8
aS'variable_3'
p2916
aS'->'
p2917
aS'variable_45'
p2918
ag29
aS'variable_3'
p2919
aS'->'
p2920
aS'variable_61'
p2921
ag17
aS'16'
p2922
ag8
aS'variable_3'
p2923
aS'->'
p2924
aS'variable_47'
p2925
ag29
aS'if'
p2926
ag6
aS'variable_13'
p2927
ag13
aS'variable_1'
p2928
aS'->'
p2929
aS'variable_62'
p2930
ag17
ag85
ag29
aS'variable_1'
p2931
aS'->'
p2932
aS'variable_26'
p2933
ag17
ag85
ag29
aS'if'
p2934
ag6
ag52
aS'variable_3'
p2935
aS'->'
p2936
aS'variable_44'
p2937
ag13
aS'if'
p2938
ag6
aS'variable_1'
p2939
aS'!='
p2940
aS'variable_2'
p2941
ag13
aS'if'
p2942
ag6
aS'func_6'
p2943
ag6
aS'variable_3'
p2944
aS'->'
p2945
aS'variable_14'
p2946
aS'->'
p2947
aS'variable_60'
p2948
ag10
aS'16'
p2949
ag13
aS'=='
p2950
aS'variable_3'
p2951
aS'->'
p2952
aS'variable_60'
p2953
aS'&&'
p2954
aS'func_7'
p2955
ag6
aS'variable_3'
p2956
aS'->'
p2957
aS'variable_14'
p2958
aS'->'
p2959
aS'variable_61'
p2960
ag10
aS'16'
p2961
ag8
ag6
ag222
ag223
aS'variable_1'
p2962
aS'->'
p2963
aS'variable_38'
p2964
ag63
aS'variable_48'
p2965
ag13
ag13
aS'=='
p2966
aS'variable_3'
p2967
aS'->'
p2968
aS'variable_61'
p2969
aS'&&'
p2970
ag52
aS'variable_1'
p2971
aS'->'
p2972
aS'variable_38'
p2973
ag63
aS'variable_63'
p2974
aS'&&'
p2975
ag52
aS'variable_1'
p2976
aS'->'
p2977
aS'variable_38'
p2978
ag63
aS'variable_64'
p2979
aS'&&'
p2980
ag6
aS'variable_3'
p2981
aS'->'
p2982
aS'variable_14'
p2983
aS'->'
p2984
aS'variable_60'
p2985
aS'!='
p2986
aS'variable_3'
p2987
aS'->'
p2988
aS'variable_60'
p2989
aS'||'
p2990
aS'variable_3'
p2991
aS'->'
p2992
aS'variable_14'
p2993
aS'->'
p2994
aS'variable_61'
p2995
aS'&&'
p2996
aS'variable_3'
p2997
aS'->'
p2998
aS'variable_61'
p2999
ag13
ag13
aS'variable_3'
p3000
aS'->'
p3001
aS'variable_14'
p3002
aS'->'
p3003
aS'variable_60'
p3004
aS'-='
p3005
ag6
ag222
aS'>>'
p3006
aS'variable_65'
p3007
ag13
ag8
aS'func_8'
p3008
ag6
aS'variable_1'
p3009
aS'->'
p3010
aS'variable_38'
p3011
ag63
aS'variable_63'
p3012
ag10
ag6
ag412
aS'<<'
p3013
aS'variable_65'
p3014
ag13
ag223
ag310
ag13
ag29
aS'variable_3'
p3015
aS'->'
p3016
aS'variable_14'
p3017
aS'->'
p3018
aS'variable_61'
p3019
aS'-='
p3020
ag6
ag310
aS'<<'
p3021
aS'variable_3'
p3022
aS'->'
p3023
aS'variable_59'
p3024
ag13
ag8
aS'func_9'
p3025
ag6
aS'variable_1'
p3026
aS'->'
p3027
aS'variable_38'
p3028
ag63
aS'variable_64'
p3029
ag10
ag6
aS'16'
p3030
aS'>>'
p3031
aS'variable_3'
p3032
aS'->'
p3033
aS'variable_59'
p3034
ag13
ag223
ag310
ag13
ag8
ag6
ag222
ag223
aS'variable_1'
p3035
aS'->'
p3036
aS'variable_38'
p3037
ag63
aS'variable_48'
p3038
ag13
ag29
aS'variable_3'
p3039
aS'->'
p3040
aS'variable_14'
p3041
aS'->'
p3042
aS'variable_55'
p3043
ag17
aS'variable_1'
p3044
aS'->'
p3045
aS'variable_38'
p3046
ag63
aS'variable_54'
p3047
ag29
aS'if'
p3048
ag6
aS'variable_3'
p3049
aS'->'
p3050
aS'variable_14'
p3051
aS'->'
p3052
aS'variable_66'
p3053
aS'->'
p3054
aS'variable_67'
p3055
ag18
aS'variable_68'
p3056
aS'&&'
p3057
ag6
aS'variable_1'
p3058
aS'->'
p3059
aS'variable_38'
p3060
ag63
aS'variable_51'
p3061
aS'!='
p3062
ag412
aS'||'
p3063
aS'variable_1'
p3064
aS'->'
p3065
aS'variable_38'
p3066
ag63
aS'variable_53'
p3067
ag104
ag310
ag13
ag13
aS'if'
p3068
ag6
aS'variable_3'
p3069
aS'->'
p3070
aS'variable_14'
p3071
aS'->'
p3072
aS'variable_50'
p3073
aS'!='
p3074
aS'variable_1'
p3075
aS'->'
p3076
aS'variable_38'
p3077
ag63
aS'variable_51'
p3078
aS'||'
p3079
aS'variable_1'
p3080
aS'->'
p3081
aS'variable_52'
p3082
aS'!='
p3083
aS'variable_1'
p3084
aS'->'
p3085
aS'variable_38'
p3086
ag63
aS'variable_53'
p3087
ag13
aS'if'
p3088
ag6
aS'variable_1'
p3089
aS'->'
p3090
aS'variable_38'
p3091
ag63
aS'variable_51'
p3092
ag104
ag17
ag412
aS'&&'
p3093
aS'variable_1'
p3094
aS'->'
p3095
aS'variable_38'
p3096
ag63
aS'variable_51'
p3097
ag309
ag17
aS'14'
p3098
aS'&&'
p3099
aS'variable_1'
p3100
aS'->'
p3101
aS'variable_38'
p3102
ag63
aS'variable_51'
p3103
aS'!='
p3104
aS'11'
p3105
aS'&&'
p3106
aS'variable_1'
p3107
aS'->'
p3108
aS'variable_38'
p3109
ag63
aS'variable_51'
p3110
aS'!='
p3111
aS'13'
p3112
aS'&&'
p3113
ag6
aS'variable_1'
p3114
aS'->'
p3115
aS'variable_38'
p3116
ag63
aS'variable_51'
p3117
aS'!='
p3118
ag105
aS'||'
p3119
ag52
aS'variable_69'
p3120
ag13
ag13
aS'variable_3'
p3121
aS'->'
p3122
aS'variable_14'
p3123
aS'->'
p3124
aS'variable_50'
p3125
ag17
aS'variable_1'
p3126
aS'->'
p3127
aS'variable_38'
p3128
ag63
aS'variable_51'
p3129
ag29
aS'variable_1'
p3130
aS'->'
p3131
aS'variable_52'
p3132
ag17
aS'variable_1'
p3133
aS'->'
p3134
aS'variable_38'
p3135
ag63
aS'variable_53'
p3136
ag29
aS'variable_1'
p3137
aS'->'
p3138
aS'variable_18'
p3139
ag17
aS'variable_1'
p3140
aS'->'
p3141
aS'variable_38'
p3142
ag63
aS'variable_51'
p3143
ag104
ag412
ag29
aS'variable_3'
p3144
aS'->'
p3145
aS'variable_21'
p3146
ag63
aS'variable_70'
p3147
ag17
aS'variable_1'
p3148
aS'->'
p3149
aS'variable_38'
p3150
ag63
aS'variable_51'
p3151
ag104
ag412
ag552
aS'32'
p3152
ag554
aS'16'
p3153
ag29
aS'if'
p3154
ag6
aS'variable_1'
p3155
aS'->'
p3156
aS'variable_38'
p3157
ag63
aS'variable_71'
p3158
ag13
aS'variable_3'
p3159
aS'->'
p3160
aS'variable_14'
p3161
aS'->'
p3162
aS'variable_72'
p3163
ag17
aS'variable_1'
p3164
aS'->'
p3165
aS'variable_38'
p3166
ag63
aS'variable_73'
p3167
ag104
ag85
ag552
aS'variable_74'
p3168
ag554
aS'variable_75'
p3169
ag29
aS'if'
p3170
ag6
aS'variable_1'
p3171
aS'->'
p3172
aS'variable_38'
p3173
ag63
aS'variable_76'
p3174
ag13
aS'variable_3'
p3175
aS'->'
p3176
aS'variable_14'
p3177
aS'->'
p3178
aS'variable_77'
p3179
ag17
aS'variable_1'
p3180
aS'->'
p3181
aS'variable_38'
p3182
ag63
aS'variable_77'
p3183
ag29
aS'variable_3'
p3184
aS'->'
p3185
aS'variable_14'
p3186
aS'->'
p3187
aS'variable_78'
p3188
ag17
aS'variable_1'
p3189
aS'->'
p3190
aS'variable_38'
p3191
ag63
aS'variable_78'
p3192
ag29
aS'variable_3'
p3193
aS'->'
p3194
aS'variable_14'
p3195
aS'->'
p3196
aS'variable_79'
p3197
ag17
aS'variable_1'
p3198
aS'->'
p3199
aS'variable_38'
p3200
ag63
aS'variable_79'
p3201
ag29
aS'switch'
p3202
ag6
aS'variable_1'
p3203
aS'->'
p3204
aS'variable_38'
p3205
ag63
aS'variable_51'
p3206
ag13
aS'if'
p3207
ag6
aS'variable_65'
p3208
ag13
aS'if'
p3209
ag6
aS'variable_3'
p3210
aS'->'
p3211
aS'variable_14'
p3212
aS'->'
p3213
aS'variable_79'
p3214
aS'=='
p3215
aS'variable_80'
p3216
ag13
aS'variable_3'
p3217
aS'->'
p3218
aS'variable_14'
p3219
aS'->'
p3220
aS'variable_81'
p3221
ag17
aS'variable_82'
p3222
ag29
aS'variable_3'
p3223
aS'->'
p3224
aS'variable_14'
p3225
aS'->'
p3226
aS'variable_81'
p3227
ag17
aS'variable_83'
p3228
ag29
aS'if'
p3229
ag6
aS'variable_69'
p3230
ag13
aS'variable_3'
p3231
aS'->'
p3232
aS'variable_14'
p3233
aS'->'
p3234
aS'variable_81'
p3235
ag17
aS'variable_84'
p3236
ag29
aS'variable_3'
p3237
aS'->'
p3238
aS'variable_14'
p3239
aS'->'
p3240
aS'variable_81'
p3241
ag17
aS'variable_85'
p3242
ag29
aS'if'
p3243
ag6
aS'variable_65'
p3244
ag13
aS'if'
p3245
ag6
aS'variable_3'
p3246
aS'->'
p3247
aS'variable_14'
p3248
aS'->'
p3249
aS'variable_79'
p3250
aS'=='
p3251
aS'variable_80'
p3252
ag13
aS'variable_3'
p3253
aS'->'
p3254
aS'variable_14'
p3255
aS'->'
p3256
aS'variable_81'
p3257
ag17
aS'variable_86'
p3258
ag29
aS'variable_3'
p3259
aS'->'
p3260
aS'variable_14'
p3261
aS'->'
p3262
aS'variable_81'
p3263
ag17
aS'variable_87'
p3264
ag29
aS'if'
p3265
ag6
aS'variable_69'
p3266
ag13
aS'variable_3'
p3267
aS'->'
p3268
aS'variable_14'
p3269
aS'->'
p3270
aS'variable_81'
p3271
ag17
aS'variable_88'
p3272
ag29
aS'variable_3'
p3273
aS'->'
p3274
aS'variable_14'
p3275
aS'->'
p3276
aS'variable_81'
p3277
ag17
aS'variable_89'
p3278
ag29
aS'if'
p3279
ag6
aS'variable_65'
p3280
ag13
aS'if'
p3281
ag6
aS'variable_3'
p3282
aS'->'
p3283
aS'variable_14'
p3284
aS'->'
p3285
aS'variable_79'
p3286
aS'=='
p3287
aS'variable_80'
p3288
ag13
aS'variable_3'
p3289
aS'->'
p3290
aS'variable_14'
p3291
aS'->'
p3292
aS'variable_81'
p3293
ag17
aS'variable_90'
p3294
ag29
aS'variable_3'
p3295
aS'->'
p3296
aS'variable_14'
p3297
aS'->'
p3298
aS'variable_81'
p3299
ag17
aS'variable_91'
p3300
ag29
aS'if'
p3301
ag6
aS'variable_69'
p3302
ag13
aS'variable_3'
p3303
aS'->'
p3304
aS'variable_14'
p3305
aS'->'
p3306
aS'variable_81'
p3307
ag17
aS'variable_92'
p3308
ag29
aS'variable_3'
p3309
aS'->'
p3310
aS'variable_14'
p3311
aS'->'
p3312
aS'variable_81'
p3313
ag17
aS'variable_93'
p3314
ag29
aS'if'
p3315
ag6
aS'variable_65'
p3316
ag13
aS'if'
p3317
ag6
aS'variable_3'
p3318
aS'->'
p3319
aS'variable_14'
p3320
aS'->'
p3321
aS'variable_79'
p3322
aS'=='
p3323
aS'variable_80'
p3324
ag13
aS'variable_3'
p3325
aS'->'
p3326
aS'variable_14'
p3327
aS'->'
p3328
aS'variable_81'
p3329
ag17
aS'variable_94'
p3330
ag29
aS'variable_3'
p3331
aS'->'
p3332
aS'variable_14'
p3333
aS'->'
p3334
aS'variable_81'
p3335
ag17
aS'variable_95'
p3336
ag29
aS'if'
p3337
ag6
aS'variable_69'
p3338
ag13
aS'variable_3'
p3339
aS'->'
p3340
aS'variable_14'
p3341
aS'->'
p3342
aS'variable_81'
p3343
ag17
aS'variable_96'
p3344
ag29
aS'variable_3'
p3345
aS'->'
p3346
aS'variable_14'
p3347
aS'->'
p3348
aS'variable_81'
p3349
ag17
aS'variable_97'
p3350
ag29
aS'if'
p3351
ag6
aS'variable_65'
p3352
ag13
aS'variable_3'
p3353
aS'->'
p3354
aS'variable_14'
p3355
aS'->'
p3356
aS'variable_81'
p3357
ag17
aS'variable_3'
p3358
aS'->'
p3359
aS'variable_14'
p3360
aS'->'
p3361
aS'variable_72'
p3362
aS'=='
p3363
aS'variable_74'
p3364
ag552
aS'variable_98'
p3365
ag554
aS'variable_99'
p3366
ag29
aS'if'
p3367
ag6
aS'variable_3'
p3368
aS'->'
p3369
aS'variable_14'
p3370
aS'->'
p3371
aS'variable_79'
p3372
aS'=='
p3373
aS'variable_80'
p3374
ag13
aS'variable_3'
p3375
aS'->'
p3376
aS'variable_14'
p3377
aS'->'
p3378
aS'variable_81'
p3379
ag17
aS'variable_100'
p3380
ag29
aS'if'
p3381
ag6
aS'variable_69'
p3382
ag13
aS'variable_3'
p3383
aS'->'
p3384
aS'variable_14'
p3385
aS'->'
p3386
aS'variable_81'
p3387
ag17
aS'variable_3'
p3388
aS'->'
p3389
aS'variable_14'
p3390
aS'->'
p3391
aS'variable_72'
p3392
aS'=='
p3393
aS'variable_74'
p3394
ag552
aS'variable_101'
p3395
ag554
aS'variable_102'
p3396
ag29
aS'variable_3'
p3397
aS'->'
p3398
aS'variable_14'
p3399
aS'->'
p3400
aS'variable_81'
p3401
ag17
aS'variable_3'
p3402
aS'->'
p3403
aS'variable_14'
p3404
aS'->'
p3405
aS'func_10'
p3406
ag6
aS'variable_3'
p3407
aS'->'
p3408
aS'variable_14'
p3409
ag10
aS'variable_3'
p3410
aS'->'
p3411
aS'variable_14'
p3412
aS'->'
p3413
aS'variable_66'
p3414
aS'->'
p3415
aS'variable_103'
p3416
ag552
aS'variable_3'
p3417
aS'->'
p3418
aS'variable_14'
p3419
aS'->'
p3420
aS'variable_66'
p3421
aS'->'
p3422
aS'variable_103'
p3423
ag554
aS'variable_3'
p3424
aS'->'
p3425
aS'variable_14'
p3426
aS'->'
p3427
aS'variable_72'
p3428
aS'=='
p3429
aS'variable_74'
p3430
ag552
aS'variable_104'
p3431
ag554
aS'variable_105'
p3432
ag13
ag29
aS'variable_3'
p3433
aS'->'
p3434
aS'variable_14'
p3435
aS'->'
p3436
aS'variable_106'
p3437
ag17
aS'func_11'
p3438
ag6
aS'variable_3'
p3439
aS'->'
p3440
aS'variable_14'
p3441
aS'->'
p3442
aS'variable_66'
p3443
aS'->'
p3444
aS'variable_107'
p3445
ag10
aS'variable_3'
p3446
aS'->'
p3447
aS'variable_14'
p3448
aS'->'
p3449
aS'variable_81'
p3450
ag13
ag29
aS'if'
p3451
ag6
aS'func_12'
p3452
ag6
aS'variable_3'
p3453
ag13
ag309
ag85
ag13
aS'variable_3'
p3454
aS'->'
p3455
aS'variable_27'
p3456
ag17
ag85
ag29
aS'variable_1'
p3457
aS'->'
p3458
aS'variable_108'
p3459
ag17
ag310
ag29
aS'if'
p3460
ag6
aS'func_13'
p3461
ag6
aS'variable_1'
p3462
ag13
ag309
ag85
ag13
aS'if'
p3463
ag6
ag52
aS'variable_109'
p3464
aS'||'
p3465
ag52
ag6
aS'variable_3'
p3466
aS'->'
p3467
aS'variable_14'
p3468
aS'->'
p3469
aS'variable_56'
p3470
ag18
aS'variable_110'
p3471
ag13
ag13
aS'if'
p3472
ag6
aS'func_14'
p3473
ag6
aS'variable_1'
p3474
ag13
ag309
ag85
ag13
aS'for'
p3475
ag6
aS'variable_9'
p3476
ag17
ag310
ag29
aS'variable_9'
p3477
ag309
aS'variable_3'
p3478
aS'->'
p3479
aS'variable_111'
p3480
ag29
aS'variable_9'
p3481
aS'++'
p3482
ag13
aS'variable_0'
p3483
ag8
aS'variable_112'
p3484
ag29
aS'variable_112'
p3485
ag17
aS'variable_1'
p3486
aS'->'
p3487
aS'variable_113'
p3488
ag117
aS'variable_9'
p3489
ag119
ag17
aS'func_15'
p3490
ag6
aS'sizeof'
p3491
ag6
aS'variable_0'
p3492
ag13
ag13
ag29
aS'for'
p3493
ag6
aS'variable_9'
p3494
ag17
ag85
ag29
aS'variable_9'
p3495
ag309
aS'variable_3'
p3496
aS'->'
p3497
aS'variable_111'
p3498
ag29
aS'variable_9'
p3499
aS'++'
p3500
ag13
aS'if'
p3501
ag6
aS'func_16'
p3502
ag6
aS'variable_1'
p3503
aS'->'
p3504
aS'variable_113'
p3505
ag117
aS'variable_9'
p3506
ag119
ag13
ag309
ag85
ag13
aS'if'
p3507
ag6
aS'variable_1'
p3508
aS'=='
p3509
aS'variable_2'
p3510
aS'&&'
p3511
aS'variable_1'
p3512
aS'->'
p3513
aS'variable_114'
p3514
aS'!='
p3515
aS'variable_6'
p3516
ag13
aS'variable_1'
p3517
aS'->'
p3518
aS'variable_114'
p3519
ag17
aS'variable_6'
p3520
ag29
aS'variable_1'
p3521
aS'->'
p3522
aS'variable_115'
p3523
ag17
aS'func_17'
p3524
ag6
ag18
aS'variable_3'
p3525
aS'->'
p3526
aS'variable_25'
p3527
ag10
aS'variable_1'
p3528
aS'->'
p3529
aS'variable_38'
p3530
ag63
aS'variable_116'
p3531
ag13
ag29
aS'variable_1'
p3532
aS'->'
p3533
aS'variable_117'
p3534
ag17
ag85
ag29
aS'variable_1'
p3535
aS'->'
p3536
aS'variable_118'
p3537
ag17
ag85
ag29
aS'variable_11'
p3538
ag17
aS'variable_4'
p3539
aS'->'
p3540
aS'variable_119'
p3541
ag29
aS'variable_12'
p3542
ag17
aS'variable_3'
p3543
aS'->'
p3544
aS'variable_120'
p3545
ag29
aS'variable_3'
p3546
aS'->'
p3547
aS'variable_120'
p3548
ag17
aS'variable_1'
p3549
aS'->'
p3550
aS'variable_17'
p3551
aS'=='
p3552
ag85
ag29
aS'if'
p3553
ag6
aS'variable_1'
p3554
aS'->'
p3555
aS'variable_38'
p3556
ag63
aS'variable_48'
p3557
ag13
aS'variable_3'
p3558
aS'->'
p3559
aS'variable_119'
p3560
ag17
aS'variable_121'
p3561
ag29
aS'if'
p3562
ag6
ag52
aS'variable_1'
p3563
aS'->'
p3564
aS'variable_38'
p3565
ag63
aS'variable_122'
p3566
aS'&&'
p3567
aS'variable_7'
p3568
aS'=='
p3569
aS'variable_123'
p3570
ag13
aS'if'
p3571
ag6
aS'func_18'
p3572
ag6
ag18
aS'variable_3'
p3573
aS'->'
p3574
aS'variable_25'
p3575
ag13
ag13
aS'variable_3'
p3576
aS'->'
p3577
aS'variable_119'
p3578
ag17
aS'variable_124'
p3579
ag982
aS'func_19'
p3580
ag6
ag18
aS'variable_3'
p3581
aS'->'
p3582
aS'variable_25'
p3583
ag13
ag29
aS'variable_3'
p3584
aS'->'
p3585
aS'variable_119'
p3586
ag17
aS'variable_121'
p3587
ag29
aS'variable_1'
p3588
aS'->'
p3589
aS'variable_118'
p3590
ag17
aS'variable_1'
p3591
aS'->'
p3592
aS'variable_38'
p3593
ag63
aS'variable_125'
p3594
ag29
aS'variable_1'
p3595
aS'->'
p3596
aS'variable_126'
p3597
ag17
aS'variable_3'
p3598
aS'->'
p3599
aS'variable_119'
p3600
aS'!='
p3601
aS'variable_121'
p3602
ag29
aS'if'
p3603
ag6
aS'variable_2'
p3604
aS'->'
p3605
aS'variable_26'
p3606
aS'!='
p3607
ag85
ag13
aS'if'
p3608
ag6
aS'variable_1'
p3609
aS'->'
p3610
aS'variable_115'
p3611
aS'!='
p3612
aS'variable_1'
p3613
aS'->'
p3614
aS'variable_127'
p3615
aS'&&'
p3616
aS'variable_1'
p3617
aS'->'
p3618
aS'variable_127'
p3619
ag104
ag17
ag85
ag13
aS'int'
p3620
aS'variable_128'
p3621
ag17
aS'variable_1'
p3622
aS'->'
p3623
aS'variable_127'
p3624
ag29
aS'int'
p3625
aS'variable_129'
p3626
ag17
ag310
aS'<<'
p3627
aS'variable_1'
p3628
aS'->'
p3629
aS'variable_38'
p3630
ag63
aS'variable_116'
p3631
ag29
aS'if'
p3632
ag6
aS'variable_128'
p3633
ag104
aS'variable_1'
p3634
aS'->'
p3635
aS'variable_115'
p3636
ag13
aS'variable_128'
p3637
aS'-='
p3638
aS'variable_129'
p3639
ag29
aS'if'
p3640
ag6
ag6
aS'variable_1'
p3641
aS'->'
p3642
aS'variable_115'
p3643
ag223
aS'variable_128'
p3644
ag13
ag104
aS'variable_1'
p3645
aS'->'
p3646
aS'variable_38'
p3647
ag63
aS'variable_43'
p3648
ag13
aS'variable_128'
p3649
ag17
ag6
aS'variable_1'
p3650
aS'->'
p3651
aS'variable_115'
p3652
ag223
aS'variable_1'
p3653
aS'->'
p3654
aS'variable_38'
p3655
ag63
aS'variable_43'
p3656
ag13
ag223
ag310
ag29
aS'if'
p3657
ag6
aS'variable_128'
p3658
ag309
ag85
ag13
aS'variable_128'
p3659
aS'+='
p3660
aS'variable_129'
p3661
ag29
aS'variable_1'
p3662
aS'->'
p3663
aS'variable_127'
p3664
ag17
aS'variable_128'
p3665
ag29
aS'if'
p3666
ag6
aS'variable_4'
p3667
aS'->'
p3668
aS'variable_27'
p3669
ag13
aS'if'
p3670
ag6
ag52
aS'variable_130'
p3671
aS'||'
p3672
aS'variable_3'
p3673
aS'->'
p3674
aS'variable_119'
p3675
aS'=='
p3676
aS'variable_11'
p3677
ag13
aS'if'
p3678
ag6
aS'variable_4'
p3679
aS'->'
p3680
aS'variable_28'
p3681
aS'->'
p3682
aS'variable_115'
p3683
aS'!='
p3684
aS'variable_1'
p3685
aS'->'
p3686
aS'variable_115'
p3687
ag13
aS'if'
p3688
ag6
ag52
ag6
ag6
aS'variable_11'
p3689
aS'=='
p3690
aS'variable_124'
p3691
aS'&&'
p3692
aS'variable_3'
p3693
aS'->'
p3694
aS'variable_119'
p3695
aS'=='
p3696
aS'variable_131'
p3697
ag13
aS'||'
p3698
ag6
aS'variable_11'
p3699
aS'=='
p3700
aS'variable_131'
p3701
aS'&&'
p3702
aS'variable_3'
p3703
aS'->'
p3704
aS'variable_119'
p3705
aS'=='
p3706
aS'variable_124'
p3707
ag13
ag13
ag13
aS'if'
p3708
ag6
aS'variable_12'
p3709
aS'!='
p3710
aS'variable_3'
p3711
aS'->'
p3712
aS'variable_120'
p3713
ag13
aS'variable_4'
p3714
aS'->'
p3715
aS'variable_28'
p3716
aS'->'
p3717
aS'variable_132'
p3718
ag17
aS'variable_4'
p3719
ag29
aS'while'
p3720
ag6
aS'variable_1'
p3721
aS'->'
p3722
aS'variable_115'
p3723
aS'!='
p3724
aS'variable_1'
p3725
aS'->'
p3726
aS'variable_127'
p3727
aS'&&'
p3728
aS'variable_1'
p3729
aS'->'
p3730
aS'variable_127'
p3731
ag104
ag17
ag85
aS'&&'
p3732
aS'variable_1'
p3733
aS'->'
p3734
aS'variable_115'
p3735
aS'!='
p3736
ag6
aS'variable_1'
p3737
aS'->'
p3738
aS'variable_127'
p3739
ag982
ag310
ag13
ag1155
ag6
ag310
aS'<<'
p3740
aS'variable_1'
p3741
aS'->'
p3742
aS'variable_38'
p3743
ag63
aS'variable_116'
p3744
ag13
ag13
aS'if'
p3745
ag6
aS'func_20'
p3746
ag6
aS'variable_1'
p3747
ag13
ag309
ag85
ag13
aS'variable_1'
p3748
aS'->'
p3749
aS'variable_127'
p3750
aS'++'
p3751
ag29
aS'variable_1'
p3752
aS'->'
p3753
aS'variable_127'
p3754
ag1155
ag17
ag310
aS'<<'
p3755
aS'variable_1'
p3756
aS'->'
p3757
aS'variable_38'
p3758
ag63
aS'variable_116'
p3759
ag29
aS'variable_3'
p3760
aS'->'
p3761
aS'variable_28'
p3762
aS'->'
p3763
aS'variable_115'
p3764
ag17
aS'variable_1'
p3765
aS'->'
p3766
aS'variable_127'
p3767
ag29
aS'if'
p3768
ag6
aS'func_21'
p3769
ag6
aS'variable_1'
p3770
ag10
aS'variable_1'
p3771
aS'->'
p3772
aS'variable_133'
p3773
ag10
aS'variable_1'
p3774
aS'->'
p3775
aS'variable_134'
p3776
ag13
ag309
ag85
aS'&&'
p3777
ag6
aS'variable_3'
p3778
aS'->'
p3779
aS'variable_14'
p3780
aS'->'
p3781
aS'variable_135'
p3782
ag18
aS'variable_136'
p3783
ag13
ag13
aS'if'
p3784
ag6
aS'variable_4'
p3785
aS'->'
p3786
aS'variable_27'
p3787
ag13
aS'assert'
p3788
ag6
aS'variable_4'
p3789
aS'->'
p3790
aS'variable_28'
p3791
aS'->'
p3792
aS'variable_137'
p3793
ag63
aS'variable_138'
p3794
aS'!='
p3795
aS'variable_139'
p3796
ag13
ag29
aa(lp3797
S'static'
p3798
aS'int'
p3799
aS'func_0'
p3800
ag6
aS'variable_0'
p3801
ag8
aS'variable_1'
p3802
ag10
aS'variable_0'
p3803
ag8
aS'variable_2'
p3804
ag13
aS'MpegEncContext'
p3805
ag8
aS'const'
p3806
aS'variable_3'
p3807
ag17
ag18
aS'variable_1'
p3808
aS'->'
p3809
aS'MpegEncContext'
p3810
ag8
aS'const'
p3811
aS'variable_4'
p3812
ag17
ag18
aS'variable_2'
p3813
aS'->'
p3814
aS'unsigned'
p3815
aS'int'
p3816
aS'variable_5'
p3817
ag29
aS'unsigned'
p3818
aS'int'
p3819
aS'variable_6'
p3820
ag29
aS'unsigned'
p3821
aS'int'
p3822
aS'variable_7'
p3823
ag10
aS'variable_8'
p3824
ag10
aS'variable_9'
p3825
ag10
aS'variable_10'
p3826
ag29
aS'int'
p3827
aS'variable_11'
p3828
ag10
aS'variable_12'
p3829
ag29
aS'int'
p3830
aS'variable_13'
p3831
ag29
aS'if'
p3832
ag6
ag6
aS'variable_3'
p3833
aS'->'
p3834
aS'variable_14'
p3835
aS'->'
p3836
aS'variable_15'
p3837
ag18
aS'variable_16'
p3838
ag13
aS'&&'
p3839
ag52
aS'variable_1'
p3840
aS'->'
p3841
aS'variable_17'
p3842
aS'&&'
p3843
ag52
aS'variable_1'
p3844
aS'->'
p3845
aS'variable_18'
p3846
ag13
aS'variable_3'
p3847
aS'->'
p3848
aS'variable_19'
p3849
ag63
aS'variable_20'
p3850
ag17
aS'variable_3'
p3851
aS'->'
p3852
aS'variable_21'
p3853
ag63
aS'variable_22'
p3854
ag29
aS'variable_3'
p3855
aS'->'
p3856
aS'variable_19'
p3857
ag63
aS'variable_23'
p3858
ag17
aS'variable_3'
p3859
aS'->'
p3860
aS'variable_21'
p3861
ag63
aS'variable_24'
p3862
ag29
aS'variable_5'
p3863
ag17
aS'func_1'
p3864
ag6
ag18
aS'variable_3'
p3865
aS'->'
p3866
aS'variable_25'
p3867
ag13
ag29
aS'if'
p3868
ag6
aS'variable_5'
p3869
aS'=='
p3870
ag85
ag13
aS'variable_2'
p3871
aS'->'
p3872
aS'variable_26'
p3873
ag17
ag85
ag29
aS'if'
p3874
ag6
ag52
aS'variable_4'
p3875
aS'->'
p3876
aS'variable_27'
p3877
ag13
aS'variable_3'
p3878
aS'->'
p3879
aS'variable_28'
p3880
ag17
aS'NULL'
p3881
ag29
aS'variable_7'
p3882
ag17
aS'func_2'
p3883
ag6
ag18
aS'variable_3'
p3884
aS'->'
p3885
aS'variable_25'
p3886
ag13
ag29
aS'if'
p3887
ag6
aS'variable_7'
p3888
ag104
ag105
ag13
aS'if'
p3889
ag6
aS'variable_7'
p3890
ag104
ag108
ag13
aS'variable_7'
p3891
aS'-='
p3892
ag111
ag29
aS'variable_1'
p3893
aS'->'
p3894
aS'variable_29'
p3895
ag17
ag85
ag29
aS'variable_7'
p3896
ag17
aS'variable_30'
p3897
ag117
aS'variable_7'
p3898
ag119
ag29
aS'variable_1'
p3899
aS'->'
p3900
aS'variable_7'
p3901
ag17
aS'variable_7'
p3902
ag29
aS'variable_1'
p3903
aS'->'
p3904
aS'variable_31'
p3905
ag17
aS'variable_7'
p3906
ag18
ag128
ag29
aS'variable_3'
p3907
aS'->'
p3908
aS'variable_32'
p3909
ag17
aS'variable_1'
p3910
aS'->'
p3911
aS'variable_7'
p3912
ag29
aS'variable_6'
p3913
ag17
aS'func_3'
p3914
ag6
ag18
aS'variable_3'
p3915
aS'->'
p3916
aS'variable_25'
p3917
ag13
ag29
aS'if'
p3918
ag6
aS'variable_6'
p3919
ag104
ag17
aS'variable_33'
p3920
ag13
aS'if'
p3921
ag6
ag52
aS'variable_2'
p3922
aS'->'
p3923
aS'variable_34'
p3924
ag117
aS'variable_6'
p3925
ag119
ag13
aS'variable_1'
p3926
aS'->'
p3927
aS'variable_35'
p3928
ag17
ag8
aS'variable_2'
p3929
aS'->'
p3930
aS'variable_34'
p3931
ag117
aS'variable_6'
p3932
ag119
ag29
aS'if'
p3933
ag6
ag52
aS'variable_2'
p3934
aS'->'
p3935
aS'variable_36'
p3936
ag117
aS'variable_1'
p3937
aS'->'
p3938
aS'variable_35'
p3939
ag63
aS'variable_37'
p3940
ag119
ag13
aS'variable_1'
p3941
aS'->'
p3942
aS'variable_38'
p3943
ag17
ag8
aS'variable_2'
p3944
aS'->'
p3945
aS'variable_36'
p3946
ag117
aS'variable_1'
p3947
aS'->'
p3948
aS'variable_35'
p3949
ag63
aS'variable_37'
p3950
ag119
ag29
aS'variable_3'
p3951
aS'->'
p3952
aS'variable_14'
p3953
aS'->'
p3954
aS'variable_39'
p3955
ag17
aS'func_4'
p3956
ag6
ag18
aS'variable_1'
p3957
aS'->'
p3958
aS'variable_38'
p3959
ag13
ag29
aS'variable_3'
p3960
aS'->'
p3961
aS'variable_14'
p3962
aS'->'
p3963
aS'variable_40'
p3964
ag17
aS'variable_1'
p3965
aS'->'
p3966
aS'variable_38'
p3967
ag63
aS'variable_41'
p3968
ag29
aS'variable_3'
p3969
aS'->'
p3970
aS'variable_14'
p3971
aS'->'
p3972
aS'variable_42'
p3973
ag17
aS'variable_1'
p3974
aS'->'
p3975
aS'variable_38'
p3976
ag63
aS'variable_43'
p3977
ag29
aS'variable_13'
p3978
ag17
ag6
aS'variable_3'
p3979
aS'->'
p3980
aS'variable_44'
p3981
aS'&&'
p3982
ag6
aS'16'
p3983
ag8
aS'variable_1'
p3984
aS'->'
p3985
aS'variable_38'
p3986
ag63
aS'variable_45'
p3987
aS'!='
p3988
aS'variable_3'
p3989
aS'->'
p3990
aS'variable_14'
p3991
aS'->'
p3992
aS'variable_46'
p3993
aS'||'
p3994
aS'16'
p3995
ag8
aS'variable_1'
p3996
aS'->'
p3997
aS'variable_38'
p3998
ag63
aS'variable_47'
p3999
ag8
ag6
ag222
ag223
aS'variable_1'
p4000
aS'->'
p4001
aS'variable_38'
p4002
ag63
aS'variable_48'
p4003
ag13
aS'!='
p4004
aS'variable_3'
p4005
aS'->'
p4006
aS'variable_14'
p4007
aS'->'
p4008
aS'variable_49'
p4009
aS'||'
p4010
aS'variable_3'
p4011
aS'->'
p4012
aS'variable_14'
p4013
aS'->'
p4014
aS'variable_50'
p4015
aS'!='
p4016
aS'variable_1'
p4017
aS'->'
p4018
aS'variable_38'
p4019
ag63
aS'variable_51'
p4020
aS'||'
p4021
aS'variable_1'
p4022
aS'->'
p4023
aS'variable_52'
p4024
aS'!='
p4025
aS'variable_1'
p4026
aS'->'
p4027
aS'variable_38'
p4028
ag63
aS'variable_53'
p4029
aS'||'
p4030
aS'func_5'
p4031
ag6
aS'variable_1'
p4032
aS'->'
p4033
aS'variable_38'
p4034
ag63
aS'variable_54'
p4035
ag10
aS'variable_3'
p4036
aS'->'
p4037
aS'variable_14'
p4038
aS'->'
p4039
aS'variable_55'
p4040
ag13
ag13
ag13
ag29
aS'if'
p4041
ag6
aS'variable_13'
p4042
aS'&&'
p4043
ag6
aS'variable_1'
p4044
aS'!='
p4045
aS'variable_2'
p4046
aS'||'
p4047
ag6
aS'variable_3'
p4048
aS'->'
p4049
aS'variable_14'
p4050
aS'->'
p4051
aS'variable_56'
p4052
ag18
aS'variable_57'
p4053
ag13
ag13
ag13
aS'variable_3'
p4054
aS'->'
p4055
aS'variable_45'
p4056
ag17
aS'variable_1'
p4057
aS'->'
p4058
aS'variable_38'
p4059
ag63
aS'variable_45'
p4060
ag29
aS'variable_3'
p4061
aS'->'
p4062
aS'variable_47'
p4063
ag17
aS'variable_1'
p4064
aS'->'
p4065
aS'variable_38'
p4066
ag63
aS'variable_47'
p4067
ag8
ag6
ag222
ag223
aS'variable_1'
p4068
aS'->'
p4069
aS'variable_38'
p4070
ag63
aS'variable_48'
p4071
ag13
ag29
aS'variable_1'
p4072
aS'->'
p4073
aS'variable_58'
p4074
ag17
aS'variable_3'
p4075
aS'->'
p4076
aS'variable_45'
p4077
ag8
ag108
ag29
aS'variable_3'
p4078
aS'->'
p4079
aS'variable_59'
p4080
ag17
aS'variable_1'
p4081
aS'->'
p4082
aS'variable_38'
p4083
ag63
aS'variable_53'
p4084
ag309
ag17
ag310
ag29
aS'variable_3'
p4085
aS'->'
p4086
aS'variable_60'
p4087
ag17
aS'16'
p4088
ag8
aS'variable_3'
p4089
aS'->'
p4090
aS'variable_45'
p4091
ag29
aS'variable_3'
p4092
aS'->'
p4093
aS'variable_61'
p4094
ag17
aS'16'
p4095
ag8
aS'variable_3'
p4096
aS'->'
p4097
aS'variable_47'
p4098
ag29
aS'if'
p4099
ag6
aS'variable_13'
p4100
ag13
aS'variable_1'
p4101
aS'->'
p4102
aS'variable_62'
p4103
ag17
ag85
ag29
aS'variable_1'
p4104
aS'->'
p4105
aS'variable_26'
p4106
ag17
ag85
ag29
aS'if'
p4107
ag6
ag52
aS'variable_3'
p4108
aS'->'
p4109
aS'variable_44'
p4110
ag13
aS'if'
p4111
ag6
aS'variable_1'
p4112
aS'!='
p4113
aS'variable_2'
p4114
ag13
aS'if'
p4115
ag6
aS'func_6'
p4116
ag6
aS'variable_3'
p4117
aS'->'
p4118
aS'variable_14'
p4119
aS'->'
p4120
aS'variable_60'
p4121
ag10
aS'16'
p4122
ag13
aS'=='
p4123
aS'variable_3'
p4124
aS'->'
p4125
aS'variable_60'
p4126
aS'&&'
p4127
aS'func_7'
p4128
ag6
aS'variable_3'
p4129
aS'->'
p4130
aS'variable_14'
p4131
aS'->'
p4132
aS'variable_61'
p4133
ag10
aS'16'
p4134
ag8
ag6
ag222
ag223
aS'variable_1'
p4135
aS'->'
p4136
aS'variable_38'
p4137
ag63
aS'variable_48'
p4138
ag13
ag13
aS'=='
p4139
aS'variable_3'
p4140
aS'->'
p4141
aS'variable_61'
p4142
aS'&&'
p4143
ag52
aS'variable_1'
p4144
aS'->'
p4145
aS'variable_38'
p4146
ag63
aS'variable_63'
p4147
aS'&&'
p4148
ag52
aS'variable_1'
p4149
aS'->'
p4150
aS'variable_38'
p4151
ag63
aS'variable_64'
p4152
aS'&&'
p4153
ag6
aS'variable_3'
p4154
aS'->'
p4155
aS'variable_14'
p4156
aS'->'
p4157
aS'variable_60'
p4158
aS'!='
p4159
aS'variable_3'
p4160
aS'->'
p4161
aS'variable_60'
p4162
aS'||'
p4163
aS'variable_3'
p4164
aS'->'
p4165
aS'variable_14'
p4166
aS'->'
p4167
aS'variable_61'
p4168
aS'&&'
p4169
aS'variable_3'
p4170
aS'->'
p4171
aS'variable_61'
p4172
ag13
ag13
aS'variable_3'
p4173
aS'->'
p4174
aS'variable_14'
p4175
aS'->'
p4176
aS'variable_60'
p4177
aS'-='
p4178
ag6
ag222
aS'>>'
p4179
aS'variable_65'
p4180
ag13
ag8
aS'func_8'
p4181
ag6
aS'variable_1'
p4182
aS'->'
p4183
aS'variable_38'
p4184
ag63
aS'variable_63'
p4185
ag10
ag6
ag412
aS'<<'
p4186
aS'variable_65'
p4187
ag13
ag223
ag310
ag13
ag29
aS'variable_3'
p4188
aS'->'
p4189
aS'variable_14'
p4190
aS'->'
p4191
aS'variable_61'
p4192
aS'-='
p4193
ag6
ag310
aS'<<'
p4194
aS'variable_3'
p4195
aS'->'
p4196
aS'variable_59'
p4197
ag13
ag8
aS'func_9'
p4198
ag6
aS'variable_1'
p4199
aS'->'
p4200
aS'variable_38'
p4201
ag63
aS'variable_64'
p4202
ag10
ag6
aS'16'
p4203
aS'>>'
p4204
aS'variable_3'
p4205
aS'->'
p4206
aS'variable_59'
p4207
ag13
ag223
ag310
ag13
ag8
ag6
ag222
ag223
aS'variable_1'
p4208
aS'->'
p4209
aS'variable_38'
p4210
ag63
aS'variable_48'
p4211
ag13
ag29
aS'variable_3'
p4212
aS'->'
p4213
aS'variable_14'
p4214
aS'->'
p4215
aS'variable_55'
p4216
ag17
aS'variable_1'
p4217
aS'->'
p4218
aS'variable_38'
p4219
ag63
aS'variable_54'
p4220
ag29
aS'if'
p4221
ag6
aS'variable_3'
p4222
aS'->'
p4223
aS'variable_14'
p4224
aS'->'
p4225
aS'variable_66'
p4226
aS'->'
p4227
aS'variable_67'
p4228
ag18
aS'variable_68'
p4229
aS'&&'
p4230
ag6
aS'variable_1'
p4231
aS'->'
p4232
aS'variable_38'
p4233
ag63
aS'variable_51'
p4234
aS'!='
p4235
ag412
aS'||'
p4236
aS'variable_1'
p4237
aS'->'
p4238
aS'variable_38'
p4239
ag63
aS'variable_53'
p4240
ag104
ag310
ag13
ag13
aS'if'
p4241
ag6
aS'variable_3'
p4242
aS'->'
p4243
aS'variable_14'
p4244
aS'->'
p4245
aS'variable_50'
p4246
aS'!='
p4247
aS'variable_1'
p4248
aS'->'
p4249
aS'variable_38'
p4250
ag63
aS'variable_51'
p4251
aS'||'
p4252
aS'variable_1'
p4253
aS'->'
p4254
aS'variable_52'
p4255
aS'!='
p4256
aS'variable_1'
p4257
aS'->'
p4258
aS'variable_38'
p4259
ag63
aS'variable_53'
p4260
ag13
aS'if'
p4261
ag6
aS'variable_1'
p4262
aS'->'
p4263
aS'variable_38'
p4264
ag63
aS'variable_51'
p4265
ag104
ag17
ag412
aS'&&'
p4266
aS'variable_1'
p4267
aS'->'
p4268
aS'variable_38'
p4269
ag63
aS'variable_51'
p4270
ag309
ag17
aS'14'
p4271
aS'&&'
p4272
aS'variable_1'
p4273
aS'->'
p4274
aS'variable_38'
p4275
ag63
aS'variable_51'
p4276
aS'!='
p4277
aS'11'
p4278
aS'&&'
p4279
aS'variable_1'
p4280
aS'->'
p4281
aS'variable_38'
p4282
ag63
aS'variable_51'
p4283
aS'!='
p4284
aS'13'
p4285
aS'&&'
p4286
ag6
aS'variable_1'
p4287
aS'->'
p4288
aS'variable_38'
p4289
ag63
aS'variable_51'
p4290
aS'!='
p4291
ag105
aS'||'
p4292
ag52
aS'variable_69'
p4293
ag13
ag13
aS'variable_3'
p4294
aS'->'
p4295
aS'variable_14'
p4296
aS'->'
p4297
aS'variable_50'
p4298
ag17
aS'variable_1'
p4299
aS'->'
p4300
aS'variable_38'
p4301
ag63
aS'variable_51'
p4302
ag29
aS'variable_1'
p4303
aS'->'
p4304
aS'variable_52'
p4305
ag17
aS'variable_1'
p4306
aS'->'
p4307
aS'variable_38'
p4308
ag63
aS'variable_53'
p4309
ag29
aS'variable_1'
p4310
aS'->'
p4311
aS'variable_18'
p4312
ag17
aS'variable_1'
p4313
aS'->'
p4314
aS'variable_38'
p4315
ag63
aS'variable_51'
p4316
ag104
ag412
ag29
aS'variable_3'
p4317
aS'->'
p4318
aS'variable_21'
p4319
ag63
aS'variable_70'
p4320
ag17
aS'variable_1'
p4321
aS'->'
p4322
aS'variable_38'
p4323
ag63
aS'variable_51'
p4324
ag104
ag412
ag552
aS'32'
p4325
ag554
aS'16'
p4326
ag29
aS'if'
p4327
ag6
aS'variable_1'
p4328
aS'->'
p4329
aS'variable_38'
p4330
ag63
aS'variable_71'
p4331
ag13
aS'variable_3'
p4332
aS'->'
p4333
aS'variable_14'
p4334
aS'->'
p4335
aS'variable_72'
p4336
ag17
aS'variable_1'
p4337
aS'->'
p4338
aS'variable_38'
p4339
ag63
aS'variable_73'
p4340
ag104
ag85
ag552
aS'variable_74'
p4341
ag554
aS'variable_75'
p4342
ag29
aS'if'
p4343
ag6
aS'variable_1'
p4344
aS'->'
p4345
aS'variable_38'
p4346
ag63
aS'variable_76'
p4347
ag13
aS'variable_3'
p4348
aS'->'
p4349
aS'variable_14'
p4350
aS'->'
p4351
aS'variable_77'
p4352
ag17
aS'variable_1'
p4353
aS'->'
p4354
aS'variable_38'
p4355
ag63
aS'variable_77'
p4356
ag29
aS'variable_3'
p4357
aS'->'
p4358
aS'variable_14'
p4359
aS'->'
p4360
aS'variable_78'
p4361
ag17
aS'variable_1'
p4362
aS'->'
p4363
aS'variable_38'
p4364
ag63
aS'variable_78'
p4365
ag29
aS'variable_3'
p4366
aS'->'
p4367
aS'variable_14'
p4368
aS'->'
p4369
aS'variable_79'
p4370
ag17
aS'variable_1'
p4371
aS'->'
p4372
aS'variable_38'
p4373
ag63
aS'variable_79'
p4374
ag29
aS'switch'
p4375
ag6
aS'variable_1'
p4376
aS'->'
p4377
aS'variable_38'
p4378
ag63
aS'variable_51'
p4379
ag13
aS'if'
p4380
ag6
aS'variable_65'
p4381
ag13
aS'if'
p4382
ag6
aS'variable_3'
p4383
aS'->'
p4384
aS'variable_14'
p4385
aS'->'
p4386
aS'variable_79'
p4387
aS'=='
p4388
aS'variable_80'
p4389
ag13
aS'variable_3'
p4390
aS'->'
p4391
aS'variable_14'
p4392
aS'->'
p4393
aS'variable_81'
p4394
ag17
aS'variable_82'
p4395
ag29
aS'variable_3'
p4396
aS'->'
p4397
aS'variable_14'
p4398
aS'->'
p4399
aS'variable_81'
p4400
ag17
aS'variable_83'
p4401
ag29
aS'if'
p4402
ag6
aS'variable_69'
p4403
ag13
aS'variable_3'
p4404
aS'->'
p4405
aS'variable_14'
p4406
aS'->'
p4407
aS'variable_81'
p4408
ag17
aS'variable_84'
p4409
ag29
aS'variable_3'
p4410
aS'->'
p4411
aS'variable_14'
p4412
aS'->'
p4413
aS'variable_81'
p4414
ag17
aS'variable_85'
p4415
ag29
aS'if'
p4416
ag6
aS'variable_65'
p4417
ag13
aS'if'
p4418
ag6
aS'variable_3'
p4419
aS'->'
p4420
aS'variable_14'
p4421
aS'->'
p4422
aS'variable_79'
p4423
aS'=='
p4424
aS'variable_80'
p4425
ag13
aS'variable_3'
p4426
aS'->'
p4427
aS'variable_14'
p4428
aS'->'
p4429
aS'variable_81'
p4430
ag17
aS'variable_86'
p4431
ag29
aS'variable_3'
p4432
aS'->'
p4433
aS'variable_14'
p4434
aS'->'
p4435
aS'variable_81'
p4436
ag17
aS'variable_87'
p4437
ag29
aS'if'
p4438
ag6
aS'variable_69'
p4439
ag13
aS'variable_3'
p4440
aS'->'
p4441
aS'variable_14'
p4442
aS'->'
p4443
aS'variable_81'
p4444
ag17
aS'variable_88'
p4445
ag29
aS'variable_3'
p4446
aS'->'
p4447
aS'variable_14'
p4448
aS'->'
p4449
aS'variable_81'
p4450
ag17
aS'variable_89'
p4451
ag29
aS'if'
p4452
ag6
aS'variable_65'
p4453
ag13
aS'if'
p4454
ag6
aS'variable_3'
p4455
aS'->'
p4456
aS'variable_14'
p4457
aS'->'
p4458
aS'variable_79'
p4459
aS'=='
p4460
aS'variable_80'
p4461
ag13
aS'variable_3'
p4462
aS'->'
p4463
aS'variable_14'
p4464
aS'->'
p4465
aS'variable_81'
p4466
ag17
aS'variable_90'
p4467
ag29
aS'variable_3'
p4468
aS'->'
p4469
aS'variable_14'
p4470
aS'->'
p4471
aS'variable_81'
p4472
ag17
aS'variable_91'
p4473
ag29
aS'if'
p4474
ag6
aS'variable_69'
p4475
ag13
aS'variable_3'
p4476
aS'->'
p4477
aS'variable_14'
p4478
aS'->'
p4479
aS'variable_81'
p4480
ag17
aS'variable_92'
p4481
ag29
aS'variable_3'
p4482
aS'->'
p4483
aS'variable_14'
p4484
aS'->'
p4485
aS'variable_81'
p4486
ag17
aS'variable_93'
p4487
ag29
aS'if'
p4488
ag6
aS'variable_65'
p4489
ag13
aS'if'
p4490
ag6
aS'variable_3'
p4491
aS'->'
p4492
aS'variable_14'
p4493
aS'->'
p4494
aS'variable_79'
p4495
aS'=='
p4496
aS'variable_80'
p4497
ag13
aS'variable_3'
p4498
aS'->'
p4499
aS'variable_14'
p4500
aS'->'
p4501
aS'variable_81'
p4502
ag17
aS'variable_94'
p4503
ag29
aS'variable_3'
p4504
aS'->'
p4505
aS'variable_14'
p4506
aS'->'
p4507
aS'variable_81'
p4508
ag17
aS'variable_95'
p4509
ag29
aS'if'
p4510
ag6
aS'variable_69'
p4511
ag13
aS'variable_3'
p4512
aS'->'
p4513
aS'variable_14'
p4514
aS'->'
p4515
aS'variable_81'
p4516
ag17
aS'variable_96'
p4517
ag29
aS'variable_3'
p4518
aS'->'
p4519
aS'variable_14'
p4520
aS'->'
p4521
aS'variable_81'
p4522
ag17
aS'variable_97'
p4523
ag29
aS'if'
p4524
ag6
aS'variable_65'
p4525
ag13
aS'variable_3'
p4526
aS'->'
p4527
aS'variable_14'
p4528
aS'->'
p4529
aS'variable_81'
p4530
ag17
aS'variable_3'
p4531
aS'->'
p4532
aS'variable_14'
p4533
aS'->'
p4534
aS'variable_72'
p4535
aS'=='
p4536
aS'variable_74'
p4537
ag552
aS'variable_98'
p4538
ag554
aS'variable_99'
p4539
ag29
aS'if'
p4540
ag6
aS'variable_3'
p4541
aS'->'
p4542
aS'variable_14'
p4543
aS'->'
p4544
aS'variable_79'
p4545
aS'=='
p4546
aS'variable_80'
p4547
ag13
aS'variable_3'
p4548
aS'->'
p4549
aS'variable_14'
p4550
aS'->'
p4551
aS'variable_81'
p4552
ag17
aS'variable_100'
p4553
ag29
aS'if'
p4554
ag6
aS'variable_69'
p4555
ag13
aS'variable_3'
p4556
aS'->'
p4557
aS'variable_14'
p4558
aS'->'
p4559
aS'variable_81'
p4560
ag17
aS'variable_3'
p4561
aS'->'
p4562
aS'variable_14'
p4563
aS'->'
p4564
aS'variable_72'
p4565
aS'=='
p4566
aS'variable_74'
p4567
ag552
aS'variable_101'
p4568
ag554
aS'variable_102'
p4569
ag29
aS'variable_3'
p4570
aS'->'
p4571
aS'variable_14'
p4572
aS'->'
p4573
aS'variable_81'
p4574
ag17
aS'variable_3'
p4575
aS'->'
p4576
aS'variable_14'
p4577
aS'->'
p4578
aS'func_10'
p4579
ag6
aS'variable_3'
p4580
aS'->'
p4581
aS'variable_14'
p4582
ag10
aS'variable_3'
p4583
aS'->'
p4584
aS'variable_14'
p4585
aS'->'
p4586
aS'variable_66'
p4587
aS'->'
p4588
aS'variable_103'
p4589
ag552
aS'variable_3'
p4590
aS'->'
p4591
aS'variable_14'
p4592
aS'->'
p4593
aS'variable_66'
p4594
aS'->'
p4595
aS'variable_103'
p4596
ag554
aS'variable_3'
p4597
aS'->'
p4598
aS'variable_14'
p4599
aS'->'
p4600
aS'variable_72'
p4601
aS'=='
p4602
aS'variable_74'
p4603
ag552
aS'variable_104'
p4604
ag554
aS'variable_105'
p4605
ag13
ag29
aS'variable_3'
p4606
aS'->'
p4607
aS'variable_14'
p4608
aS'->'
p4609
aS'variable_106'
p4610
ag17
aS'func_11'
p4611
ag6
aS'variable_3'
p4612
aS'->'
p4613
aS'variable_14'
p4614
aS'->'
p4615
aS'variable_66'
p4616
aS'->'
p4617
aS'variable_107'
p4618
ag10
aS'variable_3'
p4619
aS'->'
p4620
aS'variable_14'
p4621
aS'->'
p4622
aS'variable_81'
p4623
ag13
ag29
aS'if'
p4624
ag6
aS'func_12'
p4625
ag6
aS'variable_3'
p4626
ag13
ag309
ag85
ag13
aS'variable_3'
p4627
aS'->'
p4628
aS'variable_27'
p4629
ag17
ag85
ag29
aS'variable_1'
p4630
aS'->'
p4631
aS'variable_108'
p4632
ag17
ag310
ag29
aS'if'
p4633
ag6
aS'func_13'
p4634
ag6
aS'variable_1'
p4635
ag13
ag309
ag85
ag13
aS'if'
p4636
ag6
ag52
aS'variable_109'
p4637
aS'||'
p4638
ag52
ag6
aS'variable_3'
p4639
aS'->'
p4640
aS'variable_14'
p4641
aS'->'
p4642
aS'variable_56'
p4643
ag18
aS'variable_110'
p4644
ag13
ag13
aS'if'
p4645
ag6
aS'func_14'
p4646
ag6
aS'variable_1'
p4647
ag13
ag309
ag85
ag13
aS'for'
p4648
ag6
aS'variable_9'
p4649
ag17
ag310
ag29
aS'variable_9'
p4650
ag309
aS'variable_3'
p4651
aS'->'
p4652
aS'variable_111'
p4653
ag29
aS'variable_9'
p4654
aS'++'
p4655
ag13
aS'variable_0'
p4656
ag8
aS'variable_112'
p4657
ag29
aS'variable_112'
p4658
ag17
aS'variable_1'
p4659
aS'->'
p4660
aS'variable_113'
p4661
ag117
aS'variable_9'
p4662
ag119
ag17
aS'func_15'
p4663
ag6
aS'sizeof'
p4664
ag6
aS'variable_0'
p4665
ag13
ag13
ag29
aS'for'
p4666
ag6
aS'variable_9'
p4667
ag17
ag85
ag29
aS'variable_9'
p4668
ag309
aS'variable_3'
p4669
aS'->'
p4670
aS'variable_111'
p4671
ag29
aS'variable_9'
p4672
aS'++'
p4673
ag13
aS'if'
p4674
ag6
aS'func_16'
p4675
ag6
aS'variable_1'
p4676
aS'->'
p4677
aS'variable_113'
p4678
ag117
aS'variable_9'
p4679
ag119
ag13
ag309
ag85
ag13
aS'if'
p4680
ag6
aS'variable_1'
p4681
aS'=='
p4682
aS'variable_2'
p4683
aS'&&'
p4684
aS'variable_1'
p4685
aS'->'
p4686
aS'variable_114'
p4687
aS'!='
p4688
aS'variable_6'
p4689
ag13
aS'variable_1'
p4690
aS'->'
p4691
aS'variable_114'
p4692
ag17
aS'variable_6'
p4693
ag29
aS'variable_1'
p4694
aS'->'
p4695
aS'variable_115'
p4696
ag17
aS'func_17'
p4697
ag6
ag18
aS'variable_3'
p4698
aS'->'
p4699
aS'variable_25'
p4700
ag10
aS'variable_1'
p4701
aS'->'
p4702
aS'variable_38'
p4703
ag63
aS'variable_116'
p4704
ag13
ag29
aS'variable_1'
p4705
aS'->'
p4706
aS'variable_117'
p4707
ag17
ag85
ag29
aS'variable_1'
p4708
aS'->'
p4709
aS'variable_118'
p4710
ag17
ag85
ag29
aS'variable_11'
p4711
ag17
aS'variable_4'
p4712
aS'->'
p4713
aS'variable_119'
p4714
ag29
aS'variable_12'
p4715
ag17
aS'variable_3'
p4716
aS'->'
p4717
aS'variable_120'
p4718
ag29
aS'variable_3'
p4719
aS'->'
p4720
aS'variable_120'
p4721
ag17
aS'variable_1'
p4722
aS'->'
p4723
aS'variable_17'
p4724
aS'=='
p4725
ag85
ag29
aS'if'
p4726
ag6
aS'variable_1'
p4727
aS'->'
p4728
aS'variable_38'
p4729
ag63
aS'variable_48'
p4730
ag13
aS'variable_3'
p4731
aS'->'
p4732
aS'variable_119'
p4733
ag17
aS'variable_121'
p4734
ag29
aS'if'
p4735
ag6
ag52
aS'variable_1'
p4736
aS'->'
p4737
aS'variable_38'
p4738
ag63
aS'variable_122'
p4739
aS'&&'
p4740
aS'variable_7'
p4741
aS'=='
p4742
aS'variable_123'
p4743
ag13
aS'if'
p4744
ag6
aS'func_18'
p4745
ag6
ag18
aS'variable_3'
p4746
aS'->'
p4747
aS'variable_25'
p4748
ag13
ag13
aS'variable_3'
p4749
aS'->'
p4750
aS'variable_119'
p4751
ag17
aS'variable_124'
p4752
ag982
aS'func_19'
p4753
ag6
ag18
aS'variable_3'
p4754
aS'->'
p4755
aS'variable_25'
p4756
ag13
ag29
aS'variable_3'
p4757
aS'->'
p4758
aS'variable_119'
p4759
ag17
aS'variable_121'
p4760
ag29
aS'variable_1'
p4761
aS'->'
p4762
aS'variable_118'
p4763
ag17
aS'variable_1'
p4764
aS'->'
p4765
aS'variable_38'
p4766
ag63
aS'variable_125'
p4767
ag29
aS'variable_1'
p4768
aS'->'
p4769
aS'variable_126'
p4770
ag17
aS'variable_3'
p4771
aS'->'
p4772
aS'variable_119'
p4773
aS'!='
p4774
aS'variable_121'
p4775
ag29
aS'if'
p4776
ag6
aS'variable_2'
p4777
aS'->'
p4778
aS'variable_26'
p4779
aS'!='
p4780
ag85
ag13
aS'if'
p4781
ag6
aS'variable_1'
p4782
aS'->'
p4783
aS'variable_115'
p4784
aS'!='
p4785
aS'variable_1'
p4786
aS'->'
p4787
aS'variable_127'
p4788
aS'&&'
p4789
aS'variable_1'
p4790
aS'->'
p4791
aS'variable_127'
p4792
ag104
ag17
ag85
ag13
aS'int'
p4793
aS'variable_128'
p4794
ag17
aS'variable_1'
p4795
aS'->'
p4796
aS'variable_127'
p4797
ag29
aS'int'
p4798
aS'variable_129'
p4799
ag17
ag310
aS'<<'
p4800
aS'variable_1'
p4801
aS'->'
p4802
aS'variable_38'
p4803
ag63
aS'variable_116'
p4804
ag29
aS'if'
p4805
ag6
aS'variable_128'
p4806
ag104
aS'variable_1'
p4807
aS'->'
p4808
aS'variable_115'
p4809
ag13
aS'variable_128'
p4810
aS'-='
p4811
aS'variable_129'
p4812
ag29
aS'if'
p4813
ag6
ag6
aS'variable_1'
p4814
aS'->'
p4815
aS'variable_115'
p4816
ag223
aS'variable_128'
p4817
ag13
ag104
aS'variable_1'
p4818
aS'->'
p4819
aS'variable_38'
p4820
ag63
aS'variable_43'
p4821
ag13
aS'variable_128'
p4822
ag17
ag6
aS'variable_1'
p4823
aS'->'
p4824
aS'variable_115'
p4825
ag223
aS'variable_1'
p4826
aS'->'
p4827
aS'variable_38'
p4828
ag63
aS'variable_43'
p4829
ag13
ag223
ag310
ag29
aS'if'
p4830
ag6
aS'variable_128'
p4831
ag309
ag85
ag13
aS'variable_128'
p4832
aS'+='
p4833
aS'variable_129'
p4834
ag29
aS'variable_1'
p4835
aS'->'
p4836
aS'variable_127'
p4837
ag17
aS'variable_128'
p4838
ag29
aS'if'
p4839
ag6
aS'variable_4'
p4840
aS'->'
p4841
aS'variable_27'
p4842
ag13
aS'if'
p4843
ag6
ag52
aS'variable_130'
p4844
aS'||'
p4845
aS'variable_3'
p4846
aS'->'
p4847
aS'variable_119'
p4848
aS'=='
p4849
aS'variable_11'
p4850
ag13
aS'if'
p4851
ag6
aS'variable_4'
p4852
aS'->'
p4853
aS'variable_28'
p4854
aS'->'
p4855
aS'variable_115'
p4856
aS'!='
p4857
aS'variable_1'
p4858
aS'->'
p4859
aS'variable_115'
p4860
ag13
aS'if'
p4861
ag6
ag52
ag6
ag6
aS'variable_11'
p4862
aS'=='
p4863
aS'variable_124'
p4864
aS'&&'
p4865
aS'variable_3'
p4866
aS'->'
p4867
aS'variable_119'
p4868
aS'=='
p4869
aS'variable_131'
p4870
ag13
aS'||'
p4871
ag6
aS'variable_11'
p4872
aS'=='
p4873
aS'variable_131'
p4874
aS'&&'
p4875
aS'variable_3'
p4876
aS'->'
p4877
aS'variable_119'
p4878
aS'=='
p4879
aS'variable_124'
p4880
ag13
ag13
ag13
aS'if'
p4881
ag6
aS'variable_12'
p4882
aS'!='
p4883
aS'variable_3'
p4884
aS'->'
p4885
aS'variable_120'
p4886
ag13
aS'variable_4'
p4887
aS'->'
p4888
aS'variable_28'
p4889
aS'->'
p4890
aS'variable_132'
p4891
ag17
aS'variable_4'
p4892
ag29
aS'while'
p4893
ag6
aS'variable_1'
p4894
aS'->'
p4895
aS'variable_115'
p4896
aS'!='
p4897
aS'variable_1'
p4898
aS'->'
p4899
aS'variable_127'
p4900
aS'&&'
p4901
aS'variable_1'
p4902
aS'->'
p4903
aS'variable_127'
p4904
ag104
ag17
ag85
aS'&&'
p4905
aS'variable_1'
p4906
aS'->'
p4907
aS'variable_115'
p4908
aS'!='
p4909
ag6
aS'variable_1'
p4910
aS'->'
p4911
aS'variable_127'
p4912
ag982
ag310
ag13
ag1155
ag6
ag310
aS'<<'
p4913
aS'variable_1'
p4914
aS'->'
p4915
aS'variable_38'
p4916
ag63
aS'variable_116'
p4917
ag13
ag13
aS'if'
p4918
ag6
aS'func_20'
p4919
ag6
aS'variable_1'
p4920
ag13
ag309
ag85
ag13
aS'variable_1'
p4921
aS'->'
p4922
aS'variable_127'
p4923
aS'++'
p4924
ag29
aS'variable_1'
p4925
aS'->'
p4926
aS'variable_127'
p4927
ag1155
ag17
ag310
aS'<<'
p4928
aS'variable_1'
p4929
aS'->'
p4930
aS'variable_38'
p4931
ag63
aS'variable_116'
p4932
ag29
aS'variable_3'
p4933
aS'->'
p4934
aS'variable_28'
p4935
aS'->'
p4936
aS'variable_115'
p4937
ag17
aS'variable_1'
p4938
aS'->'
p4939
aS'variable_127'
p4940
ag29
aS'if'
p4941
ag6
aS'func_21'
p4942
ag6
aS'variable_1'
p4943
ag10
aS'variable_1'
p4944
aS'->'
p4945
aS'variable_133'
p4946
ag10
aS'variable_1'
p4947
aS'->'
p4948
aS'variable_134'
p4949
ag13
ag309
ag85
aS'&&'
p4950
ag6
aS'variable_3'
p4951
aS'->'
p4952
aS'variable_14'
p4953
aS'->'
p4954
aS'variable_135'
p4955
ag18
aS'variable_136'
p4956
ag13
ag13
aS'if'
p4957
ag6
aS'variable_4'
p4958
aS'->'
p4959
aS'variable_27'
p4960
ag13
aS'assert'
p4961
ag6
aS'variable_4'
p4962
aS'->'
p4963
aS'variable_28'
p4964
aS'->'
p4965
aS'variable_137'
p4966
ag63
aS'variable_138'
p4967
ag117
ag85
ag119
ag13
ag29
aa(lp4968
S'static'
p4969
aS'int'
p4970
aS'func_0'
p4971
ag6
aS'variable_0'
p4972
ag8
aS'variable_1'
p4973
ag10
aS'variable_0'
p4974
ag8
aS'variable_2'
p4975
ag13
aS'MpegEncContext'
p4976
ag8
aS'const'
p4977
aS'variable_3'
p4978
ag17
ag18
aS'variable_1'
p4979
aS'->'
p4980
aS'MpegEncContext'
p4981
ag8
aS'const'
p4982
aS'variable_4'
p4983
ag17
ag18
aS'variable_2'
p4984
aS'->'
p4985
aS'unsigned'
p4986
aS'int'
p4987
aS'variable_5'
p4988
ag29
aS'unsigned'
p4989
aS'int'
p4990
aS'variable_6'
p4991
ag29
aS'unsigned'
p4992
aS'int'
p4993
aS'variable_7'
p4994
ag10
aS'variable_8'
p4995
ag10
aS'variable_9'
p4996
ag10
aS'variable_10'
p4997
ag29
aS'int'
p4998
aS'variable_11'
p4999
ag10
aS'variable_12'
p5000
ag29
aS'int'
p5001
aS'variable_13'
p5002
ag29
aS'if'
p5003
ag6
ag6
aS'variable_3'
p5004
aS'->'
p5005
aS'variable_14'
p5006
aS'->'
p5007
aS'variable_15'
p5008
ag18
aS'variable_16'
p5009
ag13
aS'&&'
p5010
ag52
aS'variable_1'
p5011
aS'->'
p5012
aS'variable_17'
p5013
aS'&&'
p5014
ag52
aS'variable_1'
p5015
aS'->'
p5016
aS'variable_18'
p5017
ag13
aS'variable_3'
p5018
aS'->'
p5019
aS'variable_19'
p5020
ag63
aS'variable_20'
p5021
ag17
aS'variable_3'
p5022
aS'->'
p5023
aS'variable_21'
p5024
ag63
aS'variable_22'
p5025
ag29
aS'variable_3'
p5026
aS'->'
p5027
aS'variable_19'
p5028
ag63
aS'variable_23'
p5029
ag17
aS'variable_3'
p5030
aS'->'
p5031
aS'variable_21'
p5032
ag63
aS'variable_24'
p5033
ag29
aS'variable_5'
p5034
ag17
aS'func_1'
p5035
ag6
ag18
aS'variable_3'
p5036
aS'->'
p5037
aS'variable_25'
p5038
ag13
ag29
aS'if'
p5039
ag6
aS'variable_5'
p5040
aS'=='
p5041
ag85
ag13
aS'variable_2'
p5042
aS'->'
p5043
aS'variable_26'
p5044
ag17
ag85
ag29
aS'if'
p5045
ag6
ag52
aS'variable_4'
p5046
aS'->'
p5047
aS'variable_27'
p5048
ag13
aS'variable_3'
p5049
aS'->'
p5050
aS'variable_28'
p5051
ag17
aS'NULL'
p5052
ag29
aS'variable_7'
p5053
ag17
aS'func_2'
p5054
ag6
ag18
aS'variable_3'
p5055
aS'->'
p5056
aS'variable_25'
p5057
ag13
ag29
aS'if'
p5058
ag6
aS'variable_7'
p5059
ag104
ag105
ag13
aS'if'
p5060
ag6
aS'variable_7'
p5061
ag104
ag108
ag13
aS'variable_7'
p5062
aS'-='
p5063
ag111
ag29
aS'variable_1'
p5064
aS'->'
p5065
aS'variable_29'
p5066
ag17
ag85
ag29
aS'variable_7'
p5067
ag17
aS'variable_30'
p5068
ag117
aS'variable_7'
p5069
ag119
ag29
aS'variable_1'
p5070
aS'->'
p5071
aS'variable_7'
p5072
ag17
aS'variable_7'
p5073
ag29
aS'variable_1'
p5074
aS'->'
p5075
aS'variable_31'
p5076
ag17
aS'variable_7'
p5077
ag18
ag128
ag29
aS'variable_3'
p5078
aS'->'
p5079
aS'variable_32'
p5080
ag17
aS'variable_1'
p5081
aS'->'
p5082
aS'variable_7'
p5083
ag29
aS'variable_6'
p5084
ag17
aS'func_3'
p5085
ag6
ag18
aS'variable_3'
p5086
aS'->'
p5087
aS'variable_25'
p5088
ag13
ag29
aS'if'
p5089
ag6
aS'variable_6'
p5090
ag104
ag17
aS'variable_33'
p5091
ag13
aS'if'
p5092
ag6
ag52
aS'variable_2'
p5093
aS'->'
p5094
aS'variable_34'
p5095
ag117
aS'variable_6'
p5096
ag119
ag13
aS'variable_1'
p5097
aS'->'
p5098
aS'variable_35'
p5099
ag17
ag8
aS'variable_2'
p5100
aS'->'
p5101
aS'variable_34'
p5102
ag117
aS'variable_6'
p5103
ag119
ag29
aS'if'
p5104
ag6
ag52
aS'variable_2'
p5105
aS'->'
p5106
aS'variable_36'
p5107
ag117
aS'variable_1'
p5108
aS'->'
p5109
aS'variable_35'
p5110
ag63
aS'variable_37'
p5111
ag119
ag13
aS'variable_1'
p5112
aS'->'
p5113
aS'variable_38'
p5114
ag17
ag8
aS'variable_2'
p5115
aS'->'
p5116
aS'variable_36'
p5117
ag117
aS'variable_1'
p5118
aS'->'
p5119
aS'variable_35'
p5120
ag63
aS'variable_37'
p5121
ag119
ag29
aS'variable_3'
p5122
aS'->'
p5123
aS'variable_14'
p5124
aS'->'
p5125
aS'variable_39'
p5126
ag17
aS'func_4'
p5127
ag6
ag18
aS'variable_1'
p5128
aS'->'
p5129
aS'variable_38'
p5130
ag13
ag29
aS'variable_3'
p5131
aS'->'
p5132
aS'variable_14'
p5133
aS'->'
p5134
aS'variable_40'
p5135
ag17
aS'variable_1'
p5136
aS'->'
p5137
aS'variable_38'
p5138
ag63
aS'variable_41'
p5139
ag29
aS'variable_3'
p5140
aS'->'
p5141
aS'variable_14'
p5142
aS'->'
p5143
aS'variable_42'
p5144
ag17
aS'variable_1'
p5145
aS'->'
p5146
aS'variable_38'
p5147
ag63
aS'variable_43'
p5148
ag29
aS'variable_13'
p5149
ag17
ag6
aS'variable_3'
p5150
aS'->'
p5151
aS'variable_44'
p5152
aS'&&'
p5153
ag6
aS'16'
p5154
ag8
aS'variable_1'
p5155
aS'->'
p5156
aS'variable_38'
p5157
ag63
aS'variable_45'
p5158
aS'!='
p5159
aS'variable_3'
p5160
aS'->'
p5161
aS'variable_14'
p5162
aS'->'
p5163
aS'variable_46'
p5164
aS'||'
p5165
aS'16'
p5166
ag8
aS'variable_1'
p5167
aS'->'
p5168
aS'variable_38'
p5169
ag63
aS'variable_47'
p5170
ag8
ag6
ag222
ag223
aS'variable_1'
p5171
aS'->'
p5172
aS'variable_38'
p5173
ag63
aS'variable_48'
p5174
ag13
aS'!='
p5175
aS'variable_3'
p5176
aS'->'
p5177
aS'variable_14'
p5178
aS'->'
p5179
aS'variable_49'
p5180
aS'||'
p5181
aS'variable_3'
p5182
aS'->'
p5183
aS'variable_14'
p5184
aS'->'
p5185
aS'variable_50'
p5186
aS'!='
p5187
aS'variable_1'
p5188
aS'->'
p5189
aS'variable_38'
p5190
ag63
aS'variable_51'
p5191
aS'||'
p5192
aS'variable_1'
p5193
aS'->'
p5194
aS'variable_52'
p5195
aS'!='
p5196
aS'variable_1'
p5197
aS'->'
p5198
aS'variable_38'
p5199
ag63
aS'variable_53'
p5200
aS'||'
p5201
aS'func_5'
p5202
ag6
aS'variable_1'
p5203
aS'->'
p5204
aS'variable_38'
p5205
ag63
aS'variable_54'
p5206
ag10
aS'variable_3'
p5207
aS'->'
p5208
aS'variable_14'
p5209
aS'->'
p5210
aS'variable_55'
p5211
ag13
ag13
ag13
ag29
aS'if'
p5212
ag6
aS'variable_13'
p5213
aS'&&'
p5214
ag6
aS'variable_1'
p5215
aS'!='
p5216
aS'variable_2'
p5217
aS'||'
p5218
ag6
aS'variable_3'
p5219
aS'->'
p5220
aS'variable_14'
p5221
aS'->'
p5222
aS'variable_56'
p5223
ag18
aS'variable_57'
p5224
ag13
ag13
ag13
aS'variable_3'
p5225
aS'->'
p5226
aS'variable_45'
p5227
ag17
aS'variable_1'
p5228
aS'->'
p5229
aS'variable_38'
p5230
ag63
aS'variable_45'
p5231
ag29
aS'variable_3'
p5232
aS'->'
p5233
aS'variable_47'
p5234
ag17
aS'variable_1'
p5235
aS'->'
p5236
aS'variable_38'
p5237
ag63
aS'variable_47'
p5238
ag8
ag6
ag222
ag223
aS'variable_1'
p5239
aS'->'
p5240
aS'variable_38'
p5241
ag63
aS'variable_48'
p5242
ag13
ag29
aS'variable_1'
p5243
aS'->'
p5244
aS'variable_58'
p5245
ag17
aS'variable_3'
p5246
aS'->'
p5247
aS'variable_45'
p5248
ag8
ag108
ag29
aS'variable_3'
p5249
aS'->'
p5250
aS'variable_59'
p5251
ag17
aS'variable_1'
p5252
aS'->'
p5253
aS'variable_38'
p5254
ag63
aS'variable_53'
p5255
ag309
ag17
ag310
ag29
aS'variable_3'
p5256
aS'->'
p5257
aS'variable_60'
p5258
ag17
aS'16'
p5259
ag8
aS'variable_3'
p5260
aS'->'
p5261
aS'variable_45'
p5262
ag29
aS'variable_3'
p5263
aS'->'
p5264
aS'variable_61'
p5265
ag17
aS'16'
p5266
ag8
aS'variable_3'
p5267
aS'->'
p5268
aS'variable_47'
p5269
ag29
aS'if'
p5270
ag6
aS'variable_13'
p5271
ag13
aS'variable_1'
p5272
aS'->'
p5273
aS'variable_62'
p5274
ag17
ag85
ag29
aS'variable_1'
p5275
aS'->'
p5276
aS'variable_26'
p5277
ag17
ag85
ag29
aS'if'
p5278
ag6
ag52
aS'variable_3'
p5279
aS'->'
p5280
aS'variable_44'
p5281
ag13
aS'if'
p5282
ag6
aS'variable_1'
p5283
aS'!='
p5284
aS'variable_2'
p5285
ag13
aS'if'
p5286
ag6
aS'func_6'
p5287
ag6
aS'variable_3'
p5288
aS'->'
p5289
aS'variable_14'
p5290
aS'->'
p5291
aS'variable_60'
p5292
ag10
aS'16'
p5293
ag13
aS'=='
p5294
aS'variable_3'
p5295
aS'->'
p5296
aS'variable_60'
p5297
aS'&&'
p5298
aS'func_7'
p5299
ag6
aS'variable_3'
p5300
aS'->'
p5301
aS'variable_14'
p5302
aS'->'
p5303
aS'variable_61'
p5304
ag10
aS'16'
p5305
ag8
ag6
ag222
ag223
aS'variable_1'
p5306
aS'->'
p5307
aS'variable_38'
p5308
ag63
aS'variable_48'
p5309
ag13
ag13
aS'=='
p5310
aS'variable_3'
p5311
aS'->'
p5312
aS'variable_61'
p5313
aS'&&'
p5314
ag52
aS'variable_1'
p5315
aS'->'
p5316
aS'variable_38'
p5317
ag63
aS'variable_63'
p5318
aS'&&'
p5319
ag52
aS'variable_1'
p5320
aS'->'
p5321
aS'variable_38'
p5322
ag63
aS'variable_64'
p5323
aS'&&'
p5324
ag6
aS'variable_3'
p5325
aS'->'
p5326
aS'variable_14'
p5327
aS'->'
p5328
aS'variable_60'
p5329
aS'!='
p5330
aS'variable_3'
p5331
aS'->'
p5332
aS'variable_60'
p5333
aS'||'
p5334
aS'variable_3'
p5335
aS'->'
p5336
aS'variable_14'
p5337
aS'->'
p5338
aS'variable_61'
p5339
aS'&&'
p5340
aS'variable_3'
p5341
aS'->'
p5342
aS'variable_61'
p5343
ag13
ag13
aS'variable_3'
p5344
aS'->'
p5345
aS'variable_14'
p5346
aS'->'
p5347
aS'variable_60'
p5348
aS'-='
p5349
ag6
ag222
aS'>>'
p5350
aS'variable_65'
p5351
ag13
ag8
aS'func_8'
p5352
ag6
aS'variable_1'
p5353
aS'->'
p5354
aS'variable_38'
p5355
ag63
aS'variable_63'
p5356
ag10
ag6
ag412
aS'<<'
p5357
aS'variable_65'
p5358
ag13
ag223
ag310
ag13
ag29
aS'variable_3'
p5359
aS'->'
p5360
aS'variable_14'
p5361
aS'->'
p5362
aS'variable_61'
p5363
aS'-='
p5364
ag6
ag310
aS'<<'
p5365
aS'variable_3'
p5366
aS'->'
p5367
aS'variable_59'
p5368
ag13
ag8
aS'func_9'
p5369
ag6
aS'variable_1'
p5370
aS'->'
p5371
aS'variable_38'
p5372
ag63
aS'variable_64'
p5373
ag10
ag6
aS'16'
p5374
aS'>>'
p5375
aS'variable_3'
p5376
aS'->'
p5377
aS'variable_59'
p5378
ag13
ag223
ag310
ag13
ag8
ag6
ag222
ag223
aS'variable_1'
p5379
aS'->'
p5380
aS'variable_38'
p5381
ag63
aS'variable_48'
p5382
ag13
ag29
aS'variable_3'
p5383
aS'->'
p5384
aS'variable_14'
p5385
aS'->'
p5386
aS'variable_55'
p5387
ag17
aS'variable_1'
p5388
aS'->'
p5389
aS'variable_38'
p5390
ag63
aS'variable_54'
p5391
ag29
aS'if'
p5392
ag6
aS'variable_3'
p5393
aS'->'
p5394
aS'variable_14'
p5395
aS'->'
p5396
aS'variable_66'
p5397
aS'->'
p5398
aS'variable_67'
p5399
ag18
aS'variable_68'
p5400
aS'&&'
p5401
ag6
aS'variable_1'
p5402
aS'->'
p5403
aS'variable_38'
p5404
ag63
aS'variable_51'
p5405
aS'!='
p5406
ag412
aS'||'
p5407
aS'variable_1'
p5408
aS'->'
p5409
aS'variable_38'
p5410
ag63
aS'variable_53'
p5411
ag104
ag310
ag13
ag13
aS'if'
p5412
ag6
aS'variable_3'
p5413
aS'->'
p5414
aS'variable_14'
p5415
aS'->'
p5416
aS'variable_50'
p5417
aS'!='
p5418
aS'variable_1'
p5419
aS'->'
p5420
aS'variable_38'
p5421
ag63
aS'variable_51'
p5422
aS'||'
p5423
aS'variable_1'
p5424
aS'->'
p5425
aS'variable_52'
p5426
aS'!='
p5427
aS'variable_1'
p5428
aS'->'
p5429
aS'variable_38'
p5430
ag63
aS'variable_53'
p5431
ag13
aS'if'
p5432
ag6
aS'variable_1'
p5433
aS'->'
p5434
aS'variable_38'
p5435
ag63
aS'variable_51'
p5436
ag104
ag17
ag412
aS'&&'
p5437
aS'variable_1'
p5438
aS'->'
p5439
aS'variable_38'
p5440
ag63
aS'variable_51'
p5441
ag309
ag17
aS'14'
p5442
aS'&&'
p5443
aS'variable_1'
p5444
aS'->'
p5445
aS'variable_38'
p5446
ag63
aS'variable_51'
p5447
aS'!='
p5448
aS'11'
p5449
aS'&&'
p5450
aS'variable_1'
p5451
aS'->'
p5452
aS'variable_38'
p5453
ag63
aS'variable_51'
p5454
aS'!='
p5455
aS'13'
p5456
aS'&&'
p5457
ag6
aS'variable_1'
p5458
aS'->'
p5459
aS'variable_38'
p5460
ag63
aS'variable_51'
p5461
aS'!='
p5462
ag105
aS'||'
p5463
ag52
aS'variable_69'
p5464
ag13
ag13
aS'variable_3'
p5465
aS'->'
p5466
aS'variable_14'
p5467
aS'->'
p5468
aS'variable_50'
p5469
ag17
aS'variable_1'
p5470
aS'->'
p5471
aS'variable_38'
p5472
ag63
aS'variable_51'
p5473
ag29
aS'variable_1'
p5474
aS'->'
p5475
aS'variable_52'
p5476
ag17
aS'variable_1'
p5477
aS'->'
p5478
aS'variable_38'
p5479
ag63
aS'variable_53'
p5480
ag29
aS'variable_1'
p5481
aS'->'
p5482
aS'variable_18'
p5483
ag17
aS'variable_1'
p5484
aS'->'
p5485
aS'variable_38'
p5486
ag63
aS'variable_51'
p5487
ag104
ag412
ag29
aS'variable_3'
p5488
aS'->'
p5489
aS'variable_21'
p5490
ag63
aS'variable_70'
p5491
ag17
aS'variable_1'
p5492
aS'->'
p5493
aS'variable_38'
p5494
ag63
aS'variable_51'
p5495
ag104
ag412
ag552
aS'32'
p5496
ag554
aS'16'
p5497
ag29
aS'if'
p5498
ag6
aS'variable_1'
p5499
aS'->'
p5500
aS'variable_38'
p5501
ag63
aS'variable_71'
p5502
ag13
aS'variable_3'
p5503
aS'->'
p5504
aS'variable_14'
p5505
aS'->'
p5506
aS'variable_72'
p5507
ag17
aS'variable_1'
p5508
aS'->'
p5509
aS'variable_38'
p5510
ag63
aS'variable_73'
p5511
ag104
ag85
ag552
aS'variable_74'
p5512
ag554
aS'variable_75'
p5513
ag29
aS'if'
p5514
ag6
aS'variable_1'
p5515
aS'->'
p5516
aS'variable_38'
p5517
ag63
aS'variable_76'
p5518
ag13
aS'variable_3'
p5519
aS'->'
p5520
aS'variable_14'
p5521
aS'->'
p5522
aS'variable_77'
p5523
ag17
aS'variable_1'
p5524
aS'->'
p5525
aS'variable_38'
p5526
ag63
aS'variable_77'
p5527
ag29
aS'variable_3'
p5528
aS'->'
p5529
aS'variable_14'
p5530
aS'->'
p5531
aS'variable_78'
p5532
ag17
aS'variable_1'
p5533
aS'->'
p5534
aS'variable_38'
p5535
ag63
aS'variable_78'
p5536
ag29
aS'variable_3'
p5537
aS'->'
p5538
aS'variable_14'
p5539
aS'->'
p5540
aS'variable_79'
p5541
ag17
aS'variable_1'
p5542
aS'->'
p5543
aS'variable_38'
p5544
ag63
aS'variable_79'
p5545
ag29
aS'switch'
p5546
ag6
aS'variable_1'
p5547
aS'->'
p5548
aS'variable_38'
p5549
ag63
aS'variable_51'
p5550
ag13
aS'if'
p5551
ag6
aS'variable_65'
p5552
ag13
aS'if'
p5553
ag6
aS'variable_3'
p5554
aS'->'
p5555
aS'variable_14'
p5556
aS'->'
p5557
aS'variable_79'
p5558
aS'=='
p5559
aS'variable_80'
p5560
ag13
aS'variable_3'
p5561
aS'->'
p5562
aS'variable_14'
p5563
aS'->'
p5564
aS'variable_81'
p5565
ag17
aS'variable_82'
p5566
ag29
aS'variable_3'
p5567
aS'->'
p5568
aS'variable_14'
p5569
aS'->'
p5570
aS'variable_81'
p5571
ag17
aS'variable_83'
p5572
ag29
aS'if'
p5573
ag6
aS'variable_69'
p5574
ag13
aS'variable_3'
p5575
aS'->'
p5576
aS'variable_14'
p5577
aS'->'
p5578
aS'variable_81'
p5579
ag17
aS'variable_84'
p5580
ag29
aS'variable_3'
p5581
aS'->'
p5582
aS'variable_14'
p5583
aS'->'
p5584
aS'variable_81'
p5585
ag17
aS'variable_85'
p5586
ag29
aS'if'
p5587
ag6
aS'variable_65'
p5588
ag13
aS'if'
p5589
ag6
aS'variable_3'
p5590
aS'->'
p5591
aS'variable_14'
p5592
aS'->'
p5593
aS'variable_79'
p5594
aS'=='
p5595
aS'variable_80'
p5596
ag13
aS'variable_3'
p5597
aS'->'
p5598
aS'variable_14'
p5599
aS'->'
p5600
aS'variable_81'
p5601
ag17
aS'variable_86'
p5602
ag29
aS'variable_3'
p5603
aS'->'
p5604
aS'variable_14'
p5605
aS'->'
p5606
aS'variable_81'
p5607
ag17
aS'variable_87'
p5608
ag29
aS'if'
p5609
ag6
aS'variable_69'
p5610
ag13
aS'variable_3'
p5611
aS'->'
p5612
aS'variable_14'
p5613
aS'->'
p5614
aS'variable_81'
p5615
ag17
aS'variable_88'
p5616
ag29
aS'variable_3'
p5617
aS'->'
p5618
aS'variable_14'
p5619
aS'->'
p5620
aS'variable_81'
p5621
ag17
aS'variable_89'
p5622
ag29
aS'if'
p5623
ag6
aS'variable_65'
p5624
ag13
aS'if'
p5625
ag6
aS'variable_3'
p5626
aS'->'
p5627
aS'variable_14'
p5628
aS'->'
p5629
aS'variable_79'
p5630
aS'=='
p5631
aS'variable_80'
p5632
ag13
aS'variable_3'
p5633
aS'->'
p5634
aS'variable_14'
p5635
aS'->'
p5636
aS'variable_81'
p5637
ag17
aS'variable_90'
p5638
ag29
aS'variable_3'
p5639
aS'->'
p5640
aS'variable_14'
p5641
aS'->'
p5642
aS'variable_81'
p5643
ag17
aS'variable_91'
p5644
ag29
aS'if'
p5645
ag6
aS'variable_69'
p5646
ag13
aS'variable_3'
p5647
aS'->'
p5648
aS'variable_14'
p5649
aS'->'
p5650
aS'variable_81'
p5651
ag17
aS'variable_92'
p5652
ag29
aS'variable_3'
p5653
aS'->'
p5654
aS'variable_14'
p5655
aS'->'
p5656
aS'variable_81'
p5657
ag17
aS'variable_93'
p5658
ag29
aS'if'
p5659
ag6
aS'variable_65'
p5660
ag13
aS'if'
p5661
ag6
aS'variable_3'
p5662
aS'->'
p5663
aS'variable_14'
p5664
aS'->'
p5665
aS'variable_79'
p5666
aS'=='
p5667
aS'variable_80'
p5668
ag13
aS'variable_3'
p5669
aS'->'
p5670
aS'variable_14'
p5671
aS'->'
p5672
aS'variable_81'
p5673
ag17
aS'variable_94'
p5674
ag29
aS'variable_3'
p5675
aS'->'
p5676
aS'variable_14'
p5677
aS'->'
p5678
aS'variable_81'
p5679
ag17
aS'variable_95'
p5680
ag29
aS'if'
p5681
ag6
aS'variable_69'
p5682
ag13
aS'variable_3'
p5683
aS'->'
p5684
aS'variable_14'
p5685
aS'->'
p5686
aS'variable_81'
p5687
ag17
aS'variable_96'
p5688
ag29
aS'variable_3'
p5689
aS'->'
p5690
aS'variable_14'
p5691
aS'->'
p5692
aS'variable_81'
p5693
ag17
aS'variable_97'
p5694
ag29
aS'if'
p5695
ag6
aS'variable_65'
p5696
ag13
aS'variable_3'
p5697
aS'->'
p5698
aS'variable_14'
p5699
aS'->'
p5700
aS'variable_81'
p5701
ag17
aS'variable_3'
p5702
aS'->'
p5703
aS'variable_14'
p5704
aS'->'
p5705
aS'variable_72'
p5706
aS'=='
p5707
aS'variable_74'
p5708
ag552
aS'variable_98'
p5709
ag554
aS'variable_99'
p5710
ag29
aS'if'
p5711
ag6
aS'variable_3'
p5712
aS'->'
p5713
aS'variable_14'
p5714
aS'->'
p5715
aS'variable_79'
p5716
aS'=='
p5717
aS'variable_80'
p5718
ag13
aS'variable_3'
p5719
aS'->'
p5720
aS'variable_14'
p5721
aS'->'
p5722
aS'variable_81'
p5723
ag17
aS'variable_100'
p5724
ag29
aS'if'
p5725
ag6
aS'variable_69'
p5726
ag13
aS'variable_3'
p5727
aS'->'
p5728
aS'variable_14'
p5729
aS'->'
p5730
aS'variable_81'
p5731
ag17
aS'variable_3'
p5732
aS'->'
p5733
aS'variable_14'
p5734
aS'->'
p5735
aS'variable_72'
p5736
aS'=='
p5737
aS'variable_74'
p5738
ag552
aS'variable_101'
p5739
ag554
aS'variable_102'
p5740
ag29
aS'variable_3'
p5741
aS'->'
p5742
aS'variable_14'
p5743
aS'->'
p5744
aS'variable_81'
p5745
ag17
aS'variable_3'
p5746
aS'->'
p5747
aS'variable_14'
p5748
aS'->'
p5749
aS'func_10'
p5750
ag6
aS'variable_3'
p5751
aS'->'
p5752
aS'variable_14'
p5753
ag10
aS'variable_3'
p5754
aS'->'
p5755
aS'variable_14'
p5756
aS'->'
p5757
aS'variable_66'
p5758
aS'->'
p5759
aS'variable_103'
p5760
ag552
aS'variable_3'
p5761
aS'->'
p5762
aS'variable_14'
p5763
aS'->'
p5764
aS'variable_66'
p5765
aS'->'
p5766
aS'variable_103'
p5767
ag554
aS'variable_3'
p5768
aS'->'
p5769
aS'variable_14'
p5770
aS'->'
p5771
aS'variable_72'
p5772
aS'=='
p5773
aS'variable_74'
p5774
ag552
aS'variable_104'
p5775
ag554
aS'variable_105'
p5776
ag13
ag29
aS'variable_3'
p5777
aS'->'
p5778
aS'variable_14'
p5779
aS'->'
p5780
aS'variable_106'
p5781
ag17
aS'func_11'
p5782
ag6
aS'variable_3'
p5783
aS'->'
p5784
aS'variable_14'
p5785
aS'->'
p5786
aS'variable_66'
p5787
aS'->'
p5788
aS'variable_107'
p5789
ag10
aS'variable_3'
p5790
aS'->'
p5791
aS'variable_14'
p5792
aS'->'
p5793
aS'variable_81'
p5794
ag13
ag29
aS'if'
p5795
ag6
aS'func_12'
p5796
ag6
aS'variable_3'
p5797
ag13
ag309
ag85
ag13
aS'variable_3'
p5798
aS'->'
p5799
aS'variable_27'
p5800
ag17
ag85
ag29
aS'variable_1'
p5801
aS'->'
p5802
aS'variable_108'
p5803
ag17
ag310
ag29
aS'if'
p5804
ag6
aS'func_13'
p5805
ag6
aS'variable_1'
p5806
ag13
ag309
ag85
ag13
aS'if'
p5807
ag6
ag52
aS'variable_109'
p5808
aS'||'
p5809
ag52
ag6
aS'variable_3'
p5810
aS'->'
p5811
aS'variable_14'
p5812
aS'->'
p5813
aS'variable_56'
p5814
ag18
aS'variable_110'
p5815
ag13
ag13
aS'if'
p5816
ag6
aS'func_14'
p5817
ag6
aS'variable_1'
p5818
ag13
ag309
ag85
ag13
aS'for'
p5819
ag6
aS'variable_9'
p5820
ag17
ag310
ag29
aS'variable_9'
p5821
ag309
aS'variable_3'
p5822
aS'->'
p5823
aS'variable_111'
p5824
ag29
aS'variable_9'
p5825
aS'++'
p5826
ag13
aS'variable_0'
p5827
ag8
aS'variable_112'
p5828
ag29
aS'variable_112'
p5829
ag17
aS'variable_1'
p5830
aS'->'
p5831
aS'variable_113'
p5832
ag117
aS'variable_9'
p5833
ag119
ag17
aS'func_15'
p5834
ag6
aS'sizeof'
p5835
ag6
aS'variable_0'
p5836
ag13
ag13
ag29
aS'for'
p5837
ag6
aS'variable_9'
p5838
ag17
ag85
ag29
aS'variable_9'
p5839
ag309
aS'variable_3'
p5840
aS'->'
p5841
aS'variable_111'
p5842
ag29
aS'variable_9'
p5843
aS'++'
p5844
ag13
aS'if'
p5845
ag6
aS'func_16'
p5846
ag6
aS'variable_1'
p5847
aS'->'
p5848
aS'variable_113'
p5849
ag117
aS'variable_9'
p5850
ag119
ag13
ag309
ag85
ag13
aS'if'
p5851
ag6
aS'variable_1'
p5852
aS'=='
p5853
aS'variable_2'
p5854
aS'&&'
p5855
aS'variable_1'
p5856
aS'->'
p5857
aS'variable_114'
p5858
aS'!='
p5859
aS'variable_6'
p5860
ag13
aS'variable_1'
p5861
aS'->'
p5862
aS'variable_114'
p5863
ag17
aS'variable_6'
p5864
ag29
aS'variable_1'
p5865
aS'->'
p5866
aS'variable_115'
p5867
ag17
aS'func_17'
p5868
ag6
ag18
aS'variable_3'
p5869
aS'->'
p5870
aS'variable_25'
p5871
ag10
aS'variable_1'
p5872
aS'->'
p5873
aS'variable_38'
p5874
ag63
aS'variable_116'
p5875
ag13
ag29
aS'variable_1'
p5876
aS'->'
p5877
aS'variable_117'
p5878
ag17
ag85
ag29
aS'variable_1'
p5879
aS'->'
p5880
aS'variable_118'
p5881
ag17
ag85
ag29
aS'variable_11'
p5882
ag17
aS'variable_4'
p5883
aS'->'
p5884
aS'variable_119'
p5885
ag29
aS'variable_12'
p5886
ag17
aS'variable_3'
p5887
aS'->'
p5888
aS'variable_120'
p5889
ag29
aS'variable_3'
p5890
aS'->'
p5891
aS'variable_120'
p5892
ag17
aS'variable_1'
p5893
aS'->'
p5894
aS'variable_17'
p5895
aS'=='
p5896
ag85
ag29
aS'if'
p5897
ag6
aS'variable_1'
p5898
aS'->'
p5899
aS'variable_38'
p5900
ag63
aS'variable_48'
p5901
ag13
aS'variable_3'
p5902
aS'->'
p5903
aS'variable_119'
p5904
ag17
aS'variable_121'
p5905
ag29
aS'if'
p5906
ag6
ag52
aS'variable_1'
p5907
aS'->'
p5908
aS'variable_38'
p5909
ag63
aS'variable_122'
p5910
aS'&&'
p5911
aS'variable_7'
p5912
aS'=='
p5913
aS'variable_123'
p5914
ag13
aS'if'
p5915
ag6
aS'func_18'
p5916
ag6
ag18
aS'variable_3'
p5917
aS'->'
p5918
aS'variable_25'
p5919
ag13
ag13
aS'variable_3'
p5920
aS'->'
p5921
aS'variable_119'
p5922
ag17
aS'variable_124'
p5923
ag982
aS'func_19'
p5924
ag6
ag18
aS'variable_3'
p5925
aS'->'
p5926
aS'variable_25'
p5927
ag13
ag29
aS'variable_3'
p5928
aS'->'
p5929
aS'variable_119'
p5930
ag17
aS'variable_121'
p5931
ag29
aS'variable_1'
p5932
aS'->'
p5933
aS'variable_118'
p5934
ag17
aS'variable_1'
p5935
aS'->'
p5936
aS'variable_38'
p5937
ag63
aS'variable_125'
p5938
ag29
aS'variable_1'
p5939
aS'->'
p5940
aS'variable_126'
p5941
ag17
aS'variable_3'
p5942
aS'->'
p5943
aS'variable_119'
p5944
aS'!='
p5945
aS'variable_121'
p5946
ag29
aS'if'
p5947
ag6
aS'variable_2'
p5948
aS'->'
p5949
aS'variable_26'
p5950
aS'!='
p5951
ag85
ag13
aS'if'
p5952
ag6
aS'variable_1'
p5953
aS'->'
p5954
aS'variable_115'
p5955
aS'!='
p5956
aS'variable_1'
p5957
aS'->'
p5958
aS'variable_127'
p5959
aS'&&'
p5960
aS'variable_1'
p5961
aS'->'
p5962
aS'variable_127'
p5963
ag104
ag17
ag85
ag13
aS'int'
p5964
aS'variable_128'
p5965
ag17
aS'variable_1'
p5966
aS'->'
p5967
aS'variable_127'
p5968
ag29
aS'int'
p5969
aS'variable_129'
p5970
ag17
ag310
aS'<<'
p5971
aS'variable_1'
p5972
aS'->'
p5973
aS'variable_38'
p5974
ag63
aS'variable_116'
p5975
ag29
aS'if'
p5976
ag6
aS'variable_128'
p5977
ag104
aS'variable_1'
p5978
aS'->'
p5979
aS'variable_115'
p5980
ag13
aS'variable_128'
p5981
aS'-='
p5982
aS'variable_129'
p5983
ag29
aS'if'
p5984
ag6
ag6
aS'variable_1'
p5985
aS'->'
p5986
aS'variable_115'
p5987
ag223
aS'variable_128'
p5988
ag13
ag104
aS'variable_1'
p5989
aS'->'
p5990
aS'variable_38'
p5991
ag63
aS'variable_43'
p5992
ag13
aS'variable_128'
p5993
ag17
ag6
aS'variable_1'
p5994
aS'->'
p5995
aS'variable_115'
p5996
ag223
aS'variable_1'
p5997
aS'->'
p5998
aS'variable_38'
p5999
ag63
aS'variable_43'
p6000
ag13
ag223
ag310
ag29
aS'if'
p6001
ag6
aS'variable_128'
p6002
ag309
ag85
ag13
aS'variable_128'
p6003
aS'+='
p6004
aS'variable_129'
p6005
ag29
aS'variable_1'
p6006
aS'->'
p6007
aS'variable_127'
p6008
ag17
aS'variable_128'
p6009
ag29
aS'if'
p6010
ag6
aS'variable_4'
p6011
aS'->'
p6012
aS'variable_27'
p6013
ag13
aS'if'
p6014
ag6
ag52
aS'variable_130'
p6015
aS'||'
p6016
aS'variable_3'
p6017
aS'->'
p6018
aS'variable_119'
p6019
aS'=='
p6020
aS'variable_11'
p6021
ag13
aS'if'
p6022
ag6
aS'variable_4'
p6023
aS'->'
p6024
aS'variable_28'
p6025
aS'->'
p6026
aS'variable_115'
p6027
aS'!='
p6028
aS'variable_1'
p6029
aS'->'
p6030
aS'variable_115'
p6031
ag13
aS'if'
p6032
ag6
ag52
ag6
ag6
aS'variable_11'
p6033
aS'=='
p6034
aS'variable_124'
p6035
aS'&&'
p6036
aS'variable_3'
p6037
aS'->'
p6038
aS'variable_119'
p6039
aS'=='
p6040
aS'variable_131'
p6041
ag13
aS'||'
p6042
ag6
aS'variable_11'
p6043
aS'=='
p6044
aS'variable_131'
p6045
aS'&&'
p6046
aS'variable_3'
p6047
aS'->'
p6048
aS'variable_119'
p6049
aS'=='
p6050
aS'variable_124'
p6051
ag13
ag13
ag13
aS'if'
p6052
ag6
aS'variable_12'
p6053
aS'!='
p6054
aS'variable_3'
p6055
aS'->'
p6056
aS'variable_120'
p6057
ag13
aS'while'
p6058
ag6
aS'variable_1'
p6059
aS'->'
p6060
aS'variable_115'
p6061
aS'!='
p6062
aS'variable_1'
p6063
aS'->'
p6064
aS'variable_127'
p6065
aS'&&'
p6066
aS'variable_1'
p6067
aS'->'
p6068
aS'variable_127'
p6069
ag104
ag17
ag85
aS'&&'
p6070
aS'variable_1'
p6071
aS'->'
p6072
aS'variable_115'
p6073
aS'!='
p6074
ag6
aS'variable_1'
p6075
aS'->'
p6076
aS'variable_127'
p6077
ag982
ag310
ag13
ag1155
ag6
ag310
aS'<<'
p6078
aS'variable_1'
p6079
aS'->'
p6080
aS'variable_38'
p6081
ag63
aS'variable_116'
p6082
ag13
ag13
aS'if'
p6083
ag6
aS'func_20'
p6084
ag6
aS'variable_1'
p6085
ag13
ag309
ag85
ag13
aS'variable_1'
p6086
aS'->'
p6087
aS'variable_127'
p6088
aS'++'
p6089
ag29
aS'variable_1'
p6090
aS'->'
p6091
aS'variable_127'
p6092
ag1155
ag17
ag310
aS'<<'
p6093
aS'variable_1'
p6094
aS'->'
p6095
aS'variable_38'
p6096
ag63
aS'variable_116'
p6097
ag29
aS'variable_3'
p6098
aS'->'
p6099
aS'variable_28'
p6100
aS'->'
p6101
aS'variable_115'
p6102
ag17
aS'variable_1'
p6103
aS'->'
p6104
aS'variable_127'
p6105
ag29
aS'if'
p6106
ag6
aS'func_21'
p6107
ag6
aS'variable_1'
p6108
ag10
aS'variable_1'
p6109
aS'->'
p6110
aS'variable_132'
p6111
ag10
aS'variable_1'
p6112
aS'->'
p6113
aS'variable_133'
p6114
ag13
ag309
ag85
aS'&&'
p6115
ag6
aS'variable_3'
p6116
aS'->'
p6117
aS'variable_14'
p6118
aS'->'
p6119
aS'variable_134'
p6120
ag18
aS'variable_135'
p6121
ag13
ag13
aS'if'
p6122
ag6
aS'variable_4'
p6123
aS'->'
p6124
aS'variable_27'
p6125
ag13
aS'assert'
p6126
ag6
aS'variable_4'
p6127
aS'->'
p6128
aS'variable_28'
p6129
ag13
ag29
aa(lp6130
S'static'
p6131
aS'int'
p6132
aS'func_0'
p6133
ag6
aS'variable_0'
p6134
ag8
aS'variable_1'
p6135
ag10
aS'variable_0'
p6136
ag8
aS'variable_2'
p6137
ag13
aS'MpegEncContext'
p6138
ag8
aS'const'
p6139
aS'variable_3'
p6140
ag17
ag18
aS'variable_1'
p6141
aS'->'
p6142
aS'MpegEncContext'
p6143
ag8
aS'const'
p6144
aS'variable_4'
p6145
ag17
ag18
aS'variable_2'
p6146
aS'->'
p6147
aS'unsigned'
p6148
aS'int'
p6149
aS'variable_5'
p6150
ag29
aS'unsigned'
p6151
aS'int'
p6152
aS'variable_6'
p6153
ag29
aS'unsigned'
p6154
aS'int'
p6155
aS'variable_7'
p6156
ag10
aS'variable_8'
p6157
ag10
aS'variable_9'
p6158
ag10
aS'variable_10'
p6159
ag29
aS'int'
p6160
aS'variable_11'
p6161
ag29
aS'if'
p6162
ag6
ag6
aS'variable_3'
p6163
aS'->'
p6164
aS'variable_12'
p6165
aS'->'
p6166
aS'variable_13'
p6167
ag18
aS'variable_14'
p6168
ag13
aS'&&'
p6169
ag52
aS'variable_1'
p6170
aS'->'
p6171
aS'variable_15'
p6172
aS'&&'
p6173
ag52
aS'variable_1'
p6174
aS'->'
p6175
aS'variable_16'
p6176
ag13
aS'variable_3'
p6177
aS'->'
p6178
aS'variable_17'
p6179
ag63
aS'variable_18'
p6180
ag17
aS'variable_3'
p6181
aS'->'
p6182
aS'variable_19'
p6183
ag63
aS'variable_20'
p6184
ag29
aS'variable_3'
p6185
aS'->'
p6186
aS'variable_17'
p6187
ag63
aS'variable_21'
p6188
ag17
aS'variable_3'
p6189
aS'->'
p6190
aS'variable_19'
p6191
ag63
aS'variable_22'
p6192
ag29
aS'variable_5'
p6193
ag17
aS'func_1'
p6194
ag6
ag18
aS'variable_3'
p6195
aS'->'
p6196
aS'variable_23'
p6197
ag13
ag29
aS'if'
p6198
ag6
aS'variable_5'
p6199
aS'=='
p6200
ag85
ag13
aS'variable_2'
p6201
aS'->'
p6202
aS'variable_24'
p6203
ag17
ag85
ag29
aS'if'
p6204
ag6
ag52
aS'variable_4'
p6205
aS'->'
p6206
aS'variable_25'
p6207
ag13
aS'variable_3'
p6208
aS'->'
p6209
aS'variable_26'
p6210
ag17
aS'NULL'
p6211
ag29
aS'variable_7'
p6212
ag17
aS'func_2'
p6213
ag6
ag18
aS'variable_3'
p6214
aS'->'
p6215
aS'variable_23'
p6216
ag13
ag29
aS'if'
p6217
ag6
aS'variable_7'
p6218
ag104
ag105
ag13
aS'if'
p6219
ag6
aS'variable_7'
p6220
ag104
ag108
ag13
aS'variable_7'
p6221
aS'-='
p6222
ag111
ag29
aS'variable_1'
p6223
aS'->'
p6224
aS'variable_27'
p6225
ag17
ag85
ag29
aS'variable_7'
p6226
ag17
aS'variable_28'
p6227
ag117
aS'variable_7'
p6228
ag119
ag29
aS'variable_1'
p6229
aS'->'
p6230
aS'variable_7'
p6231
ag17
aS'variable_7'
p6232
ag29
aS'variable_1'
p6233
aS'->'
p6234
aS'variable_29'
p6235
ag17
aS'variable_7'
p6236
ag18
ag128
ag29
aS'variable_3'
p6237
aS'->'
p6238
aS'variable_30'
p6239
ag17
aS'variable_1'
p6240
aS'->'
p6241
aS'variable_7'
p6242
ag29
aS'variable_6'
p6243
ag17
aS'func_3'
p6244
ag6
ag18
aS'variable_3'
p6245
aS'->'
p6246
aS'variable_23'
p6247
ag13
ag29
aS'if'
p6248
ag6
aS'variable_6'
p6249
ag104
ag17
aS'variable_31'
p6250
ag13
aS'if'
p6251
ag6
ag52
aS'variable_2'
p6252
aS'->'
p6253
aS'variable_32'
p6254
ag117
aS'variable_6'
p6255
ag119
ag13
aS'variable_1'
p6256
aS'->'
p6257
aS'variable_33'
p6258
ag17
ag8
aS'variable_2'
p6259
aS'->'
p6260
aS'variable_32'
p6261
ag117
aS'variable_6'
p6262
ag119
ag29
aS'if'
p6263
ag6
ag52
aS'variable_2'
p6264
aS'->'
p6265
aS'variable_34'
p6266
ag117
aS'variable_1'
p6267
aS'->'
p6268
aS'variable_33'
p6269
ag63
aS'variable_35'
p6270
ag119
ag13
aS'variable_1'
p6271
aS'->'
p6272
aS'variable_36'
p6273
ag17
ag8
aS'variable_2'
p6274
aS'->'
p6275
aS'variable_34'
p6276
ag117
aS'variable_1'
p6277
aS'->'
p6278
aS'variable_33'
p6279
ag63
aS'variable_35'
p6280
ag119
ag29
aS'variable_3'
p6281
aS'->'
p6282
aS'variable_12'
p6283
aS'->'
p6284
aS'variable_37'
p6285
ag17
aS'func_4'
p6286
ag6
ag18
aS'variable_1'
p6287
aS'->'
p6288
aS'variable_36'
p6289
ag13
ag29
aS'variable_3'
p6290
aS'->'
p6291
aS'variable_12'
p6292
aS'->'
p6293
aS'variable_38'
p6294
ag17
aS'variable_1'
p6295
aS'->'
p6296
aS'variable_36'
p6297
ag63
aS'variable_39'
p6298
ag29
aS'variable_3'
p6299
aS'->'
p6300
aS'variable_12'
p6301
aS'->'
p6302
aS'variable_40'
p6303
ag17
aS'variable_1'
p6304
aS'->'
p6305
aS'variable_36'
p6306
ag63
aS'variable_41'
p6307
ag29
aS'variable_11'
p6308
ag17
ag6
aS'variable_3'
p6309
aS'->'
p6310
aS'variable_42'
p6311
aS'&&'
p6312
ag6
aS'16'
p6313
ag8
aS'variable_1'
p6314
aS'->'
p6315
aS'variable_36'
p6316
ag63
aS'variable_43'
p6317
aS'!='
p6318
aS'variable_3'
p6319
aS'->'
p6320
aS'variable_12'
p6321
aS'->'
p6322
aS'variable_44'
p6323
aS'||'
p6324
aS'16'
p6325
ag8
aS'variable_1'
p6326
aS'->'
p6327
aS'variable_36'
p6328
ag63
aS'variable_45'
p6329
ag8
ag6
ag222
ag223
aS'variable_1'
p6330
aS'->'
p6331
aS'variable_36'
p6332
ag63
aS'variable_46'
p6333
ag13
aS'!='
p6334
aS'variable_3'
p6335
aS'->'
p6336
aS'variable_12'
p6337
aS'->'
p6338
aS'variable_47'
p6339
aS'||'
p6340
aS'variable_3'
p6341
aS'->'
p6342
aS'variable_12'
p6343
aS'->'
p6344
aS'variable_48'
p6345
aS'!='
p6346
aS'variable_1'
p6347
aS'->'
p6348
aS'variable_36'
p6349
ag63
aS'variable_49'
p6350
aS'||'
p6351
aS'variable_1'
p6352
aS'->'
p6353
aS'variable_50'
p6354
aS'!='
p6355
aS'variable_1'
p6356
aS'->'
p6357
aS'variable_36'
p6358
ag63
aS'variable_51'
p6359
aS'||'
p6360
aS'func_5'
p6361
ag6
aS'variable_1'
p6362
aS'->'
p6363
aS'variable_36'
p6364
ag63
aS'variable_52'
p6365
ag10
aS'variable_3'
p6366
aS'->'
p6367
aS'variable_12'
p6368
aS'->'
p6369
aS'variable_53'
p6370
ag13
ag13
ag13
ag29
aS'if'
p6371
ag6
aS'variable_11'
p6372
aS'&&'
p6373
ag6
aS'variable_1'
p6374
aS'!='
p6375
aS'variable_2'
p6376
aS'||'
p6377
ag6
aS'variable_3'
p6378
aS'->'
p6379
aS'variable_12'
p6380
aS'->'
p6381
aS'variable_54'
p6382
ag18
aS'variable_55'
p6383
ag13
ag13
ag13
aS'variable_3'
p6384
aS'->'
p6385
aS'variable_43'
p6386
ag17
aS'variable_1'
p6387
aS'->'
p6388
aS'variable_36'
p6389
ag63
aS'variable_43'
p6390
ag29
aS'variable_3'
p6391
aS'->'
p6392
aS'variable_45'
p6393
ag17
aS'variable_1'
p6394
aS'->'
p6395
aS'variable_36'
p6396
ag63
aS'variable_45'
p6397
ag8
ag6
ag222
ag223
aS'variable_1'
p6398
aS'->'
p6399
aS'variable_36'
p6400
ag63
aS'variable_46'
p6401
ag13
ag29
aS'variable_1'
p6402
aS'->'
p6403
aS'variable_56'
p6404
ag17
aS'variable_3'
p6405
aS'->'
p6406
aS'variable_43'
p6407
ag8
ag108
ag29
aS'variable_3'
p6408
aS'->'
p6409
aS'variable_57'
p6410
ag17
aS'variable_1'
p6411
aS'->'
p6412
aS'variable_36'
p6413
ag63
aS'variable_51'
p6414
ag309
ag17
ag310
ag29
aS'variable_3'
p6415
aS'->'
p6416
aS'variable_58'
p6417
ag17
aS'16'
p6418
ag8
aS'variable_3'
p6419
aS'->'
p6420
aS'variable_43'
p6421
ag29
aS'variable_3'
p6422
aS'->'
p6423
aS'variable_59'
p6424
ag17
aS'16'
p6425
ag8
aS'variable_3'
p6426
aS'->'
p6427
aS'variable_45'
p6428
ag29
aS'if'
p6429
ag6
aS'variable_11'
p6430
ag13
aS'variable_1'
p6431
aS'->'
p6432
aS'variable_60'
p6433
ag17
ag85
ag29
aS'variable_1'
p6434
aS'->'
p6435
aS'variable_24'
p6436
ag17
ag85
ag29
aS'if'
p6437
ag6
ag52
aS'variable_3'
p6438
aS'->'
p6439
aS'variable_42'
p6440
ag13
aS'if'
p6441
ag6
aS'variable_1'
p6442
aS'!='
p6443
aS'variable_2'
p6444
ag13
aS'if'
p6445
ag6
aS'func_6'
p6446
ag6
aS'variable_3'
p6447
aS'->'
p6448
aS'variable_12'
p6449
aS'->'
p6450
aS'variable_58'
p6451
ag10
aS'16'
p6452
ag13
aS'=='
p6453
aS'variable_3'
p6454
aS'->'
p6455
aS'variable_58'
p6456
aS'&&'
p6457
aS'func_7'
p6458
ag6
aS'variable_3'
p6459
aS'->'
p6460
aS'variable_12'
p6461
aS'->'
p6462
aS'variable_59'
p6463
ag10
aS'16'
p6464
ag8
ag6
ag222
ag223
aS'variable_1'
p6465
aS'->'
p6466
aS'variable_36'
p6467
ag63
aS'variable_46'
p6468
ag13
ag13
aS'=='
p6469
aS'variable_3'
p6470
aS'->'
p6471
aS'variable_59'
p6472
aS'&&'
p6473
ag52
aS'variable_1'
p6474
aS'->'
p6475
aS'variable_36'
p6476
ag63
aS'variable_61'
p6477
aS'&&'
p6478
ag52
aS'variable_1'
p6479
aS'->'
p6480
aS'variable_36'
p6481
ag63
aS'variable_62'
p6482
aS'&&'
p6483
ag6
aS'variable_3'
p6484
aS'->'
p6485
aS'variable_12'
p6486
aS'->'
p6487
aS'variable_58'
p6488
aS'!='
p6489
aS'variable_3'
p6490
aS'->'
p6491
aS'variable_58'
p6492
aS'||'
p6493
aS'variable_3'
p6494
aS'->'
p6495
aS'variable_12'
p6496
aS'->'
p6497
aS'variable_59'
p6498
aS'&&'
p6499
aS'variable_3'
p6500
aS'->'
p6501
aS'variable_59'
p6502
ag13
ag13
aS'variable_3'
p6503
aS'->'
p6504
aS'variable_12'
p6505
aS'->'
p6506
aS'variable_58'
p6507
aS'-='
p6508
ag6
ag222
aS'>>'
p6509
aS'variable_63'
p6510
ag13
ag8
aS'func_8'
p6511
ag6
aS'variable_1'
p6512
aS'->'
p6513
aS'variable_36'
p6514
ag63
aS'variable_61'
p6515
ag10
ag6
ag412
aS'<<'
p6516
aS'variable_63'
p6517
ag13
ag223
ag310
ag13
ag29
aS'variable_3'
p6518
aS'->'
p6519
aS'variable_12'
p6520
aS'->'
p6521
aS'variable_59'
p6522
aS'-='
p6523
ag6
ag310
aS'<<'
p6524
aS'variable_3'
p6525
aS'->'
p6526
aS'variable_57'
p6527
ag13
ag8
aS'func_9'
p6528
ag6
aS'variable_1'
p6529
aS'->'
p6530
aS'variable_36'
p6531
ag63
aS'variable_62'
p6532
ag10
ag6
aS'16'
p6533
aS'>>'
p6534
aS'variable_3'
p6535
aS'->'
p6536
aS'variable_57'
p6537
ag13
ag223
ag310
ag13
ag8
ag6
ag222
ag223
aS'variable_1'
p6538
aS'->'
p6539
aS'variable_36'
p6540
ag63
aS'variable_46'
p6541
ag13
ag29
aS'variable_3'
p6542
aS'->'
p6543
aS'variable_12'
p6544
aS'->'
p6545
aS'variable_53'
p6546
ag17
aS'variable_1'
p6547
aS'->'
p6548
aS'variable_36'
p6549
ag63
aS'variable_52'
p6550
ag29
aS'if'
p6551
ag6
aS'variable_3'
p6552
aS'->'
p6553
aS'variable_12'
p6554
aS'->'
p6555
aS'variable_64'
p6556
aS'->'
p6557
aS'variable_65'
p6558
ag18
aS'variable_66'
p6559
aS'&&'
p6560
ag6
aS'variable_1'
p6561
aS'->'
p6562
aS'variable_36'
p6563
ag63
aS'variable_49'
p6564
aS'!='
p6565
ag412
aS'||'
p6566
aS'variable_1'
p6567
aS'->'
p6568
aS'variable_36'
p6569
ag63
aS'variable_51'
p6570
ag104
ag310
ag13
ag13
aS'if'
p6571
ag6
aS'variable_3'
p6572
aS'->'
p6573
aS'variable_12'
p6574
aS'->'
p6575
aS'variable_48'
p6576
aS'!='
p6577
aS'variable_1'
p6578
aS'->'
p6579
aS'variable_36'
p6580
ag63
aS'variable_49'
p6581
aS'||'
p6582
aS'variable_1'
p6583
aS'->'
p6584
aS'variable_50'
p6585
aS'!='
p6586
aS'variable_1'
p6587
aS'->'
p6588
aS'variable_36'
p6589
ag63
aS'variable_51'
p6590
ag13
aS'if'
p6591
ag6
aS'variable_1'
p6592
aS'->'
p6593
aS'variable_36'
p6594
ag63
aS'variable_49'
p6595
ag104
ag17
ag412
aS'&&'
p6596
aS'variable_1'
p6597
aS'->'
p6598
aS'variable_36'
p6599
ag63
aS'variable_49'
p6600
ag309
ag17
aS'14'
p6601
aS'&&'
p6602
aS'variable_1'
p6603
aS'->'
p6604
aS'variable_36'
p6605
ag63
aS'variable_49'
p6606
aS'!='
p6607
aS'11'
p6608
aS'&&'
p6609
aS'variable_1'
p6610
aS'->'
p6611
aS'variable_36'
p6612
ag63
aS'variable_49'
p6613
aS'!='
p6614
aS'13'
p6615
aS'&&'
p6616
ag6
aS'variable_1'
p6617
aS'->'
p6618
aS'variable_36'
p6619
ag63
aS'variable_49'
p6620
aS'!='
p6621
ag105
aS'||'
p6622
ag52
aS'variable_67'
p6623
ag13
ag13
aS'variable_3'
p6624
aS'->'
p6625
aS'variable_12'
p6626
aS'->'
p6627
aS'variable_48'
p6628
ag17
aS'variable_1'
p6629
aS'->'
p6630
aS'variable_36'
p6631
ag63
aS'variable_49'
p6632
ag29
aS'variable_1'
p6633
aS'->'
p6634
aS'variable_50'
p6635
ag17
aS'variable_1'
p6636
aS'->'
p6637
aS'variable_36'
p6638
ag63
aS'variable_51'
p6639
ag29
aS'variable_1'
p6640
aS'->'
p6641
aS'variable_16'
p6642
ag17
aS'variable_1'
p6643
aS'->'
p6644
aS'variable_36'
p6645
ag63
aS'variable_49'
p6646
ag104
ag412
ag29
aS'variable_3'
p6647
aS'->'
p6648
aS'variable_19'
p6649
ag63
aS'variable_68'
p6650
ag17
aS'variable_1'
p6651
aS'->'
p6652
aS'variable_36'
p6653
ag63
aS'variable_49'
p6654
ag104
ag412
ag552
aS'32'
p6655
ag554
aS'16'
p6656
ag29
aS'if'
p6657
ag6
aS'variable_1'
p6658
aS'->'
p6659
aS'variable_36'
p6660
ag63
aS'variable_69'
p6661
ag13
aS'variable_3'
p6662
aS'->'
p6663
aS'variable_12'
p6664
aS'->'
p6665
aS'variable_70'
p6666
ag17
aS'variable_1'
p6667
aS'->'
p6668
aS'variable_36'
p6669
ag63
aS'variable_71'
p6670
ag104
ag85
ag552
aS'variable_72'
p6671
ag554
aS'variable_73'
p6672
ag29
aS'if'
p6673
ag6
aS'variable_1'
p6674
aS'->'
p6675
aS'variable_36'
p6676
ag63
aS'variable_74'
p6677
ag13
aS'variable_3'
p6678
aS'->'
p6679
aS'variable_12'
p6680
aS'->'
p6681
aS'variable_75'
p6682
ag17
aS'variable_1'
p6683
aS'->'
p6684
aS'variable_36'
p6685
ag63
aS'variable_75'
p6686
ag29
aS'variable_3'
p6687
aS'->'
p6688
aS'variable_12'
p6689
aS'->'
p6690
aS'variable_76'
p6691
ag17
aS'variable_1'
p6692
aS'->'
p6693
aS'variable_36'
p6694
ag63
aS'variable_76'
p6695
ag29
aS'variable_3'
p6696
aS'->'
p6697
aS'variable_12'
p6698
aS'->'
p6699
aS'variable_77'
p6700
ag17
aS'variable_1'
p6701
aS'->'
p6702
aS'variable_36'
p6703
ag63
aS'variable_77'
p6704
ag29
aS'switch'
p6705
ag6
aS'variable_1'
p6706
aS'->'
p6707
aS'variable_36'
p6708
ag63
aS'variable_49'
p6709
ag13
aS'if'
p6710
ag6
aS'variable_63'
p6711
ag13
aS'if'
p6712
ag6
aS'variable_3'
p6713
aS'->'
p6714
aS'variable_12'
p6715
aS'->'
p6716
aS'variable_77'
p6717
aS'=='
p6718
aS'variable_78'
p6719
ag13
aS'variable_3'
p6720
aS'->'
p6721
aS'variable_12'
p6722
aS'->'
p6723
aS'variable_79'
p6724
ag17
aS'variable_80'
p6725
ag29
aS'variable_3'
p6726
aS'->'
p6727
aS'variable_12'
p6728
aS'->'
p6729
aS'variable_79'
p6730
ag17
aS'variable_81'
p6731
ag29
aS'if'
p6732
ag6
aS'variable_67'
p6733
ag13
aS'variable_3'
p6734
aS'->'
p6735
aS'variable_12'
p6736
aS'->'
p6737
aS'variable_79'
p6738
ag17
aS'variable_82'
p6739
ag29
aS'variable_3'
p6740
aS'->'
p6741
aS'variable_12'
p6742
aS'->'
p6743
aS'variable_79'
p6744
ag17
aS'variable_83'
p6745
ag29
aS'if'
p6746
ag6
aS'variable_63'
p6747
ag13
aS'if'
p6748
ag6
aS'variable_3'
p6749
aS'->'
p6750
aS'variable_12'
p6751
aS'->'
p6752
aS'variable_77'
p6753
aS'=='
p6754
aS'variable_78'
p6755
ag13
aS'variable_3'
p6756
aS'->'
p6757
aS'variable_12'
p6758
aS'->'
p6759
aS'variable_79'
p6760
ag17
aS'variable_84'
p6761
ag29
aS'variable_3'
p6762
aS'->'
p6763
aS'variable_12'
p6764
aS'->'
p6765
aS'variable_79'
p6766
ag17
aS'variable_85'
p6767
ag29
aS'if'
p6768
ag6
aS'variable_67'
p6769
ag13
aS'variable_3'
p6770
aS'->'
p6771
aS'variable_12'
p6772
aS'->'
p6773
aS'variable_79'
p6774
ag17
aS'variable_86'
p6775
ag29
aS'variable_3'
p6776
aS'->'
p6777
aS'variable_12'
p6778
aS'->'
p6779
aS'variable_79'
p6780
ag17
aS'variable_87'
p6781
ag29
aS'if'
p6782
ag6
aS'variable_63'
p6783
ag13
aS'if'
p6784
ag6
aS'variable_3'
p6785
aS'->'
p6786
aS'variable_12'
p6787
aS'->'
p6788
aS'variable_77'
p6789
aS'=='
p6790
aS'variable_78'
p6791
ag13
aS'variable_3'
p6792
aS'->'
p6793
aS'variable_12'
p6794
aS'->'
p6795
aS'variable_79'
p6796
ag17
aS'variable_88'
p6797
ag29
aS'variable_3'
p6798
aS'->'
p6799
aS'variable_12'
p6800
aS'->'
p6801
aS'variable_79'
p6802
ag17
aS'variable_89'
p6803
ag29
aS'if'
p6804
ag6
aS'variable_67'
p6805
ag13
aS'variable_3'
p6806
aS'->'
p6807
aS'variable_12'
p6808
aS'->'
p6809
aS'variable_79'
p6810
ag17
aS'variable_90'
p6811
ag29
aS'variable_3'
p6812
aS'->'
p6813
aS'variable_12'
p6814
aS'->'
p6815
aS'variable_79'
p6816
ag17
aS'variable_91'
p6817
ag29
aS'if'
p6818
ag6
aS'variable_63'
p6819
ag13
aS'if'
p6820
ag6
aS'variable_3'
p6821
aS'->'
p6822
aS'variable_12'
p6823
aS'->'
p6824
aS'variable_77'
p6825
aS'=='
p6826
aS'variable_78'
p6827
ag13
aS'variable_3'
p6828
aS'->'
p6829
aS'variable_12'
p6830
aS'->'
p6831
aS'variable_79'
p6832
ag17
aS'variable_92'
p6833
ag29
aS'variable_3'
p6834
aS'->'
p6835
aS'variable_12'
p6836
aS'->'
p6837
aS'variable_79'
p6838
ag17
aS'variable_93'
p6839
ag29
aS'if'
p6840
ag6
aS'variable_67'
p6841
ag13
aS'variable_3'
p6842
aS'->'
p6843
aS'variable_12'
p6844
aS'->'
p6845
aS'variable_79'
p6846
ag17
aS'variable_94'
p6847
ag29
aS'variable_3'
p6848
aS'->'
p6849
aS'variable_12'
p6850
aS'->'
p6851
aS'variable_79'
p6852
ag17
aS'variable_95'
p6853
ag29
aS'if'
p6854
ag6
aS'variable_63'
p6855
ag13
aS'variable_3'
p6856
aS'->'
p6857
aS'variable_12'
p6858
aS'->'
p6859
aS'variable_79'
p6860
ag17
aS'variable_3'
p6861
aS'->'
p6862
aS'variable_12'
p6863
aS'->'
p6864
aS'variable_70'
p6865
aS'=='
p6866
aS'variable_72'
p6867
ag552
aS'variable_96'
p6868
ag554
aS'variable_97'
p6869
ag29
aS'if'
p6870
ag6
aS'variable_3'
p6871
aS'->'
p6872
aS'variable_12'
p6873
aS'->'
p6874
aS'variable_77'
p6875
aS'=='
p6876
aS'variable_78'
p6877
ag13
aS'variable_3'
p6878
aS'->'
p6879
aS'variable_12'
p6880
aS'->'
p6881
aS'variable_79'
p6882
ag17
aS'variable_98'
p6883
ag29
aS'if'
p6884
ag6
aS'variable_67'
p6885
ag13
aS'variable_3'
p6886
aS'->'
p6887
aS'variable_12'
p6888
aS'->'
p6889
aS'variable_79'
p6890
ag17
aS'variable_3'
p6891
aS'->'
p6892
aS'variable_12'
p6893
aS'->'
p6894
aS'variable_70'
p6895
aS'=='
p6896
aS'variable_72'
p6897
ag552
aS'variable_99'
p6898
ag554
aS'variable_100'
p6899
ag29
aS'variable_3'
p6900
aS'->'
p6901
aS'variable_12'
p6902
aS'->'
p6903
aS'variable_79'
p6904
ag17
aS'variable_3'
p6905
aS'->'
p6906
aS'variable_12'
p6907
aS'->'
p6908
aS'func_10'
p6909
ag6
aS'variable_3'
p6910
aS'->'
p6911
aS'variable_12'
p6912
ag10
aS'variable_3'
p6913
aS'->'
p6914
aS'variable_12'
p6915
aS'->'
p6916
aS'variable_64'
p6917
aS'->'
p6918
aS'variable_101'
p6919
ag552
aS'variable_3'
p6920
aS'->'
p6921
aS'variable_12'
p6922
aS'->'
p6923
aS'variable_64'
p6924
aS'->'
p6925
aS'variable_101'
p6926
ag554
aS'variable_3'
p6927
aS'->'
p6928
aS'variable_12'
p6929
aS'->'
p6930
aS'variable_70'
p6931
aS'=='
p6932
aS'variable_72'
p6933
ag552
aS'variable_102'
p6934
ag554
aS'variable_103'
p6935
ag13
ag29
aS'variable_3'
p6936
aS'->'
p6937
aS'variable_12'
p6938
aS'->'
p6939
aS'variable_104'
p6940
ag17
aS'func_11'
p6941
ag6
aS'variable_3'
p6942
aS'->'
p6943
aS'variable_12'
p6944
aS'->'
p6945
aS'variable_64'
p6946
aS'->'
p6947
aS'variable_105'
p6948
ag10
aS'variable_3'
p6949
aS'->'
p6950
aS'variable_12'
p6951
aS'->'
p6952
aS'variable_79'
p6953
ag13
ag29
aS'if'
p6954
ag6
aS'func_12'
p6955
ag6
aS'variable_3'
p6956
ag13
ag309
ag85
ag13
aS'variable_3'
p6957
aS'->'
p6958
aS'variable_25'
p6959
ag17
ag85
ag29
aS'variable_1'
p6960
aS'->'
p6961
aS'variable_106'
p6962
ag17
ag310
ag29
aS'if'
p6963
ag6
aS'func_13'
p6964
ag6
aS'variable_1'
p6965
ag13
ag309
ag85
ag13
aS'if'
p6966
ag6
ag52
aS'variable_107'
p6967
aS'||'
p6968
ag52
ag6
aS'variable_3'
p6969
aS'->'
p6970
aS'variable_12'
p6971
aS'->'
p6972
aS'variable_54'
p6973
ag18
aS'variable_108'
p6974
ag13
ag13
aS'if'
p6975
ag6
aS'func_14'
p6976
ag6
aS'variable_1'
p6977
ag13
ag309
ag85
ag13
aS'for'
p6978
ag6
aS'variable_9'
p6979
ag17
ag310
ag29
aS'variable_9'
p6980
ag309
aS'variable_3'
p6981
aS'->'
p6982
aS'variable_109'
p6983
ag29
aS'variable_9'
p6984
aS'++'
p6985
ag13
aS'variable_0'
p6986
ag8
aS'variable_110'
p6987
ag29
aS'variable_110'
p6988
ag17
aS'variable_1'
p6989
aS'->'
p6990
aS'variable_111'
p6991
ag117
aS'variable_9'
p6992
ag119
ag17
aS'func_15'
p6993
ag6
aS'sizeof'
p6994
ag6
aS'variable_0'
p6995
ag13
ag13
ag29
aS'for'
p6996
ag6
aS'variable_9'
p6997
ag17
ag85
ag29
aS'variable_9'
p6998
ag309
aS'variable_3'
p6999
aS'->'
p7000
aS'variable_109'
p7001
ag29
aS'variable_9'
p7002
aS'++'
p7003
ag13
aS'if'
p7004
ag6
aS'func_16'
p7005
ag6
aS'variable_1'
p7006
aS'->'
p7007
aS'variable_111'
p7008
ag117
aS'variable_9'
p7009
ag119
ag13
ag309
ag85
ag13
aS'if'
p7010
ag6
aS'variable_1'
p7011
aS'=='
p7012
aS'variable_2'
p7013
aS'&&'
p7014
aS'variable_1'
p7015
aS'->'
p7016
aS'variable_112'
p7017
aS'!='
p7018
aS'variable_6'
p7019
ag13
aS'variable_1'
p7020
aS'->'
p7021
aS'variable_112'
p7022
ag17
aS'variable_6'
p7023
ag29
aS'variable_1'
p7024
aS'->'
p7025
aS'variable_113'
p7026
ag17
aS'func_17'
p7027
ag6
ag18
aS'variable_3'
p7028
aS'->'
p7029
aS'variable_23'
p7030
ag10
aS'variable_1'
p7031
aS'->'
p7032
aS'variable_36'
p7033
ag63
aS'variable_114'
p7034
ag13
ag29
aS'variable_1'
p7035
aS'->'
p7036
aS'variable_115'
p7037
ag17
ag85
ag29
aS'variable_1'
p7038
aS'->'
p7039
aS'variable_116'
p7040
ag17
ag85
ag29
aS'if'
p7041
ag6
aS'variable_1'
p7042
aS'->'
p7043
aS'variable_36'
p7044
ag63
aS'variable_46'
p7045
ag13
aS'if'
p7046
ag6
ag52
aS'variable_1'
p7047
aS'->'
p7048
aS'variable_36'
p7049
ag63
aS'variable_117'
p7050
aS'&&'
p7051
aS'variable_7'
p7052
aS'=='
p7053
aS'variable_118'
p7054
ag13
aS'if'
p7055
ag6
aS'variable_2'
p7056
aS'->'
p7057
aS'variable_24'
p7058
aS'!='
p7059
ag85
ag13
aS'if'
p7060
ag6
aS'variable_4'
p7061
aS'->'
p7062
aS'variable_25'
p7063
ag13
aS'assert'
p7064
ag6
aS'variable_4'
p7065
aS'->'
p7066
aS'variable_26'
p7067
aS'->'
p7068
aS'variable_119'
p7069
ag63
aS'variable_120'
p7070
aS'!='
p7071
aS'variable_121'
p7072
ag13
ag29
aa(lp7073
S'static'
p7074
aS'int'
p7075
aS'func_0'
p7076
ag6
aS'variable_0'
p7077
ag8
aS'variable_1'
p7078
ag10
aS'variable_0'
p7079
ag8
aS'variable_2'
p7080
ag13
aS'MpegEncContext'
p7081
ag8
aS'const'
p7082
aS'variable_3'
p7083
ag17
ag18
aS'variable_1'
p7084
aS'->'
p7085
aS'MpegEncContext'
p7086
ag8
aS'const'
p7087
aS'variable_4'
p7088
ag17
ag18
aS'variable_2'
p7089
aS'->'
p7090
aS'unsigned'
p7091
aS'int'
p7092
aS'variable_5'
p7093
ag29
aS'unsigned'
p7094
aS'int'
p7095
aS'variable_6'
p7096
ag29
aS'unsigned'
p7097
aS'int'
p7098
aS'variable_7'
p7099
ag10
aS'variable_8'
p7100
ag10
aS'variable_9'
p7101
ag10
aS'variable_10'
p7102
ag29
aS'int'
p7103
aS'variable_11'
p7104
ag29
aS'if'
p7105
ag6
ag6
aS'variable_3'
p7106
aS'->'
p7107
aS'variable_12'
p7108
aS'->'
p7109
aS'variable_13'
p7110
ag18
aS'variable_14'
p7111
ag13
aS'&&'
p7112
ag52
aS'variable_1'
p7113
aS'->'
p7114
aS'variable_15'
p7115
aS'&&'
p7116
ag52
aS'variable_1'
p7117
aS'->'
p7118
aS'variable_16'
p7119
ag13
aS'variable_3'
p7120
aS'->'
p7121
aS'variable_17'
p7122
ag63
aS'variable_18'
p7123
ag17
aS'variable_3'
p7124
aS'->'
p7125
aS'variable_19'
p7126
ag63
aS'variable_20'
p7127
ag29
aS'variable_3'
p7128
aS'->'
p7129
aS'variable_17'
p7130
ag63
aS'variable_21'
p7131
ag17
aS'variable_3'
p7132
aS'->'
p7133
aS'variable_19'
p7134
ag63
aS'variable_22'
p7135
ag29
aS'variable_5'
p7136
ag17
aS'func_1'
p7137
ag6
ag18
aS'variable_3'
p7138
aS'->'
p7139
aS'variable_23'
p7140
ag13
ag29
aS'if'
p7141
ag6
aS'variable_5'
p7142
aS'=='
p7143
ag85
ag13
aS'variable_2'
p7144
aS'->'
p7145
aS'variable_24'
p7146
ag17
ag85
ag29
aS'if'
p7147
ag6
ag52
aS'variable_4'
p7148
aS'->'
p7149
aS'variable_25'
p7150
ag13
aS'variable_3'
p7151
aS'->'
p7152
aS'variable_26'
p7153
ag17
aS'NULL'
p7154
ag29
aS'variable_7'
p7155
ag17
aS'func_2'
p7156
ag6
ag18
aS'variable_3'
p7157
aS'->'
p7158
aS'variable_23'
p7159
ag13
ag29
aS'if'
p7160
ag6
aS'variable_7'
p7161
ag104
ag105
ag13
aS'if'
p7162
ag6
aS'variable_7'
p7163
ag104
ag108
ag13
aS'variable_7'
p7164
aS'-='
p7165
ag111
ag29
aS'variable_1'
p7166
aS'->'
p7167
aS'variable_27'
p7168
ag17
ag85
ag29
aS'variable_7'
p7169
ag17
aS'variable_28'
p7170
ag117
aS'variable_7'
p7171
ag119
ag29
aS'variable_1'
p7172
aS'->'
p7173
aS'variable_7'
p7174
ag17
aS'variable_7'
p7175
ag29
aS'variable_1'
p7176
aS'->'
p7177
aS'variable_29'
p7178
ag17
aS'variable_7'
p7179
ag18
ag128
ag29
aS'variable_3'
p7180
aS'->'
p7181
aS'variable_30'
p7182
ag17
aS'variable_1'
p7183
aS'->'
p7184
aS'variable_7'
p7185
ag29
aS'variable_6'
p7186
ag17
aS'func_3'
p7187
ag6
ag18
aS'variable_3'
p7188
aS'->'
p7189
aS'variable_23'
p7190
ag13
ag29
aS'if'
p7191
ag6
aS'variable_6'
p7192
ag104
ag17
aS'variable_31'
p7193
ag13
aS'if'
p7194
ag6
ag52
aS'variable_2'
p7195
aS'->'
p7196
aS'variable_32'
p7197
ag117
aS'variable_6'
p7198
ag119
ag13
aS'variable_1'
p7199
aS'->'
p7200
aS'variable_33'
p7201
ag17
ag8
aS'variable_2'
p7202
aS'->'
p7203
aS'variable_32'
p7204
ag117
aS'variable_6'
p7205
ag119
ag29
aS'if'
p7206
ag6
ag52
aS'variable_2'
p7207
aS'->'
p7208
aS'variable_34'
p7209
ag117
aS'variable_1'
p7210
aS'->'
p7211
aS'variable_33'
p7212
ag63
aS'variable_35'
p7213
ag119
ag13
aS'variable_1'
p7214
aS'->'
p7215
aS'variable_36'
p7216
ag17
ag8
aS'variable_2'
p7217
aS'->'
p7218
aS'variable_34'
p7219
ag117
aS'variable_1'
p7220
aS'->'
p7221
aS'variable_33'
p7222
ag63
aS'variable_35'
p7223
ag119
ag29
aS'variable_3'
p7224
aS'->'
p7225
aS'variable_12'
p7226
aS'->'
p7227
aS'variable_37'
p7228
ag17
aS'func_4'
p7229
ag6
ag18
aS'variable_1'
p7230
aS'->'
p7231
aS'variable_36'
p7232
ag13
ag29
aS'variable_3'
p7233
aS'->'
p7234
aS'variable_12'
p7235
aS'->'
p7236
aS'variable_38'
p7237
ag17
aS'variable_1'
p7238
aS'->'
p7239
aS'variable_36'
p7240
ag63
aS'variable_39'
p7241
ag29
aS'variable_3'
p7242
aS'->'
p7243
aS'variable_12'
p7244
aS'->'
p7245
aS'variable_40'
p7246
ag17
aS'variable_1'
p7247
aS'->'
p7248
aS'variable_36'
p7249
ag63
aS'variable_41'
p7250
ag29
aS'variable_11'
p7251
ag17
ag6
aS'variable_3'
p7252
aS'->'
p7253
aS'variable_42'
p7254
aS'&&'
p7255
ag6
aS'16'
p7256
ag8
aS'variable_1'
p7257
aS'->'
p7258
aS'variable_36'
p7259
ag63
aS'variable_43'
p7260
aS'!='
p7261
aS'variable_3'
p7262
aS'->'
p7263
aS'variable_12'
p7264
aS'->'
p7265
aS'variable_44'
p7266
aS'||'
p7267
aS'16'
p7268
ag8
aS'variable_1'
p7269
aS'->'
p7270
aS'variable_36'
p7271
ag63
aS'variable_45'
p7272
ag8
ag6
ag222
ag223
aS'variable_1'
p7273
aS'->'
p7274
aS'variable_36'
p7275
ag63
aS'variable_46'
p7276
ag13
aS'!='
p7277
aS'variable_3'
p7278
aS'->'
p7279
aS'variable_12'
p7280
aS'->'
p7281
aS'variable_47'
p7282
aS'||'
p7283
aS'variable_3'
p7284
aS'->'
p7285
aS'variable_12'
p7286
aS'->'
p7287
aS'variable_48'
p7288
aS'!='
p7289
aS'variable_1'
p7290
aS'->'
p7291
aS'variable_36'
p7292
ag63
aS'variable_49'
p7293
aS'||'
p7294
aS'variable_1'
p7295
aS'->'
p7296
aS'variable_50'
p7297
aS'!='
p7298
aS'variable_1'
p7299
aS'->'
p7300
aS'variable_36'
p7301
ag63
aS'variable_51'
p7302
aS'||'
p7303
aS'func_5'
p7304
ag6
aS'variable_1'
p7305
aS'->'
p7306
aS'variable_36'
p7307
ag63
aS'variable_52'
p7308
ag10
aS'variable_3'
p7309
aS'->'
p7310
aS'variable_12'
p7311
aS'->'
p7312
aS'variable_53'
p7313
ag13
ag13
ag13
ag29
aS'if'
p7314
ag6
aS'variable_11'
p7315
aS'&&'
p7316
ag6
aS'variable_1'
p7317
aS'!='
p7318
aS'variable_2'
p7319
aS'||'
p7320
ag6
aS'variable_3'
p7321
aS'->'
p7322
aS'variable_12'
p7323
aS'->'
p7324
aS'variable_54'
p7325
ag18
aS'variable_55'
p7326
ag13
ag13
ag13
aS'variable_3'
p7327
aS'->'
p7328
aS'variable_43'
p7329
ag17
aS'variable_1'
p7330
aS'->'
p7331
aS'variable_36'
p7332
ag63
aS'variable_43'
p7333
ag29
aS'variable_3'
p7334
aS'->'
p7335
aS'variable_45'
p7336
ag17
aS'variable_1'
p7337
aS'->'
p7338
aS'variable_36'
p7339
ag63
aS'variable_45'
p7340
ag8
ag6
ag222
ag223
aS'variable_1'
p7341
aS'->'
p7342
aS'variable_36'
p7343
ag63
aS'variable_46'
p7344
ag13
ag29
aS'variable_1'
p7345
aS'->'
p7346
aS'variable_56'
p7347
ag17
aS'variable_3'
p7348
aS'->'
p7349
aS'variable_43'
p7350
ag8
ag108
ag29
aS'variable_3'
p7351
aS'->'
p7352
aS'variable_57'
p7353
ag17
aS'variable_1'
p7354
aS'->'
p7355
aS'variable_36'
p7356
ag63
aS'variable_51'
p7357
ag309
ag17
ag310
ag29
aS'variable_3'
p7358
aS'->'
p7359
aS'variable_58'
p7360
ag17
aS'16'
p7361
ag8
aS'variable_3'
p7362
aS'->'
p7363
aS'variable_43'
p7364
ag29
aS'variable_3'
p7365
aS'->'
p7366
aS'variable_59'
p7367
ag17
aS'16'
p7368
ag8
aS'variable_3'
p7369
aS'->'
p7370
aS'variable_45'
p7371
ag29
aS'if'
p7372
ag6
aS'variable_11'
p7373
ag13
aS'variable_1'
p7374
aS'->'
p7375
aS'variable_60'
p7376
ag17
ag85
ag29
aS'variable_1'
p7377
aS'->'
p7378
aS'variable_24'
p7379
ag17
ag85
ag29
aS'if'
p7380
ag6
ag52
aS'variable_3'
p7381
aS'->'
p7382
aS'variable_42'
p7383
ag13
aS'if'
p7384
ag6
aS'variable_1'
p7385
aS'!='
p7386
aS'variable_2'
p7387
ag13
aS'if'
p7388
ag6
aS'func_6'
p7389
ag6
aS'variable_3'
p7390
aS'->'
p7391
aS'variable_12'
p7392
aS'->'
p7393
aS'variable_58'
p7394
ag10
aS'16'
p7395
ag13
aS'=='
p7396
aS'variable_3'
p7397
aS'->'
p7398
aS'variable_58'
p7399
aS'&&'
p7400
aS'func_7'
p7401
ag6
aS'variable_3'
p7402
aS'->'
p7403
aS'variable_12'
p7404
aS'->'
p7405
aS'variable_59'
p7406
ag10
aS'16'
p7407
ag8
ag6
ag222
ag223
aS'variable_1'
p7408
aS'->'
p7409
aS'variable_36'
p7410
ag63
aS'variable_46'
p7411
ag13
ag13
aS'=='
p7412
aS'variable_3'
p7413
aS'->'
p7414
aS'variable_59'
p7415
aS'&&'
p7416
ag52
aS'variable_1'
p7417
aS'->'
p7418
aS'variable_36'
p7419
ag63
aS'variable_61'
p7420
aS'&&'
p7421
ag52
aS'variable_1'
p7422
aS'->'
p7423
aS'variable_36'
p7424
ag63
aS'variable_62'
p7425
aS'&&'
p7426
ag6
aS'variable_3'
p7427
aS'->'
p7428
aS'variable_12'
p7429
aS'->'
p7430
aS'variable_58'
p7431
aS'!='
p7432
aS'variable_3'
p7433
aS'->'
p7434
aS'variable_58'
p7435
aS'||'
p7436
aS'variable_3'
p7437
aS'->'
p7438
aS'variable_12'
p7439
aS'->'
p7440
aS'variable_59'
p7441
aS'&&'
p7442
aS'variable_3'
p7443
aS'->'
p7444
aS'variable_59'
p7445
ag13
ag13
aS'variable_3'
p7446
aS'->'
p7447
aS'variable_12'
p7448
aS'->'
p7449
aS'variable_58'
p7450
aS'-='
p7451
ag6
ag222
aS'>>'
p7452
aS'variable_63'
p7453
ag13
ag8
aS'func_8'
p7454
ag6
aS'variable_1'
p7455
aS'->'
p7456
aS'variable_36'
p7457
ag63
aS'variable_61'
p7458
ag10
ag6
ag412
aS'<<'
p7459
aS'variable_63'
p7460
ag13
ag223
ag310
ag13
ag29
aS'variable_3'
p7461
aS'->'
p7462
aS'variable_12'
p7463
aS'->'
p7464
aS'variable_59'
p7465
aS'-='
p7466
ag6
ag310
aS'<<'
p7467
aS'variable_3'
p7468
aS'->'
p7469
aS'variable_57'
p7470
ag13
ag8
aS'func_9'
p7471
ag6
aS'variable_1'
p7472
aS'->'
p7473
aS'variable_36'
p7474
ag63
aS'variable_62'
p7475
ag10
ag6
aS'16'
p7476
aS'>>'
p7477
aS'variable_3'
p7478
aS'->'
p7479
aS'variable_57'
p7480
ag13
ag223
ag310
ag13
ag8
ag6
ag222
ag223
aS'variable_1'
p7481
aS'->'
p7482
aS'variable_36'
p7483
ag63
aS'variable_46'
p7484
ag13
ag29
aS'variable_3'
p7485
aS'->'
p7486
aS'variable_12'
p7487
aS'->'
p7488
aS'variable_53'
p7489
ag17
aS'variable_1'
p7490
aS'->'
p7491
aS'variable_36'
p7492
ag63
aS'variable_52'
p7493
ag29
aS'if'
p7494
ag6
aS'variable_3'
p7495
aS'->'
p7496
aS'variable_12'
p7497
aS'->'
p7498
aS'variable_64'
p7499
aS'->'
p7500
aS'variable_65'
p7501
ag18
aS'variable_66'
p7502
aS'&&'
p7503
ag6
aS'variable_1'
p7504
aS'->'
p7505
aS'variable_36'
p7506
ag63
aS'variable_49'
p7507
aS'!='
p7508
ag412
aS'||'
p7509
aS'variable_1'
p7510
aS'->'
p7511
aS'variable_36'
p7512
ag63
aS'variable_51'
p7513
ag104
ag310
ag13
ag13
aS'if'
p7514
ag6
aS'variable_3'
p7515
aS'->'
p7516
aS'variable_12'
p7517
aS'->'
p7518
aS'variable_48'
p7519
aS'!='
p7520
aS'variable_1'
p7521
aS'->'
p7522
aS'variable_36'
p7523
ag63
aS'variable_49'
p7524
aS'||'
p7525
aS'variable_1'
p7526
aS'->'
p7527
aS'variable_50'
p7528
aS'!='
p7529
aS'variable_1'
p7530
aS'->'
p7531
aS'variable_36'
p7532
ag63
aS'variable_51'
p7533
ag13
aS'if'
p7534
ag6
aS'variable_1'
p7535
aS'->'
p7536
aS'variable_36'
p7537
ag63
aS'variable_49'
p7538
ag104
ag17
ag412
aS'&&'
p7539
aS'variable_1'
p7540
aS'->'
p7541
aS'variable_36'
p7542
ag63
aS'variable_49'
p7543
ag309
ag17
aS'14'
p7544
aS'&&'
p7545
aS'variable_1'
p7546
aS'->'
p7547
aS'variable_36'
p7548
ag63
aS'variable_49'
p7549
aS'!='
p7550
aS'11'
p7551
aS'&&'
p7552
aS'variable_1'
p7553
aS'->'
p7554
aS'variable_36'
p7555
ag63
aS'variable_49'
p7556
aS'!='
p7557
aS'13'
p7558
aS'&&'
p7559
ag6
aS'variable_1'
p7560
aS'->'
p7561
aS'variable_36'
p7562
ag63
aS'variable_49'
p7563
aS'!='
p7564
ag105
aS'||'
p7565
ag52
aS'variable_67'
p7566
ag13
ag13
aS'variable_3'
p7567
aS'->'
p7568
aS'variable_12'
p7569
aS'->'
p7570
aS'variable_48'
p7571
ag17
aS'variable_1'
p7572
aS'->'
p7573
aS'variable_36'
p7574
ag63
aS'variable_49'
p7575
ag29
aS'variable_1'
p7576
aS'->'
p7577
aS'variable_50'
p7578
ag17
aS'variable_1'
p7579
aS'->'
p7580
aS'variable_36'
p7581
ag63
aS'variable_51'
p7582
ag29
aS'variable_1'
p7583
aS'->'
p7584
aS'variable_16'
p7585
ag17
aS'variable_1'
p7586
aS'->'
p7587
aS'variable_36'
p7588
ag63
aS'variable_49'
p7589
ag104
ag412
ag29
aS'variable_3'
p7590
aS'->'
p7591
aS'variable_19'
p7592
ag63
aS'variable_68'
p7593
ag17
aS'variable_1'
p7594
aS'->'
p7595
aS'variable_36'
p7596
ag63
aS'variable_49'
p7597
ag104
ag412
ag552
aS'32'
p7598
ag554
aS'16'
p7599
ag29
aS'if'
p7600
ag6
aS'variable_1'
p7601
aS'->'
p7602
aS'variable_36'
p7603
ag63
aS'variable_69'
p7604
ag13
aS'variable_3'
p7605
aS'->'
p7606
aS'variable_12'
p7607
aS'->'
p7608
aS'variable_70'
p7609
ag17
aS'variable_1'
p7610
aS'->'
p7611
aS'variable_36'
p7612
ag63
aS'variable_71'
p7613
ag104
ag85
ag552
aS'variable_72'
p7614
ag554
aS'variable_73'
p7615
ag29
aS'if'
p7616
ag6
aS'variable_1'
p7617
aS'->'
p7618
aS'variable_36'
p7619
ag63
aS'variable_74'
p7620
ag13
aS'variable_3'
p7621
aS'->'
p7622
aS'variable_12'
p7623
aS'->'
p7624
aS'variable_75'
p7625
ag17
aS'variable_1'
p7626
aS'->'
p7627
aS'variable_36'
p7628
ag63
aS'variable_75'
p7629
ag29
aS'variable_3'
p7630
aS'->'
p7631
aS'variable_12'
p7632
aS'->'
p7633
aS'variable_76'
p7634
ag17
aS'variable_1'
p7635
aS'->'
p7636
aS'variable_36'
p7637
ag63
aS'variable_76'
p7638
ag29
aS'variable_3'
p7639
aS'->'
p7640
aS'variable_12'
p7641
aS'->'
p7642
aS'variable_77'
p7643
ag17
aS'variable_1'
p7644
aS'->'
p7645
aS'variable_36'
p7646
ag63
aS'variable_77'
p7647
ag29
aS'switch'
p7648
ag6
aS'variable_1'
p7649
aS'->'
p7650
aS'variable_36'
p7651
ag63
aS'variable_49'
p7652
ag13
aS'if'
p7653
ag6
aS'variable_63'
p7654
ag13
aS'if'
p7655
ag6
aS'variable_3'
p7656
aS'->'
p7657
aS'variable_12'
p7658
aS'->'
p7659
aS'variable_77'
p7660
aS'=='
p7661
aS'variable_78'
p7662
ag13
aS'variable_3'
p7663
aS'->'
p7664
aS'variable_12'
p7665
aS'->'
p7666
aS'variable_79'
p7667
ag17
aS'variable_80'
p7668
ag29
aS'variable_3'
p7669
aS'->'
p7670
aS'variable_12'
p7671
aS'->'
p7672
aS'variable_79'
p7673
ag17
aS'variable_81'
p7674
ag29
aS'if'
p7675
ag6
aS'variable_67'
p7676
ag13
aS'variable_3'
p7677
aS'->'
p7678
aS'variable_12'
p7679
aS'->'
p7680
aS'variable_79'
p7681
ag17
aS'variable_82'
p7682
ag29
aS'variable_3'
p7683
aS'->'
p7684
aS'variable_12'
p7685
aS'->'
p7686
aS'variable_79'
p7687
ag17
aS'variable_83'
p7688
ag29
aS'if'
p7689
ag6
aS'variable_63'
p7690
ag13
aS'if'
p7691
ag6
aS'variable_3'
p7692
aS'->'
p7693
aS'variable_12'
p7694
aS'->'
p7695
aS'variable_77'
p7696
aS'=='
p7697
aS'variable_78'
p7698
ag13
aS'variable_3'
p7699
aS'->'
p7700
aS'variable_12'
p7701
aS'->'
p7702
aS'variable_79'
p7703
ag17
aS'variable_84'
p7704
ag29
aS'variable_3'
p7705
aS'->'
p7706
aS'variable_12'
p7707
aS'->'
p7708
aS'variable_79'
p7709
ag17
aS'variable_85'
p7710
ag29
aS'if'
p7711
ag6
aS'variable_67'
p7712
ag13
aS'variable_3'
p7713
aS'->'
p7714
aS'variable_12'
p7715
aS'->'
p7716
aS'variable_79'
p7717
ag17
aS'variable_86'
p7718
ag29
aS'variable_3'
p7719
aS'->'
p7720
aS'variable_12'
p7721
aS'->'
p7722
aS'variable_79'
p7723
ag17
aS'variable_87'
p7724
ag29
aS'if'
p7725
ag6
aS'variable_63'
p7726
ag13
aS'if'
p7727
ag6
aS'variable_3'
p7728
aS'->'
p7729
aS'variable_12'
p7730
aS'->'
p7731
aS'variable_77'
p7732
aS'=='
p7733
aS'variable_78'
p7734
ag13
aS'variable_3'
p7735
aS'->'
p7736
aS'variable_12'
p7737
aS'->'
p7738
aS'variable_79'
p7739
ag17
aS'variable_88'
p7740
ag29
aS'variable_3'
p7741
aS'->'
p7742
aS'variable_12'
p7743
aS'->'
p7744
aS'variable_79'
p7745
ag17
aS'variable_89'
p7746
ag29
aS'if'
p7747
ag6
aS'variable_67'
p7748
ag13
aS'variable_3'
p7749
aS'->'
p7750
aS'variable_12'
p7751
aS'->'
p7752
aS'variable_79'
p7753
ag17
aS'variable_90'
p7754
ag29
aS'variable_3'
p7755
aS'->'
p7756
aS'variable_12'
p7757
aS'->'
p7758
aS'variable_79'
p7759
ag17
aS'variable_91'
p7760
ag29
aS'if'
p7761
ag6
aS'variable_63'
p7762
ag13
aS'if'
p7763
ag6
aS'variable_3'
p7764
aS'->'
p7765
aS'variable_12'
p7766
aS'->'
p7767
aS'variable_77'
p7768
aS'=='
p7769
aS'variable_78'
p7770
ag13
aS'variable_3'
p7771
aS'->'
p7772
aS'variable_12'
p7773
aS'->'
p7774
aS'variable_79'
p7775
ag17
aS'variable_92'
p7776
ag29
aS'variable_3'
p7777
aS'->'
p7778
aS'variable_12'
p7779
aS'->'
p7780
aS'variable_79'
p7781
ag17
aS'variable_93'
p7782
ag29
aS'if'
p7783
ag6
aS'variable_67'
p7784
ag13
aS'variable_3'
p7785
aS'->'
p7786
aS'variable_12'
p7787
aS'->'
p7788
aS'variable_79'
p7789
ag17
aS'variable_94'
p7790
ag29
aS'variable_3'
p7791
aS'->'
p7792
aS'variable_12'
p7793
aS'->'
p7794
aS'variable_79'
p7795
ag17
aS'variable_95'
p7796
ag29
aS'if'
p7797
ag6
aS'variable_63'
p7798
ag13
aS'variable_3'
p7799
aS'->'
p7800
aS'variable_12'
p7801
aS'->'
p7802
aS'variable_79'
p7803
ag17
aS'variable_3'
p7804
aS'->'
p7805
aS'variable_12'
p7806
aS'->'
p7807
aS'variable_70'
p7808
aS'=='
p7809
aS'variable_72'
p7810
ag552
aS'variable_96'
p7811
ag554
aS'variable_97'
p7812
ag29
aS'if'
p7813
ag6
aS'variable_3'
p7814
aS'->'
p7815
aS'variable_12'
p7816
aS'->'
p7817
aS'variable_77'
p7818
aS'=='
p7819
aS'variable_78'
p7820
ag13
aS'variable_3'
p7821
aS'->'
p7822
aS'variable_12'
p7823
aS'->'
p7824
aS'variable_79'
p7825
ag17
aS'variable_98'
p7826
ag29
aS'if'
p7827
ag6
aS'variable_67'
p7828
ag13
aS'variable_3'
p7829
aS'->'
p7830
aS'variable_12'
p7831
aS'->'
p7832
aS'variable_79'
p7833
ag17
aS'variable_3'
p7834
aS'->'
p7835
aS'variable_12'
p7836
aS'->'
p7837
aS'variable_70'
p7838
aS'=='
p7839
aS'variable_72'
p7840
ag552
aS'variable_99'
p7841
ag554
aS'variable_100'
p7842
ag29
aS'variable_3'
p7843
aS'->'
p7844
aS'variable_12'
p7845
aS'->'
p7846
aS'variable_79'
p7847
ag17
aS'variable_3'
p7848
aS'->'
p7849
aS'variable_12'
p7850
aS'->'
p7851
aS'func_10'
p7852
ag6
aS'variable_3'
p7853
aS'->'
p7854
aS'variable_12'
p7855
ag10
aS'variable_3'
p7856
aS'->'
p7857
aS'variable_12'
p7858
aS'->'
p7859
aS'variable_64'
p7860
aS'->'
p7861
aS'variable_101'
p7862
ag552
aS'variable_3'
p7863
aS'->'
p7864
aS'variable_12'
p7865
aS'->'
p7866
aS'variable_64'
p7867
aS'->'
p7868
aS'variable_101'
p7869
ag554
aS'variable_3'
p7870
aS'->'
p7871
aS'variable_12'
p7872
aS'->'
p7873
aS'variable_70'
p7874
aS'=='
p7875
aS'variable_72'
p7876
ag552
aS'variable_102'
p7877
ag554
aS'variable_103'
p7878
ag13
ag29
aS'variable_3'
p7879
aS'->'
p7880
aS'variable_12'
p7881
aS'->'
p7882
aS'variable_104'
p7883
ag17
aS'func_11'
p7884
ag6
aS'variable_3'
p7885
aS'->'
p7886
aS'variable_12'
p7887
aS'->'
p7888
aS'variable_64'
p7889
aS'->'
p7890
aS'variable_105'
p7891
ag10
aS'variable_3'
p7892
aS'->'
p7893
aS'variable_12'
p7894
aS'->'
p7895
aS'variable_79'
p7896
ag13
ag29
aS'if'
p7897
ag6
aS'func_12'
p7898
ag6
aS'variable_3'
p7899
ag13
ag309
ag85
ag13
aS'variable_3'
p7900
aS'->'
p7901
aS'variable_25'
p7902
ag17
ag85
ag29
aS'variable_1'
p7903
aS'->'
p7904
aS'variable_106'
p7905
ag17
ag310
ag29
aS'if'
p7906
ag6
aS'func_13'
p7907
ag6
aS'variable_1'
p7908
ag13
ag309
ag85
ag13
aS'if'
p7909
ag6
ag52
aS'variable_107'
p7910
aS'||'
p7911
ag52
ag6
aS'variable_3'
p7912
aS'->'
p7913
aS'variable_12'
p7914
aS'->'
p7915
aS'variable_54'
p7916
ag18
aS'variable_108'
p7917
ag13
ag13
aS'if'
p7918
ag6
aS'func_14'
p7919
ag6
aS'variable_1'
p7920
ag13
ag309
ag85
ag13
aS'for'
p7921
ag6
aS'variable_9'
p7922
ag17
ag310
ag29
aS'variable_9'
p7923
ag309
aS'variable_3'
p7924
aS'->'
p7925
aS'variable_109'
p7926
ag29
aS'variable_9'
p7927
aS'++'
p7928
ag13
aS'variable_0'
p7929
ag8
aS'variable_110'
p7930
ag29
aS'variable_110'
p7931
ag17
aS'variable_1'
p7932
aS'->'
p7933
aS'variable_111'
p7934
ag117
aS'variable_9'
p7935
ag119
ag17
aS'func_15'
p7936
ag6
aS'sizeof'
p7937
ag6
aS'variable_0'
p7938
ag13
ag13
ag29
aS'for'
p7939
ag6
aS'variable_9'
p7940
ag17
ag85
ag29
aS'variable_9'
p7941
ag309
aS'variable_3'
p7942
aS'->'
p7943
aS'variable_109'
p7944
ag29
aS'variable_9'
p7945
aS'++'
p7946
ag13
aS'if'
p7947
ag6
aS'func_16'
p7948
ag6
aS'variable_1'
p7949
aS'->'
p7950
aS'variable_111'
p7951
ag117
aS'variable_9'
p7952
ag119
ag13
ag309
ag85
ag13
aS'if'
p7953
ag6
aS'variable_1'
p7954
aS'=='
p7955
aS'variable_2'
p7956
aS'&&'
p7957
aS'variable_1'
p7958
aS'->'
p7959
aS'variable_112'
p7960
aS'!='
p7961
aS'variable_6'
p7962
ag13
aS'variable_1'
p7963
aS'->'
p7964
aS'variable_112'
p7965
ag17
aS'variable_6'
p7966
ag29
aS'variable_1'
p7967
aS'->'
p7968
aS'variable_113'
p7969
ag17
aS'func_17'
p7970
ag6
ag18
aS'variable_3'
p7971
aS'->'
p7972
aS'variable_23'
p7973
ag10
aS'variable_1'
p7974
aS'->'
p7975
aS'variable_36'
p7976
ag63
aS'variable_114'
p7977
ag13
ag29
aS'variable_1'
p7978
aS'->'
p7979
aS'variable_115'
p7980
ag17
ag85
ag29
aS'variable_1'
p7981
aS'->'
p7982
aS'variable_116'
p7983
ag17
ag85
ag29
aS'if'
p7984
ag6
aS'variable_1'
p7985
aS'->'
p7986
aS'variable_36'
p7987
ag63
aS'variable_46'
p7988
ag13
aS'if'
p7989
ag6
ag52
aS'variable_1'
p7990
aS'->'
p7991
aS'variable_36'
p7992
ag63
aS'variable_117'
p7993
aS'&&'
p7994
aS'variable_7'
p7995
aS'=='
p7996
aS'variable_118'
p7997
ag13
aS'if'
p7998
ag6
aS'variable_2'
p7999
aS'->'
p8000
aS'variable_24'
p8001
aS'!='
p8002
ag85
ag13
aS'if'
p8003
ag6
aS'variable_4'
p8004
aS'->'
p8005
aS'variable_25'
p8006
ag13
aS'assert'
p8007
ag6
aS'variable_4'
p8008
aS'->'
p8009
aS'variable_26'
p8010
aS'->'
p8011
aS'variable_119'
p8012
ag63
aS'variable_120'
p8013
ag117
ag85
ag119
ag13
ag29
aa(lp8014
S'static'
p8015
aS'int'
p8016
aS'func_0'
p8017
ag6
aS'variable_0'
p8018
ag8
aS'variable_1'
p8019
ag10
aS'variable_0'
p8020
ag8
aS'variable_2'
p8021
ag13
aS'MpegEncContext'
p8022
ag8
aS'const'
p8023
aS'variable_3'
p8024
ag17
ag18
aS'variable_1'
p8025
aS'->'
p8026
aS'MpegEncContext'
p8027
ag8
aS'const'
p8028
aS'variable_4'
p8029
ag17
ag18
aS'variable_2'
p8030
aS'->'
p8031
aS'unsigned'
p8032
aS'int'
p8033
aS'variable_5'
p8034
ag29
aS'unsigned'
p8035
aS'int'
p8036
aS'variable_6'
p8037
ag29
aS'unsigned'
p8038
aS'int'
p8039
aS'variable_7'
p8040
ag10
aS'variable_8'
p8041
ag10
aS'variable_9'
p8042
ag10
aS'variable_10'
p8043
ag29
aS'int'
p8044
aS'variable_11'
p8045
ag29
aS'if'
p8046
ag6
ag6
aS'variable_3'
p8047
aS'->'
p8048
aS'variable_12'
p8049
aS'->'
p8050
aS'variable_13'
p8051
ag18
aS'variable_14'
p8052
ag13
aS'&&'
p8053
ag52
aS'variable_1'
p8054
aS'->'
p8055
aS'variable_15'
p8056
aS'&&'
p8057
ag52
aS'variable_1'
p8058
aS'->'
p8059
aS'variable_16'
p8060
ag13
aS'variable_3'
p8061
aS'->'
p8062
aS'variable_17'
p8063
ag63
aS'variable_18'
p8064
ag17
aS'variable_3'
p8065
aS'->'
p8066
aS'variable_19'
p8067
ag63
aS'variable_20'
p8068
ag29
aS'variable_3'
p8069
aS'->'
p8070
aS'variable_17'
p8071
ag63
aS'variable_21'
p8072
ag17
aS'variable_3'
p8073
aS'->'
p8074
aS'variable_19'
p8075
ag63
aS'variable_22'
p8076
ag29
aS'variable_5'
p8077
ag17
aS'func_1'
p8078
ag6
ag18
aS'variable_3'
p8079
aS'->'
p8080
aS'variable_23'
p8081
ag13
ag29
aS'if'
p8082
ag6
aS'variable_5'
p8083
aS'=='
p8084
ag85
ag13
aS'variable_2'
p8085
aS'->'
p8086
aS'variable_24'
p8087
ag17
ag85
ag29
aS'if'
p8088
ag6
ag52
aS'variable_4'
p8089
aS'->'
p8090
aS'variable_25'
p8091
ag13
aS'variable_3'
p8092
aS'->'
p8093
aS'variable_26'
p8094
ag17
aS'NULL'
p8095
ag29
aS'variable_7'
p8096
ag17
aS'func_2'
p8097
ag6
ag18
aS'variable_3'
p8098
aS'->'
p8099
aS'variable_23'
p8100
ag13
ag29
aS'if'
p8101
ag6
aS'variable_7'
p8102
ag104
ag105
ag13
aS'if'
p8103
ag6
aS'variable_7'
p8104
ag104
ag108
ag13
aS'variable_7'
p8105
aS'-='
p8106
ag111
ag29
aS'variable_1'
p8107
aS'->'
p8108
aS'variable_27'
p8109
ag17
ag85
ag29
aS'variable_7'
p8110
ag17
aS'variable_28'
p8111
ag117
aS'variable_7'
p8112
ag119
ag29
aS'variable_1'
p8113
aS'->'
p8114
aS'variable_7'
p8115
ag17
aS'variable_7'
p8116
ag29
aS'variable_1'
p8117
aS'->'
p8118
aS'variable_29'
p8119
ag17
aS'variable_7'
p8120
ag18
ag128
ag29
aS'variable_3'
p8121
aS'->'
p8122
aS'variable_30'
p8123
ag17
aS'variable_1'
p8124
aS'->'
p8125
aS'variable_7'
p8126
ag29
aS'variable_6'
p8127
ag17
aS'func_3'
p8128
ag6
ag18
aS'variable_3'
p8129
aS'->'
p8130
aS'variable_23'
p8131
ag13
ag29
aS'if'
p8132
ag6
aS'variable_6'
p8133
ag104
ag17
aS'variable_31'
p8134
ag13
aS'if'
p8135
ag6
ag52
aS'variable_2'
p8136
aS'->'
p8137
aS'variable_32'
p8138
ag117
aS'variable_6'
p8139
ag119
ag13
aS'variable_1'
p8140
aS'->'
p8141
aS'variable_33'
p8142
ag17
ag8
aS'variable_2'
p8143
aS'->'
p8144
aS'variable_32'
p8145
ag117
aS'variable_6'
p8146
ag119
ag29
aS'if'
p8147
ag6
ag52
aS'variable_2'
p8148
aS'->'
p8149
aS'variable_34'
p8150
ag117
aS'variable_1'
p8151
aS'->'
p8152
aS'variable_33'
p8153
ag63
aS'variable_35'
p8154
ag119
ag13
aS'variable_1'
p8155
aS'->'
p8156
aS'variable_36'
p8157
ag17
ag8
aS'variable_2'
p8158
aS'->'
p8159
aS'variable_34'
p8160
ag117
aS'variable_1'
p8161
aS'->'
p8162
aS'variable_33'
p8163
ag63
aS'variable_35'
p8164
ag119
ag29
aS'variable_3'
p8165
aS'->'
p8166
aS'variable_12'
p8167
aS'->'
p8168
aS'variable_37'
p8169
ag17
aS'func_4'
p8170
ag6
ag18
aS'variable_1'
p8171
aS'->'
p8172
aS'variable_36'
p8173
ag13
ag29
aS'variable_3'
p8174
aS'->'
p8175
aS'variable_12'
p8176
aS'->'
p8177
aS'variable_38'
p8178
ag17
aS'variable_1'
p8179
aS'->'
p8180
aS'variable_36'
p8181
ag63
aS'variable_39'
p8182
ag29
aS'variable_3'
p8183
aS'->'
p8184
aS'variable_12'
p8185
aS'->'
p8186
aS'variable_40'
p8187
ag17
aS'variable_1'
p8188
aS'->'
p8189
aS'variable_36'
p8190
ag63
aS'variable_41'
p8191
ag29
aS'variable_11'
p8192
ag17
ag6
aS'variable_3'
p8193
aS'->'
p8194
aS'variable_42'
p8195
aS'&&'
p8196
ag6
aS'16'
p8197
ag8
aS'variable_1'
p8198
aS'->'
p8199
aS'variable_36'
p8200
ag63
aS'variable_43'
p8201
aS'!='
p8202
aS'variable_3'
p8203
aS'->'
p8204
aS'variable_12'
p8205
aS'->'
p8206
aS'variable_44'
p8207
aS'||'
p8208
aS'16'
p8209
ag8
aS'variable_1'
p8210
aS'->'
p8211
aS'variable_36'
p8212
ag63
aS'variable_45'
p8213
ag8
ag6
ag222
ag223
aS'variable_1'
p8214
aS'->'
p8215
aS'variable_36'
p8216
ag63
aS'variable_46'
p8217
ag13
aS'!='
p8218
aS'variable_3'
p8219
aS'->'
p8220
aS'variable_12'
p8221
aS'->'
p8222
aS'variable_47'
p8223
aS'||'
p8224
aS'variable_3'
p8225
aS'->'
p8226
aS'variable_12'
p8227
aS'->'
p8228
aS'variable_48'
p8229
aS'!='
p8230
aS'variable_1'
p8231
aS'->'
p8232
aS'variable_36'
p8233
ag63
aS'variable_49'
p8234
aS'||'
p8235
aS'variable_1'
p8236
aS'->'
p8237
aS'variable_50'
p8238
aS'!='
p8239
aS'variable_1'
p8240
aS'->'
p8241
aS'variable_36'
p8242
ag63
aS'variable_51'
p8243
aS'||'
p8244
aS'func_5'
p8245
ag6
aS'variable_1'
p8246
aS'->'
p8247
aS'variable_36'
p8248
ag63
aS'variable_52'
p8249
ag10
aS'variable_3'
p8250
aS'->'
p8251
aS'variable_12'
p8252
aS'->'
p8253
aS'variable_53'
p8254
ag13
ag13
ag13
ag29
aS'if'
p8255
ag6
aS'variable_11'
p8256
aS'&&'
p8257
ag6
aS'variable_1'
p8258
aS'!='
p8259
aS'variable_2'
p8260
aS'||'
p8261
ag6
aS'variable_3'
p8262
aS'->'
p8263
aS'variable_12'
p8264
aS'->'
p8265
aS'variable_54'
p8266
ag18
aS'variable_55'
p8267
ag13
ag13
ag13
aS'variable_3'
p8268
aS'->'
p8269
aS'variable_43'
p8270
ag17
aS'variable_1'
p8271
aS'->'
p8272
aS'variable_36'
p8273
ag63
aS'variable_43'
p8274
ag29
aS'variable_3'
p8275
aS'->'
p8276
aS'variable_45'
p8277
ag17
aS'variable_1'
p8278
aS'->'
p8279
aS'variable_36'
p8280
ag63
aS'variable_45'
p8281
ag8
ag6
ag222
ag223
aS'variable_1'
p8282
aS'->'
p8283
aS'variable_36'
p8284
ag63
aS'variable_46'
p8285
ag13
ag29
aS'variable_1'
p8286
aS'->'
p8287
aS'variable_56'
p8288
ag17
aS'variable_3'
p8289
aS'->'
p8290
aS'variable_43'
p8291
ag8
ag108
ag29
aS'variable_3'
p8292
aS'->'
p8293
aS'variable_57'
p8294
ag17
aS'variable_1'
p8295
aS'->'
p8296
aS'variable_36'
p8297
ag63
aS'variable_51'
p8298
ag309
ag17
ag310
ag29
aS'variable_3'
p8299
aS'->'
p8300
aS'variable_58'
p8301
ag17
aS'16'
p8302
ag8
aS'variable_3'
p8303
aS'->'
p8304
aS'variable_43'
p8305
ag29
aS'variable_3'
p8306
aS'->'
p8307
aS'variable_59'
p8308
ag17
aS'16'
p8309
ag8
aS'variable_3'
p8310
aS'->'
p8311
aS'variable_45'
p8312
ag29
aS'if'
p8313
ag6
aS'variable_11'
p8314
ag13
aS'variable_1'
p8315
aS'->'
p8316
aS'variable_60'
p8317
ag17
ag85
ag29
aS'variable_1'
p8318
aS'->'
p8319
aS'variable_24'
p8320
ag17
ag85
ag29
aS'if'
p8321
ag6
ag52
aS'variable_3'
p8322
aS'->'
p8323
aS'variable_42'
p8324
ag13
aS'if'
p8325
ag6
aS'variable_1'
p8326
aS'!='
p8327
aS'variable_2'
p8328
ag13
aS'if'
p8329
ag6
aS'func_6'
p8330
ag6
aS'variable_3'
p8331
aS'->'
p8332
aS'variable_12'
p8333
aS'->'
p8334
aS'variable_58'
p8335
ag10
aS'16'
p8336
ag13
aS'=='
p8337
aS'variable_3'
p8338
aS'->'
p8339
aS'variable_58'
p8340
aS'&&'
p8341
aS'func_7'
p8342
ag6
aS'variable_3'
p8343
aS'->'
p8344
aS'variable_12'
p8345
aS'->'
p8346
aS'variable_59'
p8347
ag10
aS'16'
p8348
ag8
ag6
ag222
ag223
aS'variable_1'
p8349
aS'->'
p8350
aS'variable_36'
p8351
ag63
aS'variable_46'
p8352
ag13
ag13
aS'=='
p8353
aS'variable_3'
p8354
aS'->'
p8355
aS'variable_59'
p8356
aS'&&'
p8357
ag52
aS'variable_1'
p8358
aS'->'
p8359
aS'variable_36'
p8360
ag63
aS'variable_61'
p8361
aS'&&'
p8362
ag52
aS'variable_1'
p8363
aS'->'
p8364
aS'variable_36'
p8365
ag63
aS'variable_62'
p8366
aS'&&'
p8367
ag6
aS'variable_3'
p8368
aS'->'
p8369
aS'variable_12'
p8370
aS'->'
p8371
aS'variable_58'
p8372
aS'!='
p8373
aS'variable_3'
p8374
aS'->'
p8375
aS'variable_58'
p8376
aS'||'
p8377
aS'variable_3'
p8378
aS'->'
p8379
aS'variable_12'
p8380
aS'->'
p8381
aS'variable_59'
p8382
aS'&&'
p8383
aS'variable_3'
p8384
aS'->'
p8385
aS'variable_59'
p8386
ag13
ag13
aS'variable_3'
p8387
aS'->'
p8388
aS'variable_12'
p8389
aS'->'
p8390
aS'variable_58'
p8391
aS'-='
p8392
ag6
ag222
aS'>>'
p8393
aS'variable_63'
p8394
ag13
ag8
aS'func_8'
p8395
ag6
aS'variable_1'
p8396
aS'->'
p8397
aS'variable_36'
p8398
ag63
aS'variable_61'
p8399
ag10
ag6
ag412
aS'<<'
p8400
aS'variable_63'
p8401
ag13
ag223
ag310
ag13
ag29
aS'variable_3'
p8402
aS'->'
p8403
aS'variable_12'
p8404
aS'->'
p8405
aS'variable_59'
p8406
aS'-='
p8407
ag6
ag310
aS'<<'
p8408
aS'variable_3'
p8409
aS'->'
p8410
aS'variable_57'
p8411
ag13
ag8
aS'func_9'
p8412
ag6
aS'variable_1'
p8413
aS'->'
p8414
aS'variable_36'
p8415
ag63
aS'variable_62'
p8416
ag10
ag6
aS'16'
p8417
aS'>>'
p8418
aS'variable_3'
p8419
aS'->'
p8420
aS'variable_57'
p8421
ag13
ag223
ag310
ag13
ag8
ag6
ag222
ag223
aS'variable_1'
p8422
aS'->'
p8423
aS'variable_36'
p8424
ag63
aS'variable_46'
p8425
ag13
ag29
aS'variable_3'
p8426
aS'->'
p8427
aS'variable_12'
p8428
aS'->'
p8429
aS'variable_53'
p8430
ag17
aS'variable_1'
p8431
aS'->'
p8432
aS'variable_36'
p8433
ag63
aS'variable_52'
p8434
ag29
aS'if'
p8435
ag6
aS'variable_3'
p8436
aS'->'
p8437
aS'variable_12'
p8438
aS'->'
p8439
aS'variable_64'
p8440
aS'->'
p8441
aS'variable_65'
p8442
ag18
aS'variable_66'
p8443
aS'&&'
p8444
ag6
aS'variable_1'
p8445
aS'->'
p8446
aS'variable_36'
p8447
ag63
aS'variable_49'
p8448
aS'!='
p8449
ag412
aS'||'
p8450
aS'variable_1'
p8451
aS'->'
p8452
aS'variable_36'
p8453
ag63
aS'variable_51'
p8454
ag104
ag310
ag13
ag13
aS'if'
p8455
ag6
aS'variable_3'
p8456
aS'->'
p8457
aS'variable_12'
p8458
aS'->'
p8459
aS'variable_48'
p8460
aS'!='
p8461
aS'variable_1'
p8462
aS'->'
p8463
aS'variable_36'
p8464
ag63
aS'variable_49'
p8465
aS'||'
p8466
aS'variable_1'
p8467
aS'->'
p8468
aS'variable_50'
p8469
aS'!='
p8470
aS'variable_1'
p8471
aS'->'
p8472
aS'variable_36'
p8473
ag63
aS'variable_51'
p8474
ag13
aS'if'
p8475
ag6
aS'variable_1'
p8476
aS'->'
p8477
aS'variable_36'
p8478
ag63
aS'variable_49'
p8479
ag104
ag17
ag412
aS'&&'
p8480
aS'variable_1'
p8481
aS'->'
p8482
aS'variable_36'
p8483
ag63
aS'variable_49'
p8484
ag309
ag17
aS'14'
p8485
aS'&&'
p8486
aS'variable_1'
p8487
aS'->'
p8488
aS'variable_36'
p8489
ag63
aS'variable_49'
p8490
aS'!='
p8491
aS'11'
p8492
aS'&&'
p8493
aS'variable_1'
p8494
aS'->'
p8495
aS'variable_36'
p8496
ag63
aS'variable_49'
p8497
aS'!='
p8498
aS'13'
p8499
aS'&&'
p8500
ag6
aS'variable_1'
p8501
aS'->'
p8502
aS'variable_36'
p8503
ag63
aS'variable_49'
p8504
aS'!='
p8505
ag105
aS'||'
p8506
ag52
aS'variable_67'
p8507
ag13
ag13
aS'variable_3'
p8508
aS'->'
p8509
aS'variable_12'
p8510
aS'->'
p8511
aS'variable_48'
p8512
ag17
aS'variable_1'
p8513
aS'->'
p8514
aS'variable_36'
p8515
ag63
aS'variable_49'
p8516
ag29
aS'variable_1'
p8517
aS'->'
p8518
aS'variable_50'
p8519
ag17
aS'variable_1'
p8520
aS'->'
p8521
aS'variable_36'
p8522
ag63
aS'variable_51'
p8523
ag29
aS'variable_1'
p8524
aS'->'
p8525
aS'variable_16'
p8526
ag17
aS'variable_1'
p8527
aS'->'
p8528
aS'variable_36'
p8529
ag63
aS'variable_49'
p8530
ag104
ag412
ag29
aS'variable_3'
p8531
aS'->'
p8532
aS'variable_19'
p8533
ag63
aS'variable_68'
p8534
ag17
aS'variable_1'
p8535
aS'->'
p8536
aS'variable_36'
p8537
ag63
aS'variable_49'
p8538
ag104
ag412
ag552
aS'32'
p8539
ag554
aS'16'
p8540
ag29
aS'if'
p8541
ag6
aS'variable_1'
p8542
aS'->'
p8543
aS'variable_36'
p8544
ag63
aS'variable_69'
p8545
ag13
aS'variable_3'
p8546
aS'->'
p8547
aS'variable_12'
p8548
aS'->'
p8549
aS'variable_70'
p8550
ag17
aS'variable_1'
p8551
aS'->'
p8552
aS'variable_36'
p8553
ag63
aS'variable_71'
p8554
ag104
ag85
ag552
aS'variable_72'
p8555
ag554
aS'variable_73'
p8556
ag29
aS'if'
p8557
ag6
aS'variable_1'
p8558
aS'->'
p8559
aS'variable_36'
p8560
ag63
aS'variable_74'
p8561
ag13
aS'variable_3'
p8562
aS'->'
p8563
aS'variable_12'
p8564
aS'->'
p8565
aS'variable_75'
p8566
ag17
aS'variable_1'
p8567
aS'->'
p8568
aS'variable_36'
p8569
ag63
aS'variable_75'
p8570
ag29
aS'variable_3'
p8571
aS'->'
p8572
aS'variable_12'
p8573
aS'->'
p8574
aS'variable_76'
p8575
ag17
aS'variable_1'
p8576
aS'->'
p8577
aS'variable_36'
p8578
ag63
aS'variable_76'
p8579
ag29
aS'variable_3'
p8580
aS'->'
p8581
aS'variable_12'
p8582
aS'->'
p8583
aS'variable_77'
p8584
ag17
aS'variable_1'
p8585
aS'->'
p8586
aS'variable_36'
p8587
ag63
aS'variable_77'
p8588
ag29
aS'switch'
p8589
ag6
aS'variable_1'
p8590
aS'->'
p8591
aS'variable_36'
p8592
ag63
aS'variable_49'
p8593
ag13
aS'if'
p8594
ag6
aS'variable_63'
p8595
ag13
aS'if'
p8596
ag6
aS'variable_3'
p8597
aS'->'
p8598
aS'variable_12'
p8599
aS'->'
p8600
aS'variable_77'
p8601
aS'=='
p8602
aS'variable_78'
p8603
ag13
aS'variable_3'
p8604
aS'->'
p8605
aS'variable_12'
p8606
aS'->'
p8607
aS'variable_79'
p8608
ag17
aS'variable_80'
p8609
ag29
aS'variable_3'
p8610
aS'->'
p8611
aS'variable_12'
p8612
aS'->'
p8613
aS'variable_79'
p8614
ag17
aS'variable_81'
p8615
ag29
aS'if'
p8616
ag6
aS'variable_67'
p8617
ag13
aS'variable_3'
p8618
aS'->'
p8619
aS'variable_12'
p8620
aS'->'
p8621
aS'variable_79'
p8622
ag17
aS'variable_82'
p8623
ag29
aS'variable_3'
p8624
aS'->'
p8625
aS'variable_12'
p8626
aS'->'
p8627
aS'variable_79'
p8628
ag17
aS'variable_83'
p8629
ag29
aS'if'
p8630
ag6
aS'variable_63'
p8631
ag13
aS'if'
p8632
ag6
aS'variable_3'
p8633
aS'->'
p8634
aS'variable_12'
p8635
aS'->'
p8636
aS'variable_77'
p8637
aS'=='
p8638
aS'variable_78'
p8639
ag13
aS'variable_3'
p8640
aS'->'
p8641
aS'variable_12'
p8642
aS'->'
p8643
aS'variable_79'
p8644
ag17
aS'variable_84'
p8645
ag29
aS'variable_3'
p8646
aS'->'
p8647
aS'variable_12'
p8648
aS'->'
p8649
aS'variable_79'
p8650
ag17
aS'variable_85'
p8651
ag29
aS'if'
p8652
ag6
aS'variable_67'
p8653
ag13
aS'variable_3'
p8654
aS'->'
p8655
aS'variable_12'
p8656
aS'->'
p8657
aS'variable_79'
p8658
ag17
aS'variable_86'
p8659
ag29
aS'variable_3'
p8660
aS'->'
p8661
aS'variable_12'
p8662
aS'->'
p8663
aS'variable_79'
p8664
ag17
aS'variable_87'
p8665
ag29
aS'if'
p8666
ag6
aS'variable_63'
p8667
ag13
aS'if'
p8668
ag6
aS'variable_3'
p8669
aS'->'
p8670
aS'variable_12'
p8671
aS'->'
p8672
aS'variable_77'
p8673
aS'=='
p8674
aS'variable_78'
p8675
ag13
aS'variable_3'
p8676
aS'->'
p8677
aS'variable_12'
p8678
aS'->'
p8679
aS'variable_79'
p8680
ag17
aS'variable_88'
p8681
ag29
aS'variable_3'
p8682
aS'->'
p8683
aS'variable_12'
p8684
aS'->'
p8685
aS'variable_79'
p8686
ag17
aS'variable_89'
p8687
ag29
aS'if'
p8688
ag6
aS'variable_67'
p8689
ag13
aS'variable_3'
p8690
aS'->'
p8691
aS'variable_12'
p8692
aS'->'
p8693
aS'variable_79'
p8694
ag17
aS'variable_90'
p8695
ag29
aS'variable_3'
p8696
aS'->'
p8697
aS'variable_12'
p8698
aS'->'
p8699
aS'variable_79'
p8700
ag17
aS'variable_91'
p8701
ag29
aS'if'
p8702
ag6
aS'variable_63'
p8703
ag13
aS'if'
p8704
ag6
aS'variable_3'
p8705
aS'->'
p8706
aS'variable_12'
p8707
aS'->'
p8708
aS'variable_77'
p8709
aS'=='
p8710
aS'variable_78'
p8711
ag13
aS'variable_3'
p8712
aS'->'
p8713
aS'variable_12'
p8714
aS'->'
p8715
aS'variable_79'
p8716
ag17
aS'variable_92'
p8717
ag29
aS'variable_3'
p8718
aS'->'
p8719
aS'variable_12'
p8720
aS'->'
p8721
aS'variable_79'
p8722
ag17
aS'variable_93'
p8723
ag29
aS'if'
p8724
ag6
aS'variable_67'
p8725
ag13
aS'variable_3'
p8726
aS'->'
p8727
aS'variable_12'
p8728
aS'->'
p8729
aS'variable_79'
p8730
ag17
aS'variable_94'
p8731
ag29
aS'variable_3'
p8732
aS'->'
p8733
aS'variable_12'
p8734
aS'->'
p8735
aS'variable_79'
p8736
ag17
aS'variable_95'
p8737
ag29
aS'if'
p8738
ag6
aS'variable_63'
p8739
ag13
aS'variable_3'
p8740
aS'->'
p8741
aS'variable_12'
p8742
aS'->'
p8743
aS'variable_79'
p8744
ag17
aS'variable_3'
p8745
aS'->'
p8746
aS'variable_12'
p8747
aS'->'
p8748
aS'variable_70'
p8749
aS'=='
p8750
aS'variable_72'
p8751
ag552
aS'variable_96'
p8752
ag554
aS'variable_97'
p8753
ag29
aS'if'
p8754
ag6
aS'variable_3'
p8755
aS'->'
p8756
aS'variable_12'
p8757
aS'->'
p8758
aS'variable_77'
p8759
aS'=='
p8760
aS'variable_78'
p8761
ag13
aS'variable_3'
p8762
aS'->'
p8763
aS'variable_12'
p8764
aS'->'
p8765
aS'variable_79'
p8766
ag17
aS'variable_98'
p8767
ag29
aS'if'
p8768
ag6
aS'variable_67'
p8769
ag13
aS'variable_3'
p8770
aS'->'
p8771
aS'variable_12'
p8772
aS'->'
p8773
aS'variable_79'
p8774
ag17
aS'variable_3'
p8775
aS'->'
p8776
aS'variable_12'
p8777
aS'->'
p8778
aS'variable_70'
p8779
aS'=='
p8780
aS'variable_72'
p8781
ag552
aS'variable_99'
p8782
ag554
aS'variable_100'
p8783
ag29
aS'variable_3'
p8784
aS'->'
p8785
aS'variable_12'
p8786
aS'->'
p8787
aS'variable_79'
p8788
ag17
aS'variable_3'
p8789
aS'->'
p8790
aS'variable_12'
p8791
aS'->'
p8792
aS'func_10'
p8793
ag6
aS'variable_3'
p8794
aS'->'
p8795
aS'variable_12'
p8796
ag10
aS'variable_3'
p8797
aS'->'
p8798
aS'variable_12'
p8799
aS'->'
p8800
aS'variable_64'
p8801
aS'->'
p8802
aS'variable_101'
p8803
ag552
aS'variable_3'
p8804
aS'->'
p8805
aS'variable_12'
p8806
aS'->'
p8807
aS'variable_64'
p8808
aS'->'
p8809
aS'variable_101'
p8810
ag554
aS'variable_3'
p8811
aS'->'
p8812
aS'variable_12'
p8813
aS'->'
p8814
aS'variable_70'
p8815
aS'=='
p8816
aS'variable_72'
p8817
ag552
aS'variable_102'
p8818
ag554
aS'variable_103'
p8819
ag13
ag29
aS'variable_3'
p8820
aS'->'
p8821
aS'variable_12'
p8822
aS'->'
p8823
aS'variable_104'
p8824
ag17
aS'func_11'
p8825
ag6
aS'variable_3'
p8826
aS'->'
p8827
aS'variable_12'
p8828
aS'->'
p8829
aS'variable_64'
p8830
aS'->'
p8831
aS'variable_105'
p8832
ag10
aS'variable_3'
p8833
aS'->'
p8834
aS'variable_12'
p8835
aS'->'
p8836
aS'variable_79'
p8837
ag13
ag29
aS'if'
p8838
ag6
aS'func_12'
p8839
ag6
aS'variable_3'
p8840
ag13
ag309
ag85
ag13
aS'variable_3'
p8841
aS'->'
p8842
aS'variable_25'
p8843
ag17
ag85
ag29
aS'variable_1'
p8844
aS'->'
p8845
aS'variable_106'
p8846
ag17
ag310
ag29
aS'if'
p8847
ag6
aS'func_13'
p8848
ag6
aS'variable_1'
p8849
ag13
ag309
ag85
ag13
aS'if'
p8850
ag6
ag52
aS'variable_107'
p8851
aS'||'
p8852
ag52
ag6
aS'variable_3'
p8853
aS'->'
p8854
aS'variable_12'
p8855
aS'->'
p8856
aS'variable_54'
p8857
ag18
aS'variable_108'
p8858
ag13
ag13
aS'if'
p8859
ag6
aS'func_14'
p8860
ag6
aS'variable_1'
p8861
ag13
ag309
ag85
ag13
aS'for'
p8862
ag6
aS'variable_9'
p8863
ag17
ag310
ag29
aS'variable_9'
p8864
ag309
aS'variable_3'
p8865
aS'->'
p8866
aS'variable_109'
p8867
ag29
aS'variable_9'
p8868
aS'++'
p8869
ag13
aS'variable_0'
p8870
ag8
aS'variable_110'
p8871
ag29
aS'variable_110'
p8872
ag17
aS'variable_1'
p8873
aS'->'
p8874
aS'variable_111'
p8875
ag117
aS'variable_9'
p8876
ag119
ag17
aS'func_15'
p8877
ag6
aS'sizeof'
p8878
ag6
aS'variable_0'
p8879
ag13
ag13
ag29
aS'for'
p8880
ag6
aS'variable_9'
p8881
ag17
ag85
ag29
aS'variable_9'
p8882
ag309
aS'variable_3'
p8883
aS'->'
p8884
aS'variable_109'
p8885
ag29
aS'variable_9'
p8886
aS'++'
p8887
ag13
aS'if'
p8888
ag6
aS'func_16'
p8889
ag6
aS'variable_1'
p8890
aS'->'
p8891
aS'variable_111'
p8892
ag117
aS'variable_9'
p8893
ag119
ag13
ag309
ag85
ag13
aS'if'
p8894
ag6
aS'variable_1'
p8895
aS'=='
p8896
aS'variable_2'
p8897
aS'&&'
p8898
aS'variable_1'
p8899
aS'->'
p8900
aS'variable_112'
p8901
aS'!='
p8902
aS'variable_6'
p8903
ag13
aS'variable_1'
p8904
aS'->'
p8905
aS'variable_112'
p8906
ag17
aS'variable_6'
p8907
ag29
aS'variable_1'
p8908
aS'->'
p8909
aS'variable_113'
p8910
ag17
aS'func_17'
p8911
ag6
ag18
aS'variable_3'
p8912
aS'->'
p8913
aS'variable_23'
p8914
ag10
aS'variable_1'
p8915
aS'->'
p8916
aS'variable_36'
p8917
ag63
aS'variable_114'
p8918
ag13
ag29
aS'variable_1'
p8919
aS'->'
p8920
aS'variable_115'
p8921
ag17
ag85
ag29
aS'variable_1'
p8922
aS'->'
p8923
aS'variable_116'
p8924
ag17
ag85
ag29
aS'if'
p8925
ag6
aS'variable_1'
p8926
aS'->'
p8927
aS'variable_36'
p8928
ag63
aS'variable_46'
p8929
ag13
aS'if'
p8930
ag6
ag52
aS'variable_1'
p8931
aS'->'
p8932
aS'variable_36'
p8933
ag63
aS'variable_117'
p8934
aS'&&'
p8935
aS'variable_7'
p8936
aS'=='
p8937
aS'variable_118'
p8938
ag13
aS'if'
p8939
ag6
aS'variable_2'
p8940
aS'->'
p8941
aS'variable_24'
p8942
aS'!='
p8943
ag85
ag13
aS'if'
p8944
ag6
aS'variable_4'
p8945
aS'->'
p8946
aS'variable_25'
p8947
ag13
aS'assert'
p8948
ag6
aS'variable_4'
p8949
aS'->'
p8950
aS'variable_26'
p8951
ag13
ag29
aaa(lp8952
I0
aI0
aI0
aI0
aI0
aI0
aI0
aI0
aa(lp8953
I2007
aI1937
aI1781
aI1781
aI1773
aI1429
aI1429
aI1429
aa(lp8954
(lp8955
S'main'
p8956
aa(lp8957
g8956
aa(lp8958
g8956
aa(lp8959
g8956
aa(lp8960
g8956
aa(lp8961
g8956
aa(lp8962
g8956
aa(lp8963
g8956
aaa(lp8964
S'669 /home/SySeVR/data/CVE_2013_0850_PATCHED_decode_slice_header.c assert 520'
p8965
aS'670 /home/SySeVR/data/CVE_2013_0850_PATCHED_decode_slice_header.c assert 510'
p8966
aS'671 /home/SySeVR/data/CVE_2013_0850_PATCHED_decode_slice_header.c assert 469'
p8967
aS'672 /home/SySeVR/data/CVE_2013_0850_PATCHED_decode_slice_header.c assert 468'
p8968
aS'673 /home/SySeVR/data/CVE_2013_0850_PATCHED_decode_slice_header.c assert 467'
p8969
aS'674 /home/SySeVR/data/CVE_2013_0850_PATCHED_decode_slice_header.c assert 372'
p8970
aS'675 /home/SySeVR/data/CVE_2013_0850_PATCHED_decode_slice_header.c assert 371'
p8971
aS'676 /home/SySeVR/data/CVE_2013_0850_PATCHED_decode_slice_header.c assert 370'
p8972
aa.