(lp0
(lp1
(lp2
S'func_0'
p3
aS'('
p4
aS'variable_0'
p5
aS'*'
p6
aS'variable_1'
p7
aS','
p8
aS'variable_2'
p9
ag6
aS'variable_3'
p10
ag8
aS'variable_4'
p11
ag6
aS'variable_5'
p12
ag8
aS'gint'
p13
aS'variable_6'
p14
aS')'
p15
aS'gint'
p16
aS'variable_7'
p17
aS'='
p18
aS'0'
p19
aS';'
p20
aS'guint16'
p21
aS'variable_8'
p22
ag20
aS'guint8'
p23
aS'variable_9'
p24
ag20
aS'guint8'
p25
aS'variable_10'
p26
ag20
aS'guint8'
p27
aS'variable_11'
p28
ag20
aS'guint8'
p29
aS'variable_12'
p30
ag18
ag19
ag20
aS'struct'
p31
aS'ip6_hdr'
p32
aS'variable_13'
p33
ag20
aS'variable_8'
p34
ag18
aS'func_1'
p35
ag4
aS'variable_1'
p36
ag8
aS'variable_7'
p37
ag15
ag20
aS'variable_9'
p38
ag18
ag4
aS'variable_8'
p39
aS'&'
p40
aS'variable_14'
p41
ag15
aS'>>'
p42
aS'variable_15'
p43
ag20
aS'variable_10'
p44
ag18
ag4
aS'variable_8'
p45
ag40
aS'variable_16'
p46
ag15
aS'>>'
p47
aS'variable_17'
p48
ag20
aS'variable_11'
p49
ag18
ag4
aS'variable_8'
p50
ag40
aS'variable_18'
p51
ag15
aS'>>'
p52
aS'variable_19'
p53
ag20
aS'variable_7'
p54
aS'+='
p55
aS'sizeof'
p56
ag4
aS'variable_20'
p57
ag15
ag20
aS'if'
p58
ag4
aS'variable_8'
p59
ag40
aS'variable_21'
p60
ag15
aS'variable_7'
p61
aS'+='
p62
aS'sizeof'
p63
ag4
aS'variable_22'
p64
ag15
ag20
aS'variable_7'
p65
aS'<<'
p66
ag18
aS'3'
p67
ag20
aS'if'
p68
ag4
aS'variable_9'
p69
aS'!='
p70
aS'variable_23'
p71
ag15
aS'variable_12'
p72
aS'|'
p73
ag18
aS'func_2'
p74
ag4
aS'variable_1'
p75
ag8
aS'variable_7'
p76
ag8
aS'variable_24'
p77
ag15
ag20
aS'variable_7'
p78
aS'+='
p79
aS'variable_24'
p80
ag20
aS'if'
p81
ag4
ag4
aS'variable_9'
p82
aS'=='
p83
aS'variable_25'
p84
ag15
aS'||'
p85
ag4
aS'variable_9'
p86
aS'=='
p87
aS'variable_26'
p88
ag15
ag15
aS'variable_12'
p89
ag73
ag18
ag4
aS'func_3'
p90
ag4
aS'variable_1'
p91
ag8
aS'variable_7'
p92
ag8
aS'variable_27'
p93
ag15
aS'<<'
p94
aS'variable_24'
p95
ag15
ag20
aS'variable_7'
p96
aS'+='
p97
aS'variable_27'
p98
ag20
aS'if'
p99
ag4
ag4
aS'variable_9'
p100
aS'=='
p101
aS'variable_25'
p102
ag15
aS'||'
p103
ag4
aS'variable_9'
p104
aS'=='
p105
aS'variable_28'
p106
ag15
ag15
aS'variable_7'
p107
aS'+='
p108
ag4
ag4
aS'4'
p109
aS'-'
p110
aS'variable_7'
p111
ag15
ag40
aS'0x7'
p112
ag15
ag20
aS'variable_13'
p113
aS'.'
p114
aS'variable_29'
p115
ag18
aS'func_4'
p116
ag4
aS'variable_1'
p117
ag8
aS'variable_7'
p118
ag8
aS'variable_30'
p119
ag8
aS'variable_31'
p120
ag15
ag20
aS'variable_7'
p121
aS'+='
p122
aS'variable_30'
p123
ag20
aS'variable_13'
p124
ag114
aS'variable_29'
p125
ag18
ag19
ag20
aS'variable_13'
p126
ag114
aS'variable_29'
p127
ag18
aS'func_5'
p128
ag4
aS'variable_13'
p129
ag114
aS'variable_29'
p130
ag15
ag73
ag4
aS'variable_12'
p131
aS'<<'
p132
aS'variable_32'
p133
ag15
ag20
aS'variable_13'
p134
ag114
aS'variable_33'
p135
ag18
ag4
aS'0x6'
p136
aS'<<'
p137
ag109
ag15
ag73
ag4
aS'variable_12'
p138
aS'>>'
p139
ag109
ag15
ag20
aS'variable_7'
p140
aS'>>'
p141
ag18
ag67
ag20
aS'if'
p142
ag4
aS'!'
p143
ag4
aS'variable_8'
p144
ag40
aS'variable_34'
p145
ag15
ag15
aS'variable_13'
p146
ag114
aS'variable_35'
p147
ag18
aS'func_6'
p148
ag4
aS'variable_1'
p149
ag8
aS'variable_7'
p150
ag15
ag20
aS'variable_7'
p151
aS'+='
p152
aS'sizeof'
p153
ag4
aS'variable_22'
p154
ag15
ag20
aS'if'
p155
ag4
aS'variable_10'
p156
aS'=='
p157
aS'variable_36'
p158
ag15
aS'variable_13'
p159
ag114
aS'variable_37'
p160
ag18
aS'1'
p161
ag20
aS'if'
p162
ag4
aS'variable_10'
p163
aS'=='
p164
aS'variable_38'
p165
ag15
aS'variable_13'
p166
ag114
aS'variable_37'
p167
ag18
aS'64'
p168
ag20
aS'if'
p169
ag4
aS'variable_10'
p170
aS'=='
p171
aS'variable_39'
p172
ag15
aS'variable_13'
p173
ag114
aS'variable_37'
p174
ag18
aS'255'
p175
ag20
aS'variable_13'
p176
ag114
aS'variable_37'
p177
ag18
aS'func_7'
p178
ag4
aS'variable_1'
p179
ag8
aS'variable_7'
p180
ag15
ag20
aS'memset'
p181
ag4
ag40
aS'variable_13'
p182
ag114
aS'variable_40'
p183
ag8
ag19
ag8
aS'sizeof'
p184
ag4
aS'variable_13'
p185
ag114
aS'variable_40'
p186
ag15
ag15
ag20
aS'if'
p187
ag4
ag143
ag4
aS'variable_8'
p188
ag40
aS'variable_41'
p189
ag15
ag15
aS'variable_13'
p190
ag114
aS'variable_40'
p191
ag114
aS'variable_42'
p192
aS'['
p193
ag19
aS']'
p194
ag18
aS'0xfe'
p195
ag20
aS'variable_13'
p196
ag114
aS'variable_40'
p197
ag114
aS'variable_42'
p198
ag193
ag161
ag194
ag18
aS'0x80'
p199
ag20
aS'if'
p200
ag4
aS'variable_11'
p201
aS'=='
p202
aS'variable_43'
p203
ag15
aS'if'
p204
ag4
aS'variable_11'
p205
aS'=='
p206
aS'variable_44'
p207
ag15
aS'if'
p208
ag4
aS'variable_11'
p209
aS'=='
p210
aS'variable_45'
p211
ag15
aS'if'
p212
ag4
aS'variable_11'
p213
aS'=='
p214
aS'variable_46'
p215
ag15
aS'memset'
p216
ag4
ag40
aS'variable_13'
p217
ag114
aS'variable_47'
p218
ag8
ag19
ag8
aS'sizeof'
p219
ag4
aS'variable_13'
p220
ag114
aS'variable_47'
p221
ag15
ag15
ag20
aS'variable_13'
p222
ag114
aS'variable_47'
p223
ag114
aS'variable_42'
p224
ag193
ag19
ag194
ag18
aS'0xfe'
p225
ag20
aS'variable_13'
p226
ag114
aS'variable_47'
p227
ag114
aS'variable_42'
p228
ag193
ag161
ag194
ag18
aS'0x80'
p229
ag20
aS'variable_48'
p230
ag18
aS'sizeof'
p231
ag4
aS'variable_13'
p232
ag114
aS'variable_47'
p233
ag15
ag20
aS'func_8'
p234
ag4
aS'variable_1'
p235
ag8
ag40
aS'variable_13'
p236
ag114
aS'variable_47'
p237
ag114
aS'variable_42'
p238
ag193
aS'sizeof'
p239
ag4
aS'variable_13'
p240
ag114
aS'variable_47'
p241
ag15
ag110
aS'variable_48'
p242
ag194
ag8
aS'variable_7'
p243
ag8
aS'variable_48'
p244
ag15
ag20
aS'func_9'
p245
ag4
aS'variable_1'
p246
ag8
ag40
aS'variable_13'
p247
ag114
aS'variable_47'
p248
ag114
aS'variable_42'
p249
ag193
aS'sizeof'
p250
ag4
aS'variable_13'
p251
ag114
aS'variable_47'
p252
ag15
ag110
aS'variable_48'
p253
ag194
ag8
aS'variable_7'
p254
ag8
aS'variable_48'
p255
ag15
ag20
aS'func_10'
p256
ag4
aS'variable_1'
p257
ag8
ag40
aS'variable_13'
p258
ag114
aS'variable_47'
p259
ag114
aS'variable_42'
p260
ag193
aS'sizeof'
p261
ag4
aS'variable_13'
p262
ag114
aS'variable_47'
p263
ag15
ag110
aS'variable_48'
p264
ag194
ag8
aS'variable_7'
p265
ag8
aS'variable_48'
p266
ag15
ag20
aS'func_11'
p267
ag4
aS'variable_3'
p268
ag8
ag40
aS'variable_13'
p269
ag114
aS'variable_47'
p270
ag114
aS'variable_42'
p271
ag193
aS'8'
p272
ag194
ag15
ag20
aS'variable_49'
p273
ag18
aS'func_12'
p274
ag4
aS'variable_5'
p275
ag8
aS'variable_50'
p276
ag8
aS'variable_1'
p277
ag8
aS'variable_7'
p278
ag8
aS'variable_48'
p279
ag8
ag4
aS'guint8'
p280
ag6
ag15
ag40
aS'variable_13'
p281
ag114
aS'variable_47'
p282
ag15
ag20
aS'func_13'
p283
ag4
aS'variable_3'
p284
ag8
aS'variable_49'
p285
ag8
aS'variable_51'
p286
ag8
aS'variable_52'
p287
ag8
aS'"'
p288
aS'Failed'
p289
aS'to'
p290
aS'recover'
p291
aS'destination'
p292
aS'IPv6'
p293
aS'address'
p294
ag288
ag15
ag20
aS'variable_7'
p295
aS'+='
p296
aS'variable_48'
p297
ag20
aS'variable_13'
p298
ag114
aS'variable_35'
p299
ag18
aS'func_14'
p300
ag4
aS'variable_1'
p301
ag8
aS'variable_7'
p302
ag15
ag20
aS'variable_53'
p303
ag18
aS'func_15'
p304
ag4
aS'variable_1'
p305
ag8
aS'variable_3'
p306
ag8
aS'variable_5'
p307
ag8
aS'variable_7'
p308
ag8
aS'variable_6'
p309
ag110
aS'sizeof'
p310
ag4
aS'struct'
p311
aS'variable_54'
p312
ag15
ag15
ag20
aS'variable_48'
p313
ag18
ag4
aS'variable_55'
p314
ag15
aS'func_16'
p315
ag4
aS'variable_1'
p316
ag8
aS'variable_7'
p317
ag15
ag20
aS'variable_53'
p318
ag18
ag4
aS'struct'
p319
aS'lowpan_nhdr'
p320
ag6
ag15
aS'func_17'
p321
ag4
aS'sizeof'
p322
ag4
aS'struct'
p323
aS'variable_56'
p324
ag15
aS'+'
p325
aS'variable_48'
p326
ag15
ag20
aS'variable_53'
p327
aS'->'
p328
aS'variable_57'
p329
ag18
aS'NULL'
p330
ag20
aS'variable_53'
p331
aS'->'
p332
aS'variable_58'
p333
ag18
aS'variable_13'
p334
ag114
aS'variable_35'
p335
ag20
aS'variable_53'
p336
aS'->'
p337
aS'variable_48'
p338
ag18
aS'variable_48'
p339
ag20
aS'variable_53'
p340
aS'->'
p341
aS'variable_59'
p342
ag18
aS'func_18'
p343
ag4
aS'variable_1'
p344
ag8
aS'variable_7'
p345
ag15
ag20
aS'variable_53'
p346
aS'->'
p347
aS'variable_59'
p348
ag18
aS'variable_6'
p349
ag110
aS'sizeof'
p350
ag4
aS'struct'
p351
aS'variable_54'
p352
ag15
ag20
aS'func_19'
p353
ag4
aS'variable_1'
p354
ag8
aS'func_20'
p355
ag4
aS'variable_53'
p356
ag15
ag8
aS'variable_7'
p357
ag8
aS'variable_53'
p358
aS'->'
p359
aS'variable_48'
p360
ag15
ag20
aS'variable_60'
p361
ag18
aS'func_21'
p362
ag4
aS'variable_1'
p363
ag8
ag40
aS'variable_13'
p364
ag8
aS'variable_53'
p365
ag15
ag20
aS'func_22'
p366
ag4
aS'variable_3'
p367
ag8
aS'variable_60'
p368
ag8
ag288
aS'Decompressed'
p369
aS'6LoWPAN'
p370
aS'header'
p371
ag288
ag15
ag20
aS'return'
p372
aS'variable_60'
p373
ag20
aa(lp374
S'func_0'
p375
ag4
aS'variable_0'
p376
ag6
aS'variable_1'
p377
ag8
aS'variable_2'
p378
ag6
aS'variable_3'
p379
ag8
aS'variable_4'
p380
ag6
aS'variable_5'
p381
ag8
aS'gint'
p382
aS'variable_6'
p383
ag15
aS'gint'
p384
aS'variable_7'
p385
ag18
ag19
ag20
aS'guint16'
p386
aS'variable_8'
p387
ag20
aS'guint8'
p388
aS'variable_9'
p389
ag20
aS'guint8'
p390
aS'variable_10'
p391
ag20
aS'guint8'
p392
aS'variable_11'
p393
ag18
ag19
ag20
aS'struct'
p394
aS'ip6_hdr'
p395
aS'variable_12'
p396
ag20
aS'variable_8'
p397
ag18
aS'func_1'
p398
ag4
aS'variable_1'
p399
ag8
aS'variable_7'
p400
ag15
ag20
aS'variable_9'
p401
ag18
ag4
aS'variable_8'
p402
ag40
aS'variable_13'
p403
ag15
aS'>>'
p404
aS'variable_14'
p405
ag20
aS'variable_10'
p406
ag18
ag4
aS'variable_8'
p407
ag40
aS'variable_15'
p408
ag15
aS'>>'
p409
aS'variable_16'
p410
ag20
aS'variable_7'
p411
aS'+='
p412
aS'sizeof'
p413
ag4
aS'variable_17'
p414
ag15
ag20
aS'if'
p415
ag4
aS'variable_8'
p416
ag40
aS'variable_18'
p417
ag15
aS'variable_7'
p418
aS'+='
p419
aS'sizeof'
p420
ag4
aS'variable_19'
p421
ag15
ag20
aS'variable_7'
p422
aS'<<'
p423
ag18
ag67
ag20
aS'if'
p424
ag4
aS'variable_9'
p425
aS'!='
p426
aS'variable_20'
p427
ag15
aS'variable_11'
p428
ag73
ag18
aS'func_2'
p429
ag4
aS'variable_1'
p430
ag8
aS'variable_7'
p431
ag8
aS'variable_21'
p432
ag15
ag20
aS'variable_7'
p433
aS'+='
p434
aS'variable_21'
p435
ag20
aS'if'
p436
ag4
ag4
aS'variable_9'
p437
aS'=='
p438
aS'variable_22'
p439
ag15
aS'||'
p440
ag4
aS'variable_9'
p441
aS'=='
p442
aS'variable_23'
p443
ag15
ag15
aS'variable_11'
p444
ag73
ag18
ag4
aS'func_3'
p445
ag4
aS'variable_1'
p446
ag8
aS'variable_7'
p447
ag8
aS'variable_24'
p448
ag15
aS'<<'
p449
aS'variable_21'
p450
ag15
ag20
aS'variable_7'
p451
aS'+='
p452
aS'variable_24'
p453
ag20
aS'if'
p454
ag4
ag4
aS'variable_9'
p455
aS'=='
p456
aS'variable_22'
p457
ag15
aS'||'
p458
ag4
aS'variable_9'
p459
aS'=='
p460
aS'variable_25'
p461
ag15
ag15
aS'variable_7'
p462
aS'+='
p463
ag4
ag4
ag109
ag110
aS'variable_7'
p464
ag15
ag40
aS'0x7'
p465
ag15
ag20
aS'variable_12'
p466
ag114
aS'variable_26'
p467
ag18
aS'func_4'
p468
ag4
aS'variable_1'
p469
ag8
aS'variable_7'
p470
ag8
aS'variable_27'
p471
ag8
aS'variable_28'
p472
ag15
ag20
aS'variable_7'
p473
aS'+='
p474
aS'variable_27'
p475
ag20
aS'variable_12'
p476
ag114
aS'variable_26'
p477
ag18
ag19
ag20
aS'variable_12'
p478
ag114
aS'variable_26'
p479
ag18
aS'func_5'
p480
ag4
aS'variable_12'
p481
ag114
aS'variable_26'
p482
ag15
ag73
ag4
aS'variable_11'
p483
aS'<<'
p484
aS'variable_29'
p485
ag15
ag20
aS'variable_12'
p486
ag114
aS'variable_30'
p487
ag18
ag4
aS'0x6'
p488
aS'<<'
p489
ag109
ag15
ag73
ag4
aS'variable_11'
p490
aS'>>'
p491
ag109
ag15
ag20
aS'variable_7'
p492
aS'>>'
p493
ag18
ag67
ag20
aS'if'
p494
ag4
ag143
ag4
aS'variable_8'
p495
ag40
aS'variable_31'
p496
ag15
ag15
aS'variable_12'
p497
ag114
aS'variable_32'
p498
ag18
aS'func_6'
p499
ag4
aS'variable_1'
p500
ag8
aS'variable_7'
p501
ag15
ag20
aS'variable_7'
p502
aS'+='
p503
aS'sizeof'
p504
ag4
aS'variable_19'
p505
ag15
ag20
aS'if'
p506
ag4
aS'variable_10'
p507
aS'=='
p508
aS'variable_33'
p509
ag15
aS'variable_12'
p510
ag114
aS'variable_34'
p511
ag18
ag161
ag20
aS'if'
p512
ag4
aS'variable_10'
p513
aS'=='
p514
aS'variable_35'
p515
ag15
aS'variable_12'
p516
ag114
aS'variable_34'
p517
ag18
aS'64'
p518
ag20
aS'if'
p519
ag4
aS'variable_10'
p520
aS'=='
p521
aS'variable_36'
p522
ag15
aS'variable_12'
p523
ag114
aS'variable_34'
p524
ag18
aS'255'
p525
ag20
aS'variable_12'
p526
ag114
aS'variable_34'
p527
ag18
aS'func_7'
p528
ag4
aS'variable_1'
p529
ag8
aS'variable_7'
p530
ag15
ag20
aS'memset'
p531
ag4
ag40
aS'variable_12'
p532
ag114
aS'variable_37'
p533
ag8
ag19
ag8
aS'sizeof'
p534
ag4
aS'variable_12'
p535
ag114
aS'variable_37'
p536
ag15
ag15
ag20
aS'variable_12'
p537
ag114
aS'variable_37'
p538
ag114
aS'variable_38'
p539
ag193
ag19
ag194
ag18
aS'0xfe'
p540
ag20
aS'variable_12'
p541
ag114
aS'variable_37'
p542
ag114
aS'variable_38'
p543
ag193
ag161
ag194
ag18
aS'0x80'
p544
ag20
aS'variable_39'
p545
ag18
aS'sizeof'
p546
ag4
aS'variable_12'
p547
ag114
aS'variable_37'
p548
ag15
ag20
aS'func_8'
p549
ag4
aS'variable_1'
p550
ag8
ag40
aS'variable_12'
p551
ag114
aS'variable_37'
p552
ag114
aS'variable_38'
p553
ag193
aS'sizeof'
p554
ag4
aS'variable_12'
p555
ag114
aS'variable_37'
p556
ag15
ag110
aS'variable_39'
p557
ag194
ag8
aS'variable_7'
p558
ag8
aS'variable_39'
p559
ag15
ag20
aS'func_9'
p560
ag4
aS'variable_1'
p561
ag8
ag40
aS'variable_12'
p562
ag114
aS'variable_37'
p563
ag114
aS'variable_38'
p564
ag193
aS'sizeof'
p565
ag4
aS'variable_12'
p566
ag114
aS'variable_37'
p567
ag15
ag110
aS'variable_39'
p568
ag194
ag8
aS'variable_7'
p569
ag8
aS'variable_39'
p570
ag15
ag20
aS'func_10'
p571
ag4
aS'variable_1'
p572
ag8
ag40
aS'variable_12'
p573
ag114
aS'variable_37'
p574
ag114
aS'variable_38'
p575
ag193
aS'sizeof'
p576
ag4
aS'variable_12'
p577
ag114
aS'variable_37'
p578
ag15
ag110
aS'variable_39'
p579
ag194
ag8
aS'variable_7'
p580
ag8
aS'variable_39'
p581
ag15
ag20
aS'func_11'
p582
ag4
aS'variable_3'
p583
ag8
ag40
aS'variable_12'
p584
ag114
aS'variable_37'
p585
ag114
aS'variable_38'
p586
ag193
ag272
ag194
ag15
ag20
aS'variable_40'
p587
ag18
aS'func_12'
p588
ag4
aS'variable_5'
p589
ag8
aS'variable_41'
p590
ag8
aS'variable_1'
p591
ag8
aS'variable_7'
p592
ag8
aS'variable_39'
p593
ag8
ag4
aS'guint8'
p594
ag6
ag15
ag40
aS'variable_12'
p595
ag114
aS'variable_37'
p596
ag15
ag20
aS'func_13'
p597
ag4
aS'variable_3'
p598
ag8
aS'variable_40'
p599
ag8
aS'variable_42'
p600
ag8
aS'variable_43'
p601
ag8
ag288
aS'Failed'
p602
aS'to'
p603
aS'recover'
p604
aS'source'
p605
aS'IPv6'
p606
aS'address'
p607
ag288
ag15
ag20
aS'variable_7'
p608
aS'+='
p609
aS'variable_39'
p610
ag20
aS'memset'
p611
ag4
ag40
aS'variable_12'
p612
ag114
aS'variable_44'
p613
ag8
ag19
ag8
aS'sizeof'
p614
ag4
aS'variable_12'
p615
ag114
aS'variable_44'
p616
ag15
ag15
ag20
aS'variable_12'
p617
ag114
aS'variable_44'
p618
ag114
aS'variable_38'
p619
ag193
ag19
ag194
ag18
aS'0xfe'
p620
ag20
aS'variable_12'
p621
ag114
aS'variable_44'
p622
ag114
aS'variable_38'
p623
ag193
ag161
ag194
ag18
aS'0x80'
p624
ag20
aS'variable_39'
p625
ag18
aS'sizeof'
p626
ag4
aS'variable_12'
p627
ag114
aS'variable_44'
p628
ag15
ag20
aS'func_14'
p629
ag4
aS'variable_1'
p630
ag8
ag40
aS'variable_12'
p631
ag114
aS'variable_44'
p632
ag114
aS'variable_38'
p633
ag193
aS'sizeof'
p634
ag4
aS'variable_12'
p635
ag114
aS'variable_44'
p636
ag15
ag110
aS'variable_39'
p637
ag194
ag8
aS'variable_7'
p638
ag8
aS'variable_39'
p639
ag15
ag20
aS'func_15'
p640
ag4
aS'variable_1'
p641
ag8
ag40
aS'variable_12'
p642
ag114
aS'variable_44'
p643
ag114
aS'variable_38'
p644
ag193
aS'sizeof'
p645
ag4
aS'variable_12'
p646
ag114
aS'variable_44'
p647
ag15
ag110
aS'variable_39'
p648
ag194
ag8
aS'variable_7'
p649
ag8
aS'variable_39'
p650
ag15
ag20
aS'func_16'
p651
ag4
aS'variable_1'
p652
ag8
ag40
aS'variable_12'
p653
ag114
aS'variable_44'
p654
ag114
aS'variable_38'
p655
ag193
aS'sizeof'
p656
ag4
aS'variable_12'
p657
ag114
aS'variable_44'
p658
ag15
ag110
aS'variable_39'
p659
ag194
ag8
aS'variable_7'
p660
ag8
aS'variable_39'
p661
ag15
ag20
aS'func_17'
p662
ag4
aS'variable_3'
p663
ag8
ag40
aS'variable_12'
p664
ag114
aS'variable_44'
p665
ag114
aS'variable_38'
p666
ag193
ag272
ag194
ag15
ag20
aS'func_18'
p667
ag4
aS'variable_1'
p668
ag8
ag40
aS'variable_12'
p669
ag114
aS'variable_44'
p670
ag114
aS'variable_38'
p671
ag193
aS'sizeof'
p672
ag4
aS'variable_12'
p673
ag114
aS'variable_44'
p674
ag15
ag110
aS'variable_39'
p675
ag194
ag8
aS'variable_7'
p676
ag8
aS'variable_39'
p677
ag15
ag20
aS'variable_12'
p678
ag114
aS'variable_44'
p679
ag114
aS'variable_38'
p680
ag193
ag161
ag194
ag18
aS'func_19'
p681
ag4
aS'variable_1'
p682
ag8
aS'variable_7'
p683
ag325
ag4
aS'variable_39'
p684
aS'++'
p685
ag15
ag15
ag20
aS'variable_12'
p686
ag114
aS'variable_44'
p687
ag114
aS'variable_38'
p688
ag193
aS'11'
p689
ag194
ag18
aS'func_20'
p690
ag4
aS'variable_1'
p691
ag8
aS'variable_7'
p692
ag325
ag4
aS'variable_39'
p693
aS'++'
p694
ag15
ag15
ag20
aS'variable_12'
p695
ag114
aS'variable_44'
p696
ag114
aS'variable_38'
p697
ag193
aS'12'
p698
ag194
ag18
aS'func_21'
p699
ag4
aS'variable_1'
p700
ag8
aS'variable_7'
p701
ag325
ag4
aS'variable_39'
p702
aS'++'
p703
ag15
ag15
ag20
aS'variable_12'
p704
ag114
aS'variable_44'
p705
ag114
aS'variable_38'
p706
ag193
aS'13'
p707
ag194
ag18
aS'func_22'
p708
ag4
aS'variable_1'
p709
ag8
aS'variable_7'
p710
ag325
ag4
aS'variable_39'
p711
aS'++'
p712
ag15
ag15
ag20
aS'variable_12'
p713
ag114
aS'variable_44'
p714
ag114
aS'variable_38'
p715
ag193
aS'14'
p716
ag194
ag18
aS'func_23'
p717
ag4
aS'variable_1'
p718
ag8
aS'variable_7'
p719
ag325
ag4
aS'variable_39'
p720
aS'++'
p721
ag15
ag15
ag20
aS'variable_12'
p722
ag114
aS'variable_44'
p723
ag114
aS'variable_38'
p724
ag193
aS'15'
p725
ag194
ag18
aS'func_24'
p726
ag4
aS'variable_1'
p727
ag8
aS'variable_7'
p728
ag325
ag4
aS'variable_39'
p729
aS'++'
p730
ag15
ag15
ag20
aS'variable_12'
p731
ag114
aS'variable_44'
p732
ag114
aS'variable_38'
p733
ag193
ag161
ag194
ag18
aS'func_25'
p734
ag4
aS'variable_1'
p735
ag8
aS'variable_7'
p736
ag325
ag4
aS'variable_39'
p737
aS'++'
p738
ag15
ag15
ag20
aS'variable_12'
p739
ag114
aS'variable_44'
p740
ag114
aS'variable_38'
p741
ag193
aS'13'
p742
ag194
ag18
aS'func_26'
p743
ag4
aS'variable_1'
p744
ag8
aS'variable_7'
p745
ag325
ag4
aS'variable_39'
p746
aS'++'
p747
ag15
ag15
ag20
aS'variable_12'
p748
ag114
aS'variable_44'
p749
ag114
aS'variable_38'
p750
ag193
aS'14'
p751
ag194
ag18
aS'func_27'
p752
ag4
aS'variable_1'
p753
ag8
aS'variable_7'
p754
ag325
ag4
aS'variable_39'
p755
aS'++'
p756
ag15
ag15
ag20
aS'variable_12'
p757
ag114
aS'variable_44'
p758
ag114
aS'variable_38'
p759
ag193
aS'15'
p760
ag194
ag18
aS'func_28'
p761
ag4
aS'variable_1'
p762
ag8
aS'variable_7'
p763
ag325
ag4
aS'variable_39'
p764
aS'++'
p765
ag15
ag15
ag20
aS'variable_12'
p766
ag114
aS'variable_44'
p767
ag114
aS'variable_38'
p768
ag193
aS'15'
p769
ag194
ag18
aS'func_29'
p770
ag4
aS'variable_1'
p771
ag8
aS'variable_7'
p772
ag325
ag4
aS'variable_39'
p773
aS'++'
p774
ag15
ag15
ag20
aS'variable_12'
p775
ag114
aS'variable_44'
p776
ag114
aS'variable_38'
p777
ag193
ag161
ag194
ag18
aS'func_30'
p778
ag4
aS'variable_1'
p779
ag8
aS'variable_7'
p780
ag325
ag4
aS'variable_39'
p781
aS'++'
p782
ag15
ag15
ag20
aS'variable_12'
p783
ag114
aS'variable_44'
p784
ag114
aS'variable_38'
p785
ag193
aS'2'
p786
ag194
ag18
aS'func_31'
p787
ag4
aS'variable_1'
p788
ag8
aS'variable_7'
p789
ag325
ag4
aS'variable_39'
p790
aS'++'
p791
ag15
ag15
ag20
aS'variable_12'
p792
ag114
aS'variable_44'
p793
ag114
aS'variable_38'
p794
ag193
aS'12'
p795
ag194
ag18
aS'func_32'
p796
ag4
aS'variable_1'
p797
ag8
aS'variable_7'
p798
ag325
ag4
aS'variable_39'
p799
aS'++'
p800
ag15
ag15
ag20
aS'variable_12'
p801
ag114
aS'variable_44'
p802
ag114
aS'variable_38'
p803
ag193
aS'13'
p804
ag194
ag18
aS'func_33'
p805
ag4
aS'variable_1'
p806
ag8
aS'variable_7'
p807
ag325
ag4
aS'variable_39'
p808
aS'++'
p809
ag15
ag15
ag20
aS'variable_12'
p810
ag114
aS'variable_44'
p811
ag114
aS'variable_38'
p812
ag193
aS'14'
p813
ag194
ag18
aS'func_34'
p814
ag4
aS'variable_1'
p815
ag8
aS'variable_7'
p816
ag325
ag4
aS'variable_39'
p817
aS'++'
p818
ag15
ag15
ag20
aS'variable_12'
p819
ag114
aS'variable_44'
p820
ag114
aS'variable_38'
p821
ag193
aS'15'
p822
ag194
ag18
aS'func_35'
p823
ag4
aS'variable_1'
p824
ag8
aS'variable_7'
p825
ag325
ag4
aS'variable_39'
p826
aS'++'
p827
ag15
ag15
ag20
aS'variable_40'
p828
ag18
aS'func_36'
p829
ag4
aS'variable_5'
p830
ag8
aS'variable_45'
p831
ag8
aS'variable_1'
p832
ag8
aS'variable_7'
p833
ag8
aS'variable_39'
p834
ag8
ag4
aS'guint8'
p835
ag6
ag15
ag40
aS'variable_12'
p836
ag114
aS'variable_44'
p837
ag15
ag20
aS'func_37'
p838
ag4
aS'variable_3'
p839
ag8
aS'variable_40'
p840
ag8
aS'variable_42'
p841
ag8
aS'variable_43'
p842
ag8
ag288
aS'Failed'
p843
aS'to'
p844
aS'recover'
p845
aS'destination'
p846
aS'IPv6'
p847
aS'address'
p848
ag288
ag15
ag20
aS'variable_7'
p849
aS'+='
p850
aS'variable_39'
p851
ag20
aS'variable_12'
p852
ag114
aS'variable_32'
p853
ag18
aS'func_38'
p854
ag4
aS'variable_1'
p855
ag8
aS'variable_7'
p856
ag15
ag20
aS'variable_46'
p857
ag18
aS'func_39'
p858
ag4
aS'variable_1'
p859
ag8
aS'variable_3'
p860
ag8
aS'variable_5'
p861
ag8
aS'variable_7'
p862
ag8
aS'variable_6'
p863
ag110
aS'sizeof'
p864
ag4
aS'struct'
p865
aS'variable_47'
p866
ag15
ag15
ag20
aS'variable_39'
p867
ag18
ag4
aS'variable_48'
p868
ag15
aS'func_40'
p869
ag4
aS'variable_1'
p870
ag8
aS'variable_7'
p871
ag15
ag20
aS'variable_46'
p872
ag18
ag4
aS'struct'
p873
aS'lowpan_nhdr'
p874
ag6
ag15
aS'func_41'
p875
ag4
aS'sizeof'
p876
ag4
aS'struct'
p877
aS'variable_49'
p878
ag15
ag325
aS'variable_39'
p879
ag15
ag20
aS'variable_46'
p880
aS'->'
p881
aS'variable_50'
p882
ag18
aS'NULL'
p883
ag20
aS'variable_46'
p884
aS'->'
p885
aS'variable_51'
p886
ag18
aS'variable_12'
p887
ag114
aS'variable_32'
p888
ag20
aS'variable_46'
p889
aS'->'
p890
aS'variable_39'
p891
ag18
aS'variable_39'
p892
ag20
aS'variable_46'
p893
aS'->'
p894
aS'variable_52'
p895
ag18
aS'func_42'
p896
ag4
aS'variable_1'
p897
ag8
aS'variable_7'
p898
ag15
ag20
aS'variable_46'
p899
aS'->'
p900
aS'variable_52'
p901
ag18
aS'variable_6'
p902
ag110
aS'sizeof'
p903
ag4
aS'struct'
p904
aS'variable_47'
p905
ag15
ag20
aS'func_43'
p906
ag4
aS'variable_1'
p907
ag8
aS'func_44'
p908
ag4
aS'variable_46'
p909
ag15
ag8
aS'variable_7'
p910
ag8
aS'variable_46'
p911
aS'->'
p912
aS'variable_39'
p913
ag15
ag20
aS'variable_53'
p914
ag18
aS'func_45'
p915
ag4
aS'variable_1'
p916
ag8
ag40
aS'variable_12'
p917
ag8
aS'variable_46'
p918
ag15
ag20
aS'func_46'
p919
ag4
aS'variable_3'
p920
ag8
aS'variable_53'
p921
ag8
ag288
aS'Decompressed'
p922
aS'6LoWPAN'
p923
aS'header'
p924
ag288
ag15
ag20
aS'return'
p925
aS'variable_53'
p926
ag20
aaa(lp927
I0
aI0
aa(lp928
I397
aI312
aa(lp929
(lp930
S'main'
p931
aa(lp932
g931
aaa(lp933
S'59 /home/SySeVR/data/CVE_2011_1138_PATCHED_dissect_6lowpan_iphc.c memset 227'
p934
aS'60 /home/SySeVR/data/CVE_2011_1138_PATCHED_dissect_6lowpan_iphc.c memset 154'
p935
aa.