(lp0
(lp1
(lp2
S'func_0'
p3
aS'('
p4
aS'variable_0'
p5
aS'*'
p6
aS'variable_1'
p7
aS','
p8
aS'variable_2'
p9
ag6
aS'variable_3'
p10
ag8
aS'variable_4'
p11
ag6
aS'variable_5'
p12
ag8
aS'gint'
p13
aS'variable_6'
p14
aS')'
p15
aS'gint'
p16
aS'variable_7'
p17
aS'='
p18
aS'0'
p19
aS';'
p20
aS'gint'
p21
aS'variable_8'
p22
ag20
aS'guint16'
p23
aS'variable_9'
p24
ag20
aS'guint8'
p25
aS'variable_10'
p26
ag20
aS'guint8'
p27
aS'variable_11'
p28
ag20
aS'guint8'
p29
aS'variable_12'
p30
ag20
aS'guint8'
p31
aS'variable_13'
p32
ag20
aS'guint8'
p33
aS'variable_14'
p34
ag18
ag19
ag20
aS'struct'
p35
aS'ip6_hdr'
p36
aS'variable_15'
p37
ag20
aS'struct'
p38
aS'variable_16'
p39
ag6
aS'variable_17'
p40
ag20
aS'variable_9'
p41
ag18
aS'func_1'
p42
ag4
aS'variable_1'
p43
ag8
aS'variable_7'
p44
ag15
ag20
aS'variable_10'
p45
ag18
ag4
aS'variable_9'
p46
aS'&'
p47
aS'variable_18'
p48
ag15
aS'>>'
p49
aS'variable_19'
p50
ag20
aS'variable_11'
p51
ag18
ag4
aS'variable_9'
p52
ag47
aS'variable_20'
p53
ag15
aS'>>'
p54
aS'variable_21'
p55
ag20
aS'variable_12'
p56
ag18
ag4
aS'variable_9'
p57
ag47
aS'variable_22'
p58
ag15
aS'>>'
p59
aS'variable_23'
p60
ag20
aS'variable_13'
p61
ag18
ag4
aS'variable_9'
p62
ag47
aS'variable_24'
p63
ag15
aS'>>'
p64
aS'variable_25'
p65
ag20
aS'variable_7'
p66
aS'+='
p67
aS'sizeof'
p68
ag4
aS'variable_26'
p69
ag15
ag20
aS'if'
p70
ag4
aS'variable_9'
p71
ag47
aS'variable_27'
p72
ag15
aS'variable_7'
p73
aS'+='
p74
aS'sizeof'
p75
ag4
aS'variable_28'
p76
ag15
ag20
aS'variable_7'
p77
aS'<<'
p78
ag18
aS'3'
p79
ag20
aS'if'
p80
ag4
aS'variable_10'
p81
aS'!='
p82
aS'variable_29'
p83
ag15
aS'variable_14'
p84
aS'|'
p85
ag18
aS'func_2'
p86
ag4
aS'variable_1'
p87
ag8
aS'variable_7'
p88
ag8
aS'variable_30'
p89
ag15
ag20
aS'variable_7'
p90
aS'+='
p91
aS'variable_30'
p92
ag20
aS'if'
p93
ag4
ag4
aS'variable_10'
p94
aS'=='
p95
aS'variable_31'
p96
ag15
aS'||'
p97
ag4
aS'variable_10'
p98
aS'=='
p99
aS'variable_32'
p100
ag15
ag15
aS'variable_14'
p101
ag85
ag18
ag4
aS'func_3'
p102
ag4
aS'variable_1'
p103
ag8
aS'variable_7'
p104
ag8
aS'variable_33'
p105
ag15
aS'<<'
p106
aS'variable_30'
p107
ag15
ag20
aS'variable_7'
p108
aS'+='
p109
aS'variable_33'
p110
ag20
aS'if'
p111
ag4
ag4
aS'variable_10'
p112
aS'=='
p113
aS'variable_31'
p114
ag15
aS'||'
p115
ag4
aS'variable_10'
p116
aS'=='
p117
aS'variable_34'
p118
ag15
ag15
aS'variable_7'
p119
aS'+='
p120
ag4
ag4
aS'4'
p121
aS'-'
p122
aS'variable_7'
p123
ag15
ag47
aS'0x7'
p124
ag15
ag20
aS'variable_15'
p125
aS'.'
p126
aS'variable_35'
p127
ag18
aS'func_4'
p128
ag4
aS'variable_1'
p129
ag8
aS'variable_7'
p130
ag8
aS'variable_36'
p131
ag8
aS'variable_37'
p132
ag15
ag20
aS'variable_7'
p133
aS'+='
p134
aS'variable_36'
p135
ag20
aS'variable_15'
p136
ag126
aS'variable_35'
p137
ag18
ag19
ag20
aS'variable_15'
p138
ag126
aS'variable_35'
p139
ag18
aS'func_5'
p140
ag4
aS'variable_15'
p141
ag126
aS'variable_35'
p142
ag15
ag85
ag4
aS'variable_14'
p143
aS'<<'
p144
aS'variable_38'
p145
ag15
ag20
aS'variable_15'
p146
ag126
aS'variable_39'
p147
ag18
ag4
aS'0x6'
p148
aS'<<'
p149
ag121
ag15
ag85
ag4
aS'variable_14'
p150
aS'>>'
p151
ag121
ag15
ag20
aS'variable_7'
p152
aS'>>'
p153
ag18
ag79
ag20
aS'if'
p154
ag4
aS'!'
p155
ag4
aS'variable_9'
p156
ag47
aS'variable_40'
p157
ag15
ag15
aS'variable_15'
p158
ag126
aS'variable_41'
p159
ag18
aS'func_6'
p160
ag4
aS'variable_1'
p161
ag8
aS'variable_7'
p162
ag15
ag20
aS'variable_7'
p163
aS'+='
p164
aS'sizeof'
p165
ag4
aS'variable_28'
p166
ag15
ag20
aS'if'
p167
ag4
aS'variable_11'
p168
aS'=='
p169
aS'variable_42'
p170
ag15
aS'variable_15'
p171
ag126
aS'variable_43'
p172
ag18
aS'1'
p173
ag20
aS'if'
p174
ag4
aS'variable_11'
p175
aS'=='
p176
aS'variable_44'
p177
ag15
aS'variable_15'
p178
ag126
aS'variable_43'
p179
ag18
aS'64'
p180
ag20
aS'if'
p181
ag4
aS'variable_11'
p182
aS'=='
p183
aS'variable_45'
p184
ag15
aS'variable_15'
p185
ag126
aS'variable_43'
p186
ag18
aS'255'
p187
ag20
aS'variable_15'
p188
ag126
aS'variable_43'
p189
ag18
aS'func_7'
p190
ag4
aS'variable_1'
p191
ag8
aS'variable_7'
p192
ag15
ag20
aS'variable_7'
p193
aS'+='
p194
aS'sizeof'
p195
ag4
aS'variable_28'
p196
ag15
ag20
aS'variable_8'
p197
ag18
ag19
ag20
aS'memset'
p198
ag4
ag47
aS'variable_15'
p199
ag126
aS'variable_46'
p200
ag8
ag19
ag8
aS'sizeof'
p201
ag4
aS'variable_15'
p202
ag126
aS'variable_46'
p203
ag15
ag15
ag20
aS'if'
p204
ag4
ag155
ag4
aS'variable_9'
p205
ag47
aS'variable_47'
p206
ag15
ag15
aS'variable_15'
p207
ag126
aS'variable_46'
p208
ag126
aS'variable_48'
p209
aS'['
p210
ag19
aS']'
p211
ag18
aS'0xfe'
p212
ag20
aS'variable_15'
p213
ag126
aS'variable_46'
p214
ag126
aS'variable_48'
p215
ag210
ag173
ag211
ag18
aS'0x80'
p216
ag20
aS'if'
p217
ag4
aS'variable_12'
p218
aS'=='
p219
aS'variable_49'
p220
ag15
aS'variable_8'
p221
ag18
aS'sizeof'
p222
ag4
aS'variable_15'
p223
ag126
aS'variable_46'
p224
ag15
ag20
aS'if'
p225
ag4
aS'variable_12'
p226
aS'=='
p227
aS'variable_50'
p228
ag15
aS'variable_8'
p229
ag18
aS'sizeof'
p230
ag4
aS'variable_51'
p231
ag15
ag20
aS'if'
p232
ag4
aS'variable_12'
p233
aS'=='
p234
aS'variable_52'
p235
ag15
aS'variable_8'
p236
ag18
aS'sizeof'
p237
ag4
aS'variable_26'
p238
ag15
ag20
aS'if'
p239
ag4
aS'variable_12'
p240
aS'=='
p241
aS'variable_53'
p242
ag15
aS'variable_8'
p243
ag18
ag19
ag20
aS'if'
p244
ag4
aS'variable_12'
p245
aS'=='
p246
aS'variable_50'
p247
ag15
aS'variable_8'
p248
ag18
aS'sizeof'
p249
ag4
aS'variable_51'
p250
ag15
ag20
aS'if'
p251
ag4
aS'variable_12'
p252
aS'=='
p253
aS'variable_52'
p254
ag15
aS'variable_8'
p255
ag18
aS'sizeof'
p256
ag4
aS'variable_26'
p257
ag15
ag20
aS'if'
p258
ag4
aS'variable_12'
p259
aS'=='
p260
aS'variable_54'
p261
ag15
aS'variable_8'
p262
ag18
ag19
ag20
aS'variable_7'
p263
aS'+='
p264
aS'variable_8'
p265
ag20
aS'variable_8'
p266
ag18
ag19
ag20
aS'memset'
p267
ag4
ag47
aS'variable_15'
p268
ag126
aS'variable_55'
p269
ag8
ag19
ag8
aS'sizeof'
p270
ag4
aS'variable_15'
p271
ag126
aS'variable_55'
p272
ag15
ag15
ag20
aS'if'
p273
ag4
ag155
ag4
aS'variable_9'
p274
ag47
aS'variable_56'
p275
ag15
aS'&&'
p276
ag155
ag4
aS'variable_9'
p277
ag47
aS'variable_57'
p278
ag15
ag15
aS'variable_15'
p279
ag126
aS'variable_55'
p280
ag126
aS'variable_48'
p281
ag210
ag19
ag211
ag18
aS'0xfe'
p282
ag20
aS'variable_15'
p283
ag126
aS'variable_55'
p284
ag126
aS'variable_48'
p285
ag210
ag173
ag211
ag18
aS'0x80'
p286
ag20
aS'if'
p287
ag4
aS'variable_13'
p288
aS'=='
p289
aS'variable_49'
p290
ag15
aS'variable_8'
p291
ag18
aS'sizeof'
p292
ag4
aS'variable_15'
p293
ag126
aS'variable_55'
p294
ag15
ag20
aS'if'
p295
ag4
aS'variable_13'
p296
aS'=='
p297
aS'variable_50'
p298
ag15
aS'variable_8'
p299
ag18
aS'sizeof'
p300
ag4
aS'variable_51'
p301
ag15
ag20
aS'if'
p302
ag4
aS'variable_13'
p303
aS'=='
p304
aS'variable_52'
p305
ag15
aS'variable_8'
p306
ag18
aS'sizeof'
p307
ag4
aS'variable_26'
p308
ag15
ag20
aS'if'
p309
ag4
ag155
ag4
aS'variable_9'
p310
ag47
aS'variable_56'
p311
ag15
aS'&&'
p312
ag4
aS'variable_9'
p313
ag47
aS'variable_57'
p314
ag15
ag15
aS'if'
p315
ag4
aS'variable_13'
p316
aS'=='
p317
aS'variable_49'
p318
ag15
aS'variable_8'
p319
ag18
aS'sizeof'
p320
ag4
aS'variable_15'
p321
ag126
aS'variable_55'
p322
ag15
ag20
aS'if'
p323
ag4
aS'variable_13'
p324
aS'=='
p325
aS'variable_58'
p326
ag15
aS'variable_15'
p327
ag126
aS'variable_55'
p328
ag126
aS'variable_48'
p329
ag210
ag19
ag211
ag18
aS'0xff'
p330
ag20
aS'variable_15'
p331
ag126
aS'variable_55'
p332
ag126
aS'variable_48'
p333
ag210
ag173
ag211
ag18
aS'func_8'
p334
ag4
aS'variable_1'
p335
ag8
aS'variable_7'
p336
aS'+'
p337
ag4
aS'variable_8'
p338
aS'++'
p339
ag15
ag15
ag20
aS'variable_15'
p340
ag126
aS'variable_55'
p341
ag126
aS'variable_48'
p342
ag210
aS'11'
p343
ag211
ag18
aS'func_9'
p344
ag4
aS'variable_1'
p345
ag8
aS'variable_7'
p346
ag337
ag4
aS'variable_8'
p347
aS'++'
p348
ag15
ag15
ag20
aS'variable_15'
p349
ag126
aS'variable_55'
p350
ag126
aS'variable_48'
p351
ag210
aS'12'
p352
ag211
ag18
aS'func_10'
p353
ag4
aS'variable_1'
p354
ag8
aS'variable_7'
p355
ag337
ag4
aS'variable_8'
p356
aS'++'
p357
ag15
ag15
ag20
aS'variable_15'
p358
ag126
aS'variable_55'
p359
ag126
aS'variable_48'
p360
ag210
aS'13'
p361
ag211
ag18
aS'func_11'
p362
ag4
aS'variable_1'
p363
ag8
aS'variable_7'
p364
ag337
ag4
aS'variable_8'
p365
aS'++'
p366
ag15
ag15
ag20
aS'variable_15'
p367
ag126
aS'variable_55'
p368
ag126
aS'variable_48'
p369
ag210
aS'14'
p370
ag211
ag18
aS'func_12'
p371
ag4
aS'variable_1'
p372
ag8
aS'variable_7'
p373
ag337
ag4
aS'variable_8'
p374
aS'++'
p375
ag15
ag15
ag20
aS'variable_15'
p376
ag126
aS'variable_55'
p377
ag126
aS'variable_48'
p378
ag210
aS'15'
p379
ag211
ag18
aS'func_13'
p380
ag4
aS'variable_1'
p381
ag8
aS'variable_7'
p382
ag337
ag4
aS'variable_8'
p383
aS'++'
p384
ag15
ag15
ag20
aS'if'
p385
ag4
aS'variable_13'
p386
aS'=='
p387
aS'variable_59'
p388
ag15
aS'variable_15'
p389
ag126
aS'variable_55'
p390
ag126
aS'variable_48'
p391
ag210
ag19
ag211
ag18
aS'0xff'
p392
ag20
aS'variable_15'
p393
ag126
aS'variable_55'
p394
ag126
aS'variable_48'
p395
ag210
ag173
ag211
ag18
aS'func_14'
p396
ag4
aS'variable_1'
p397
ag8
aS'variable_7'
p398
ag337
ag4
aS'variable_8'
p399
aS'++'
p400
ag15
ag15
ag20
aS'variable_15'
p401
ag126
aS'variable_55'
p402
ag126
aS'variable_48'
p403
ag210
aS'13'
p404
ag211
ag18
aS'func_15'
p405
ag4
aS'variable_1'
p406
ag8
aS'variable_7'
p407
ag337
ag4
aS'variable_8'
p408
aS'++'
p409
ag15
ag15
ag20
aS'variable_15'
p410
ag126
aS'variable_55'
p411
ag126
aS'variable_48'
p412
ag210
aS'14'
p413
ag211
ag18
aS'func_16'
p414
ag4
aS'variable_1'
p415
ag8
aS'variable_7'
p416
ag337
ag4
aS'variable_8'
p417
aS'++'
p418
ag15
ag15
ag20
aS'variable_15'
p419
ag126
aS'variable_55'
p420
ag126
aS'variable_48'
p421
ag210
aS'15'
p422
ag211
ag18
aS'func_17'
p423
ag4
aS'variable_1'
p424
ag8
aS'variable_7'
p425
ag337
ag4
aS'variable_8'
p426
aS'++'
p427
ag15
ag15
ag20
aS'if'
p428
ag4
aS'variable_13'
p429
aS'=='
p430
aS'variable_60'
p431
ag15
aS'variable_15'
p432
ag126
aS'variable_55'
p433
ag126
aS'variable_48'
p434
ag210
ag19
ag211
ag18
aS'0xff'
p435
ag20
aS'variable_15'
p436
ag126
aS'variable_55'
p437
ag126
aS'variable_48'
p438
ag210
ag173
ag211
ag18
aS'0x02'
p439
ag20
aS'variable_15'
p440
ag126
aS'variable_55'
p441
ag126
aS'variable_48'
p442
ag210
aS'15'
p443
ag211
ag18
aS'func_18'
p444
ag4
aS'variable_1'
p445
ag8
aS'variable_7'
p446
ag337
ag4
aS'variable_8'
p447
aS'++'
p448
ag15
ag15
ag20
aS'if'
p449
ag4
ag4
aS'variable_9'
p450
ag47
aS'variable_56'
p451
ag15
aS'&&'
p452
ag155
ag4
aS'variable_9'
p453
ag47
aS'variable_57'
p454
ag15
ag15
aS'if'
p455
ag4
aS'variable_13'
p456
aS'=='
p457
aS'variable_50'
p458
ag15
aS'variable_8'
p459
ag18
aS'sizeof'
p460
ag4
aS'variable_51'
p461
ag15
ag20
aS'if'
p462
ag4
aS'variable_13'
p463
aS'=='
p464
aS'variable_52'
p465
ag15
aS'variable_8'
p466
ag18
aS'sizeof'
p467
ag4
aS'variable_26'
p468
ag15
ag20
aS'if'
p469
ag4
aS'variable_13'
p470
aS'=='
p471
aS'variable_54'
p472
ag15
aS'variable_8'
p473
ag18
ag19
ag20
aS'if'
p474
ag4
aS'variable_13'
p475
aS'=='
p476
aS'variable_61'
p477
ag15
aS'variable_15'
p478
ag126
aS'variable_55'
p479
ag126
aS'variable_48'
p480
ag210
ag19
ag211
ag18
aS'0xff'
p481
ag20
aS'variable_15'
p482
ag126
aS'variable_55'
p483
ag126
aS'variable_48'
p484
ag210
ag173
ag211
ag18
aS'func_19'
p485
ag4
aS'variable_1'
p486
ag8
aS'variable_7'
p487
ag337
ag4
aS'variable_8'
p488
aS'++'
p489
ag15
ag15
ag20
aS'variable_15'
p490
ag126
aS'variable_55'
p491
ag126
aS'variable_48'
p492
ag210
aS'2'
p493
ag211
ag18
aS'func_20'
p494
ag4
aS'variable_1'
p495
ag8
aS'variable_7'
p496
ag337
ag4
aS'variable_8'
p497
aS'++'
p498
ag15
ag15
ag20
aS'variable_15'
p499
ag126
aS'variable_55'
p500
ag126
aS'variable_48'
p501
ag210
aS'12'
p502
ag211
ag18
aS'func_21'
p503
ag4
aS'variable_1'
p504
ag8
aS'variable_7'
p505
ag337
ag4
aS'variable_8'
p506
aS'++'
p507
ag15
ag15
ag20
aS'variable_15'
p508
ag126
aS'variable_55'
p509
ag126
aS'variable_48'
p510
ag210
aS'13'
p511
ag211
ag18
aS'func_22'
p512
ag4
aS'variable_1'
p513
ag8
aS'variable_7'
p514
ag337
ag4
aS'variable_8'
p515
aS'++'
p516
ag15
ag15
ag20
aS'variable_15'
p517
ag126
aS'variable_55'
p518
ag126
aS'variable_48'
p519
ag210
aS'14'
p520
ag211
ag18
aS'func_23'
p521
ag4
aS'variable_1'
p522
ag8
aS'variable_7'
p523
ag337
ag4
aS'variable_8'
p524
aS'++'
p525
ag15
ag15
ag20
aS'variable_15'
p526
ag126
aS'variable_55'
p527
ag126
aS'variable_48'
p528
ag210
aS'15'
p529
ag211
ag18
aS'func_24'
p530
ag4
aS'variable_1'
p531
ag8
aS'variable_7'
p532
ag337
ag4
aS'variable_8'
p533
aS'++'
p534
ag15
ag15
ag20
aS'variable_7'
p535
aS'+='
p536
aS'variable_8'
p537
ag20
aS'if'
p538
ag4
aS'variable_9'
p539
ag47
aS'variable_40'
p540
ag15
aS'variable_8'
p541
ag18
ag4
aS'variable_62'
p542
ag15
aS'func_25'
p543
ag4
aS'variable_1'
p544
ag8
aS'variable_7'
p545
ag15
ag20
aS'variable_17'
p546
ag18
ag4
aS'struct'
p547
aS'lowpan_nhdr'
p548
ag6
ag15
aS'func_26'
p549
ag4
aS'sizeof'
p550
ag4
aS'struct'
p551
aS'variable_16'
p552
ag15
ag337
aS'variable_8'
p553
ag15
ag20
aS'if'
p554
ag4
aS'variable_6'
p555
aS'<'
p556
ag19
ag15
aS'variable_17'
p557
aS'->'
p558
aS'variable_63'
p559
ag18
aS'variable_6'
p560
ag122
aS'sizeof'
p561
ag4
aS'struct'
p562
aS'variable_64'
p563
ag15
ag20
aS'func_27'
p564
ag4
aS'variable_1'
p565
ag8
aS'func_28'
p566
ag4
aS'variable_17'
p567
ag15
ag8
aS'variable_7'
p568
ag8
aS'variable_17'
p569
aS'->'
p570
aS'variable_8'
p571
ag15
ag20
aS'variable_65'
p572
ag18
aS'func_29'
p573
ag4
aS'variable_1'
p574
ag8
ag47
aS'variable_15'
p575
ag8
aS'variable_17'
p576
ag15
ag20
aS'func_30'
p577
ag4
aS'variable_3'
p578
ag8
aS'variable_65'
p579
ag8
aS'"'
p580
aS'Decompressed'
p581
aS'6LoWPAN'
p582
aS'header'
p583
ag580
ag15
ag20
aS'return'
p584
aS'variable_65'
p585
ag20
aa(lp586
S'func_0'
p587
ag4
aS'variable_0'
p588
ag6
aS'variable_1'
p589
ag8
aS'variable_2'
p590
ag6
aS'variable_3'
p591
ag8
aS'variable_4'
p592
ag6
aS'variable_5'
p593
ag8
aS'gint'
p594
aS'variable_6'
p595
ag15
aS'gint'
p596
aS'variable_7'
p597
ag18
ag19
ag20
aS'gint'
p598
aS'variable_8'
p599
ag20
aS'guint16'
p600
aS'variable_9'
p601
ag20
aS'guint8'
p602
aS'variable_10'
p603
ag20
aS'guint8'
p604
aS'variable_11'
p605
ag20
aS'guint8'
p606
aS'variable_12'
p607
ag20
aS'guint8'
p608
aS'variable_13'
p609
ag20
aS'guint8'
p610
aS'variable_14'
p611
ag18
ag19
ag20
aS'struct'
p612
aS'ip6_hdr'
p613
aS'variable_15'
p614
ag20
aS'struct'
p615
aS'variable_16'
p616
ag6
aS'variable_17'
p617
ag20
aS'variable_9'
p618
ag18
aS'func_1'
p619
ag4
aS'variable_1'
p620
ag8
aS'variable_7'
p621
ag15
ag20
aS'variable_10'
p622
ag18
ag4
aS'variable_9'
p623
ag47
aS'variable_18'
p624
ag15
aS'>>'
p625
aS'variable_19'
p626
ag20
aS'variable_11'
p627
ag18
ag4
aS'variable_9'
p628
ag47
aS'variable_20'
p629
ag15
aS'>>'
p630
aS'variable_21'
p631
ag20
aS'variable_12'
p632
ag18
ag4
aS'variable_9'
p633
ag47
aS'variable_22'
p634
ag15
aS'>>'
p635
aS'variable_23'
p636
ag20
aS'variable_13'
p637
ag18
ag4
aS'variable_9'
p638
ag47
aS'variable_24'
p639
ag15
aS'>>'
p640
aS'variable_25'
p641
ag20
aS'variable_7'
p642
aS'+='
p643
aS'sizeof'
p644
ag4
aS'variable_26'
p645
ag15
ag20
aS'if'
p646
ag4
aS'variable_9'
p647
ag47
aS'variable_27'
p648
ag15
aS'variable_7'
p649
aS'+='
p650
aS'sizeof'
p651
ag4
aS'variable_28'
p652
ag15
ag20
aS'variable_7'
p653
aS'<<'
p654
ag18
ag79
ag20
aS'if'
p655
ag4
aS'variable_10'
p656
aS'!='
p657
aS'variable_29'
p658
ag15
aS'variable_14'
p659
ag85
ag18
aS'func_2'
p660
ag4
aS'variable_1'
p661
ag8
aS'variable_7'
p662
ag8
aS'variable_30'
p663
ag15
ag20
aS'variable_7'
p664
aS'+='
p665
aS'variable_30'
p666
ag20
aS'if'
p667
ag4
ag4
aS'variable_10'
p668
aS'=='
p669
aS'variable_31'
p670
ag15
aS'||'
p671
ag4
aS'variable_10'
p672
aS'=='
p673
aS'variable_32'
p674
ag15
ag15
aS'variable_14'
p675
ag85
ag18
ag4
aS'func_3'
p676
ag4
aS'variable_1'
p677
ag8
aS'variable_7'
p678
ag8
aS'variable_33'
p679
ag15
aS'<<'
p680
aS'variable_30'
p681
ag15
ag20
aS'variable_7'
p682
aS'+='
p683
aS'variable_33'
p684
ag20
aS'if'
p685
ag4
ag4
aS'variable_10'
p686
aS'=='
p687
aS'variable_31'
p688
ag15
aS'||'
p689
ag4
aS'variable_10'
p690
aS'=='
p691
aS'variable_34'
p692
ag15
ag15
aS'variable_7'
p693
aS'+='
p694
ag4
ag4
ag121
ag122
aS'variable_7'
p695
ag15
ag47
aS'0x7'
p696
ag15
ag20
aS'variable_15'
p697
ag126
aS'variable_35'
p698
ag18
aS'func_4'
p699
ag4
aS'variable_1'
p700
ag8
aS'variable_7'
p701
ag8
aS'variable_36'
p702
ag8
aS'variable_37'
p703
ag15
ag20
aS'variable_7'
p704
aS'+='
p705
aS'variable_36'
p706
ag20
aS'variable_15'
p707
ag126
aS'variable_35'
p708
ag18
ag19
ag20
aS'variable_15'
p709
ag126
aS'variable_35'
p710
ag18
aS'func_5'
p711
ag4
aS'variable_15'
p712
ag126
aS'variable_35'
p713
ag15
ag85
ag4
aS'variable_14'
p714
aS'<<'
p715
aS'variable_38'
p716
ag15
ag20
aS'variable_15'
p717
ag126
aS'variable_39'
p718
ag18
ag4
aS'0x6'
p719
aS'<<'
p720
ag121
ag15
ag85
ag4
aS'variable_14'
p721
aS'>>'
p722
ag121
ag15
ag20
aS'variable_7'
p723
aS'>>'
p724
ag18
ag79
ag20
aS'if'
p725
ag4
ag155
ag4
aS'variable_9'
p726
ag47
aS'variable_40'
p727
ag15
ag15
aS'variable_15'
p728
ag126
aS'variable_41'
p729
ag18
aS'func_6'
p730
ag4
aS'variable_1'
p731
ag8
aS'variable_7'
p732
ag15
ag20
aS'variable_7'
p733
aS'+='
p734
aS'sizeof'
p735
ag4
aS'variable_28'
p736
ag15
ag20
aS'if'
p737
ag4
aS'variable_11'
p738
aS'=='
p739
aS'variable_42'
p740
ag15
aS'variable_15'
p741
ag126
aS'variable_43'
p742
ag18
ag173
ag20
aS'if'
p743
ag4
aS'variable_11'
p744
aS'=='
p745
aS'variable_44'
p746
ag15
aS'variable_15'
p747
ag126
aS'variable_43'
p748
ag18
aS'64'
p749
ag20
aS'if'
p750
ag4
aS'variable_11'
p751
aS'=='
p752
aS'variable_45'
p753
ag15
aS'variable_15'
p754
ag126
aS'variable_43'
p755
ag18
aS'255'
p756
ag20
aS'variable_15'
p757
ag126
aS'variable_43'
p758
ag18
aS'func_7'
p759
ag4
aS'variable_1'
p760
ag8
aS'variable_7'
p761
ag15
ag20
aS'variable_7'
p762
aS'+='
p763
aS'sizeof'
p764
ag4
aS'variable_28'
p765
ag15
ag20
aS'variable_8'
p766
ag18
ag19
ag20
aS'memset'
p767
ag4
ag47
aS'variable_15'
p768
ag126
aS'variable_46'
p769
ag8
ag19
ag8
aS'sizeof'
p770
ag4
aS'variable_15'
p771
ag126
aS'variable_46'
p772
ag15
ag15
ag20
aS'if'
p773
ag4
ag155
ag4
aS'variable_9'
p774
ag47
aS'variable_47'
p775
ag15
ag15
aS'variable_15'
p776
ag126
aS'variable_46'
p777
ag126
aS'variable_48'
p778
ag210
ag19
ag211
ag18
aS'0xfe'
p779
ag20
aS'variable_15'
p780
ag126
aS'variable_46'
p781
ag126
aS'variable_48'
p782
ag210
ag173
ag211
ag18
aS'0x80'
p783
ag20
aS'if'
p784
ag4
aS'variable_12'
p785
aS'=='
p786
aS'variable_49'
p787
ag15
aS'variable_8'
p788
ag18
aS'sizeof'
p789
ag4
aS'variable_15'
p790
ag126
aS'variable_46'
p791
ag15
ag20
aS'if'
p792
ag4
aS'variable_12'
p793
aS'=='
p794
aS'variable_50'
p795
ag15
aS'variable_8'
p796
ag18
aS'sizeof'
p797
ag4
aS'variable_51'
p798
ag15
ag20
aS'if'
p799
ag4
aS'variable_12'
p800
aS'=='
p801
aS'variable_52'
p802
ag15
aS'variable_8'
p803
ag18
aS'sizeof'
p804
ag4
aS'variable_26'
p805
ag15
ag20
aS'if'
p806
ag4
aS'variable_12'
p807
aS'=='
p808
aS'variable_53'
p809
ag15
aS'variable_8'
p810
ag18
ag19
ag20
aS'if'
p811
ag4
aS'variable_12'
p812
aS'=='
p813
aS'variable_50'
p814
ag15
aS'variable_8'
p815
ag18
aS'sizeof'
p816
ag4
aS'variable_51'
p817
ag15
ag20
aS'if'
p818
ag4
aS'variable_12'
p819
aS'=='
p820
aS'variable_52'
p821
ag15
aS'variable_8'
p822
ag18
aS'sizeof'
p823
ag4
aS'variable_26'
p824
ag15
ag20
aS'if'
p825
ag4
aS'variable_12'
p826
aS'=='
p827
aS'variable_54'
p828
ag15
aS'variable_8'
p829
ag18
ag19
ag20
aS'variable_7'
p830
aS'+='
p831
aS'variable_8'
p832
ag20
aS'variable_8'
p833
ag18
ag19
ag20
aS'memset'
p834
ag4
ag47
aS'variable_15'
p835
ag126
aS'variable_55'
p836
ag8
ag19
ag8
aS'sizeof'
p837
ag4
aS'variable_15'
p838
ag126
aS'variable_55'
p839
ag15
ag15
ag20
aS'if'
p840
ag4
ag155
ag4
aS'variable_9'
p841
ag47
aS'variable_56'
p842
ag15
aS'&&'
p843
ag155
ag4
aS'variable_9'
p844
ag47
aS'variable_57'
p845
ag15
ag15
aS'variable_15'
p846
ag126
aS'variable_55'
p847
ag126
aS'variable_48'
p848
ag210
ag19
ag211
ag18
aS'0xfe'
p849
ag20
aS'variable_15'
p850
ag126
aS'variable_55'
p851
ag126
aS'variable_48'
p852
ag210
ag173
ag211
ag18
aS'0x80'
p853
ag20
aS'if'
p854
ag4
aS'variable_13'
p855
aS'=='
p856
aS'variable_49'
p857
ag15
aS'variable_8'
p858
ag18
aS'sizeof'
p859
ag4
aS'variable_15'
p860
ag126
aS'variable_55'
p861
ag15
ag20
aS'if'
p862
ag4
aS'variable_13'
p863
aS'=='
p864
aS'variable_50'
p865
ag15
aS'variable_8'
p866
ag18
aS'sizeof'
p867
ag4
aS'variable_51'
p868
ag15
ag20
aS'if'
p869
ag4
aS'variable_13'
p870
aS'=='
p871
aS'variable_52'
p872
ag15
aS'variable_8'
p873
ag18
aS'sizeof'
p874
ag4
aS'variable_26'
p875
ag15
ag20
aS'if'
p876
ag4
ag155
ag4
aS'variable_9'
p877
ag47
aS'variable_56'
p878
ag15
aS'&&'
p879
ag4
aS'variable_9'
p880
ag47
aS'variable_57'
p881
ag15
ag15
aS'if'
p882
ag4
aS'variable_13'
p883
aS'=='
p884
aS'variable_49'
p885
ag15
aS'variable_8'
p886
ag18
aS'sizeof'
p887
ag4
aS'variable_15'
p888
ag126
aS'variable_55'
p889
ag15
ag20
aS'if'
p890
ag4
aS'variable_13'
p891
aS'=='
p892
aS'variable_58'
p893
ag15
aS'variable_15'
p894
ag126
aS'variable_55'
p895
ag126
aS'variable_48'
p896
ag210
ag19
ag211
ag18
aS'0xff'
p897
ag20
aS'variable_15'
p898
ag126
aS'variable_55'
p899
ag126
aS'variable_48'
p900
ag210
ag173
ag211
ag18
aS'func_8'
p901
ag4
aS'variable_1'
p902
ag8
aS'variable_7'
p903
ag337
ag4
aS'variable_8'
p904
aS'++'
p905
ag15
ag15
ag20
aS'variable_15'
p906
ag126
aS'variable_55'
p907
ag126
aS'variable_48'
p908
ag210
aS'11'
p909
ag211
ag18
aS'func_9'
p910
ag4
aS'variable_1'
p911
ag8
aS'variable_7'
p912
ag337
ag4
aS'variable_8'
p913
aS'++'
p914
ag15
ag15
ag20
aS'variable_15'
p915
ag126
aS'variable_55'
p916
ag126
aS'variable_48'
p917
ag210
aS'12'
p918
ag211
ag18
aS'func_10'
p919
ag4
aS'variable_1'
p920
ag8
aS'variable_7'
p921
ag337
ag4
aS'variable_8'
p922
aS'++'
p923
ag15
ag15
ag20
aS'variable_15'
p924
ag126
aS'variable_55'
p925
ag126
aS'variable_48'
p926
ag210
aS'13'
p927
ag211
ag18
aS'func_11'
p928
ag4
aS'variable_1'
p929
ag8
aS'variable_7'
p930
ag337
ag4
aS'variable_8'
p931
aS'++'
p932
ag15
ag15
ag20
aS'variable_15'
p933
ag126
aS'variable_55'
p934
ag126
aS'variable_48'
p935
ag210
aS'14'
p936
ag211
ag18
aS'func_12'
p937
ag4
aS'variable_1'
p938
ag8
aS'variable_7'
p939
ag337
ag4
aS'variable_8'
p940
aS'++'
p941
ag15
ag15
ag20
aS'variable_15'
p942
ag126
aS'variable_55'
p943
ag126
aS'variable_48'
p944
ag210
aS'15'
p945
ag211
ag18
aS'func_13'
p946
ag4
aS'variable_1'
p947
ag8
aS'variable_7'
p948
ag337
ag4
aS'variable_8'
p949
aS'++'
p950
ag15
ag15
ag20
aS'if'
p951
ag4
aS'variable_13'
p952
aS'=='
p953
aS'variable_59'
p954
ag15
aS'variable_15'
p955
ag126
aS'variable_55'
p956
ag126
aS'variable_48'
p957
ag210
ag19
ag211
ag18
aS'0xff'
p958
ag20
aS'variable_15'
p959
ag126
aS'variable_55'
p960
ag126
aS'variable_48'
p961
ag210
ag173
ag211
ag18
aS'func_14'
p962
ag4
aS'variable_1'
p963
ag8
aS'variable_7'
p964
ag337
ag4
aS'variable_8'
p965
aS'++'
p966
ag15
ag15
ag20
aS'variable_15'
p967
ag126
aS'variable_55'
p968
ag126
aS'variable_48'
p969
ag210
aS'13'
p970
ag211
ag18
aS'func_15'
p971
ag4
aS'variable_1'
p972
ag8
aS'variable_7'
p973
ag337
ag4
aS'variable_8'
p974
aS'++'
p975
ag15
ag15
ag20
aS'variable_15'
p976
ag126
aS'variable_55'
p977
ag126
aS'variable_48'
p978
ag210
aS'14'
p979
ag211
ag18
aS'func_16'
p980
ag4
aS'variable_1'
p981
ag8
aS'variable_7'
p982
ag337
ag4
aS'variable_8'
p983
aS'++'
p984
ag15
ag15
ag20
aS'variable_15'
p985
ag126
aS'variable_55'
p986
ag126
aS'variable_48'
p987
ag210
aS'15'
p988
ag211
ag18
aS'func_17'
p989
ag4
aS'variable_1'
p990
ag8
aS'variable_7'
p991
ag337
ag4
aS'variable_8'
p992
aS'++'
p993
ag15
ag15
ag20
aS'if'
p994
ag4
aS'variable_13'
p995
aS'=='
p996
aS'variable_60'
p997
ag15
aS'variable_15'
p998
ag126
aS'variable_55'
p999
ag126
aS'variable_48'
p1000
ag210
ag19
ag211
ag18
aS'0xff'
p1001
ag20
aS'variable_15'
p1002
ag126
aS'variable_55'
p1003
ag126
aS'variable_48'
p1004
ag210
ag173
ag211
ag18
aS'0x02'
p1005
ag20
aS'variable_15'
p1006
ag126
aS'variable_55'
p1007
ag126
aS'variable_48'
p1008
ag210
aS'15'
p1009
ag211
ag18
aS'func_18'
p1010
ag4
aS'variable_1'
p1011
ag8
aS'variable_7'
p1012
ag337
ag4
aS'variable_8'
p1013
aS'++'
p1014
ag15
ag15
ag20
aS'if'
p1015
ag4
ag4
aS'variable_9'
p1016
ag47
aS'variable_56'
p1017
ag15
aS'&&'
p1018
ag155
ag4
aS'variable_9'
p1019
ag47
aS'variable_57'
p1020
ag15
ag15
aS'if'
p1021
ag4
aS'variable_13'
p1022
aS'=='
p1023
aS'variable_50'
p1024
ag15
aS'variable_8'
p1025
ag18
aS'sizeof'
p1026
ag4
aS'variable_51'
p1027
ag15
ag20
aS'if'
p1028
ag4
aS'variable_13'
p1029
aS'=='
p1030
aS'variable_52'
p1031
ag15
aS'variable_8'
p1032
ag18
aS'sizeof'
p1033
ag4
aS'variable_26'
p1034
ag15
ag20
aS'if'
p1035
ag4
aS'variable_13'
p1036
aS'=='
p1037
aS'variable_54'
p1038
ag15
aS'variable_8'
p1039
ag18
ag19
ag20
aS'if'
p1040
ag4
aS'variable_13'
p1041
aS'=='
p1042
aS'variable_61'
p1043
ag15
aS'variable_15'
p1044
ag126
aS'variable_55'
p1045
ag126
aS'variable_48'
p1046
ag210
ag19
ag211
ag18
aS'0xff'
p1047
ag20
aS'variable_15'
p1048
ag126
aS'variable_55'
p1049
ag126
aS'variable_48'
p1050
ag210
ag173
ag211
ag18
aS'func_19'
p1051
ag4
aS'variable_1'
p1052
ag8
aS'variable_7'
p1053
ag337
ag4
aS'variable_8'
p1054
aS'++'
p1055
ag15
ag15
ag20
aS'variable_15'
p1056
ag126
aS'variable_55'
p1057
ag126
aS'variable_48'
p1058
ag210
ag493
ag211
ag18
aS'func_20'
p1059
ag4
aS'variable_1'
p1060
ag8
aS'variable_7'
p1061
ag337
ag4
aS'variable_8'
p1062
aS'++'
p1063
ag15
ag15
ag20
aS'variable_15'
p1064
ag126
aS'variable_55'
p1065
ag126
aS'variable_48'
p1066
ag210
aS'12'
p1067
ag211
ag18
aS'func_21'
p1068
ag4
aS'variable_1'
p1069
ag8
aS'variable_7'
p1070
ag337
ag4
aS'variable_8'
p1071
aS'++'
p1072
ag15
ag15
ag20
aS'variable_15'
p1073
ag126
aS'variable_55'
p1074
ag126
aS'variable_48'
p1075
ag210
aS'13'
p1076
ag211
ag18
aS'func_22'
p1077
ag4
aS'variable_1'
p1078
ag8
aS'variable_7'
p1079
ag337
ag4
aS'variable_8'
p1080
aS'++'
p1081
ag15
ag15
ag20
aS'variable_15'
p1082
ag126
aS'variable_55'
p1083
ag126
aS'variable_48'
p1084
ag210
aS'14'
p1085
ag211
ag18
aS'func_23'
p1086
ag4
aS'variable_1'
p1087
ag8
aS'variable_7'
p1088
ag337
ag4
aS'variable_8'
p1089
aS'++'
p1090
ag15
ag15
ag20
aS'variable_15'
p1091
ag126
aS'variable_55'
p1092
ag126
aS'variable_48'
p1093
ag210
aS'15'
p1094
ag211
ag18
aS'func_24'
p1095
ag4
aS'variable_1'
p1096
ag8
aS'variable_7'
p1097
ag337
ag4
aS'variable_8'
p1098
aS'++'
p1099
ag15
ag15
ag20
aS'variable_7'
p1100
aS'+='
p1101
aS'variable_8'
p1102
ag20
aS'if'
p1103
ag4
aS'variable_9'
p1104
ag47
aS'variable_40'
p1105
ag15
aS'variable_17'
p1106
ag18
aS'func_25'
p1107
ag4
aS'variable_1'
p1108
ag8
aS'variable_3'
p1109
ag8
aS'variable_5'
p1110
ag8
aS'variable_7'
p1111
ag8
aS'variable_6'
p1112
ag122
aS'sizeof'
p1113
ag4
aS'struct'
p1114
aS'variable_62'
p1115
ag15
ag15
ag20
aS'variable_63'
p1116
ag18
aS'func_26'
p1117
ag4
aS'variable_1'
p1118
ag8
ag47
aS'variable_15'
p1119
ag8
aS'variable_17'
p1120
ag15
ag20
aS'func_27'
p1121
ag4
aS'variable_3'
p1122
ag8
aS'variable_63'
p1123
ag8
ag580
aS'Decompressed'
p1124
aS'6LoWPAN'
p1125
aS'header'
p1126
ag580
ag15
ag20
aS'return'
p1127
aS'variable_63'
p1128
ag20
aaa(lp1129
I0
aI0
aa(lp1130
I1169
aI1141
aa(lp1131
(lp1132
S'main'
p1133
aa(lp1134
g1133
aaa(lp1135
S'193 /home/SySeVR/data/CVE_2011_1138_PATCHED_dissect_6lowpan_iphc.c nhdr_list -> reported = dgram_size - sizeof ( struct ip6_hdr ) 368'
p1136
aS'194 /home/SySeVR/data/CVE_2011_1138_PATCHED_dissect_6lowpan_iphc.c nhdr_list = dissect_6lowpan_iphc_nhc ( tvb , pinfo , tree , offset , dgram_size - sizeof ( struct ip6_hdr ) ) 355'
p1137
aa.