(lp0
(lp1
(lp2
S'func_0'
p3
aS'('
p4
aS'struct'
p5
aS'variable_0'
p6
aS'*'
p7
aS'variable_1'
p8
aS','
p9
aS'struct'
p10
aS'variable_2'
p11
ag7
aS'variable_3'
p12
aS')'
p13
aS'variable_4'
p14
ag7
aS'variable_5'
p15
aS'='
p16
aS'variable_1'
p17
aS'->'
p18
aS'variable_6'
p19
aS';'
p20
aS'ssize_t'
p21
aS'variable_7'
p22
ag20
aS'loff_t'
p23
aS'variable_8'
p24
ag9
aS'variable_9'
p25
ag20
aS'char'
p26
aS'variable_10'
p27
ag7
aS'variable_11'
p28
ag20
aS'int'
p29
aS'variable_12'
p30
ag9
aS'variable_13'
p31
ag20
aS'int'
p32
aS'variable_14'
p33
ag20
aS'variable_11'
p34
ag16
ag4
aS'char'
p35
aS'__user'
p36
ag7
ag13
ag4
aS'variable_15'
p37
ag13
aS'variable_16'
p38
aS'->'
p39
aS'variable_17'
p40
ag20
aS'variable_7'
p41
ag16
aS'variable_16'
p42
aS'->'
p43
aS'variable_18'
p44
ag20
aS'if'
p45
ag4
aS'!'
p46
aS'func_1'
p47
ag4
aS'variable_19'
p48
ag9
aS'variable_11'
p49
ag9
aS'variable_7'
p50
ag13
ag13
aS'variable_14'
p51
ag16
aS'func_2'
p52
ag4
aS'variable_20'
p53
ag9
aS'0'
p54
ag13
ag20
aS'if'
p55
ag4
aS'variable_14'
p56
ag13
aS'variable_14'
p57
ag16
aS'func_3'
p58
ag4
aS'variable_20'
p59
ag9
aS'1'
p60
ag13
ag20
aS'if'
p61
ag4
aS'variable_14'
p62
ag13
aS'variable_21'
p63
ag16
aS'func_4'
p64
ag4
aS'variable_20'
p65
ag13
ag20
aS'variable_8'
p66
ag16
aS'variable_21'
p67
aS'->'
p68
aS'variable_22'
p69
aS'+'
p70
aS'variable_16'
p71
aS'->'
p72
aS'variable_8'
p73
ag20
aS'while'
p74
ag4
aS'variable_7'
p75
aS'>'
p76
ag54
ag13
aS'variable_9'
p77
ag16
ag4
aS'variable_8'
p78
aS'&'
p79
aS'~'
p80
ag4
aS'variable_23'
p81
aS'-'
p82
ag60
ag13
ag13
ag20
aS'variable_12'
p83
ag16
aS'variable_8'
p84
ag79
ag4
aS'variable_23'
p85
ag82
ag60
ag13
ag20
aS'variable_13'
p86
ag16
aS'variable_7'
p87
ag20
aS'if'
p88
ag4
ag4
aS'variable_12'
p89
ag70
aS'variable_7'
p90
ag13
ag76
aS'variable_23'
p91
ag13
aS'variable_13'
p92
ag16
aS'variable_23'
p93
ag82
aS'variable_12'
p94
ag20
aS'variable_14'
p95
ag16
aS'func_5'
p96
ag4
aS'variable_5'
p97
aS'->'
p98
aS'variable_24'
p99
aS'.'
p100
aS'variable_25'
p101
ag9
aS'variable_9'
p102
ag9
aS'variable_12'
p103
ag9
aS'variable_11'
p104
ag9
aS'variable_13'
p105
ag13
ag20
aS'if'
p106
ag4
aS'variable_14'
p107
ag13
aS'variable_7'
p108
aS'-='
p109
aS'variable_13'
p110
ag20
aS'variable_11'
p111
aS'+='
p112
aS'variable_13'
p113
ag20
aS'variable_8'
p114
aS'+='
p115
aS'variable_13'
p116
ag20
aS'return'
p117
aS'variable_14'
p118
ag20
aa(lp119
S'func_0'
p120
ag4
aS'struct'
p121
aS'variable_0'
p122
ag7
aS'variable_1'
p123
ag9
aS'struct'
p124
aS'variable_2'
p125
ag7
aS'variable_3'
p126
ag13
aS'ssize_t'
p127
aS'variable_4'
p128
ag20
aS'loff_t'
p129
aS'variable_5'
p130
ag9
aS'variable_6'
p131
ag20
aS'char'
p132
aS'variable_7'
p133
ag7
aS'variable_8'
p134
ag20
aS'int'
p135
aS'variable_9'
p136
ag20
aS'variable_8'
p137
ag16
ag4
aS'char'
p138
aS'__user'
p139
ag7
ag13
ag4
aS'variable_10'
p140
ag13
aS'variable_11'
p141
aS'->'
p142
aS'variable_12'
p143
ag20
aS'variable_4'
p144
ag16
aS'variable_11'
p145
aS'->'
p146
aS'variable_13'
p147
ag20
aS'if'
p148
ag4
ag46
aS'func_1'
p149
ag4
aS'variable_14'
p150
ag9
aS'variable_8'
p151
ag9
aS'variable_4'
p152
ag13
ag13
aS'variable_9'
p153
ag16
aS'func_2'
p154
ag4
aS'variable_15'
p155
ag9
ag54
ag13
ag20
aS'if'
p156
ag4
aS'variable_9'
p157
ag13
aS'variable_9'
p158
ag16
aS'func_3'
p159
ag4
aS'variable_15'
p160
ag9
ag60
ag13
ag20
aS'if'
p161
ag4
aS'variable_9'
p162
ag13
aS'variable_16'
p163
ag16
aS'func_4'
p164
ag4
aS'variable_15'
p165
ag13
ag20
aS'variable_5'
p166
ag16
aS'variable_16'
p167
aS'->'
p168
aS'variable_17'
p169
ag70
aS'variable_11'
p170
aS'->'
p171
aS'variable_5'
p172
ag20
aS'while'
p173
ag4
aS'variable_4'
p174
ag76
ag54
ag13
aS'variable_6'
p175
ag16
ag4
aS'variable_5'
p176
ag79
ag80
ag4
aS'variable_18'
p177
ag82
ag60
ag13
ag13
ag20
aS'variable_19'
p178
ag16
aS'variable_5'
p179
ag79
ag4
aS'variable_18'
p180
ag82
ag60
ag13
ag20
aS'variable_20'
p181
ag16
aS'variable_4'
p182
ag20
aS'if'
p183
ag4
ag4
aS'variable_19'
p184
ag70
aS'variable_4'
p185
ag13
ag76
aS'variable_18'
p186
ag13
aS'variable_20'
p187
ag16
aS'variable_18'
p188
ag82
aS'variable_19'
p189
ag20
aS'variable_9'
p190
ag16
aS'func_5'
p191
ag4
aS'variable_21'
p192
aS'->'
p193
aS'variable_22'
p194
ag100
aS'variable_23'
p195
ag9
aS'variable_6'
p196
ag9
aS'variable_19'
p197
ag9
aS'variable_8'
p198
ag9
aS'variable_20'
p199
ag13
ag20
aS'if'
p200
ag4
aS'variable_9'
p201
ag13
aS'variable_4'
p202
aS'-='
p203
aS'variable_20'
p204
ag20
aS'variable_8'
p205
aS'+='
p206
aS'variable_20'
p207
ag20
aS'variable_5'
p208
aS'+='
p209
aS'variable_20'
p210
ag20
aS'return'
p211
aS'variable_9'
p212
ag20
aaa(lp213
I0
aI0
aa(lp214
I165
aI95
aa(lp215
(lp216
S'main'
p217
aa(lp218
g217
aaa(lp219
S'132 /home/SySeVR/data/CVE_2010_2962_VULN_i915_gem_gtt_pwrite_fast.c page_length = PAGE_SIZE - page_offset 44'
p220
aS'133 /home/SySeVR/data/CVE_2010_2962_VULN_i915_gem_gtt_pwrite_fast.c offset = obj_priv -> gtt_offset + args -> offset 31'
p221
aa.