(lp0
(lp1
(lp2
S'variable_0'
p3
aS':'
p4
ag4
aS'func_0'
p5
aS'('
p6
aS')'
p7
aS'nsPoint'
p8
aS'variable_1'
p9
aS';'
p10
aS'nscoord'
p11
aS'variable_2'
p12
aS','
p13
aS'variable_3'
p14
ag10
aS'if'
p15
ag6
aS'variable_2'
p16
aS'<'
p17
aS'='
p18
aS'0'
p19
aS'&&'
p20
aS'variable_3'
p21
ag17
ag18
ag19
ag7
aS'nsSize'
p22
aS'variable_4'
p23
ag18
aS'variable_5'
p24
aS'->'
p25
aS'func_1'
p26
ag6
ag7
ag10
aS'nscoord'
p27
aS'variable_6'
p28
ag18
aS'variable_7'
p29
ag4
ag4
aS'max'
p30
ag6
aS'variable_2'
p31
ag13
aS'variable_3'
p32
ag7
ag10
aS'variable_8'
p33
aS'*'
p34
aS'variable_9'
p35
ag18
aS'variable_10'
p36
ag17
aS'variable_8'
p37
ag34
aS'>'
p38
aS'if'
p39
ag6
aS'variable_6'
p40
ag17
aS'variable_4'
p41
aS'.'
p42
aS'variable_6'
p43
ag7
aS'if'
p44
ag6
aS'variable_9'
p45
aS'->'
p46
aS'func_2'
p47
ag6
ag7
ag38
aS'1'
p48
ag7
aS'if'
p49
ag6
aS'variable_6'
p50
ag38
ag6
aS'variable_4'
p51
ag42
aS'variable_6'
p52
aS'+'
p53
aS'variable_9'
p54
aS'->'
p55
aS'func_3'
p56
ag6
ag7
ag34
ag48
ag42
aS'5'
p57
ag7
aS'&&'
p58
aS'variable_9'
p59
aS'->'
p60
aS'func_4'
p61
ag6
ag7
ag7
aS'bool'
p62
aS'variable_11'
p63
ag18
aS'variable_4'
p64
ag42
aS'variable_6'
p65
ag17
ag18
aS'variable_3'
p66
aS'||'
p67
aS'variable_4'
p68
ag42
aS'variable_6'
p69
ag38
aS'variable_2'
p70
ag10
aS'nsPoint'
p71
aS'func_5'
p72
ag6
ag19
ag13
aS'variable_11'
p73
aS'?'
p74
aS'func_6'
p75
ag6
ag7
ag42
aS'variable_6'
p76
ag4
aS'-'
p77
aS'variable_4'
p78
ag42
aS'variable_6'
p79
ag7
ag10
aS'if'
p80
ag6
aS'func_7'
p81
ag6
ag7
aS'->'
p82
aS'variable_12'
p83
aS'=='
p84
aS'variable_13'
p85
ag7
aS'variable_14'
p86
ag42
aS'variable_15'
p87
ag18
aS'func_8'
p88
ag6
ag7
ag42
aS'variable_16'
p89
ag77
aS'variable_4'
p90
ag42
aS'variable_16'
p91
ag10
aS'const'
p92
aS'nsPoint'
p93
aS'variable_17'
p94
ag18
aS'variable_14'
p95
ag53
aS'variable_1'
p96
ag10
aS'if'
p97
ag6
aS'variable_18'
p98
aS'!='
p99
aS'variable_17'
p100
ag7
aS'variable_5'
p101
aS'->'
p102
aS'func_9'
p103
ag6
aS'variable_17'
p104
ag7
ag10
aaa(lp105
I0
aa(lp106
I164
aa(lp107
(lp108
S'main'
p109
aaa(lp110
S'842 /home/SySeVR/data/CVE_2013_5593_PATCHED_nsComboboxControlFrame__AbsolutelyPositionDropDown.c const nsPoint newPos = dropdownPosition + translation ; 51'
p111
aa.