(lp0
(lp1
(lp2
S'int'
p3
aS'func_0'
p4
aS'('
p5
aS'const'
p6
aS'unsigned'
p7
aS'char'
p8
aS'*'
p9
aS'variable_0'
p10
aS','
p11
aS'unsigned'
p12
aS'char'
p13
ag9
aS'variable_1'
p14
ag11
aS'size_t'
p15
ag9
aS'variable_2'
p16
aS')'
p17
aS'unsigned'
p18
aS'char'
p19
ag9
aS'variable_3'
p20
aS';'
p21
aS'const'
p22
aS'unsigned'
p23
aS'char'
p24
ag9
aS'variable_4'
p25
ag21
aS'size_t'
p26
aS'variable_5'
p27
ag11
aS'variable_6'
p28
ag21
aS'size_t'
p29
aS'variable_7'
p30
aS'='
p31
aS'0'
p32
ag21
aS'const'
p33
aS'unsigned'
p34
aS'char'
p35
ag9
aS'variable_8'
p36
ag21
aS'variable_3'
p37
ag31
aS'variable_1'
p38
ag21
aS'variable_4'
p39
ag31
aS'variable_0'
p40
ag21
aS'if'
p41
ag5
aS'func_1'
p42
ag5
aS'variable_9'
p43
aS'<'
p44
aS'3'
p45
ag17
ag17
aS'if'
p46
ag5
ag9
aS'variable_4'
p47
aS'>'
p48
aS'17'
p49
ag17
aS'variable_5'
p50
ag31
ag9
aS'variable_4'
p51
aS'++'
p52
aS'-'
p53
aS'17'
p54
ag21
aS'if'
p55
ag5
aS'variable_5'
p56
ag44
aS'4'
p57
ag17
aS'variable_6'
p58
ag31
aS'variable_5'
p59
ag21
aS'variable_5'
p60
ag31
ag9
aS'variable_4'
p61
aS'++'
p62
ag21
aS'if'
p63
ag5
aS'variable_5'
p64
ag44
aS'16'
p65
ag17
aS'if'
p66
ag5
aS'func_2'
p67
ag5
aS'variable_7'
p68
aS'=='
p69
ag32
ag17
ag17
aS'if'
p70
ag5
aS'func_3'
p71
ag5
aS'variable_5'
p72
aS'=='
p73
ag32
ag17
ag17
aS'while'
p74
ag5
aS'func_4'
p75
ag5
ag9
aS'variable_4'
p76
aS'=='
p77
ag32
ag17
ag17
aS'variable_5'
p78
aS'+='
p79
aS'255'
p80
ag21
aS'variable_4'
p81
aS'++'
p82
ag21
aS'variable_5'
p83
aS'+='
p84
aS'15'
p85
aS'+'
p86
ag9
aS'variable_4'
p87
aS'++'
p88
ag21
aS'variable_5'
p89
aS'+='
p90
ag45
ag21
aS'if'
p91
ag5
aS'func_5'
p92
ag5
aS'func_6'
p93
ag5
aS'variable_5'
p94
ag86
aS'15'
p95
ag17
aS'&&'
p96
aS'func_7'
p97
ag5
aS'variable_5'
p98
ag86
aS'15'
p99
ag17
ag17
ag17
aS'const'
p100
aS'unsigned'
p101
aS'char'
p102
ag9
aS'variable_10'
p103
ag31
aS'variable_4'
p104
ag86
aS'variable_5'
p105
ag21
aS'unsigned'
p106
aS'char'
p107
ag9
aS'variable_11'
p108
ag31
aS'variable_3'
p109
ag86
aS'variable_5'
p110
ag21
aS'variable_4'
p111
ag31
aS'variable_10'
p112
ag21
aS'variable_3'
p113
ag31
aS'variable_11'
p114
ag21
ag9
aS'variable_3'
p115
aS'++'
p116
ag31
ag9
aS'variable_4'
p117
aS'++'
p118
ag21
aS'while'
p119
ag5
aS'--'
p120
aS'variable_5'
p121
ag48
ag32
ag17
aS'variable_7'
p122
ag31
ag57
ag21
aS'if'
p123
ag5
aS'variable_7'
p124
aS'!='
p125
ag57
ag17
aS'variable_6'
p126
ag31
aS'variable_5'
p127
aS'&'
p128
ag45
ag21
aS'variable_8'
p129
ag31
aS'variable_3'
p130
ag53
aS'1'
p131
ag21
aS'variable_8'
p132
aS'-='
p133
aS'variable_5'
p134
aS'>>'
p135
aS'2'
p136
ag21
aS'variable_8'
p137
aS'-='
p138
ag9
aS'variable_4'
p139
aS'++'
p140
aS'<<'
p141
ag136
ag21
aS'variable_3'
p142
aS'['
p143
ag32
aS']'
p144
ag31
aS'variable_8'
p145
ag143
ag32
ag144
ag21
aS'variable_3'
p146
ag143
ag131
ag144
ag31
aS'variable_8'
p147
ag143
ag131
ag144
ag21
aS'variable_3'
p148
aS'+='
p149
ag136
ag21
aS'variable_6'
p150
ag31
aS'variable_5'
p151
ag128
ag45
ag21
aS'variable_8'
p152
ag31
aS'variable_3'
p153
ag53
ag5
ag131
ag86
aS'variable_12'
p154
ag17
ag21
aS'variable_8'
p155
aS'-='
p156
aS'variable_5'
p157
aS'>>'
p158
ag136
ag21
aS'variable_8'
p159
aS'-='
p160
ag9
aS'variable_4'
p161
aS'++'
p162
aS'<<'
p163
ag136
ag21
aS'variable_5'
p164
ag31
ag45
ag21
aS'if'
p165
ag5
aS'variable_5'
p166
ag48
ag31
aS'64'
p167
ag17
aS'variable_6'
p168
ag31
aS'variable_5'
p169
ag128
ag45
ag21
aS'variable_8'
p170
ag31
aS'variable_3'
p171
ag53
ag131
ag21
aS'variable_8'
p172
aS'-='
p173
ag5
aS'variable_5'
p174
aS'>>'
p175
ag136
ag17
ag128
aS'7'
p176
ag21
aS'variable_8'
p177
aS'-='
p178
ag9
aS'variable_4'
p179
aS'++'
p180
aS'<<'
p181
ag45
ag21
aS'variable_5'
p182
ag31
ag5
aS'variable_5'
p183
aS'>>'
p184
aS'5'
p185
ag17
ag53
ag131
ag86
ag5
ag45
ag53
ag131
ag17
ag21
aS'if'
p186
ag5
aS'variable_5'
p187
ag48
ag31
aS'32'
p188
ag17
aS'variable_5'
p189
ag31
ag5
aS'variable_5'
p190
ag128
aS'31'
p191
ag17
ag86
ag5
ag45
ag53
ag131
ag17
ag21
aS'if'
p192
ag5
aS'func_8'
p193
ag5
aS'variable_5'
p194
aS'=='
p195
ag136
ag17
ag17
aS'while'
p196
ag5
aS'func_9'
p197
ag5
ag9
aS'variable_4'
p198
aS'=='
p199
ag32
ag17
ag17
aS'variable_5'
p200
aS'+='
p201
aS'255'
p202
ag21
aS'variable_4'
p203
aS'++'
p204
ag21
aS'variable_5'
p205
aS'+='
p206
aS'31'
p207
ag86
ag9
aS'variable_4'
p208
aS'++'
p209
ag21
aS'variable_8'
p210
ag31
aS'variable_3'
p211
ag53
ag131
ag21
aS'variable_6'
p212
ag31
aS'func_10'
p213
ag5
aS'variable_4'
p214
ag17
ag21
aS'variable_4'
p215
aS'+='
p216
ag136
ag21
aS'variable_8'
p217
aS'-='
p218
aS'variable_6'
p219
aS'>>'
p220
ag136
ag21
aS'variable_6'
p221
ag128
ag31
ag45
ag21
aS'variable_8'
p222
ag31
aS'variable_3'
p223
ag21
aS'variable_8'
p224
aS'-='
p225
ag5
aS'variable_5'
p226
ag128
aS'8'
p227
ag17
aS'<<'
p228
aS'11'
p229
ag21
aS'variable_5'
p230
ag31
ag5
aS'variable_5'
p231
ag128
ag176
ag17
ag86
ag5
ag45
ag53
ag131
ag17
ag21
aS'if'
p232
ag5
aS'func_11'
p233
ag5
aS'variable_5'
p234
aS'=='
p235
ag136
ag17
ag17
aS'while'
p236
ag5
aS'func_12'
p237
ag5
ag9
aS'variable_4'
p238
aS'=='
p239
ag32
ag17
ag17
aS'variable_5'
p240
aS'+='
p241
aS'255'
p242
ag21
aS'variable_4'
p243
aS'++'
p244
ag21
aS'variable_5'
p245
aS'+='
p246
ag176
ag86
ag9
aS'variable_4'
p247
aS'++'
p248
ag21
aS'variable_6'
p249
ag31
aS'func_13'
p250
ag5
aS'variable_4'
p251
ag17
ag21
aS'variable_4'
p252
aS'+='
p253
ag136
ag21
aS'variable_8'
p254
aS'-='
p255
aS'variable_6'
p256
aS'>>'
p257
ag136
ag21
aS'variable_6'
p258
ag128
ag31
ag45
ag21
aS'if'
p259
ag5
aS'variable_8'
p260
aS'=='
p261
aS'variable_3'
p262
ag17
aS'variable_8'
p263
aS'-='
p264
aS'0x4000'
p265
ag21
aS'if'
p266
ag5
aS'variable_3'
p267
ag53
aS'variable_8'
p268
ag48
ag31
ag227
ag17
aS'unsigned'
p269
aS'char'
p270
ag9
aS'variable_11'
p271
ag31
aS'variable_3'
p272
ag86
aS'variable_5'
p273
ag21
aS'if'
p274
ag5
aS'func_14'
p275
ag5
aS'func_15'
p276
ag5
aS'variable_5'
p277
ag86
aS'15'
p278
ag17
ag17
ag17
aS'variable_3'
p279
aS'+='
p280
ag227
ag21
aS'variable_3'
p281
aS'+='
p282
ag227
ag21
aS'while'
p283
ag5
aS'variable_3'
p284
ag44
aS'variable_11'
p285
ag17
aS'variable_3'
p286
ag31
aS'variable_11'
p287
ag21
aS'if'
p288
ag5
aS'func_16'
p289
ag5
aS'6'
p290
ag17
ag17
aS'variable_7'
p291
ag31
aS'variable_6'
p292
ag21
aS'variable_3'
p293
aS'+='
p294
aS'variable_6'
p295
ag21
aS'variable_4'
p296
aS'+='
p297
aS'variable_6'
p298
ag21
ag9
aS'variable_3'
p299
aS'++'
p300
ag31
ag9
aS'variable_8'
p301
aS'++'
p302
ag21
aS'while'
p303
ag5
aS'variable_3'
p304
ag44
aS'variable_11'
p305
ag17
aS'unsigned'
p306
aS'char'
p307
ag9
aS'variable_11'
p308
ag31
aS'variable_3'
p309
ag86
aS'variable_5'
p310
ag21
aS'variable_3'
p311
ag143
ag32
ag144
ag31
aS'variable_8'
p312
ag143
ag32
ag144
ag21
aS'variable_3'
p313
ag143
ag131
ag144
ag31
aS'variable_8'
p314
ag143
ag131
ag144
ag21
aS'variable_3'
p315
aS'+='
p316
ag136
ag21
aS'variable_8'
p317
aS'+='
p318
ag136
ag21
ag9
aS'variable_3'
p319
aS'++'
p320
ag31
ag9
aS'variable_8'
p321
aS'++'
p322
ag21
aS'while'
p323
ag5
aS'variable_3'
p324
ag44
aS'variable_11'
p325
ag17
aS'variable_7'
p326
ag31
aS'variable_6'
p327
ag21
aS'variable_5'
p328
ag31
aS'variable_6'
p329
ag21
aS'if'
p330
ag5
aS'func_17'
p331
ag5
aS'func_18'
p332
ag5
ag290
ag17
aS'&&'
p333
aS'func_19'
p334
ag5
ag57
ag17
ag17
ag17
aS'variable_3'
p335
aS'+='
p336
aS'variable_5'
p337
ag21
aS'variable_4'
p338
aS'+='
p339
aS'variable_5'
p340
ag21
aS'while'
p341
ag5
aS'variable_5'
p342
ag48
ag32
ag17
ag9
aS'variable_3'
p343
aS'++'
p344
ag31
ag9
aS'variable_4'
p345
aS'++'
p346
ag21
aS'variable_5'
p347
aS'--'
p348
ag21
aa(lp349
S'int'
p350
aS'func_0'
p351
ag5
aS'const'
p352
aS'unsigned'
p353
aS'char'
p354
ag9
aS'variable_0'
p355
ag11
aS'unsigned'
p356
aS'char'
p357
ag9
aS'variable_1'
p358
ag11
aS'size_t'
p359
ag9
aS'variable_2'
p360
ag17
aS'unsigned'
p361
aS'char'
p362
ag9
aS'variable_3'
p363
ag21
aS'const'
p364
aS'unsigned'
p365
aS'char'
p366
ag9
aS'variable_4'
p367
ag21
aS'size_t'
p368
aS'variable_5'
p369
ag11
aS'variable_6'
p370
ag21
aS'size_t'
p371
aS'variable_7'
p372
ag31
ag32
ag21
aS'const'
p373
aS'unsigned'
p374
aS'char'
p375
ag9
aS'variable_8'
p376
ag21
aS'variable_3'
p377
ag31
aS'variable_1'
p378
ag21
aS'variable_4'
p379
ag31
aS'variable_0'
p380
ag21
aS'if'
p381
ag5
aS'func_1'
p382
ag5
aS'variable_9'
p383
ag44
ag45
ag17
ag17
aS'if'
p384
ag5
ag9
aS'variable_4'
p385
ag48
aS'17'
p386
ag17
aS'variable_5'
p387
ag31
ag9
aS'variable_4'
p388
aS'++'
p389
ag53
aS'17'
p390
ag21
aS'if'
p391
ag5
aS'variable_5'
p392
ag44
ag57
ag17
aS'variable_6'
p393
ag31
aS'variable_5'
p394
ag21
aS'variable_5'
p395
ag31
ag9
aS'variable_4'
p396
aS'++'
p397
ag21
aS'if'
p398
ag5
aS'variable_5'
p399
ag44
aS'16'
p400
ag17
aS'if'
p401
ag5
aS'func_2'
p402
ag5
aS'variable_7'
p403
aS'=='
p404
ag32
ag17
ag17
aS'if'
p405
ag5
aS'func_3'
p406
ag5
aS'variable_5'
p407
aS'=='
p408
ag32
ag17
ag17
aS'while'
p409
ag5
aS'func_4'
p410
ag5
ag9
aS'variable_4'
p411
aS'=='
p412
ag32
ag17
ag17
aS'variable_5'
p413
aS'+='
p414
aS'255'
p415
ag21
aS'variable_4'
p416
aS'++'
p417
ag21
aS'variable_5'
p418
aS'+='
p419
aS'15'
p420
ag86
ag9
aS'variable_4'
p421
aS'++'
p422
ag21
aS'variable_5'
p423
aS'+='
p424
ag45
ag21
aS'if'
p425
ag5
aS'func_5'
p426
ag5
aS'func_6'
p427
ag5
aS'variable_5'
p428
ag86
aS'15'
p429
ag17
aS'&&'
p430
aS'func_7'
p431
ag5
aS'variable_5'
p432
ag86
aS'15'
p433
ag17
ag17
ag17
aS'const'
p434
aS'unsigned'
p435
aS'char'
p436
ag9
aS'variable_10'
p437
ag31
aS'variable_4'
p438
ag86
aS'variable_5'
p439
ag21
aS'unsigned'
p440
aS'char'
p441
ag9
aS'variable_11'
p442
ag31
aS'variable_3'
p443
ag86
aS'variable_5'
p444
ag21
aS'func_8'
p445
ag5
aS'variable_3'
p446
ag11
aS'variable_4'
p447
ag17
ag21
aS'variable_3'
p448
aS'+='
p449
ag227
ag21
aS'variable_4'
p450
aS'+='
p451
ag227
ag21
aS'func_9'
p452
ag5
aS'variable_3'
p453
ag11
aS'variable_4'
p454
ag17
ag21
aS'variable_3'
p455
aS'+='
p456
ag227
ag21
aS'variable_4'
p457
aS'+='
p458
ag227
ag21
aS'while'
p459
ag5
aS'variable_4'
p460
ag44
aS'variable_10'
p461
ag17
aS'variable_4'
p462
ag31
aS'variable_10'
p463
ag21
aS'variable_3'
p464
ag31
aS'variable_11'
p465
ag21
aS'func_10'
p466
ag5
aS'variable_5'
p467
ag17
ag21
aS'func_11'
p468
ag5
aS'variable_5'
p469
ag86
ag45
ag17
ag21
ag9
aS'variable_3'
p470
aS'++'
p471
ag31
ag9
aS'variable_4'
p472
aS'++'
p473
ag21
aS'while'
p474
ag5
aS'--'
p475
aS'variable_5'
p476
ag48
ag32
ag17
aS'variable_7'
p477
ag31
ag57
ag21
aS'if'
p478
ag5
aS'variable_7'
p479
aS'!='
p480
ag57
ag17
aS'variable_6'
p481
ag31
aS'variable_5'
p482
ag128
ag45
ag21
aS'variable_8'
p483
ag31
aS'variable_3'
p484
ag53
ag131
ag21
aS'variable_8'
p485
aS'-='
p486
aS'variable_5'
p487
aS'>>'
p488
ag136
ag21
aS'variable_8'
p489
aS'-='
p490
ag9
aS'variable_4'
p491
aS'++'
p492
aS'<<'
p493
ag136
ag21
aS'func_12'
p494
ag5
aS'variable_8'
p495
ag17
ag21
aS'variable_3'
p496
ag143
ag32
ag144
ag31
aS'variable_8'
p497
ag143
ag32
ag144
ag21
aS'variable_3'
p498
ag143
ag131
ag144
ag31
aS'variable_8'
p499
ag143
ag131
ag144
ag21
aS'variable_3'
p500
aS'+='
p501
ag136
ag21
aS'variable_6'
p502
ag31
aS'variable_5'
p503
ag128
ag45
ag21
aS'variable_8'
p504
ag31
aS'variable_3'
p505
ag53
ag5
ag131
ag86
aS'variable_12'
p506
ag17
ag21
aS'variable_8'
p507
aS'-='
p508
aS'variable_5'
p509
aS'>>'
p510
ag136
ag21
aS'variable_8'
p511
aS'-='
p512
ag9
aS'variable_4'
p513
aS'++'
p514
aS'<<'
p515
ag136
ag21
aS'variable_5'
p516
ag31
ag45
ag21
aS'if'
p517
ag5
aS'variable_5'
p518
ag48
ag31
aS'64'
p519
ag17
aS'variable_6'
p520
ag31
aS'variable_5'
p521
ag128
ag45
ag21
aS'variable_8'
p522
ag31
aS'variable_3'
p523
ag53
ag131
ag21
aS'variable_8'
p524
aS'-='
p525
ag5
aS'variable_5'
p526
aS'>>'
p527
ag136
ag17
ag128
ag176
ag21
aS'variable_8'
p528
aS'-='
p529
ag9
aS'variable_4'
p530
aS'++'
p531
aS'<<'
p532
ag45
ag21
aS'variable_5'
p533
ag31
ag5
aS'variable_5'
p534
aS'>>'
p535
ag185
ag17
ag53
ag131
ag86
ag5
ag45
ag53
ag131
ag17
ag21
aS'if'
p536
ag5
aS'variable_5'
p537
ag48
ag31
aS'32'
p538
ag17
aS'variable_5'
p539
ag31
ag5
aS'variable_5'
p540
ag128
aS'31'
p541
ag17
ag86
ag5
ag45
ag53
ag131
ag17
ag21
aS'if'
p542
ag5
aS'func_13'
p543
ag5
aS'variable_5'
p544
aS'=='
p545
ag136
ag17
ag17
aS'while'
p546
ag5
aS'func_14'
p547
ag5
ag9
aS'variable_4'
p548
aS'=='
p549
ag32
ag17
ag17
aS'variable_5'
p550
aS'+='
p551
aS'255'
p552
ag21
aS'variable_4'
p553
aS'++'
p554
ag21
aS'variable_5'
p555
aS'+='
p556
aS'31'
p557
ag86
ag9
aS'variable_4'
p558
aS'++'
p559
ag21
aS'variable_8'
p560
ag31
aS'variable_3'
p561
ag53
ag131
ag21
aS'variable_6'
p562
ag31
aS'func_15'
p563
ag5
aS'variable_4'
p564
ag17
ag21
aS'variable_4'
p565
aS'+='
p566
ag136
ag21
aS'variable_8'
p567
aS'-='
p568
aS'variable_6'
p569
aS'>>'
p570
ag136
ag21
aS'variable_6'
p571
ag128
ag31
ag45
ag21
aS'variable_8'
p572
ag31
aS'variable_3'
p573
ag21
aS'variable_8'
p574
aS'-='
p575
ag5
aS'variable_5'
p576
ag128
ag227
ag17
aS'<<'
p577
aS'11'
p578
ag21
aS'variable_5'
p579
ag31
ag5
aS'variable_5'
p580
ag128
ag176
ag17
ag86
ag5
ag45
ag53
ag131
ag17
ag21
aS'if'
p581
ag5
aS'func_16'
p582
ag5
aS'variable_5'
p583
aS'=='
p584
ag136
ag17
ag17
aS'while'
p585
ag5
aS'func_17'
p586
ag5
ag9
aS'variable_4'
p587
aS'=='
p588
ag32
ag17
ag17
aS'variable_5'
p589
aS'+='
p590
aS'255'
p591
ag21
aS'variable_4'
p592
aS'++'
p593
ag21
aS'variable_5'
p594
aS'+='
p595
ag176
ag86
ag9
aS'variable_4'
p596
aS'++'
p597
ag21
aS'variable_6'
p598
ag31
aS'func_18'
p599
ag5
aS'variable_4'
p600
ag17
ag21
aS'variable_4'
p601
aS'+='
p602
ag136
ag21
aS'variable_8'
p603
aS'-='
p604
aS'variable_6'
p605
aS'>>'
p606
ag136
ag21
aS'variable_6'
p607
ag128
ag31
ag45
ag21
aS'if'
p608
ag5
aS'variable_8'
p609
aS'=='
p610
aS'variable_3'
p611
ag17
aS'variable_8'
p612
aS'-='
p613
aS'0x4000'
p614
ag21
aS'func_19'
p615
ag5
aS'variable_8'
p616
ag17
ag21
aS'if'
p617
ag5
aS'variable_3'
p618
ag53
aS'variable_8'
p619
ag48
ag31
ag227
ag17
aS'unsigned'
p620
aS'char'
p621
ag9
aS'variable_11'
p622
ag31
aS'variable_3'
p623
ag86
aS'variable_5'
p624
ag21
aS'if'
p625
ag5
aS'func_20'
p626
ag5
aS'func_21'
p627
ag5
aS'variable_5'
p628
ag86
aS'15'
p629
ag17
ag17
ag17
aS'func_22'
p630
ag5
aS'variable_3'
p631
ag11
aS'variable_8'
p632
ag17
ag21
aS'variable_3'
p633
aS'+='
p634
ag227
ag21
aS'variable_8'
p635
aS'+='
p636
ag227
ag21
aS'func_23'
p637
ag5
aS'variable_3'
p638
ag11
aS'variable_8'
p639
ag17
ag21
aS'variable_3'
p640
aS'+='
p641
ag227
ag21
aS'variable_8'
p642
aS'+='
p643
ag227
ag21
aS'while'
p644
ag5
aS'variable_3'
p645
ag44
aS'variable_11'
p646
ag17
aS'variable_3'
p647
ag31
aS'variable_11'
p648
ag21
aS'if'
p649
ag5
aS'func_24'
p650
ag5
ag290
ag17
ag17
aS'variable_7'
p651
ag31
aS'variable_6'
p652
ag21
aS'func_25'
p653
ag5
aS'variable_3'
p654
ag11
aS'variable_4'
p655
ag17
ag21
aS'variable_3'
p656
aS'+='
p657
aS'variable_6'
p658
ag21
aS'variable_4'
p659
aS'+='
p660
aS'variable_6'
p661
ag21
aS'func_26'
p662
ag5
aS'variable_5'
p663
ag17
ag21
ag9
aS'variable_3'
p664
aS'++'
p665
ag31
ag9
aS'variable_8'
p666
aS'++'
p667
ag21
aS'while'
p668
ag5
aS'variable_3'
p669
ag44
aS'variable_11'
p670
ag17
aS'unsigned'
p671
aS'char'
p672
ag9
aS'variable_11'
p673
ag31
aS'variable_3'
p674
ag86
aS'variable_5'
p675
ag21
aS'func_27'
p676
ag5
aS'variable_5'
p677
ag17
ag21
aS'variable_3'
p678
ag143
ag32
ag144
ag31
aS'variable_8'
p679
ag143
ag32
ag144
ag21
aS'variable_3'
p680
ag143
ag131
ag144
ag31
aS'variable_8'
p681
ag143
ag131
ag144
ag21
aS'variable_3'
p682
aS'+='
p683
ag136
ag21
aS'variable_8'
p684
aS'+='
p685
ag136
ag21
ag9
aS'variable_3'
p686
aS'++'
p687
ag31
ag9
aS'variable_8'
p688
aS'++'
p689
ag21
aS'while'
p690
ag5
aS'variable_3'
p691
ag44
aS'variable_11'
p692
ag17
aS'variable_7'
p693
ag31
aS'variable_6'
p694
ag21
aS'variable_5'
p695
ag31
aS'variable_6'
p696
ag21
aS'if'
p697
ag5
aS'func_28'
p698
ag5
aS'func_29'
p699
ag5
ag290
ag17
aS'&&'
p700
aS'func_30'
p701
ag5
ag57
ag17
ag17
ag17
aS'func_31'
p702
ag5
aS'variable_3'
p703
ag11
aS'variable_4'
p704
ag17
ag21
aS'variable_3'
p705
aS'+='
p706
aS'variable_5'
p707
ag21
aS'variable_4'
p708
aS'+='
p709
aS'variable_5'
p710
ag21
aS'func_32'
p711
ag5
aS'variable_5'
p712
ag86
ag45
ag17
ag21
aS'func_33'
p713
ag5
aS'variable_5'
p714
ag17
ag21
aS'while'
p715
ag5
aS'variable_5'
p716
ag48
ag32
ag17
ag9
aS'variable_3'
p717
aS'++'
p718
ag31
ag9
aS'variable_4'
p719
aS'++'
p720
ag21
aS'variable_5'
p721
aS'--'
p722
ag21
ag9
aS'variable_2'
p723
ag31
aS'variable_3'
p724
ag53
aS'variable_1'
p725
ag21
aS'return'
p726
ag5
aS'variable_5'
p727
aS'!='
p728
ag45
aS'?'
p729
aS'variable_13'
p730
aS':'
p731
aS'variable_4'
p732
aS'=='
p733
aS'variable_14'
p734
ag729
aS'variable_15'
p735
ag731
aS'variable_4'
p736
ag44
aS'variable_14'
p737
ag729
aS'variable_16'
p738
ag731
aS'variable_17'
p739
ag17
ag21
ag9
aS'variable_2'
p740
ag31
aS'variable_3'
p741
ag53
aS'variable_1'
p742
ag21
ag9
aS'variable_2'
p743
ag31
aS'variable_3'
p744
ag53
aS'variable_1'
p745
ag21
ag9
aS'variable_2'
p746
ag31
aS'variable_3'
p747
ag53
aS'variable_1'
p748
ag21
aaa(lp749
I0
aI0
aa(lp750
I615
aI601
aa(lp751
(lp752
S'main'
p753
aa(lp754
g753
aaa(lp755
S'894 /home/SySeVR/data/CVE_2014_4608_VULN_lzo1x_decompress_safe.c unsigned char * oe = op + t ; 156'
p756
aS'895 /home/SySeVR/data/CVE_2014_4608_VULN_lzo1x_decompress_safe.c unsigned char * oe = op + t ; 129'
p757
aa.