(lp0
(lp1
(lp2
S'func_0'
p3
aS'('
p4
aS')'
p5
aS'static'
p6
aS'LPCWSTR'
p7
aS'variable_0'
p8
aS'['
p9
aS']'
p10
aS'='
p11
aS'variable_1'
p12
aS'"'
p13
aS'wsock32'
p14
aS'.'
p15
aS'dll'
p16
ag13
aS','
p17
aS'variable_1'
p18
ag13
aS'crypt32'
p19
ag15
aS'dll'
p20
ag13
aS'variable_1'
p21
ag13
aS'cryptsp'
p22
ag15
aS'dll'
p23
ag13
ag17
aS'variable_1'
p24
ag13
aS'cryptbase'
p25
ag15
aS'dll'
p26
ag13
aS'variable_1'
p27
ag13
aS'msasn1'
p28
ag15
aS'dll'
p29
ag13
ag17
aS'variable_1'
p30
ag13
aS'userenv'
p31
ag15
aS'dll'
p32
ag13
aS'variable_1'
p33
ag13
aS'secur32'
p34
ag15
aS'dll'
p35
ag13
aS'WCHAR'
p36
aS'variable_2'
p37
ag9
aS'variable_3'
p38
aS'+'
p39
aS'1'
p40
ag10
ag11
aS'variable_1'
p41
aS"'"
p42
aS'\\'
p43
aS'0'
p44
ag42
aS'size_t'
p45
aS'variable_4'
p46
ag11
aS'wcslen'
p47
ag4
aS'variable_2'
p48
ag5
aS';'
p49
aS'if'
p50
ag4
aS'variable_2'
p51
ag9
aS'variable_4'
p52
aS'-'
p53
ag40
ag10
aS'!='
p54
aS'variable_1'
p55
ag42
ag43
ag43
ag42
aS'&&'
p56
aS'variable_2'
p57
ag9
aS'variable_4'
p58
ag10
ag11
aS'variable_1'
p59
ag42
ag43
ag43
ag42
aS'for'
p60
ag4
aS'size_t'
p61
aS'variable_5'
p62
ag11
ag44
ag49
aS'variable_5'
p63
aS'<'
p64
aS'sizeof'
p65
ag4
aS'variable_0'
p66
ag5
aS'/'
p67
aS'sizeof'
p68
ag4
aS'variable_0'
p69
ag9
ag44
ag10
ag5
ag49
aS'++'
p70
aS'variable_5'
p71
ag5
aS'size_t'
p72
aS'variable_6'
p73
ag11
aS'wcslen'
p74
ag4
aS'variable_0'
p75
ag9
aS'variable_5'
p76
ag10
ag5
ag49
aS'wcsncpy'
p77
ag4
aS'variable_2'
p78
ag39
aS'variable_4'
p79
ag17
aS'variable_0'
p80
ag9
aS'variable_5'
p81
ag10
ag17
aS'variable_3'
p82
ag53
aS'variable_4'
p83
ag5
ag49
aS'if'
p84
ag4
aS'variable_4'
p85
ag39
aS'variable_6'
p86
ag64
ag11
aS'variable_3'
p87
ag5
aS'variable_2'
p88
ag9
aS'variable_4'
p89
ag39
aS'variable_6'
p90
ag10
ag11
aS'variable_1'
p91
ag42
ag43
ag44
ag42
aS'variable_2'
p92
ag9
aS'variable_3'
p93
ag10
ag11
aS'variable_1'
p94
ag42
ag43
ag44
ag42
aS'LPCWSTR'
p95
aS'variable_7'
p96
ag11
aS'variable_2'
p97
ag49
aS'func_1'
p98
ag4
aS'variable_7'
p99
ag5
ag49
aa(lp100
S'func_0'
p101
ag4
ag5
aS'static'
p102
aS'LPCWSTR'
p103
aS'variable_0'
p104
ag9
ag10
ag11
aS'variable_1'
p105
ag13
aS'wsock32'
p106
ag15
aS'dll'
p107
ag13
ag17
aS'variable_1'
p108
ag13
aS'crypt32'
p109
ag15
aS'dll'
p110
ag13
aS'variable_1'
p111
ag13
aS'cryptsp'
p112
ag15
aS'dll'
p113
ag13
ag17
aS'variable_1'
p114
ag13
aS'cryptbase'
p115
ag15
aS'dll'
p116
ag13
aS'variable_1'
p117
ag13
aS'msasn1'
p118
ag15
aS'dll'
p119
ag13
ag17
aS'variable_1'
p120
ag13
aS'userenv'
p121
ag15
aS'dll'
p122
ag13
aS'variable_1'
p123
ag13
aS'secur32'
p124
ag15
aS'dll'
p125
ag13
aS'for'
p126
ag4
aS'size_t'
p127
aS'variable_2'
p128
ag11
ag44
ag49
aS'variable_2'
p129
ag64
aS'sizeof'
p130
ag4
aS'variable_0'
p131
ag5
ag67
aS'sizeof'
p132
ag4
aS'variable_0'
p133
ag9
ag44
ag10
ag5
ag49
aS'++'
p134
aS'variable_2'
p135
ag5
aS'size_t'
p136
aS'variable_3'
p137
ag11
aS'wcslen'
p138
ag4
aS'variable_0'
p139
ag9
aS'variable_2'
p140
ag10
ag5
ag49
aS'if'
p141
ag4
aS'variable_4'
p142
ag39
aS'variable_3'
p143
ag64
ag11
aS'variable_5'
p144
ag5
aa(lp145
S'func_0'
p146
ag4
ag5
aS'WCHAR'
p147
aS'variable_0'
p148
ag9
aS'variable_1'
p149
ag39
ag40
ag10
ag11
aS'variable_2'
p150
ag42
ag43
ag44
ag42
aS'size_t'
p151
aS'variable_3'
p152
ag11
aS'wcslen'
p153
ag4
aS'variable_0'
p154
ag5
ag49
aS'wcsncpy'
p155
ag4
aS'variable_0'
p156
ag39
aS'variable_3'
p157
ag17
aS'variable_4'
p158
ag9
aS'variable_5'
p159
ag10
ag17
aS'variable_1'
p160
ag53
aS'variable_3'
p161
ag5
ag49
aS'if'
p162
ag4
aS'variable_3'
p163
ag39
aS'variable_6'
p164
ag64
ag11
aS'variable_1'
p165
ag5
aS'LPCWSTR'
p166
aS'variable_7'
p167
ag11
aS'variable_0'
p168
ag49
aS'func_1'
p169
ag4
aS'variable_7'
p170
ag5
ag49
aaa(lp171
I0
aI0
aI0
aa(lp172
I187
aI82
aI19
aa(lp173
(lp174
S'main'
p175
aa(lp176
g175
aa(lp177
g175
aaa(lp178
S'863 /home/SySeVR/data/CVE_2013_0797_PATCHED_AutoLoadSystemDependencies.c LoadLibraryW 32'
p179
aS'865 /home/SySeVR/data/CVE_2013_0797_PATCHED_AutoLoadSystemDependencies.c wcslen 23'
p180
aS'866 /home/SySeVR/data/CVE_2013_0797_PATCHED_AutoLoadSystemDependencies.c wcslen 12'
p181
aa.