(lp0
(lp1
(lp2
S'static'
p3
aS'int'
p4
aS'func_0'
p5
aS'('
p6
aS'void'
p7
aS'*'
p8
aS'variable_0'
p9
aS','
p10
aS'const'
p11
aS'uint8_t'
p12
ag8
aS'variable_1'
p13
ag10
aS'int'
p14
aS'variable_2'
p15
aS')'
p16
aS'variable_3'
p17
ag8
aS'variable_4'
p18
aS'='
p19
aS'variable_5'
p20
aS'->'
p21
aS'variable_6'
p22
aS';'
p23
aS'int'
p24
aS'variable_7'
p25
ag19
aS'0'
p26
ag23
aS'unsigned'
p27
aS'char'
p28
aS'variable_8'
p29
ag23
aS'unsigned'
p30
aS'int'
p31
aS'variable_9'
p32
ag23
aS'int'
p33
aS'variable_10'
p34
ag23
aS'unsigned'
p35
aS'int'
p36
aS'variable_11'
p37
ag23
aS'int'
p38
aS'variable_12'
p39
ag23
aS'int'
p40
aS'variable_13'
p41
ag10
aS'variable_14'
p42
ag23
aS'int'
p43
aS'variable_15'
p44
ag23
aS'int'
p45
aS'variable_16'
p46
ag23
aS'signed'
p47
aS'short'
p48
aS'variable_17'
p49
ag23
aS'int'
p50
aS'variable_18'
p51
ag23
aS'int'
p52
aS'variable_19'
p53
ag23
aS'int'
p54
aS'variable_20'
p55
ag23
aS'int'
p56
aS'variable_21'
p57
ag23
aS'variable_4'
p58
aS'->'
p59
aS'variable_22'
p60
aS'.'
p61
aS'variable_23'
p62
ag19
aS'1'
p63
ag23
aS'variable_4'
p64
aS'->'
p65
aS'variable_22'
p66
ag61
aS'variable_24'
p67
ag19
aS'variable_25'
p68
aS'|'
p69
aS'variable_26'
p70
ag69
aS'variable_27'
p71
ag23
aS'if'
p72
ag6
aS'variable_5'
p73
aS'->'
p74
aS'func_1'
p75
ag6
aS'variable_5'
p76
ag10
aS'&'
p77
aS'variable_4'
p78
aS'->'
p79
aS'variable_22'
p80
ag16
aS'<'
p81
ag26
ag16
aS'variable_9'
p82
ag19
aS'func_2'
p83
ag6
ag77
aS'variable_1'
p84
aS'['
p85
aS'variable_7'
p86
aS']'
p87
ag16
ag23
aS'variable_7'
p88
aS'+='
p89
aS'6'
p90
ag23
aS'variable_10'
p91
ag19
aS'func_3'
p92
ag6
ag77
aS'variable_1'
p93
ag85
aS'variable_7'
p94
ag87
ag16
ag23
aS'variable_7'
p95
aS'+='
p96
aS'10'
p97
ag23
aS'variable_9'
p98
aS'-='
p99
aS'16'
p100
ag23
aS'while'
p101
ag6
ag6
aS'variable_9'
p102
aS'>'
p103
ag26
ag16
aS'&&'
p104
ag6
aS'variable_10'
p105
ag103
ag26
ag16
ag16
aS'variable_11'
p106
ag19
aS'func_4'
p107
ag6
ag77
aS'variable_1'
p108
ag85
aS'variable_7'
p109
ag87
ag16
ag23
aS'variable_7'
p110
aS'+='
p111
aS'4'
p112
ag23
aS'variable_12'
p113
ag19
aS'func_5'
p114
ag6
ag77
aS'variable_1'
p115
ag85
aS'variable_7'
p116
ag87
ag16
ag23
aS'variable_7'
p117
aS'+='
p118
aS'2'
p119
ag23
aS'switch'
p120
ag6
aS'variable_12'
p121
ag16
aS'variable_7'
p122
ag19
aS'variable_7'
p123
aS'+'
p124
aS'variable_11'
p125
aS'-'
p126
ag90
ag23
aS'variable_18'
p127
ag19
ag26
ag23
aS'variable_16'
p128
ag19
aS'func_6'
p129
ag6
ag77
aS'variable_1'
p130
ag85
aS'variable_7'
p131
ag87
ag16
ag23
aS'variable_7'
p132
aS'+='
p133
ag119
ag23
aS'while'
p134
ag6
aS'variable_16'
p135
ag103
ag26
ag16
aS'variable_17'
p136
ag19
aS'func_7'
p137
ag6
ag77
aS'variable_1'
p138
ag85
aS'variable_7'
p139
ag87
ag16
ag23
aS'variable_7'
p140
aS'+='
p141
ag119
ag23
aS'if'
p142
ag6
aS'variable_17'
p143
ag81
ag26
ag16
aS'variable_17'
p144
ag19
ag126
aS'variable_17'
p145
ag23
aS'variable_18'
p146
aS'+='
p147
aS'variable_17'
p148
ag8
aS'variable_4'
p149
aS'->'
p150
aS'variable_22'
p151
ag61
aS'variable_28'
p152
ag85
ag26
ag87
ag23
aS'variable_16'
p153
aS'--'
p154
ag23
aS'variable_29'
p155
ag19
aS'variable_18'
p156
ag23
aS'variable_21'
p157
ag19
aS'variable_4'
p158
aS'->'
p159
aS'variable_5'
p160
aS'->'
p161
aS'variable_30'
p162
ag23
aS'for'
p163
ag6
aS'variable_13'
p164
ag19
ag26
ag23
aS'variable_13'
p165
ag81
aS'variable_17'
p166
ag23
aS'variable_13'
p167
aS'++'
p168
ag16
aS'variable_20'
p169
ag19
aS'variable_1'
p170
ag85
aS'variable_7'
p171
aS'++'
p172
ag87
ag23
aS'variable_29'
p173
aS'+='
p174
ag6
aS'variable_20'
p175
ag8
ag119
ag16
ag23
aS'variable_21'
p176
aS'-='
p177
aS'variable_20'
p178
ag23
aS'variable_19'
p179
ag19
ag6
aS'signed'
p180
aS'char'
p181
ag16
ag6
aS'variable_1'
p182
ag85
aS'variable_7'
p183
aS'++'
p184
ag87
ag16
ag23
aS'if'
p185
ag6
aS'variable_19'
p186
ag81
ag26
ag16
aS'variable_19'
p187
ag19
ag126
aS'variable_19'
p188
ag23
aS'variable_31'
p189
ag19
aS'func_8'
p190
ag6
ag77
aS'variable_1'
p191
ag85
aS'variable_7'
p192
ag87
ag16
ag23
aS'variable_7'
p193
aS'+='
p194
ag119
ag23
aS'func_9'
p195
ag6
aS'variable_19'
p196
ag16
ag23
aS'for'
p197
ag6
aS'variable_14'
p198
ag19
ag26
ag23
aS'variable_14'
p199
ag81
aS'variable_19'
p200
ag23
aS'variable_14'
p201
aS'++'
p202
ag10
aS'variable_21'
p203
aS'-='
p204
ag119
ag16
ag8
ag6
ag6
aS'signed'
p205
aS'short'
p206
ag8
ag16
ag6
ag77
aS'variable_32'
p207
ag85
aS'variable_29'
p208
ag87
ag16
ag16
ag19
aS'variable_31'
p209
ag23
aS'variable_29'
p210
aS'+='
p211
ag119
ag23
aS'func_10'
p212
ag6
aS'variable_19'
p213
ag16
ag23
aS'for'
p214
ag6
aS'variable_14'
p215
ag19
ag26
ag23
aS'variable_14'
p216
ag81
aS'variable_19'
p217
ag23
aS'variable_14'
p218
aS'++'
p219
ag10
aS'variable_21'
p220
aS'--'
p221
ag16
ag8
ag6
ag6
aS'signed'
p222
aS'short'
p223
ag8
ag16
ag6
ag77
aS'variable_32'
p224
ag85
aS'variable_29'
p225
ag87
ag16
ag16
ag19
aS'func_11'
p226
ag6
ag77
aS'variable_1'
p227
ag85
aS'variable_7'
p228
ag87
ag16
ag23
aS'variable_7'
p229
aS'+='
p230
ag119
ag23
aS'variable_29'
p231
aS'+='
p232
ag119
ag23
aS'variable_18'
p233
aS'+='
p234
aS'variable_4'
p235
aS'->'
p236
aS'variable_22'
p237
ag61
aS'variable_28'
p238
ag85
ag26
ag87
ag23
aS'variable_7'
p239
ag19
aS'variable_7'
p240
ag124
aS'variable_11'
p241
ag126
ag90
ag23
aS'memset'
p242
ag6
aS'variable_32'
p243
ag10
aS'0x0000'
p244
ag10
aS'variable_4'
p245
aS'->'
p246
aS'variable_22'
p247
ag61
aS'variable_28'
p248
ag85
ag26
ag87
ag8
aS'variable_4'
p249
aS'->'
p250
aS'variable_5'
p251
aS'->'
p252
aS'variable_33'
p253
ag16
ag23
aS'variable_18'
p254
ag19
ag26
ag23
aS'for'
p255
ag6
aS'variable_15'
p256
ag19
ag26
ag23
aS'variable_15'
p257
ag81
aS'variable_4'
p258
aS'->'
p259
aS'variable_5'
p260
aS'->'
p261
aS'variable_33'
p262
ag23
aS'variable_15'
p263
aS'++'
p264
ag16
aS'variable_29'
p265
ag19
aS'variable_18'
p266
ag23
aS'variable_7'
p267
aS'++'
p268
ag23
aS'variable_21'
p269
ag19
ag6
aS'variable_4'
p270
aS'->'
p271
aS'variable_5'
p272
aS'->'
p273
aS'variable_30'
p274
ag8
ag119
ag16
ag23
aS'while'
p275
ag6
aS'variable_21'
p276
ag103
ag26
ag16
aS'variable_19'
p277
ag19
ag6
aS'signed'
p278
aS'char'
p279
ag16
ag6
aS'variable_1'
p280
ag85
aS'variable_7'
p281
aS'++'
p282
ag87
ag16
ag23
aS'if'
p283
ag6
aS'variable_19'
p284
ag103
ag26
ag16
aS'variable_8'
p285
ag19
aS'variable_1'
p286
ag85
aS'variable_7'
p287
aS'++'
p288
ag87
ag23
aS'func_12'
p289
ag6
aS'variable_19'
p290
ag16
ag23
aS'for'
p291
ag6
aS'variable_14'
p292
ag19
ag26
ag23
aS'variable_14'
p293
ag81
aS'variable_19'
p294
ag23
aS'variable_14'
p295
aS'++'
p296
ag16
aS'variable_32'
p297
ag85
aS'variable_29'
p298
aS'++'
p299
ag87
ag19
aS'variable_8'
p300
ag23
aS'variable_21'
p301
aS'--'
p302
ag23
aS'if'
p303
ag6
aS'variable_21'
p304
ag81
ag26
ag16
aS'func_13'
p305
ag6
aS'variable_5'
p306
ag10
aS'variable_34'
p307
ag10
aS'"'
p308
aS'pixel_countdown'
p309
ag81
ag26
ag6
aS'%'
p310
aS'd'
p311
ag16
ag6
aS'linea'
p312
ag310
ag311
ag16
aS'\\'
p313
aS'n'
p314
ag308
ag10
aS'variable_21'
p315
ag10
aS'variable_15'
p316
ag16
ag23
aS'variable_19'
p317
ag19
ag126
aS'variable_19'
p318
ag23
aS'func_14'
p319
ag6
aS'variable_19'
p320
ag16
ag23
aS'for'
p321
ag6
aS'variable_14'
p322
ag19
ag26
ag23
aS'variable_14'
p323
ag81
aS'variable_19'
p324
ag23
aS'variable_14'
p325
aS'++'
p326
ag16
aS'variable_8'
p327
ag19
aS'variable_1'
p328
ag85
aS'variable_7'
p329
aS'++'
p330
ag87
ag23
aS'variable_32'
p331
ag85
aS'variable_29'
p332
aS'++'
p333
ag87
ag19
aS'variable_8'
p334
ag23
aS'variable_21'
p335
aS'--'
p336
ag23
aS'if'
p337
ag6
aS'variable_21'
p338
ag81
ag26
ag16
aS'func_15'
p339
ag6
aS'variable_5'
p340
ag10
aS'variable_34'
p341
ag10
ag308
aS'pixel_countdown'
p342
ag81
ag26
ag6
ag310
ag311
ag16
aS'at'
p343
aS'line'
p344
ag310
ag311
ag313
ag314
ag308
ag10
aS'variable_21'
p345
ag10
aS'variable_15'
p346
ag16
ag23
aS'variable_29'
p347
ag19
aS'variable_18'
p348
ag23
aS'variable_21'
p349
ag19
aS'variable_4'
p350
aS'->'
p351
aS'variable_5'
p352
aS'->'
p353
aS'variable_30'
p354
ag23
aS'while'
p355
ag6
aS'variable_21'
p356
ag103
ag26
ag16
ag8
ag6
ag6
aS'signed'
p357
aS'short'
p358
ag8
ag16
ag6
ag77
aS'variable_32'
p359
ag85
aS'variable_29'
p360
ag87
ag16
ag16
ag19
aS'func_16'
p361
ag6
ag77
aS'variable_1'
p362
ag85
aS'variable_29'
p363
ag87
ag16
ag23
aS'variable_29'
p364
aS'+='
p365
ag119
ag23
aS'variable_18'
p366
aS'+='
p367
aS'variable_4'
p368
aS'->'
p369
aS'variable_22'
p370
ag61
aS'variable_28'
p371
ag85
ag26
ag87
ag23
aS'variable_18'
p372
ag19
ag26
ag23
aS'for'
p373
ag6
aS'variable_15'
p374
ag19
ag26
ag23
aS'variable_15'
p375
ag81
aS'variable_4'
p376
aS'->'
p377
aS'variable_5'
p378
aS'->'
p379
aS'variable_33'
p380
ag23
aS'variable_15'
p381
aS'++'
p382
ag16
aS'variable_29'
p383
ag19
aS'variable_18'
p384
ag23
aS'variable_7'
p385
aS'++'
p386
ag23
aS'variable_21'
p387
ag19
aS'variable_4'
p388
aS'->'
p389
aS'variable_5'
p390
aS'->'
p391
aS'variable_30'
p392
ag23
aS'while'
p393
ag6
aS'variable_21'
p394
ag103
ag26
ag16
aS'variable_19'
p395
ag19
ag6
aS'signed'
p396
aS'char'
p397
ag16
ag6
aS'variable_1'
p398
ag85
aS'variable_7'
p399
aS'++'
p400
ag87
ag16
ag23
aS'if'
p401
ag6
aS'variable_19'
p402
ag103
ag26
ag16
aS'variable_31'
p403
ag19
aS'func_17'
p404
ag6
ag77
aS'variable_1'
p405
ag85
aS'variable_7'
p406
ag87
ag16
ag23
aS'variable_7'
p407
aS'+='
p408
ag119
ag23
aS'func_18'
p409
ag6
aS'variable_19'
p410
ag16
ag23
aS'for'
p411
ag6
aS'variable_14'
p412
ag19
ag26
ag23
aS'variable_14'
p413
ag81
aS'variable_19'
p414
ag23
aS'variable_14'
p415
aS'++'
p416
ag16
ag8
ag6
ag6
aS'signed'
p417
aS'short'
p418
ag8
ag16
ag6
ag77
aS'variable_32'
p419
ag85
aS'variable_29'
p420
ag87
ag16
ag16
ag19
aS'variable_31'
p421
ag23
aS'variable_29'
p422
aS'+='
p423
ag119
ag23
aS'variable_21'
p424
aS'--'
p425
ag23
aS'if'
p426
ag6
aS'variable_21'
p427
ag81
ag26
ag16
aS'func_19'
p428
ag6
aS'variable_5'
p429
ag10
aS'variable_34'
p430
ag10
ag308
aS'pixel_countdown'
p431
ag81
ag26
ag6
ag310
ag311
ag16
ag313
ag314
ag308
ag10
aS'variable_21'
p432
ag16
ag23
aS'variable_19'
p433
ag19
ag126
aS'variable_19'
p434
ag23
aS'func_20'
p435
ag6
aS'variable_19'
p436
ag16
ag23
aS'for'
p437
ag6
aS'variable_14'
p438
ag19
ag26
ag23
aS'variable_14'
p439
ag81
aS'variable_19'
p440
ag23
aS'variable_14'
p441
aS'++'
p442
ag16
ag8
ag6
ag6
aS'signed'
p443
aS'short'
p444
ag8
ag16
ag6
ag77
aS'variable_32'
p445
ag85
aS'variable_29'
p446
ag87
ag16
ag16
ag19
aS'func_21'
p447
ag6
ag77
aS'variable_1'
p448
ag85
aS'variable_7'
p449
ag87
ag16
ag23
aS'variable_7'
p450
aS'+='
p451
ag119
ag23
aS'variable_29'
p452
aS'+='
p453
ag119
ag23
aS'variable_21'
p454
aS'--'
p455
ag23
aS'if'
p456
ag6
aS'variable_21'
p457
ag81
ag26
ag16
aS'func_22'
p458
ag6
aS'variable_5'
p459
ag10
aS'variable_34'
p460
ag10
ag308
aS'pixel_countdown'
p461
ag81
ag26
ag6
ag310
ag311
ag16
ag313
ag314
ag308
ag10
aS'variable_21'
p462
ag16
ag23
aS'variable_18'
p463
aS'+='
p464
aS'variable_4'
p465
aS'->'
p466
aS'variable_22'
p467
ag61
aS'variable_28'
p468
ag85
ag26
ag87
ag23
aS'if'
p469
ag6
aS'variable_11'
p470
ag126
ag90
ag103
ag6
aS'unsigned'
p471
aS'int'
p472
ag16
ag6
aS'variable_4'
p473
aS'->'
p474
aS'variable_5'
p475
aS'->'
p476
aS'variable_30'
p477
ag8
aS'variable_4'
p478
aS'->'
p479
aS'variable_5'
p480
aS'->'
p481
aS'variable_33'
p482
ag16
ag8
ag119
ag16
aS'func_23'
p483
ag6
aS'variable_5'
p484
ag10
aS'variable_34'
p485
ag10
ag308
aS'bigger'
p486
aS'than'
p487
aS'image'
p488
ag10
aS'skipping'
p489
aS'chunk'
p490
ag313
ag314
ag308
ag10
aS'variable_11'
p491
ag126
ag90
ag16
aS'variable_7'
p492
aS'+='
p493
aS'variable_11'
p494
ag126
ag90
ag23
aS'for'
p495
ag6
aS'variable_18'
p496
ag19
ag26
ag23
aS'variable_18'
p497
ag81
aS'variable_4'
p498
aS'->'
p499
aS'variable_22'
p500
ag61
aS'variable_28'
p501
ag85
ag26
ag87
ag8
aS'variable_18'
p502
aS'+='
p503
aS'variable_4'
p504
aS'->'
p505
aS'variable_22'
p506
ag61
aS'variable_28'
p507
ag85
ag26
ag87
ag16
aS'while'
p508
ag6
aS'variable_21'
p509
ag103
ag26
ag16
ag8
ag6
ag6
aS'signed'
p510
aS'short'
p511
ag8
ag16
ag6
ag77
aS'variable_32'
p512
ag85
aS'variable_18'
p513
ag124
aS'variable_29'
p514
ag87
ag16
ag16
ag19
aS'func_24'
p515
ag6
ag77
aS'variable_1'
p516
ag85
aS'variable_7'
p517
ag124
aS'variable_29'
p518
ag87
ag16
ag23
aS'variable_29'
p519
aS'+='
p520
ag119
ag23
aS'variable_21'
p521
aS'--'
p522
ag23
aS'variable_7'
p523
aS'+='
p524
aS'variable_4'
p525
aS'->'
p526
aS'variable_5'
p527
aS'->'
p528
aS'variable_30'
p529
ag8
ag119
ag23
aS'variable_7'
p530
aS'+='
p531
aS'variable_11'
p532
ag126
ag90
ag23
aS'func_25'
p533
ag6
aS'variable_5'
p534
ag10
aS'variable_34'
p535
ag10
ag308
aS'Unrecognized'
p536
aS'chunk'
p537
aS'type'
p538
aS':'
p539
ag310
ag311
ag313
ag314
ag308
ag10
aS'variable_12'
p540
ag16
ag23
aS'variable_9'
p541
aS'-='
p542
aS'variable_11'
p543
ag23
aS'variable_10'
p544
aS'--'
p545
ag23
aS'if'
p546
ag6
ag6
aS'variable_7'
p547
aS'!='
p548
aS'variable_2'
p549
ag16
aS'&&'
p550
ag6
aS'variable_7'
p551
aS'!='
p552
aS'variable_2'
p553
ag126
ag63
ag16
ag16
aa(lp554
S'static'
p555
aS'int'
p556
aS'func_0'
p557
ag6
aS'void'
p558
ag8
aS'variable_0'
p559
ag10
aS'const'
p560
aS'uint8_t'
p561
ag8
aS'variable_1'
p562
ag10
aS'int'
p563
aS'variable_2'
p564
ag16
aS'variable_3'
p565
ag8
aS'variable_4'
p566
ag19
aS'variable_5'
p567
aS'->'
p568
aS'variable_6'
p569
ag23
aS'int'
p570
aS'variable_7'
p571
ag23
aS'variable_4'
p572
aS'->'
p573
aS'variable_8'
p574
ag61
aS'variable_9'
p575
ag19
ag63
ag23
aS'variable_4'
p576
aS'->'
p577
aS'variable_8'
p578
ag61
aS'variable_10'
p579
ag19
aS'variable_11'
p580
ag69
aS'variable_12'
p581
ag69
aS'variable_13'
p582
ag23
aS'if'
p583
ag6
aS'variable_5'
p584
aS'->'
p585
aS'func_1'
p586
ag6
aS'variable_5'
p587
ag10
ag77
aS'variable_4'
p588
aS'->'
p589
aS'variable_8'
p590
ag16
ag81
ag26
ag16
aS'variable_7'
p591
ag19
aS'variable_4'
p592
aS'->'
p593
aS'variable_5'
p594
aS'->'
p595
aS'variable_14'
p596
ag8
aS'variable_4'
p597
aS'->'
p598
aS'variable_8'
p599
ag61
aS'variable_15'
p600
ag85
ag26
ag87
ag23
aaa(lp601
I0
aI0
aa(lp602
I467
aI78
aa(lp603
(lp604
S'main'
p605
aa(lp606
g605
aaa(lp607
S'146 /home/SySeVR/data/CVE_2010_3429_VULN_flic_decode_frame_15_16BPP.c stream_ptr = stream_ptr + chunk_size - 6 113'
p608
aS'148 /home/SySeVR/data/CVE_2010_3429_VULN_flic_decode_frame_15_16BPP.c pixel_limit = s -> avctx -> height * s -> frame . linesize [ 0 ] 40'
p609
aa.