(lp0
(lp1
(lp2
S'variable_0'
p3
aS':'
p4
ag4
aS'func_0'
p5
aS'('
p6
aS'const'
p7
aS'PRUnichar'
p8
aS'*'
p9
aS'variable_1'
p10
aS','
p11
aS'char'
p12
ag9
ag9
aS'variable_2'
p13
aS')'
p14
aS'nsresult'
p15
aS'variable_3'
p16
aS';'
p17
aS'int32_t'
p18
aS'variable_4'
p19
aS'='
p20
aS'func_1'
p21
ag6
aS'variable_1'
p22
ag14
ag17
aS'int32_t'
p23
aS'variable_5'
p24
ag17
aS'int32_t'
p25
aS'variable_6'
p26
ag20
aS'variable_4'
p27
ag17
aS'int32_t'
p28
aS'variable_7'
p29
ag17
aS'int32_t'
p30
aS'variable_8'
p31
ag11
aS'variable_9'
p32
ag17
aS'variable_3'
p33
ag20
aS'variable_10'
p34
aS'->'
p35
aS'func_2'
p36
ag6
aS'variable_1'
p37
ag11
aS'variable_4'
p38
ag11
aS'&'
p39
aS'variable_7'
p40
ag14
ag17
aS'if'
p41
ag6
aS'func_3'
p42
ag6
aS'variable_3'
p43
ag14
ag14
aS'variable_5'
p44
ag20
aS'variable_7'
p45
aS'+'
p46
aS'variable_11'
p47
ag17
aS'char'
p48
ag9
aS'variable_12'
p49
ag20
ag6
aS'char'
p50
ag9
ag14
aS'func_4'
p51
ag6
aS'variable_5'
p52
ag46
aS'1'
p53
ag14
ag17
aS'if'
p54
ag6
aS'!'
p55
aS'variable_12'
p56
ag14
aS'for'
p57
ag6
aS'variable_8'
p58
ag20
aS'0'
p59
ag11
aS'variable_9'
p60
ag20
ag59
ag17
aS'variable_8'
p61
aS'<'
p62
aS'variable_4'
p63
ag17
ag14
aS'variable_7'
p64
ag20
aS'variable_5'
p65
aS'-'
p66
aS'variable_9'
p67
ag17
aS'variable_3'
p68
ag20
aS'variable_10'
p69
aS'->'
p70
aS'func_5'
p71
ag6
ag39
aS'variable_1'
p72
aS'['
p73
aS'variable_8'
p74
aS']'
p75
ag11
ag39
aS'variable_6'
p76
ag11
ag39
aS'variable_12'
p77
ag73
aS'variable_9'
p78
ag75
ag11
ag39
aS'variable_7'
p79
ag14
ag17
aS'variable_8'
p80
aS'+='
p81
aS'variable_6'
p82
aS'?'
p83
aS'variable_6'
p84
ag4
ag53
ag17
aS'variable_9'
p85
aS'+='
p86
aS'variable_7'
p87
ag17
aS'if'
p88
ag6
aS'variable_13'
p89
aS'!='
p90
aS'variable_3'
p91
ag14
aS'variable_3'
p92
ag20
aS'variable_14'
p93
ag17
aS'variable_7'
p94
ag20
aS'variable_5'
p95
ag66
aS'variable_9'
p96
ag17
aS'variable_3'
p97
ag20
aS'variable_10'
p98
aS'->'
p99
aS'func_6'
p100
ag6
ag39
aS'variable_12'
p101
ag73
aS'variable_9'
p102
ag75
ag11
ag39
aS'variable_7'
p103
ag14
ag17
aS'if'
p104
ag6
aS'func_7'
p105
ag6
aS'variable_3'
p106
ag14
ag14
aS'variable_9'
p107
aS'+='
p108
aS'variable_7'
p109
ag17
aS'variable_12'
p110
ag73
aS'variable_9'
p111
ag75
ag20
aS"'"
p112
aS'\\'
p113
ag59
ag112
ag17
aS'variable_6'
p114
ag20
aS'variable_4'
p115
ag66
aS'variable_8'
p116
ag17
aS'if'
p117
ag6
ag55
aS'func_8'
p118
ag6
aS'variable_15'
p119
ag14
ag14
aS'uint32_t'
p120
aS'variable_16'
p121
ag17
aS'if'
p122
ag6
aS'func_9'
p123
ag6
aS'variable_1'
p124
ag73
aS'variable_8'
p125
ag66
ag53
ag75
ag14
aS'&&'
p126
aS'variable_4'
p127
aS'>'
p128
aS'variable_8'
p129
aS'&&'
p130
aS'func_10'
p131
ag6
aS'variable_1'
p132
ag73
aS'variable_8'
p133
ag75
ag14
ag14
aS'variable_16'
p134
ag20
aS'func_11'
p135
ag6
aS'variable_1'
p136
ag73
aS'variable_8'
p137
ag66
ag53
ag75
ag11
aS'variable_1'
p138
ag73
aS'variable_8'
p139
ag75
ag14
ag17
aS'variable_8'
p140
aS'++'
p141
ag17
aS'variable_16'
p142
ag20
aS'variable_1'
p143
ag73
aS'variable_8'
p144
ag66
ag53
ag75
ag17
aS'variable_3'
p145
ag20
aS'variable_10'
p146
aS'->'
p147
aS'func_12'
p148
ag6
aS'variable_1'
p149
ag46
aS'variable_8'
p150
ag11
aS'variable_4'
p151
ag66
aS'variable_8'
p152
ag11
ag39
aS'variable_7'
p153
ag14
ag17
aS'if'
p154
ag6
aS'func_13'
p155
ag6
aS'variable_3'
p156
ag14
ag14
aS'variable_3'
p157
ag20
aS'func_14'
p158
ag6
aS'variable_16'
p159
ag11
ag39
aS'variable_12'
p160
ag11
ag39
aS'variable_5'
p161
ag11
ag39
aS'variable_9'
p162
ag11
aS'variable_7'
p163
ag14
ag17
aS'if'
p164
ag6
aS'func_15'
p165
ag6
aS'variable_3'
p166
ag14
ag14
aS'variable_12'
p167
ag73
aS'variable_9'
p168
ag75
ag20
ag112
ag113
ag59
ag112
ag17
aS'if'
p169
ag6
aS'func_16'
p170
ag6
aS'variable_3'
p171
ag14
ag14
aS'variable_7'
p172
ag20
aS'variable_5'
p173
ag66
aS'variable_9'
p174
ag17
aS'variable_3'
p175
ag20
aS'variable_10'
p176
aS'->'
p177
aS'func_17'
p178
ag6
ag39
aS'variable_12'
p179
ag73
aS'variable_9'
p180
ag75
ag11
ag39
aS'variable_7'
p181
ag14
ag17
aS'if'
p182
ag6
aS'func_18'
p183
ag6
aS'variable_3'
p184
ag14
ag14
aS'variable_9'
p185
aS'+='
p186
aS'variable_7'
p187
ag17
aS'variable_12'
p188
ag73
aS'variable_9'
p189
ag75
ag20
ag112
ag113
ag59
ag112
ag17
aS'if'
p190
ag6
aS'func_19'
p191
ag6
aS'variable_3'
p192
ag14
ag14
aS'func_20'
p193
ag6
aS'variable_12'
p194
ag14
ag17
aS'return'
p195
aS'variable_3'
p196
ag17
ag9
aS'variable_2'
p197
ag20
aS'variable_12'
p198
ag17
aS'return'
p199
aS'variable_3'
p200
ag17
aa(lp201
S'variable_0'
p202
ag4
ag4
aS'func_0'
p203
ag6
aS'const'
p204
aS'PRUnichar'
p205
ag9
aS'variable_1'
p206
ag11
aS'char'
p207
ag9
ag9
aS'variable_2'
p208
ag14
aS'nsresult'
p209
aS'variable_3'
p210
ag17
aS'int32_t'
p211
aS'variable_4'
p212
ag20
aS'func_1'
p213
ag6
aS'variable_1'
p214
ag14
ag17
aS'int32_t'
p215
aS'variable_5'
p216
ag17
aS'int32_t'
p217
aS'variable_6'
p218
ag20
aS'variable_4'
p219
ag17
aS'int32_t'
p220
aS'variable_7'
p221
ag17
aS'int32_t'
p222
aS'variable_8'
p223
ag11
aS'variable_9'
p224
ag17
aS'variable_3'
p225
ag20
aS'variable_10'
p226
aS'->'
p227
aS'func_2'
p228
ag6
aS'variable_1'
p229
ag11
aS'variable_4'
p230
ag11
ag39
aS'variable_7'
p231
ag14
ag17
aS'if'
p232
ag6
aS'func_3'
p233
ag6
aS'variable_3'
p234
ag14
ag14
aS'variable_5'
p235
ag20
aS'variable_7'
p236
ag46
aS'variable_11'
p237
ag17
aS'char'
p238
ag9
aS'variable_12'
p239
ag20
ag6
aS'char'
p240
ag9
ag14
aS'func_4'
p241
ag6
aS'variable_5'
p242
ag46
ag53
ag14
ag17
aS'if'
p243
ag6
ag55
aS'variable_12'
p244
ag14
aS'for'
p245
ag6
aS'variable_8'
p246
ag20
ag59
ag11
aS'variable_9'
p247
ag20
ag59
ag17
aS'variable_8'
p248
ag62
aS'variable_4'
p249
ag17
ag14
aS'variable_7'
p250
ag20
aS'variable_5'
p251
ag66
aS'variable_9'
p252
ag17
aS'variable_3'
p253
ag20
aS'variable_10'
p254
aS'->'
p255
aS'func_5'
p256
ag6
ag39
aS'variable_1'
p257
ag73
aS'variable_8'
p258
ag75
ag11
ag39
aS'variable_6'
p259
ag11
ag39
aS'variable_12'
p260
ag73
aS'variable_9'
p261
ag75
ag11
ag39
aS'variable_7'
p262
ag14
ag17
aS'variable_8'
p263
aS'+='
p264
aS'variable_6'
p265
ag83
aS'variable_6'
p266
ag4
ag53
ag17
aS'variable_9'
p267
aS'+='
p268
aS'variable_7'
p269
ag17
aS'if'
p270
ag6
aS'variable_13'
p271
aS'!='
p272
aS'variable_3'
p273
ag14
aS'variable_3'
p274
ag20
aS'variable_14'
p275
ag17
aS'variable_7'
p276
ag20
aS'variable_5'
p277
ag66
aS'variable_9'
p278
ag17
aS'variable_3'
p279
ag20
aS'variable_10'
p280
aS'->'
p281
aS'func_6'
p282
ag6
ag39
aS'variable_12'
p283
ag73
aS'variable_9'
p284
ag75
ag11
ag39
aS'variable_7'
p285
ag14
ag17
aS'if'
p286
ag6
aS'func_7'
p287
ag6
aS'variable_3'
p288
ag14
ag14
aS'variable_9'
p289
aS'+='
p290
aS'variable_7'
p291
ag17
aS'variable_12'
p292
ag73
aS'variable_9'
p293
ag75
ag20
ag112
ag113
ag59
ag112
ag17
aS'variable_6'
p294
ag20
aS'variable_4'
p295
ag66
aS'variable_8'
p296
ag17
aS'if'
p297
ag6
ag55
aS'func_8'
p298
ag6
aS'variable_15'
p299
ag14
ag14
aS'uint32_t'
p300
aS'variable_16'
p301
ag17
aS'if'
p302
ag6
aS'func_9'
p303
ag6
aS'variable_1'
p304
ag73
aS'variable_8'
p305
ag66
ag53
ag75
ag14
aS'&&'
p306
aS'variable_4'
p307
ag128
aS'variable_8'
p308
aS'&&'
p309
aS'func_10'
p310
ag6
aS'variable_1'
p311
ag73
aS'variable_8'
p312
ag75
ag14
ag14
aS'variable_16'
p313
ag20
aS'func_11'
p314
ag6
aS'variable_1'
p315
ag73
aS'variable_8'
p316
ag66
ag53
ag75
ag11
aS'variable_1'
p317
ag73
aS'variable_8'
p318
ag75
ag14
ag17
aS'variable_8'
p319
aS'++'
p320
ag17
aS'variable_16'
p321
ag20
aS'variable_1'
p322
ag73
aS'variable_8'
p323
ag66
ag53
ag75
ag17
aS'variable_3'
p324
ag20
aS'variable_10'
p325
aS'->'
p326
aS'func_12'
p327
ag6
aS'variable_1'
p328
ag46
aS'variable_8'
p329
ag11
aS'variable_4'
p330
ag66
aS'variable_8'
p331
ag11
ag39
aS'variable_7'
p332
ag14
ag17
aS'if'
p333
ag6
aS'func_13'
p334
ag6
aS'variable_3'
p335
ag14
ag14
aS'variable_3'
p336
ag20
aS'func_14'
p337
ag6
aS'variable_16'
p338
ag11
ag39
aS'variable_12'
p339
ag11
ag39
aS'variable_5'
p340
ag11
ag39
aS'variable_9'
p341
ag11
aS'variable_7'
p342
ag14
ag17
aS'if'
p343
ag6
aS'func_15'
p344
ag6
aS'variable_3'
p345
ag14
ag14
aS'if'
p346
ag6
aS'func_16'
p347
ag6
aS'variable_3'
p348
ag14
ag14
aS'if'
p349
ag6
aS'func_17'
p350
ag6
aS'variable_3'
p351
ag14
ag14
aS'return'
p352
aS'variable_3'
p353
ag17
aS'return'
p354
aS'variable_3'
p355
ag17
aa(lp356
S'variable_0'
p357
ag4
ag4
aS'func_0'
p358
ag6
aS'const'
p359
aS'PRUnichar'
p360
ag9
aS'variable_1'
p361
ag11
aS'char'
p362
ag9
ag9
aS'variable_2'
p363
ag14
aS'nsresult'
p364
aS'variable_3'
p365
ag17
aS'int32_t'
p366
aS'variable_4'
p367
ag20
aS'func_1'
p368
ag6
aS'variable_1'
p369
ag14
ag17
aS'int32_t'
p370
aS'variable_5'
p371
ag17
aS'int32_t'
p372
aS'variable_6'
p373
ag20
aS'variable_4'
p374
ag17
aS'int32_t'
p375
aS'variable_7'
p376
ag17
aS'int32_t'
p377
aS'variable_8'
p378
ag11
aS'variable_9'
p379
ag17
aS'variable_3'
p380
ag20
aS'variable_10'
p381
aS'->'
p382
aS'func_2'
p383
ag6
aS'variable_1'
p384
ag11
aS'variable_4'
p385
ag11
ag39
aS'variable_7'
p386
ag14
ag17
aS'if'
p387
ag6
aS'func_3'
p388
ag6
aS'variable_3'
p389
ag14
ag14
aS'variable_5'
p390
ag20
aS'variable_7'
p391
ag46
aS'variable_11'
p392
ag17
aS'char'
p393
ag9
aS'variable_12'
p394
ag20
ag6
aS'char'
p395
ag9
ag14
aS'func_4'
p396
ag6
aS'variable_5'
p397
ag46
ag53
ag14
ag17
aS'if'
p398
ag6
ag55
aS'variable_12'
p399
ag14
aS'for'
p400
ag6
aS'variable_8'
p401
ag20
ag59
ag11
aS'variable_9'
p402
ag20
ag59
ag17
aS'variable_8'
p403
ag62
aS'variable_4'
p404
ag17
ag14
aS'variable_7'
p405
ag20
aS'variable_5'
p406
ag66
aS'variable_9'
p407
ag17
aS'variable_3'
p408
ag20
aS'variable_10'
p409
aS'->'
p410
aS'func_5'
p411
ag6
ag39
aS'variable_1'
p412
ag73
aS'variable_8'
p413
ag75
ag11
ag39
aS'variable_6'
p414
ag11
ag39
aS'variable_12'
p415
ag73
aS'variable_9'
p416
ag75
ag11
ag39
aS'variable_7'
p417
ag14
ag17
aS'variable_8'
p418
aS'+='
p419
aS'variable_6'
p420
ag83
aS'variable_6'
p421
ag4
ag53
ag17
aS'variable_9'
p422
aS'+='
p423
aS'variable_7'
p424
ag17
aS'if'
p425
ag6
aS'variable_13'
p426
aS'!='
p427
aS'variable_3'
p428
ag14
aS'variable_14'
p429
ag20
aS'variable_3'
p430
ag17
aS'variable_3'
p431
ag20
aS'variable_15'
p432
ag17
aS'variable_7'
p433
ag20
aS'variable_5'
p434
ag66
aS'variable_9'
p435
ag17
aS'variable_3'
p436
ag20
aS'variable_10'
p437
aS'->'
p438
aS'func_6'
p439
ag6
ag39
aS'variable_12'
p440
ag73
aS'variable_9'
p441
ag75
ag11
ag39
aS'variable_7'
p442
ag14
ag17
aS'if'
p443
ag6
aS'func_7'
p444
ag6
aS'variable_3'
p445
ag14
ag14
aS'variable_9'
p446
aS'+='
p447
aS'variable_7'
p448
ag17
aS'variable_12'
p449
ag73
aS'variable_9'
p450
ag75
ag20
ag112
ag113
ag59
ag112
ag17
aS'variable_6'
p451
ag20
aS'variable_4'
p452
ag66
aS'variable_8'
p453
ag17
aS'if'
p454
ag6
ag55
aS'func_8'
p455
ag6
aS'variable_16'
p456
ag14
ag14
aS'uint32_t'
p457
aS'variable_17'
p458
ag17
aS'if'
p459
ag6
aS'func_9'
p460
ag6
aS'variable_1'
p461
ag73
aS'variable_8'
p462
ag66
ag53
ag75
ag14
aS'&&'
p463
aS'variable_4'
p464
ag128
aS'variable_8'
p465
aS'&&'
p466
aS'func_10'
p467
ag6
aS'variable_1'
p468
ag73
aS'variable_8'
p469
ag75
ag14
ag14
aS'variable_17'
p470
ag20
aS'func_11'
p471
ag6
aS'variable_1'
p472
ag73
aS'variable_8'
p473
ag66
ag53
ag75
ag11
aS'variable_1'
p474
ag73
aS'variable_8'
p475
ag75
ag14
ag17
aS'variable_8'
p476
aS'++'
p477
ag17
aS'variable_17'
p478
ag20
aS'variable_1'
p479
ag73
aS'variable_8'
p480
ag66
ag53
ag75
ag17
aS'variable_3'
p481
ag20
aS'variable_10'
p482
aS'->'
p483
aS'func_12'
p484
ag6
aS'variable_1'
p485
ag46
aS'variable_8'
p486
ag11
aS'variable_4'
p487
ag66
aS'variable_8'
p488
ag11
ag39
aS'variable_7'
p489
ag14
ag17
aS'if'
p490
ag6
aS'func_13'
p491
ag6
aS'variable_3'
p492
ag14
ag14
aS'variable_3'
p493
ag20
aS'func_14'
p494
ag6
aS'variable_17'
p495
ag11
ag39
aS'variable_12'
p496
ag11
ag39
aS'variable_5'
p497
ag11
ag39
aS'variable_9'
p498
ag11
aS'variable_7'
p499
ag14
ag17
aS'if'
p500
ag6
aS'func_15'
p501
ag6
aS'variable_3'
p502
ag14
ag14
aS'if'
p503
ag6
aS'func_16'
p504
ag6
aS'variable_3'
p505
ag14
ag14
aS'if'
p506
ag6
aS'func_17'
p507
ag6
aS'variable_3'
p508
ag14
ag14
aS'return'
p509
aS'variable_3'
p510
ag17
aS'if'
p511
ag6
aS'variable_13'
p512
aS'=='
p513
aS'variable_14'
p514
ag14
aS'return'
p515
aS'variable_3'
p516
ag17
aa(lp517
S'variable_0'
p518
ag4
ag4
aS'func_0'
p519
ag6
aS'const'
p520
aS'PRUnichar'
p521
ag9
aS'variable_1'
p522
ag11
aS'char'
p523
ag9
ag9
aS'variable_2'
p524
ag14
aS'nsresult'
p525
aS'variable_3'
p526
ag17
aS'int32_t'
p527
aS'variable_4'
p528
ag20
aS'func_1'
p529
ag6
aS'variable_1'
p530
ag14
ag17
aS'int32_t'
p531
aS'variable_5'
p532
ag17
aS'int32_t'
p533
aS'variable_6'
p534
ag20
aS'variable_4'
p535
ag17
aS'int32_t'
p536
aS'variable_7'
p537
ag17
aS'int32_t'
p538
aS'variable_8'
p539
ag11
aS'variable_9'
p540
ag17
aS'variable_3'
p541
ag20
aS'variable_10'
p542
aS'->'
p543
aS'func_2'
p544
ag6
aS'variable_1'
p545
ag11
aS'variable_4'
p546
ag11
ag39
aS'variable_7'
p547
ag14
ag17
aS'if'
p548
ag6
aS'func_3'
p549
ag6
aS'variable_3'
p550
ag14
ag14
aS'variable_5'
p551
ag20
aS'variable_7'
p552
ag46
aS'variable_11'
p553
ag17
aS'char'
p554
ag9
aS'variable_12'
p555
ag20
ag6
aS'char'
p556
ag9
ag14
aS'func_4'
p557
ag6
aS'variable_5'
p558
ag46
ag53
ag14
ag17
aS'if'
p559
ag6
ag55
aS'variable_12'
p560
ag14
aS'for'
p561
ag6
aS'variable_8'
p562
ag20
ag59
ag11
aS'variable_9'
p563
ag20
ag59
ag17
aS'variable_8'
p564
ag62
aS'variable_4'
p565
ag17
ag14
aS'variable_7'
p566
ag20
aS'variable_5'
p567
ag66
aS'variable_9'
p568
ag17
aS'func_5'
p569
ag6
aS'variable_7'
p570
ag128
ag20
ag59
ag11
aS'"'
p571
aS'out'
p572
aS'of'
p573
aS'bounds'
p574
aS'write'
p575
ag571
ag14
ag17
aS'variable_3'
p576
ag20
aS'variable_10'
p577
aS'->'
p578
aS'func_6'
p579
ag6
ag39
aS'variable_1'
p580
ag73
aS'variable_8'
p581
ag75
ag11
ag39
aS'variable_6'
p582
ag11
ag39
aS'variable_12'
p583
ag73
aS'variable_9'
p584
ag75
ag11
ag39
aS'variable_7'
p585
ag14
ag17
aS'variable_8'
p586
aS'+='
p587
aS'variable_6'
p588
ag83
aS'variable_6'
p589
ag4
ag53
ag17
aS'variable_9'
p590
aS'+='
p591
aS'variable_7'
p592
ag17
aS'variable_12'
p593
ag73
aS'variable_9'
p594
ag75
ag20
ag112
ag113
ag59
ag112
ag17
aS'if'
p595
ag6
aS'variable_13'
p596
aS'!='
p597
aS'variable_3'
p598
ag14
aS'variable_14'
p599
ag20
aS'variable_3'
p600
ag17
aS'variable_3'
p601
ag20
aS'variable_15'
p602
ag17
aS'variable_7'
p603
ag20
aS'variable_5'
p604
ag66
aS'variable_9'
p605
ag17
aS'variable_3'
p606
ag20
aS'variable_10'
p607
aS'->'
p608
aS'func_7'
p609
ag6
ag39
aS'variable_12'
p610
ag73
aS'variable_9'
p611
ag75
ag11
ag39
aS'variable_7'
p612
ag14
ag17
aS'if'
p613
ag6
aS'func_8'
p614
ag6
aS'variable_3'
p615
ag14
ag14
aS'variable_9'
p616
aS'+='
p617
aS'variable_7'
p618
ag17
aS'variable_12'
p619
ag73
aS'variable_9'
p620
ag75
ag20
ag112
ag113
ag59
ag112
ag17
aS'variable_6'
p621
ag20
aS'variable_4'
p622
ag66
aS'variable_8'
p623
ag17
aS'if'
p624
ag6
ag55
aS'func_9'
p625
ag6
aS'variable_16'
p626
ag14
ag14
aS'uint32_t'
p627
aS'variable_17'
p628
ag17
aS'if'
p629
ag6
aS'func_10'
p630
ag6
aS'variable_1'
p631
ag73
aS'variable_8'
p632
ag66
ag53
ag75
ag14
aS'&&'
p633
aS'variable_4'
p634
ag128
aS'variable_8'
p635
aS'&&'
p636
aS'func_11'
p637
ag6
aS'variable_1'
p638
ag73
aS'variable_8'
p639
ag75
ag14
ag14
aS'variable_17'
p640
ag20
aS'func_12'
p641
ag6
aS'variable_1'
p642
ag73
aS'variable_8'
p643
ag66
ag53
ag75
ag11
aS'variable_1'
p644
ag73
aS'variable_8'
p645
ag75
ag14
ag17
aS'variable_8'
p646
aS'++'
p647
ag17
aS'variable_17'
p648
ag20
aS'variable_1'
p649
ag73
aS'variable_8'
p650
ag66
ag53
ag75
ag17
aS'variable_3'
p651
ag20
aS'variable_10'
p652
aS'->'
p653
aS'func_13'
p654
ag6
aS'variable_1'
p655
ag46
aS'variable_8'
p656
ag11
aS'variable_4'
p657
ag66
aS'variable_8'
p658
ag11
ag39
aS'variable_7'
p659
ag14
ag17
aS'if'
p660
ag6
aS'func_14'
p661
ag6
aS'variable_3'
p662
ag14
ag14
aS'variable_3'
p663
ag20
aS'func_15'
p664
ag6
aS'variable_17'
p665
ag11
ag39
aS'variable_12'
p666
ag11
ag39
aS'variable_5'
p667
ag11
ag39
aS'variable_9'
p668
ag11
aS'variable_7'
p669
ag14
ag17
aS'if'
p670
ag6
aS'func_16'
p671
ag6
aS'variable_3'
p672
ag14
ag14
aS'variable_12'
p673
ag73
aS'variable_9'
p674
ag75
ag20
ag112
ag113
ag59
ag112
ag17
aS'if'
p675
ag6
aS'func_17'
p676
ag6
aS'variable_3'
p677
ag14
ag14
aS'variable_7'
p678
ag20
aS'variable_5'
p679
ag66
aS'variable_9'
p680
ag17
aS'variable_3'
p681
ag20
aS'variable_10'
p682
aS'->'
p683
aS'func_18'
p684
ag6
ag39
aS'variable_12'
p685
ag73
aS'variable_9'
p686
ag75
ag11
ag39
aS'variable_7'
p687
ag14
ag17
aS'if'
p688
ag6
aS'func_19'
p689
ag6
aS'variable_3'
p690
ag14
ag14
aS'variable_9'
p691
aS'+='
p692
aS'variable_7'
p693
ag17
aS'variable_12'
p694
ag73
aS'variable_9'
p695
ag75
ag20
ag112
ag113
ag59
ag112
ag17
aS'if'
p696
ag6
aS'func_20'
p697
ag6
aS'variable_3'
p698
ag14
ag14
aS'func_21'
p699
ag6
aS'variable_12'
p700
ag14
ag17
aS'return'
p701
aS'variable_3'
p702
ag17
ag9
aS'variable_2'
p703
ag20
aS'variable_12'
p704
ag17
aS'if'
p705
ag6
aS'variable_13'
p706
aS'=='
p707
aS'variable_14'
p708
ag14
aS'return'
p709
aS'variable_3'
p710
ag17
aa(lp711
S'variable_0'
p712
ag4
ag4
aS'func_0'
p713
ag6
aS'const'
p714
aS'PRUnichar'
p715
ag9
aS'variable_1'
p716
ag11
aS'char'
p717
ag9
ag9
aS'variable_2'
p718
ag14
aS'nsresult'
p719
aS'variable_3'
p720
ag17
aS'int32_t'
p721
aS'variable_4'
p722
ag20
aS'func_1'
p723
ag6
aS'variable_1'
p724
ag14
ag17
aS'int32_t'
p725
aS'variable_5'
p726
ag17
aS'int32_t'
p727
aS'variable_6'
p728
ag17
aS'variable_3'
p729
ag20
aS'variable_7'
p730
aS'->'
p731
aS'func_2'
p732
ag6
aS'variable_1'
p733
ag11
aS'variable_4'
p734
ag11
ag39
aS'variable_6'
p735
ag14
ag17
aS'if'
p736
ag6
aS'func_3'
p737
ag6
aS'variable_3'
p738
ag14
ag14
aS'variable_5'
p739
ag20
aS'variable_6'
p740
ag46
aS'variable_8'
p741
ag17
aS'char'
p742
ag9
aS'variable_9'
p743
ag20
ag6
aS'char'
p744
ag9
ag14
aS'func_4'
p745
ag6
aS'variable_5'
p746
ag46
ag53
ag14
ag17
aS'if'
p747
ag6
ag55
aS'variable_9'
p748
ag14
aS'variable_6'
p749
ag20
aS'variable_5'
p750
ag66
aS'variable_10'
p751
ag17
aS'func_5'
p752
ag6
aS'variable_6'
p753
ag128
ag20
ag59
ag11
ag571
aS'out'
p754
aS'of'
p755
aS'bounds'
p756
aS'write'
p757
ag571
ag14
ag17
aS'variable_3'
p758
ag20
aS'variable_7'
p759
aS'->'
p760
aS'func_6'
p761
ag6
ag39
aS'variable_1'
p762
ag73
aS'variable_11'
p763
ag75
ag11
ag39
aS'variable_12'
p764
ag11
ag39
aS'variable_9'
p765
ag73
aS'variable_10'
p766
ag75
ag11
ag39
aS'variable_6'
p767
ag14
ag17
aS'variable_10'
p768
aS'+='
p769
aS'variable_6'
p770
ag17
aS'variable_9'
p771
ag73
aS'variable_10'
p772
ag75
ag20
ag112
ag113
ag59
ag112
ag17
aS'if'
p773
ag6
aS'variable_13'
p774
aS'!='
p775
aS'variable_3'
p776
ag14
aS'variable_14'
p777
ag20
aS'variable_3'
p778
ag17
aS'variable_6'
p779
ag20
aS'variable_5'
p780
ag66
aS'variable_10'
p781
ag17
aS'variable_3'
p782
ag20
aS'variable_7'
p783
aS'->'
p784
aS'func_7'
p785
ag6
ag39
aS'variable_9'
p786
ag73
aS'variable_10'
p787
ag75
ag11
ag39
aS'variable_6'
p788
ag14
ag17
aS'if'
p789
ag6
aS'func_8'
p790
ag6
aS'variable_3'
p791
ag14
ag14
aS'variable_10'
p792
aS'+='
p793
aS'variable_6'
p794
ag17
aS'variable_9'
p795
ag73
aS'variable_10'
p796
ag75
ag20
ag112
ag113
ag59
ag112
ag17
aS'variable_3'
p797
ag20
aS'variable_7'
p798
aS'->'
p799
aS'func_9'
p800
ag6
aS'variable_1'
p801
ag46
aS'variable_11'
p802
ag11
aS'variable_4'
p803
ag66
aS'variable_11'
p804
ag11
ag39
aS'variable_6'
p805
ag14
ag17
aS'if'
p806
ag6
aS'func_10'
p807
ag6
aS'variable_3'
p808
ag14
ag14
aS'variable_3'
p809
ag20
aS'func_11'
p810
ag6
aS'variable_15'
p811
ag11
ag39
aS'variable_9'
p812
ag11
ag39
aS'variable_5'
p813
ag11
ag39
aS'variable_10'
p814
ag11
aS'variable_6'
p815
ag14
ag17
aS'if'
p816
ag6
aS'func_12'
p817
ag6
aS'variable_3'
p818
ag14
ag14
aS'variable_9'
p819
ag73
aS'variable_10'
p820
ag75
ag20
ag112
ag113
ag59
ag112
ag17
aS'if'
p821
ag6
aS'func_13'
p822
ag6
aS'variable_3'
p823
ag14
ag14
aS'variable_6'
p824
ag20
aS'variable_5'
p825
ag66
aS'variable_10'
p826
ag17
aS'variable_3'
p827
ag20
aS'variable_7'
p828
aS'->'
p829
aS'func_14'
p830
ag6
ag39
aS'variable_9'
p831
ag73
aS'variable_10'
p832
ag75
ag11
ag39
aS'variable_6'
p833
ag14
ag17
aS'if'
p834
ag6
aS'func_15'
p835
ag6
aS'variable_3'
p836
ag14
ag14
aS'variable_10'
p837
aS'+='
p838
aS'variable_6'
p839
ag17
aS'variable_9'
p840
ag73
aS'variable_10'
p841
ag75
ag20
ag112
ag113
ag59
ag112
ag17
aS'if'
p842
ag6
aS'func_16'
p843
ag6
aS'variable_3'
p844
ag14
ag14
aS'func_17'
p845
ag6
aS'variable_9'
p846
ag14
ag17
aS'return'
p847
aS'variable_3'
p848
ag17
ag9
aS'variable_2'
p849
ag20
aS'variable_9'
p850
ag17
aS'if'
p851
ag6
aS'variable_13'
p852
aS'=='
p853
aS'variable_14'
p854
ag14
aS'return'
p855
aS'variable_3'
p856
ag17
aaa(lp857
I0
aI0
aI0
aI0
aI0
aa(lp858
I341
aI286
aI208
aI189
aI57
aa(lp859
(lp860
S'main'
p861
aa(lp862
g861
aa(lp863
g861
aa(lp864
g861
aa(lp865
g861
aaa(lp866
S'386 /home/SySeVR/data/CVE_2013_0782_PATCHED_nsSaveAsCharset__DoCharsetConversion.c dstLength = bufferLength - pos2 80'
p867
aS'387 /home/SySeVR/data/CVE_2013_0782_PATCHED_nsSaveAsCharset__DoCharsetConversion.c rv = mEncoder -> GetMaxLength ( inString + pos1 , inStringLength - pos1 , & dstLength ) 67'
p868
aS'388 /home/SySeVR/data/CVE_2013_0782_PATCHED_nsSaveAsCharset__DoCharsetConversion.c srcLength = inStringLength - pos1 54'
p869
aS'389 /home/SySeVR/data/CVE_2013_0782_PATCHED_nsSaveAsCharset__DoCharsetConversion.c dstLength = bufferLength - pos2 47'
p870
aS'391 /home/SySeVR/data/CVE_2013_0782_PATCHED_nsSaveAsCharset__DoCharsetConversion.c bufferLength = dstLength + RESERVE_FALLBACK_BYTES 20'
p871
aa.