(lp0
(lp1
(lp2
S'static'
p3
aS'int'
p4
aS'func_0'
p5
aS'('
p6
aS'struct'
p7
aS'variable_0'
p8
aS'*'
p9
aS'variable_1'
p10
aS')'
p11
aS'struct'
p12
aS'variable_2'
p13
ag9
aS'variable_3'
p14
aS';'
p15
aS'int'
p16
aS'variable_4'
p17
ag15
aS'if'
p18
ag6
aS'variable_1'
p19
aS'->'
p20
aS'variable_5'
p21
ag11
aS'for'
p22
ag6
aS'variable_4'
p23
aS'='
p24
aS'0'
p25
ag15
aS'func_1'
p26
ag6
aS'variable_1'
p27
aS','
p28
aS'variable_4'
p29
ag11
ag15
aS'variable_4'
p30
aS'++'
p31
ag11
aS'if'
p32
ag6
aS'func_2'
p33
ag6
aS'variable_1'
p34
ag28
aS'variable_4'
p35
ag11
aS'->'
p36
aS'variable_6'
p37
aS'=='
p38
aS'variable_7'
p39
ag11
aS'if'
p40
ag6
aS'variable_4'
p41
aS'=='
p42
aS'func_3'
p43
ag6
aS'variable_1'
p44
ag11
ag11
aS'variable_3'
p45
ag24
aS'func_4'
p46
ag6
aS'struct'
p47
aS'variable_2'
p48
ag28
aS'variable_8'
p49
ag11
aS'if'
p50
ag6
aS'func_5'
p51
ag6
aS'variable_3'
p52
aS'=='
p53
aS'NULL'
p54
ag11
ag11
aS'memset'
p55
ag6
aS'variable_3'
p56
ag28
ag25
ag28
aS'variable_8'
p57
ag9
aS'sizeof'
p58
ag6
ag9
aS'variable_3'
p59
ag11
ag11
ag15
aS'func_6'
p60
ag6
aS'variable_1'
p61
ag28
aS'variable_4'
p62
ag11
ag24
aS'variable_3'
p63
ag15
aS'if'
p64
ag6
aS'func_7'
p65
ag6
aS'&'
p66
aS'variable_3'
p67
aS'['
p68
aS'variable_9'
p69
aS']'
p70
ag11
ag11
aS'func_8'
p71
ag6
ag66
aS'variable_3'
p72
ag68
aS'variable_10'
p73
ag70
ag11
ag15
aS'func_9'
p74
ag6
aS'variable_3'
p75
ag11
ag15
aaa(lp76
I1
aa(lp77
I79
aa(lp78
(lp79
S'main'
p80
aaa(lp81
S'103 /home/SySeVR/data/CVE_2013_1920_VULN_get_free_port.c memset 20'
p82
aa.