(lp0
(lp1
(lp2
S'int'
p3
aS'func_0'
p4
aS'('
p5
aS'variable_0'
p6
aS'*'
p7
aS'variable_1'
p8
aS','
p9
aS'int'
p10
ag7
aS'variable_2'
p11
ag9
aS'variable_3'
p12
ag7
ag7
aS'variable_4'
p13
aS')'
p14
aS'int'
p15
aS'variable_5'
p16
aS';'
p17
aS'char'
p18
aS'variable_6'
p19
aS'['
p20
aS'variable_7'
p21
aS']'
p22
ag17
aS'variable_5'
p23
aS'='
p24
aS'func_1'
p25
ag5
aS'variable_6'
p26
ag9
aS'variable_7'
p27
ag9
aS'variable_1'
p28
aS'->'
p29
aS'variable_8'
p30
ag14
ag17
aS'if'
p31
ag5
aS'variable_5'
p32
aS'!='
p33
aS'variable_7'
p34
ag14
aS'if'
p35
ag5
aS'memcmp'
p36
ag5
aS'variable_6'
p37
ag9
aS'variable_9'
p38
ag9
aS'variable_7'
p39
ag14
aS'!='
p40
aS'0'
p41
aS'&&'
p42
aS'memcmp'
p43
ag5
aS'variable_6'
p44
ag9
aS'variable_10'
p45
ag9
aS'variable_7'
p46
ag14
aS'!='
p47
ag41
ag14
aaa(lp48
I0
aa(lp49
I46
aa(lp50
(lp51
S'main'
p52
aaa(lp53
S'379 /home/SySeVR/data/CVE_2013_4933_VULN_netmon_open.c memcmp 28'
p54
aa.