(lp0
(lp1
(lp2
S'func_0'
p3
aS'('
p4
aS'variable_0'
p5
aS'*'
p6
aS'variable_1'
p7
aS','
p8
aS'int'
p9
aS'variable_2'
p10
ag8
aS'variable_3'
p11
ag6
aS'variable_4'
p12
aS')'
p13
aS'char'
p14
ag6
aS'variable_5'
p15
aS'='
p16
aS'NULL'
p17
aS';'
p18
aS'char'
p19
ag6
aS'variable_6'
p20
ag16
aS'NULL'
p21
ag18
aS'guint'
p22
aS'variable_7'
p23
ag8
aS'variable_8'
p24
ag8
aS'variable_9'
p25
ag8
aS'variable_10'
p26
ag8
aS'variable_11'
p27
ag8
aS'variable_12'
p28
ag8
aS'variable_13'
p29
ag8
aS'variable_14'
p30
ag8
aS'variable_15'
p31
ag8
aS'variable_16'
p32
ag18
aS'if'
p33
ag4
aS'strlen'
p34
ag4
aS'variable_6'
p35
ag13
aS'=='
p36
aS'3'
p37
aS'&&'
p38
aS'strncmp'
p39
ag4
aS'variable_6'
p40
ag8
aS'"'
p41
aS'tcp'
p42
ag41
ag8
ag37
ag13
aS'=='
p43
aS'0'
p44
ag13
aS'if'
p45
ag4
aS'variable_5'
p46
aS'&&'
p47
aS'sscanf'
p48
ag4
aS'variable_5'
p49
ag8
ag41
aS'%'
p50
aS'u'
p51
aS'.'
p52
ag50
ag51
ag52
ag50
ag51
ag52
ag50
ag51
ag52
ag50
ag51
ag52
ag50
ag51
ag41
ag8
aS'&'
p53
aS'variable_7'
p54
ag8
ag53
aS'variable_8'
p55
ag8
ag53
aS'variable_9'
p56
ag8
ag53
aS'variable_10'
p57
ag8
ag53
aS'variable_11'
p58
ag8
ag53
aS'variable_12'
p59
ag13
aS'=='
p60
aS'6'
p61
ag13
aS'if'
p62
ag4
aS'variable_5'
p63
aS'&&'
p64
aS'sscanf'
p65
ag4
aS'variable_5'
p66
ag8
ag41
ag50
ag51
ag52
ag50
ag51
ag41
ag8
ag53
aS'variable_7'
p67
ag8
ag53
aS'variable_8'
p68
ag13
aS'=='
p69
aS'2'
p70
ag13
aS'if'
p71
ag4
aS'variable_5'
p72
aS'&&'
p73
aS'sscanf'
p74
ag4
aS'variable_5'
p75
ag8
ag41
ag50
aS'2x'
p76
aS':'
p77
ag50
aS'2x'
p78
ag77
ag50
aS'2x'
p79
ag77
ag50
aS'2x'
p80
ag77
ag50
aS'2x'
p81
ag77
ag50
aS'2x'
p82
ag77
ag50
aS'2x'
p83
ag77
ag50
aS'2x'
p84
ag52
ag50
ag51
ag52
ag50
ag51
ag41
ag8
ag53
aS'variable_7'
p85
ag8
ag53
aS'variable_8'
p86
ag8
ag53
aS'variable_9'
p87
ag8
ag53
aS'variable_10'
p88
ag8
ag53
aS'variable_11'
p89
ag8
ag53
aS'variable_12'
p90
ag8
ag53
aS'variable_13'
p91
ag8
ag53
aS'variable_14'
p92
ag8
ag53
aS'variable_15'
p93
ag8
ag53
aS'variable_16'
p94
ag13
aS'=='
p95
aS'10'
p96
ag13
aa(lp97
S'func_0'
p98
ag4
aS'variable_0'
p99
ag6
aS'variable_1'
p100
ag8
aS'int'
p101
aS'variable_2'
p102
ag8
aS'variable_3'
p103
ag6
aS'variable_4'
p104
ag13
aS'char'
p105
ag6
aS'variable_5'
p106
ag16
aS'NULL'
p107
ag18
aS'char'
p108
ag6
aS'variable_6'
p109
ag16
aS'NULL'
p110
ag18
aS'guint'
p111
aS'variable_7'
p112
ag8
aS'variable_8'
p113
ag8
aS'variable_9'
p114
ag8
aS'variable_10'
p115
ag8
aS'variable_11'
p116
ag8
aS'variable_12'
p117
ag8
aS'variable_13'
p118
ag8
aS'variable_14'
p119
ag8
aS'variable_15'
p120
ag8
aS'variable_16'
p121
ag18
aS'if'
p122
ag4
aS'strlen'
p123
ag4
aS'variable_6'
p124
ag13
aS'=='
p125
ag37
aS'&&'
p126
aS'strncmp'
p127
ag4
aS'variable_6'
p128
ag8
ag41
aS'tcp'
p129
ag41
ag8
ag37
ag13
aS'=='
p130
ag44
ag13
aS'if'
p131
ag4
aS'variable_5'
p132
aS'&&'
p133
aS'sscanf'
p134
ag4
aS'variable_5'
p135
ag8
ag41
ag50
ag51
ag52
ag50
ag51
ag52
ag50
ag51
ag52
ag50
ag51
ag52
ag50
ag51
ag52
ag50
ag51
ag41
ag8
ag53
aS'variable_7'
p136
ag8
ag53
aS'variable_8'
p137
ag8
ag53
aS'variable_9'
p138
ag8
ag53
aS'variable_10'
p139
ag8
ag53
aS'variable_11'
p140
ag8
ag53
aS'variable_12'
p141
ag13
aS'=='
p142
ag61
ag13
aS'if'
p143
ag4
aS'variable_5'
p144
aS'&&'
p145
aS'sscanf'
p146
ag4
aS'variable_5'
p147
ag8
ag41
ag50
ag51
ag52
ag50
ag51
ag41
ag8
ag53
aS'variable_7'
p148
ag8
ag53
aS'variable_8'
p149
ag13
aS'=='
p150
ag70
ag13
aa(lp151
S'func_0'
p152
ag4
aS'variable_0'
p153
ag6
aS'variable_1'
p154
ag8
aS'int'
p155
aS'variable_2'
p156
ag8
aS'variable_3'
p157
ag6
aS'variable_4'
p158
ag13
aS'char'
p159
ag6
aS'variable_5'
p160
ag16
aS'NULL'
p161
ag18
aS'char'
p162
ag6
aS'variable_6'
p163
ag16
aS'NULL'
p164
ag18
aS'guint'
p165
aS'variable_7'
p166
ag8
aS'variable_8'
p167
ag8
aS'variable_9'
p168
ag8
aS'variable_10'
p169
ag8
aS'variable_11'
p170
ag8
aS'variable_12'
p171
ag8
aS'variable_13'
p172
ag8
aS'variable_14'
p173
ag8
aS'variable_15'
p174
ag8
aS'variable_16'
p175
ag18
aS'if'
p176
ag4
aS'strlen'
p177
ag4
aS'variable_6'
p178
ag13
aS'=='
p179
ag37
aS'&&'
p180
aS'strncmp'
p181
ag4
aS'variable_6'
p182
ag8
ag41
aS'tcp'
p183
ag41
ag8
ag37
ag13
aS'=='
p184
ag44
ag13
aS'if'
p185
ag4
aS'variable_5'
p186
aS'&&'
p187
aS'sscanf'
p188
ag4
aS'variable_5'
p189
ag8
ag41
ag50
ag51
ag52
ag50
ag51
ag52
ag50
ag51
ag52
ag50
ag51
ag52
ag50
ag51
ag52
ag50
ag51
ag41
ag8
ag53
aS'variable_7'
p190
ag8
ag53
aS'variable_8'
p191
ag8
ag53
aS'variable_9'
p192
ag8
ag53
aS'variable_10'
p193
ag8
ag53
aS'variable_11'
p194
ag8
ag53
aS'variable_12'
p195
ag13
aS'=='
p196
ag61
ag13
aaa(lp197
I0
aI0
aI0
aa(lp198
I146
aI121
aI72
aa(lp199
(lp200
S'main'
p201
aa(lp202
g201
aa(lp203
g201
aaa(lp204
S'872 /home/SySeVR/data/CVE_2011_1592_PATCHED_dissect_nfs_clientaddr4.c sscanf 28'
p205
aS'873 /home/SySeVR/data/CVE_2011_1592_PATCHED_dissect_nfs_clientaddr4.c sscanf 22'
p206
aS'874 /home/SySeVR/data/CVE_2011_1592_PATCHED_dissect_nfs_clientaddr4.c sscanf 15'
p207
aa.