(lp0
(lp1
(lp2
S'static'
p3
aS'int'
p4
aS'func_0'
p5
aS'('
p6
aS'struct'
p7
aS'variable_0'
p8
aS'*'
p9
aS'variable_0'
p10
aS','
p11
aS'int'
p12
aS'variable_1'
p13
aS')'
p14
aS'unsigned'
p15
aS'long'
p16
aS'variable_2'
p17
aS'='
p18
aS'func_1'
p19
ag6
aS'variable_0'
p20
ag14
aS';'
p21
aS'unsigned'
p22
aS'long'
p23
aS'variable_3'
p24
ag21
aS'struct'
p25
aS'variable_4'
p26
ag9
aS'variable_5'
p27
ag21
aS'unsigned'
p28
aS'int'
p29
aS'variable_6'
p30
ag21
aS'unsigned'
p31
aS'long'
p32
aS'variable_7'
p33
ag21
aS'struct'
p34
aS'variable_8'
p35
ag9
aS'variable_9'
p36
ag18
aS'func_2'
p37
ag6
aS'variable_0'
p38
ag14
ag21
aS'variable_3'
p39
ag18
aS'variable_9'
p40
aS'->'
p41
aS'variable_10'
p42
ag21
aS'variable_11'
p43
ag18
aS'func_3'
p44
ag6
aS'variable_0'
p45
aS'->'
p46
aS'variable_12'
p47
ag11
aS'variable_3'
p48
ag14
ag21
aS'if'
p49
ag6
aS'!'
p50
aS'variable_11'
p51
ag14
aS'variable_7'
p52
ag18
aS'variable_9'
p53
aS'->'
p54
aS'variable_13'
p55
ag21
aS'variable_5'
p56
ag18
ag6
aS'struct'
p57
aS'iso_directory_record'
p58
ag9
ag14
ag6
aS'variable_11'
p59
aS'->'
p60
aS'variable_14'
p61
aS'+'
p62
aS'variable_7'
p63
ag14
ag21
aS'variable_6'
p64
ag18
ag9
ag6
aS'unsigned'
p65
aS'char'
p66
ag9
ag14
aS'variable_5'
p67
ag21
aS'if'
p68
ag6
aS'variable_7'
p69
ag62
aS'variable_6'
p70
aS'>'
p71
aS'variable_2'
p72
ag14
aS'int'
p73
aS'variable_15'
p74
ag18
aS'variable_2'
p75
aS'-'
p76
aS'variable_7'
p77
ag21
aS'variable_16'
p78
ag18
aS'kmalloc'
p79
ag6
aS'variable_6'
p80
ag11
aS'variable_17'
p81
ag14
ag21
aS'if'
p82
ag6
aS'variable_16'
p83
aS'=='
p84
aS'NULL'
p85
ag14
aS'variable_11'
p86
ag18
aS'func_4'
p87
ag6
aS'variable_0'
p88
aS'->'
p89
aS'variable_12'
p90
ag11
aS'++'
p91
aS'variable_3'
p92
ag14
ag21
aS'if'
p93
ag6
ag50
aS'variable_11'
p94
ag14
aS'memcpy'
p95
ag6
ag6
aS'char'
p96
ag9
ag14
aS'variable_16'
p97
ag62
aS'variable_15'
p98
ag11
aS'variable_11'
p99
aS'->'
p100
aS'variable_14'
p101
ag11
aS'variable_6'
p102
ag76
aS'variable_15'
p103
ag14
ag21
aa(lp104
S'static'
p105
aS'int'
p106
aS'func_0'
p107
ag6
aS'struct'
p108
aS'variable_0'
p109
ag9
aS'variable_0'
p110
ag11
aS'int'
p111
aS'variable_1'
p112
ag14
aS'unsigned'
p113
aS'long'
p114
aS'variable_2'
p115
ag18
aS'func_1'
p116
ag6
aS'variable_0'
p117
ag14
ag21
aS'unsigned'
p118
aS'long'
p119
aS'variable_3'
p120
ag21
aS'struct'
p121
aS'variable_4'
p122
ag9
aS'variable_5'
p123
ag21
aS'unsigned'
p124
aS'int'
p125
aS'variable_6'
p126
ag21
aS'unsigned'
p127
aS'long'
p128
aS'variable_7'
p129
ag21
aS'struct'
p130
aS'variable_8'
p131
ag9
aS'variable_9'
p132
ag18
aS'func_2'
p133
ag6
aS'variable_0'
p134
ag14
ag21
aS'variable_3'
p135
ag18
aS'variable_9'
p136
aS'->'
p137
aS'variable_10'
p138
ag21
aS'variable_11'
p139
ag18
aS'func_3'
p140
ag6
aS'variable_0'
p141
aS'->'
p142
aS'variable_12'
p143
ag11
aS'variable_3'
p144
ag14
ag21
aS'if'
p145
ag6
ag50
aS'variable_11'
p146
ag14
aS'variable_7'
p147
ag18
aS'variable_9'
p148
aS'->'
p149
aS'variable_13'
p150
ag21
aS'variable_5'
p151
ag18
ag6
aS'struct'
p152
aS'iso_directory_record'
p153
ag9
ag14
ag6
aS'variable_11'
p154
aS'->'
p155
aS'variable_14'
p156
ag62
aS'variable_7'
p157
ag14
ag21
aS'variable_6'
p158
ag18
ag9
ag6
aS'unsigned'
p159
aS'char'
p160
ag9
ag14
aS'variable_5'
p161
ag21
aS'if'
p162
ag6
aS'variable_7'
p163
ag62
aS'variable_6'
p164
ag71
aS'variable_2'
p165
ag14
aS'int'
p166
aS'variable_15'
p167
ag18
aS'variable_2'
p168
ag76
aS'variable_7'
p169
ag21
aS'variable_16'
p170
ag18
aS'kmalloc'
p171
ag6
aS'variable_6'
p172
ag11
aS'variable_17'
p173
ag14
ag21
aS'if'
p174
ag6
aS'variable_16'
p175
aS'=='
p176
aS'NULL'
p177
ag14
aS'memcpy'
p178
ag6
aS'variable_16'
p179
ag11
aS'variable_11'
p180
aS'->'
p181
aS'variable_14'
p182
ag62
aS'variable_7'
p183
ag11
aS'variable_15'
p184
ag14
ag21
aaa(lp185
I0
aI0
aa(lp186
I148
aI131
aa(lp187
(lp188
S'main'
p189
aa(lp190
g189
aaa(lp191
S'573 /home/SySeVR/data/CVE_2014_5472_PATCHED_isofs_read_inode.c memcpy 40'
p192
aS'574 /home/SySeVR/data/CVE_2014_5472_PATCHED_isofs_read_inode.c memcpy 35'
p193
aa.