(lp0
(lp1
(lp2
S'static'
p3
aS'int'
p4
aS'func_0'
p5
aS'('
p6
aS'struct'
p7
aS'variable_0'
p8
aS'*'
p9
aS'variable_0'
p10
aS','
p11
aS'int'
p12
aS'variable_1'
p13
aS')'
p14
aS'unsigned'
p15
aS'long'
p16
aS'variable_2'
p17
aS'='
p18
aS'func_1'
p19
ag6
aS'variable_0'
p20
ag14
aS';'
p21
aS'unsigned'
p22
aS'long'
p23
aS'variable_3'
p24
ag21
aS'struct'
p25
aS'variable_4'
p26
ag9
aS'variable_5'
p27
ag21
aS'unsigned'
p28
aS'int'
p29
aS'variable_6'
p30
ag21
aS'unsigned'
p31
aS'long'
p32
aS'variable_7'
p33
ag21
aS'struct'
p34
aS'variable_8'
p35
ag9
aS'variable_9'
p36
ag18
aS'func_2'
p37
ag6
aS'variable_0'
p38
ag14
ag21
aS'variable_3'
p39
ag18
aS'variable_9'
p40
aS'->'
p41
aS'variable_10'
p42
ag21
aS'variable_11'
p43
ag18
aS'func_3'
p44
ag6
aS'variable_0'
p45
aS'->'
p46
aS'variable_12'
p47
ag11
aS'variable_3'
p48
ag14
ag21
aS'if'
p49
ag6
aS'!'
p50
aS'variable_11'
p51
ag14
aS'variable_7'
p52
ag18
aS'variable_9'
p53
aS'->'
p54
aS'variable_13'
p55
ag21
aS'variable_5'
p56
ag18
ag6
aS'struct'
p57
aS'iso_directory_record'
p58
ag9
ag14
ag6
aS'variable_11'
p59
aS'->'
p60
aS'variable_14'
p61
aS'+'
p62
aS'variable_7'
p63
ag14
ag21
aS'variable_6'
p64
ag18
ag9
ag6
aS'unsigned'
p65
aS'char'
p66
ag9
ag14
aS'variable_5'
p67
ag21
aS'if'
p68
ag6
aS'variable_7'
p69
ag62
aS'variable_6'
p70
aS'>'
p71
aS'variable_2'
p72
ag14
aS'int'
p73
aS'variable_15'
p74
ag18
aS'variable_2'
p75
aS'-'
p76
aS'variable_7'
p77
ag21
aS'memcpy'
p78
ag6
aS'variable_16'
p79
ag11
aS'variable_11'
p80
aS'->'
p81
aS'variable_14'
p82
ag62
aS'variable_7'
p83
ag11
aS'variable_15'
p84
ag14
ag21
aS'memcpy'
p85
ag6
ag6
aS'char'
p86
ag9
ag14
aS'variable_16'
p87
ag62
aS'variable_15'
p88
ag11
aS'variable_11'
p89
aS'->'
p90
aS'variable_14'
p91
ag11
aS'variable_6'
p92
ag76
aS'variable_15'
p93
ag14
ag21
aaa(lp94
I0
aa(lp95
I115
aa(lp96
(lp97
S'main'
p98
aaa(lp99
S'916 /home/SySeVR/data/CVE_2014_5472_PATCHED_isofs_read_inode.c int frag1 = bufsize - offset ; 27'
p100
aa.