(lp0
(lp1
(lp2
S'static'
p3
aS'int'
p4
aS'func_0'
p5
aS'('
p6
aS'struct'
p7
aS'variable_0'
p8
aS'*'
p9
aS'variable_1'
p10
aS','
p11
aS'struct'
p12
aS'variable_2'
p13
ag9
aS'variable_3'
p14
ag11
aS'size_t'
p15
aS'variable_4'
p16
ag11
aS'int'
p17
aS'variable_5'
p18
ag11
aS'int'
p19
aS'variable_6'
p20
ag11
aS'int'
p21
ag9
aS'variable_7'
p22
aS')'
p23
aS'struct'
p24
aS'variable_8'
p25
ag9
aS'variable_9'
p26
aS'='
p27
ag6
aS'struct'
p28
aS'sockaddr_in'
p29
ag9
ag23
aS'variable_10'
p30
aS'->'
p31
aS'variable_11'
p32
aS';'
p33
aS'struct'
p34
aS'variable_12'
p35
ag9
aS'variable_13'
p36
ag33
aS'if'
p37
ag6
aS'variable_6'
p38
aS'&'
p39
aS'variable_14'
p40
ag23
aS'variable_13'
p41
ag27
aS'func_1'
p42
ag6
aS'variable_3'
p43
ag11
aS'variable_6'
p44
ag11
aS'variable_5'
p45
ag11
ag39
aS'variable_15'
p46
ag23
ag33
aS'if'
p47
ag6
aS'!'
p48
aS'variable_13'
p49
ag23
aS'variable_16'
p50
ag27
aS'variable_13'
p51
aS'->'
p52
aS'variable_4'
p53
ag33
aS'if'
p54
ag6
aS'variable_4'
p55
aS'<'
p56
aS'variable_16'
p57
ag23
aS'variable_10'
p58
aS'->'
p59
aS'variable_17'
p60
aS'|'
p61
ag27
aS'variable_18'
p62
ag33
aS'variable_16'
p63
ag27
aS'variable_4'
p64
ag33
aS'variable_15'
p65
ag27
aS'func_2'
p66
ag6
aS'variable_13'
p67
ag11
aS'0'
p68
ag11
aS'variable_10'
p69
aS'->'
p70
aS'variable_19'
p71
ag11
aS'variable_16'
p72
ag23
ag33
aS'if'
p73
ag6
aS'variable_15'
p74
ag23
aS'if'
p75
ag6
aS'variable_9'
p76
ag23
aS'variable_9'
p77
aS'->'
p78
aS'variable_20'
p79
ag27
aS'variable_21'
p80
ag33
aS'variable_9'
p81
aS'->'
p82
aS'variable_22'
p83
aS'.'
p84
aS'variable_23'
p85
ag27
aS'func_3'
p86
ag6
aS'variable_13'
p87
ag23
aS'->'
p88
aS'variable_24'
p89
ag33
aS'variable_9'
p90
aS'->'
p91
aS'variable_25'
p92
ag27
ag68
ag33
aS'memset'
p93
ag6
ag39
aS'variable_9'
p94
aS'->'
p95
aS'variable_26'
p96
ag11
ag68
ag11
aS'sizeof'
p97
ag6
aS'variable_9'
p98
aS'->'
p99
aS'variable_26'
p100
ag23
ag23
ag33
ag9
aS'variable_7'
p101
ag27
aS'sizeof'
p102
ag6
ag9
aS'variable_9'
p103
ag23
ag33
aaa(lp104
I0
aa(lp105
I143
aa(lp106
(lp107
S'main'
p108
aaa(lp109
S'116 /home/SySeVR/data/CVE_2013_7264_PATCHED_l2tp_ip_recvmsg.c memset 34'
p110
aa.