(lp0
(lp1
(lp2
S'func_0'
p3
aS'('
p4
aS'unsigned'
p5
aS'int'
p6
aS'variable_0'
p7
aS','
p8
aS'const'
p9
aS'char'
p10
aS'*'
p11
aS'variable_1'
p12
ag8
aS'const'
p13
aS'struct'
p14
aS'variable_2'
p15
ag11
aS'variable_3'
p16
aS')'
p17
aS'struct'
p18
aS'variable_4'
p19
ag11
aS'variable_5'
p20
aS';'
p21
aS'struct'
p22
aS'variable_4'
p23
ag11
aS'variable_6'
p24
ag21
aS'variable_7'
p25
ag11
aS'variable_8'
p26
ag21
aS'unsigned'
p27
aS'char'
p28
ag11
aS'variable_9'
p29
ag21
aS'int'
p30
aS'variable_10'
p31
ag21
aS'if'
p32
ag4
aS'variable_11'
p33
aS'=='
p34
aS'NULL'
p35
ag17
aS'variable_5'
p36
aS'='
p37
aS'func_1'
p38
ag4
ag17
ag21
aS'if'
p39
ag4
aS'variable_5'
p40
aS'=='
p41
aS'NULL'
p42
ag17
aS'variable_6'
p43
ag37
aS'variable_5'
p44
ag21
aS'variable_5'
p45
aS'->'
p46
aS'variable_12'
p47
ag37
aS'func_2'
p48
ag4
aS'variable_11'
p49
aS'->'
p50
aS'variable_13'
p51
ag17
ag21
aS'variable_5'
p52
aS'->'
p53
aS'variable_14'
p54
ag37
aS'variable_11'
p55
aS'->'
p56
aS'variable_15'
p57
ag21
aS'variable_8'
p58
ag37
ag4
aS'TCONX_REQ'
p59
ag11
ag17
aS'variable_5'
p60
ag21
aS'variable_8'
p61
aS'->'
p62
aS'variable_16'
p63
ag37
aS'0xFF'
p64
ag21
aS'variable_8'
p65
aS'->'
p66
aS'variable_17'
p67
ag37
aS'func_3'
p68
ag4
aS'variable_18'
p69
ag17
ag21
aS'variable_9'
p70
ag37
aS'&'
p71
aS'variable_8'
p72
aS'->'
p73
aS'variable_19'
p74
aS'['
p75
aS'0'
p76
aS']'
p77
ag21
aS'if'
p78
ag4
ag4
aS'variable_11'
p79
aS'->'
p80
aS'variable_13'
p81
aS'->'
p82
aS'variable_20'
p83
ag17
ag71
aS'variable_21'
p84
ag17
ag11
aS'variable_9'
p85
ag37
ag76
ag21
aS'variable_9'
p86
aS'++'
p87
ag21
aS'variable_9'
p88
aS'+='
p89
aS'variable_22'
p90
ag21
aS'if'
p91
ag4
aS'variable_11'
p92
aS'->'
p93
aS'variable_23'
p94
ag71
aS'variable_24'
p95
ag17
ag11
aS'variable_9'
p96
ag37
ag76
ag21
aS'variable_9'
p97
aS'++'
p98
ag21
aS'if'
p99
ag4
aS'variable_11'
p100
aS'->'
p101
aS'variable_13'
p102
aS'->'
p103
aS'variable_20'
p104
ag71
ag4
aS'variable_25'
p105
aS'|'
p106
aS'variable_26'
p107
ag17
ag17
aS'variable_5'
p108
aS'->'
p109
aS'variable_27'
p110
ag106
ag37
aS'variable_28'
p111
ag21
aS'if'
p112
ag4
aS'variable_11'
p113
aS'->'
p114
aS'variable_23'
p115
ag71
aS'variable_29'
p116
ag17
aS'variable_5'
p117
aS'->'
p118
aS'variable_27'
p119
ag106
ag37
aS'variable_30'
p120
ag21
aS'if'
p121
ag4
aS'variable_11'
p122
aS'->'
p123
aS'variable_23'
p124
ag71
aS'variable_31'
p125
ag17
aS'variable_5'
p126
aS'->'
p127
aS'variable_27'
p128
ag106
ag37
aS'variable_32'
p129
ag21
aS'if'
p130
ag4
aS'variable_11'
p131
aS'->'
p132
aS'variable_23'
p133
ag71
aS'variable_24'
p134
ag17
aS'variable_5'
p135
aS'->'
p136
aS'variable_27'
p137
ag106
ag37
aS'variable_33'
p138
ag21
aS'variable_10'
p139
ag37
aS'func_4'
p140
ag4
ag4
aS'__le16'
p141
ag11
ag17
aS'variable_9'
p142
ag8
aS'variable_1'
p143
ag8
aS'6'
p144
ag11
ag4
aS'+'
p145
aS'256'
p146
ag17
ag8
aS'variable_3'
p147
ag17
ag21
aS'variable_9'
p148
aS'+='
p149
aS'2'
p150
ag11
aS'variable_10'
p151
ag21
aS'variable_9'
p152
aS'+='
p153
ag150
ag21
aS'strcpy'
p154
ag4
aS'variable_9'
p155
ag8
aS'variable_1'
p156
ag17
ag21
aS'variable_9'
p157
aS'+='
p158
aS'strlen'
p159
ag4
aS'variable_1'
p160
ag17
ag145
aS'1'
p161
ag21
aS'strcpy'
p162
ag4
aS'variable_9'
p163
ag8
aS'"'
p164
aS'?'
p165
ag165
ag165
ag165
ag165
ag164
ag17
ag21
aS'variable_9'
p166
aS'+='
p167
aS'strlen'
p168
ag4
ag164
ag165
ag165
ag165
ag165
ag165
ag164
ag17
ag21
aS'variable_9'
p169
aS'+='
p170
ag161
ag21
aS'variable_34'
p171
ag37
aS'func_5'
p172
ag4
aS'variable_0'
p173
ag8
aS'variable_11'
p174
ag8
aS'variable_5'
p175
ag8
aS'variable_6'
p176
ag8
ag71
aS'variable_10'
p177
ag8
aS'variable_35'
p178
ag17
ag21
aS'if'
p179
ag4
ag4
aS'variable_34'
p180
aS'=='
p181
ag76
ag17
aS'&&'
p182
ag4
aS'variable_36'
p183
aS'!='
p184
aS'NULL'
p185
ag17
ag17
aS'variable_9'
p186
ag37
aS'func_6'
p187
ag4
aS'variable_6'
p188
ag17
ag21
aS'variable_10'
p189
ag37
aS'func_7'
p190
ag4
aS'variable_9'
p191
ag8
aS'func_8'
p192
ag4
aS'variable_6'
p193
ag17
aS'-'
p194
ag150
ag17
ag21
aS'variable_9'
p195
aS'+='
p196
aS'variable_10'
p197
ag145
ag161
ag21
aS'if'
p198
ag4
aS'variable_5'
p199
aS'->'
p200
aS'variable_27'
p201
ag71
aS'variable_33'
p202
ag17
aS'variable_10'
p203
ag37
aS'func_9'
p204
ag4
aS'variable_9'
p205
ag8
aS'1024'
p206
ag17
ag21
aS'if'
p207
ag4
ag4
aS'variable_9'
p208
ag145
aS'variable_10'
p209
ag17
ag194
aS'func_10'
p210
ag4
aS'variable_6'
p211
ag17
aS'<'
p212
ag37
aS'func_11'
p213
ag4
aS'variable_6'
p214
ag17
ag17
aS'variable_36'
p215
aS'->'
p216
aS'variable_37'
p217
ag37
aS'func_12'
p218
ag4
aS'variable_10'
p219
ag145
ag161
ag8
aS'variable_38'
p220
ag17
ag21
aS'if'
p221
ag4
aS'variable_36'
p222
aS'->'
p223
aS'variable_37'
p224
ag17
aS'strncpy'
p225
ag4
aS'variable_36'
p226
aS'->'
p227
aS'variable_37'
p228
ag8
aS'variable_9'
p229
ag8
aS'variable_10'
p230
ag17
ag21
aS'variable_36'
p231
aS'->'
p232
aS'variable_17'
p233
ag37
aS'func_13'
p234
ag4
aS'variable_39'
p235
aS'->'
p236
aS'variable_40'
p237
ag17
ag21
aS'func_14'
p238
ag4
ag161
ag8
ag4
ag164
aS'Tcon'
p239
aS'flags'
p240
aS':'
p241
aS'0x'
p242
aS'%'
p243
aS'x'
p244
ag164
ag8
aS'variable_36'
p245
aS'->'
p246
aS'variable_17'
p247
ag17
ag17
ag21
aa(lp248
S'func_0'
p249
ag4
aS'unsigned'
p250
aS'int'
p251
aS'variable_0'
p252
ag8
aS'const'
p253
aS'char'
p254
ag11
aS'variable_1'
p255
ag8
aS'const'
p256
aS'struct'
p257
aS'variable_2'
p258
ag11
aS'variable_3'
p259
ag17
aS'struct'
p260
aS'variable_4'
p261
ag11
aS'variable_5'
p262
ag21
aS'struct'
p263
aS'variable_4'
p264
ag11
aS'variable_6'
p265
ag21
aS'variable_7'
p266
ag11
aS'variable_8'
p267
ag21
aS'unsigned'
p268
aS'char'
p269
ag11
aS'variable_9'
p270
ag21
aS'int'
p271
aS'variable_10'
p272
ag21
aS'if'
p273
ag4
aS'variable_11'
p274
aS'=='
p275
aS'NULL'
p276
ag17
aS'variable_5'
p277
ag37
aS'func_1'
p278
ag4
ag17
ag21
aS'if'
p279
ag4
aS'variable_5'
p280
aS'=='
p281
aS'NULL'
p282
ag17
aS'variable_6'
p283
ag37
aS'variable_5'
p284
ag21
aS'variable_5'
p285
aS'->'
p286
aS'variable_12'
p287
ag37
aS'func_2'
p288
ag4
aS'variable_11'
p289
aS'->'
p290
aS'variable_13'
p291
ag17
ag21
aS'variable_5'
p292
aS'->'
p293
aS'variable_14'
p294
ag37
aS'variable_11'
p295
aS'->'
p296
aS'variable_15'
p297
ag21
aS'variable_8'
p298
ag37
ag4
aS'TCONX_REQ'
p299
ag11
ag17
aS'variable_5'
p300
ag21
aS'variable_8'
p301
aS'->'
p302
aS'variable_16'
p303
ag37
aS'0xFF'
p304
ag21
aS'variable_8'
p305
aS'->'
p306
aS'variable_17'
p307
ag37
aS'func_3'
p308
ag4
aS'variable_18'
p309
ag17
ag21
aS'variable_9'
p310
ag37
ag71
aS'variable_8'
p311
aS'->'
p312
aS'variable_19'
p313
ag75
ag76
ag77
ag21
aS'if'
p314
ag4
ag4
aS'variable_11'
p315
aS'->'
p316
aS'variable_13'
p317
aS'->'
p318
aS'variable_20'
p319
ag17
ag71
aS'variable_21'
p320
ag17
ag11
aS'variable_9'
p321
ag37
ag76
ag21
aS'variable_9'
p322
aS'++'
p323
ag21
aS'variable_9'
p324
aS'+='
p325
aS'variable_22'
p326
ag21
aS'if'
p327
ag4
aS'variable_11'
p328
aS'->'
p329
aS'variable_23'
p330
ag71
aS'variable_24'
p331
ag17
ag11
aS'variable_9'
p332
ag37
ag76
ag21
aS'variable_9'
p333
aS'++'
p334
ag21
aS'if'
p335
ag4
aS'variable_11'
p336
aS'->'
p337
aS'variable_13'
p338
aS'->'
p339
aS'variable_20'
p340
ag71
ag4
aS'variable_25'
p341
ag106
aS'variable_26'
p342
ag17
ag17
aS'variable_5'
p343
aS'->'
p344
aS'variable_27'
p345
ag106
ag37
aS'variable_28'
p346
ag21
aS'if'
p347
ag4
aS'variable_11'
p348
aS'->'
p349
aS'variable_23'
p350
ag71
aS'variable_29'
p351
ag17
aS'variable_5'
p352
aS'->'
p353
aS'variable_27'
p354
ag106
ag37
aS'variable_30'
p355
ag21
aS'if'
p356
ag4
aS'variable_11'
p357
aS'->'
p358
aS'variable_23'
p359
ag71
aS'variable_31'
p360
ag17
aS'variable_5'
p361
aS'->'
p362
aS'variable_27'
p363
ag106
ag37
aS'variable_32'
p364
ag21
aS'if'
p365
ag4
aS'variable_11'
p366
aS'->'
p367
aS'variable_23'
p368
ag71
aS'variable_24'
p369
ag17
aS'variable_5'
p370
aS'->'
p371
aS'variable_27'
p372
ag106
ag37
aS'variable_33'
p373
ag21
aS'variable_10'
p374
ag37
aS'func_4'
p375
ag4
ag4
aS'__le16'
p376
ag11
ag17
aS'variable_9'
p377
ag8
aS'variable_1'
p378
ag8
ag144
ag11
ag4
ag145
aS'256'
p379
ag17
ag8
aS'variable_3'
p380
ag17
ag21
aS'variable_9'
p381
aS'+='
p382
ag150
ag11
aS'variable_10'
p383
ag21
aS'variable_9'
p384
aS'+='
p385
ag150
ag21
aS'strcpy'
p386
ag4
aS'variable_9'
p387
ag8
aS'variable_1'
p388
ag17
ag21
aS'variable_9'
p389
aS'+='
p390
aS'strlen'
p391
ag4
aS'variable_1'
p392
ag17
ag145
ag161
ag21
aS'strcpy'
p393
ag4
aS'variable_9'
p394
ag8
ag164
ag165
ag165
ag165
ag165
ag165
ag164
ag17
ag21
aS'variable_9'
p395
aS'+='
p396
aS'strlen'
p397
ag4
ag164
ag165
ag165
ag165
ag165
ag165
ag164
ag17
ag21
aS'variable_9'
p398
aS'+='
p399
ag161
ag21
aS'variable_34'
p400
ag37
aS'func_5'
p401
ag4
aS'variable_0'
p402
ag8
aS'variable_11'
p403
ag8
aS'variable_5'
p404
ag8
aS'variable_6'
p405
ag8
ag71
aS'variable_10'
p406
ag8
aS'variable_35'
p407
ag17
ag21
aS'if'
p408
ag4
ag4
aS'variable_34'
p409
aS'=='
p410
ag76
ag17
aS'&&'
p411
ag4
aS'variable_36'
p412
aS'!='
p413
aS'NULL'
p414
ag17
ag17
aS'variable_36'
p415
aS'->'
p416
aS'variable_37'
p417
ag37
aS'variable_38'
p418
ag21
aS'variable_36'
p419
aS'->'
p420
aS'variable_39'
p421
ag37
aS'false'
p422
ag21
aS'variable_36'
p423
aS'->'
p424
aS'variable_40'
p425
ag37
aS'variable_6'
p426
aS'->'
p427
aS'variable_41'
p428
ag21
aS'variable_9'
p429
ag37
aS'func_6'
p430
ag4
aS'variable_6'
p431
ag17
ag21
aS'variable_10'
p432
ag37
aS'func_7'
p433
ag4
aS'variable_9'
p434
ag8
aS'func_8'
p435
ag4
aS'variable_6'
p436
ag17
ag194
ag150
ag17
ag21
aS'if'
p437
ag4
aS'variable_10'
p438
aS'=='
p439
aS'3'
p440
ag17
aS'if'
p441
ag4
ag4
aS'variable_9'
p442
ag75
ag76
ag77
aS'=='
p443
aS"'"
p444
aS'I'
p445
ag444
ag17
aS'&&'
p446
ag4
aS'variable_9'
p447
ag75
ag161
ag77
aS'=='
p448
ag444
aS'P'
p449
ag444
ag17
aS'&&'
p450
ag4
aS'variable_9'
p451
ag75
ag150
ag77
aS'=='
p452
ag444
aS'C'
p453
ag444
ag17
ag17
aS'variable_36'
p454
aS'->'
p455
aS'variable_42'
p456
ag37
ag161
ag21
aS'strncpy'
p457
ag4
aS'variable_36'
p458
aS'->'
p459
aS'variable_43'
p460
ag8
aS'variable_1'
p461
ag8
aS'variable_44'
p462
ag17
ag21
aS'kfree'
p463
ag4
aS'variable_36'
p464
aS'->'
p465
aS'variable_45'
p466
ag17
ag21
aS'variable_36'
p467
aS'->'
p468
aS'variable_45'
p469
ag37
aS'func_9'
p470
ag4
ag150
ag11
ag4
aS'variable_10'
p471
ag145
ag161
ag17
ag8
aS'variable_46'
p472
ag17
ag21
aS'if'
p473
ag4
aS'variable_36'
p474
aS'->'
p475
aS'variable_45'
p476
ag17
aS'func_10'
p477
ag4
aS'variable_36'
p478
aS'->'
p479
aS'variable_45'
p480
ag8
ag4
aS'__le16'
p481
ag11
ag17
aS'variable_9'
p482
ag8
aS'variable_10'
p483
ag8
aS'variable_3'
p484
ag17
ag21
aaa(lp485
I0
aI0
aa(lp486
I412
aI419
aa(lp487
(lp488
S'main'
p489
aa(lp490
g489
aaa(lp491
S'347 /home/SySeVR/data/CVE_2009_1439_PATCHED_CIFSTCon.c strncpy 151'
p492
aS'348 /home/SySeVR/data/CVE_2009_1439_PATCHED_CIFSTCon.c strncpy 122'
p493
aa.