(lp0
(lp1
(lp2
S'static'
p3
aS'int'
p4
aS'func_0'
p5
aS'('
p6
aS'void'
p7
aS'*'
p8
aS'variable_0'
p9
aS','
p10
aS'variable_1'
p11
ag8
aS'variable_2'
p12
aS')'
p13
aS'PNGDecContext'
p14
ag8
aS'const'
p15
aS'variable_3'
p16
aS'='
p17
aS'variable_4'
p18
aS'->'
p19
aS'variable_5'
p20
ag8
aS'variable_6'
p21
aS';'
p22
aS'uint32_t'
p23
aS'variable_7'
p24
ag10
aS'variable_8'
p25
ag22
aS'int64_t'
p26
aS'variable_9'
p27
ag22
aS'int'
p28
aS'variable_10'
p29
ag22
aS'variable_6'
p30
ag17
aS'variable_3'
p31
aS'->'
p32
aS'variable_11'
p33
aS'.'
p34
aS'variable_12'
p35
ag22
aS'variable_9'
p36
ag17
aS'func_1'
p37
ag6
aS'&'
p38
aS'variable_3'
p39
aS'->'
p40
aS'variable_13'
p41
ag13
ag22
aS'if'
p42
ag6
aS'variable_9'
p43
aS'!='
p44
aS'variable_14'
p45
aS'&&'
p46
aS'variable_9'
p47
aS'!='
p48
aS'variable_15'
p49
ag13
aS'variable_3'
p50
aS'->'
p51
aS'variable_16'
p52
ag17
aS'variable_3'
p53
aS'->'
p54
aS'variable_17'
p55
ag17
aS'0'
p56
ag22
aS'variable_3'
p57
aS'->'
p58
aS'variable_18'
p59
ag34
aS'variable_19'
p60
ag17
aS'variable_20'
p61
ag22
aS'variable_3'
p62
aS'->'
p63
aS'variable_18'
p64
ag34
aS'variable_21'
p65
ag17
aS'variable_22'
p66
ag22
aS'variable_3'
p67
aS'->'
p68
aS'variable_18'
p69
ag34
aS'variable_23'
p70
ag17
aS'NULL'
p71
ag22
aS'variable_10'
p72
ag17
aS'func_2'
p73
ag6
ag38
aS'variable_3'
p74
aS'->'
p75
aS'variable_18'
p76
ag13
ag22
aS'if'
p77
ag6
aS'variable_10'
p78
aS'!='
p79
aS'variable_24'
p80
ag13
aS'if'
p81
ag6
aS'func_3'
p82
ag6
ag38
aS'variable_3'
p83
aS'->'
p84
aS'variable_13'
p85
ag13
aS'<'
p86
ag17
ag56
ag13
aS'variable_8'
p87
ag17
aS'func_4'
p88
ag6
ag38
aS'variable_3'
p89
aS'->'
p90
aS'variable_13'
p91
ag13
ag22
aS'if'
p92
ag6
aS'variable_8'
p93
aS'>'
p94
aS'0x7fffffff'
p95
aS'||'
p96
aS'variable_8'
p97
ag94
aS'func_5'
p98
ag6
ag38
aS'variable_3'
p99
aS'->'
p100
aS'variable_13'
p101
ag13
ag13
aS'if'
p102
ag6
aS'variable_8'
p103
aS'!='
p104
aS'13'
p105
ag13
aS'variable_3'
p106
aS'->'
p107
aS'variable_25'
p108
ag17
aS'func_6'
p109
ag6
ag38
aS'variable_3'
p110
aS'->'
p111
aS'variable_13'
p112
ag13
ag22
aS'variable_3'
p113
aS'->'
p114
aS'variable_26'
p115
ag17
aS'func_7'
p116
ag6
ag38
aS'variable_3'
p117
aS'->'
p118
aS'variable_13'
p119
ag13
ag22
aS'if'
p120
ag6
aS'func_8'
p121
ag6
aS'variable_3'
p122
aS'->'
p123
aS'variable_25'
p124
ag10
aS'variable_3'
p125
aS'->'
p126
aS'variable_26'
p127
ag10
ag56
ag10
aS'variable_4'
p128
ag13
ag13
aS'variable_3'
p129
aS'->'
p130
aS'variable_27'
p131
ag17
aS'func_9'
p132
ag6
ag38
aS'variable_3'
p133
aS'->'
p134
aS'variable_13'
p135
ag13
ag22
aS'variable_3'
p136
aS'->'
p137
aS'variable_28'
p138
ag17
aS'func_10'
p139
ag6
ag38
aS'variable_3'
p140
aS'->'
p141
aS'variable_13'
p142
ag13
ag22
aS'variable_3'
p143
aS'->'
p144
aS'variable_29'
p145
ag17
aS'func_11'
p146
ag6
ag38
aS'variable_3'
p147
aS'->'
p148
aS'variable_13'
p149
ag13
ag22
aS'variable_3'
p150
aS'->'
p151
aS'variable_30'
p152
ag17
aS'func_12'
p153
ag6
ag38
aS'variable_3'
p154
aS'->'
p155
aS'variable_13'
p156
ag13
ag22
aS'variable_3'
p157
aS'->'
p158
aS'variable_31'
p159
ag17
aS'func_13'
p160
ag6
ag38
aS'variable_3'
p161
aS'->'
p162
aS'variable_13'
p163
ag13
ag22
aS'variable_3'
p164
aS'->'
p165
aS'variable_17'
p166
aS'|'
p167
ag17
aS'variable_32'
p168
ag22
aS'if'
p169
ag6
aS'variable_3'
p170
aS'->'
p171
aS'variable_17'
p172
ag38
aS'variable_33'
p173
ag13
aS'variable_4'
p174
aS'->'
p175
aS'variable_34'
p176
ag34
aS'variable_35'
p177
ag17
aS'func_14'
p178
ag6
ag38
aS'variable_3'
p179
aS'->'
p180
aS'variable_13'
p181
ag13
ag22
aS'variable_4'
p182
aS'->'
p183
aS'variable_34'
p184
ag34
aS'variable_36'
p185
ag17
aS'func_15'
p186
ag6
ag38
aS'variable_3'
p187
aS'->'
p188
aS'variable_13'
p189
ag13
ag22
aS'if'
p190
ag6
aS'variable_4'
p191
aS'->'
p192
aS'variable_34'
p193
ag34
aS'variable_35'
p194
ag86
ag56
aS'||'
p195
aS'variable_4'
p196
aS'->'
p197
aS'variable_34'
p198
ag34
aS'variable_36'
p199
ag86
ag56
ag13
aS'variable_4'
p200
aS'->'
p201
aS'variable_34'
p202
ag17
ag6
aS'variable_37'
p203
ag13
ag56
ag10
aS'if'
p204
ag6
aS'!'
p205
ag6
aS'variable_3'
p206
aS'->'
p207
aS'variable_17'
p208
ag38
aS'variable_32'
p209
ag13
ag13
aS'if'
p210
ag6
ag205
ag6
aS'variable_3'
p211
aS'->'
p212
aS'variable_17'
p213
ag38
aS'variable_33'
p214
ag13
ag13
aS'variable_4'
p215
aS'->'
p216
aS'variable_25'
p217
ag17
aS'variable_3'
p218
aS'->'
p219
aS'variable_25'
p220
ag22
aS'variable_4'
p221
aS'->'
p222
aS'variable_26'
p223
ag17
aS'variable_3'
p224
aS'->'
p225
aS'variable_26'
p226
ag22
aS'variable_3'
p227
aS'->'
p228
aS'variable_38'
p229
ag17
aS'func_16'
p230
ag6
aS'variable_3'
p231
aS'->'
p232
aS'variable_28'
p233
ag13
ag22
aS'variable_3'
p234
aS'->'
p235
aS'variable_39'
p236
ag17
aS'variable_3'
p237
aS'->'
p238
aS'variable_27'
p239
ag8
aS'variable_3'
p240
aS'->'
p241
aS'variable_38'
p242
ag22
aS'variable_3'
p243
aS'->'
p244
aS'variable_40'
p245
ag17
ag6
aS'variable_3'
p246
aS'->'
p247
aS'variable_39'
p248
aS'+'
p249
aS'7'
p250
ag13
aS'>>'
p251
aS'3'
p252
ag22
aS'variable_3'
p253
aS'->'
p254
aS'variable_41'
p255
ag17
ag6
aS'variable_4'
p256
aS'->'
p257
aS'variable_25'
p258
ag8
aS'variable_3'
p259
aS'->'
p260
aS'variable_39'
p261
ag249
ag250
ag13
aS'>>'
p262
ag252
ag22
aS'if'
p263
ag6
ag6
aS'variable_3'
p264
aS'->'
p265
aS'variable_27'
p266
aS'=='
p267
aS'2'
p268
aS'||'
p269
aS'variable_3'
p270
aS'->'
p271
aS'variable_27'
p272
aS'=='
p273
aS'4'
p274
aS'||'
p275
aS'variable_3'
p276
aS'->'
p277
aS'variable_27'
p278
aS'=='
p279
aS'8'
p280
ag13
aS'&&'
p281
aS'variable_3'
p282
aS'->'
p283
aS'variable_28'
p284
aS'=='
p285
aS'variable_42'
p286
ag13
aS'variable_4'
p287
aS'->'
p288
aS'variable_43'
p289
ag17
aS'variable_44'
p290
ag22
aS'if'
p291
ag6
ag6
aS'variable_3'
p292
aS'->'
p293
aS'variable_27'
p294
aS'=='
p295
ag268
aS'||'
p296
aS'variable_3'
p297
aS'->'
p298
aS'variable_27'
p299
aS'=='
p300
ag274
aS'||'
p301
aS'variable_3'
p302
aS'->'
p303
aS'variable_27'
p304
aS'=='
p305
ag280
ag13
aS'&&'
p306
aS'variable_3'
p307
aS'->'
p308
aS'variable_28'
p309
aS'=='
p310
aS'variable_45'
p311
ag13
aS'variable_4'
p312
aS'->'
p313
aS'variable_43'
p314
ag17
aS'variable_46'
p315
ag22
aS'if'
p316
ag6
ag6
aS'variable_3'
p317
aS'->'
p318
aS'variable_27'
p319
aS'=='
p320
ag268
aS'||'
p321
aS'variable_3'
p322
aS'->'
p323
aS'variable_27'
p324
aS'=='
p325
ag274
aS'||'
p326
aS'variable_3'
p327
aS'->'
p328
aS'variable_27'
p329
aS'=='
p330
ag280
ag13
aS'&&'
p331
aS'variable_3'
p332
aS'->'
p333
aS'variable_28'
p334
aS'=='
p335
aS'variable_47'
p336
ag13
aS'variable_4'
p337
aS'->'
p338
aS'variable_43'
p339
ag17
aS'variable_48'
p340
ag22
aS'if'
p341
ag6
aS'variable_3'
p342
aS'->'
p343
aS'variable_27'
p344
aS'=='
p345
aS'16'
p346
aS'&&'
p347
aS'variable_3'
p348
aS'->'
p349
aS'variable_28'
p350
aS'=='
p351
aS'variable_47'
p352
ag13
aS'variable_4'
p353
aS'->'
p354
aS'variable_43'
p355
ag17
aS'variable_49'
p356
ag22
aS'if'
p357
ag6
aS'variable_3'
p358
aS'->'
p359
aS'variable_27'
p360
aS'=='
p361
aS'16'
p362
aS'&&'
p363
aS'variable_3'
p364
aS'->'
p365
aS'variable_28'
p366
aS'=='
p367
aS'variable_42'
p368
ag13
aS'variable_4'
p369
aS'->'
p370
aS'variable_43'
p371
ag17
aS'variable_50'
p372
ag22
aS'if'
p373
ag6
aS'variable_3'
p374
aS'->'
p375
aS'variable_27'
p376
aS'=='
p377
aS'16'
p378
aS'&&'
p379
aS'variable_3'
p380
aS'->'
p381
aS'variable_28'
p382
aS'=='
p383
aS'variable_45'
p384
ag13
aS'variable_4'
p385
aS'->'
p386
aS'variable_43'
p387
ag17
aS'variable_51'
p388
ag22
aS'if'
p389
ag6
ag6
aS'variable_3'
p390
aS'->'
p391
aS'variable_39'
p392
aS'=='
p393
aS'1'
p394
aS'||'
p395
aS'variable_3'
p396
aS'->'
p397
aS'variable_39'
p398
aS'=='
p399
ag268
aS'||'
p400
aS'variable_3'
p401
aS'->'
p402
aS'variable_39'
p403
aS'=='
p404
ag274
aS'||'
p405
aS'variable_3'
p406
aS'->'
p407
aS'variable_39'
p408
aS'=='
p409
ag280
ag13
aS'&&'
p410
aS'variable_3'
p411
aS'->'
p412
aS'variable_28'
p413
aS'=='
p414
aS'variable_52'
p415
ag13
aS'variable_4'
p416
aS'->'
p417
aS'variable_43'
p418
ag17
aS'variable_53'
p419
ag22
aS'if'
p420
ag6
aS'variable_3'
p421
aS'->'
p422
aS'variable_27'
p423
aS'=='
p424
ag394
ag13
aS'variable_4'
p425
aS'->'
p426
aS'variable_43'
p427
ag17
aS'variable_54'
p428
ag22
aS'if'
p429
ag6
aS'variable_3'
p430
aS'->'
p431
aS'variable_27'
p432
aS'=='
p433
ag280
aS'&&'
p434
aS'variable_3'
p435
aS'->'
p436
aS'variable_28'
p437
aS'=='
p438
aS'variable_55'
p439
ag13
aS'variable_4'
p440
aS'->'
p441
aS'variable_43'
p442
ag17
aS'variable_56'
p443
ag22
aS'if'
p444
ag6
aS'variable_3'
p445
aS'->'
p446
aS'variable_27'
p447
aS'=='
p448
aS'16'
p449
aS'&&'
p450
aS'variable_3'
p451
aS'->'
p452
aS'variable_28'
p453
aS'=='
p454
aS'variable_55'
p455
ag13
aS'variable_4'
p456
aS'->'
p457
aS'variable_43'
p458
ag17
aS'variable_57'
p459
ag22
aS'if'
p460
ag6
aS'func_17'
p461
ag6
aS'variable_4'
p462
ag10
ag38
aS'variable_3'
p463
aS'->'
p464
aS'variable_11'
p465
ag10
aS'variable_58'
p466
ag13
ag86
ag56
ag13
aS'variable_6'
p467
aS'->'
p468
aS'variable_59'
p469
ag17
aS'variable_60'
p470
ag22
aS'variable_6'
p471
aS'->'
p472
aS'variable_61'
p473
ag17
ag394
ag22
aS'variable_6'
p474
aS'->'
p475
aS'variable_62'
p476
ag17
ag205
ag205
aS'variable_3'
p477
aS'->'
p478
aS'variable_31'
p479
ag22
aS'if'
p480
ag6
ag205
aS'variable_3'
p481
aS'->'
p482
aS'variable_31'
p483
ag13
aS'variable_3'
p484
aS'->'
p485
aS'variable_63'
p486
ag17
aS'variable_3'
p487
aS'->'
p488
aS'variable_41'
p489
ag249
ag394
ag22
aS'variable_3'
p490
aS'->'
p491
aS'variable_64'
p492
ag17
ag56
ag22
aS'variable_3'
p493
aS'->'
p494
aS'variable_65'
p495
ag17
aS'func_18'
p496
ag6
aS'variable_3'
p497
aS'->'
p498
aS'variable_64'
p499
ag10
aS'variable_3'
p500
aS'->'
p501
aS'variable_39'
p502
ag10
aS'variable_3'
p503
aS'->'
p504
aS'variable_25'
p505
ag13
ag22
aS'variable_3'
p506
aS'->'
p507
aS'variable_63'
p508
ag17
aS'variable_3'
p509
aS'->'
p510
aS'variable_65'
p511
ag249
ag394
ag22
aS'variable_3'
p512
aS'->'
p513
aS'variable_66'
p514
ag17
aS'variable_6'
p515
aS'->'
p516
aS'variable_0'
p517
aS'['
p518
ag56
aS']'
p519
ag22
aS'variable_3'
p520
aS'->'
p521
aS'variable_67'
p522
ag17
aS'variable_6'
p523
aS'->'
p524
aS'variable_68'
p525
ag518
ag56
ag519
ag22
aS'if'
p526
ag6
aS'variable_4'
p527
aS'->'
p528
aS'variable_43'
p529
aS'=='
p530
aS'variable_53'
p531
ag13
aS'memcpy'
p532
ag6
aS'variable_6'
p533
aS'->'
p534
aS'variable_0'
p535
ag518
ag394
ag519
ag10
aS'variable_3'
p536
aS'->'
p537
aS'variable_69'
p538
ag10
aS'256'
p539
ag8
aS'sizeof'
p540
ag6
aS'variable_70'
p541
ag13
ag13
ag22
aS'if'
p542
ag6
ag205
aS'variable_3'
p543
aS'->'
p544
aS'variable_71'
p545
ag13
aS'if'
p546
ag6
aS'variable_3'
p547
aS'->'
p548
aS'variable_31'
p549
aS'||'
p550
aS'variable_3'
p551
aS'->'
p552
aS'variable_28'
p553
aS'=='
p554
aS'variable_45'
p555
ag13
aS'if'
p556
ag6
ag205
aS'variable_3'
p557
aS'->'
p558
aS'variable_72'
p559
ag13
aS'if'
p560
ag6
ag205
aS'variable_3'
p561
aS'->'
p562
aS'variable_73'
p563
ag13
aS'variable_3'
p564
aS'->'
p565
aS'variable_74'
p566
ag17
aS'variable_3'
p567
aS'->'
p568
aS'variable_73'
p569
ag249
aS'15'
p570
ag22
aS'variable_3'
p571
aS'->'
p572
aS'variable_18'
p573
ag34
aS'variable_75'
p574
ag17
aS'variable_3'
p575
aS'->'
p576
aS'variable_63'
p577
ag22
aS'variable_3'
p578
aS'->'
p579
aS'variable_18'
p580
ag34
aS'variable_76'
p581
ag17
aS'variable_3'
p582
aS'->'
p583
aS'variable_74'
p584
ag22
aS'variable_3'
p585
aS'->'
p586
aS'variable_17'
p587
ag167
ag17
aS'variable_33'
p588
ag22
aS'if'
p589
ag6
aS'func_19'
p590
ag6
aS'variable_3'
p591
ag10
aS'variable_8'
p592
ag13
ag86
ag56
ag13
aaa(lp593
I1
aa(lp594
I796
aa(lp595
(lp596
S'main'
p597
aaa(lp598
S'586 /home/SySeVR/data/CVE_2014_8545_VULN_decode_frame.c memcpy 171'
p599
aa.