(lp0
(lp1
(lp2
S'static'
p3
aS'int'
p4
aS'func_0'
p5
aS'('
p6
aS'void'
p7
aS'*'
p8
aS'variable_0'
p9
aS','
p10
aS'variable_1'
p11
ag8
aS'variable_2'
p12
aS')'
p13
aS'PNGDecContext'
p14
ag8
aS'const'
p15
aS'variable_3'
p16
aS'='
p17
aS'variable_4'
p18
aS'->'
p19
aS'variable_5'
p20
ag8
aS'variable_6'
p21
aS';'
p22
aS'uint32_t'
p23
aS'variable_7'
p24
ag10
aS'variable_8'
p25
ag22
aS'int64_t'
p26
aS'variable_9'
p27
ag22
aS'int'
p28
aS'variable_10'
p29
ag22
aS'variable_6'
p30
ag17
aS'variable_3'
p31
aS'->'
p32
aS'variable_11'
p33
aS'.'
p34
aS'variable_12'
p35
ag22
aS'variable_9'
p36
ag17
aS'func_1'
p37
ag6
aS'&'
p38
aS'variable_3'
p39
aS'->'
p40
aS'variable_13'
p41
ag13
ag22
aS'if'
p42
ag6
aS'variable_9'
p43
aS'!='
p44
aS'variable_14'
p45
aS'&&'
p46
aS'variable_9'
p47
aS'!='
p48
aS'variable_15'
p49
ag13
aS'variable_3'
p50
aS'->'
p51
aS'variable_16'
p52
ag17
aS'variable_3'
p53
aS'->'
p54
aS'variable_17'
p55
ag17
aS'0'
p56
ag22
aS'variable_3'
p57
aS'->'
p58
aS'variable_18'
p59
ag34
aS'variable_19'
p60
ag17
aS'variable_20'
p61
ag22
aS'variable_3'
p62
aS'->'
p63
aS'variable_18'
p64
ag34
aS'variable_21'
p65
ag17
aS'variable_22'
p66
ag22
aS'variable_3'
p67
aS'->'
p68
aS'variable_18'
p69
ag34
aS'variable_23'
p70
ag17
aS'NULL'
p71
ag22
aS'variable_10'
p72
ag17
aS'func_2'
p73
ag6
ag38
aS'variable_3'
p74
aS'->'
p75
aS'variable_18'
p76
ag13
ag22
aS'if'
p77
ag6
aS'variable_10'
p78
aS'!='
p79
aS'variable_24'
p80
ag13
aS'if'
p81
ag6
aS'func_3'
p82
ag6
ag38
aS'variable_3'
p83
aS'->'
p84
aS'variable_13'
p85
ag13
aS'<'
p86
ag17
ag56
ag13
aS'if'
p87
ag6
aS'variable_3'
p88
aS'->'
p89
aS'variable_17'
p90
ag38
aS'variable_25'
p91
aS'&&'
p92
aS'variable_4'
p93
aS'->'
p94
aS'variable_26'
p95
ag86
ag17
aS'variable_27'
p96
ag13
aS'variable_8'
p97
ag17
aS'func_4'
p98
ag6
ag38
aS'variable_3'
p99
aS'->'
p100
aS'variable_13'
p101
ag13
ag22
aS'if'
p102
ag6
aS'variable_8'
p103
aS'>'
p104
aS'0x7fffffff'
p105
aS'||'
p106
aS'variable_8'
p107
ag104
aS'func_5'
p108
ag6
ag38
aS'variable_3'
p109
aS'->'
p110
aS'variable_13'
p111
ag13
ag13
aS'if'
p112
ag6
aS'variable_8'
p113
aS'!='
p114
aS'13'
p115
ag13
aS'variable_3'
p116
aS'->'
p117
aS'variable_28'
p118
ag17
aS'func_6'
p119
ag6
ag38
aS'variable_3'
p120
aS'->'
p121
aS'variable_13'
p122
ag13
ag22
aS'variable_3'
p123
aS'->'
p124
aS'variable_29'
p125
ag17
aS'func_7'
p126
ag6
ag38
aS'variable_3'
p127
aS'->'
p128
aS'variable_13'
p129
ag13
ag22
aS'if'
p130
ag6
aS'func_8'
p131
ag6
aS'variable_3'
p132
aS'->'
p133
aS'variable_28'
p134
ag10
aS'variable_3'
p135
aS'->'
p136
aS'variable_29'
p137
ag10
ag56
ag10
aS'variable_4'
p138
ag13
ag13
aS'variable_3'
p139
aS'->'
p140
aS'variable_30'
p141
ag17
aS'func_9'
p142
ag6
ag38
aS'variable_3'
p143
aS'->'
p144
aS'variable_13'
p145
ag13
ag22
aS'variable_3'
p146
aS'->'
p147
aS'variable_31'
p148
ag17
aS'func_10'
p149
ag6
ag38
aS'variable_3'
p150
aS'->'
p151
aS'variable_13'
p152
ag13
ag22
aS'variable_3'
p153
aS'->'
p154
aS'variable_32'
p155
ag17
aS'func_11'
p156
ag6
ag38
aS'variable_3'
p157
aS'->'
p158
aS'variable_13'
p159
ag13
ag22
aS'variable_3'
p160
aS'->'
p161
aS'variable_33'
p162
ag17
aS'func_12'
p163
ag6
ag38
aS'variable_3'
p164
aS'->'
p165
aS'variable_13'
p166
ag13
ag22
aS'variable_3'
p167
aS'->'
p168
aS'variable_34'
p169
ag17
aS'func_13'
p170
ag6
ag38
aS'variable_3'
p171
aS'->'
p172
aS'variable_13'
p173
ag13
ag22
aS'variable_3'
p174
aS'->'
p175
aS'variable_17'
p176
aS'|'
p177
ag17
aS'variable_35'
p178
ag22
aS'if'
p179
ag6
aS'variable_3'
p180
aS'->'
p181
aS'variable_17'
p182
ag38
aS'variable_36'
p183
ag13
aS'variable_4'
p184
aS'->'
p185
aS'variable_37'
p186
ag34
aS'variable_38'
p187
ag17
aS'func_14'
p188
ag6
ag38
aS'variable_3'
p189
aS'->'
p190
aS'variable_13'
p191
ag13
ag22
aS'variable_4'
p192
aS'->'
p193
aS'variable_37'
p194
ag34
aS'variable_39'
p195
ag17
aS'func_15'
p196
ag6
ag38
aS'variable_3'
p197
aS'->'
p198
aS'variable_13'
p199
ag13
ag22
aS'if'
p200
ag6
aS'variable_4'
p201
aS'->'
p202
aS'variable_37'
p203
ag34
aS'variable_38'
p204
ag86
ag56
aS'||'
p205
aS'variable_4'
p206
aS'->'
p207
aS'variable_37'
p208
ag34
aS'variable_39'
p209
ag86
ag56
ag13
aS'variable_4'
p210
aS'->'
p211
aS'variable_37'
p212
ag17
ag6
aS'variable_40'
p213
ag13
ag56
ag10
aS'if'
p214
ag6
aS'!'
p215
ag6
aS'variable_3'
p216
aS'->'
p217
aS'variable_17'
p218
ag38
aS'variable_35'
p219
ag13
ag13
aS'if'
p220
ag6
ag215
ag6
aS'variable_3'
p221
aS'->'
p222
aS'variable_17'
p223
ag38
aS'variable_36'
p224
ag13
ag13
aS'variable_4'
p225
aS'->'
p226
aS'variable_28'
p227
ag17
aS'variable_3'
p228
aS'->'
p229
aS'variable_28'
p230
ag22
aS'variable_4'
p231
aS'->'
p232
aS'variable_29'
p233
ag17
aS'variable_3'
p234
aS'->'
p235
aS'variable_29'
p236
ag22
aS'variable_3'
p237
aS'->'
p238
aS'variable_41'
p239
ag17
aS'func_16'
p240
ag6
aS'variable_3'
p241
aS'->'
p242
aS'variable_31'
p243
ag13
ag22
aS'variable_3'
p244
aS'->'
p245
aS'variable_42'
p246
ag17
aS'variable_3'
p247
aS'->'
p248
aS'variable_30'
p249
ag8
aS'variable_3'
p250
aS'->'
p251
aS'variable_41'
p252
ag22
aS'variable_3'
p253
aS'->'
p254
aS'variable_43'
p255
ag17
ag6
aS'variable_3'
p256
aS'->'
p257
aS'variable_42'
p258
aS'+'
p259
aS'7'
p260
ag13
aS'>>'
p261
aS'3'
p262
ag22
aS'variable_3'
p263
aS'->'
p264
aS'variable_44'
p265
ag17
ag6
aS'variable_4'
p266
aS'->'
p267
aS'variable_28'
p268
ag8
aS'variable_3'
p269
aS'->'
p270
aS'variable_42'
p271
ag259
ag260
ag13
aS'>>'
p272
ag262
ag22
aS'if'
p273
ag6
ag6
aS'variable_3'
p274
aS'->'
p275
aS'variable_30'
p276
aS'=='
p277
aS'2'
p278
aS'||'
p279
aS'variable_3'
p280
aS'->'
p281
aS'variable_30'
p282
aS'=='
p283
aS'4'
p284
aS'||'
p285
aS'variable_3'
p286
aS'->'
p287
aS'variable_30'
p288
aS'=='
p289
aS'8'
p290
ag13
aS'&&'
p291
aS'variable_3'
p292
aS'->'
p293
aS'variable_31'
p294
aS'=='
p295
aS'variable_45'
p296
ag13
aS'if'
p297
ag6
ag6
aS'variable_3'
p298
aS'->'
p299
aS'variable_30'
p300
aS'=='
p301
ag278
aS'||'
p302
aS'variable_3'
p303
aS'->'
p304
aS'variable_30'
p305
aS'=='
p306
ag284
aS'||'
p307
aS'variable_3'
p308
aS'->'
p309
aS'variable_30'
p310
aS'=='
p311
ag290
ag13
aS'&&'
p312
aS'variable_3'
p313
aS'->'
p314
aS'variable_31'
p315
aS'=='
p316
aS'variable_46'
p317
ag13
aS'if'
p318
ag6
ag6
aS'variable_3'
p319
aS'->'
p320
aS'variable_30'
p321
aS'=='
p322
ag278
aS'||'
p323
aS'variable_3'
p324
aS'->'
p325
aS'variable_30'
p326
aS'=='
p327
ag284
aS'||'
p328
aS'variable_3'
p329
aS'->'
p330
aS'variable_30'
p331
aS'=='
p332
ag290
ag13
aS'&&'
p333
aS'variable_3'
p334
aS'->'
p335
aS'variable_31'
p336
aS'=='
p337
aS'variable_47'
p338
ag13
aS'if'
p339
ag6
aS'variable_3'
p340
aS'->'
p341
aS'variable_30'
p342
aS'=='
p343
aS'16'
p344
aS'&&'
p345
aS'variable_3'
p346
aS'->'
p347
aS'variable_31'
p348
aS'=='
p349
aS'variable_47'
p350
ag13
aS'if'
p351
ag6
aS'variable_3'
p352
aS'->'
p353
aS'variable_30'
p354
aS'=='
p355
aS'16'
p356
aS'&&'
p357
aS'variable_3'
p358
aS'->'
p359
aS'variable_31'
p360
aS'=='
p361
aS'variable_45'
p362
ag13
aS'if'
p363
ag6
aS'variable_3'
p364
aS'->'
p365
aS'variable_30'
p366
aS'=='
p367
aS'16'
p368
aS'&&'
p369
aS'variable_3'
p370
aS'->'
p371
aS'variable_31'
p372
aS'=='
p373
aS'variable_46'
p374
ag13
aS'if'
p375
ag6
ag6
aS'variable_3'
p376
aS'->'
p377
aS'variable_42'
p378
aS'=='
p379
aS'1'
p380
aS'||'
p381
aS'variable_3'
p382
aS'->'
p383
aS'variable_42'
p384
aS'=='
p385
ag278
aS'||'
p386
aS'variable_3'
p387
aS'->'
p388
aS'variable_42'
p389
aS'=='
p390
ag284
aS'||'
p391
aS'variable_3'
p392
aS'->'
p393
aS'variable_42'
p394
aS'=='
p395
ag290
ag13
aS'&&'
p396
aS'variable_3'
p397
aS'->'
p398
aS'variable_31'
p399
aS'=='
p400
aS'variable_48'
p401
ag13
aS'if'
p402
ag6
aS'variable_3'
p403
aS'->'
p404
aS'variable_30'
p405
aS'=='
p406
ag380
ag13
aS'if'
p407
ag6
aS'variable_3'
p408
aS'->'
p409
aS'variable_30'
p410
aS'=='
p411
ag290
aS'&&'
p412
aS'variable_3'
p413
aS'->'
p414
aS'variable_31'
p415
aS'=='
p416
aS'variable_49'
p417
ag13
aS'if'
p418
ag6
aS'variable_3'
p419
aS'->'
p420
aS'variable_30'
p421
aS'=='
p422
aS'16'
p423
aS'&&'
p424
aS'variable_3'
p425
aS'->'
p426
aS'variable_31'
p427
aS'=='
p428
aS'variable_49'
p429
ag13
aS'variable_4'
p430
aS'->'
p431
aS'variable_50'
p432
ag17
aS'variable_51'
p433
ag22
aS'func_17'
p434
ag6
aS'variable_4'
p435
ag10
aS'variable_52'
p436
ag10
aS'"'
p437
aS'and'
p438
aS'color'
p439
aS'type'
p440
aS'%'
p441
aS'd'
p442
aS'\\'
p443
aS'n'
p444
ag437
aS'variable_3'
p445
aS'->'
p446
aS'variable_30'
p447
ag10
aS'variable_3'
p448
aS'->'
p449
aS'variable_31'
p450
ag13
aS'if'
p451
ag6
aS'func_18'
p452
ag6
aS'variable_4'
p453
ag10
ag38
aS'variable_3'
p454
aS'->'
p455
aS'variable_11'
p456
ag10
aS'variable_53'
p457
ag13
ag86
ag56
ag13
aS'variable_6'
p458
aS'->'
p459
aS'variable_54'
p460
ag17
aS'variable_55'
p461
ag22
aS'variable_6'
p462
aS'->'
p463
aS'variable_56'
p464
ag17
ag380
ag22
aS'variable_6'
p465
aS'->'
p466
aS'variable_57'
p467
ag17
ag215
ag215
aS'variable_3'
p468
aS'->'
p469
aS'variable_34'
p470
ag22
aS'if'
p471
ag6
ag215
aS'variable_3'
p472
aS'->'
p473
aS'variable_34'
p474
ag13
aS'variable_3'
p475
aS'->'
p476
aS'variable_58'
p477
ag17
aS'variable_3'
p478
aS'->'
p479
aS'variable_44'
p480
ag259
ag380
ag22
aS'variable_3'
p481
aS'->'
p482
aS'variable_59'
p483
ag17
ag56
ag22
aS'variable_3'
p484
aS'->'
p485
aS'variable_60'
p486
ag17
aS'func_19'
p487
ag6
aS'variable_3'
p488
aS'->'
p489
aS'variable_59'
p490
ag10
aS'variable_3'
p491
aS'->'
p492
aS'variable_42'
p493
ag10
aS'variable_3'
p494
aS'->'
p495
aS'variable_28'
p496
ag13
ag22
aS'variable_3'
p497
aS'->'
p498
aS'variable_58'
p499
ag17
aS'variable_3'
p500
aS'->'
p501
aS'variable_60'
p502
ag259
ag380
ag22
aS'func_20'
p503
ag6
aS'variable_4'
p504
ag10
ag437
aS'row_size'
p505
ag17
ag441
ag442
aS'crow_size'
p506
ag17
ag441
ag442
ag443
ag444
ag437
ag10
aS'variable_3'
p507
aS'->'
p508
aS'variable_44'
p509
ag10
aS'variable_3'
p510
aS'->'
p511
aS'variable_58'
p512
ag13
ag22
aS'variable_3'
p513
aS'->'
p514
aS'variable_61'
p515
ag17
aS'variable_6'
p516
aS'->'
p517
aS'variable_0'
p518
aS'['
p519
ag56
aS']'
p520
ag22
aS'variable_3'
p521
aS'->'
p522
aS'variable_62'
p523
ag17
aS'variable_6'
p524
aS'->'
p525
aS'variable_63'
p526
ag519
ag56
ag520
ag22
aS'memcpy'
p527
ag6
aS'variable_6'
p528
aS'->'
p529
aS'variable_0'
p530
ag519
ag380
ag520
ag10
aS'variable_3'
p531
aS'->'
p532
aS'variable_64'
p533
ag10
aS'256'
p534
ag8
aS'sizeof'
p535
ag6
aS'variable_65'
p536
ag13
ag13
ag22
aS'func_21'
p537
ag6
ag38
aS'variable_3'
p538
aS'->'
p539
aS'variable_66'
p540
ag10
ag38
aS'variable_3'
p541
aS'->'
p542
aS'variable_67'
p543
ag10
aS'variable_3'
p544
aS'->'
p545
aS'variable_44'
p546
ag13
ag22
aS'if'
p547
ag6
ag215
aS'variable_3'
p548
aS'->'
p549
aS'variable_66'
p550
ag13
aS'if'
p551
ag6
aS'variable_3'
p552
aS'->'
p553
aS'variable_34'
p554
aS'||'
p555
aS'variable_3'
p556
aS'->'
p557
aS'variable_31'
p558
aS'=='
p559
aS'variable_46'
p560
ag13
aS'func_22'
p561
ag6
ag38
aS'variable_3'
p562
aS'->'
p563
aS'variable_68'
p564
ag10
ag38
aS'variable_3'
p565
aS'->'
p566
aS'variable_69'
p567
ag10
aS'variable_3'
p568
aS'->'
p569
aS'variable_44'
p570
ag13
ag22
aS'if'
p571
ag6
ag215
aS'variable_3'
p572
aS'->'
p573
aS'variable_68'
p574
ag13
aS'func_23'
p575
ag6
ag38
aS'variable_3'
p576
aS'->'
p577
aS'variable_70'
p578
ag10
ag38
aS'variable_3'
p579
aS'->'
p580
aS'variable_71'
p581
ag10
aS'variable_3'
p582
aS'->'
p583
aS'variable_44'
p584
ag259
aS'16'
p585
ag13
ag22
aS'if'
p586
ag6
ag215
aS'variable_3'
p587
aS'->'
p588
aS'variable_70'
p589
ag13
aS'variable_3'
p590
aS'->'
p591
aS'variable_72'
p592
ag17
aS'variable_3'
p593
aS'->'
p594
aS'variable_70'
p595
ag259
aS'15'
p596
ag22
aS'variable_3'
p597
aS'->'
p598
aS'variable_18'
p599
ag34
aS'variable_73'
p600
ag17
aS'variable_3'
p601
aS'->'
p602
aS'variable_58'
p603
ag22
aS'variable_3'
p604
aS'->'
p605
aS'variable_18'
p606
ag34
aS'variable_74'
p607
ag17
aS'variable_3'
p608
aS'->'
p609
aS'variable_72'
p610
ag22
aS'variable_3'
p611
aS'->'
p612
aS'variable_17'
p613
ag177
ag17
aS'variable_36'
p614
ag22
aS'if'
p615
ag6
aS'func_24'
p616
ag6
aS'variable_3'
p617
ag10
aS'variable_8'
p618
ag13
ag86
ag56
ag13
aS'func_25'
p619
ag6
ag38
aS'variable_3'
p620
aS'->'
p621
aS'variable_13'
p622
ag10
ag284
ag13
ag22
aS'variable_75'
p623
ag17
aS'func_26'
p624
ag6
ag38
aS'variable_3'
p625
aS'->'
p626
aS'variable_13'
p627
ag13
ag22
aS'variable_76'
p628
ag17
aS'func_27'
p629
ag6
ag38
aS'variable_3'
p630
aS'->'
p631
aS'variable_13'
p632
ag13
ag22
aS'variable_77'
p633
ag17
aS'func_28'
p634
ag6
ag38
aS'variable_3'
p635
aS'->'
p636
aS'variable_13'
p637
ag13
ag22
aS'variable_3'
p638
aS'->'
p639
aS'variable_64'
p640
ag519
aS'variable_78'
p641
ag520
ag17
ag6
aS'0xFFU'
p642
aS'<<'
p643
aS'24'
p644
ag13
ag177
ag6
aS'variable_75'
p645
aS'<<'
p646
aS'16'
p647
ag13
ag177
ag6
aS'variable_76'
p648
aS'<<'
p649
ag290
ag13
ag177
aS'variable_77'
p650
ag22
aS'for'
p651
ag6
ag22
aS'variable_78'
p652
ag86
aS'256'
p653
ag22
aS'variable_78'
p654
aS'++'
p655
ag13
aS'variable_3'
p656
aS'->'
p657
aS'variable_64'
p658
ag519
aS'variable_78'
p659
ag520
ag17
ag6
aS'0xFFU'
p660
aS'<<'
p661
aS'24'
p662
ag13
ag22
aS'variable_3'
p663
aS'->'
p664
aS'variable_17'
p665
ag177
ag17
aS'variable_79'
p666
ag22
aS'func_29'
p667
ag6
ag38
aS'variable_3'
p668
aS'->'
p669
aS'variable_13'
p670
ag10
ag284
ag13
ag22
aS'if'
p671
ag6
aS'variable_3'
p672
aS'->'
p673
aS'variable_31'
p674
aS'!='
p675
aS'variable_48'
p676
aS'||'
p677
aS'variable_8'
p678
ag104
aS'256'
p679
aS'||'
p680
ag215
ag6
aS'variable_3'
p681
aS'->'
p682
aS'variable_17'
p683
ag38
aS'variable_79'
p684
ag13
ag13
aS'for'
p685
ag6
aS'variable_78'
p686
ag17
ag56
ag22
aS'variable_78'
p687
ag86
aS'variable_8'
p688
ag22
aS'variable_78'
p689
aS'++'
p690
ag13
aS'variable_80'
p691
ag17
aS'func_30'
p692
ag6
ag38
aS'variable_3'
p693
aS'->'
p694
aS'variable_13'
p695
ag13
ag22
aS'variable_3'
p696
aS'->'
p697
aS'variable_64'
p698
ag519
aS'variable_78'
p699
ag520
ag17
ag6
aS'variable_3'
p700
aS'->'
p701
aS'variable_64'
p702
ag519
aS'variable_78'
p703
ag520
ag38
aS'0x00ffffff'
p704
ag13
ag177
ag6
aS'variable_80'
p705
aS'<<'
p706
aS'24'
p707
ag13
ag22
aS'func_31'
p708
ag6
ag38
aS'variable_3'
p709
aS'->'
p710
aS'variable_13'
p711
ag10
ag284
ag13
ag22
aS'if'
p712
ag6
aS'func_32'
p713
ag6
aS'variable_3'
p714
ag10
aS'variable_8'
p715
ag10
ag56
ag10
ag38
aS'variable_81'
p716
ag13
ag86
ag56
ag13
aS'if'
p717
ag6
aS'func_33'
p718
ag6
aS'variable_3'
p719
ag10
aS'variable_8'
p720
ag10
ag380
ag10
ag38
aS'variable_81'
p721
ag13
ag86
ag56
ag13
aS'if'
p722
ag6
ag215
ag6
aS'variable_3'
p723
aS'->'
p724
aS'variable_17'
p725
ag38
aS'variable_25'
p726
ag13
ag13
aS'if'
p727
ag6
ag215
ag6
aS'variable_3'
p728
aS'->'
p729
aS'variable_17'
p730
ag38
ag6
aS'variable_25'
p731
ag177
aS'variable_36'
p732
ag13
ag13
ag13
aS'func_34'
p733
ag6
ag38
aS'variable_3'
p734
aS'->'
p735
aS'variable_13'
p736
ag10
ag284
ag13
ag22
aS'func_35'
p737
ag6
ag38
aS'variable_3'
p738
aS'->'
p739
aS'variable_13'
p740
ag10
aS'variable_8'
p741
ag259
ag284
ag13
ag22
aS'if'
p742
ag6
aS'variable_3'
p743
aS'->'
p744
aS'variable_42'
p745
aS'=='
p746
ag380
aS'&&'
p747
aS'variable_3'
p748
aS'->'
p749
aS'variable_31'
p750
aS'=='
p751
aS'variable_48'
p752
ag13
aS'variable_82'
p753
ag8
aS'variable_83'
p754
ag17
aS'variable_6'
p755
aS'->'
p756
aS'variable_0'
p757
ag519
ag56
ag520
ag22
aS'for'
p758
ag6
aS'variable_84'
p759
ag17
ag56
ag22
aS'variable_84'
p760
ag86
aS'variable_3'
p761
aS'->'
p762
aS'variable_29'
p763
ag22
aS'variable_84'
p764
aS'++'
p765
ag13
aS'variable_78'
p766
ag17
aS'variable_3'
p767
aS'->'
p768
aS'variable_28'
p769
aS'/'
p770
ag290
ag22
aS'if'
p771
ag6
ag6
aS'variable_3'
p772
aS'->'
p773
aS'variable_28'
p774
ag38
ag260
ag13
ag104
ag17
aS'variable_85'
p775
ag13
aS'variable_83'
p776
ag519
ag290
ag8
aS'variable_78'
p777
ag259
aS'variable_85'
p778
aS'-'
p779
ag380
ag520
ag17
ag6
aS'variable_83'
p780
ag519
aS'variable_78'
p781
ag520
aS'>>'
p782
ag290
ag779
aS'variable_85'
p783
ag13
ag38
ag380
ag22
aS'for'
p784
ag6
aS'variable_78'
p785
aS'--'
p786
ag22
aS'variable_78'
p787
ag104
ag17
ag56
ag22
aS'variable_78'
p788
aS'--'
p789
ag13
aS'variable_83'
p790
ag519
ag290
ag8
aS'variable_78'
p791
ag259
ag260
ag520
ag17
aS'variable_83'
p792
ag519
aS'variable_78'
p793
ag520
ag38
ag380
ag22
aS'variable_83'
p794
ag519
ag290
ag8
aS'variable_78'
p795
ag259
aS'6'
p796
ag520
ag17
ag6
aS'variable_83'
p797
ag519
aS'variable_78'
p798
ag520
aS'>>'
p799
ag380
ag13
ag38
ag380
ag22
aS'variable_83'
p800
ag519
ag290
ag8
aS'variable_78'
p801
ag259
aS'5'
p802
ag520
ag17
ag6
aS'variable_83'
p803
ag519
aS'variable_78'
p804
ag520
aS'>>'
p805
ag278
ag13
ag38
ag380
ag22
aS'variable_83'
p806
ag519
ag290
ag8
aS'variable_78'
p807
ag259
ag284
ag520
ag17
ag6
aS'variable_83'
p808
ag519
aS'variable_78'
p809
ag520
aS'>>'
p810
ag262
ag13
ag38
ag380
ag22
aS'variable_83'
p811
ag519
ag290
ag8
aS'variable_78'
p812
ag259
ag262
ag520
ag17
ag6
aS'variable_83'
p813
ag519
aS'variable_78'
p814
ag520
aS'>>'
p815
ag284
ag13
ag38
ag380
ag22
aS'variable_83'
p816
ag519
ag290
ag8
aS'variable_78'
p817
ag259
ag278
ag520
ag17
ag6
aS'variable_83'
p818
ag519
aS'variable_78'
p819
ag520
aS'>>'
p820
ag802
ag13
ag38
ag380
ag22
aS'variable_83'
p821
ag519
ag290
ag8
aS'variable_78'
p822
ag259
ag380
ag520
ag17
ag6
aS'variable_83'
p823
ag519
aS'variable_78'
p824
ag520
aS'>>'
p825
ag796
ag13
ag38
ag380
ag22
aS'variable_83'
p826
ag519
ag290
ag8
aS'variable_78'
p827
ag259
ag56
ag520
ag17
aS'variable_83'
p828
ag519
aS'variable_78'
p829
ag520
aS'>>'
p830
ag260
ag22
aS'variable_83'
p831
aS'+='
p832
aS'variable_3'
p833
aS'->'
p834
aS'variable_62'
p835
ag22
aS'if'
p836
ag6
aS'variable_3'
p837
aS'->'
p838
aS'variable_42'
p839
aS'=='
p840
ag278
ag13
aS'variable_82'
p841
ag8
aS'variable_83'
p842
ag17
aS'variable_6'
p843
aS'->'
p844
aS'variable_0'
p845
ag519
ag56
ag520
ag22
aS'for'
p846
ag6
aS'variable_84'
p847
ag17
ag56
ag22
aS'variable_84'
p848
ag86
aS'variable_3'
p849
aS'->'
p850
aS'variable_29'
p851
ag22
aS'variable_84'
p852
aS'++'
p853
ag13
aS'variable_78'
p854
ag17
aS'variable_3'
p855
aS'->'
p856
aS'variable_28'
p857
ag770
ag284
ag22
aS'if'
p858
ag6
aS'variable_3'
p859
aS'->'
p860
aS'variable_31'
p861
aS'=='
p862
aS'variable_48'
p863
ag13
aS'if'
p864
ag6
ag6
aS'variable_3'
p865
aS'->'
p866
aS'variable_28'
p867
ag38
ag262
ag13
ag104
ag17
ag262
ag13
aS'variable_83'
p868
ag519
ag284
ag8
aS'variable_78'
p869
ag259
ag278
ag520
ag17
ag6
aS'variable_83'
p870
ag519
aS'variable_78'
p871
ag520
aS'>>'
p872
ag278
ag13
ag38
ag262
ag22
aS'if'
p873
ag6
ag6
aS'variable_3'
p874
aS'->'
p875
aS'variable_28'
p876
ag38
ag262
ag13
ag104
ag17
ag278
ag13
aS'variable_83'
p877
ag519
ag284
ag8
aS'variable_78'
p878
ag259
ag380
ag520
ag17
ag6
aS'variable_83'
p879
ag519
aS'variable_78'
p880
ag520
aS'>>'
p881
ag284
ag13
ag38
ag262
ag22
aS'if'
p882
ag6
ag6
aS'variable_3'
p883
aS'->'
p884
aS'variable_28'
p885
ag38
ag262
ag13
ag104
ag17
ag380
ag13
aS'variable_83'
p886
ag519
ag284
ag8
aS'variable_78'
p887
ag259
ag56
ag520
ag17
aS'variable_83'
p888
ag519
aS'variable_78'
p889
ag520
aS'>>'
p890
ag796
ag22
aS'for'
p891
ag6
aS'variable_78'
p892
aS'--'
p893
ag22
aS'variable_78'
p894
ag104
ag17
ag56
ag22
aS'variable_78'
p895
aS'--'
p896
ag13
aS'variable_83'
p897
ag519
ag284
ag8
aS'variable_78'
p898
ag259
ag262
ag520
ag17
aS'variable_83'
p899
ag519
aS'variable_78'
p900
ag520
ag38
ag262
ag22
aS'variable_83'
p901
ag519
ag284
ag8
aS'variable_78'
p902
ag259
ag278
ag520
ag17
ag6
aS'variable_83'
p903
ag519
aS'variable_78'
p904
ag520
aS'>>'
p905
ag278
ag13
ag38
ag262
ag22
aS'variable_83'
p906
ag519
ag284
ag8
aS'variable_78'
p907
ag259
ag380
ag520
ag17
ag6
aS'variable_83'
p908
ag519
aS'variable_78'
p909
ag520
aS'>>'
p910
ag284
ag13
ag38
ag262
ag22
aS'variable_83'
p911
ag519
ag284
ag8
aS'variable_78'
p912
ag259
ag56
ag520
ag17
aS'variable_83'
p913
ag519
aS'variable_78'
p914
ag520
aS'>>'
p915
ag796
ag22
aS'if'
p916
ag6
ag6
aS'variable_3'
p917
aS'->'
p918
aS'variable_28'
p919
ag38
ag262
ag13
ag104
ag17
ag262
ag13
aS'variable_83'
p920
ag519
ag284
ag8
aS'variable_78'
p921
ag259
ag278
ag520
ag17
ag6
ag6
aS'variable_83'
p922
ag519
aS'variable_78'
p923
ag520
aS'>>'
p924
ag278
ag13
ag38
ag262
ag13
ag8
aS'0x55'
p925
ag22
aS'if'
p926
ag6
ag6
aS'variable_3'
p927
aS'->'
p928
aS'variable_28'
p929
ag38
ag262
ag13
ag104
ag17
ag278
ag13
aS'variable_83'
p930
ag519
ag284
ag8
aS'variable_78'
p931
ag259
ag380
ag520
ag17
ag6
ag6
aS'variable_83'
p932
ag519
aS'variable_78'
p933
ag520
aS'>>'
p934
ag284
ag13
ag38
ag262
ag13
ag8
aS'0x55'
p935
ag22
aS'if'
p936
ag6
ag6
aS'variable_3'
p937
aS'->'
p938
aS'variable_28'
p939
ag38
ag262
ag13
ag104
ag17
ag380
ag13
aS'variable_83'
p940
ag519
ag284
ag8
aS'variable_78'
p941
ag259
ag56
ag520
ag17
ag6
aS'variable_83'
p942
ag519
aS'variable_78'
p943
ag520
aS'>>'
p944
ag796
ag13
ag8
aS'0x55'
p945
ag22
aS'for'
p946
ag6
aS'variable_78'
p947
aS'--'
p948
ag22
aS'variable_78'
p949
ag104
ag17
ag56
ag22
aS'variable_78'
p950
aS'--'
p951
ag13
aS'variable_83'
p952
ag519
ag284
ag8
aS'variable_78'
p953
ag259
ag262
ag520
ag17
ag6
aS'variable_83'
p954
ag519
aS'variable_78'
p955
ag520
ag38
ag262
ag13
ag8
aS'0x55'
p956
ag22
aS'variable_83'
p957
ag519
ag284
ag8
aS'variable_78'
p958
ag259
ag278
ag520
ag17
ag6
ag6
aS'variable_83'
p959
ag519
aS'variable_78'
p960
ag520
aS'>>'
p961
ag278
ag13
ag38
ag262
ag13
ag8
aS'0x55'
p962
ag22
aS'variable_83'
p963
ag519
ag284
ag8
aS'variable_78'
p964
ag259
ag380
ag520
ag17
ag6
ag6
aS'variable_83'
p965
ag519
aS'variable_78'
p966
ag520
aS'>>'
p967
ag284
ag13
ag38
ag262
ag13
ag8
aS'0x55'
p968
ag22
aS'variable_83'
p969
ag519
ag284
ag8
aS'variable_78'
p970
ag259
ag56
ag520
ag17
ag6
aS'variable_83'
p971
ag519
aS'variable_78'
p972
ag520
aS'>>'
p973
ag796
ag13
ag8
aS'0x55'
p974
ag22
aS'variable_83'
p975
aS'+='
p976
aS'variable_3'
p977
aS'->'
p978
aS'variable_62'
p979
ag22
aS'if'
p980
ag6
aS'variable_3'
p981
aS'->'
p982
aS'variable_42'
p983
aS'=='
p984
ag284
ag13
aS'variable_82'
p985
ag8
aS'variable_83'
p986
ag17
aS'variable_6'
p987
aS'->'
p988
aS'variable_0'
p989
ag519
ag56
ag520
ag22
aS'for'
p990
ag6
aS'variable_84'
p991
ag17
ag56
ag22
aS'variable_84'
p992
ag86
aS'variable_3'
p993
aS'->'
p994
aS'variable_29'
p995
ag22
aS'variable_84'
p996
aS'++'
p997
ag13
aS'variable_78'
p998
ag17
aS'variable_3'
p999
aS'->'
p1000
aS'variable_28'
p1001
ag770
ag278
ag22
aS'if'
p1002
ag6
aS'variable_3'
p1003
aS'->'
p1004
aS'variable_31'
p1005
aS'=='
p1006
aS'variable_48'
p1007
ag13
aS'if'
p1008
ag6
aS'variable_3'
p1009
aS'->'
p1010
aS'variable_28'
p1011
ag38
ag380
ag13
aS'variable_83'
p1012
ag519
ag278
ag8
aS'variable_78'
p1013
ag259
ag56
ag520
ag17
aS'variable_83'
p1014
ag519
aS'variable_78'
p1015
ag520
aS'>>'
p1016
ag284
ag22
aS'for'
p1017
ag6
aS'variable_78'
p1018
aS'--'
p1019
ag22
aS'variable_78'
p1020
ag104
ag17
ag56
ag22
aS'variable_78'
p1021
aS'--'
p1022
ag13
aS'variable_83'
p1023
ag519
ag278
ag8
aS'variable_78'
p1024
ag259
ag380
ag520
ag17
aS'variable_83'
p1025
ag519
aS'variable_78'
p1026
ag520
ag38
aS'15'
p1027
ag22
aS'variable_83'
p1028
ag519
ag278
ag8
aS'variable_78'
p1029
ag259
ag56
ag520
ag17
aS'variable_83'
p1030
ag519
aS'variable_78'
p1031
ag520
aS'>>'
p1032
ag284
ag22
aS'if'
p1033
ag6
aS'variable_3'
p1034
aS'->'
p1035
aS'variable_28'
p1036
ag38
ag380
ag13
aS'variable_83'
p1037
ag519
ag278
ag8
aS'variable_78'
p1038
ag259
ag56
ag520
ag17
ag6
aS'variable_83'
p1039
ag519
aS'variable_78'
p1040
ag520
aS'>>'
p1041
ag284
ag13
ag8
aS'0x11'
p1042
ag22
aS'for'
p1043
ag6
aS'variable_78'
p1044
aS'--'
p1045
ag22
aS'variable_78'
p1046
ag104
ag17
ag56
ag22
aS'variable_78'
p1047
aS'--'
p1048
ag13
aS'variable_83'
p1049
ag519
ag278
ag8
aS'variable_78'
p1050
ag259
ag380
ag520
ag17
ag6
aS'variable_83'
p1051
ag519
aS'variable_78'
p1052
ag520
ag38
aS'15'
p1053
ag13
ag8
aS'0x11'
p1054
ag22
aS'variable_83'
p1055
ag519
ag278
ag8
aS'variable_78'
p1056
ag259
ag56
ag520
ag17
ag6
aS'variable_83'
p1057
ag519
aS'variable_78'
p1058
ag520
aS'>>'
p1059
ag284
ag13
ag8
aS'0x11'
p1060
ag22
aS'variable_83'
p1061
aS'+='
p1062
aS'variable_3'
p1063
aS'->'
p1064
aS'variable_62'
p1065
ag22
aS'if'
p1066
ag6
aS'variable_3'
p1067
aS'->'
p1068
aS'variable_86'
p1069
ag34
aS'variable_12'
p1070
aS'->'
p1071
aS'variable_0'
p1072
ag519
ag56
ag520
ag13
aS'if'
p1073
ag6
ag215
ag6
aS'variable_2'
p1074
aS'->'
p1075
aS'variable_87'
p1076
ag38
aS'variable_88'
p1077
ag13
aS'&&'
p1078
aS'variable_4'
p1079
aS'->'
p1080
aS'variable_89'
p1081
aS'!='
p1082
aS'func_36'
p1083
ag6
ag437
aS'MPNG'
p1084
ag437
ag13
aS'&&'
p1085
aS'variable_3'
p1086
aS'->'
p1087
aS'variable_86'
p1088
ag34
aS'variable_12'
p1089
aS'->'
p1090
aS'variable_28'
p1091
aS'=='
p1092
aS'variable_6'
p1093
aS'->'
p1094
aS'variable_28'
p1095
aS'&&'
p1096
aS'variable_3'
p1097
aS'->'
p1098
aS'variable_86'
p1099
ag34
aS'variable_12'
p1100
aS'->'
p1101
aS'variable_29'
p1102
aS'=='
p1103
aS'variable_6'
p1104
aS'->'
p1105
aS'variable_29'
p1106
aS'&&'
p1107
aS'variable_3'
p1108
aS'->'
p1109
aS'variable_86'
p1110
ag34
aS'variable_12'
p1111
aS'->'
p1112
aS'variable_90'
p1113
aS'=='
p1114
aS'variable_6'
p1115
aS'->'
p1116
aS'variable_90'
p1117
ag13
aS'variable_82'
p1118
ag8
aS'variable_83'
p1119
ag17
aS'variable_6'
p1120
aS'->'
p1121
aS'variable_0'
p1122
ag519
ag56
ag520
ag22
aS'variable_82'
p1123
ag8
aS'variable_91'
p1124
ag17
aS'variable_3'
p1125
aS'->'
p1126
aS'variable_86'
p1127
ag34
aS'variable_12'
p1128
aS'->'
p1129
aS'variable_0'
p1130
ag519
ag56
ag520
ag22
aS'func_37'
p1131
ag6
ag38
aS'variable_3'
p1132
aS'->'
p1133
aS'variable_86'
p1134
ag10
aS'variable_92'
p1135
ag10
ag56
ag13
ag22
aS'for'
p1136
ag6
aS'variable_84'
p1137
ag17
ag56
ag22
aS'variable_84'
p1138
ag86
aS'variable_3'
p1139
aS'->'
p1140
aS'variable_29'
p1141
ag22
aS'variable_84'
p1142
aS'++'
p1143
ag13
aS'for'
p1144
ag6
aS'variable_78'
p1145
ag17
ag56
ag22
aS'variable_78'
p1146
ag86
aS'variable_3'
p1147
aS'->'
p1148
aS'variable_28'
p1149
ag8
aS'variable_3'
p1150
aS'->'
p1151
aS'variable_43'
p1152
ag22
aS'variable_78'
p1153
aS'++'
p1154
ag13
aS'variable_83'
p1155
ag519
aS'variable_78'
p1156
ag520
aS'+='
p1157
aS'variable_91'
p1158
ag519
aS'variable_78'
p1159
ag520
ag22
aS'variable_83'
p1160
aS'+='
p1161
aS'variable_3'
p1162
aS'->'
p1163
aS'variable_62'
p1164
ag22
aS'variable_91'
p1165
aS'+='
p1166
aS'variable_3'
p1167
aS'->'
p1168
aS'variable_62'
p1169
ag22
aS'func_38'
p1170
ag6
ag38
aS'variable_3'
p1171
aS'->'
p1172
aS'variable_11'
p1173
ag10
aS'variable_92'
p1174
ag10
ag56
ag13
ag22
aS'if'
p1175
ag6
ag6
aS'variable_10'
p1176
ag17
aS'func_39'
p1177
ag6
aS'variable_0'
p1178
ag10
aS'variable_3'
p1179
aS'->'
p1180
aS'variable_11'
p1181
ag34
aS'variable_12'
p1182
ag13
ag13
ag86
ag56
ag13
aS'return'
p1183
aS'variable_10'
p1184
ag22
aS'variable_10'
p1185
ag17
aS'func_40'
p1186
ag6
ag38
aS'variable_3'
p1187
aS'->'
p1188
aS'variable_13'
p1189
ag13
ag22
aS'func_41'
p1190
ag6
ag38
aS'variable_3'
p1191
aS'->'
p1192
aS'variable_18'
p1193
ag13
ag22
aS'variable_3'
p1194
aS'->'
p1195
aS'variable_72'
p1196
ag17
aS'NULL'
p1197
ag22
aS'return'
p1198
aS'variable_10'
p1199
ag22
aS'func_42'
p1200
ag6
ag38
aS'variable_3'
p1201
aS'->'
p1202
aS'variable_11'
p1203
ag10
aS'variable_92'
p1204
ag10
ag56
ag13
ag22
aaa(lp1205
I1
aa(lp1206
I432
aa(lp1207
(lp1208
S'main'
p1209
aaa(lp1210
S'637 /home/SySeVR/data/CVE_2014_8545_VULN_decode_frame.c s -> row_size = ( avctx -> width * s -> bits_per_pixel + 7 ) >> 3 109'
p1211
aa.