(lp0
(lp1
(lp2
S'static'
p3
aS'variable_0'
p4
aS'*'
p5
aS'func_0'
p6
aS'('
p7
aS'variable_0'
p8
ag5
aS'variable_1'
p9
aS','
p10
aS'int'
p11
aS'variable_2'
p12
ag10
aS'variable_3'
p13
ag5
aS'variable_4'
p14
ag10
aS'variable_5'
p15
ag5
aS'variable_6'
p16
aS')'
p17
aS'int'
p18
aS'variable_7'
p19
ag10
aS'variable_8'
p20
aS';'
p21
aS'int'
p22
aS'variable_9'
p23
aS'='
p24
aS'func_1'
p25
ag7
aS'variable_1'
p26
ag17
aS'-'
p27
aS'1'
p28
ag21
aS'variable_10'
p29
ag5
aS'variable_11'
p30
ag10
ag5
aS'variable_12'
p31
ag10
ag5
aS'variable_13'
p32
ag10
ag5
aS'variable_14'
p33
ag10
aS'variable_15'
p34
ag24
aS'0'
p35
ag21
aS'guint16'
p36
aS'variable_16'
p37
ag10
aS'variable_17'
p38
ag21
aS'guint8'
p39
aS'variable_18'
p40
aS'['
p41
aS'variable_19'
p42
aS']'
p43
ag21
aS'variable_20'
p44
ag5
aS'variable_21'
p45
ag21
aS'variable_22'
p46
ag24
aS'func_2'
p47
ag7
aS'variable_4'
p48
ag17
ag21
aS'variable_13'
p49
ag24
aS'variable_22'
p50
aS'->'
p51
aS'variable_23'
p52
ag21
aS'variable_14'
p53
ag24
aS'variable_13'
p54
aS'+'
p55
aS'variable_24'
p56
ag21
aS'if'
p57
ag7
aS'variable_9'
p58
ag27
aS'variable_2'
p59
aS'>'
p60
aS'variable_19'
p61
ag17
aS'variable_12'
p62
ag24
ag7
aS'guint8'
p63
ag5
ag17
aS'func_3'
p64
ag7
aS'variable_1'
p65
ag10
aS'variable_18'
p66
ag10
aS'variable_2'
p67
ag10
aS'variable_9'
p68
ag27
aS'variable_2'
p69
ag17
ag21
aS'variable_11'
p70
ag24
aS'variable_22'
p71
aS'->'
p72
aS'variable_25'
p73
ag21
aS'variable_7'
p74
ag24
ag35
ag21
aS'variable_8'
p75
ag24
ag27
ag28
ag21
aS'while'
p76
ag7
aS'variable_2'
p77
aS'<'
p78
aS'variable_9'
p79
ag17
aS'if'
p80
ag7
aS'--'
p81
aS'variable_8'
p82
ag60
ag24
ag35
ag17
aS'if'
p83
ag7
aS'variable_15'
p84
aS'&'
p85
aS'0x80'
p86
ag17
aS'variable_16'
p87
ag24
aS'func_4'
p88
ag7
aS'variable_12'
p89
ag17
ag85
aS'variable_26'
p90
ag21
aS'if'
p91
ag7
ag7
ag5
aS'variable_12'
p92
ag85
aS'0xf0'
p93
ag17
aS'=='
p94
aS'0x10'
p95
ag17
aS'variable_17'
p96
ag24
ag5
ag7
aS'variable_12'
p97
ag55
aS'2'
p98
ag17
ag55
ag28
ag21
aS'variable_12'
p99
aS'+='
p100
aS'3'
p101
ag21
aS'variable_2'
p102
aS'+='
p103
ag101
ag21
aS'variable_17'
p104
ag24
ag7
ag5
aS'variable_12'
p105
aS'>>'
p106
aS'4'
p107
ag17
ag55
ag28
ag21
aS'variable_12'
p108
aS'+='
p109
ag98
ag21
aS'variable_2'
p110
aS'+='
p111
ag98
ag21
aS'if'
p112
ag7
aS'!'
p113
aS'variable_4'
p114
aS'->'
p115
aS'variable_27'
p116
aS'->'
p117
aS'variable_28'
p118
aS'.'
p119
aS'variable_29'
p120
ag17
aS'variable_11'
p121
ag24
aS'func_5'
p122
ag7
aS'variable_11'
p123
ag10
aS'variable_16'
p124
ag10
aS'variable_17'
p125
ag10
ag85
aS'variable_7'
p126
ag10
aS'variable_13'
p127
ag10
aS'variable_14'
p128
ag17
ag21
aS'if'
p129
ag7
aS'variable_11'
p130
aS'=='
p131
aS'NULL'
p132
ag17
aS'if'
p133
ag7
aS'++'
p134
aS'variable_7'
p135
ag60
aS'variable_19'
p136
ag17
aS'if'
p137
ag7
ag113
aS'variable_4'
p138
aS'->'
p139
aS'variable_27'
p140
aS'->'
p141
aS'variable_28'
p142
ag119
aS'variable_29'
p143
ag17
ag5
aS'variable_11'
p144
ag24
ag5
aS'variable_12'
p145
ag21
aS'if'
p146
ag7
aS'variable_11'
p147
aS'++'
p148
aS'=='
p149
aS'variable_14'
p150
ag17
aS'variable_11'
p151
ag24
aS'variable_13'
p152
ag21
aS'variable_15'
p153
aS'<<'
p154
ag24
ag28
ag21
aS'variable_15'
p155
ag24
ag5
aS'variable_12'
p156
aS'++'
p157
ag21
aS'variable_2'
p158
aS'++'
p159
ag21
aS'variable_8'
p160
ag24
aS'8'
p161
ag21
aS'if'
p162
ag7
aS'variable_4'
p163
aS'->'
p164
aS'variable_27'
p165
aS'->'
p166
aS'variable_28'
p167
ag119
aS'variable_29'
p168
ag17
aS'variable_21'
p169
ag24
aS'func_6'
p170
ag7
aS'func_7'
p171
ag7
ag17
ag10
aS'variable_20'
p172
ag17
ag21
aS'memcpy'
p173
ag7
ag85
aS'variable_21'
p174
aS'->'
p175
aS'variable_23'
p176
ag10
aS'variable_22'
p177
aS'->'
p178
aS'variable_25'
p179
ag10
aS'variable_7'
p180
ag17
ag21
aS'variable_21'
p181
aS'->'
p182
aS'variable_7'
p183
ag24
aS'variable_7'
p184
ag21
aS'func_8'
p185
ag7
aS'func_9'
p186
ag7
ag17
ag10
aS'variable_4'
p187
ag10
aS'variable_30'
p188
ag10
ag35
ag10
ag7
aS'void'
p189
ag5
ag17
aS'variable_21'
p190
ag17
ag21
aS'variable_31'
p191
ag24
aS'func_10'
p192
ag7
aS'variable_1'
p193
ag10
aS'variable_21'
p194
aS'->'
p195
aS'variable_23'
p196
ag10
aS'variable_21'
p197
aS'->'
p198
aS'variable_7'
p199
ag10
aS'variable_21'
p200
aS'->'
p201
aS'variable_7'
p202
ag17
ag21
aS'func_11'
p203
ag7
aS'variable_4'
p204
ag10
aS'variable_31'
p205
ag10
aS'"'
p206
aS'Uncompressed'
p207
aS'WCP'
p208
ag206
ag17
ag21
aS'return'
p209
aS'variable_31'
p210
ag21
aaa(lp211
I0
aa(lp212
I313
aa(lp213
(lp214
S'main'
p215
aaa(lp216
S'627 /home/SySeVR/data/CVE_2015_3811_VULN_wcp_uncompress.c memcpy 180'
p217
aa.