(lp0
(lp1
(lp2
S'static'
p3
aS'variable_0'
p4
aS'*'
p5
aS'func_0'
p6
aS'('
p7
aS'variable_0'
p8
ag5
aS'variable_1'
p9
aS','
p10
aS'int'
p11
aS'variable_2'
p12
ag10
aS'variable_3'
p13
ag5
aS'variable_4'
p14
ag10
aS'variable_5'
p15
ag5
aS'variable_6'
p16
aS')'
p17
aS'int'
p18
aS'variable_7'
p19
aS'='
p20
aS'func_1'
p21
ag7
aS'variable_1'
p22
ag17
aS'-'
p23
aS'1'
p24
aS';'
p25
aS'guint8'
p26
aS'variable_8'
p27
aS'['
p28
aS'variable_9'
p29
aS']'
p30
ag25
aS'if'
p31
ag7
aS'variable_7'
p32
ag23
aS'variable_2'
p33
aS'>'
p34
aS'variable_9'
p35
ag17
aS'variable_10'
p36
ag20
ag7
aS'guint8'
p37
ag5
ag17
aS'func_2'
p38
ag7
aS'variable_1'
p39
ag10
aS'variable_8'
p40
ag10
aS'variable_2'
p41
ag10
aS'variable_7'
p42
ag23
aS'variable_2'
p43
ag17
ag25
aS'if'
p44
ag7
aS'variable_11'
p45
aS'&'
p46
aS'0x80'
p47
ag17
aS'variable_12'
p48
ag20
aS'func_3'
p49
ag7
aS'variable_10'
p50
ag17
ag46
aS'variable_13'
p51
ag25
aS'if'
p52
ag7
ag7
ag5
aS'variable_10'
p53
ag46
aS'0xf0'
p54
ag17
aS'=='
p55
aS'0x10'
p56
ag17
aS'variable_14'
p57
ag20
ag5
ag7
aS'variable_10'
p58
aS'+'
p59
aS'2'
p60
ag17
ag59
ag24
ag25
aS'func_4'
p61
ag7
aS'variable_15'
p62
ag10
aS'variable_16'
p63
ag10
aS'variable_1'
p64
ag10
aS'variable_2'
p65
ag10
ag60
ag10
aS'variable_12'
p66
ag17
ag25
aS'variable_10'
p67
aS'+='
p68
aS'3'
p69
ag25
aS'variable_14'
p70
ag20
ag7
ag5
aS'variable_10'
p71
aS'>>'
p72
aS'4'
p73
ag17
ag59
ag24
ag25
aS'func_5'
p74
ag7
aS'variable_15'
p75
ag10
aS'variable_17'
p76
ag10
aS'variable_1'
p77
ag10
aS'variable_2'
p78
ag10
ag24
ag10
ag5
aS'variable_10'
p79
ag17
ag25
aS'func_6'
p80
ag7
aS'variable_15'
p81
ag10
aS'variable_16'
p82
ag10
aS'variable_1'
p83
ag10
aS'variable_2'
p84
ag10
ag60
ag10
aS'variable_12'
p85
ag17
ag25
aS'variable_10'
p86
aS'+='
p87
ag60
ag25
aS'variable_18'
p88
ag20
aS'func_7'
p89
ag7
aS'variable_18'
p90
ag10
aS'variable_12'
p91
ag10
aS'variable_14'
p92
ag10
ag46
aS'variable_19'
p93
ag10
aS'variable_20'
p94
ag10
aS'variable_21'
p95
ag17
ag25
aS'if'
p96
ag7
aS'variable_18'
p97
aS'=='
p98
aS'NULL'
p99
ag17
ag5
aS'variable_18'
p100
ag20
ag5
aS'variable_10'
p101
ag25
aS'if'
p102
ag7
aS'variable_18'
p103
aS'++'
p104
aS'=='
p105
aS'variable_21'
p106
ag17
aS'variable_11'
p107
aS'<<'
p108
ag20
ag24
ag25
aS'variable_11'
p109
ag20
ag5
aS'variable_10'
p110
aS'++'
p111
ag25
aS'func_8'
p112
ag7
aS'variable_22'
p113
ag10
aS'variable_23'
p114
ag10
aS'variable_1'
p115
ag10
aS'variable_2'
p116
ag10
ag24
ag10
aS'variable_11'
p117
ag17
ag25
aS'variable_24'
p118
aS'->'
p119
aS'variable_25'
p120
ag20
aS'variable_18'
p121
ag25
aa(lp122
S'static'
p123
aS'variable_0'
p124
ag5
aS'func_0'
p125
ag7
aS'variable_0'
p126
ag5
aS'variable_1'
p127
ag10
aS'int'
p128
aS'variable_2'
p129
ag10
aS'variable_3'
p130
ag5
aS'variable_4'
p131
ag10
aS'variable_5'
p132
ag5
aS'variable_6'
p133
ag17
aS'variable_7'
p134
ag5
aS'variable_8'
p135
ag10
ag5
aS'variable_9'
p136
ag25
aS'int'
p137
aS'variable_10'
p138
ag20
aS'func_1'
p139
ag7
aS'variable_1'
p140
ag17
ag23
ag24
ag25
aS'variable_8'
p141
ag20
aS'func_2'
p142
ag7
aS'variable_6'
p143
ag10
aS'variable_11'
p144
ag10
aS'variable_1'
p145
ag10
aS'variable_2'
p146
ag10
aS'variable_10'
p147
ag23
aS'variable_2'
p148
ag10
aS'variable_12'
p149
ag17
ag25
aS'variable_13'
p150
ag20
aS'func_3'
p151
ag7
aS'variable_8'
p152
ag10
aS'variable_14'
p153
ag17
ag25
aS'func_4'
p154
ag7
aS'variable_4'
p155
ag10
aS'variable_8'
p156
ag10
ag46
aS'variable_15'
p157
ag10
aS'"'
p158
aS'Compressed'
p159
aS'data'
p160
aS'exceeds'
p161
aS'maximum'
p162
aS'buffer'
p163
aS'length'
p164
ag7
aS'%'
p165
aS'd'
p166
ag34
ag165
ag166
ag17
ag158
ag10
aS'variable_10'
p167
ag23
aS'variable_2'
p168
ag10
aS'variable_16'
p169
ag17
ag25
aS'variable_9'
p170
ag20
aS'func_5'
p171
ag7
aS'variable_13'
p172
ag10
aS'variable_17'
p173
ag10
aS'variable_1'
p174
ag10
aS'variable_2'
p175
ag10
ag69
ag10
aS'variable_12'
p176
ag17
ag25
aS'variable_18'
p177
ag20
aS'func_6'
p178
ag7
aS'variable_9'
p179
ag10
aS'variable_19'
p180
ag17
ag25
aS'func_7'
p181
ag7
aS'variable_18'
p182
ag10
aS'variable_20'
p183
ag10
aS'variable_1'
p184
ag10
aS'variable_2'
p185
ag10
ag60
ag10
aS'variable_21'
p186
ag17
ag25
aS'func_8'
p187
ag7
aS'variable_18'
p188
ag10
aS'variable_22'
p189
ag10
aS'variable_1'
p190
ag10
aS'variable_2'
p191
ag59
ag60
ag10
ag24
ag10
aS'variable_23'
p192
ag17
ag25
aS'variable_9'
p193
ag20
aS'func_9'
p194
ag7
aS'variable_13'
p195
ag10
aS'variable_24'
p196
ag10
aS'variable_1'
p197
ag10
aS'variable_2'
p198
ag10
ag60
ag10
aS'variable_12'
p199
ag17
ag25
aS'variable_18'
p200
ag20
aS'func_10'
p201
ag7
aS'variable_9'
p202
ag10
aS'variable_19'
p203
ag17
ag25
aS'func_11'
p204
ag7
aS'variable_18'
p205
ag10
aS'variable_25'
p206
ag10
aS'variable_1'
p207
ag10
aS'variable_2'
p208
ag10
ag24
ag10
ag5
aS'variable_26'
p209
ag17
ag25
aS'func_12'
p210
ag7
aS'variable_18'
p211
ag10
aS'variable_20'
p212
ag10
aS'variable_1'
p213
ag10
aS'variable_2'
p214
ag10
ag60
ag10
aS'variable_21'
p215
ag17
ag25
aS'func_13'
p216
ag7
aS'variable_4'
p217
ag10
aS'variable_8'
p218
ag10
ag46
aS'variable_27'
p219
ag10
ag158
aS'Uncompressed'
p220
aS'data'
p221
aS'exceeds'
p222
aS'maximum'
p223
aS'buffer'
p224
aS'length'
p225
ag7
ag165
ag166
ag34
ag165
ag166
ag17
ag158
ag10
aS'variable_28'
p226
ag10
aS'variable_16'
p227
ag17
ag25
aS'func_14'
p228
ag7
aS'variable_4'
p229
ag10
aS'variable_8'
p230
ag10
ag46
aS'variable_27'
p231
ag10
ag158
aS'Uncompressed'
p232
aS'data'
p233
aS'exceeds'
p234
aS'maximum'
p235
aS'buffer'
p236
aS'length'
p237
ag7
ag165
ag166
ag34
ag165
ag166
ag17
ag158
ag10
aS'variable_28'
p238
ag10
aS'variable_16'
p239
ag17
ag25
aS'if'
p240
ag7
aS'variable_13'
p241
ag17
aS'func_15'
p242
ag7
aS'variable_13'
p243
ag10
aS'variable_29'
p244
ag10
aS'variable_1'
p245
ag10
aS'variable_2'
p246
ag10
ag24
ag10
aS'variable_30'
p247
ag17
ag25
aa(lp248
S'static'
p249
aS'variable_0'
p250
ag5
aS'func_0'
p251
ag7
aS'variable_0'
p252
ag5
aS'variable_1'
p253
ag10
aS'int'
p254
aS'variable_2'
p255
ag10
aS'variable_3'
p256
ag5
aS'variable_4'
p257
ag10
aS'variable_5'
p258
ag5
aS'variable_6'
p259
ag17
aS'variable_7'
p260
ag20
aS'func_1'
p261
ag7
aS'variable_4'
p262
ag17
ag25
aS'variable_8'
p263
ag20
aS'variable_7'
p264
aS'->'
p265
aS'variable_9'
p266
ag25
aS'variable_10'
p267
ag20
aS'variable_8'
p268
ag59
aS'variable_11'
p269
ag25
aS'variable_12'
p270
ag20
aS'func_2'
p271
ag7
aS'variable_12'
p272
ag10
aS'variable_13'
p273
ag10
aS'variable_14'
p274
ag10
ag46
aS'variable_15'
p275
ag10
aS'variable_8'
p276
ag10
aS'variable_10'
p277
ag17
ag25
aS'if'
p278
ag7
aS'variable_12'
p279
aS'=='
p280
aS'NULL'
p281
ag17
ag5
aS'variable_12'
p282
ag20
ag5
aS'variable_16'
p283
ag25
aS'if'
p284
ag7
aS'variable_12'
p285
aS'++'
p286
aS'=='
p287
aS'variable_10'
p288
ag17
aS'variable_7'
p289
aS'->'
p290
aS'variable_17'
p291
ag20
aS'variable_12'
p292
ag25
aaa(lp293
I0
aI0
aI0
aa(lp294
I49
aI54
aI37
aa(lp295
(lp296
S'main'
p297
aa(lp298
g297
aa(lp299
g297
aaa(lp300
S'700 /home/SySeVR/data/CVE_2015_3811_VULN_wcp_uncompress.c src = ( guint8 * ) tvb_memcpy ( src_tvb , src_buf , offset , cnt - offset ) 40'
p301
aS'701 /home/SySeVR/data/CVE_2015_3811_VULN_wcp_uncompress.c cd_item = proto_tree_add_item ( tree , hf_wcp_compressed_data , src_tvb , offset , cnt - offset , ENC_NA ) 23'
p302
aS'702 /home/SySeVR/data/CVE_2015_3811_VULN_wcp_uncompress.c buf_end = buf_start + MAX_WIN_BUF_LEN 21'
p303
aa.