(lp0
(lp1
(lp2
S'func_0'
p3
aS'('
p4
aS'variable_0'
p5
aS'*'
p6
aS'variable_1'
p7
aS','
p8
aS'variable_2'
p9
ag6
aS'variable_3'
p10
ag8
aS'variable_4'
p11
ag6
aS'variable_5'
p12
ag8
aS'variable_4'
p13
ag6
aS'variable_6'
p14
ag8
aS'variable_7'
p15
ag6
aS'variable_8'
p16
aS')'
p17
aS'guint16'
p18
aS'variable_9'
p19
aS';'
p20
aS'variable_9'
p21
aS'='
p22
aS'func_1'
p23
ag4
aS'variable_1'
p24
ag8
aS'variable_10'
p25
ag17
aS'-'
p26
aS'variable_11'
p27
ag26
aS'variable_12'
p28
ag20
aS'func_2'
p29
ag4
aS'variable_8'
p30
ag8
aS'"'
p31
ag4
aS'SS7'
p32
aS'message'
p33
aS'of'
p34
aS'%'
p35
aS'u'
p36
aS'byte'
p37
ag35
aS's'
p38
ag17
ag31
ag8
aS'variable_9'
p39
ag8
aS'func_3'
p40
ag4
aS'variable_9'
p41
ag8
ag31
ag31
ag8
ag31
ag38
ag31
ag17
ag17
ag20
aS'variable_13'
p42
ag22
aS'func_4'
p43
ag4
aS'variable_1'
p44
ag8
aS'variable_14'
p45
ag8
aS'variable_9'
p46
ag8
aS'variable_9'
p47
ag17
ag20
aS'if'
p48
ag4
aS'!'
p49
aS'func_5'
p50
ag4
aS'variable_15'
p51
ag8
aS'func_6'
p52
ag4
aS'variable_1'
p53
ag8
aS'variable_16'
p54
ag17
ag8
aS'variable_13'
p55
ag8
aS'variable_3'
p56
ag8
aS'variable_5'
p57
ag17
ag17
aS'func_7'
p58
ag4
aS'variable_17'
p59
ag8
aS'variable_13'
p60
ag8
aS'variable_3'
p61
ag8
aS'variable_5'
p62
ag17
ag20
aa(lp63
S'func_0'
p64
ag4
aS'variable_0'
p65
ag6
aS'variable_1'
p66
ag8
aS'variable_2'
p67
ag6
aS'variable_3'
p68
ag8
aS'variable_4'
p69
ag6
aS'variable_5'
p70
ag8
aS'variable_4'
p71
ag6
aS'variable_6'
p72
ag8
aS'variable_7'
p73
ag6
aS'variable_8'
p74
ag17
aS'guint16'
p75
aS'variable_9'
p76
ag20
aS'variable_9'
p77
ag22
aS'func_1'
p78
ag4
aS'variable_1'
p79
ag8
aS'variable_10'
p80
ag17
ag26
aS'variable_11'
p81
ag26
aS'variable_12'
p82
ag20
aS'variable_13'
p83
ag22
aS'func_2'
p84
ag4
aS'variable_1'
p85
ag8
aS'variable_14'
p86
ag8
aS'variable_9'
p87
ag8
aS'variable_9'
p88
ag17
ag20
aS'variable_15'
p89
ag22
aS'func_3'
p90
ag4
aS'variable_13'
p91
ag8
aS'variable_3'
p92
ag8
aS'variable_16'
p93
ag8
aS'variable_17'
p94
ag8
aS'variable_18'
p95
ag17
ag20
aS'if'
p96
ag4
aS'variable_15'
p97
aS'=='
p98
aS'variable_19'
p99
ag17
aS'variable_20'
p100
ag22
aS'func_4'
p101
ag4
aS'variable_5'
p102
ag8
aS'variable_1'
p103
ag8
aS'0'
p104
ag8
ag104
ag8
ag31
ag35
ag38
ag31
ag8
aS'func_5'
p105
ag4
aS'variable_15'
p106
ag8
aS'variable_21'
p107
ag8
ag31
aS'unknown'
p108
ag31
ag17
ag17
ag20
aS'variable_22'
p109
ag22
aS'variable_15'
p110
ag20
aS'func_6'
p111
ag4
aS'variable_20'
p112
ag17
ag20
aS'variable_23'
p113
aS'->'
p114
aS'variable_24'
p115
aS'.'
p116
aS'variable_25'
p117
ag22
ag4
aS'variable_26'
p118
ag17
aS'variable_22'
p119
ag20
aS'variable_23'
p120
aS'->'
p121
aS'variable_24'
p122
ag116
aS'variable_27'
p123
ag22
aS'variable_17'
p124
ag20
aS'variable_23'
p125
aS'->'
p126
aS'variable_24'
p127
ag116
aS'variable_28'
p128
ag22
aS'func_7'
p129
ag4
aS'variable_1'
p130
ag8
aS'variable_29'
p131
ag17
ag20
aS'func_8'
p132
ag4
aS'&'
p133
aS'variable_3'
p134
aS'->'
p135
aS'variable_30'
p136
ag8
aS'variable_31'
p137
ag8
aS'sizeof'
p138
ag4
aS'variable_32'
p139
ag17
ag8
ag4
aS'guint8'
p140
ag6
ag17
ag133
aS'variable_23'
p141
aS'->'
p142
aS'variable_24'
p143
ag17
ag20
aS'variable_23'
p144
aS'->'
p145
aS'variable_33'
p146
ag116
aS'variable_25'
p147
ag22
ag4
aS'variable_26'
p148
ag17
aS'variable_22'
p149
ag20
aS'variable_23'
p150
aS'->'
p151
aS'variable_33'
p152
ag116
aS'variable_27'
p153
ag22
aS'variable_16'
p154
ag20
aS'variable_23'
p155
aS'->'
p156
aS'variable_33'
p157
ag116
aS'variable_28'
p158
ag22
aS'func_9'
p159
ag4
aS'variable_1'
p160
ag8
aS'variable_29'
p161
ag17
ag20
aS'func_10'
p162
ag4
ag133
aS'variable_3'
p163
aS'->'
p164
aS'variable_34'
p165
ag8
aS'variable_31'
p166
ag8
aS'sizeof'
p167
ag4
aS'variable_32'
p168
ag17
ag8
ag4
aS'guint8'
p169
ag6
ag17
ag133
aS'variable_23'
p170
aS'->'
p171
aS'variable_33'
p172
ag17
ag20
aS'variable_23'
p173
aS'->'
p174
aS'variable_35'
p175
ag22
aS'func_11'
p176
ag4
aS'variable_1'
p177
ag8
aS'variable_36'
p178
ag17
ag20
aS'variable_23'
p179
aS'->'
p180
aS'variable_37'
p181
ag22
ag104
ag20
aS'func_12'
p182
ag4
aS'variable_38'
p183
ag8
aS'variable_3'
p184
ag8
aS'variable_23'
p185
ag17
ag20
aS'if'
p186
ag4
aS'variable_23'
p187
aS'->'
p188
aS'variable_33'
p189
ag116
aS'variable_28'
p190
aS'=='
p191
aS'variable_39'
p192
ag17
aS'if'
p193
ag4
aS'variable_23'
p194
aS'->'
p195
aS'variable_24'
p196
ag116
aS'variable_28'
p197
aS'=='
p198
aS'variable_39'
p199
ag17
aS'func_13'
p200
ag4
aS'variable_8'
p201
ag8
ag31
ag4
aS'SS7'
p202
aS'message'
p203
aS'of'
p204
ag35
ag36
aS'byte'
p205
ag35
ag38
ag17
ag31
ag8
aS'variable_9'
p206
ag8
aS'func_14'
p207
ag4
aS'variable_9'
p208
ag8
ag31
ag31
ag8
ag31
ag38
ag31
ag17
ag17
ag20
aS'variable_13'
p209
ag22
aS'func_15'
p210
ag4
aS'variable_1'
p211
ag8
aS'variable_14'
p212
ag8
aS'variable_9'
p213
ag8
aS'variable_9'
p214
ag17
ag20
aS'if'
p215
ag4
ag49
aS'func_16'
p216
ag4
aS'variable_40'
p217
ag8
aS'func_17'
p218
ag4
aS'variable_1'
p219
ag8
aS'variable_36'
p220
ag17
ag8
aS'variable_13'
p221
ag8
aS'variable_3'
p222
ag8
aS'variable_5'
p223
ag17
ag17
aS'func_18'
p224
ag4
aS'variable_41'
p225
ag8
aS'variable_13'
p226
ag8
aS'variable_3'
p227
ag8
aS'variable_5'
p228
ag17
ag20
aaa(lp229
I0
aI0
aa(lp230
I36
aI36
aa(lp231
(lp232
S'main'
p233
aa(lp234
g233
aaa(lp235
S'611 /home/SySeVR/data/CVE_2014_2282_VULN_dissect_protocol_data_parameter.c ulp_length = tvb_get_ntohs ( parameter_tvb , PARAMETER_LENGTH_OFFSET ) - PARAMETER_HEADER_LENGTH - DATA_HDR_LENGTH 54'
p236
aS'612 /home/SySeVR/data/CVE_2014_2282_VULN_dissect_protocol_data_parameter.c ulp_length = tvb_get_ntohs ( parameter_tvb , PARAMETER_LENGTH_OFFSET ) - PARAMETER_HEADER_LENGTH - DATA_HDR_LENGTH 14'
p237
aa.