(lp0
(lp1
(lp2
S'static'
p3
aS'int'
p4
aS'func_0'
p5
aS'('
p6
aS'struct'
p7
aS'variable_0'
p8
aS'*'
p9
aS'variable_1'
p10
aS','
p11
aS'void'
p12
ag9
aS'variable_2'
p13
ag11
aS'int'
p14
aS'variable_3'
p15
ag11
aS'int'
p16
aS'variable_4'
p17
aS')'
p18
aS'unsigned'
p19
aS'char'
p20
aS'variable_5'
p21
aS'['
p22
aS'variable_6'
p23
aS'+'
p24
aS'640'
p25
aS']'
p26
aS';'
p27
aS'const'
p28
aS'int'
p29
aS'variable_7'
p30
aS'='
p31
aS'func_1'
p32
ag6
aS'variable_5'
p33
ag18
aS'-'
p34
ag6
aS'variable_6'
p35
aS'/'
p36
aS'sizeof'
p37
ag6
aS'variable_5'
p38
ag22
aS'0'
p39
ag26
ag18
ag18
ag27
aS'struct'
p40
aS'.'
p41
aS'variable_9'
p42
ag31
ag41
aS'variable_10'
p43
ag31
ag41
aS'variable_11'
p44
ag31
aS'variable_12'
p45
ag11
aS'variable_13'
p46
ag41
aS'variable_2'
p47
ag41
aS'variable_14'
p48
ag31
aS'variable_5'
p49
ag24
aS'variable_6'
p50
ag27
aS'if'
p51
ag6
aS'variable_4'
p52
aS'>'
p53
aS'variable_7'
p54
ag18
aS'variable_4'
p55
ag31
aS'variable_7'
p56
ag27
aS'variable_3'
p57
ag31
aS'variable_4'
p58
ag9
aS'sizeof'
p59
ag6
aS'variable_5'
p60
ag22
ag39
ag26
ag18
ag27
aS'variable_13'
p61
ag41
aS'variable_15'
p62
ag31
aS'variable_3'
p63
ag27
aS'variable_13'
p64
ag41
aS'variable_4'
p65
ag31
aS'variable_4'
p66
ag27
aS'if'
p67
ag6
aS'func_2'
p68
ag6
aS'variable_1'
p69
ag11
aS'&'
p70
aS'variable_13'
p71
ag18
aS'<'
p72
ag39
ag18
aS'func_3'
p73
ag6
aS'variable_16'
p74
ag11
aS'"'
p75
aS'Failed'
p76
aS'to'
p77
aS'write'
p78
aS'frame'
p79
aS'to'
p80
aS"'"
p81
aS'%'
p82
aS's'
p83
ag81
aS':'
p84
ag82
ag83
aS'\\'
p85
aS'n'
p86
ag75
ag11
aS'variable_1'
p87
aS'->'
p88
aS'variable_17'
p89
ag11
aS'strerror'
p90
ag6
aS'variable_18'
p91
ag18
ag18
ag27
aaa(lp92
I0
aa(lp93
I143
aa(lp94
(lp95
S'main'
p96
aaa(lp97
S'185 /home/SySeVR/data/CVE_2012_1183_PATCHED_milliwatt_generate.c strerror 35'
p98
aa.