(lp0
(lp1
(lp2
S'static'
p3
aS'int'
p4
aS'func_0'
p5
aS'('
p6
aS'struct'
p7
aS'variable_0'
p8
aS'*'
p9
aS'variable_1'
p10
aS','
p11
aS'void'
p12
ag9
aS'variable_2'
p13
ag11
aS'int'
p14
aS'variable_3'
p15
ag11
aS'int'
p16
aS'variable_4'
p17
aS')'
p18
aS'unsigned'
p19
aS'char'
p20
aS'variable_5'
p21
aS'['
p22
aS'variable_6'
p23
aS'+'
p24
aS'640'
p25
aS']'
p26
aS';'
p27
aS'const'
p28
aS'int'
p29
aS'variable_7'
p30
aS'='
p31
aS'func_1'
p32
ag6
aS'variable_5'
p33
ag18
aS'-'
p34
ag6
aS'variable_6'
p35
aS'/'
p36
aS'sizeof'
p37
ag6
aS'variable_5'
p38
ag22
aS'0'
p39
ag26
ag18
ag18
ag27
aS'if'
p40
ag6
aS'variable_4'
p41
aS'>'
p42
aS'variable_7'
p43
ag18
aS'func_2'
p44
ag6
aS'variable_8'
p45
ag11
aS'"'
p46
aS'Only'
p47
aS'doing'
p48
aS'%'
p49
aS'd'
p50
aS'samples'
p51
ag6
ag49
ag50
aS'requested'
p52
ag18
aS'\\'
p53
aS'n'
p54
ag46
ag11
aS'variable_7'
p55
ag11
aS'variable_4'
p56
ag18
ag27
aS'variable_4'
p57
ag31
aS'variable_7'
p58
ag27
aS'variable_3'
p59
ag31
aS'variable_4'
p60
ag9
aS'sizeof'
p61
ag6
aS'variable_5'
p62
ag22
ag39
ag26
ag18
ag27
aS'variable_9'
p63
aS'.'
p64
aS'variable_10'
p65
ag31
aS'variable_3'
p66
ag27
aS'variable_9'
p67
ag64
aS'variable_4'
p68
ag31
aS'variable_4'
p69
ag27
aS'for'
p70
ag6
aS'variable_11'
p71
ag31
ag39
ag27
aS'variable_11'
p72
aS'<'
p73
aS'variable_3'
p74
ag27
aS'variable_11'
p75
aS'++'
p76
ag18
aS'if'
p77
ag6
aS'func_3'
p78
ag6
aS'variable_1'
p79
ag11
aS'&'
p80
aS'variable_9'
p81
ag18
ag73
ag39
ag18
aaa(lp82
I0
aa(lp83
I48
aa(lp84
(lp85
S'main'
p86
aaa(lp87
S'774 /home/SySeVR/data/CVE_2012_1183_PATCHED_milliwatt_generate.c const int maxsamples = ARRAY_LEN ( buf ) - ( AST_FRIENDLY_OFFSET / sizeof ( buf [ 0 ] ) ) ; 4'
p88
aa.