(lp0
(lp1
(lp2
S'static'
p3
aS'int'
p4
aS'func_0'
p5
aS'('
p6
aS'struct'
p7
aS'variable_0'
p8
aS'*'
p9
aS'variable_1'
p10
aS','
p11
aS'int'
p12
ag9
aS'variable_2'
p13
ag11
aS'int'
p14
aS'variable_3'
p15
aS')'
p16
aS'struct'
p17
aS'variable_4'
p18
ag9
aS'variable_5'
p19
aS';'
p20
aS'struct'
p21
aS'variable_1'
p22
ag9
aS'variable_6'
p23
aS'='
p24
aS'variable_1'
p25
aS'->'
p26
aS'variable_6'
p27
ag20
aS'struct'
p28
aS'variable_7'
p29
ag9
aS'variable_8'
p30
ag24
aS'func_1'
p31
ag6
aS'variable_6'
p32
ag16
ag20
aS'if'
p33
ag6
aS'variable_3'
p34
ag16
aS'variable_9'
p35
aS'->'
p36
aS'variable_10'
p37
ag24
aS'variable_11'
p38
ag20
aS'variable_9'
p39
aS'->'
p40
aS'variable_12'
p41
ag24
aS'variable_8'
p42
aS'->'
p43
aS'variable_13'
p44
ag20
aS'variable_9'
p45
aS'->'
p46
aS'variable_14'
p47
ag24
aS'variable_8'
p48
aS'->'
p49
aS'variable_15'
p50
ag20
aS'variable_5'
p51
ag24
aS'func_2'
p52
ag6
aS'func_3'
p53
ag6
aS'variable_6'
p54
ag16
ag11
aS'variable_8'
p55
aS'->'
p56
aS'variable_13'
p57
ag16
ag20
aS'if'
p58
ag6
aS'variable_5'
p59
ag16
aS'variable_9'
p60
aS'->'
p61
aS'variable_16'
p62
ag24
aS'variable_5'
p63
aS'->'
p64
aS'variable_17'
p65
ag20
aS'variable_9'
p66
aS'->'
p67
aS'variable_18'
p68
ag24
aS'variable_5'
p69
aS'->'
p70
aS'variable_19'
p71
ag20
aS'memcpy'
p72
ag6
aS'variable_9'
p73
aS'->'
p74
aS'variable_20'
p75
ag11
aS'variable_5'
p76
aS'->'
p77
aS'variable_21'
p78
ag11
aS'variable_5'
p79
aS'->'
p80
aS'variable_19'
p81
ag16
ag20
aaa(lp82
I0
aa(lp83
I101
aa(lp84
(lp85
S'main'
p86
aaa(lp87
S'448 /home/SySeVR/data/CVE_2010_3876_VULN_packet_getname.c memcpy 20'
p88
aa.