(lp0
(lp1
(lp2
S'func_0'
p3
aS'('
p4
aS'variable_0'
p5
aS'*'
p6
aS'variable_1'
p7
aS','
p8
aS'int'
p9
aS'variable_2'
p10
ag8
aS'guint16'
p11
aS'variable_3'
p12
ag8
aS'variable_4'
p13
ag6
aS'variable_5'
p14
ag8
aS'variable_6'
p15
ag6
aS'variable_7'
p16
aS')'
p17
aS'guint8'
p18
aS'variable_8'
p19
aS'['
p20
aS'variable_9'
p21
aS'+'
p22
aS'1'
p23
aS']'
p24
aS';'
p25
aS'memset'
p26
ag4
aS'variable_8'
p27
ag8
aS'0'
p28
ag8
aS'variable_9'
p29
ag17
ag25
aS'func_1'
p30
ag4
aS'variable_1'
p31
ag8
aS'variable_8'
p32
ag8
aS'variable_2'
p33
ag8
aS'variable_3'
p34
aS'<'
p35
aS'variable_9'
p36
aS'?'
p37
aS'variable_3'
p38
aS':'
p39
aS'variable_9'
p40
ag17
ag25
aS'while'
p41
ag4
ag4
aS'variable_10'
p42
ag35
aS'variable_3'
p43
ag17
aS'&&'
p44
ag4
aS'variable_10'
p45
ag35
aS'variable_9'
p46
ag17
ag17
aS'guint'
p47
aS'variable_11'
p48
aS'='
p49
aS'variable_8'
p50
ag20
aS'variable_10'
p51
ag24
ag25
aS'variable_8'
p52
ag20
aS'variable_10'
p53
ag24
ag49
aS"'"
p54
aS'.'
p55
ag54
ag25
aS'variable_10'
p56
aS'+='
p57
aS'variable_11'
p58
ag22
ag23
ag25
aS'func_2'
p59
ag4
aS'variable_5'
p60
ag8
aS'variable_12'
p61
ag8
aS'variable_1'
p62
ag8
aS'variable_2'
p63
ag8
aS'variable_3'
p64
ag8
aS'variable_8'
p65
ag22
ag23
ag17
ag25
aS'func_3'
p66
ag4
aS'variable_7'
p67
ag8
aS'"'
p68
ag39
aS'%'
p69
aS's'
p70
ag68
ag8
aS'variable_8'
p71
ag22
ag23
ag17
ag25
aaa(lp72
I1
aa(lp73
I28
aa(lp74
(lp75
S'main'
p76
aaa(lp77
S'125 /home/SySeVR/data/CVE_2014_5163_VULN_decode_apn.c memset 8'
p78
aa.