(lp0
(lp1
(lp2
S'func_0'
p3
aS'('
p4
aS'variable_0'
p5
aS'*'
p6
aS'variable_1'
p7
aS','
p8
aS'int'
p9
aS'variable_2'
p10
ag8
aS'variable_3'
p11
ag6
aS'variable_4'
p12
ag8
aS'variable_5'
p13
ag6
aS'variable_6'
p14
aS')'
p15
aS'gint16'
p16
aS'variable_7'
p17
aS';'
p18
aS'guint16'
p19
aS'variable_8'
p20
ag18
aS'if'
p21
ag4
aS'variable_9'
p22
aS'<'
p23
aS'2'
p24
ag6
aS'4'
p25
ag15
aS'variable_7'
p26
aS'='
p27
aS'func_1'
p28
ag4
aS'variable_1'
p29
ag8
aS'variable_2'
p30
ag15
ag18
aS'variable_8'
p31
ag27
aS'func_2'
p32
ag4
aS'variable_1'
p33
ag8
aS'variable_2'
p34
ag15
ag18
aS'if'
p35
ag4
aS'variable_10'
p36
aS'.'
p37
aS'variable_11'
p38
aS'=='
p39
aS'variable_12'
p40
ag15
aS'variable_10'
p41
ag37
aS'variable_7'
p42
ag27
aS'variable_7'
p43
ag18
aS'variable_10'
p44
ag37
aS'variable_8'
p45
ag27
aS'variable_8'
p46
ag18
aS'switch'
p47
ag4
aS'variable_10'
p48
ag37
aS'variable_7'
p49
ag15
aS'if'
p50
ag4
aS'variable_10'
p51
ag37
aS'variable_13'
p52
aS'=='
p53
aS'NULL'
p54
ag15
aS'variable_10'
p55
ag37
aS'variable_13'
p56
ag27
ag4
aS'struct'
p57
aS'e_in6_addr'
p58
ag6
ag15
aS'func_3'
p59
ag4
aS'variable_4'
p60
aS'->'
p61
aS'variable_14'
p62
ag8
aS'variable_10'
p63
ag37
aS'variable_8'
p64
ag6
aS'sizeof'
p65
ag4
aS'struct'
p66
aS'variable_15'
p67
ag15
ag15
ag18
aS'func_4'
p68
ag4
aS'variable_4'
p69
ag8
aS'variable_16'
p70
ag8
aS'&'
p71
aS'variable_17'
p72
ag8
aS'"'
p73
aS'Unknown'
p74
aS'address'
p75
aS'family'
p76
aS':'
p77
aS'%'
p78
aS'd'
p79
ag73
ag8
aS'variable_10'
p80
ag37
aS'variable_7'
p81
ag15
ag18
aS'if'
p82
ag4
ag4
aS'variable_10'
p83
ag37
aS'variable_11'
p84
aS'=='
p85
aS'variable_12'
p86
ag15
aS'&&'
p87
ag4
aS'variable_10'
p88
ag37
aS'variable_18'
p89
aS'!='
p90
aS'NULL'
p91
ag15
aS'&&'
p92
ag4
ag4
aS'variable_19'
p93
ag6
aS'variable_20'
p94
ag15
ag23
aS'variable_10'
p95
ag37
aS'variable_8'
p96
ag15
ag15
aS'variable_10'
p97
ag37
aS'variable_18'
p98
aS'['
p99
aS'variable_20'
p100
aS']'
p101
ag27
aS'func_5'
p102
ag4
aS'variable_1'
p103
ag8
aS'variable_2'
p104
ag15
ag18
aS'if'
p105
ag4
ag4
aS'variable_10'
p106
ag37
aS'variable_11'
p107
aS'=='
p108
aS'variable_12'
p109
ag15
aS'&&'
p110
ag4
aS'variable_10'
p111
ag37
aS'variable_13'
p112
aS'!='
p113
aS'NULL'
p114
ag15
aS'&&'
p115
ag4
aS'variable_20'
p116
ag23
aS'variable_10'
p117
ag37
aS'variable_8'
p118
ag15
ag15
aS'func_6'
p119
ag4
aS'variable_1'
p120
ag8
aS'variable_2'
p121
ag8
ag71
ag4
aS'variable_10'
p122
ag37
aS'variable_13'
p123
ag99
aS'variable_20'
p124
ag101
ag15
ag15
ag18
aS'variable_21'
p125
ag27
aS'func_7'
p126
ag4
aS'func_8'
p127
ag4
ag15
ag8
ag73
aS'unknown'
p128
aS'family'
p129
ag78
ag79
ag73
ag8
aS'variable_10'
p130
ag37
aS'variable_7'
p131
ag15
ag18
aS'variable_22'
p132
ag27
aS'func_9'
p133
ag4
aS'variable_23'
p134
ag8
aS'variable_24'
p135
ag8
aS'variable_1'
p136
ag8
aS'variable_2'
p137
ag8
aS'variable_19'
p138
ag8
aS'variable_21'
p139
ag8
ag73
ag78
ag79
ag77
ag78
aS's'
p140
ag73
ag8
aS'variable_20'
p141
aS'+'
p142
aS'1'
p143
ag8
aS'variable_21'
p144
ag15
ag18
aS'if'
p145
ag4
aS'variable_20'
p146
aS'>'
p147
aS'variable_10'
p148
ag37
aS'variable_8'
p149
ag15
aS'func_10'
p150
ag4
aS'variable_4'
p151
ag8
aS'variable_22'
p152
ag8
ag71
aS'variable_25'
p153
ag8
ag73
aS'Ran'
p154
aS'out'
p155
aS'of'
p156
aS'space'
p157
aS'to'
p158
aS'store'
p159
aS'address'
p160
ag73
ag15
ag18
aS'variable_10'
p161
ag37
aS'variable_11'
p162
ag27
aS'variable_26'
p163
ag18
aaa(lp164
I0
aa(lp165
I91
aa(lp166
(lp167
S'main'
p168
aaa(lp169
S'722 /home/SySeVR/data/CVE_2015_6249_PATCHED_dissect_wccp2r1_address_table_info.c wccp_wccp_address_table . table_ipv6 = ( struct e_in6_addr * ) wmem_alloc0 ( pinfo -> pool , wccp_wccp_address_table . table_length * sizeof ( struct e_in6_addr ) ) 50'
p170
aa.