(lp0
(lp1
(lp2
S'static'
p3
aS'void'
p4
aS'func_0'
p5
aS'('
p6
aS'struct'
p7
aS'variable_0'
p8
aS'*'
p9
aS'variable_1'
p10
aS')'
p11
aS'struct'
p12
aS'variable_2'
p13
ag9
aS'variable_3'
p14
aS'='
p15
aS'func_1'
p16
ag6
aS'variable_1'
p17
ag11
aS';'
p18
aS'struct'
p19
aS'variable_4'
p20
ag9
aS'variable_5'
p21
ag15
aS'func_2'
p22
ag6
aS'variable_1'
p23
ag11
ag18
aS'unsigned'
p24
aS'long'
p25
aS'variable_6'
p26
ag18
aS'unsigned'
p27
aS'long'
p28
aS'variable_7'
p29
ag18
aS'unsigned'
p30
aS'long'
p31
aS'variable_8'
p32
ag18
aS'if'
p33
ag6
aS'variable_5'
p34
ag11
aS'variable_7'
p35
ag15
aS'func_3'
p36
ag6
aS'variable_3'
p37
aS','
p38
aS'variable_1'
p39
ag38
aS'variable_1'
p40
aS'->'
p41
aS'variable_9'
p42
ag11
ag18
aS'variable_8'
p43
ag15
aS'func_4'
p44
ag6
aS'variable_3'
p45
ag38
aS'variable_1'
p46
ag38
aS'variable_1'
p47
aS'->'
p48
aS'variable_10'
p49
ag11
ag18
aS'variable_6'
p50
ag15
ag6
aS'variable_8'
p51
aS'-'
p52
aS'variable_7'
p53
ag11
ag52
aS'func_5'
p54
ag6
aS'&'
p55
aS'variable_5'
p56
aS'->'
p57
aS'variable_11'
p58
ag38
aS'variable_7'
p59
ag38
aS'variable_8'
p60
ag11
ag18
aS'if'
p61
ag6
aS'variable_6'
p62
ag11
aS'func_6'
p63
ag6
aS'variable_3'
p64
ag38
ag52
aS'variable_6'
p65
ag11
ag18
aS'func_7'
p66
ag6
aS'variable_12'
p67
ag38
aS'variable_6'
p68
ag11
ag18
aaa(lp69
I0
aa(lp70
I77
aa(lp71
(lp72
S'main'
p73
aaa(lp74
S'303 /home/SySeVR/data/CVE_2012_2390_PATCHED_hugetlb_vm_op_close.c reserve = ( end - start ) - region_count ( & reservations -> regions , start , end ) 14'
p75
aa.