(lp0
(lp1
(lp2
S'static'
p3
aS'struct'
p4
aS'variable_0'
p5
aS'*'
p6
aS'func_0'
p7
aS'('
p8
aS'unsigned'
p9
aS'long'
p10
aS'variable_1'
p11
aS')'
p12
aS'unsigned'
p13
aS'long'
p14
aS'variable_2'
p15
aS'='
p16
aS'variable_1'
p17
ag6
aS'sizeof'
p18
ag8
aS'struct'
p19
aS'page'
p20
ag6
ag12
aS';'
p21
aaa(lp22
I0
aa(lp23
I22
aa(lp24
(lp25
S'main'
p26
aaa(lp27
S'764 /home/SySeVR/data/CVE_2011_1747_PATCHED_agp_create_user_memory.c unsigned long alloc_size = num_agp_pages * sizeof ( struct page * ) ; 4'
p28
aa.