(lp0
(lp1
(lp2
S'variable_0'
p3
aS':'
p4
ag4
aS'func_0'
p5
aS'('
p6
aS'char'
p7
aS'*'
p8
ag8
aS'variable_1'
p9
aS')'
p10
aS'char'
p11
ag8
aS'variable_2'
p12
aS'='
p13
ag6
aS'char'
p14
ag8
ag10
aS'strchr'
p15
ag6
aS'variable_3'
p16
aS','
p17
aS"'"
p18
ag4
ag18
ag10
aS';'
p19
aS'if'
p20
ag6
aS'!'
p21
aS'variable_2'
p22
ag10
aS'if'
p23
ag6
ag21
aS'variable_4'
p24
ag4
ag4
aS'func_1'
p25
ag6
aS'variable_3'
p26
ag17
aS'variable_2'
p27
ag10
ag10
ag8
aS'variable_2'
p28
ag13
aS'0'
p29
ag19
aS'variable_2'
p30
ag13
aS'func_2'
p31
ag6
aS'++'
p32
aS'variable_2'
p33
ag17
aS'variable_5'
p34
ag10
ag19
aS'char'
p35
ag8
aS'variable_6'
p36
ag13
aS'func_3'
p37
ag6
aS'variable_2'
p38
ag17
aS'variable_5'
p39
ag10
ag19
ag8
aS'++'
p40
aS'variable_6'
p41
ag13
ag29
ag19
ag8
aS'variable_1'
p42
ag13
aS'variable_2'
p43
ag19
aS'func_4'
p44
ag6
aS'variable_7'
p45
ag17
aS'func_5'
p46
ag6
aS'variable_2'
p47
ag17
aS'variable_6'
p48
aS'-'
p49
aS'variable_2'
p50
ag10
ag17
aS'variable_8'
p51
ag10
ag19
aaa(lp52
I0
aa(lp53
I19
aa(lp54
(lp55
S'main'
p56
aaa(lp57
S'646 /home/SySeVR/data/CVE_2011_3000_VULN_nsHttpHeaderArray__ParseHeaderLine.c strchr 20'
p58
aa.