(lp0
(lp1
(lp2
S'int'
p3
aS'func_0'
p4
aS'('
p5
aS'struct'
p6
aS'variable_0'
p7
aS'*'
p8
aS'variable_1'
p9
aS','
p10
aS'char'
p11
aS'variable_2'
p12
ag8
aS'variable_3'
p13
aS')'
p14
aS'struct'
p15
aS'variable_4'
p16
ag8
aS'variable_5'
p17
aS';'
p18
aS'struct'
p19
aS'variable_6'
p20
ag8
aS'variable_7'
p21
ag18
aS'struct'
p22
aS'variable_8'
p23
ag8
aS'variable_9'
p24
ag18
aS'int'
p25
aS'variable_10'
p26
ag18
aS'struct'
p27
aS'qeth_arp_query_info'
p28
aS'variable_11'
p29
aS'='
p30
aS'0'
p31
ag10
aS'if'
p32
ag5
aS'variable_1'
p33
aS'->'
p34
aS'variable_12'
p35
aS'.'
p36
aS'variable_13'
p37
ag14
aS'if'
p38
ag5
ag5
aS'!'
p39
aS'func_1'
p40
ag5
aS'variable_1'
p41
ag10
aS'variable_14'
p42
ag14
ag14
aS'&&'
p43
ag5
ag39
aS'variable_1'
p44
aS'->'
p45
aS'variable_15'
p46
ag36
aS'variable_16'
p47
ag14
ag14
aS'if'
p48
ag5
aS'func_2'
p49
ag5
aS'&'
p50
aS'variable_10'
p51
ag10
aS'variable_3'
p52
aS'+'
p53
aS'sizeof'
p54
ag5
aS'int'
p55
ag14
ag10
aS'sizeof'
p56
ag5
aS'int'
p57
ag14
ag14
ag14
aS'variable_9'
p58
ag30
aS'func_3'
p59
ag5
aS'variable_3'
p60
ag10
aS'variable_10'
p61
ag53
aS'sizeof'
p62
ag5
aS'struct'
p63
aS'variable_17'
p64
ag14
ag14
ag18
aS'if'
p65
ag5
aS'func_4'
p66
ag5
aS'variable_9'
p67
ag14
ag14
aS'variable_11'
p68
ag36
aS'variable_18'
p69
ag30
aS'variable_9'
p70
aS'->'
p71
aS'variable_19'
p72
ag36
aS'variable_20'
p73
ag18
aS'variable_11'
p74
ag36
aS'variable_3'
p75
ag30
aS'func_5'
p76
ag5
aS'variable_11'
p77
ag36
aS'variable_18'
p78
ag10
aS'variable_21'
p79
ag14
ag18
aS'if'
p80
ag5
ag39
aS'variable_11'
p81
ag36
aS'variable_3'
p82
ag14
aS'variable_5'
p83
ag30
aS'func_6'
p84
ag5
aS'variable_1'
p85
ag10
aS'variable_14'
p86
ag10
aS'variable_22'
p87
ag53
aS'variable_10'
p88
ag14
ag18
aS'variable_7'
p89
ag30
ag5
aS'struct'
p90
aS'qeth_ipa_cmd'
p91
ag8
ag14
ag5
aS'variable_5'
p92
aS'->'
p93
aS'variable_23'
p94
ag53
aS'variable_24'
p95
ag14
ag18
aS'memcpy'
p96
ag5
ag50
aS'variable_7'
p97
aS'->'
p98
aS'variable_23'
p99
ag36
aS'variable_25'
p100
ag36
aS'variable_23'
p101
ag36
aS'variable_26'
p102
ag10
ag50
aS'variable_9'
p103
aS'->'
p104
aS'variable_7'
p105
ag10
aS'variable_10'
p106
ag14
ag18
aaa(lp107
I1
aa(lp108
I166
aa(lp109
(lp110
S'main'
p111
aaa(lp112
S'547 /home/SySeVR/data/CVE_2013_6381_VULN_qeth_snmp_command.c memcpy 38'
p113
aa.