(lp0
(lp1
(lp2
S'int'
p3
aS'func_0'
p4
aS'('
p5
aS'struct'
p6
aS'variable_0'
p7
aS'*'
p8
aS'variable_1'
p9
aS','
p10
aS'char'
p11
aS'variable_2'
p12
ag8
aS'variable_3'
p13
aS')'
p14
aS'struct'
p15
aS'variable_4'
p16
ag8
aS'variable_5'
p17
aS';'
p18
aS'struct'
p19
aS'variable_6'
p20
ag8
aS'variable_7'
p21
ag18
aS'int'
p22
aS'variable_8'
p23
ag18
aS'struct'
p24
aS'qeth_arp_query_info'
p25
aS'variable_9'
p26
aS'='
p27
aS'0'
p28
ag10
aS'if'
p29
ag5
aS'variable_1'
p30
aS'->'
p31
aS'variable_10'
p32
aS'.'
p33
aS'variable_11'
p34
ag14
aS'if'
p35
ag5
ag5
aS'!'
p36
aS'func_1'
p37
ag5
aS'variable_1'
p38
ag10
aS'variable_12'
p39
ag14
ag14
aS'&&'
p40
ag5
ag36
aS'variable_1'
p41
aS'->'
p42
aS'variable_13'
p43
ag33
aS'variable_14'
p44
ag14
ag14
aS'if'
p45
ag5
aS'func_2'
p46
ag5
aS'&'
p47
aS'variable_8'
p48
ag10
aS'variable_3'
p49
aS'+'
p50
aS'sizeof'
p51
ag5
aS'int'
p52
ag14
ag10
aS'sizeof'
p53
ag5
aS'int'
p54
ag14
ag14
ag14
aS'variable_7'
p55
ag27
aS'func_3'
p56
ag5
aS'variable_3'
p57
ag10
aS'variable_8'
p58
ag50
aS'sizeof'
p59
ag5
aS'struct'
p60
aS'variable_15'
p61
ag14
ag14
ag18
aS'if'
p62
ag5
aS'func_4'
p63
ag5
aS'variable_7'
p64
ag14
ag14
aS'variable_9'
p65
ag33
aS'variable_16'
p66
ag27
aS'variable_7'
p67
aS'->'
p68
aS'variable_17'
p69
ag33
aS'variable_18'
p70
ag18
aS'variable_9'
p71
ag33
aS'variable_3'
p72
ag27
aS'func_5'
p73
ag5
aS'variable_9'
p74
ag33
aS'variable_16'
p75
ag10
aS'variable_19'
p76
ag14
ag18
aS'if'
p77
ag5
ag36
aS'variable_9'
p78
ag33
aS'variable_3'
p79
ag14
aS'variable_9'
p80
ag33
aS'variable_20'
p81
ag27
aS'sizeof'
p82
ag5
aS'struct'
p83
aS'variable_15'
p84
ag14
ag18
aS'variable_5'
p85
ag27
aS'func_6'
p86
ag5
aS'variable_1'
p87
ag10
aS'variable_12'
p88
ag10
aS'variable_21'
p89
ag50
aS'variable_8'
p90
ag14
ag18
aS'variable_22'
p91
ag27
aS'func_7'
p92
ag5
aS'variable_1'
p93
ag10
aS'variable_5'
p94
ag10
aS'variable_23'
p95
ag50
aS'variable_8'
p96
ag10
aS'variable_24'
p97
ag10
ag5
aS'void'
p98
ag8
ag14
ag47
aS'variable_9'
p99
ag14
ag18
aS'if'
p100
ag5
aS'variable_22'
p101
ag14
aS'func_8'
p102
ag5
aS'2'
p103
ag10
aS'"'
p104
aS'SNMP'
p105
aS'command'
p106
aS'failed'
p107
aS'on'
p108
aS'%'
p109
aS's'
p110
aS':'
p111
ag5
aS'0x'
p112
ag109
aS'x'
p113
ag14
aS'\\'
p114
aS'n'
p115
ag104
ag10
aS'func_9'
p116
ag5
aS'variable_1'
p117
ag14
ag10
aS'variable_22'
p118
ag14
ag18
aS'return'
p119
aS'variable_22'
p120
ag18
aa(lp121
S'int'
p122
aS'func_0'
p123
ag5
aS'struct'
p124
aS'variable_0'
p125
ag8
aS'variable_1'
p126
ag10
aS'char'
p127
aS'variable_2'
p128
ag8
aS'variable_3'
p129
ag14
aS'struct'
p130
aS'variable_4'
p131
ag8
aS'variable_5'
p132
ag18
aS'struct'
p133
aS'variable_6'
p134
ag8
aS'variable_7'
p135
ag18
aS'struct'
p136
aS'variable_8'
p137
ag8
aS'variable_9'
p138
ag18
aS'int'
p139
aS'variable_10'
p140
ag18
aS'struct'
p141
aS'qeth_arp_query_info'
p142
aS'variable_11'
p143
ag27
ag28
ag10
aS'if'
p144
ag5
aS'variable_1'
p145
aS'->'
p146
aS'variable_12'
p147
ag33
aS'variable_13'
p148
ag14
aS'if'
p149
ag5
ag5
ag36
aS'func_1'
p150
ag5
aS'variable_1'
p151
ag10
aS'variable_14'
p152
ag14
ag14
aS'&&'
p153
ag5
ag36
aS'variable_1'
p154
aS'->'
p155
aS'variable_15'
p156
ag33
aS'variable_16'
p157
ag14
ag14
aS'if'
p158
ag5
aS'func_2'
p159
ag5
ag47
aS'variable_10'
p160
ag10
aS'variable_3'
p161
ag50
aS'sizeof'
p162
ag5
aS'int'
p163
ag14
ag10
aS'sizeof'
p164
ag5
aS'int'
p165
ag14
ag14
ag14
aS'variable_9'
p166
ag27
aS'func_3'
p167
ag5
aS'variable_3'
p168
ag10
aS'variable_10'
p169
ag50
aS'sizeof'
p170
ag5
aS'struct'
p171
aS'variable_17'
p172
ag14
ag14
ag18
aS'if'
p173
ag5
aS'func_4'
p174
ag5
aS'variable_9'
p175
ag14
ag14
aS'variable_11'
p176
ag33
aS'variable_18'
p177
ag27
aS'variable_9'
p178
aS'->'
p179
aS'variable_19'
p180
ag33
aS'variable_20'
p181
ag18
aS'variable_11'
p182
ag33
aS'variable_3'
p183
ag27
aS'func_5'
p184
ag5
aS'variable_11'
p185
ag33
aS'variable_18'
p186
ag10
aS'variable_21'
p187
ag14
ag18
aS'if'
p188
ag5
ag36
aS'variable_11'
p189
ag33
aS'variable_3'
p190
ag14
aS'variable_5'
p191
ag27
aS'func_6'
p192
ag5
aS'variable_1'
p193
ag10
aS'variable_14'
p194
ag10
aS'variable_22'
p195
ag50
aS'variable_10'
p196
ag14
ag18
aS'variable_7'
p197
ag27
ag5
aS'struct'
p198
aS'qeth_ipa_cmd'
p199
ag8
ag14
ag5
aS'variable_5'
p200
aS'->'
p201
aS'variable_23'
p202
ag50
aS'variable_24'
p203
ag14
ag18
aS'memcpy'
p204
ag5
ag47
aS'variable_7'
p205
aS'->'
p206
aS'variable_23'
p207
ag33
aS'variable_25'
p208
ag33
aS'variable_23'
p209
ag33
aS'variable_26'
p210
ag10
ag47
aS'variable_9'
p211
aS'->'
p212
aS'variable_7'
p213
ag10
aS'variable_10'
p214
ag14
ag18
aa(lp215
S'int'
p216
aS'func_0'
p217
ag5
aS'struct'
p218
aS'variable_0'
p219
ag8
aS'variable_1'
p220
ag10
aS'char'
p221
aS'variable_2'
p222
ag8
aS'variable_3'
p223
ag14
aS'struct'
p224
aS'variable_4'
p225
ag8
aS'variable_5'
p226
ag18
aS'struct'
p227
aS'variable_6'
p228
ag8
aS'variable_7'
p229
ag18
aS'int'
p230
aS'variable_8'
p231
ag18
aS'struct'
p232
aS'qeth_arp_query_info'
p233
aS'variable_9'
p234
ag27
ag28
ag10
aS'if'
p235
ag5
aS'variable_1'
p236
aS'->'
p237
aS'variable_10'
p238
ag33
aS'variable_11'
p239
ag14
aS'if'
p240
ag5
ag5
ag36
aS'func_1'
p241
ag5
aS'variable_1'
p242
ag10
aS'variable_12'
p243
ag14
ag14
aS'&&'
p244
ag5
ag36
aS'variable_1'
p245
aS'->'
p246
aS'variable_13'
p247
ag33
aS'variable_14'
p248
ag14
ag14
aS'if'
p249
ag5
aS'func_2'
p250
ag5
ag47
aS'variable_8'
p251
ag10
aS'variable_3'
p252
ag50
aS'sizeof'
p253
ag5
aS'int'
p254
ag14
ag10
aS'sizeof'
p255
ag5
aS'int'
p256
ag14
ag14
ag14
aS'variable_7'
p257
ag27
aS'func_3'
p258
ag5
aS'variable_3'
p259
ag10
aS'variable_8'
p260
ag50
aS'sizeof'
p261
ag5
aS'struct'
p262
aS'variable_15'
p263
ag14
ag14
ag18
aS'if'
p264
ag5
aS'func_4'
p265
ag5
aS'variable_7'
p266
ag14
ag14
aS'variable_9'
p267
ag33
aS'variable_16'
p268
ag27
aS'variable_7'
p269
aS'->'
p270
aS'variable_17'
p271
ag33
aS'variable_18'
p272
ag18
aS'variable_9'
p273
ag33
aS'variable_3'
p274
ag27
aS'func_5'
p275
ag5
aS'variable_9'
p276
ag33
aS'variable_16'
p277
ag10
aS'variable_19'
p278
ag14
ag18
aS'if'
p279
ag5
ag36
aS'variable_9'
p280
ag33
aS'variable_3'
p281
ag14
aS'variable_5'
p282
ag27
aS'func_6'
p283
ag5
aS'variable_1'
p284
ag10
aS'variable_12'
p285
ag10
aS'variable_20'
p286
ag50
aS'variable_8'
p287
ag14
ag18
aS'variable_21'
p288
ag27
ag5
aS'struct'
p289
aS'qeth_ipa_cmd'
p290
ag8
ag14
ag5
aS'variable_5'
p291
aS'->'
p292
aS'variable_22'
p293
ag50
aS'variable_23'
p294
ag14
ag18
aS'memcpy'
p295
ag5
ag47
aS'variable_21'
p296
aS'->'
p297
aS'variable_22'
p298
ag33
aS'variable_24'
p299
ag33
aS'variable_22'
p300
ag33
aS'variable_25'
p301
ag10
ag47
aS'variable_7'
p302
aS'->'
p303
aS'variable_21'
p304
ag10
aS'variable_8'
p305
ag14
ag18
aS'variable_26'
p306
ag27
aS'func_7'
p307
ag5
aS'variable_1'
p308
ag10
aS'variable_5'
p309
ag10
aS'variable_27'
p310
ag50
aS'variable_8'
p311
ag10
aS'variable_28'
p312
ag10
ag5
aS'void'
p313
ag8
ag14
ag47
aS'variable_9'
p314
ag14
ag18
aS'if'
p315
ag5
aS'variable_26'
p316
ag14
aS'func_8'
p317
ag5
ag103
ag10
ag104
aS'SNMP'
p318
aS'command'
p319
aS'failed'
p320
aS'on'
p321
ag109
ag110
ag111
ag5
aS'0x'
p322
ag109
ag113
ag14
ag114
ag115
ag104
ag10
aS'func_9'
p323
ag5
aS'variable_1'
p324
ag14
ag10
aS'variable_26'
p325
ag14
ag18
aS'return'
p326
aS'variable_26'
p327
ag18
aa(lp328
S'int'
p329
aS'func_0'
p330
ag5
aS'struct'
p331
aS'variable_0'
p332
ag8
aS'variable_1'
p333
ag10
aS'char'
p334
aS'variable_2'
p335
ag8
aS'variable_3'
p336
ag14
aS'struct'
p337
aS'variable_4'
p338
ag8
aS'variable_5'
p339
ag18
aS'int'
p340
aS'variable_6'
p341
ag18
aS'if'
p342
ag5
aS'variable_1'
p343
aS'->'
p344
aS'variable_7'
p345
ag33
aS'variable_8'
p346
ag14
aS'if'
p347
ag5
ag5
ag36
aS'func_1'
p348
ag5
aS'variable_1'
p349
ag10
aS'variable_9'
p350
ag14
ag14
aS'&&'
p351
ag5
ag36
aS'variable_1'
p352
aS'->'
p353
aS'variable_10'
p354
ag33
aS'variable_11'
p355
ag14
ag14
aS'if'
p356
ag5
aS'func_2'
p357
ag5
ag47
aS'variable_6'
p358
ag10
aS'variable_3'
p359
ag50
aS'sizeof'
p360
ag5
aS'int'
p361
ag14
ag10
aS'sizeof'
p362
ag5
aS'int'
p363
ag14
ag14
ag14
aS'variable_5'
p364
ag27
aS'func_3'
p365
ag5
aS'variable_3'
p366
ag10
aS'variable_6'
p367
ag50
aS'sizeof'
p368
ag5
aS'struct'
p369
aS'variable_12'
p370
ag14
ag14
ag18
aS'if'
p371
ag5
aS'func_4'
p372
ag5
aS'variable_5'
p373
ag14
ag14
aS'return'
p374
aS'func_5'
p375
ag5
aS'variable_5'
p376
ag14
ag18
aS'variable_13'
p377
ag33
aS'variable_14'
p378
ag27
aS'variable_5'
p379
aS'->'
p380
aS'variable_15'
p381
ag33
aS'variable_16'
p382
ag18
aS'variable_13'
p383
ag33
aS'variable_3'
p384
ag27
aS'func_6'
p385
ag5
aS'variable_13'
p386
ag33
aS'variable_14'
p387
ag10
aS'variable_17'
p388
ag14
ag18
aS'if'
p389
ag5
ag36
aS'variable_13'
p390
ag33
aS'variable_3'
p391
ag14
aS'kfree'
p392
ag5
aS'variable_5'
p393
ag14
ag18
aS'variable_13'
p394
ag33
aS'variable_18'
p395
ag27
aS'sizeof'
p396
ag5
aS'struct'
p397
aS'variable_12'
p398
ag14
ag18
aS'memcpy'
p399
ag5
ag47
aS'variable_19'
p400
aS'->'
p401
aS'variable_20'
p402
ag33
aS'variable_21'
p403
ag33
aS'variable_20'
p404
ag33
aS'variable_22'
p405
ag10
ag47
aS'variable_5'
p406
aS'->'
p407
aS'variable_19'
p408
ag10
aS'variable_6'
p409
ag14
ag18
aS'variable_23'
p410
ag27
aS'func_7'
p411
ag5
aS'variable_1'
p412
ag10
aS'variable_24'
p413
ag10
aS'variable_25'
p414
ag50
aS'variable_6'
p415
ag10
aS'variable_26'
p416
ag10
ag5
aS'void'
p417
ag8
ag14
ag47
aS'variable_13'
p418
ag14
ag18
aS'if'
p419
ag5
aS'variable_23'
p420
ag14
aS'func_8'
p421
ag5
ag103
ag10
ag104
aS'SNMP'
p422
aS'command'
p423
aS'failed'
p424
aS'on'
p425
ag109
ag110
ag111
ag5
aS'0x'
p426
ag109
ag113
ag14
ag114
ag115
ag104
ag10
aS'func_9'
p427
ag5
aS'variable_1'
p428
ag14
ag10
aS'variable_23'
p429
ag14
ag18
aS'if'
p430
ag5
aS'func_10'
p431
ag5
aS'variable_3'
p432
ag10
aS'variable_13'
p433
ag33
aS'variable_3'
p434
ag10
aS'variable_13'
p435
ag33
aS'variable_14'
p436
ag14
ag14
aS'kfree'
p437
ag5
aS'variable_5'
p438
ag14
ag18
aS'kfree'
p439
ag5
aS'variable_13'
p440
ag33
aS'variable_3'
p441
ag14
ag18
aS'return'
p442
aS'variable_23'
p443
ag18
aaa(lp444
I1
aI1
aI1
aI1
aa(lp445
I173
aI157
aI144
aI82
aa(lp446
(lp447
S'main'
p448
aa(lp449
g448
aa(lp450
g448
aa(lp451
g448
aaa(lp452
S'547 /home/SySeVR/data/CVE_2013_6381_VULN_qeth_snmp_command.c rc = qeth_send_ipa_snmp_cmd ( card , iob , QETH_SETADP_BASE_LEN + req_len , qeth_snmp_command_cb , ( void * ) & qinfo ) 39'
p453
aS'548 /home/SySeVR/data/CVE_2013_6381_VULN_qeth_snmp_command.c cmd = ( struct qeth_ipa_cmd * ) ( iob -> data + IPA_PDU_HEADER_SIZE ) 37'
p454
aS'549 /home/SySeVR/data/CVE_2013_6381_VULN_qeth_snmp_command.c iob = qeth_get_adapter_cmd ( card , IPA_SETADP_SET_SNMP_CONTROL , QETH_SNMP_SETADP_CMDLENGTH + req_len ) 35'
p455
aS'550 /home/SySeVR/data/CVE_2013_6381_VULN_qeth_snmp_command.c ureq = memdup_user ( udata , req_len + sizeof ( struct qeth_snmp_ureq_hdr ) ) 22'
p456
aa.