(lp0
(lp1
(lp2
S'int'
p3
aS'func_0'
p4
aS'('
p5
aS'struct'
p6
aS'variable_0'
p7
aS'*'
p8
aS'variable_1'
p9
aS','
p10
aS'char'
p11
aS'variable_2'
p12
ag8
aS'variable_3'
p13
aS')'
p14
aS'struct'
p15
aS'variable_4'
p16
ag8
aS'variable_5'
p17
aS';'
p18
aS'struct'
p19
aS'variable_6'
p20
ag8
aS'variable_7'
p21
ag18
aS'struct'
p22
aS'variable_8'
p23
ag8
aS'variable_9'
p24
ag18
aS'unsigned'
p25
aS'int'
p26
aS'variable_10'
p27
ag18
aS'struct'
p28
aS'qeth_arp_query_info'
p29
aS'variable_11'
p30
aS'='
p31
aS'0'
p32
ag10
aS'if'
p33
ag5
aS'variable_1'
p34
aS'->'
p35
aS'variable_12'
p36
aS'.'
p37
aS'variable_13'
p38
ag14
aS'if'
p39
ag5
ag5
aS'!'
p40
aS'func_1'
p41
ag5
aS'variable_1'
p42
ag10
aS'variable_14'
p43
ag14
ag14
aS'&&'
p44
ag5
ag40
aS'variable_1'
p45
aS'->'
p46
aS'variable_15'
p47
ag37
aS'variable_16'
p48
ag14
ag14
aS'if'
p49
ag5
aS'func_2'
p50
ag5
aS'&'
p51
aS'variable_10'
p52
ag10
aS'variable_3'
p53
aS'+'
p54
aS'sizeof'
p55
ag5
aS'int'
p56
ag14
ag10
aS'sizeof'
p57
ag5
aS'int'
p58
ag14
ag14
ag14
aS'if'
p59
ag5
aS'variable_10'
p60
aS'>'
p61
ag5
aS'variable_17'
p62
aS'-'
p63
aS'variable_18'
p64
ag63
aS'sizeof'
p65
ag5
aS'struct'
p66
aS'variable_19'
p67
ag14
ag63
aS'sizeof'
p68
ag5
aS'struct'
p69
aS'variable_20'
p70
ag14
ag14
ag14
aS'variable_9'
p71
ag31
aS'func_3'
p72
ag5
aS'variable_3'
p73
ag10
aS'variable_10'
p74
ag54
aS'sizeof'
p75
ag5
aS'struct'
p76
aS'variable_21'
p77
ag14
ag14
ag18
aS'if'
p78
ag5
aS'func_4'
p79
ag5
aS'variable_9'
p80
ag14
ag14
aS'variable_11'
p81
ag37
aS'variable_22'
p82
ag31
aS'variable_9'
p83
aS'->'
p84
aS'variable_23'
p85
ag37
aS'variable_24'
p86
ag18
aS'variable_11'
p87
ag37
aS'variable_3'
p88
ag31
aS'func_5'
p89
ag5
aS'variable_11'
p90
ag37
aS'variable_22'
p91
ag10
aS'variable_25'
p92
ag14
ag18
aS'if'
p93
ag5
ag40
aS'variable_11'
p94
ag37
aS'variable_3'
p95
ag14
aS'variable_5'
p96
ag31
aS'func_6'
p97
ag5
aS'variable_1'
p98
ag10
aS'variable_14'
p99
ag10
aS'variable_26'
p100
ag54
aS'variable_10'
p101
ag14
ag18
aS'variable_7'
p102
ag31
ag5
aS'struct'
p103
aS'qeth_ipa_cmd'
p104
ag8
ag14
ag5
aS'variable_5'
p105
aS'->'
p106
aS'variable_27'
p107
ag54
aS'variable_18'
p108
ag14
ag18
aS'memcpy'
p109
ag5
ag51
aS'variable_7'
p110
aS'->'
p111
aS'variable_27'
p112
ag37
aS'variable_28'
p113
ag37
aS'variable_27'
p114
ag37
aS'variable_29'
p115
ag10
ag51
aS'variable_9'
p116
aS'->'
p117
aS'variable_7'
p118
ag10
aS'variable_10'
p119
ag14
ag18
aaa(lp120
I0
aa(lp121
I189
aa(lp122
(lp123
S'main'
p124
aaa(lp125
S'546 /home/SySeVR/data/CVE_2013_6381_PATCHED_qeth_snmp_command.c memcpy 42'
p126
aa.