(lp0
(lp1
(lp2
S'int'
p3
aS'func_0'
p4
aS'('
p5
aS'struct'
p6
aS'variable_0'
p7
aS'*'
p8
aS'variable_1'
p9
aS','
p10
aS'char'
p11
aS'variable_2'
p12
ag8
aS'variable_3'
p13
aS')'
p14
aS'struct'
p15
aS'variable_4'
p16
ag8
aS'variable_5'
p17
aS';'
p18
aS'struct'
p19
aS'variable_6'
p20
ag8
aS'variable_7'
p21
ag18
aS'unsigned'
p22
aS'int'
p23
aS'variable_8'
p24
ag18
aS'struct'
p25
aS'qeth_arp_query_info'
p26
aS'variable_9'
p27
aS'='
p28
aS'0'
p29
ag10
aS'if'
p30
ag5
aS'variable_1'
p31
aS'->'
p32
aS'variable_10'
p33
aS'.'
p34
aS'variable_11'
p35
ag14
aS'if'
p36
ag5
ag5
aS'!'
p37
aS'func_1'
p38
ag5
aS'variable_1'
p39
ag10
aS'variable_12'
p40
ag14
ag14
aS'&&'
p41
ag5
ag37
aS'variable_1'
p42
aS'->'
p43
aS'variable_13'
p44
ag34
aS'variable_14'
p45
ag14
ag14
aS'if'
p46
ag5
aS'func_2'
p47
ag5
aS'&'
p48
aS'variable_8'
p49
ag10
aS'variable_3'
p50
aS'+'
p51
aS'sizeof'
p52
ag5
aS'int'
p53
ag14
ag10
aS'sizeof'
p54
ag5
aS'int'
p55
ag14
ag14
ag14
aS'if'
p56
ag5
aS'variable_8'
p57
aS'>'
p58
ag5
aS'variable_15'
p59
aS'-'
p60
aS'variable_16'
p61
ag60
aS'sizeof'
p62
ag5
aS'struct'
p63
aS'variable_17'
p64
ag14
ag60
aS'sizeof'
p65
ag5
aS'struct'
p66
aS'variable_18'
p67
ag14
ag14
ag14
aS'variable_7'
p68
ag28
aS'func_3'
p69
ag5
aS'variable_3'
p70
ag10
aS'variable_8'
p71
ag51
aS'sizeof'
p72
ag5
aS'struct'
p73
aS'variable_19'
p74
ag14
ag14
ag18
aS'if'
p75
ag5
aS'func_4'
p76
ag5
aS'variable_7'
p77
ag14
ag14
aS'variable_9'
p78
ag34
aS'variable_20'
p79
ag28
aS'variable_7'
p80
aS'->'
p81
aS'variable_21'
p82
ag34
aS'variable_22'
p83
ag18
aS'variable_9'
p84
ag34
aS'variable_3'
p85
ag28
aS'func_5'
p86
ag5
aS'variable_9'
p87
ag34
aS'variable_20'
p88
ag10
aS'variable_23'
p89
ag14
ag18
aS'if'
p90
ag5
ag37
aS'variable_9'
p91
ag34
aS'variable_3'
p92
ag14
aS'variable_9'
p93
ag34
aS'variable_24'
p94
ag28
aS'sizeof'
p95
ag5
aS'struct'
p96
aS'variable_19'
p97
ag14
ag18
aS'variable_5'
p98
ag28
aS'func_6'
p99
ag5
aS'variable_1'
p100
ag10
aS'variable_12'
p101
ag10
aS'variable_25'
p102
ag51
aS'variable_8'
p103
ag14
ag18
aS'variable_26'
p104
ag28
aS'func_7'
p105
ag5
aS'variable_1'
p106
ag10
aS'variable_5'
p107
ag10
aS'variable_27'
p108
ag51
aS'variable_8'
p109
ag10
aS'variable_28'
p110
ag10
ag5
aS'void'
p111
ag8
ag14
ag48
aS'variable_9'
p112
ag14
ag18
aS'if'
p113
ag5
aS'variable_26'
p114
ag14
aS'func_8'
p115
ag5
aS'2'
p116
ag10
aS'"'
p117
aS'SNMP'
p118
aS'command'
p119
aS'failed'
p120
aS'on'
p121
aS'%'
p122
aS's'
p123
aS':'
p124
ag5
aS'0x'
p125
ag122
aS'x'
p126
ag14
aS'\\'
p127
aS'n'
p128
ag117
ag10
aS'func_9'
p129
ag5
aS'variable_1'
p130
ag14
ag10
aS'variable_26'
p131
ag14
ag18
aS'return'
p132
aS'variable_26'
p133
ag18
aa(lp134
S'int'
p135
aS'func_0'
p136
ag5
aS'struct'
p137
aS'variable_0'
p138
ag8
aS'variable_1'
p139
ag10
aS'char'
p140
aS'variable_2'
p141
ag8
aS'variable_3'
p142
ag14
aS'struct'
p143
aS'variable_4'
p144
ag8
aS'variable_5'
p145
ag18
aS'struct'
p146
aS'variable_6'
p147
ag8
aS'variable_7'
p148
ag18
aS'struct'
p149
aS'variable_8'
p150
ag8
aS'variable_9'
p151
ag18
aS'unsigned'
p152
aS'int'
p153
aS'variable_10'
p154
ag18
aS'struct'
p155
aS'qeth_arp_query_info'
p156
aS'variable_11'
p157
ag28
ag29
ag10
aS'if'
p158
ag5
aS'variable_1'
p159
aS'->'
p160
aS'variable_12'
p161
ag34
aS'variable_13'
p162
ag14
aS'if'
p163
ag5
ag5
ag37
aS'func_1'
p164
ag5
aS'variable_1'
p165
ag10
aS'variable_14'
p166
ag14
ag14
aS'&&'
p167
ag5
ag37
aS'variable_1'
p168
aS'->'
p169
aS'variable_15'
p170
ag34
aS'variable_16'
p171
ag14
ag14
aS'if'
p172
ag5
aS'func_2'
p173
ag5
ag48
aS'variable_10'
p174
ag10
aS'variable_3'
p175
ag51
aS'sizeof'
p176
ag5
aS'int'
p177
ag14
ag10
aS'sizeof'
p178
ag5
aS'int'
p179
ag14
ag14
ag14
aS'if'
p180
ag5
aS'variable_10'
p181
ag58
ag5
aS'variable_17'
p182
ag60
aS'variable_18'
p183
ag60
aS'sizeof'
p184
ag5
aS'struct'
p185
aS'variable_19'
p186
ag14
ag60
aS'sizeof'
p187
ag5
aS'struct'
p188
aS'variable_20'
p189
ag14
ag14
ag14
aS'variable_9'
p190
ag28
aS'func_3'
p191
ag5
aS'variable_3'
p192
ag10
aS'variable_10'
p193
ag51
aS'sizeof'
p194
ag5
aS'struct'
p195
aS'variable_21'
p196
ag14
ag14
ag18
aS'if'
p197
ag5
aS'func_4'
p198
ag5
aS'variable_9'
p199
ag14
ag14
aS'variable_11'
p200
ag34
aS'variable_22'
p201
ag28
aS'variable_9'
p202
aS'->'
p203
aS'variable_23'
p204
ag34
aS'variable_24'
p205
ag18
aS'variable_11'
p206
ag34
aS'variable_3'
p207
ag28
aS'func_5'
p208
ag5
aS'variable_11'
p209
ag34
aS'variable_22'
p210
ag10
aS'variable_25'
p211
ag14
ag18
aS'if'
p212
ag5
ag37
aS'variable_11'
p213
ag34
aS'variable_3'
p214
ag14
aS'variable_5'
p215
ag28
aS'func_6'
p216
ag5
aS'variable_1'
p217
ag10
aS'variable_14'
p218
ag10
aS'variable_26'
p219
ag51
aS'variable_10'
p220
ag14
ag18
aS'variable_7'
p221
ag28
ag5
aS'struct'
p222
aS'qeth_ipa_cmd'
p223
ag8
ag14
ag5
aS'variable_5'
p224
aS'->'
p225
aS'variable_27'
p226
ag51
aS'variable_18'
p227
ag14
ag18
aS'memcpy'
p228
ag5
ag48
aS'variable_7'
p229
aS'->'
p230
aS'variable_27'
p231
ag34
aS'variable_28'
p232
ag34
aS'variable_27'
p233
ag34
aS'variable_29'
p234
ag10
ag48
aS'variable_9'
p235
aS'->'
p236
aS'variable_7'
p237
ag10
aS'variable_10'
p238
ag14
ag18
aa(lp239
S'int'
p240
aS'func_0'
p241
ag5
aS'struct'
p242
aS'variable_0'
p243
ag8
aS'variable_1'
p244
ag10
aS'char'
p245
aS'variable_2'
p246
ag8
aS'variable_3'
p247
ag14
aS'struct'
p248
aS'variable_4'
p249
ag8
aS'variable_5'
p250
ag18
aS'struct'
p251
aS'variable_6'
p252
ag8
aS'variable_7'
p253
ag18
aS'unsigned'
p254
aS'int'
p255
aS'variable_8'
p256
ag18
aS'struct'
p257
aS'qeth_arp_query_info'
p258
aS'variable_9'
p259
ag28
ag29
ag10
aS'if'
p260
ag5
aS'variable_1'
p261
aS'->'
p262
aS'variable_10'
p263
ag34
aS'variable_11'
p264
ag14
aS'if'
p265
ag5
ag5
ag37
aS'func_1'
p266
ag5
aS'variable_1'
p267
ag10
aS'variable_12'
p268
ag14
ag14
aS'&&'
p269
ag5
ag37
aS'variable_1'
p270
aS'->'
p271
aS'variable_13'
p272
ag34
aS'variable_14'
p273
ag14
ag14
aS'if'
p274
ag5
aS'func_2'
p275
ag5
ag48
aS'variable_8'
p276
ag10
aS'variable_3'
p277
ag51
aS'sizeof'
p278
ag5
aS'int'
p279
ag14
ag10
aS'sizeof'
p280
ag5
aS'int'
p281
ag14
ag14
ag14
aS'if'
p282
ag5
aS'variable_8'
p283
ag58
ag5
aS'variable_15'
p284
ag60
aS'variable_16'
p285
ag60
aS'sizeof'
p286
ag5
aS'struct'
p287
aS'variable_17'
p288
ag14
ag60
aS'sizeof'
p289
ag5
aS'struct'
p290
aS'variable_18'
p291
ag14
ag14
ag14
aS'variable_7'
p292
ag28
aS'func_3'
p293
ag5
aS'variable_3'
p294
ag10
aS'variable_8'
p295
ag51
aS'sizeof'
p296
ag5
aS'struct'
p297
aS'variable_19'
p298
ag14
ag14
ag18
aS'if'
p299
ag5
aS'func_4'
p300
ag5
aS'variable_7'
p301
ag14
ag14
aS'variable_9'
p302
ag34
aS'variable_20'
p303
ag28
aS'variable_7'
p304
aS'->'
p305
aS'variable_21'
p306
ag34
aS'variable_22'
p307
ag18
aS'variable_9'
p308
ag34
aS'variable_3'
p309
ag28
aS'func_5'
p310
ag5
aS'variable_9'
p311
ag34
aS'variable_20'
p312
ag10
aS'variable_23'
p313
ag14
ag18
aS'if'
p314
ag5
ag37
aS'variable_9'
p315
ag34
aS'variable_3'
p316
ag14
aS'variable_5'
p317
ag28
aS'func_6'
p318
ag5
aS'variable_1'
p319
ag10
aS'variable_12'
p320
ag10
aS'variable_24'
p321
ag51
aS'variable_8'
p322
ag14
ag18
aS'variable_25'
p323
ag28
ag5
aS'struct'
p324
aS'qeth_ipa_cmd'
p325
ag8
ag14
ag5
aS'variable_5'
p326
aS'->'
p327
aS'variable_26'
p328
ag51
aS'variable_16'
p329
ag14
ag18
aS'memcpy'
p330
ag5
ag48
aS'variable_25'
p331
aS'->'
p332
aS'variable_26'
p333
ag34
aS'variable_27'
p334
ag34
aS'variable_26'
p335
ag34
aS'variable_28'
p336
ag10
ag48
aS'variable_7'
p337
aS'->'
p338
aS'variable_25'
p339
ag10
aS'variable_8'
p340
ag14
ag18
aS'variable_29'
p341
ag28
aS'func_7'
p342
ag5
aS'variable_1'
p343
ag10
aS'variable_5'
p344
ag10
aS'variable_30'
p345
ag51
aS'variable_8'
p346
ag10
aS'variable_31'
p347
ag10
ag5
aS'void'
p348
ag8
ag14
ag48
aS'variable_9'
p349
ag14
ag18
aS'if'
p350
ag5
aS'variable_29'
p351
ag14
aS'func_8'
p352
ag5
ag116
ag10
ag117
aS'SNMP'
p353
aS'command'
p354
aS'failed'
p355
aS'on'
p356
ag122
ag123
ag124
ag5
aS'0x'
p357
ag122
ag126
ag14
ag127
ag128
ag117
ag10
aS'func_9'
p358
ag5
aS'variable_1'
p359
ag14
ag10
aS'variable_29'
p360
ag14
ag18
aS'return'
p361
aS'variable_29'
p362
ag18
aa(lp363
S'int'
p364
aS'func_0'
p365
ag5
aS'struct'
p366
aS'variable_0'
p367
ag8
aS'variable_1'
p368
ag10
aS'char'
p369
aS'variable_2'
p370
ag8
aS'variable_3'
p371
ag14
aS'struct'
p372
aS'variable_4'
p373
ag8
aS'variable_5'
p374
ag18
aS'unsigned'
p375
aS'int'
p376
aS'variable_6'
p377
ag18
aS'if'
p378
ag5
aS'variable_1'
p379
aS'->'
p380
aS'variable_7'
p381
ag34
aS'variable_8'
p382
ag14
aS'if'
p383
ag5
ag5
ag37
aS'func_1'
p384
ag5
aS'variable_1'
p385
ag10
aS'variable_9'
p386
ag14
ag14
aS'&&'
p387
ag5
ag37
aS'variable_1'
p388
aS'->'
p389
aS'variable_10'
p390
ag34
aS'variable_11'
p391
ag14
ag14
aS'if'
p392
ag5
aS'func_2'
p393
ag5
ag48
aS'variable_6'
p394
ag10
aS'variable_3'
p395
ag51
aS'sizeof'
p396
ag5
aS'int'
p397
ag14
ag10
aS'sizeof'
p398
ag5
aS'int'
p399
ag14
ag14
ag14
aS'if'
p400
ag5
aS'variable_6'
p401
ag58
ag5
aS'variable_12'
p402
ag60
aS'variable_13'
p403
ag60
aS'sizeof'
p404
ag5
aS'struct'
p405
aS'variable_14'
p406
ag14
ag60
aS'sizeof'
p407
ag5
aS'struct'
p408
aS'variable_15'
p409
ag14
ag14
ag14
aS'variable_5'
p410
ag28
aS'func_3'
p411
ag5
aS'variable_3'
p412
ag10
aS'variable_6'
p413
ag51
aS'sizeof'
p414
ag5
aS'struct'
p415
aS'variable_16'
p416
ag14
ag14
ag18
aS'if'
p417
ag5
aS'func_4'
p418
ag5
aS'variable_5'
p419
ag14
ag14
aS'return'
p420
aS'func_5'
p421
ag5
aS'variable_5'
p422
ag14
ag18
aS'variable_17'
p423
ag34
aS'variable_18'
p424
ag28
aS'variable_5'
p425
aS'->'
p426
aS'variable_19'
p427
ag34
aS'variable_20'
p428
ag18
aS'variable_17'
p429
ag34
aS'variable_3'
p430
ag28
aS'func_6'
p431
ag5
aS'variable_17'
p432
ag34
aS'variable_18'
p433
ag10
aS'variable_21'
p434
ag14
ag18
aS'if'
p435
ag5
ag37
aS'variable_17'
p436
ag34
aS'variable_3'
p437
ag14
aS'kfree'
p438
ag5
aS'variable_5'
p439
ag14
ag18
aS'variable_17'
p440
ag34
aS'variable_22'
p441
ag28
aS'sizeof'
p442
ag5
aS'struct'
p443
aS'variable_16'
p444
ag14
ag18
aS'memcpy'
p445
ag5
ag48
aS'variable_23'
p446
aS'->'
p447
aS'variable_24'
p448
ag34
aS'variable_25'
p449
ag34
aS'variable_24'
p450
ag34
aS'variable_26'
p451
ag10
ag48
aS'variable_5'
p452
aS'->'
p453
aS'variable_23'
p454
ag10
aS'variable_6'
p455
ag14
ag18
aS'variable_27'
p456
ag28
aS'func_7'
p457
ag5
aS'variable_1'
p458
ag10
aS'variable_28'
p459
ag10
aS'variable_29'
p460
ag51
aS'variable_6'
p461
ag10
aS'variable_30'
p462
ag10
ag5
aS'void'
p463
ag8
ag14
ag48
aS'variable_17'
p464
ag14
ag18
aS'if'
p465
ag5
aS'variable_27'
p466
ag14
aS'func_8'
p467
ag5
ag116
ag10
ag117
aS'SNMP'
p468
aS'command'
p469
aS'failed'
p470
aS'on'
p471
ag122
ag123
ag124
ag5
aS'0x'
p472
ag122
ag126
ag14
ag127
ag128
ag117
ag10
aS'func_9'
p473
ag5
aS'variable_1'
p474
ag14
ag10
aS'variable_27'
p475
ag14
ag18
aS'if'
p476
ag5
aS'func_10'
p477
ag5
aS'variable_3'
p478
ag10
aS'variable_17'
p479
ag34
aS'variable_3'
p480
ag10
aS'variable_17'
p481
ag34
aS'variable_18'
p482
ag14
ag14
aS'kfree'
p483
ag5
aS'variable_5'
p484
ag14
ag18
aS'kfree'
p485
ag5
aS'variable_17'
p486
ag34
aS'variable_3'
p487
ag14
ag18
aS'return'
p488
aS'variable_27'
p489
ag18
aaa(lp490
I0
aI0
aI0
aI0
aa(lp491
I196
aI180
aI167
aI105
aa(lp492
(lp493
S'main'
p494
aa(lp495
g494
aa(lp496
g494
aa(lp497
g494
aaa(lp498
S'543 /home/SySeVR/data/CVE_2013_6381_PATCHED_qeth_snmp_command.c rc = qeth_send_ipa_snmp_cmd ( card , iob , QETH_SETADP_BASE_LEN + req_len , qeth_snmp_command_cb , ( void * ) & qinfo ) 43'
p499
aS'544 /home/SySeVR/data/CVE_2013_6381_PATCHED_qeth_snmp_command.c cmd = ( struct qeth_ipa_cmd * ) ( iob -> data + IPA_PDU_HEADER_SIZE ) 41'
p500
aS'545 /home/SySeVR/data/CVE_2013_6381_PATCHED_qeth_snmp_command.c iob = qeth_get_adapter_cmd ( card , IPA_SETADP_SET_SNMP_CONTROL , QETH_SNMP_SETADP_CMDLENGTH + req_len ) 39'
p501
aS'546 /home/SySeVR/data/CVE_2013_6381_PATCHED_qeth_snmp_command.c ureq = memdup_user ( udata , req_len + sizeof ( struct qeth_snmp_ureq_hdr ) ) 26'
p502
aa.