(lp0
(lp1
(lp2
S'func_0'
p3
aS'('
p4
aS'void'
p5
aS'*'
p6
aS'variable_0'
p7
aS')'
p8
aS'int'
p9
aS'variable_1'
p10
aS';'
p11
aS'if'
p12
ag4
aS'variable_2'
p13
ag8
aS'variable_1'
p14
aS'='
p15
aS'func_1'
p16
ag4
ag8
ag11
aS'NS_tchar'
p17
aS'variable_3'
p18
aS'['
p19
aS'variable_4'
p20
aS']'
p21
ag11
aS'variable_1'
p22
ag15
aS'func_2'
p23
ag4
aS'variable_3'
p24
aS','
p25
aS'sizeof'
p26
ag4
aS'variable_3'
p27
ag8
aS'/'
p28
aS'sizeof'
p29
ag4
aS'variable_3'
p30
ag19
aS'0'
p31
ag21
ag8
ag8
ag11
aS'if'
p32
ag4
aS'variable_1'
p33
aS'=='
p34
aS'variable_5'
p35
ag8
aS'variable_1'
p36
ag15
aS'variable_6'
p37
aS'.'
p38
aS'func_3'
p39
ag4
aS'variable_3'
p40
ag8
ag11
aS'if'
p41
ag4
aS'variable_1'
p42
aS'=='
p43
aS'variable_5'
p44
ag8
aS'variable_1'
p45
ag15
aS'variable_6'
p46
ag38
aS'func_4'
p47
ag4
ag8
ag11
aS'if'
p48
ag4
aS'variable_1'
p49
aS'=='
p50
aS'variable_5'
p51
ag8
aS'if'
p52
ag4
aS'variable_1'
p53
aS'=='
p54
aS'variable_5'
p55
ag8
aS'NS_tchar'
p56
aS'variable_7'
p57
ag19
aS'variable_8'
p58
ag21
ag11
aS'MARChannelStringTable'
p59
aS'variable_9'
p60
ag11
aS'if'
p61
ag4
aS'func_5'
p62
ag4
aS'variable_7'
p63
ag25
aS'&'
p64
aS'variable_9'
p65
ag8
aS'!='
p66
aS'variable_5'
p67
ag8
aS'variable_9'
p68
ag38
aS'variable_10'
p69
ag19
ag31
ag21
ag15
aS"'"
p70
aS'\\'
p71
ag31
ag70
ag11
aS'variable_1'
p72
ag15
aS'variable_6'
p73
ag38
aS'func_6'
p74
ag4
aS'variable_9'
p75
ag38
aS'variable_10'
p76
ag25
aS'variable_11'
p77
ag8
ag11
aS'if'
p78
ag4
aS'variable_1'
p79
aS'=='
p80
aS'variable_5'
p81
aS'&&'
p82
aS'variable_12'
p83
aS'&&'
p84
aS'!'
p85
aS'variable_13'
p86
ag8
aS'variable_1'
p87
ag15
aS'func_7'
p88
ag4
ag8
ag11
aS'if'
p89
ag4
aS'variable_1'
p90
aS'=='
p91
aS'variable_5'
p92
ag8
aS'variable_1'
p93
ag15
aS'func_8'
p94
ag4
ag8
ag11
aS'if'
p95
ag4
aS'variable_2'
p96
aS'&&'
p97
aS'variable_1'
p98
aS'&&'
p99
ag85
aS'getenv'
p100
ag4
aS'"'
p101
aS'MOZ_NO_REPLACE_FALLBACK'
p102
ag101
ag8
ag8
aaa(lp103
I0
aa(lp104
I168
aa(lp105
(lp106
S'main'
p107
aaa(lp108
S'911 /home/SySeVR/data/CVE_2015_0833_VULN_UpdateThreadFunc.c getenv 54'
p109
aa.