(lp0
(lp1
(lp2
S'func_0'
p3
aS'('
p4
aS'void'
p5
aS'*'
p6
aS'variable_0'
p7
aS')'
p8
aS'int'
p9
aS'variable_1'
p10
aS';'
p11
aS'if'
p12
ag4
aS'variable_2'
p13
ag8
aS'NS_tchar'
p14
aS'variable_3'
p15
aS'['
p16
aS'variable_4'
p17
aS']'
p18
ag11
aS'variable_1'
p19
aS'='
p20
aS'func_1'
p21
ag4
aS'variable_3'
p22
aS','
p23
aS'sizeof'
p24
ag4
aS'variable_3'
p25
ag8
aS'/'
p26
aS'sizeof'
p27
ag4
aS'variable_3'
p28
ag16
aS'0'
p29
ag18
ag8
ag8
ag11
aS'if'
p30
ag4
aS'variable_1'
p31
aS'=='
p32
aS'variable_5'
p33
ag8
aS'variable_1'
p34
ag20
aS'variable_6'
p35
aS'.'
p36
aS'func_2'
p37
ag4
aS'variable_3'
p38
ag8
ag11
aS'if'
p39
ag4
aS'variable_1'
p40
aS'=='
p41
aS'variable_5'
p42
ag8
aS'variable_1'
p43
ag20
aS'variable_6'
p44
ag36
aS'func_3'
p45
ag4
ag8
ag11
aS'if'
p46
ag4
aS'variable_1'
p47
aS'=='
p48
aS'variable_5'
p49
ag8
aS'if'
p50
ag4
aS'variable_1'
p51
aS'=='
p52
aS'variable_5'
p53
ag8
aS'NS_tchar'
p54
aS'variable_7'
p55
ag16
aS'variable_8'
p56
ag18
ag11
aS'MARChannelStringTable'
p57
aS'variable_9'
p58
ag11
aS'if'
p59
ag4
aS'func_4'
p60
ag4
aS'variable_7'
p61
ag23
aS'&'
p62
aS'variable_9'
p63
ag8
aS'!='
p64
aS'variable_5'
p65
ag8
aS'variable_9'
p66
ag36
aS'variable_10'
p67
ag16
ag29
ag18
ag20
aS"'"
p68
aS'\\'
p69
ag29
ag68
ag11
aS'variable_1'
p70
ag20
aS'variable_6'
p71
ag36
aS'func_5'
p72
ag4
aS'variable_9'
p73
ag36
aS'variable_10'
p74
ag23
aS'variable_11'
p75
ag8
ag11
aS'if'
p76
ag4
aS'variable_1'
p77
aS'=='
p78
aS'variable_5'
p79
aS'&&'
p80
aS'variable_12'
p81
aS'&&'
p82
aS'!'
p83
aS'variable_13'
p84
ag8
aS'variable_1'
p85
ag20
aS'func_6'
p86
ag4
ag8
ag11
aS'if'
p87
ag4
aS'variable_1'
p88
aS'=='
p89
aS'variable_5'
p90
ag8
aS'NS_tchar'
p91
aS'variable_14'
p92
ag16
aS'variable_4'
p93
ag18
ag11
aS'func_7'
p94
ag4
aS'variable_14'
p95
ag23
aS'sizeof'
p96
ag4
aS'variable_14'
p97
ag8
ag26
aS'sizeof'
p98
ag4
aS'variable_14'
p99
ag16
ag29
ag18
ag8
ag23
aS'func_8'
p100
ag4
aS'"'
p101
aS'%'
p102
aS's'
p103
ag26
aS'updating'
p104
ag101
ag8
ag23
aS'variable_15'
p105
ag8
ag11
aa(lp106
S'func_0'
p107
ag4
aS'void'
p108
ag6
aS'variable_0'
p109
ag8
aS'int'
p110
aS'variable_1'
p111
ag11
aS'if'
p112
ag4
aS'variable_2'
p113
ag8
aS'NS_tchar'
p114
aS'variable_3'
p115
ag16
aS'variable_4'
p116
ag18
ag11
aS'variable_1'
p117
ag20
aS'func_1'
p118
ag4
aS'variable_3'
p119
ag23
aS'sizeof'
p120
ag4
aS'variable_3'
p121
ag8
ag26
aS'sizeof'
p122
ag4
aS'variable_3'
p123
ag16
ag29
ag18
ag8
ag8
ag11
aS'if'
p124
ag4
aS'variable_1'
p125
aS'=='
p126
aS'variable_5'
p127
ag8
aS'variable_1'
p128
ag20
aS'variable_6'
p129
ag36
aS'func_2'
p130
ag4
aS'variable_3'
p131
ag8
ag11
aS'if'
p132
ag4
aS'variable_1'
p133
aS'=='
p134
aS'variable_5'
p135
ag8
aS'variable_1'
p136
ag20
aS'variable_6'
p137
ag36
aS'func_3'
p138
ag4
ag8
ag11
aS'if'
p139
ag4
aS'variable_1'
p140
aS'=='
p141
aS'variable_5'
p142
ag8
aS'if'
p143
ag4
aS'variable_1'
p144
aS'=='
p145
aS'variable_5'
p146
ag8
aS'NS_tchar'
p147
aS'variable_7'
p148
ag16
aS'variable_8'
p149
ag18
ag11
aS'func_4'
p150
ag4
aS'variable_7'
p151
ag23
aS'sizeof'
p152
ag4
aS'variable_7'
p153
ag8
ag26
aS'sizeof'
p154
ag4
aS'variable_7'
p155
ag16
ag29
ag18
ag8
ag23
aS'func_5'
p156
ag4
ag101
ag102
ag103
ag26
aS'update'
p157
aS'-'
p158
aS'settings'
p159
ag36
aS'ini'
p160
ag101
ag8
ag23
aS'variable_9'
p161
ag8
ag11
aaa(lp162
I0
aI0
aa(lp163
I162
aI93
aa(lp164
(lp165
S'main'
p166
aa(lp167
g166
aaa(lp168
S'674 /home/SySeVR/data/CVE_2015_0833_VULN_UpdateThreadFunc.c NS_tsnprintf ( updatingDir , sizeof ( updatingDir ) / sizeof ( updatingDir [ 0 ] ) , NS_T ( "%s/updating" ) , gWorkingDirPath ) 47'
p169
aS'675 /home/SySeVR/data/CVE_2015_0833_VULN_UpdateThreadFunc.c NS_tsnprintf ( updateSettingsPath , sizeof ( updateSettingsPath ) / sizeof ( updateSettingsPath [ 0 ] ) , NS_T ( "%s/update-settings.ini" ) , gWorkingDirPath ) 23'
p170
aa.