(lp0
(lp1
(lp2
S'static'
p3
aS'int'
p4
aS'func_0'
p5
aS'('
p6
aS'unsigned'
p7
aS'char'
p8
aS'variable_0'
p9
aS','
p10
aS'size_t'
p11
aS'variable_1'
p12
ag10
aS'int'
p13
aS'variable_2'
p14
aS')'
p15
aS'struct'
p16
aS'variable_3'
p17
aS'*'
p18
aS'variable_4'
p19
aS'='
p20
aS'variable_5'
p21
aS'->'
p22
aS'variable_6'
p23
aS';'
p24
aS'variable_7'
p25
ag18
aS'variable_8'
p26
ag24
aS'if'
p27
ag6
aS'variable_9'
p28
aS'['
p29
aS'0'
p30
aS']'
p31
aS'!='
p32
aS'variable_10'
p33
ag15
aS'variable_8'
p34
ag20
aS'func_1'
p35
ag6
aS'variable_11'
p36
ag10
aS'variable_12'
p37
ag15
ag24
aS'if'
p38
ag6
aS'!'
p39
aS'variable_8'
p40
ag15
aS'if'
p41
ag6
aS'variable_1'
p42
aS'<'
p43
aS'variable_11'
p44
aS'-'
p45
aS'2'
p46
ag15
aS'variable_1'
p47
ag20
aS'variable_11'
p48
ag45
ag46
ag24
aS'variable_8'
p49
ag29
ag30
ag31
ag20
aS'variable_13'
p50
ag24
aS'variable_8'
p51
ag29
aS'1'
p52
ag31
ag20
aS'variable_4'
p53
aS'->'
p54
aS'variable_14'
p55
ag24
aS'memcpy'
p56
ag6
aS'variable_8'
p57
aS'+'
p58
ag46
ag10
aS'variable_9'
p59
ag10
aS'variable_1'
p60
ag15
ag24
aS'variable_15'
p61
ag20
aS'func_2'
p62
ag6
aS'variable_16'
p63
aS'->'
p64
aS'variable_17'
p65
ag10
aS'variable_8'
p66
ag29
ag30
ag31
ag10
aS'variable_8'
p67
ag10
aS'variable_11'
p68
ag10
aS'variable_18'
p69
ag10
aS'variable_2'
p70
ag15
ag24
aS'kfree'
p71
ag6
aS'variable_8'
p72
ag15
ag24
aS'return'
p73
aS'variable_15'
p74
ag24
aaa(lp75
I0
aa(lp76
I82
aa(lp77
(lp78
S'main'
p79
aaa(lp80
S'562 /home/SySeVR/data/CVE_2014_3183_VULN_logi_dj_ll_raw_request.c memcpy 23'
p81
aa.