(lp0
(lp1
(lp2
S'static'
p3
aS'int'
p4
aS'func_0'
p5
aS'('
p6
aS'variable_0'
p7
aS'*'
p8
aS'variable_1'
p9
aS','
p10
aS'void'
p11
ag8
aS'variable_2'
p12
ag10
aS'int'
p13
aS'variable_3'
p14
aS')'
p15
aS'variable_4'
p16
ag8
aS'variable_5'
p17
aS'='
p18
ag6
aS'OpenPICState'
p19
ag8
ag15
aS'variable_2'
p20
aS';'
p21
aS'unsigned'
p22
aS'int'
p23
aS'variable_6'
p24
ag10
aS'variable_7'
p25
ag21
aS'if'
p26
ag6
aS'variable_3'
p27
aS'!='
p28
aS'1'
p29
ag15
aS'if'
p30
ag6
aS'variable_5'
p31
aS'->'
p32
aS'variable_7'
p33
aS'!='
p34
aS'variable_7'
p35
ag15
aS'assert'
p36
ag6
aS'variable_7'
p37
aS'>'
p38
aS'0'
p39
aS'&&'
p40
aS'variable_7'
p41
aS'<'
p42
ag18
aS'variable_8'
p43
ag15
ag21
aaa(lp44
I0
aa(lp45
I45
aa(lp46
(lp47
S'main'
p48
aaa(lp49
S'697 /home/SySeVR/data/CVE_2013_4534_PATCHED_openpic_load.c assert 20'
p50
aa.