(lp0
(lp1
(lp2
S'int'
p3
aS'func_0'
p4
aS'('
p5
aS'struct'
p6
aS'variable_0'
p7
aS'*'
p8
aS'variable_1'
p9
aS','
p10
aS'struct'
p11
aS'variable_2'
p12
ag8
aS'variable_2'
p13
ag10
aS'int'
p14
aS'variable_3'
p15
aS')'
p16
aS'struct'
p17
aS'variable_4'
p18
ag8
aS'variable_5'
p19
aS';'
p20
aS'variable_6'
p21
ag8
aS'variable_7'
p22
ag10
ag8
aS'variable_8'
p23
aS'='
p24
aS'NULL'
p25
ag20
aS'variable_5'
p26
ag24
aS'func_1'
p27
ag5
aS'variable_2'
p28
ag10
aS'NULL'
p29
ag16
ag20
aS'if'
p30
ag5
aS'variable_5'
p31
aS'=='
p32
aS'NULL'
p33
ag16
aS'variable_7'
p34
ag24
ag5
aS'irq_guest_action_t'
p35
ag8
ag16
aS'variable_5'
p36
aS'->'
p37
aS'variable_7'
p38
ag20
aS'if'
p39
ag5
aS'!'
p40
ag5
aS'variable_5'
p41
aS'->'
p42
aS'variable_9'
p43
aS'&'
p44
aS'variable_10'
p45
ag16
ag16
aS'if'
p46
ag5
aS'variable_5'
p47
aS'->'
p48
aS'variable_7'
p49
aS'!='
p50
aS'NULL'
p51
ag16
aS'if'
p52
ag5
aS'variable_8'
p53
aS'=='
p54
aS'NULL'
p55
ag16
aS'if'
p56
ag5
ag5
aS'variable_8'
p57
ag24
aS'xmalloc'
p58
ag5
aS'variable_6'
p59
ag16
ag16
aS'!='
p60
aS'NULL'
p61
aS'&&'
p62
aS'func_2'
p63
ag5
ag44
aS'variable_8'
p64
aS'->'
p65
aS'variable_11'
p66
ag16
ag16
aS'func_3'
p67
ag5
aS'variable_8'
p68
ag16
ag20
aS'variable_7'
p69
ag24
aS'variable_8'
p70
ag20
aS'variable_5'
p71
aS'->'
p72
aS'variable_7'
p73
ag24
ag5
aS'struct'
p74
aS'irqaction'
p75
ag8
ag16
aS'variable_7'
p76
ag20
aS'variable_7'
p77
aS'->'
p78
aS'variable_12'
p79
ag24
aS'0'
p80
ag20
aS'variable_7'
p81
aS'->'
p82
aS'variable_13'
p83
ag24
ag80
ag20
aS'variable_7'
p84
aS'->'
p85
aS'variable_14'
p86
ag24
aS'variable_3'
p87
ag20
aS'variable_7'
p88
aS'->'
p89
aS'variable_15'
p90
ag24
aS'func_4'
p91
ag5
aS'variable_1'
p92
aS'->'
p93
aS'variable_16'
p94
ag10
aS'variable_2'
p95
aS'->'
p96
aS'variable_2'
p97
ag16
ag20
aS'func_5'
p98
ag5
ag44
aS'variable_7'
p99
aS'->'
p100
aS'variable_17'
p101
ag10
aS'variable_18'
p102
ag10
aS'variable_5'
p103
ag10
ag80
ag16
ag20
aS'variable_5'
p104
aS'->'
p105
aS'variable_9'
p106
aS'|'
p107
ag24
aS'variable_10'
p108
ag20
aS'variable_5'
p109
aS'->'
p110
aS'variable_9'
p111
ag44
ag24
aS'~'
p112
aS'variable_19'
p113
ag20
aS'variable_5'
p114
aS'->'
p115
aS'variable_20'
p116
aS'->'
p117
aS'func_6'
p118
ag5
aS'variable_5'
p119
ag16
ag20
aS'if'
p120
ag5
ag40
aS'variable_21'
p121
aS'&&'
p122
ag5
aS'variable_5'
p123
aS'->'
p124
aS'variable_20'
p125
aS'->'
p126
aS'variable_22'
p127
aS'!='
p128
aS'NULL'
p129
ag16
ag16
aS'variable_5'
p130
aS'->'
p131
aS'variable_20'
p132
aS'->'
p133
aS'func_7'
p134
ag5
aS'variable_5'
p135
ag10
aS'func_8'
p136
ag5
aS'variable_1'
p137
aS'->'
p138
aS'variable_23'
p139
ag16
ag16
ag20
aS'if'
p140
ag5
ag40
aS'variable_3'
p141
aS'||'
p142
ag40
aS'variable_7'
p143
aS'->'
p144
aS'variable_14'
p145
ag16
aS'if'
p146
ag5
aS'variable_7'
p147
aS'->'
p148
aS'variable_12'
p149
aS'=='
p150
ag80
ag16
aS'if'
p151
ag5
aS'variable_7'
p152
aS'->'
p153
aS'variable_12'
p154
aS'=='
p155
aS'variable_24'
p156
ag16
aS'variable_7'
p157
aS'->'
p158
aS'variable_25'
p159
aS'['
p160
aS'variable_7'
p161
aS'->'
p162
aS'variable_12'
p163
aS'++'
p164
aS']'
p165
ag24
aS'variable_1'
p166
aS'->'
p167
aS'variable_16'
p168
ag20
aS'if'
p169
ag5
aS'variable_7'
p170
aS'->'
p171
aS'variable_15'
p172
aS'!='
p173
aS'variable_26'
p174
ag16
aS'if'
p175
ag5
aS'variable_8'
p176
aS'!='
p177
aS'NULL'
p178
ag16
aS'func_9'
p179
ag5
aS'variable_8'
p180
aS'->'
p181
aS'variable_11'
p182
ag16
ag20
aS'func_10'
p183
ag5
aS'variable_8'
p184
ag16
ag20
aaa(lp185
I0
aa(lp186
I85
aa(lp187
(lp188
S'main'
p189
aaa(lp190
S'654 /home/SySeVR/data/CVE_2014_1642_VULN_pirq_guest_bind.c xmalloc 36'
p191
aa.