(lp0
(lp1
(lp2
S'int'
p3
aS'func_0'
p4
aS'('
p5
aS'struct'
p6
aS'variable_0'
p7
aS'*'
p8
aS'variable_1'
p9
aS','
p10
aS'struct'
p11
aS'variable_2'
p12
ag8
aS'variable_2'
p13
ag10
aS'int'
p14
aS'variable_3'
p15
aS')'
p16
aS'unsigned'
p17
aS'int'
p18
aS'variable_4'
p19
aS';'
p20
aS'struct'
p21
aS'variable_5'
p22
ag8
aS'variable_6'
p23
ag20
aS'variable_7'
p24
ag8
aS'variable_8'
p25
ag10
ag8
aS'variable_9'
p26
aS'='
p27
aS'NULL'
p28
ag20
aS'variable_6'
p29
ag27
aS'func_1'
p30
ag5
aS'variable_2'
p31
ag10
aS'NULL'
p32
ag16
ag20
aS'if'
p33
ag5
aS'variable_6'
p34
aS'=='
p35
aS'NULL'
p36
ag16
aS'variable_8'
p37
ag27
ag5
aS'irq_guest_action_t'
p38
ag8
ag16
aS'variable_6'
p39
aS'->'
p40
aS'variable_8'
p41
ag20
aS'variable_4'
p42
ag27
aS'variable_6'
p43
aS'-'
p44
aS'variable_5'
p45
ag20
aS'if'
p46
ag5
aS'!'
p47
ag5
aS'variable_6'
p48
aS'->'
p49
aS'variable_10'
p50
aS'&'
p51
aS'variable_11'
p52
ag16
ag16
aS'if'
p53
ag5
aS'variable_6'
p54
aS'->'
p55
aS'variable_8'
p56
aS'!='
p57
aS'NULL'
p58
ag16
aS'if'
p59
ag5
aS'variable_9'
p60
aS'=='
p61
aS'NULL'
p62
ag16
aS'if'
p63
ag5
ag5
aS'variable_9'
p64
ag27
aS'xmalloc'
p65
ag5
aS'variable_7'
p66
ag16
ag16
aS'!='
p67
aS'NULL'
p68
aS'&&'
p69
aS'func_2'
p70
ag5
ag51
aS'variable_9'
p71
aS'->'
p72
aS'variable_12'
p73
ag16
ag16
aS'if'
p74
ag5
ag47
aS'variable_3'
p75
aS'||'
p76
ag47
aS'variable_8'
p77
aS'->'
p78
aS'variable_13'
p79
ag16
aS'if'
p80
ag5
aS'variable_8'
p81
aS'->'
p82
aS'variable_14'
p83
aS'=='
p84
aS'0'
p85
ag16
aaa(lp86
I0
aa(lp87
I63
aa(lp88
(lp89
S'main'
p90
aaa(lp91
S'610 /home/SySeVR/data/CVE_2014_1642_VULN_pirq_guest_bind.c irq = desc - irq_desc 20'
p92
aa.