(lp0
(lp1
(lp2
S'static'
p3
aS'void'
p4
aS'*'
p5
aS'func_0'
p6
aS'('
p7
aS'void'
p8
ag5
aS'variable_0'
p9
aS')'
p10
aS'struct'
p11
aS'variable_1'
p12
ag5
aS'variable_2'
p13
aS'='
p14
aS'variable_0'
p15
aS';'
p16
aS'int'
p17
ag7
ag5
aS'variable_3'
p18
ag10
ag7
aS'SSL'
p19
ag5
ag10
ag14
ag7
aS'variable_2'
p20
aS'->'
p21
aS'variable_4'
p22
ag10
aS'?'
p23
aS'variable_5'
p24
aS':'
p25
aS'int'
p26
aS'variable_6'
p27
ag16
aS'if'
p28
ag7
aS'!'
p29
aS'variable_2'
p30
aS'->'
p31
aS'variable_7'
p32
aS'->'
p33
aS'variable_8'
p34
ag10
aS'variable_2'
p35
aS'->'
p36
aS'variable_9'
p37
ag14
aS'func_1'
p38
ag7
aS'variable_2'
p39
aS'->'
p40
aS'variable_10'
p41
aS','
p42
aS'"'
p43
aS'w'
p44
aS'+'
p45
ag43
ag10
ag16
aS'if'
p46
ag7
aS'variable_2'
p47
aS'->'
p48
aS'variable_11'
p49
ag14
aS'func_2'
p50
ag7
aS'variable_2'
p51
aS'->'
p52
aS'variable_7'
p53
aS'->'
p54
aS'variable_8'
p55
aS'->'
p56
aS'variable_12'
p57
ag10
ag10
aS'if'
p58
ag7
ag7
aS'variable_6'
p59
ag14
aS'func_3'
p60
ag7
aS'variable_2'
p61
aS'->'
p62
aS'variable_11'
p63
ag10
ag10
aS'<'
p64
ag14
aS'0'
p65
ag10
aS'variable_2'
p66
aS'->'
p67
aS'variable_9'
p68
ag14
aS'func_4'
p69
ag7
aS'variable_2'
p70
aS'->'
p71
aS'variable_11'
p72
ag42
aS'variable_13'
p73
ag42
aS'variable_14'
p74
ag42
aS'NULL'
p75
ag42
aS'variable_15'
p76
ag10
ag16
aS'if'
p77
ag7
ag7
aS'variable_2'
p78
aS'->'
p79
aS'variable_4'
p80
aS'&&'
p81
ag29
aS'func_5'
p82
ag7
aS'&'
p83
aS'variable_2'
p84
aS'->'
p85
aS'variable_7'
p86
aS'->'
p87
aS'variable_8'
p88
aS'->'
p89
aS'variable_16'
p90
ag42
aS'variable_17'
p91
ag10
ag10
aS'||'
p92
ag7
ag29
aS'variable_2'
p93
aS'->'
p94
aS'variable_4'
p95
aS'&&'
p96
aS'func_6'
p97
ag7
ag83
aS'variable_2'
p98
aS'->'
p99
aS'variable_7'
p100
aS'->'
p101
aS'variable_8'
p102
aS'->'
p103
aS'variable_16'
p104
ag42
aS'variable_18'
p105
ag10
ag10
ag10
aS'variable_19'
p106
ag5
aS'variable_20'
p107
ag16
aS'variable_20'
p108
ag14
aS'func_7'
p109
ag7
aS'variable_2'
p110
aS'->'
p111
aS'variable_11'
p112
ag10
ag16
aS'if'
p113
ag7
ag29
aS'func_8'
p114
ag7
ag83
aS'variable_2'
p115
aS'->'
p116
aS'variable_7'
p117
aS'->'
p118
aS'variable_8'
p119
aS'->'
p120
aS'variable_16'
p121
ag42
aS'variable_21'
p122
ag10
ag10
aS'unsigned'
p123
aS'char'
p124
ag5
aS'variable_22'
p125
ag16
aS'variable_23'
p126
ag5
aS'variable_24'
p127
ag14
aS'func_9'
p128
ag7
aS'variable_20'
p129
ag10
ag16
aS'int'
p130
aS'variable_25'
p131
ag14
aS'-'
p132
aS'1'
p133
ag16
aS'int'
p134
aS'variable_26'
p135
ag14
ag65
ag16
aS'variable_25'
p136
ag14
aS'func_10'
p137
ag7
aS'variable_24'
p138
ag42
aS'variable_27'
p139
ag42
aS'variable_25'
p140
ag10
ag16
aS'if'
p141
ag7
aS'variable_25'
p142
ag64
ag65
ag10
aS'if'
p143
ag7
aS'variable_22'
p144
ag10
aS'if'
p145
ag7
ag29
aS'func_11'
p146
ag7
aS'variable_2'
p147
aS'->'
p148
aS'variable_7'
p149
aS'->'
p150
aS'variable_28'
p151
ag42
ag7
aS'char'
p152
ag5
ag10
aS'variable_22'
p153
ag10
ag10
aS'variable_26'
p154
ag14
ag133
ag16
aS'if'
p155
ag7
aS'variable_26'
p156
ag10
aS'if'
p157
ag7
ag29
aS'variable_26'
p158
ag10
aS'if'
p159
ag7
ag29
aS'variable_2'
p160
aS'->'
p161
aS'variable_9'
p162
ag10
aS'func_12'
p163
ag7
aS'variable_2'
p164
aS'->'
p165
aS'variable_10'
p166
ag10
ag16
aa(lp167
S'static'
p168
aS'void'
p169
ag5
aS'func_0'
p170
ag7
aS'void'
p171
ag5
aS'variable_0'
p172
ag10
aS'struct'
p173
aS'variable_1'
p174
ag5
aS'variable_2'
p175
ag14
aS'variable_0'
p176
ag16
aS'int'
p177
ag7
ag5
aS'variable_3'
p178
ag10
ag7
aS'SSL'
p179
ag5
ag10
ag14
ag7
aS'variable_2'
p180
aS'->'
p181
aS'variable_4'
p182
ag10
ag23
aS'variable_5'
p183
ag25
aS'int'
p184
aS'variable_6'
p185
ag16
aS'if'
p186
ag7
ag29
aS'variable_2'
p187
aS'->'
p188
aS'variable_7'
p189
aS'->'
p190
aS'variable_8'
p191
ag10
aS'if'
p192
ag7
aS'variable_2'
p193
aS'->'
p194
aS'variable_9'
p195
ag14
aS'func_1'
p196
ag7
aS'variable_2'
p197
aS'->'
p198
aS'variable_7'
p199
aS'->'
p200
aS'variable_8'
p201
aS'->'
p202
aS'variable_10'
p203
ag10
ag10
aS'if'
p204
ag7
ag7
aS'variable_6'
p205
ag14
aS'func_2'
p206
ag7
aS'variable_2'
p207
aS'->'
p208
aS'variable_9'
p209
ag10
ag10
ag64
ag14
ag65
ag10
aS'variable_2'
p210
aS'->'
p211
aS'variable_11'
p212
ag14
aS'func_3'
p213
ag7
aS'variable_2'
p214
aS'->'
p215
aS'variable_9'
p216
ag42
aS'variable_12'
p217
ag42
aS'variable_13'
p218
ag42
aS'NULL'
p219
ag42
aS'variable_14'
p220
ag10
ag16
aS'if'
p221
ag7
ag7
aS'variable_2'
p222
aS'->'
p223
aS'variable_4'
p224
aS'&&'
p225
ag29
aS'func_4'
p226
ag7
ag83
aS'variable_2'
p227
aS'->'
p228
aS'variable_7'
p229
aS'->'
p230
aS'variable_8'
p231
aS'->'
p232
aS'variable_15'
p233
ag42
aS'variable_16'
p234
ag10
ag10
aS'||'
p235
ag7
ag29
aS'variable_2'
p236
aS'->'
p237
aS'variable_4'
p238
aS'&&'
p239
aS'func_5'
p240
ag7
ag83
aS'variable_2'
p241
aS'->'
p242
aS'variable_7'
p243
aS'->'
p244
aS'variable_8'
p245
aS'->'
p246
aS'variable_15'
p247
ag42
aS'variable_17'
p248
ag10
ag10
ag10
aS'variable_18'
p249
ag5
aS'variable_19'
p250
ag16
aS'variable_19'
p251
ag14
aS'func_6'
p252
ag7
aS'variable_2'
p253
aS'->'
p254
aS'variable_9'
p255
ag10
ag16
aS'if'
p256
ag7
ag29
aS'func_7'
p257
ag7
ag83
aS'variable_2'
p258
aS'->'
p259
aS'variable_7'
p260
aS'->'
p261
aS'variable_8'
p262
aS'->'
p263
aS'variable_15'
p264
ag42
aS'variable_20'
p265
ag10
ag10
aS'unsigned'
p266
aS'char'
p267
ag5
aS'variable_21'
p268
ag16
aS'variable_22'
p269
ag5
aS'variable_23'
p270
ag14
aS'func_8'
p271
ag7
aS'variable_19'
p272
ag10
ag16
aS'int'
p273
aS'variable_24'
p274
ag14
ag132
ag133
ag16
aS'int'
p275
aS'variable_25'
p276
ag14
ag65
ag16
aS'variable_24'
p277
ag14
aS'func_9'
p278
ag7
aS'variable_23'
p279
ag42
aS'variable_26'
p280
ag42
aS'variable_24'
p281
ag10
ag16
aS'if'
p282
ag7
aS'variable_24'
p283
ag64
ag65
ag10
aS'if'
p284
ag7
aS'variable_21'
p285
ag10
aS'if'
p286
ag7
ag29
aS'func_10'
p287
ag7
aS'variable_2'
p288
aS'->'
p289
aS'variable_7'
p290
aS'->'
p291
aS'variable_27'
p292
ag42
ag7
aS'char'
p293
ag5
ag10
aS'variable_21'
p294
ag10
ag10
aS'variable_25'
p295
ag14
ag133
ag16
aS'if'
p296
ag7
aS'variable_25'
p297
ag10
aS'if'
p298
ag7
ag29
aS'variable_25'
p299
ag10
aS'func_11'
p300
ag7
aS'variable_2'
p301
aS'->'
p302
aS'variable_28'
p303
ag10
ag16
aaa(lp304
I1
aI0
aa(lp305
I271
aI248
aa(lp306
(lp307
S'main'
p308
aa(lp309
g308
aaa(lp310
S'631 /home/SySeVR/data/CVE_2011_1175_VULN_handle_tcptls_connection.c close 89'
p311
aS'632 /home/SySeVR/data/CVE_2011_1175_VULN_handle_tcptls_connection.c close 73'
p312
aa.