(lp0
(lp1
(lp2
S'struct'
p3
aS'variable_0'
p4
aS'*'
p5
aS'func_0'
p6
aS'('
p7
aS'const'
p8
aS'char'
p9
ag5
aS'variable_1'
p10
aS','
p11
aS'bool'
p12
aS'variable_2'
p13
aS')'
p14
aS'struct'
p15
aS'variable_0'
p16
ag5
aS'variable_3'
p17
aS';'
p18
aS'int'
p19
aS'variable_4'
p20
ag18
aS'variable_3'
p21
aS'='
p22
aS'func_1'
p23
ag7
aS'-'
p24
aS'variable_5'
p25
ag14
ag18
aS'if'
p26
ag7
aS'!'
p27
aS'variable_1'
p28
ag14
aS'variable_4'
p29
ag22
aS'func_2'
p30
ag7
aS'variable_1'
p31
ag14
ag18
aS'if'
p32
ag7
aS'variable_6'
p33
aS'['
p34
aS'variable_4'
p35
aS']'
p36
aS'.'
p37
aS'variable_7'
p38
ag14
aS'if'
p39
ag7
aS'strcmp'
p40
ag7
aS'variable_3'
p41
aS'->'
p42
aS'variable_8'
p43
ag11
aS'variable_1'
p44
ag14
aS'!='
p45
aS'0'
p46
ag14
aaa(lp47
I0
aa(lp48
I52
aa(lp49
(lp50
S'main'
p51
aaa(lp52
S'730 /home/SySeVR/data/CVE_2010_1437_PATCHED_find_keyring_by_name.c strcmp 27'
p53
aa.