(lp0
(lp1
(lp2
S'static'
p3
aS'inline'
p4
aS'int'
p5
aS'func_0'
p6
aS'('
p7
aS'int'
p8
aS'func_1'
p9
ag7
aS'void'
p10
aS'*'
p11
aS'variable_0'
p12
aS','
p13
aS'char'
p14
ag11
aS'variable_1'
p15
ag13
aS'int'
p16
aS'variable_2'
p17
ag13
aS'int'
p18
aS'variable_3'
p19
ag13
aS'void'
p20
ag11
aS'variable_0'
p21
ag13
aS'int'
p22
aS'variable_4'
p23
ag13
aS'int'
p24
aS'variable_5'
p25
ag13
aS'int'
p26
aS'variable_6'
p27
ag13
aS'int'
p28
aS'variable_7'
p29
ag13
aS'unsigned'
p30
aS'int'
p31
aS'variable_8'
p32
aS')'
p33
aS'struct'
p34
aS'variable_9'
p35
ag11
aS'variable_10'
p36
aS';'
p37
aS'if'
p38
ag7
ag7
aS'variable_10'
p39
aS'='
p40
aS'func_2'
p41
ag7
aS'variable_11'
p42
ag33
ag33
aS'=='
p43
aS'NULL'
p44
ag33
aS'variable_10'
p45
ag40
aS'func_3'
p46
ag7
aS'variable_12'
p47
ag13
aS'variable_5'
p48
aS'+'
p49
aS'variable_13'
p50
ag49
aS'variable_6'
p51
ag49
aS'20'
p52
ag13
ag7
aS'variable_8'
p53
aS'&'
p54
aS'variable_14'
p55
ag33
ag13
ag54
aS'variable_15'
p56
ag33
ag37
aS'if'
p57
ag7
aS'variable_10'
p58
aS'=='
p59
aS'NULL'
p60
ag33
aS'variable_10'
p61
aS'->'
p62
aS'variable_16'
p63
ag40
aS'variable_10'
p64
aS'->'
p65
aS'variable_17'
p66
ag49
aS'variable_13'
p67
ag37
aS'variable_10'
p68
aS'->'
p69
aS'variable_18'
p70
ag40
aS'0'
p71
ag37
aS'if'
p72
ag7
aS'func_4'
p73
ag7
aS'variable_10'
p74
ag33
ag33
aS'variable_10'
p75
aS'->'
p76
aS'variable_19'
p77
ag40
aS'variable_20'
p78
ag37
aS'func_5'
p79
ag7
aS'variable_10'
p80
ag33
aS'->'
p81
aS'variable_21'
p82
ag40
aS'variable_7'
p83
aS'-'
p84
aS'variable_13'
p85
ag37
aS'func_6'
p86
ag7
aS'variable_10'
p87
ag33
aS'->'
p88
aS'variable_22'
p89
ag40
aS'variable_23'
p90
ag37
aa(lp91
S'static'
p92
aS'inline'
p93
aS'int'
p94
aS'func_0'
p95
ag7
aS'int'
p96
aS'func_1'
p97
ag7
aS'void'
p98
ag11
aS'variable_0'
p99
ag13
aS'char'
p100
ag11
aS'variable_1'
p101
ag13
aS'int'
p102
aS'variable_2'
p103
ag13
aS'int'
p104
aS'variable_3'
p105
ag13
aS'void'
p106
ag11
aS'variable_0'
p107
ag13
aS'int'
p108
aS'variable_4'
p109
ag13
aS'int'
p110
aS'variable_5'
p111
ag13
aS'int'
p112
aS'variable_6'
p113
ag13
aS'int'
p114
aS'variable_7'
p115
ag13
aS'unsigned'
p116
aS'int'
p117
aS'variable_8'
p118
ag33
aS'struct'
p119
aS'variable_9'
p120
ag11
aS'variable_10'
p121
ag37
aS'if'
p122
ag7
ag7
aS'variable_10'
p123
ag40
aS'func_2'
p124
ag7
aS'variable_11'
p125
ag33
ag33
aS'=='
p126
aS'NULL'
p127
ag33
aS'variable_10'
p128
ag40
aS'func_3'
p129
ag7
aS'variable_12'
p130
ag13
aS'variable_5'
p131
ag49
aS'variable_13'
p132
ag49
aS'variable_6'
p133
ag49
aS'20'
p134
ag13
ag7
aS'variable_8'
p135
ag54
aS'variable_14'
p136
ag33
ag13
ag54
aS'variable_15'
p137
ag33
ag37
aS'if'
p138
ag7
aS'variable_10'
p139
aS'=='
p140
aS'NULL'
p141
ag33
aS'variable_10'
p142
aS'->'
p143
aS'variable_16'
p144
ag40
aS'variable_10'
p145
aS'->'
p146
aS'variable_17'
p147
ag49
aS'variable_13'
p148
ag37
aS'variable_10'
p149
aS'->'
p150
aS'variable_18'
p151
ag40
ag71
ag37
aS'func_4'
p152
ag7
aS'variable_11'
p153
ag13
aS'variable_10'
p154
ag33
ag37
aS'variable_10'
p155
aS'->'
p156
aS'variable_19'
p157
ag40
aS'variable_20'
p158
ag37
aS'func_5'
p159
ag7
aS'variable_10'
p160
ag33
aS'->'
p161
aS'variable_21'
p162
ag40
aS'variable_7'
p163
ag84
aS'variable_13'
p164
ag37
aS'func_6'
p165
ag7
aS'variable_10'
p166
ag33
aS'->'
p167
aS'variable_22'
p168
ag40
aS'variable_23'
p169
ag37
aS'return'
p170
aS'func_7'
p171
ag7
aS'variable_12'
p172
ag13
aS'variable_10'
p173
ag13
aS'variable_24'
p174
ag13
aS'variable_0'
p175
ag13
ag7
aS'variable_4'
p176
ag84
aS'variable_6'
p177
ag33
ag33
ag37
aa(lp178
S'static'
p179
aS'inline'
p180
aS'int'
p181
aS'func_0'
p182
ag7
aS'int'
p183
aS'func_1'
p184
ag7
aS'void'
p185
ag11
aS'variable_0'
p186
ag13
aS'char'
p187
ag11
aS'variable_1'
p188
ag13
aS'int'
p189
aS'variable_2'
p190
ag13
aS'int'
p191
aS'variable_3'
p192
ag13
aS'void'
p193
ag11
aS'variable_0'
p194
ag13
aS'int'
p195
aS'variable_4'
p196
ag13
aS'int'
p197
aS'variable_5'
p198
ag13
aS'int'
p199
aS'variable_6'
p200
ag13
aS'int'
p201
aS'variable_7'
p202
ag13
aS'unsigned'
p203
aS'int'
p204
aS'variable_8'
p205
ag33
aS'struct'
p206
aS'variable_9'
p207
ag11
aS'variable_10'
p208
ag37
aS'if'
p209
ag7
ag7
aS'variable_10'
p210
ag40
aS'func_2'
p211
ag7
aS'variable_11'
p212
ag33
ag33
aS'=='
p213
aS'NULL'
p214
ag33
aS'variable_10'
p215
ag40
aS'func_3'
p216
ag7
aS'variable_12'
p217
ag13
aS'variable_5'
p218
ag49
aS'variable_13'
p219
ag49
aS'variable_6'
p220
ag49
aS'20'
p221
ag13
ag7
aS'variable_8'
p222
ag54
aS'variable_14'
p223
ag33
ag13
ag54
aS'variable_15'
p224
ag33
ag37
aS'if'
p225
ag7
aS'variable_10'
p226
aS'=='
p227
aS'NULL'
p228
ag33
aS'func_4'
p229
ag7
aS'variable_10'
p230
ag13
aS'variable_5'
p231
ag33
ag37
aS'func_5'
p232
ag7
aS'variable_10'
p233
ag13
aS'variable_13'
p234
ag49
aS'variable_6'
p235
ag33
ag37
aS'func_6'
p236
ag7
aS'variable_10'
p237
ag33
ag37
aS'variable_10'
p238
aS'->'
p239
aS'variable_16'
p240
ag40
aS'variable_10'
p241
aS'->'
p242
aS'variable_17'
p243
ag49
aS'variable_13'
p244
ag37
aS'variable_10'
p245
aS'->'
p246
aS'variable_18'
p247
ag40
ag71
ag37
aS'func_7'
p248
ag7
aS'variable_11'
p249
ag13
aS'variable_10'
p250
ag33
ag37
aS'variable_10'
p251
aS'->'
p252
aS'variable_19'
p253
ag40
aS'variable_20'
p254
ag37
aS'func_8'
p255
ag7
aS'variable_10'
p256
ag33
aS'->'
p257
aS'variable_21'
p258
ag40
aS'variable_7'
p259
ag84
aS'variable_13'
p260
ag37
aS'func_9'
p261
ag7
aS'variable_10'
p262
ag33
aS'->'
p263
aS'variable_22'
p264
ag40
aS'variable_23'
p265
ag37
aS'return'
p266
aS'func_10'
p267
ag7
aS'variable_12'
p268
ag13
aS'variable_10'
p269
ag13
aS'variable_24'
p270
ag13
aS'variable_0'
p271
ag13
ag7
aS'variable_4'
p272
ag84
aS'variable_6'
p273
ag33
ag33
ag37
aaa(lp274
I0
aI0
aI0
aa(lp275
I131
aI101
aI81
aa(lp276
(lp277
S'main'
p278
aa(lp279
g278
aa(lp280
g278
aaa(lp281
S'521 /home/SySeVR/data/CVE_2013_4470_PATCHED_ip_ufo_append_data.c skb_shinfo ( skb ) -> gso_size = maxfraglen - fragheaderlen 45'
p282
aS'522 /home/SySeVR/data/CVE_2013_4470_PATCHED_ip_ufo_append_data.c skb -> transport_header = skb -> network_header + fragheaderlen 33'
p283
aS'523 /home/SySeVR/data/CVE_2013_4470_PATCHED_ip_ufo_append_data.c skb = sock_alloc_send_skb ( sk , hh_len + fragheaderlen + transhdrlen + 20 , ( flags & MSG_DONTWAIT ) , & err ) 16'
p284
aa.