(lp0
(lp1
(lp2
S'func_0'
p3
aS'('
p4
aS'const'
p5
aS'FT_Span'
p6
aS'*'
p7
aS'PWorker'
p8
aS'variable_0'
p9
aS')'
p10
aS'unsigned'
p11
aS'char'
p12
ag7
aS'variable_1'
p13
aS';'
p14
aS'variable_2'
p15
ag7
aS'variable_3'
p16
aS'='
p17
aS'&'
p18
aS'variable_0'
p19
aS'->'
p20
aS'variable_4'
p21
ag14
aS'variable_1'
p22
ag17
ag4
aS'unsigned'
p23
aS'char'
p24
ag7
ag10
aS'variable_3'
p25
aS'->'
p26
aS'variable_5'
p27
aS'-'
p28
aS'variable_6'
p29
ag7
aS'variable_3'
p30
aS'->'
p31
aS'variable_7'
p32
ag14
aS'if'
p33
ag4
aS'variable_3'
p34
aS'->'
p35
aS'variable_7'
p36
aS'>'
p37
ag17
aS'0'
p38
ag10
aS'variable_1'
p39
aS'+='
p40
ag4
aS'unsigned'
p41
ag10
ag4
ag4
aS'variable_3'
p42
aS'->'
p43
aS'variable_8'
p44
ag28
aS'1'
p45
ag10
ag7
aS'variable_3'
p46
aS'->'
p47
aS'variable_7'
p48
ag10
ag14
aS'for'
p49
ag4
ag14
aS'variable_9'
p50
ag37
ag38
ag14
aS'variable_9'
p51
aS'--'
p52
aS','
p53
aS'variable_10'
p54
aS'++'
p55
ag10
aS'unsigned'
p56
aS'char'
p57
aS'variable_11'
p58
ag17
aS'variable_10'
p59
aS'->'
p60
aS'variable_11'
p61
ag14
aS'if'
p62
ag4
aS'variable_11'
p63
ag10
aS'if'
p64
ag4
aS'variable_10'
p65
aS'->'
p66
aS'variable_12'
p67
ag37
ag17
aS'8'
p68
ag10
aS'unsigned'
p69
aS'char'
p70
ag7
aS'variable_13'
p71
ag17
aS'variable_1'
p72
aS'+'
p73
aS'variable_10'
p74
aS'->'
p75
aS'variable_14'
p76
ag14
ag7
aS'variable_13'
p77
aS'++'
p78
ag17
ag4
aS'unsigned'
p79
aS'char'
p80
ag10
aS'variable_11'
p81
ag14
ag7
aS'variable_13'
p82
aS'++'
p83
ag17
ag4
aS'unsigned'
p84
aS'char'
p85
ag10
aS'variable_11'
p86
ag14
ag7
aS'variable_13'
p87
aS'++'
p88
ag17
ag4
aS'unsigned'
p89
aS'char'
p90
ag10
aS'variable_11'
p91
ag14
ag7
aS'variable_13'
p92
aS'++'
p93
ag17
ag4
aS'unsigned'
p94
aS'char'
p95
ag10
aS'variable_11'
p96
ag14
ag7
aS'variable_13'
p97
aS'++'
p98
ag17
ag4
aS'unsigned'
p99
aS'char'
p100
ag10
aS'variable_11'
p101
ag14
ag7
aS'variable_13'
p102
aS'++'
p103
ag17
ag4
aS'unsigned'
p104
aS'char'
p105
ag10
aS'variable_11'
p106
ag14
ag7
aS'variable_13'
p107
ag17
ag4
aS'unsigned'
p108
aS'char'
p109
ag10
aS'variable_11'
p110
ag14
aaa(lp111
I0
aa(lp112
I109
aa(lp113
(lp114
S'main'
p115
aaa(lp116
S'754 /home/SySeVR/data/CVE_2010_2500_PATCHED_gray_render_span.c unsigned char * q = p + spans -> x ; 31'
p117
aa.