(lp0
(lp1
(lp2
S'static'
p3
aS'int'
p4
aS'func_0'
p5
aS'('
p6
aS'void'
p7
aS'*'
p8
aS'variable_0'
p9
aS','
p10
aS'const'
p11
aS'uint8_t'
p12
ag8
aS'variable_1'
p13
ag10
aS'int'
p14
aS'variable_2'
p15
aS')'
p16
aS'variable_3'
p17
ag8
aS'variable_4'
p18
aS'='
p19
aS'variable_5'
p20
aS'->'
p21
aS'variable_6'
p22
aS';'
p23
aS'int'
p24
aS'variable_7'
p25
ag19
aS'0'
p26
ag23
aS'int'
p27
aS'variable_8'
p28
ag23
aS'unsigned'
p29
aS'char'
p30
aS'variable_9'
p31
ag23
aS'unsigned'
p32
aS'int'
p33
aS'variable_10'
p34
ag23
aS'int'
p35
aS'variable_11'
p36
ag23
aS'unsigned'
p37
aS'int'
p38
aS'variable_12'
p39
ag23
aS'int'
p40
aS'variable_13'
p41
ag23
aS'int'
p42
aS'variable_14'
p43
ag10
aS'variable_15'
p44
ag23
aS'int'
p45
aS'variable_16'
p46
ag23
aS'int'
p47
aS'variable_17'
p48
ag23
aS'signed'
p49
aS'short'
p50
aS'variable_18'
p51
ag23
aS'int'
p52
aS'variable_19'
p53
ag23
aS'int'
p54
aS'variable_20'
p55
ag23
aS'int'
p56
aS'variable_21'
p57
ag23
aS'int'
p58
aS'variable_22'
p59
ag23
aS'unsigned'
p60
aS'char'
p61
ag8
aS'variable_23'
p62
ag23
aS'int'
p63
aS'variable_24'
p64
ag23
aS'variable_4'
p65
aS'->'
p66
aS'variable_25'
p67
aS'.'
p68
aS'variable_26'
p69
ag19
aS'1'
p70
ag23
aS'variable_4'
p71
aS'->'
p72
aS'variable_25'
p73
ag68
aS'variable_27'
p74
ag19
aS'variable_28'
p75
aS'|'
p76
aS'variable_29'
p77
ag76
aS'variable_30'
p78
ag23
aS'if'
p79
ag6
aS'variable_5'
p80
aS'->'
p81
aS'func_1'
p82
ag6
aS'variable_5'
p83
ag10
aS'&'
p84
aS'variable_4'
p85
aS'->'
p86
aS'variable_25'
p87
ag16
aS'<'
p88
ag26
ag16
aS'variable_23'
p89
ag19
aS'variable_4'
p90
aS'->'
p91
aS'variable_25'
p92
ag68
aS'variable_0'
p93
aS'['
p94
ag26
aS']'
p95
ag23
aS'variable_10'
p96
ag19
aS'func_2'
p97
ag6
ag84
aS'variable_1'
p98
ag94
aS'variable_7'
p99
ag95
ag16
ag23
aS'variable_7'
p100
aS'+='
p101
aS'6'
p102
ag23
aS'variable_11'
p103
ag19
aS'func_3'
p104
ag6
ag84
aS'variable_1'
p105
ag94
aS'variable_7'
p106
ag95
ag16
ag23
aS'variable_7'
p107
aS'+='
p108
aS'10'
p109
ag23
aS'variable_10'
p110
aS'-='
p111
aS'16'
p112
ag23
aS'while'
p113
ag6
ag6
aS'variable_10'
p114
aS'>'
p115
ag26
ag16
aS'&&'
p116
ag6
aS'variable_11'
p117
ag115
ag26
ag16
ag16
aS'variable_12'
p118
ag19
aS'func_4'
p119
ag6
ag84
aS'variable_1'
p120
ag94
aS'variable_7'
p121
ag95
ag16
ag23
aS'variable_7'
p122
aS'+='
p123
aS'4'
p124
ag23
aS'variable_13'
p125
ag19
aS'func_5'
p126
ag6
ag84
aS'variable_1'
p127
ag94
aS'variable_7'
p128
ag95
ag16
ag23
aS'variable_7'
p129
aS'+='
p130
aS'2'
p131
ag23
aS'switch'
p132
ag6
aS'variable_13'
p133
ag16
aS'variable_7'
p134
ag19
aS'variable_7'
p135
aS'+'
p136
aS'variable_12'
p137
aS'-'
p138
ag102
ag23
aS'variable_19'
p139
ag19
ag26
ag23
aS'variable_17'
p140
ag19
aS'func_6'
p141
ag6
ag84
aS'variable_1'
p142
ag94
aS'variable_7'
p143
ag95
ag16
ag23
aS'variable_7'
p144
aS'+='
p145
ag131
ag23
aS'while'
p146
ag6
aS'variable_17'
p147
ag115
ag26
ag16
aS'variable_18'
p148
ag19
aS'func_7'
p149
ag6
ag84
aS'variable_1'
p150
ag94
aS'variable_7'
p151
ag95
ag16
ag23
aS'variable_7'
p152
aS'+='
p153
ag131
ag23
aS'if'
p154
ag6
aS'variable_18'
p155
ag88
ag26
ag16
aS'variable_18'
p156
ag19
ag138
aS'variable_18'
p157
ag23
aS'variable_19'
p158
aS'+='
p159
aS'variable_18'
p160
ag8
aS'variable_4'
p161
aS'->'
p162
aS'variable_25'
p163
ag68
aS'variable_31'
p164
ag94
ag26
ag95
ag23
aS'variable_17'
p165
aS'--'
p166
ag23
aS'variable_8'
p167
ag19
aS'variable_19'
p168
ag23
aS'variable_22'
p169
ag19
aS'variable_4'
p170
aS'->'
p171
aS'variable_5'
p172
aS'->'
p173
aS'variable_32'
p174
ag23
aS'for'
p175
ag6
aS'variable_14'
p176
ag19
ag26
ag23
aS'variable_14'
p177
ag88
aS'variable_18'
p178
ag23
aS'variable_14'
p179
aS'++'
p180
ag16
aS'variable_21'
p181
ag19
aS'variable_1'
p182
ag94
aS'variable_7'
p183
aS'++'
p184
ag95
ag23
aS'variable_8'
p185
aS'+='
p186
ag6
aS'variable_21'
p187
ag8
ag131
ag16
ag23
aS'variable_22'
p188
aS'-='
p189
aS'variable_21'
p190
ag23
aS'variable_20'
p191
ag19
ag6
aS'signed'
p192
aS'char'
p193
ag16
ag6
aS'variable_1'
p194
ag94
aS'variable_7'
p195
aS'++'
p196
ag95
ag16
ag23
aS'if'
p197
ag6
aS'variable_20'
p198
ag88
ag26
ag16
aS'variable_20'
p199
ag19
ag138
aS'variable_20'
p200
ag23
aS'variable_24'
p201
ag19
aS'func_8'
p202
ag6
ag84
aS'variable_1'
p203
ag94
aS'variable_7'
p204
ag95
ag16
ag23
aS'variable_7'
p205
aS'+='
p206
ag131
ag23
aS'for'
p207
ag6
aS'variable_15'
p208
ag19
ag26
ag23
aS'variable_15'
p209
ag88
aS'variable_20'
p210
ag23
aS'variable_15'
p211
aS'++'
p212
ag10
aS'variable_22'
p213
aS'-='
p214
ag131
ag16
ag8
ag6
ag6
aS'signed'
p215
aS'short'
p216
ag8
ag16
ag6
ag84
aS'variable_23'
p217
ag94
aS'variable_8'
p218
ag95
ag16
ag16
ag19
aS'variable_24'
p219
ag23
aS'variable_8'
p220
aS'+='
p221
ag131
ag23
aS'for'
p222
ag6
aS'variable_15'
p223
ag19
ag26
ag23
aS'variable_15'
p224
ag88
aS'variable_20'
p225
ag23
aS'variable_15'
p226
aS'++'
p227
ag10
aS'variable_22'
p228
aS'--'
p229
ag16
ag8
ag6
ag6
aS'signed'
p230
aS'short'
p231
ag8
ag16
ag6
ag84
aS'variable_23'
p232
ag94
aS'variable_8'
p233
ag95
ag16
ag16
ag19
aS'func_9'
p234
ag6
ag84
aS'variable_1'
p235
ag94
aS'variable_7'
p236
ag95
ag16
ag23
aS'variable_7'
p237
aS'+='
p238
ag131
ag23
aS'variable_8'
p239
aS'+='
p240
ag131
ag23
aS'variable_19'
p241
aS'+='
p242
aS'variable_4'
p243
aS'->'
p244
aS'variable_25'
p245
ag68
aS'variable_31'
p246
ag94
ag26
ag95
ag23
aS'variable_7'
p247
ag19
aS'variable_7'
p248
ag136
aS'variable_12'
p249
ag138
ag102
ag23
aS'memset'
p250
ag6
aS'variable_23'
p251
ag10
aS'0x0000'
p252
ag10
aS'variable_4'
p253
aS'->'
p254
aS'variable_25'
p255
ag68
aS'variable_31'
p256
ag94
ag26
ag95
ag8
aS'variable_4'
p257
aS'->'
p258
aS'variable_5'
p259
aS'->'
p260
aS'variable_33'
p261
ag16
ag23
aS'variable_19'
p262
ag19
ag26
ag23
aS'for'
p263
ag6
aS'variable_16'
p264
ag19
ag26
ag23
aS'variable_16'
p265
ag88
aS'variable_4'
p266
aS'->'
p267
aS'variable_5'
p268
aS'->'
p269
aS'variable_33'
p270
ag23
aS'variable_16'
p271
aS'++'
p272
ag16
aS'variable_7'
p273
aS'++'
p274
ag23
aS'variable_22'
p275
ag19
ag6
aS'variable_4'
p276
aS'->'
p277
aS'variable_5'
p278
aS'->'
p279
aS'variable_32'
p280
ag8
ag131
ag16
ag23
aS'while'
p281
ag6
aS'variable_22'
p282
ag115
ag26
ag16
aS'variable_20'
p283
ag19
ag6
aS'signed'
p284
aS'char'
p285
ag16
ag6
aS'variable_1'
p286
ag94
aS'variable_7'
p287
aS'++'
p288
ag95
ag16
ag23
aS'if'
p289
ag6
aS'variable_20'
p290
ag115
ag26
ag16
aS'variable_9'
p291
ag19
aS'variable_1'
p292
ag94
aS'variable_7'
p293
aS'++'
p294
ag95
ag23
aS'for'
p295
ag6
aS'variable_15'
p296
ag19
ag26
ag23
aS'variable_15'
p297
ag88
aS'variable_20'
p298
ag23
aS'variable_15'
p299
aS'++'
p300
ag16
aS'variable_23'
p301
ag94
aS'variable_8'
p302
aS'++'
p303
ag95
ag19
aS'variable_9'
p304
ag23
aS'variable_22'
p305
aS'--'
p306
ag23
aS'variable_20'
p307
ag19
ag138
aS'variable_20'
p308
ag23
aS'for'
p309
ag6
aS'variable_15'
p310
ag19
ag26
ag23
aS'variable_15'
p311
ag88
aS'variable_20'
p312
ag23
aS'variable_15'
p313
aS'++'
p314
ag16
aS'variable_9'
p315
ag19
aS'variable_1'
p316
ag94
aS'variable_7'
p317
aS'++'
p318
ag95
ag23
aS'variable_23'
p319
ag94
aS'variable_8'
p320
aS'++'
p321
ag95
ag19
aS'variable_9'
p322
ag23
aS'variable_22'
p323
aS'--'
p324
ag23
aS'variable_22'
p325
ag19
aS'variable_4'
p326
aS'->'
p327
aS'variable_5'
p328
aS'->'
p329
aS'variable_32'
p330
ag23
ag8
ag6
ag6
aS'signed'
p331
aS'short'
p332
ag8
ag16
ag6
ag84
aS'variable_23'
p333
ag94
aS'variable_8'
p334
ag95
ag16
ag16
ag19
aS'func_10'
p335
ag6
ag84
aS'variable_1'
p336
ag94
aS'variable_8'
p337
ag95
ag16
ag23
aS'variable_8'
p338
aS'+='
p339
ag131
ag23
aS'variable_19'
p340
aS'+='
p341
aS'variable_4'
p342
aS'->'
p343
aS'variable_25'
p344
ag68
aS'variable_31'
p345
ag94
ag26
ag95
ag23
aS'variable_19'
p346
ag19
ag26
ag23
aS'for'
p347
ag6
aS'variable_16'
p348
ag19
ag26
ag23
aS'variable_16'
p349
ag88
aS'variable_4'
p350
aS'->'
p351
aS'variable_5'
p352
aS'->'
p353
aS'variable_33'
p354
ag23
aS'variable_16'
p355
aS'++'
p356
ag16
aS'variable_7'
p357
aS'++'
p358
ag23
aS'variable_22'
p359
ag19
aS'variable_4'
p360
aS'->'
p361
aS'variable_5'
p362
aS'->'
p363
aS'variable_32'
p364
ag23
aS'while'
p365
ag6
aS'variable_22'
p366
ag115
ag26
ag16
aS'variable_20'
p367
ag19
ag6
aS'signed'
p368
aS'char'
p369
ag16
ag6
aS'variable_1'
p370
ag94
aS'variable_7'
p371
aS'++'
p372
ag95
ag16
ag23
aS'if'
p373
ag6
aS'variable_20'
p374
ag115
ag26
ag16
aS'variable_7'
p375
aS'+='
p376
ag131
ag23
aS'for'
p377
ag6
aS'variable_15'
p378
ag19
ag26
ag23
aS'variable_15'
p379
ag88
aS'variable_20'
p380
ag23
aS'variable_15'
p381
aS'++'
p382
ag16
ag8
ag6
ag6
aS'signed'
p383
aS'short'
p384
ag8
ag16
ag6
ag84
aS'variable_23'
p385
ag94
aS'variable_8'
p386
ag95
ag16
ag16
ag19
aS'variable_24'
p387
ag23
aS'variable_8'
p388
aS'+='
p389
ag131
ag23
aS'variable_22'
p390
aS'--'
p391
ag23
aS'variable_20'
p392
ag19
ag138
aS'variable_20'
p393
ag23
aS'for'
p394
ag6
aS'variable_15'
p395
ag19
ag26
ag23
aS'variable_15'
p396
ag88
aS'variable_20'
p397
ag23
aS'variable_15'
p398
aS'++'
p399
ag16
ag8
ag6
ag6
aS'signed'
p400
aS'short'
p401
ag8
ag16
ag6
ag84
aS'variable_23'
p402
ag94
aS'variable_8'
p403
ag95
ag16
ag16
ag19
aS'func_11'
p404
ag6
ag84
aS'variable_1'
p405
ag94
aS'variable_7'
p406
ag95
ag16
ag23
aS'variable_7'
p407
aS'+='
p408
ag131
ag23
aS'variable_8'
p409
aS'+='
p410
ag131
ag23
aS'variable_22'
p411
aS'--'
p412
ag23
aS'variable_19'
p413
aS'+='
p414
aS'variable_4'
p415
aS'->'
p416
aS'variable_25'
p417
ag68
aS'variable_31'
p418
ag94
ag26
ag95
ag23
aS'if'
p419
ag6
aS'variable_12'
p420
ag138
ag102
ag115
ag6
aS'unsigned'
p421
aS'int'
p422
ag16
ag6
aS'variable_4'
p423
aS'->'
p424
aS'variable_5'
p425
aS'->'
p426
aS'variable_32'
p427
ag8
aS'variable_4'
p428
aS'->'
p429
aS'variable_5'
p430
aS'->'
p431
aS'variable_33'
p432
ag16
ag8
ag131
ag16
aS'variable_7'
p433
aS'+='
p434
aS'variable_12'
p435
ag138
ag102
ag23
aS'for'
p436
ag6
aS'variable_19'
p437
ag19
ag26
ag23
aS'variable_19'
p438
ag88
aS'variable_4'
p439
aS'->'
p440
aS'variable_25'
p441
ag68
aS'variable_31'
p442
ag94
ag26
ag95
ag8
aS'variable_19'
p443
aS'+='
p444
aS'variable_4'
p445
aS'->'
p446
aS'variable_25'
p447
ag68
aS'variable_31'
p448
ag94
ag26
ag95
ag16
ag8
ag6
ag6
aS'signed'
p449
aS'short'
p450
ag8
ag16
ag6
ag84
aS'variable_23'
p451
ag94
aS'variable_19'
p452
ag136
aS'variable_8'
p453
ag95
ag16
ag16
ag19
aS'func_12'
p454
ag6
ag84
aS'variable_1'
p455
ag94
aS'variable_7'
p456
ag136
aS'variable_8'
p457
ag95
ag16
ag23
aS'variable_8'
p458
aS'+='
p459
ag131
ag23
aS'variable_7'
p460
aS'+='
p461
aS'variable_4'
p462
aS'->'
p463
aS'variable_5'
p464
aS'->'
p465
aS'variable_32'
p466
ag8
ag131
ag23
aS'variable_7'
p467
aS'+='
p468
aS'variable_12'
p469
ag138
ag102
ag23
aS'variable_10'
p470
aS'-='
p471
aS'variable_12'
p472
ag23
aS'variable_11'
p473
aS'--'
p474
ag23
aaa(lp475
I0
aa(lp476
I481
aa(lp477
(lp478
S'main'
p479
aaa(lp480
S'48 /home/SySeVR/data/CVE_2010_3429_PATCHED_flic_decode_frame_15_16BPP.c memset 119'
p481
aa.