(lp0
(lp1
(lp2
S'static'
p3
aS'int'
p4
aS'func_0'
p5
aS'('
p6
aS'void'
p7
aS'*'
p8
aS'variable_0'
p9
aS','
p10
aS'const'
p11
aS'uint8_t'
p12
ag8
aS'variable_1'
p13
ag10
aS'int'
p14
aS'variable_2'
p15
aS')'
p16
aS'variable_3'
p17
ag8
aS'variable_4'
p18
aS'='
p19
aS'variable_5'
p20
aS'->'
p21
aS'variable_6'
p22
aS';'
p23
aS'int'
p24
aS'variable_7'
p25
ag19
aS'0'
p26
ag23
aS'int'
p27
aS'variable_8'
p28
ag23
aS'unsigned'
p29
aS'char'
p30
aS'variable_9'
p31
ag23
aS'unsigned'
p32
aS'int'
p33
aS'variable_10'
p34
ag23
aS'int'
p35
aS'variable_11'
p36
ag23
aS'unsigned'
p37
aS'int'
p38
aS'variable_12'
p39
ag23
aS'int'
p40
aS'variable_13'
p41
ag23
aS'int'
p42
aS'variable_14'
p43
ag10
aS'variable_15'
p44
ag23
aS'int'
p45
aS'variable_16'
p46
ag23
aS'int'
p47
aS'variable_17'
p48
ag23
aS'signed'
p49
aS'short'
p50
aS'variable_18'
p51
ag23
aS'int'
p52
aS'variable_19'
p53
ag23
aS'int'
p54
aS'variable_20'
p55
ag23
aS'int'
p56
aS'variable_21'
p57
ag23
aS'int'
p58
aS'variable_22'
p59
ag23
aS'unsigned'
p60
aS'char'
p61
ag8
aS'variable_23'
p62
ag23
aS'int'
p63
aS'variable_24'
p64
ag23
aS'variable_4'
p65
aS'->'
p66
aS'variable_25'
p67
aS'.'
p68
aS'variable_26'
p69
ag19
aS'1'
p70
ag23
aS'variable_4'
p71
aS'->'
p72
aS'variable_25'
p73
ag68
aS'variable_27'
p74
ag19
aS'variable_28'
p75
aS'|'
p76
aS'variable_29'
p77
ag76
aS'variable_30'
p78
ag23
aS'if'
p79
ag6
aS'variable_5'
p80
aS'->'
p81
aS'func_1'
p82
ag6
aS'variable_5'
p83
ag10
aS'&'
p84
aS'variable_4'
p85
aS'->'
p86
aS'variable_25'
p87
ag16
aS'<'
p88
ag26
ag16
aS'variable_23'
p89
ag19
aS'variable_4'
p90
aS'->'
p91
aS'variable_25'
p92
ag68
aS'variable_0'
p93
aS'['
p94
ag26
aS']'
p95
ag23
aS'variable_10'
p96
ag19
aS'func_2'
p97
ag6
ag84
aS'variable_1'
p98
ag94
aS'variable_7'
p99
ag95
ag16
ag23
aS'variable_7'
p100
aS'+='
p101
aS'6'
p102
ag23
aS'variable_11'
p103
ag19
aS'func_3'
p104
ag6
ag84
aS'variable_1'
p105
ag94
aS'variable_7'
p106
ag95
ag16
ag23
aS'variable_7'
p107
aS'+='
p108
aS'10'
p109
ag23
aS'variable_10'
p110
aS'-='
p111
aS'16'
p112
ag23
aS'while'
p113
ag6
ag6
aS'variable_10'
p114
aS'>'
p115
ag26
ag16
aS'&&'
p116
ag6
aS'variable_11'
p117
ag115
ag26
ag16
ag16
aS'variable_12'
p118
ag19
aS'func_4'
p119
ag6
ag84
aS'variable_1'
p120
ag94
aS'variable_7'
p121
ag95
ag16
ag23
aS'variable_7'
p122
aS'+='
p123
aS'4'
p124
ag23
aS'variable_13'
p125
ag19
aS'func_5'
p126
ag6
ag84
aS'variable_1'
p127
ag94
aS'variable_7'
p128
ag95
ag16
ag23
aS'variable_7'
p129
aS'+='
p130
aS'2'
p131
ag23
aS'switch'
p132
ag6
aS'variable_13'
p133
ag16
aS'variable_7'
p134
ag19
aS'variable_7'
p135
aS'+'
p136
aS'variable_12'
p137
aS'-'
p138
ag102
ag23
aS'variable_19'
p139
ag19
ag26
ag23
aS'variable_17'
p140
ag19
aS'func_6'
p141
ag6
ag84
aS'variable_1'
p142
ag94
aS'variable_7'
p143
ag95
ag16
ag23
aS'variable_7'
p144
aS'+='
p145
ag131
ag23
aS'while'
p146
ag6
aS'variable_17'
p147
ag115
ag26
ag16
aS'variable_18'
p148
ag19
aS'func_7'
p149
ag6
ag84
aS'variable_1'
p150
ag94
aS'variable_7'
p151
ag95
ag16
ag23
aS'variable_7'
p152
aS'+='
p153
ag131
ag23
aS'if'
p154
ag6
aS'variable_18'
p155
ag88
ag26
ag16
aS'variable_18'
p156
ag19
ag138
aS'variable_18'
p157
ag23
aS'variable_19'
p158
aS'+='
p159
aS'variable_18'
p160
ag8
aS'variable_4'
p161
aS'->'
p162
aS'variable_25'
p163
ag68
aS'variable_31'
p164
ag94
ag26
ag95
ag23
aS'variable_17'
p165
aS'--'
p166
ag23
aS'variable_8'
p167
ag19
aS'variable_19'
p168
ag23
aS'variable_22'
p169
ag19
aS'variable_4'
p170
aS'->'
p171
aS'variable_5'
p172
aS'->'
p173
aS'variable_32'
p174
ag23
aS'for'
p175
ag6
aS'variable_14'
p176
ag19
ag26
ag23
aS'variable_14'
p177
ag88
aS'variable_18'
p178
ag23
aS'variable_14'
p179
aS'++'
p180
ag16
aS'variable_21'
p181
ag19
aS'variable_1'
p182
ag94
aS'variable_7'
p183
aS'++'
p184
ag95
ag23
aS'variable_8'
p185
aS'+='
p186
ag6
aS'variable_21'
p187
ag8
ag131
ag16
ag23
aS'variable_22'
p188
aS'-='
p189
aS'variable_21'
p190
ag23
aS'variable_20'
p191
ag19
ag6
aS'signed'
p192
aS'char'
p193
ag16
ag6
aS'variable_1'
p194
ag94
aS'variable_7'
p195
aS'++'
p196
ag95
ag16
ag23
aS'if'
p197
ag6
aS'variable_20'
p198
ag88
ag26
ag16
aS'variable_20'
p199
ag19
ag138
aS'variable_20'
p200
ag23
aS'variable_24'
p201
ag19
aS'func_8'
p202
ag6
ag84
aS'variable_1'
p203
ag94
aS'variable_7'
p204
ag95
ag16
ag23
aS'variable_7'
p205
aS'+='
p206
ag131
ag23
aS'for'
p207
ag6
aS'variable_15'
p208
ag19
ag26
ag23
aS'variable_15'
p209
ag88
aS'variable_20'
p210
ag23
aS'variable_15'
p211
aS'++'
p212
ag10
aS'variable_22'
p213
aS'-='
p214
ag131
ag16
ag8
ag6
ag6
aS'signed'
p215
aS'short'
p216
ag8
ag16
ag6
ag84
aS'variable_23'
p217
ag94
aS'variable_8'
p218
ag95
ag16
ag16
ag19
aS'variable_24'
p219
ag23
aS'variable_8'
p220
aS'+='
p221
ag131
ag23
aS'for'
p222
ag6
aS'variable_15'
p223
ag19
ag26
ag23
aS'variable_15'
p224
ag88
aS'variable_20'
p225
ag23
aS'variable_15'
p226
aS'++'
p227
ag10
aS'variable_22'
p228
aS'--'
p229
ag16
ag8
ag6
ag6
aS'signed'
p230
aS'short'
p231
ag8
ag16
ag6
ag84
aS'variable_23'
p232
ag94
aS'variable_8'
p233
ag95
ag16
ag16
ag19
aS'func_9'
p234
ag6
ag84
aS'variable_1'
p235
ag94
aS'variable_7'
p236
ag95
ag16
ag23
aS'variable_7'
p237
aS'+='
p238
ag131
ag23
aS'variable_8'
p239
aS'+='
p240
ag131
ag23
aS'variable_19'
p241
aS'+='
p242
aS'variable_4'
p243
aS'->'
p244
aS'variable_25'
p245
ag68
aS'variable_31'
p246
ag94
ag26
ag95
ag23
aS'variable_7'
p247
ag19
aS'variable_7'
p248
ag136
aS'variable_12'
p249
ag138
ag102
ag23
aS'memset'
p250
ag6
aS'variable_23'
p251
ag10
aS'0x0000'
p252
ag10
aS'variable_4'
p253
aS'->'
p254
aS'variable_25'
p255
ag68
aS'variable_31'
p256
ag94
ag26
ag95
ag8
aS'variable_4'
p257
aS'->'
p258
aS'variable_5'
p259
aS'->'
p260
aS'variable_33'
p261
ag16
ag23
aS'variable_19'
p262
ag19
ag26
ag23
aS'for'
p263
ag6
aS'variable_16'
p264
ag19
ag26
ag23
aS'variable_16'
p265
ag88
aS'variable_4'
p266
aS'->'
p267
aS'variable_5'
p268
aS'->'
p269
aS'variable_33'
p270
ag23
aS'variable_16'
p271
aS'++'
p272
ag16
aS'variable_8'
p273
ag19
aS'variable_19'
p274
ag23
aS'variable_7'
p275
aS'++'
p276
ag23
aS'variable_22'
p277
ag19
ag6
aS'variable_4'
p278
aS'->'
p279
aS'variable_5'
p280
aS'->'
p281
aS'variable_32'
p282
ag8
ag131
ag16
ag23
aS'while'
p283
ag6
aS'variable_22'
p284
ag115
ag26
ag16
aS'variable_20'
p285
ag19
ag6
aS'signed'
p286
aS'char'
p287
ag16
ag6
aS'variable_1'
p288
ag94
aS'variable_7'
p289
aS'++'
p290
ag95
ag16
ag23
aS'if'
p291
ag6
aS'variable_20'
p292
ag115
ag26
ag16
aS'variable_9'
p293
ag19
aS'variable_1'
p294
ag94
aS'variable_7'
p295
aS'++'
p296
ag95
ag23
aS'for'
p297
ag6
aS'variable_15'
p298
ag19
ag26
ag23
aS'variable_15'
p299
ag88
aS'variable_20'
p300
ag23
aS'variable_15'
p301
aS'++'
p302
ag16
aS'variable_23'
p303
ag94
aS'variable_8'
p304
aS'++'
p305
ag95
ag19
aS'variable_9'
p306
ag23
aS'variable_22'
p307
aS'--'
p308
ag23
aS'variable_20'
p309
ag19
ag138
aS'variable_20'
p310
ag23
aS'for'
p311
ag6
aS'variable_15'
p312
ag19
ag26
ag23
aS'variable_15'
p313
ag88
aS'variable_20'
p314
ag23
aS'variable_15'
p315
aS'++'
p316
ag16
aS'variable_9'
p317
ag19
aS'variable_1'
p318
ag94
aS'variable_7'
p319
aS'++'
p320
ag95
ag23
aS'variable_23'
p321
ag94
aS'variable_8'
p322
aS'++'
p323
ag95
ag19
aS'variable_9'
p324
ag23
aS'variable_22'
p325
aS'--'
p326
ag23
aS'variable_8'
p327
ag19
aS'variable_19'
p328
ag23
aS'variable_22'
p329
ag19
aS'variable_4'
p330
aS'->'
p331
aS'variable_5'
p332
aS'->'
p333
aS'variable_32'
p334
ag23
aS'while'
p335
ag6
aS'variable_22'
p336
ag115
ag26
ag16
ag8
ag6
ag6
aS'signed'
p337
aS'short'
p338
ag8
ag16
ag6
ag84
aS'variable_23'
p339
ag94
aS'variable_8'
p340
ag95
ag16
ag16
ag19
aS'func_10'
p341
ag6
ag84
aS'variable_1'
p342
ag94
aS'variable_8'
p343
ag95
ag16
ag23
aS'variable_8'
p344
aS'+='
p345
ag131
ag23
aS'variable_19'
p346
aS'+='
p347
aS'variable_4'
p348
aS'->'
p349
aS'variable_25'
p350
ag68
aS'variable_31'
p351
ag94
ag26
ag95
ag23
aS'variable_19'
p352
ag19
ag26
ag23
aS'for'
p353
ag6
aS'variable_16'
p354
ag19
ag26
ag23
aS'variable_16'
p355
ag88
aS'variable_4'
p356
aS'->'
p357
aS'variable_5'
p358
aS'->'
p359
aS'variable_33'
p360
ag23
aS'variable_16'
p361
aS'++'
p362
ag16
aS'variable_8'
p363
ag19
aS'variable_19'
p364
ag23
aS'variable_7'
p365
aS'++'
p366
ag23
aS'variable_22'
p367
ag19
aS'variable_4'
p368
aS'->'
p369
aS'variable_5'
p370
aS'->'
p371
aS'variable_32'
p372
ag23
aS'while'
p373
ag6
aS'variable_22'
p374
ag115
ag26
ag16
aS'variable_20'
p375
ag19
ag6
aS'signed'
p376
aS'char'
p377
ag16
ag6
aS'variable_1'
p378
ag94
aS'variable_7'
p379
aS'++'
p380
ag95
ag16
ag23
aS'if'
p381
ag6
aS'variable_20'
p382
ag115
ag26
ag16
aS'variable_24'
p383
ag19
aS'func_11'
p384
ag6
ag84
aS'variable_1'
p385
ag94
aS'variable_7'
p386
ag95
ag16
ag23
aS'variable_7'
p387
aS'+='
p388
ag131
ag23
aS'for'
p389
ag6
aS'variable_15'
p390
ag19
ag26
ag23
aS'variable_15'
p391
ag88
aS'variable_20'
p392
ag23
aS'variable_15'
p393
aS'++'
p394
ag16
ag8
ag6
ag6
aS'signed'
p395
aS'short'
p396
ag8
ag16
ag6
ag84
aS'variable_23'
p397
ag94
aS'variable_8'
p398
ag95
ag16
ag16
ag19
aS'variable_24'
p399
ag23
aS'variable_8'
p400
aS'+='
p401
ag131
ag23
aS'variable_22'
p402
aS'--'
p403
ag23
aS'variable_20'
p404
ag19
ag138
aS'variable_20'
p405
ag23
aS'for'
p406
ag6
aS'variable_15'
p407
ag19
ag26
ag23
aS'variable_15'
p408
ag88
aS'variable_20'
p409
ag23
aS'variable_15'
p410
aS'++'
p411
ag16
ag8
ag6
ag6
aS'signed'
p412
aS'short'
p413
ag8
ag16
ag6
ag84
aS'variable_23'
p414
ag94
aS'variable_8'
p415
ag95
ag16
ag16
ag19
aS'func_12'
p416
ag6
ag84
aS'variable_1'
p417
ag94
aS'variable_7'
p418
ag95
ag16
ag23
aS'variable_7'
p419
aS'+='
p420
ag131
ag23
aS'variable_8'
p421
aS'+='
p422
ag131
ag23
aS'variable_22'
p423
aS'--'
p424
ag23
aS'variable_19'
p425
aS'+='
p426
aS'variable_4'
p427
aS'->'
p428
aS'variable_25'
p429
ag68
aS'variable_31'
p430
ag94
ag26
ag95
ag23
aS'if'
p431
ag6
aS'variable_12'
p432
ag138
ag102
ag115
ag6
aS'unsigned'
p433
aS'int'
p434
ag16
ag6
aS'variable_4'
p435
aS'->'
p436
aS'variable_5'
p437
aS'->'
p438
aS'variable_32'
p439
ag8
aS'variable_4'
p440
aS'->'
p441
aS'variable_5'
p442
aS'->'
p443
aS'variable_33'
p444
ag16
ag8
ag131
ag16
aS'variable_7'
p445
aS'+='
p446
aS'variable_12'
p447
ag138
ag102
ag23
aS'for'
p448
ag6
aS'variable_19'
p449
ag19
ag26
ag23
aS'variable_19'
p450
ag88
aS'variable_4'
p451
aS'->'
p452
aS'variable_25'
p453
ag68
aS'variable_31'
p454
ag94
ag26
ag95
ag8
aS'variable_19'
p455
aS'+='
p456
aS'variable_4'
p457
aS'->'
p458
aS'variable_25'
p459
ag68
aS'variable_31'
p460
ag94
ag26
ag95
ag16
aS'variable_22'
p461
ag19
aS'variable_4'
p462
aS'->'
p463
aS'variable_5'
p464
aS'->'
p465
aS'variable_32'
p466
ag23
aS'variable_8'
p467
ag19
ag26
ag23
aS'while'
p468
ag6
aS'variable_22'
p469
ag115
ag26
ag16
ag8
ag6
ag6
aS'signed'
p470
aS'short'
p471
ag8
ag16
ag6
ag84
aS'variable_23'
p472
ag94
aS'variable_19'
p473
ag136
aS'variable_8'
p474
ag95
ag16
ag16
ag19
aS'func_13'
p475
ag6
ag84
aS'variable_1'
p476
ag94
aS'variable_7'
p477
ag136
aS'variable_8'
p478
ag95
ag16
ag23
aS'variable_8'
p479
aS'+='
p480
ag131
ag23
aS'variable_22'
p481
aS'--'
p482
ag23
aS'variable_7'
p483
aS'+='
p484
aS'variable_4'
p485
aS'->'
p486
aS'variable_5'
p487
aS'->'
p488
aS'variable_32'
p489
ag8
ag131
ag23
aS'variable_7'
p490
aS'+='
p491
aS'variable_12'
p492
ag138
ag102
ag23
aS'variable_10'
p493
aS'-='
p494
aS'variable_12'
p495
ag23
aS'variable_11'
p496
aS'--'
p497
ag23
aa(lp498
S'static'
p499
aS'int'
p500
aS'func_0'
p501
ag6
aS'void'
p502
ag8
aS'variable_0'
p503
ag10
aS'const'
p504
aS'uint8_t'
p505
ag8
aS'variable_1'
p506
ag10
aS'int'
p507
aS'variable_2'
p508
ag16
aS'variable_3'
p509
ag8
aS'variable_4'
p510
ag19
aS'variable_5'
p511
aS'->'
p512
aS'variable_6'
p513
ag23
aS'int'
p514
aS'variable_7'
p515
ag19
ag26
ag23
aS'unsigned'
p516
aS'char'
p517
aS'variable_8'
p518
ag23
aS'unsigned'
p519
aS'int'
p520
aS'variable_9'
p521
ag23
aS'int'
p522
aS'variable_10'
p523
ag23
aS'unsigned'
p524
aS'int'
p525
aS'variable_11'
p526
ag23
aS'int'
p527
aS'variable_12'
p528
ag23
aS'int'
p529
aS'variable_13'
p530
ag10
aS'variable_14'
p531
ag23
aS'int'
p532
aS'variable_15'
p533
ag23
aS'int'
p534
aS'variable_16'
p535
ag23
aS'signed'
p536
aS'short'
p537
aS'variable_17'
p538
ag23
aS'int'
p539
aS'variable_18'
p540
ag23
aS'int'
p541
aS'variable_19'
p542
ag23
aS'int'
p543
aS'variable_20'
p544
ag23
aS'int'
p545
aS'variable_21'
p546
ag23
aS'variable_4'
p547
aS'->'
p548
aS'variable_22'
p549
ag68
aS'variable_23'
p550
ag19
ag70
ag23
aS'variable_4'
p551
aS'->'
p552
aS'variable_22'
p553
ag68
aS'variable_24'
p554
ag19
aS'variable_25'
p555
ag76
aS'variable_26'
p556
ag76
aS'variable_27'
p557
ag23
aS'if'
p558
ag6
aS'variable_5'
p559
aS'->'
p560
aS'func_1'
p561
ag6
aS'variable_5'
p562
ag10
ag84
aS'variable_4'
p563
aS'->'
p564
aS'variable_22'
p565
ag16
ag88
ag26
ag16
aS'variable_9'
p566
ag19
aS'func_2'
p567
ag6
ag84
aS'variable_1'
p568
ag94
aS'variable_7'
p569
ag95
ag16
ag23
aS'variable_7'
p570
aS'+='
p571
ag102
ag23
aS'variable_10'
p572
ag19
aS'func_3'
p573
ag6
ag84
aS'variable_1'
p574
ag94
aS'variable_7'
p575
ag95
ag16
ag23
aS'variable_7'
p576
aS'+='
p577
aS'10'
p578
ag23
aS'variable_9'
p579
aS'-='
p580
aS'16'
p581
ag23
aS'while'
p582
ag6
ag6
aS'variable_9'
p583
ag115
ag26
ag16
aS'&&'
p584
ag6
aS'variable_10'
p585
ag115
ag26
ag16
ag16
aS'variable_11'
p586
ag19
aS'func_4'
p587
ag6
ag84
aS'variable_1'
p588
ag94
aS'variable_7'
p589
ag95
ag16
ag23
aS'variable_7'
p590
aS'+='
p591
ag124
ag23
aS'variable_12'
p592
ag19
aS'func_5'
p593
ag6
ag84
aS'variable_1'
p594
ag94
aS'variable_7'
p595
ag95
ag16
ag23
aS'variable_7'
p596
aS'+='
p597
ag131
ag23
aS'switch'
p598
ag6
aS'variable_12'
p599
ag16
aS'variable_7'
p600
ag19
aS'variable_7'
p601
ag136
aS'variable_11'
p602
ag138
ag102
ag23
aS'variable_18'
p603
ag19
ag26
ag23
aS'variable_16'
p604
ag19
aS'func_6'
p605
ag6
ag84
aS'variable_1'
p606
ag94
aS'variable_7'
p607
ag95
ag16
ag23
aS'variable_7'
p608
aS'+='
p609
ag131
ag23
aS'while'
p610
ag6
aS'variable_16'
p611
ag115
ag26
ag16
aS'variable_17'
p612
ag19
aS'func_7'
p613
ag6
ag84
aS'variable_1'
p614
ag94
aS'variable_7'
p615
ag95
ag16
ag23
aS'variable_7'
p616
aS'+='
p617
ag131
ag23
aS'if'
p618
ag6
aS'variable_17'
p619
ag88
ag26
ag16
aS'variable_17'
p620
ag19
ag138
aS'variable_17'
p621
ag23
aS'variable_18'
p622
aS'+='
p623
aS'variable_17'
p624
ag8
aS'variable_4'
p625
aS'->'
p626
aS'variable_22'
p627
ag68
aS'variable_28'
p628
ag94
ag26
ag95
ag23
aS'variable_16'
p629
aS'--'
p630
ag23
aS'variable_29'
p631
ag19
aS'variable_18'
p632
ag23
aS'variable_21'
p633
ag19
aS'variable_4'
p634
aS'->'
p635
aS'variable_5'
p636
aS'->'
p637
aS'variable_30'
p638
ag23
aS'for'
p639
ag6
aS'variable_13'
p640
ag19
ag26
ag23
aS'variable_13'
p641
ag88
aS'variable_17'
p642
ag23
aS'variable_13'
p643
aS'++'
p644
ag16
aS'variable_20'
p645
ag19
aS'variable_1'
p646
ag94
aS'variable_7'
p647
aS'++'
p648
ag95
ag23
aS'variable_29'
p649
aS'+='
p650
ag6
aS'variable_20'
p651
ag8
ag131
ag16
ag23
aS'variable_21'
p652
aS'-='
p653
aS'variable_20'
p654
ag23
aS'variable_19'
p655
ag19
ag6
aS'signed'
p656
aS'char'
p657
ag16
ag6
aS'variable_1'
p658
ag94
aS'variable_7'
p659
aS'++'
p660
ag95
ag16
ag23
aS'if'
p661
ag6
aS'variable_19'
p662
ag88
ag26
ag16
aS'variable_19'
p663
ag19
ag138
aS'variable_19'
p664
ag23
aS'variable_31'
p665
ag19
aS'func_8'
p666
ag6
ag84
aS'variable_1'
p667
ag94
aS'variable_7'
p668
ag95
ag16
ag23
aS'variable_7'
p669
aS'+='
p670
ag131
ag23
aS'func_9'
p671
ag6
ag131
ag8
aS'variable_19'
p672
ag16
ag23
aS'for'
p673
ag6
aS'variable_14'
p674
ag19
ag26
ag23
aS'variable_14'
p675
ag88
aS'variable_19'
p676
ag23
aS'variable_14'
p677
aS'++'
p678
ag10
aS'variable_21'
p679
aS'-='
p680
ag131
ag16
ag8
ag6
ag6
aS'signed'
p681
aS'short'
p682
ag8
ag16
ag6
ag84
aS'variable_32'
p683
ag94
aS'variable_29'
p684
ag95
ag16
ag16
ag19
aS'variable_31'
p685
ag23
aS'variable_29'
p686
aS'+='
p687
ag131
ag23
aS'func_10'
p688
ag6
ag131
ag8
aS'variable_19'
p689
ag16
ag23
aS'for'
p690
ag6
aS'variable_14'
p691
ag19
ag26
ag23
aS'variable_14'
p692
ag88
aS'variable_19'
p693
ag23
aS'variable_14'
p694
aS'++'
p695
ag10
aS'variable_21'
p696
aS'--'
p697
ag16
ag8
ag6
ag6
aS'signed'
p698
aS'short'
p699
ag8
ag16
ag6
ag84
aS'variable_32'
p700
ag94
aS'variable_29'
p701
ag95
ag16
ag16
ag19
aS'func_11'
p702
ag6
ag84
aS'variable_1'
p703
ag94
aS'variable_7'
p704
ag95
ag16
ag23
aS'variable_7'
p705
aS'+='
p706
ag131
ag23
aS'variable_29'
p707
aS'+='
p708
ag131
ag23
aS'variable_18'
p709
aS'+='
p710
aS'variable_4'
p711
aS'->'
p712
aS'variable_22'
p713
ag68
aS'variable_28'
p714
ag94
ag26
ag95
ag23
aS'variable_7'
p715
ag19
aS'variable_7'
p716
ag136
aS'variable_11'
p717
ag138
ag102
ag23
aS'memset'
p718
ag6
aS'variable_32'
p719
ag10
aS'0x0000'
p720
ag10
aS'variable_4'
p721
aS'->'
p722
aS'variable_22'
p723
ag68
aS'variable_28'
p724
ag94
ag26
ag95
ag8
aS'variable_4'
p725
aS'->'
p726
aS'variable_5'
p727
aS'->'
p728
aS'variable_33'
p729
ag16
ag23
aS'variable_18'
p730
ag19
ag26
ag23
aS'for'
p731
ag6
aS'variable_15'
p732
ag19
ag26
ag23
aS'variable_15'
p733
ag88
aS'variable_4'
p734
aS'->'
p735
aS'variable_5'
p736
aS'->'
p737
aS'variable_33'
p738
ag23
aS'variable_15'
p739
aS'++'
p740
ag16
aS'variable_29'
p741
ag19
aS'variable_18'
p742
ag23
aS'variable_7'
p743
aS'++'
p744
ag23
aS'variable_21'
p745
ag19
ag6
aS'variable_4'
p746
aS'->'
p747
aS'variable_5'
p748
aS'->'
p749
aS'variable_30'
p750
ag8
ag131
ag16
ag23
aS'while'
p751
ag6
aS'variable_21'
p752
ag115
ag26
ag16
aS'variable_19'
p753
ag19
ag6
aS'signed'
p754
aS'char'
p755
ag16
ag6
aS'variable_1'
p756
ag94
aS'variable_7'
p757
aS'++'
p758
ag95
ag16
ag23
aS'if'
p759
ag6
aS'variable_19'
p760
ag115
ag26
ag16
aS'variable_8'
p761
ag19
aS'variable_1'
p762
ag94
aS'variable_7'
p763
aS'++'
p764
ag95
ag23
aS'func_12'
p765
ag6
aS'variable_19'
p766
ag16
ag23
aS'for'
p767
ag6
aS'variable_14'
p768
ag19
ag26
ag23
aS'variable_14'
p769
ag88
aS'variable_19'
p770
ag23
aS'variable_14'
p771
aS'++'
p772
ag16
aS'variable_32'
p773
ag94
aS'variable_29'
p774
aS'++'
p775
ag95
ag19
aS'variable_8'
p776
ag23
aS'variable_21'
p777
aS'--'
p778
ag23
aS'if'
p779
ag6
aS'variable_21'
p780
ag88
ag26
ag16
aS'func_13'
p781
ag6
aS'variable_5'
p782
ag10
aS'variable_34'
p783
ag10
aS'"'
p784
aS'pixel_countdown'
p785
ag88
ag26
ag6
aS'%'
p786
aS'd'
p787
ag16
ag6
aS'linea'
p788
ag786
ag787
ag16
aS'\\'
p789
aS'n'
p790
ag784
ag10
aS'variable_21'
p791
ag10
aS'variable_15'
p792
ag16
ag23
aS'variable_19'
p793
ag19
ag138
aS'variable_19'
p794
ag23
aS'func_14'
p795
ag6
aS'variable_19'
p796
ag16
ag23
aS'for'
p797
ag6
aS'variable_14'
p798
ag19
ag26
ag23
aS'variable_14'
p799
ag88
aS'variable_19'
p800
ag23
aS'variable_14'
p801
aS'++'
p802
ag16
aS'variable_8'
p803
ag19
aS'variable_1'
p804
ag94
aS'variable_7'
p805
aS'++'
p806
ag95
ag23
aS'variable_32'
p807
ag94
aS'variable_29'
p808
aS'++'
p809
ag95
ag19
aS'variable_8'
p810
ag23
aS'variable_21'
p811
aS'--'
p812
ag23
aS'if'
p813
ag6
aS'variable_21'
p814
ag88
ag26
ag16
aS'func_15'
p815
ag6
aS'variable_5'
p816
ag10
aS'variable_34'
p817
ag10
ag784
aS'pixel_countdown'
p818
ag88
ag26
ag6
ag786
ag787
ag16
aS'at'
p819
aS'line'
p820
ag786
ag787
ag789
ag790
ag784
ag10
aS'variable_21'
p821
ag10
aS'variable_15'
p822
ag16
ag23
aS'variable_29'
p823
ag19
aS'variable_18'
p824
ag23
aS'variable_21'
p825
ag19
aS'variable_4'
p826
aS'->'
p827
aS'variable_5'
p828
aS'->'
p829
aS'variable_30'
p830
ag23
aS'while'
p831
ag6
aS'variable_21'
p832
ag115
ag26
ag16
ag8
ag6
ag6
aS'signed'
p833
aS'short'
p834
ag8
ag16
ag6
ag84
aS'variable_32'
p835
ag94
aS'variable_29'
p836
ag95
ag16
ag16
ag19
aS'func_16'
p837
ag6
ag84
aS'variable_1'
p838
ag94
aS'variable_29'
p839
ag95
ag16
ag23
aS'variable_29'
p840
aS'+='
p841
ag131
ag23
aS'variable_18'
p842
aS'+='
p843
aS'variable_4'
p844
aS'->'
p845
aS'variable_22'
p846
ag68
aS'variable_28'
p847
ag94
ag26
ag95
ag23
aS'variable_18'
p848
ag19
ag26
ag23
aS'for'
p849
ag6
aS'variable_15'
p850
ag19
ag26
ag23
aS'variable_15'
p851
ag88
aS'variable_4'
p852
aS'->'
p853
aS'variable_5'
p854
aS'->'
p855
aS'variable_33'
p856
ag23
aS'variable_15'
p857
aS'++'
p858
ag16
aS'variable_29'
p859
ag19
aS'variable_18'
p860
ag23
aS'variable_7'
p861
aS'++'
p862
ag23
aS'variable_21'
p863
ag19
aS'variable_4'
p864
aS'->'
p865
aS'variable_5'
p866
aS'->'
p867
aS'variable_30'
p868
ag23
aS'while'
p869
ag6
aS'variable_21'
p870
ag115
ag26
ag16
aS'variable_19'
p871
ag19
ag6
aS'signed'
p872
aS'char'
p873
ag16
ag6
aS'variable_1'
p874
ag94
aS'variable_7'
p875
aS'++'
p876
ag95
ag16
ag23
aS'if'
p877
ag6
aS'variable_19'
p878
ag115
ag26
ag16
aS'variable_31'
p879
ag19
aS'func_17'
p880
ag6
ag84
aS'variable_1'
p881
ag94
aS'variable_7'
p882
ag95
ag16
ag23
aS'variable_7'
p883
aS'+='
p884
ag131
ag23
aS'func_18'
p885
ag6
ag131
ag8
aS'variable_19'
p886
ag16
ag23
aS'for'
p887
ag6
aS'variable_14'
p888
ag19
ag26
ag23
aS'variable_14'
p889
ag88
aS'variable_19'
p890
ag23
aS'variable_14'
p891
aS'++'
p892
ag16
ag8
ag6
ag6
aS'signed'
p893
aS'short'
p894
ag8
ag16
ag6
ag84
aS'variable_32'
p895
ag94
aS'variable_29'
p896
ag95
ag16
ag16
ag19
aS'variable_31'
p897
ag23
aS'variable_29'
p898
aS'+='
p899
ag131
ag23
aS'variable_21'
p900
aS'--'
p901
ag23
aS'if'
p902
ag6
aS'variable_21'
p903
ag88
ag26
ag16
aS'func_19'
p904
ag6
aS'variable_5'
p905
ag10
aS'variable_34'
p906
ag10
ag784
aS'pixel_countdown'
p907
ag88
ag26
ag6
ag786
ag787
ag16
ag789
ag790
ag784
ag10
aS'variable_21'
p908
ag16
ag23
aS'variable_19'
p909
ag19
ag138
aS'variable_19'
p910
ag23
aS'func_20'
p911
ag6
ag131
ag8
aS'variable_19'
p912
ag16
ag23
aS'for'
p913
ag6
aS'variable_14'
p914
ag19
ag26
ag23
aS'variable_14'
p915
ag88
aS'variable_19'
p916
ag23
aS'variable_14'
p917
aS'++'
p918
ag16
ag8
ag6
ag6
aS'signed'
p919
aS'short'
p920
ag8
ag16
ag6
ag84
aS'variable_32'
p921
ag94
aS'variable_29'
p922
ag95
ag16
ag16
ag19
aS'func_21'
p923
ag6
ag84
aS'variable_1'
p924
ag94
aS'variable_7'
p925
ag95
ag16
ag23
aS'variable_7'
p926
aS'+='
p927
ag131
ag23
aS'variable_29'
p928
aS'+='
p929
ag131
ag23
aS'variable_21'
p930
aS'--'
p931
ag23
aS'if'
p932
ag6
aS'variable_21'
p933
ag88
ag26
ag16
aS'func_22'
p934
ag6
aS'variable_5'
p935
ag10
aS'variable_34'
p936
ag10
ag784
aS'pixel_countdown'
p937
ag88
ag26
ag6
ag786
ag787
ag16
ag789
ag790
ag784
ag10
aS'variable_21'
p938
ag16
ag23
aS'variable_18'
p939
aS'+='
p940
aS'variable_4'
p941
aS'->'
p942
aS'variable_22'
p943
ag68
aS'variable_28'
p944
ag94
ag26
ag95
ag23
aS'if'
p945
ag6
aS'variable_11'
p946
ag138
ag102
ag115
ag6
aS'unsigned'
p947
aS'int'
p948
ag16
ag6
aS'variable_4'
p949
aS'->'
p950
aS'variable_5'
p951
aS'->'
p952
aS'variable_30'
p953
ag8
aS'variable_4'
p954
aS'->'
p955
aS'variable_5'
p956
aS'->'
p957
aS'variable_33'
p958
ag16
ag8
ag131
ag16
aS'func_23'
p959
ag6
aS'variable_5'
p960
ag10
aS'variable_34'
p961
ag10
ag784
aS'bigger'
p962
aS'than'
p963
aS'image'
p964
ag10
aS'skipping'
p965
aS'chunk'
p966
ag789
ag790
ag784
ag10
aS'variable_11'
p967
ag138
ag102
ag16
aS'variable_7'
p968
aS'+='
p969
aS'variable_11'
p970
ag138
ag102
ag23
aS'for'
p971
ag6
aS'variable_18'
p972
ag19
ag26
ag23
aS'variable_18'
p973
ag88
aS'variable_4'
p974
aS'->'
p975
aS'variable_22'
p976
ag68
aS'variable_28'
p977
ag94
ag26
ag95
ag8
aS'variable_18'
p978
aS'+='
p979
aS'variable_4'
p980
aS'->'
p981
aS'variable_22'
p982
ag68
aS'variable_28'
p983
ag94
ag26
ag95
ag16
aS'while'
p984
ag6
aS'variable_21'
p985
ag115
ag26
ag16
ag8
ag6
ag6
aS'signed'
p986
aS'short'
p987
ag8
ag16
ag6
ag84
aS'variable_32'
p988
ag94
aS'variable_18'
p989
ag136
aS'variable_29'
p990
ag95
ag16
ag16
ag19
aS'func_24'
p991
ag6
ag84
aS'variable_1'
p992
ag94
aS'variable_7'
p993
ag136
aS'variable_29'
p994
ag95
ag16
ag23
aS'variable_29'
p995
aS'+='
p996
ag131
ag23
aS'variable_21'
p997
aS'--'
p998
ag23
aS'variable_7'
p999
aS'+='
p1000
aS'variable_4'
p1001
aS'->'
p1002
aS'variable_5'
p1003
aS'->'
p1004
aS'variable_30'
p1005
ag8
ag131
ag23
aS'variable_7'
p1006
aS'+='
p1007
aS'variable_11'
p1008
ag138
ag102
ag23
aS'func_25'
p1009
ag6
aS'variable_5'
p1010
ag10
aS'variable_34'
p1011
ag10
ag784
aS'Unrecognized'
p1012
aS'chunk'
p1013
aS'type'
p1014
aS':'
p1015
ag786
ag787
ag789
ag790
ag784
ag10
aS'variable_12'
p1016
ag16
ag23
aS'variable_9'
p1017
aS'-='
p1018
aS'variable_11'
p1019
ag23
aS'variable_10'
p1020
aS'--'
p1021
ag23
aS'if'
p1022
ag6
ag6
aS'variable_7'
p1023
aS'!='
p1024
aS'variable_2'
p1025
ag16
aS'&&'
p1026
ag6
aS'variable_7'
p1027
aS'!='
p1028
aS'variable_2'
p1029
ag138
ag70
ag16
ag16
aa(lp1030
S'static'
p1031
aS'int'
p1032
aS'func_0'
p1033
ag6
aS'void'
p1034
ag8
aS'variable_0'
p1035
ag10
aS'const'
p1036
aS'uint8_t'
p1037
ag8
aS'variable_1'
p1038
ag10
aS'int'
p1039
aS'variable_2'
p1040
ag16
aS'variable_3'
p1041
ag8
aS'variable_4'
p1042
ag19
aS'variable_5'
p1043
aS'->'
p1044
aS'variable_6'
p1045
ag23
aS'unsigned'
p1046
aS'int'
p1047
aS'variable_7'
p1048
ag23
aS'variable_4'
p1049
aS'->'
p1050
aS'variable_8'
p1051
ag68
aS'variable_9'
p1052
ag19
ag70
ag23
aS'variable_4'
p1053
aS'->'
p1054
aS'variable_8'
p1055
ag68
aS'variable_10'
p1056
ag19
aS'variable_11'
p1057
ag76
aS'variable_12'
p1058
ag76
aS'variable_13'
p1059
ag23
aS'if'
p1060
ag6
aS'variable_5'
p1061
aS'->'
p1062
aS'func_1'
p1063
ag6
aS'variable_5'
p1064
ag10
ag84
aS'variable_4'
p1065
aS'->'
p1066
aS'variable_8'
p1067
ag16
ag88
ag26
ag16
aS'variable_7'
p1068
ag19
aS'variable_4'
p1069
aS'->'
p1070
aS'variable_5'
p1071
aS'->'
p1072
aS'variable_14'
p1073
ag8
aS'variable_4'
p1074
aS'->'
p1075
aS'variable_8'
p1076
ag68
aS'variable_15'
p1077
ag94
ag26
ag95
ag23
aaa(lp1078
I0
aI0
aI0
aa(lp1079
I960
aI471
aI79
aa(lp1080
(lp1081
S'main'
p1082
aa(lp1083
g1082
aa(lp1084
g1082
aaa(lp1085
S'138 /home/SySeVR/data/CVE_2010_3429_PATCHED_flic_decode_frame_15_16BPP.c * ( ( signed short * ) ( & pixels [ y_ptr + pixel_ptr ] ) ) = AV_RL16 ( & buf [ stream_ptr + pixel_ptr ] ) 232'
p1086
aS'139 /home/SySeVR/data/CVE_2010_3429_PATCHED_flic_decode_frame_15_16BPP.c stream_ptr = stream_ptr + chunk_size - 6 114'
p1087
aS'141 /home/SySeVR/data/CVE_2010_3429_PATCHED_flic_decode_frame_15_16BPP.c pixel_limit = s -> avctx -> height * s -> frame . linesize [ 0 ] 40'
p1088
aa.