(lp0
(lp1
(lp2
S'static'
p3
aS'int'
p4
aS'func_0'
p5
aS'('
p6
aS'struct'
p7
aS'variable_0'
p8
aS'*'
p9
ag9
aS'variable_1'
p10
aS','
p11
aS'unsigned'
p12
aS'int'
p13
aS'variable_2'
p14
ag11
aS'size_t'
p15
aS'variable_3'
p16
ag11
aS'bool'
p17
aS'variable_4'
p18
aS')'
p19
aS'struct'
p20
aS'iov_iter'
p21
aS'variable_5'
p22
aS';'
p23
aS'int'
p24
aS'variable_6'
p25
aS'='
p26
aS'0'
p27
ag23
aS'if'
p28
ag6
aS'!'
p29
aS'variable_3'
p30
ag19
aS'while'
p31
ag6
aS'func_1'
p32
ag6
aS'&'
p33
aS'variable_5'
p34
ag19
ag19
aS'struct'
p35
aS'variable_0'
p36
ag9
aS'variable_0'
p37
ag26
aS'variable_1'
p38
aS'['
p39
aS'variable_6'
p40
aS'++'
p41
aS']'
p42
ag23
aS'size_t'
p43
aS'variable_7'
p44
ag26
aS'func_2'
p45
ag6
aS'size_t'
p46
ag11
aS'variable_8'
p47
ag11
aS'func_3'
p48
ag6
ag33
aS'variable_5'
p49
ag19
ag19
ag23
aS'void'
p50
ag9
aS'variable_9'
p51
ag11
ag9
aS'variable_10'
p52
ag23
aS'variable_9'
p53
ag26
aS'variable_10'
p54
ag26
aS'func_4'
p55
ag6
aS'variable_0'
p56
ag19
ag23
aS'while'
p57
ag6
aS'variable_7'
p58
ag19
aS'char'
p59
aS'variable_11'
p60
ag9
aS'variable_12'
p61
ag26
aS'variable_5'
p62
aS'.'
p63
aS'variable_13'
p64
aS'->'
p65
aS'variable_14'
p66
aS'+'
p67
aS'variable_5'
p68
ag63
aS'variable_15'
p69
ag23
aS'size_t'
p70
aS'variable_16'
p71
ag26
aS'variable_5'
p72
ag63
aS'variable_13'
p73
aS'->'
p74
aS'variable_16'
p75
aS'-'
p76
aS'variable_5'
p77
ag63
aS'variable_15'
p78
ag23
aS'size_t'
p79
aS'variable_17'
p80
ag26
aS'min'
p81
ag6
aS'variable_7'
p82
ag11
aS'variable_16'
p83
ag19
ag23
aS'size_t'
p84
aS'variable_18'
p85
ag23
aS'if'
p86
ag6
ag29
aS'variable_4'
p87
ag19
aS'variable_18'
p88
ag26
aS'func_5'
p89
ag6
aS'variable_9'
p90
ag11
aS'variable_12'
p91
ag11
aS'variable_17'
p92
ag19
ag23
aS'variable_18'
p93
ag26
aS'func_6'
p94
ag6
aS'variable_12'
p95
ag11
aS'variable_9'
p96
ag11
aS'variable_17'
p97
ag19
ag23
aS'if'
p98
ag6
aS'func_7'
p99
ag6
aS'variable_18'
p100
ag19
ag19
aS'func_8'
p101
ag6
ag33
aS'variable_5'
p102
ag11
aS'variable_17'
p103
ag19
ag23
aS'variable_7'
p104
aS'-='
p105
aS'variable_17'
p106
ag23
aS'variable_9'
p107
aS'+='
p108
aS'variable_17'
p109
ag23
aa(lp110
S'static'
p111
aS'int'
p112
aS'func_0'
p113
ag6
aS'struct'
p114
aS'variable_0'
p115
ag9
ag9
aS'variable_1'
p116
ag11
aS'unsigned'
p117
aS'int'
p118
aS'variable_2'
p119
ag11
aS'size_t'
p120
aS'variable_3'
p121
ag11
aS'bool'
p122
aS'variable_4'
p123
ag19
aS'struct'
p124
aS'iov_iter'
p125
aS'variable_5'
p126
ag23
aS'int'
p127
aS'variable_6'
p128
ag26
ag27
ag23
aS'if'
p129
ag6
ag29
aS'variable_3'
p130
ag19
aS'while'
p131
ag6
aS'func_1'
p132
ag6
ag33
aS'variable_5'
p133
ag19
ag19
aS'struct'
p134
aS'variable_0'
p135
ag9
aS'variable_0'
p136
ag26
aS'variable_1'
p137
ag39
aS'variable_6'
p138
aS'++'
p139
ag42
ag23
aS'size_t'
p140
aS'variable_7'
p141
ag26
aS'func_2'
p142
ag6
aS'size_t'
p143
ag11
aS'variable_8'
p144
ag11
aS'func_3'
p145
ag6
ag33
aS'variable_5'
p146
ag19
ag19
ag23
aS'void'
p147
ag9
aS'variable_9'
p148
ag11
ag9
aS'variable_10'
p149
ag23
aS'variable_9'
p150
ag26
aS'variable_10'
p151
ag26
aS'func_4'
p152
ag6
aS'variable_0'
p153
ag19
ag23
aS'while'
p154
ag6
aS'variable_7'
p155
ag19
aS'char'
p156
aS'variable_11'
p157
ag9
aS'variable_12'
p158
ag26
aS'variable_5'
p159
ag63
aS'variable_13'
p160
aS'->'
p161
aS'variable_14'
p162
ag67
aS'variable_5'
p163
ag63
aS'variable_15'
p164
ag23
aS'size_t'
p165
aS'variable_16'
p166
ag26
aS'variable_5'
p167
ag63
aS'variable_13'
p168
aS'->'
p169
aS'variable_16'
p170
ag76
aS'variable_5'
p171
ag63
aS'variable_15'
p172
ag23
aS'size_t'
p173
aS'variable_17'
p174
ag26
aS'min'
p175
ag6
aS'variable_7'
p176
ag11
aS'variable_16'
p177
ag19
ag23
aS'size_t'
p178
aS'variable_18'
p179
ag23
aS'if'
p180
ag6
ag29
aS'variable_4'
p181
ag19
aS'variable_18'
p182
ag26
aS'func_5'
p183
ag6
aS'variable_9'
p184
ag11
aS'variable_12'
p185
ag11
aS'variable_17'
p186
ag19
ag23
aS'variable_18'
p187
ag26
aS'func_6'
p188
ag6
aS'variable_12'
p189
ag11
aS'variable_9'
p190
ag11
aS'variable_17'
p191
ag19
ag23
aS'if'
p192
ag6
aS'func_7'
p193
ag6
aS'variable_18'
p194
ag19
ag19
aS'variable_7'
p195
aS'-='
p196
aS'variable_17'
p197
ag23
aS'variable_9'
p198
aS'+='
p199
aS'variable_17'
p200
ag23
aaa(lp201
I0
aI0
aa(lp202
I117
aI104
aa(lp203
(lp204
S'main'
p205
aa(lp206
g205
aaa(lp207
S'749 /home/SySeVR/data/CVE_2009_4410_PATCHED_fuse_ioctl_copy_user.c size_t iov_len = ii . iov -> iov_len - ii . iov_offset ; 21'
p208
aS'750 /home/SySeVR/data/CVE_2009_4410_PATCHED_fuse_ioctl_copy_user.c char __user * uaddr = ii . iov -> iov_base + ii . iov_offset ; 20'
p209
aa.