(lp0
(lp1
(lp2
S'static'
p3
aS'void'
p4
aS'func_0'
p5
aS'('
p6
aS'struct'
p7
aS'variable_0'
p8
aS'*'
p9
aS'variable_1'
p10
aS')'
p11
aS'int'
p12
aS'variable_2'
p13
aS';'
p14
aS'variable_3'
p15
ag9
aS'variable_4'
p16
aS'='
p17
ag6
aS'pjsip_accept_hdr'
p18
ag9
ag11
aS'func_1'
p19
ag6
aS'variable_5'
p20
aS'->'
p21
aS'variable_6'
p22
aS'.'
p23
aS'variable_7'
p24
aS','
p25
aS'variable_8'
p26
ag25
aS'NULL'
p27
ag11
ag14
aS'if'
p28
ag6
aS'!'
p29
aS'variable_4'
p30
ag11
aS'variable_4'
p31
ag17
aS'&'
p32
aS'variable_9'
p33
ag14
aS'variable_1'
p34
aS'->'
p35
aS'variable_10'
p36
ag17
aS'variable_4'
p37
aS'->'
p38
aS'variable_11'
p39
ag14
aS'variable_1'
p40
aS'->'
p41
aS'variable_12'
p42
ag17
aS'func_2'
p43
ag6
aS'variable_4'
p44
aS'->'
p45
aS'variable_11'
p46
ag9
aS'sizeof'
p47
ag6
aS'char'
p48
ag9
ag11
ag11
ag14
aS'for'
p49
ag6
aS'variable_2'
p50
ag17
aS'0'
p51
ag14
aS'variable_2'
p52
aS'<'
p53
aS'variable_4'
p54
aS'->'
p55
aS'variable_11'
p56
ag14
aS'++'
p57
aS'variable_2'
p58
ag11
aS'variable_1'
p59
aS'->'
p60
aS'variable_12'
p61
aS'['
p62
aS'variable_2'
p63
aS']'
p64
ag17
aS'func_3'
p65
ag6
aS'variable_4'
p66
aS'->'
p67
aS'variable_13'
p68
ag62
aS'variable_2'
p69
ag64
ag23
aS'variable_14'
p70
ag9
aS'sizeof'
p71
ag6
aS'char'
p72
ag9
ag11
aS'+'
p73
aS'1'
p74
ag11
ag14
aS'func_4'
p75
ag6
aS'variable_1'
p76
aS'->'
p77
aS'variable_12'
p78
ag62
aS'variable_2'
p79
ag64
ag25
aS'func_5'
p80
ag6
ag32
aS'variable_4'
p81
aS'->'
p82
aS'variable_13'
p83
ag62
aS'variable_2'
p84
ag64
ag11
ag25
aS'variable_4'
p85
aS'->'
p86
aS'variable_13'
p87
ag62
aS'variable_2'
p88
ag64
ag23
aS'variable_14'
p89
ag73
ag74
ag11
ag14
aa(lp90
S'static'
p91
aS'void'
p92
aS'func_0'
p93
ag6
aS'struct'
p94
aS'variable_0'
p95
ag9
aS'variable_1'
p96
ag11
aS'variable_2'
p97
ag9
aS'variable_3'
p98
ag17
ag6
aS'pjsip_accept_hdr'
p99
ag9
ag11
aS'func_1'
p100
ag6
aS'variable_4'
p101
aS'->'
p102
aS'variable_5'
p103
ag23
aS'variable_6'
p104
ag25
aS'variable_7'
p105
ag25
aS'NULL'
p106
ag11
ag14
aS'if'
p107
ag6
ag29
aS'variable_3'
p108
ag11
aS'variable_3'
p109
ag17
ag32
aS'variable_8'
p110
ag14
aS'variable_1'
p111
aS'->'
p112
aS'variable_9'
p113
ag17
aS'variable_3'
p114
aS'->'
p115
aS'variable_10'
p116
ag14
aS'variable_1'
p117
aS'->'
p118
aS'variable_11'
p119
ag17
aS'func_2'
p120
ag6
aS'variable_3'
p121
aS'->'
p122
aS'variable_10'
p123
ag9
aS'sizeof'
p124
ag6
aS'char'
p125
ag9
ag11
ag11
ag14
aS'variable_1'
p126
aS'->'
p127
aS'variable_11'
p128
ag62
aS'variable_12'
p129
ag64
ag17
aS'func_3'
p130
ag6
aS'variable_3'
p131
aS'->'
p132
aS'variable_13'
p133
ag62
aS'variable_12'
p134
ag64
ag23
aS'variable_14'
p135
ag9
aS'sizeof'
p136
ag6
aS'char'
p137
ag9
ag11
ag73
ag74
ag11
ag14
aS'func_4'
p138
ag6
aS'variable_1'
p139
aS'->'
p140
aS'variable_11'
p141
ag62
aS'variable_12'
p142
ag64
ag25
aS'func_5'
p143
ag6
ag32
aS'variable_3'
p144
aS'->'
p145
aS'variable_13'
p146
ag62
aS'variable_12'
p147
ag64
ag11
ag25
aS'variable_3'
p148
aS'->'
p149
aS'variable_13'
p150
ag62
aS'variable_12'
p151
ag64
ag23
aS'variable_14'
p152
ag73
ag74
ag11
ag14
aaa(lp153
I0
aI0
aa(lp154
I105
aI62
aa(lp155
(lp156
S'main'
p157
aa(lp158
g157
aaa(lp159
S'613 /home/SySeVR/data/CVE_2014_2289_PATCHED_copy_body_types.c exten_state_sub -> body_types [ i ] = ast_malloc ( hdr -> values [ i ] . slen * sizeof ( char * ) + 1 ) 19'
p160
aS'614 /home/SySeVR/data/CVE_2014_2289_PATCHED_copy_body_types.c exten_state_sub -> body_types = ast_malloc ( hdr -> count * sizeof ( char * ) ) 16'
p161
aa.