(lp0
(lp1
(lp2
S'func_0'
p3
aS'('
p4
aS'void'
p5
aS'variable_0'
p6
aS'*'
p7
aS'variable_1'
p8
aS','
p9
aS'enum'
p10
aS'block_state'
p11
aS'variable_2'
p12
aS')'
p13
aS'struct'
p14
aS'mpt2_diag_read_buffer'
p15
aS'variable_3'
p16
aS';'
p17
aS'struct'
p18
aS'mpt2_diag_read_buffer'
p19
aS'variable_0'
p20
ag7
aS'variable_4'
p21
aS'='
p22
aS'variable_1'
p23
ag17
aS'struct'
p24
aS'variable_5'
p25
ag7
aS'variable_6'
p26
ag17
aS'void'
p27
ag7
aS'variable_7'
p28
ag9
ag7
aS'variable_8'
p29
ag17
aS'u8'
p30
aS'variable_9'
p31
ag17
aS'u16'
p32
aS'variable_10'
p33
ag17
aS'if'
p34
ag4
aS'func_1'
p35
ag4
aS'&'
p36
aS'variable_3'
p37
ag9
aS'variable_1'
p38
ag9
aS'sizeof'
p39
ag4
aS'variable_3'
p40
ag13
ag13
ag13
aS'if'
p41
ag4
aS'func_2'
p42
ag4
aS'variable_3'
p43
aS'.'
p44
aS'variable_11'
p45
ag44
aS'variable_12'
p46
ag9
ag36
aS'variable_6'
p47
ag13
aS'=='
p48
aS'-'
p49
aS'1'
p50
aS'||'
p51
aS'!'
p52
aS'variable_6'
p53
ag13
aS'variable_9'
p54
ag22
aS'variable_3'
p55
ag44
aS'variable_13'
p56
ag36
aS'0x000000ff'
p57
ag17
aS'if'
p58
ag4
ag52
aS'func_3'
p59
ag4
aS'variable_6'
p60
ag9
aS'variable_9'
p61
ag13
ag13
aS'if'
p62
ag4
aS'variable_3'
p63
ag44
aS'variable_13'
p64
aS'!='
p65
aS'variable_6'
p66
aS'->'
p67
aS'variable_13'
p68
aS'['
p69
aS'variable_9'
p70
aS']'
p71
ag13
aS'variable_7'
p72
ag22
aS'variable_6'
p73
aS'->'
p74
aS'variable_14'
p75
ag69
aS'variable_9'
p76
ag71
ag17
aS'if'
p77
ag4
ag52
aS'variable_7'
p78
ag13
aS'if'
p79
ag4
ag4
aS'variable_3'
p80
ag44
aS'variable_15'
p81
aS'%'
p82
aS'4'
p83
ag13
aS'||'
p84
ag4
aS'variable_3'
p85
ag44
aS'variable_16'
p86
ag82
ag83
ag13
ag13
aS'variable_8'
p87
ag22
ag4
aS'void'
p88
ag7
ag13
ag4
aS'variable_7'
p89
aS'+'
p90
aS'variable_3'
p91
ag44
aS'variable_15'
p92
ag13
ag17
aS'if'
p93
ag4
aS'func_4'
p94
ag4
ag4
aS'void'
p95
aS'__user'
p96
ag7
ag13
aS'variable_4'
p97
aS'->'
p98
aS'variable_17'
p99
ag9
aS'variable_8'
p100
ag9
aS'variable_3'
p101
ag44
aS'variable_16'
p102
ag13
ag13
aS'if'
p103
ag4
ag4
aS'variable_3'
p104
ag44
aS'variable_18'
p105
ag36
aS'variable_19'
p106
ag13
aS'=='
p107
aS'0'
p108
ag13
aS'if'
p109
ag4
ag4
aS'variable_6'
p110
aS'->'
p111
aS'variable_20'
p112
ag69
aS'variable_9'
p113
ag71
ag36
aS'variable_21'
p114
ag13
aS'=='
p115
ag108
ag13
aS'if'
p116
ag4
aS'variable_2'
p117
aS'=='
p118
aS'variable_22'
p119
aS'&&'
p120
ag52
aS'func_5'
p121
ag4
ag36
aS'variable_6'
p122
aS'->'
p123
aS'variable_23'
p124
ag44
aS'variable_24'
p125
ag13
ag13
aS'if'
p126
ag4
aS'func_6'
p127
ag4
ag36
aS'variable_6'
p128
aS'->'
p129
aS'variable_23'
p130
ag44
aS'variable_24'
p131
ag13
ag13
aS'if'
p132
ag4
aS'variable_6'
p133
aS'->'
p134
aS'variable_23'
p135
ag44
aS'variable_25'
p136
aS'!='
p137
aS'variable_26'
p138
ag13
aS'variable_10'
p139
ag22
aS'func_7'
p140
ag4
aS'variable_6'
p141
ag9
aS'variable_6'
p142
aS'->'
p143
aS'variable_27'
p144
ag13
ag17
aS'if'
p145
ag4
ag52
aS'variable_10'
p146
ag13
aS'variable_6'
p147
aS'->'
p148
aS'variable_23'
p149
ag44
aS'variable_25'
p150
ag22
aS'variable_28'
p151
ag17
aS'memset'
p152
ag4
aS'variable_6'
p153
aS'->'
p154
aS'variable_23'
p155
ag44
aS'variable_29'
p156
ag9
ag108
ag9
aS'variable_6'
p157
aS'->'
p158
aS'variable_30'
p159
ag13
ag17
aS'variable_6'
p160
aS'->'
p161
aS'variable_23'
p162
ag44
aS'variable_10'
p163
ag22
aS'variable_10'
p164
ag17
aS'variable_31'
p165
aS'->'
p166
aS'variable_32'
p167
ag22
aS'func_8'
p168
ag4
aS'variable_6'
p169
aS'->'
p170
aS'variable_33'
p171
ag69
aS'variable_9'
p172
ag71
ag13
ag17
aS'variable_31'
p173
aS'->'
p174
aS'variable_34'
p175
ag22
aS'func_9'
p176
ag4
aS'variable_6'
p177
aS'->'
p178
aS'variable_35'
p179
ag69
aS'variable_9'
p180
ag71
ag13
ag17
aS'variable_31'
p181
aS'->'
p182
aS'variable_36'
p183
ag69
aS'variable_37'
p184
ag71
ag22
aS'func_10'
p185
ag4
aS'variable_6'
p186
aS'->'
p187
aS'variable_38'
p188
ag69
aS'variable_9'
p189
ag71
ag69
aS'variable_37'
p190
ag71
ag13
ag17
aS'variable_31'
p191
aS'->'
p192
aS'variable_39'
p193
ag22
ag108
ag17
aS'variable_31'
p194
aS'->'
p195
aS'variable_40'
p196
ag22
ag108
ag17
aS'func_11'
p197
ag4
aS'variable_6'
p198
ag9
aS'variable_10'
p199
ag13
ag17
aS'func_12'
p200
ag4
ag36
aS'variable_6'
p201
aS'->'
p202
aS'variable_23'
p203
ag44
aS'variable_41'
p204
ag13
ag17
aS'variable_42'
p205
ag22
aS'func_13'
p206
ag4
ag36
aS'variable_6'
p207
aS'->'
p208
aS'variable_23'
p209
ag44
aS'variable_41'
p210
ag9
aS'variable_43'
p211
ag7
aS'variable_44'
p212
ag13
ag17
aS'if'
p213
ag4
ag52
ag4
aS'variable_6'
p214
aS'->'
p215
aS'variable_23'
p216
ag44
aS'variable_25'
p217
ag36
aS'variable_45'
p218
ag13
ag13
aS'func_14'
p219
ag4
aS'variable_46'
p220
aS'"'
p221
ag82
aS's'
p222
aS':'
p223
aS'timeout'
p224
aS'\\'
p225
aS'n'
p226
ag221
ag9
aS'variable_6'
p227
aS'->'
p228
aS'variable_47'
p229
ag13
aS'func_15'
p230
ag4
aS'variable_31'
p231
ag9
aS'sizeof'
p232
ag4
aS'variable_48'
p233
ag13
aS'/'
p234
ag83
ag13
ag17
aS'if'
p235
ag4
ag52
ag4
aS'variable_6'
p236
aS'->'
p237
aS'variable_23'
p238
ag44
aS'variable_25'
p239
ag36
aS'variable_49'
p240
ag13
ag13
aS'if'
p241
ag4
ag4
aS'variable_6'
p242
aS'->'
p243
aS'variable_23'
p244
ag44
aS'variable_25'
p245
ag36
aS'variable_50'
p246
ag13
aS'=='
p247
ag108
ag13
aS'func_16'
p248
ag4
aS'variable_46'
p249
ag221
ag82
ag222
ag223
aS'no'
p250
aS'reply'
p251
aS'message'
p252
ag225
ag226
ag221
aS'variable_6'
p253
aS'->'
p254
aS'variable_51'
p255
ag9
aS'variable_47'
p256
ag13
aS'variable_52'
p257
ag22
aS'variable_6'
p258
aS'->'
p259
aS'variable_23'
p260
ag44
aS'variable_29'
p261
ag17
aS'variable_53'
p262
ag22
aS'func_17'
p263
ag4
aS'variable_52'
p264
aS'->'
p265
aS'variable_54'
p266
ag13
ag36
aS'variable_55'
p267
ag17
aS'if'
p268
ag4
aS'variable_53'
p269
aS'=='
p270
aS'variable_56'
p271
ag13
aS'variable_6'
p272
aS'->'
p273
aS'variable_20'
p274
ag69
aS'variable_9'
p275
ag71
aS'|'
p276
ag22
aS'variable_57'
p277
ag17
aS'func_18'
p278
ag4
aS'variable_6'
p279
ag9
aS'func_19'
p280
ag4
aS'variable_58'
p281
ag221
ag82
ag222
ag223
aS'success'
p282
ag225
ag226
ag221
aS'variable_6'
p283
aS'->'
p284
aS'variable_51'
p285
ag9
aS'variable_47'
p286
ag13
ag13
aS'func_20'
p287
ag4
ag221
aS'log_info'
p288
ag4
aS'0x'
p289
ag82
aS'08x'
p290
ag13
ag225
ag226
ag221
ag9
aS'variable_6'
p291
aS'->'
p292
aS'variable_51'
p293
ag9
aS'variable_53'
p294
ag9
aS'func_21'
p295
ag4
aS'variable_52'
p296
aS'->'
p297
aS'variable_59'
p298
ag13
ag13
aS'func_22'
p299
ag4
aS'variable_6'
p300
ag9
aS'variable_60'
p301
ag9
aS'variable_61'
p302
ag13
ag17
aS'variable_6'
p303
aS'->'
p304
aS'variable_23'
p305
ag44
aS'variable_25'
p306
ag22
aS'variable_26'
p307
ag17
aS'func_23'
p308
ag4
ag36
aS'variable_6'
p309
aS'->'
p310
aS'variable_23'
p311
ag44
aS'variable_24'
p312
ag13
ag17
aaa(lp313
I0
aa(lp314
I263
aa(lp315
(lp316
S'main'
p317
aaa(lp318
S'65 /home/SySeVR/data/CVE_2011_1495_VULN__ctl_diag_read_buffer.c memset 104'
p319
aa.