(lp0
(lp1
(lp2
S'func_0'
p3
aS'('
p4
aS'void'
p5
aS'variable_0'
p6
aS'*'
p7
aS'variable_1'
p8
aS','
p9
aS'enum'
p10
aS'block_state'
p11
aS'variable_2'
p12
aS')'
p13
aS'struct'
p14
aS'mpt2_diag_read_buffer'
p15
aS'variable_3'
p16
aS';'
p17
aS'struct'
p18
aS'mpt2_diag_read_buffer'
p19
aS'variable_0'
p20
ag7
aS'variable_4'
p21
aS'='
p22
aS'variable_1'
p23
ag17
aS'struct'
p24
aS'variable_5'
p25
ag7
aS'variable_6'
p26
ag17
aS'void'
p27
ag7
aS'variable_7'
p28
ag9
ag7
aS'variable_8'
p29
ag17
aS'u8'
p30
aS'variable_9'
p31
ag17
aS'unsigned'
p32
aS'long'
p33
aS'variable_10'
p34
ag17
aS'u16'
p35
aS'variable_11'
p36
ag17
aS'if'
p37
ag4
aS'func_1'
p38
ag4
aS'&'
p39
aS'variable_3'
p40
ag9
aS'variable_1'
p41
ag9
aS'sizeof'
p42
ag4
aS'variable_3'
p43
ag13
ag13
ag13
aS'if'
p44
ag4
aS'func_2'
p45
ag4
aS'variable_3'
p46
aS'.'
p47
aS'variable_12'
p48
ag47
aS'variable_13'
p49
ag9
ag39
aS'variable_6'
p50
ag13
aS'=='
p51
aS'-'
p52
aS'1'
p53
aS'||'
p54
aS'!'
p55
aS'variable_6'
p56
ag13
aS'variable_9'
p57
ag22
aS'variable_3'
p58
ag47
aS'variable_14'
p59
ag39
aS'0x000000ff'
p60
ag17
aS'if'
p61
ag4
ag55
aS'func_3'
p62
ag4
aS'variable_6'
p63
ag9
aS'variable_9'
p64
ag13
ag13
aS'if'
p65
ag4
aS'variable_3'
p66
ag47
aS'variable_14'
p67
aS'!='
p68
aS'variable_6'
p69
aS'->'
p70
aS'variable_14'
p71
aS'['
p72
aS'variable_9'
p73
aS']'
p74
ag13
aS'variable_7'
p75
ag22
aS'variable_6'
p76
aS'->'
p77
aS'variable_15'
p78
ag72
aS'variable_9'
p79
ag74
ag17
aS'if'
p80
ag4
ag55
aS'variable_7'
p81
ag13
aS'if'
p82
ag4
ag4
aS'variable_3'
p83
ag47
aS'variable_16'
p84
aS'%'
p85
aS'4'
p86
ag13
aS'||'
p87
ag4
aS'variable_3'
p88
ag47
aS'variable_17'
p89
ag85
ag86
ag13
ag13
aS'variable_8'
p90
ag22
ag4
aS'void'
p91
ag7
ag13
ag4
aS'variable_7'
p92
aS'+'
p93
aS'variable_3'
p94
ag47
aS'variable_16'
p95
ag13
ag17
aS'if'
p96
ag4
aS'func_4'
p97
ag4
ag4
aS'void'
p98
aS'__user'
p99
ag7
ag13
aS'variable_4'
p100
aS'->'
p101
aS'variable_18'
p102
ag9
aS'variable_8'
p103
ag9
aS'variable_3'
p104
ag47
aS'variable_17'
p105
ag13
ag13
aS'if'
p106
ag4
ag4
aS'variable_3'
p107
ag47
aS'variable_19'
p108
ag39
aS'variable_20'
p109
ag13
aS'=='
p110
aS'0'
p111
ag13
aS'if'
p112
ag4
ag4
aS'variable_6'
p113
aS'->'
p114
aS'variable_21'
p115
ag72
aS'variable_9'
p116
ag74
ag39
aS'variable_22'
p117
ag13
aS'=='
p118
ag111
ag13
aS'if'
p119
ag4
aS'variable_2'
p120
aS'=='
p121
aS'variable_23'
p122
aS'&&'
p123
ag55
aS'func_5'
p124
ag4
ag39
aS'variable_6'
p125
aS'->'
p126
aS'variable_24'
p127
ag47
aS'variable_25'
p128
ag13
ag13
aS'if'
p129
ag4
aS'func_6'
p130
ag4
ag39
aS'variable_6'
p131
aS'->'
p132
aS'variable_24'
p133
ag47
aS'variable_25'
p134
ag13
ag13
aS'if'
p135
ag4
aS'variable_6'
p136
aS'->'
p137
aS'variable_24'
p138
ag47
aS'variable_26'
p139
aS'!='
p140
aS'variable_27'
p141
ag13
aS'variable_11'
p142
ag22
aS'func_7'
p143
ag4
aS'variable_6'
p144
ag9
aS'variable_6'
p145
aS'->'
p146
aS'variable_28'
p147
ag13
ag17
aS'if'
p148
ag4
ag55
aS'variable_11'
p149
ag13
aS'variable_6'
p150
aS'->'
p151
aS'variable_24'
p152
ag47
aS'variable_26'
p153
ag22
aS'variable_29'
p154
ag17
aS'memset'
p155
ag4
aS'variable_6'
p156
aS'->'
p157
aS'variable_24'
p158
ag47
aS'variable_30'
p159
ag9
ag111
ag9
aS'variable_6'
p160
aS'->'
p161
aS'variable_31'
p162
ag13
ag17
aS'variable_6'
p163
aS'->'
p164
aS'variable_24'
p165
ag47
aS'variable_11'
p166
ag22
aS'variable_11'
p167
ag17
aS'variable_10'
p168
ag22
aS'func_8'
p169
ag4
ag39
aS'variable_6'
p170
aS'->'
p171
aS'variable_24'
p172
ag47
aS'variable_32'
p173
ag9
aS'variable_33'
p174
ag7
aS'variable_34'
p175
ag13
ag17
aa(lp176
S'func_0'
p177
ag4
aS'void'
p178
aS'variable_0'
p179
ag7
aS'variable_1'
p180
ag9
aS'enum'
p181
aS'block_state'
p182
aS'variable_2'
p183
ag13
aS'struct'
p184
aS'mpt2_diag_read_buffer'
p185
aS'variable_3'
p186
ag17
aS'struct'
p187
aS'variable_4'
p188
ag7
aS'variable_5'
p189
ag17
aS'void'
p190
ag7
aS'variable_6'
p191
ag9
ag7
aS'variable_7'
p192
ag17
aS'u8'
p193
aS'variable_8'
p194
ag17
aS'if'
p195
ag4
aS'func_1'
p196
ag4
ag39
aS'variable_3'
p197
ag9
aS'variable_1'
p198
ag9
aS'sizeof'
p199
ag4
aS'variable_3'
p200
ag13
ag13
ag13
aS'if'
p201
ag4
aS'func_2'
p202
ag4
aS'variable_3'
p203
ag47
aS'variable_9'
p204
ag47
aS'variable_10'
p205
ag9
ag39
aS'variable_5'
p206
ag13
aS'=='
p207
ag52
ag53
aS'||'
p208
ag55
aS'variable_5'
p209
ag13
aS'variable_8'
p210
ag22
aS'variable_3'
p211
ag47
aS'variable_11'
p212
ag39
aS'0x000000ff'
p213
ag17
aS'if'
p214
ag4
ag55
aS'func_3'
p215
ag4
aS'variable_5'
p216
ag9
aS'variable_8'
p217
ag13
ag13
aS'if'
p218
ag4
aS'variable_3'
p219
ag47
aS'variable_11'
p220
aS'!='
p221
aS'variable_5'
p222
aS'->'
p223
aS'variable_11'
p224
ag72
aS'variable_8'
p225
ag74
ag13
aS'variable_6'
p226
ag22
aS'variable_5'
p227
aS'->'
p228
aS'variable_12'
p229
ag72
aS'variable_8'
p230
ag74
ag17
aS'if'
p231
ag4
ag55
aS'variable_6'
p232
ag13
aS'if'
p233
ag4
ag4
aS'variable_3'
p234
ag47
aS'variable_13'
p235
ag85
ag86
ag13
aS'||'
p236
ag4
aS'variable_3'
p237
ag47
aS'variable_14'
p238
ag85
ag86
ag13
ag13
aS'variable_7'
p239
ag22
ag4
aS'void'
p240
ag7
ag13
ag4
aS'variable_6'
p241
ag93
aS'variable_3'
p242
ag47
aS'variable_13'
p243
ag13
ag17
aS'func_4'
p244
ag4
aS'variable_5'
p245
ag9
aS'func_5'
p246
ag4
aS'"'
p247
aS'offset'
p248
ag4
ag85
aS'd'
p249
ag13
ag9
aS'sz'
p250
ag4
ag85
ag249
ag13
aS'\\'
p251
aS'n'
p252
ag247
ag9
aS'variable_5'
p253
aS'->'
p254
aS'variable_16'
p255
ag9
aS'variable_7'
p256
ag9
aS'variable_3'
p257
ag47
aS'variable_13'
p258
ag9
aS'variable_3'
p259
ag47
aS'variable_14'
p260
ag13
ag13
aS'if'
p261
ag4
aS'func_6'
p262
ag4
ag4
aS'void'
p263
aS'__user'
p264
ag7
ag13
aS'variable_17'
p265
aS'->'
p266
aS'variable_18'
p267
ag9
aS'variable_7'
p268
ag9
aS'variable_3'
p269
ag47
aS'variable_14'
p270
ag13
ag13
aS'func_7'
p271
ag4
ag247
aS'mpt_diag_read_buffer_t'
p272
aS'data'
p273
aS'@'
p274
ag85
aS'p'
p275
ag251
ag252
ag247
ag9
aS'variable_5'
p276
aS'->'
p277
aS'variable_20'
p278
ag9
aS'variable_7'
p279
ag13
aaa(lp280
I1
aI0
aa(lp281
I304
aI133
aa(lp282
(lp283
S'main'
p284
aa(lp285
g284
aaa(lp286
S'200 /home/SySeVR/data/CVE_2011_1495_VULN__ctl_diag_read_buffer.c timeleft = wait_for_completion_timeout ( & ioc -> ctl_cmds . done , MPT2_IOCTL_DEFAULT_TIMEOUT * HZ ) 122'
p287
aS'201 /home/SySeVR/data/CVE_2011_1495_VULN__ctl_diag_read_buffer.c diag_data = ( void * ) ( request_data + karg . starting_offset ) 55'
p288
aa.