(lp0
(lp1
(lp2
S'variable_0'
p3
aS':'
p4
ag4
aS'func_0'
p5
aS'('
p6
aS'const'
p7
aS'variable_1'
p8
aS'<'
p9
aS'const'
p10
aS'Image'
p11
aS'*'
p12
aS'>'
p13
aS'&'
p14
aS'const'
p15
aS'Image'
p16
ag12
aS'const'
p17
aS'variable_2'
p18
ag14
aS'variable_3'
p19
aS')'
p20
aS'PRInt32'
p21
aS'variable_4'
p22
aS','
p23
aS'variable_5'
p24
aS';'
p25
aS'if'
p26
ag6
aS'variable_4'
p27
ag9
aS'0'
p28
aS'||'
p29
aS'variable_5'
p30
ag9
ag28
ag20
aS'if'
p31
ag6
aS'variable_4'
p32
aS'=='
p33
ag28
aS'&&'
p34
aS'variable_5'
p35
aS'=='
p36
ag28
ag20
aS'PRUint32'
p37
aS'variable_6'
p38
aS'='
p39
aS'variable_7'
p40
aS'->'
p41
aS'variable_8'
p42
aS'->'
p43
aS'func_1'
p44
ag6
ag20
ag25
aS'for'
p45
ag6
aS'PRInt32'
p46
aS'variable_9'
p47
ag39
aS'variable_3'
p48
aS'.'
p49
aS'variable_9'
p50
ag25
aS'variable_9'
p51
ag9
aS'variable_3'
p52
ag49
aS'func_2'
p53
ag6
ag20
ag25
aS'variable_9'
p54
aS'++'
p55
ag20
aS'for'
p56
ag6
aS'PRInt32'
p57
aS'variable_10'
p58
ag39
aS'variable_3'
p59
ag49
aS'variable_10'
p60
ag25
aS'variable_10'
p61
ag9
aS'variable_3'
p62
ag49
aS'func_3'
p63
ag6
ag20
ag25
aS'variable_10'
p64
aS'++'
p65
ag20
aS'PRUint32'
p66
aS'variable_11'
p67
ag39
aS'variable_9'
p68
ag12
aS'variable_6'
p69
aS'+'
p70
aS'4'
p71
ag12
aS'variable_10'
p72
ag25
aS'if'
p73
ag6
aS'variable_10'
p74
aS'=='
p75
aS'variable_3'
p76
ag49
aS'variable_10'
p77
aS'||'
p78
aS'variable_12'
p79
aS'['
p80
ag28
aS']'
p81
ag9
ag39
aS'variable_13'
p82
aS'||'
p83
aS'variable_12'
p84
ag80
aS'1'
p85
ag81
ag9
ag39
aS'variable_13'
p86
aS'||'
p87
aS'variable_12'
p88
ag80
aS'2'
p89
ag81
ag9
ag39
aS'variable_13'
p90
aS'||'
p91
aS'variable_12'
p92
ag80
aS'3'
p93
ag81
ag9
ag39
aS'variable_13'
p94
ag20
aS'variable_14'
p95
ag80
aS'variable_15'
p96
ag81
ag39
aS'variable_16'
p97
ag80
aS'variable_11'
p98
ag70
aS'variable_15'
p99
ag81
ag25
aS'for'
p100
ag6
aS'variable_15'
p101
ag39
ag28
ag25
aS'variable_15'
p102
ag9
ag71
ag25
aS'variable_15'
p103
aS'++'
p104
ag20
aS'PRUint8'
p105
aS'variable_17'
p106
ag39
aS'variable_16'
p107
ag80
aS'variable_18'
p108
ag12
aS'variable_6'
p109
ag70
ag71
ag12
aS'variable_19'
p110
ag70
aS'variable_15'
p111
ag81
ag25
aS'if'
p112
ag6
ag6
aS'variable_14'
p113
ag80
aS'variable_15'
p114
ag81
ag13
ag39
aS'variable_17'
p115
aS'&&'
p116
aS'variable_20'
p117
aS'=='
p118
aS'variable_21'
p119
ag4
ag4
aS'variable_22'
p120
ag20
aS'||'
p121
ag6
aS'variable_14'
p122
ag80
aS'variable_15'
p123
ag81
ag9
ag39
aS'variable_17'
p124
aS'&&'
p125
aS'variable_20'
p126
aS'=='
p127
aS'variable_21'
p128
ag4
ag4
aS'variable_23'
p129
ag20
ag20
aS'variable_14'
p130
ag80
aS'variable_15'
p131
ag81
ag39
aS'variable_17'
p132
ag25
aS'variable_12'
p133
ag80
aS'variable_15'
p134
ag81
ag39
aS'variable_19'
p135
ag25
aS'variable_24'
p136
ag80
aS'variable_15'
p137
ag81
ag39
aS'variable_18'
p138
ag25
aS'PRUint8'
p139
aS'variable_17'
p140
ag39
aS'variable_16'
p141
ag80
aS'variable_18'
p142
ag12
aS'variable_6'
p143
ag70
ag71
ag12
aS'variable_25'
p144
ag70
aS'variable_15'
p145
ag81
ag25
aS'if'
p146
ag6
ag6
aS'variable_14'
p147
ag80
aS'variable_15'
p148
ag81
ag13
ag39
aS'variable_17'
p149
aS'&&'
p150
aS'variable_20'
p151
aS'=='
p152
aS'variable_21'
p153
ag4
ag4
aS'variable_22'
p154
ag20
aS'||'
p155
ag6
aS'variable_14'
p156
ag80
aS'variable_15'
p157
ag81
ag9
ag39
aS'variable_17'
p158
aS'&&'
p159
aS'variable_20'
p160
aS'=='
p161
aS'variable_21'
p162
ag4
ag4
aS'variable_23'
p163
ag20
ag20
aS'variable_14'
p164
ag80
aS'variable_15'
p165
ag81
ag39
aS'variable_17'
p166
ag25
aS'variable_12'
p167
ag80
aS'variable_15'
p168
ag81
ag39
aS'variable_25'
p169
ag25
aS'variable_24'
p170
ag80
aS'variable_15'
p171
ag81
ag39
aS'variable_18'
p172
ag25
aS'variable_26'
p173
ag80
aS'variable_11'
p174
ag81
ag39
aS'variable_14'
p175
ag80
ag28
ag81
ag25
aS'variable_26'
p176
ag80
aS'variable_11'
p177
ag70
ag85
ag81
ag39
aS'variable_14'
p178
ag80
ag85
ag81
ag25
aS'variable_26'
p179
ag80
aS'variable_11'
p180
ag70
ag89
ag81
ag39
aS'variable_14'
p181
ag80
ag89
ag81
ag25
aS'variable_26'
p182
ag80
aS'variable_11'
p183
ag70
ag93
ag81
ag39
aS'variable_14'
p184
ag80
ag93
ag81
ag25
aa(lp185
S'variable_0'
p186
ag4
ag4
aS'func_0'
p187
ag6
aS'const'
p188
aS'variable_1'
p189
ag9
aS'const'
p190
aS'Image'
p191
ag12
ag13
ag14
aS'const'
p192
aS'Image'
p193
ag12
aS'const'
p194
aS'variable_2'
p195
ag14
aS'variable_3'
p196
ag20
aS'PRInt32'
p197
aS'variable_4'
p198
ag23
aS'variable_5'
p199
ag25
aS'if'
p200
ag6
aS'variable_4'
p201
ag9
ag28
aS'||'
p202
aS'variable_5'
p203
ag9
ag28
ag20
aS'if'
p204
ag6
aS'variable_4'
p205
aS'=='
p206
ag28
aS'&&'
p207
aS'variable_5'
p208
aS'=='
p209
ag28
ag20
aS'for'
p210
ag6
aS'PRInt32'
p211
aS'variable_6'
p212
ag39
aS'variable_3'
p213
ag49
aS'variable_6'
p214
ag25
aS'variable_6'
p215
ag9
aS'variable_3'
p216
ag49
aS'func_1'
p217
ag6
ag20
ag25
aS'variable_6'
p218
aS'++'
p219
ag20
aS'for'
p220
ag6
aS'PRInt32'
p221
aS'variable_7'
p222
ag39
aS'variable_3'
p223
ag49
aS'variable_7'
p224
ag25
aS'variable_7'
p225
ag9
aS'variable_3'
p226
ag49
aS'func_2'
p227
ag6
ag20
ag25
aS'variable_7'
p228
aS'++'
p229
ag20
aS'PRUint32'
p230
aS'variable_8'
p231
ag39
aS'func_3'
p232
ag6
aS'variable_7'
p233
ag70
aS'variable_4'
p234
ag23
aS'variable_9'
p235
aS'->'
p236
aS'func_4'
p237
ag6
ag20
aS'-'
p238
ag85
ag20
ag25
aS'if'
p239
ag6
aS'variable_7'
p240
aS'=='
p241
aS'variable_3'
p242
ag49
aS'variable_7'
p243
aS'||'
p244
aS'variable_10'
p245
ag80
ag28
ag81
ag9
ag39
aS'variable_11'
p246
aS'||'
p247
aS'variable_10'
p248
ag80
ag85
ag81
ag9
ag39
aS'variable_11'
p249
aS'||'
p250
aS'variable_10'
p251
ag80
ag89
ag81
ag9
ag39
aS'variable_11'
p252
aS'||'
p253
aS'variable_10'
p254
ag80
ag93
ag81
ag9
ag39
aS'variable_11'
p255
ag20
aS'variable_12'
p256
ag80
aS'variable_13'
p257
ag81
ag39
aS'variable_14'
p258
ag80
aS'variable_15'
p259
ag70
aS'variable_13'
p260
ag81
ag25
aS'for'
p261
ag6
aS'PRUint32'
p262
aS'variable_16'
p263
ag39
aS'variable_11'
p264
ag25
aS'variable_16'
p265
ag9
ag39
aS'variable_8'
p266
ag25
aS'variable_16'
p267
aS'++'
p268
ag20
aS'for'
p269
ag6
aS'variable_13'
p270
ag39
ag28
ag25
aS'variable_13'
p271
ag9
ag71
ag25
aS'variable_13'
p272
aS'++'
p273
ag20
aS'PRUint8'
p274
aS'variable_17'
p275
ag39
aS'variable_14'
p276
ag80
aS'variable_18'
p277
ag12
aS'variable_19'
p278
ag70
ag71
ag12
aS'variable_16'
p279
ag70
aS'variable_13'
p280
ag81
ag25
aS'if'
p281
ag6
ag6
aS'variable_12'
p282
ag80
aS'variable_13'
p283
ag81
ag13
ag39
aS'variable_17'
p284
aS'&&'
p285
aS'variable_20'
p286
aS'=='
p287
aS'variable_21'
p288
ag4
ag4
aS'variable_22'
p289
ag20
aS'||'
p290
ag6
aS'variable_12'
p291
ag80
aS'variable_13'
p292
ag81
ag9
ag39
aS'variable_17'
p293
aS'&&'
p294
aS'variable_20'
p295
aS'=='
p296
aS'variable_21'
p297
ag4
ag4
aS'variable_23'
p298
ag20
ag20
aS'variable_12'
p299
ag80
aS'variable_13'
p300
ag81
ag39
aS'variable_17'
p301
ag25
aS'variable_10'
p302
ag80
aS'variable_13'
p303
ag81
ag39
aS'variable_16'
p304
ag25
aS'variable_24'
p305
ag80
aS'variable_13'
p306
ag81
ag39
aS'variable_18'
p307
ag25
aS'PRUint8'
p308
aS'variable_17'
p309
ag39
aS'variable_14'
p310
ag80
aS'variable_18'
p311
ag12
aS'variable_19'
p312
ag70
ag71
ag12
aS'variable_8'
p313
ag70
aS'variable_13'
p314
ag81
ag25
aS'if'
p315
ag6
ag6
aS'variable_12'
p316
ag80
aS'variable_13'
p317
ag81
ag13
ag39
aS'variable_17'
p318
aS'&&'
p319
aS'variable_20'
p320
aS'=='
p321
aS'variable_21'
p322
ag4
ag4
aS'variable_22'
p323
ag20
aS'||'
p324
ag6
aS'variable_12'
p325
ag80
aS'variable_13'
p326
ag81
ag9
ag39
aS'variable_17'
p327
aS'&&'
p328
aS'variable_20'
p329
aS'=='
p330
aS'variable_21'
p331
ag4
ag4
aS'variable_23'
p332
ag20
ag20
aS'variable_12'
p333
ag80
aS'variable_13'
p334
ag81
ag39
aS'variable_17'
p335
ag25
aS'variable_10'
p336
ag80
aS'variable_13'
p337
ag81
ag39
aS'variable_8'
p338
ag25
aS'variable_24'
p339
ag80
aS'variable_13'
p340
ag81
ag39
aS'variable_18'
p341
ag25
aS'variable_25'
p342
ag80
aS'variable_15'
p343
ag81
ag39
aS'variable_12'
p344
ag80
ag28
ag81
ag25
aS'variable_25'
p345
ag80
aS'variable_15'
p346
ag70
ag85
ag81
ag39
aS'variable_12'
p347
ag80
ag85
ag81
ag25
aS'variable_25'
p348
ag80
aS'variable_15'
p349
ag70
ag89
ag81
ag39
aS'variable_12'
p350
ag80
ag89
ag81
ag25
aS'variable_25'
p351
ag80
aS'variable_15'
p352
ag70
ag93
ag81
ag39
aS'variable_12'
p353
ag80
ag93
ag81
ag25
aa(lp354
S'variable_0'
p355
ag4
ag4
aS'func_0'
p356
ag6
aS'const'
p357
aS'variable_1'
p358
ag9
aS'const'
p359
aS'Image'
p360
ag12
ag13
ag14
aS'const'
p361
aS'Image'
p362
ag12
aS'const'
p363
aS'variable_2'
p364
ag14
aS'variable_3'
p365
ag20
aS'PRInt32'
p366
aS'variable_4'
p367
ag23
aS'variable_5'
p368
ag25
aS'if'
p369
ag6
aS'variable_4'
p370
ag9
ag28
aS'||'
p371
aS'variable_5'
p372
ag9
ag28
ag20
aS'if'
p373
ag6
aS'variable_4'
p374
aS'=='
p375
ag28
aS'&&'
p376
aS'variable_5'
p377
aS'=='
p378
ag28
ag20
aS'for'
p379
ag6
aS'PRInt32'
p380
aS'variable_6'
p381
ag39
aS'variable_3'
p382
ag49
aS'variable_6'
p383
ag25
aS'variable_6'
p384
ag9
aS'variable_3'
p385
ag49
aS'func_1'
p386
ag6
ag20
ag25
aS'variable_6'
p387
aS'++'
p388
ag20
aS'for'
p389
ag6
aS'PRInt32'
p390
aS'variable_7'
p391
ag39
aS'variable_3'
p392
ag49
aS'variable_7'
p393
ag25
aS'variable_7'
p394
ag9
aS'variable_3'
p395
ag49
aS'func_2'
p396
ag6
ag20
ag25
aS'variable_7'
p397
aS'++'
p398
ag20
aS'PRUint32'
p399
aS'variable_8'
p400
ag39
aS'func_3'
p401
ag6
ag28
ag23
aS'variable_7'
p402
ag238
aS'variable_4'
p403
ag20
ag25
aS'if'
p404
ag6
aS'variable_7'
p405
aS'=='
p406
aS'variable_3'
p407
ag49
aS'variable_7'
p408
aS'||'
p409
aS'variable_9'
p410
ag80
ag28
ag81
ag9
ag39
aS'variable_8'
p411
aS'||'
p412
aS'variable_9'
p413
ag80
ag85
ag81
ag9
ag39
aS'variable_8'
p414
aS'||'
p415
aS'variable_9'
p416
ag80
ag89
ag81
ag9
ag39
aS'variable_8'
p417
aS'||'
p418
aS'variable_9'
p419
ag80
ag93
ag81
ag9
ag39
aS'variable_8'
p420
ag20
aS'variable_10'
p421
ag80
aS'variable_11'
p422
ag81
ag39
aS'variable_12'
p423
ag80
aS'variable_13'
p424
ag70
aS'variable_11'
p425
ag81
ag25
aS'for'
p426
ag6
aS'PRUint32'
p427
aS'variable_14'
p428
ag39
aS'variable_8'
p429
ag25
aS'variable_14'
p430
ag9
ag39
aS'variable_15'
p431
ag25
aS'variable_14'
p432
aS'++'
p433
ag20
aS'for'
p434
ag6
aS'variable_11'
p435
ag39
ag28
ag25
aS'variable_11'
p436
ag9
ag71
ag25
aS'variable_11'
p437
aS'++'
p438
ag20
aS'PRUint8'
p439
aS'variable_16'
p440
ag39
aS'variable_12'
p441
ag80
aS'variable_17'
p442
ag12
aS'variable_18'
p443
ag70
ag71
ag12
aS'variable_14'
p444
ag70
aS'variable_11'
p445
ag81
ag25
aS'if'
p446
ag6
ag6
aS'variable_10'
p447
ag80
aS'variable_11'
p448
ag81
ag13
ag39
aS'variable_16'
p449
aS'&&'
p450
aS'variable_19'
p451
aS'=='
p452
aS'variable_20'
p453
ag4
ag4
aS'variable_21'
p454
ag20
aS'||'
p455
ag6
aS'variable_10'
p456
ag80
aS'variable_11'
p457
ag81
ag9
ag39
aS'variable_16'
p458
aS'&&'
p459
aS'variable_19'
p460
aS'=='
p461
aS'variable_20'
p462
ag4
ag4
aS'variable_22'
p463
ag20
ag20
aS'variable_10'
p464
ag80
aS'variable_11'
p465
ag81
ag39
aS'variable_16'
p466
ag25
aS'variable_9'
p467
ag80
aS'variable_11'
p468
ag81
ag39
aS'variable_14'
p469
ag25
aS'variable_23'
p470
ag80
aS'variable_11'
p471
ag81
ag39
aS'variable_17'
p472
ag25
aS'PRUint8'
p473
aS'variable_16'
p474
ag39
aS'variable_12'
p475
ag80
aS'variable_17'
p476
ag12
aS'variable_18'
p477
ag70
ag71
ag12
aS'variable_15'
p478
ag70
aS'variable_11'
p479
ag81
ag25
aS'if'
p480
ag6
ag6
aS'variable_10'
p481
ag80
aS'variable_11'
p482
ag81
ag13
ag39
aS'variable_16'
p483
aS'&&'
p484
aS'variable_19'
p485
aS'=='
p486
aS'variable_20'
p487
ag4
ag4
aS'variable_21'
p488
ag20
aS'||'
p489
ag6
aS'variable_10'
p490
ag80
aS'variable_11'
p491
ag81
ag9
ag39
aS'variable_16'
p492
aS'&&'
p493
aS'variable_19'
p494
aS'=='
p495
aS'variable_20'
p496
ag4
ag4
aS'variable_22'
p497
ag20
ag20
aS'variable_10'
p498
ag80
aS'variable_11'
p499
ag81
ag39
aS'variable_16'
p500
ag25
aS'variable_9'
p501
ag80
aS'variable_11'
p502
ag81
ag39
aS'variable_15'
p503
ag25
aS'variable_23'
p504
ag80
aS'variable_11'
p505
ag81
ag39
aS'variable_17'
p506
ag25
aS'variable_24'
p507
ag80
aS'variable_13'
p508
ag81
ag39
aS'variable_10'
p509
ag80
ag28
ag81
ag25
aS'variable_24'
p510
ag80
aS'variable_13'
p511
ag70
ag85
ag81
ag39
aS'variable_10'
p512
ag80
ag85
ag81
ag25
aS'variable_24'
p513
ag80
aS'variable_13'
p514
ag70
ag89
ag81
ag39
aS'variable_10'
p515
ag80
ag89
ag81
ag25
aS'variable_24'
p516
ag80
aS'variable_13'
p517
ag70
ag93
ag81
ag39
aS'variable_10'
p518
ag80
ag93
ag81
ag25
aa(lp519
S'variable_0'
p520
ag4
ag4
aS'func_0'
p521
ag6
aS'const'
p522
aS'variable_1'
p523
ag9
aS'const'
p524
aS'Image'
p525
ag12
ag13
ag14
aS'const'
p526
aS'Image'
p527
ag12
aS'const'
p528
aS'variable_2'
p529
ag14
aS'variable_3'
p530
ag20
aS'PRInt32'
p531
aS'variable_4'
p532
ag23
aS'variable_5'
p533
ag25
aS'if'
p534
ag6
aS'variable_4'
p535
ag9
ag28
aS'||'
p536
aS'variable_5'
p537
ag9
ag28
ag20
aS'if'
p538
ag6
aS'variable_4'
p539
aS'=='
p540
ag28
aS'&&'
p541
aS'variable_5'
p542
aS'=='
p543
ag28
ag20
aS'for'
p544
ag6
aS'PRInt32'
p545
aS'variable_6'
p546
ag39
aS'variable_3'
p547
ag49
aS'variable_6'
p548
ag25
aS'variable_6'
p549
ag9
aS'variable_3'
p550
ag49
aS'func_1'
p551
ag6
ag20
ag25
aS'variable_6'
p552
aS'++'
p553
ag20
aS'PRUint32'
p554
aS'variable_7'
p555
ag39
aS'func_2'
p556
ag6
aS'variable_6'
p557
ag70
aS'variable_5'
p558
ag23
aS'variable_8'
p559
aS'->'
p560
aS'func_3'
p561
ag6
ag20
ag238
ag85
ag20
ag25
aS'for'
p562
ag6
aS'PRUint32'
p563
aS'variable_9'
p564
ag39
aS'variable_10'
p565
ag25
aS'variable_9'
p566
ag9
ag39
aS'variable_7'
p567
ag25
aS'variable_9'
p568
aS'++'
p569
ag20
aS'for'
p570
ag6
aS'PRUint32'
p571
aS'variable_9'
p572
ag39
aS'variable_10'
p573
ag25
aS'variable_9'
p574
ag9
ag39
aS'variable_7'
p575
ag25
aS'variable_9'
p576
aS'++'
p577
ag20
aa(lp578
S'variable_0'
p579
ag4
ag4
aS'func_0'
p580
ag6
aS'const'
p581
aS'variable_1'
p582
ag9
aS'const'
p583
aS'Image'
p584
ag12
ag13
ag14
aS'const'
p585
aS'Image'
p586
ag12
aS'const'
p587
aS'variable_2'
p588
ag14
aS'variable_3'
p589
ag20
aS'PRInt32'
p590
aS'variable_4'
p591
ag23
aS'variable_5'
p592
ag25
aS'if'
p593
ag6
aS'variable_4'
p594
ag9
ag28
aS'||'
p595
aS'variable_5'
p596
ag9
ag28
ag20
aS'if'
p597
ag6
aS'variable_4'
p598
aS'=='
p599
ag28
aS'&&'
p600
aS'variable_5'
p601
aS'=='
p602
ag28
ag20
aS'for'
p603
ag6
aS'PRInt32'
p604
aS'variable_6'
p605
ag39
aS'variable_3'
p606
ag49
aS'variable_6'
p607
ag25
aS'variable_6'
p608
ag9
aS'variable_3'
p609
ag49
aS'func_1'
p610
ag6
ag20
ag25
aS'variable_6'
p611
aS'++'
p612
ag20
aS'PRUint32'
p613
aS'variable_7'
p614
ag39
aS'func_2'
p615
ag6
ag28
ag23
aS'variable_6'
p616
ag238
aS'variable_5'
p617
ag20
ag25
aS'if'
p618
ag6
aS'variable_8'
p619
aS'=='
p620
aS'variable_3'
p621
ag49
aS'variable_8'
p622
aS'||'
p623
aS'variable_9'
p624
ag80
ag28
ag81
ag9
ag39
aS'variable_10'
p625
aS'||'
p626
aS'variable_9'
p627
ag80
ag85
ag81
ag9
ag39
aS'variable_10'
p628
aS'||'
p629
aS'variable_9'
p630
ag80
ag89
ag81
ag9
ag39
aS'variable_10'
p631
aS'||'
p632
aS'variable_9'
p633
ag80
ag93
ag81
ag9
ag39
aS'variable_10'
p634
ag20
aS'variable_11'
p635
ag80
aS'variable_12'
p636
ag81
ag39
aS'variable_13'
p637
ag80
aS'variable_14'
p638
ag70
aS'variable_12'
p639
ag81
ag25
aS'for'
p640
ag6
aS'PRUint32'
p641
aS'variable_15'
p642
ag39
aS'variable_7'
p643
ag25
aS'variable_15'
p644
ag9
ag39
aS'variable_16'
p645
ag25
aS'variable_15'
p646
aS'++'
p647
ag20
aS'for'
p648
ag6
aS'variable_12'
p649
ag39
ag28
ag25
aS'variable_12'
p650
ag9
ag71
ag25
aS'variable_12'
p651
aS'++'
p652
ag20
aS'PRUint8'
p653
aS'variable_17'
p654
ag39
aS'variable_13'
p655
ag80
aS'variable_15'
p656
ag12
aS'variable_18'
p657
ag70
ag71
ag12
aS'variable_19'
p658
ag70
aS'variable_12'
p659
ag81
ag25
aS'if'
p660
ag6
ag6
aS'variable_11'
p661
ag80
aS'variable_12'
p662
ag81
ag13
ag39
aS'variable_17'
p663
aS'&&'
p664
aS'variable_20'
p665
aS'=='
p666
aS'variable_21'
p667
ag4
ag4
aS'variable_22'
p668
ag20
aS'||'
p669
ag6
aS'variable_11'
p670
ag80
aS'variable_12'
p671
ag81
ag9
ag39
aS'variable_17'
p672
aS'&&'
p673
aS'variable_20'
p674
aS'=='
p675
aS'variable_21'
p676
ag4
ag4
aS'variable_23'
p677
ag20
ag20
aS'variable_11'
p678
ag80
aS'variable_12'
p679
ag81
ag39
aS'variable_17'
p680
ag25
aS'variable_9'
p681
ag80
aS'variable_12'
p682
ag81
ag39
aS'variable_19'
p683
ag25
aS'variable_24'
p684
ag80
aS'variable_12'
p685
ag81
ag39
aS'variable_15'
p686
ag25
aS'for'
p687
ag6
aS'PRUint32'
p688
aS'variable_15'
p689
ag39
aS'variable_7'
p690
ag25
aS'variable_15'
p691
ag9
ag39
aS'variable_16'
p692
ag25
aS'variable_15'
p693
aS'++'
p694
ag20
aS'PRUint8'
p695
aS'variable_17'
p696
ag39
aS'variable_13'
p697
ag80
aS'variable_15'
p698
ag12
aS'variable_18'
p699
ag70
ag71
ag12
aS'variable_25'
p700
ag70
aS'variable_12'
p701
ag81
ag25
aS'if'
p702
ag6
ag6
aS'variable_11'
p703
ag80
aS'variable_12'
p704
ag81
ag13
ag39
aS'variable_17'
p705
aS'&&'
p706
aS'variable_20'
p707
aS'=='
p708
aS'variable_21'
p709
ag4
ag4
aS'variable_22'
p710
ag20
aS'||'
p711
ag6
aS'variable_11'
p712
ag80
aS'variable_12'
p713
ag81
ag9
ag39
aS'variable_17'
p714
aS'&&'
p715
aS'variable_20'
p716
aS'=='
p717
aS'variable_21'
p718
ag4
ag4
aS'variable_23'
p719
ag20
ag20
aS'variable_11'
p720
ag80
aS'variable_12'
p721
ag81
ag39
aS'variable_17'
p722
ag25
aS'variable_9'
p723
ag80
aS'variable_12'
p724
ag81
ag39
aS'variable_25'
p725
ag25
aS'variable_24'
p726
ag80
aS'variable_12'
p727
ag81
ag39
aS'variable_15'
p728
ag25
aS'variable_26'
p729
ag80
aS'variable_14'
p730
ag81
ag39
aS'variable_11'
p731
ag80
ag28
ag81
ag25
aS'variable_26'
p732
ag80
aS'variable_14'
p733
ag70
ag85
ag81
ag39
aS'variable_11'
p734
ag80
ag85
ag81
ag25
aS'variable_26'
p735
ag80
aS'variable_14'
p736
ag70
ag89
ag81
ag39
aS'variable_11'
p737
ag80
ag89
ag81
ag25
aS'variable_26'
p738
ag80
aS'variable_14'
p739
ag70
ag93
ag81
ag39
aS'variable_11'
p740
ag80
ag93
ag81
ag25
aaa(lp741
I1
aI1
aI1
aI1
aI1
aa(lp742
I107
aI103
aI97
aI83
aI77
aa(lp743
(lp744
S'main'
p745
aa(lp746
g745
aa(lp747
g745
aa(lp748
g745
aa(lp749
g745
aaa(lp750
S'830 /home/SySeVR/data/CVE_2013_1693_VULN_nsSVGFEMorphologyElement__Filter.c PRUint32 targIndex = y * stride + 4 * x ; 41'
p751
aS'831 /home/SySeVR/data/CVE_2013_1693_VULN_nsSVGFEMorphologyElement__Filter.c PRUint32 endX = NS_MIN ( x + rx , instance -> GetSurfaceWidth ( ) - 1 ) ; 40'
p752
aS'832 /home/SySeVR/data/CVE_2013_1693_VULN_nsSVGFEMorphologyElement__Filter.c PRUint32 startX = NS_MAX ( 0 , x - rx ) ; 39'
p753
aS'833 /home/SySeVR/data/CVE_2013_1693_VULN_nsSVGFEMorphologyElement__Filter.c PRUint32 endY = NS_MIN ( y + ry , instance -> GetSurfaceHeight ( ) - 1 ) ; 37'
p754
aS'834 /home/SySeVR/data/CVE_2013_1693_VULN_nsSVGFEMorphologyElement__Filter.c PRUint32 startY = NS_MAX ( 0 , y - ry ) ; 33'
p755
aa.