(lp0
(lp1
(lp2
S'PRBool'
p3
aS'func_0'
p4
aS'('
p5
aS')'
p6
aS'if'
p7
ag5
aS'variable_0'
p8
aS'=='
p9
aS'variable_1'
p10
ag6
aS'variable_2'
p11
aS'='
p12
aS'realloc'
p13
ag5
aS'variable_2'
p14
aS','
p15
aS'variable_3'
p16
ag6
aS';'
p17
aS'if'
p18
ag5
aS'!'
p19
aS'variable_2'
p20
ag6
aS'memset'
p21
ag5
aS'variable_2'
p22
ag15
aS'0'
p23
ag15
aS'variable_3'
p24
ag6
ag17
aaa(lp25
I0
aa(lp26
I24
aa(lp27
(lp28
S'main'
p29
aaa(lp30
S'72 /home/SySeVR/data/CVE_2011_3003_VULN_ZeroDataIfElementArray.c memset 6'
p31
aa.