(lp0
(lp1
(lp2
S'static'
p3
aS'char'
p4
aS'*'
p5
aS'func_0'
p6
aS'('
p7
aS'int'
p8
aS'variable_0'
p9
aS','
p10
aS'struct'
p11
aS'variable_1'
p12
ag5
aS'variable_2'
p13
ag10
aS'const'
p14
aS'char'
p15
ag5
aS'variable_3'
p16
ag10
aS'struct'
p17
aS'variable_4'
p18
ag5
aS'variable_5'
p19
ag10
aS'int'
p20
ag5
aS'variable_6'
p21
ag10
aS'char'
p22
ag5
ag5
aS'variable_7'
p23
ag10
aS'int'
p24
ag5
aS'variable_8'
p25
aS')'
p26
aS'struct'
p27
aS'variable_4'
p28
ag5
aS'variable_9'
p29
aS';'
p30
aS'for'
p31
ag7
aS'variable_9'
p32
aS'='
p33
aS'variable_5'
p34
ag30
aS'variable_9'
p35
ag30
aS'variable_9'
p36
ag33
aS'variable_9'
p37
aS'->'
p38
aS'variable_10'
p39
ag26
aS'if'
p40
ag7
aS'!'
p41
aS'func_1'
p42
ag7
aS'variable_9'
p43
aS'->'
p44
aS'variable_11'
p45
ag10
aS'"'
p46
aS'mansession_id'
p47
ag46
ag26
ag26
aS'sscanf'
p48
ag7
aS'variable_9'
p49
aS'->'
p50
aS'variable_12'
p51
ag10
ag46
aS'%'
p52
aS'lx'
p53
ag46
ag10
aS'&'
p54
aS'variable_13'
p55
ag26
ag30
aaa(lp56
I0
aa(lp57
I69
aa(lp58
(lp59
S'main'
p60
aaa(lp61
S'868 /home/SySeVR/data/CVE_2008_1390_VULN_generic_http_callback.c sscanf 15'
p62
aa.