(lp0
(lp1
(lp2
S'static'
p3
aS'char'
p4
aS'*'
p5
aS'func_0'
p6
aS'('
p7
aS'int'
p8
aS'variable_0'
p9
aS','
p10
aS'struct'
p11
aS'variable_1'
p12
ag5
aS'variable_2'
p13
ag10
aS'const'
p14
aS'char'
p15
ag5
aS'variable_3'
p16
ag10
aS'struct'
p17
aS'variable_4'
p18
ag5
aS'variable_5'
p19
ag10
aS'int'
p20
ag5
aS'variable_6'
p21
ag10
aS'char'
p22
ag5
ag5
aS'variable_7'
p23
ag10
aS'int'
p24
ag5
aS'variable_8'
p25
aS')'
p26
aS'unsigned'
p27
aS'long'
p28
aS'variable_9'
p29
aS'='
p30
aS'0'
p31
aS';'
p32
aS'char'
p33
aS'variable_10'
p34
aS'['
p35
aS'512'
p36
aS']'
p37
ag32
aS'struct'
p38
aS'variable_4'
p39
ag5
aS'variable_11'
p40
ag32
aS'for'
p41
ag7
aS'variable_11'
p42
ag30
aS'variable_5'
p43
ag32
aS'variable_11'
p44
ag32
aS'variable_11'
p45
ag30
aS'variable_11'
p46
aS'->'
p47
aS'variable_12'
p48
ag26
aS'if'
p49
ag7
aS'!'
p50
aS'func_1'
p51
ag7
aS'variable_11'
p52
aS'->'
p53
aS'variable_13'
p54
ag10
aS'"'
p55
aS'mansession_id'
p56
ag55
ag26
ag26
aS'if'
p57
ag7
ag50
ag7
aS'variable_14'
p58
ag30
aS'func_2'
p59
ag7
aS'variable_9'
p60
ag26
ag26
ag26
aS'if'
p61
ag7
ag50
ag7
aS'variable_14'
p62
ag30
aS'func_3'
p63
ag7
aS'1'
p64
ag10
aS'sizeof'
p65
ag7
ag5
aS'variable_14'
p66
ag26
ag26
ag26
ag26
aS'memcpy'
p67
ag7
aS'&'
p68
aS'variable_14'
p69
aS'->'
p70
aS'variable_15'
p71
ag10
aS'variable_2'
p72
ag10
aS'sizeof'
p73
ag7
aS'variable_14'
p74
aS'->'
p75
aS'variable_15'
p76
ag26
ag26
ag32
aS'variable_14'
p77
aS'->'
p78
aS'variable_16'
p79
ag30
aS'-'
p80
ag64
ag32
aS'variable_14'
p81
aS'->'
p82
aS'variable_17'
p83
ag30
aS'variable_18'
p84
ag32
aS'variable_14'
p85
aS'->'
p86
aS'variable_19'
p87
ag30
ag31
ag32
aS'variable_14'
p88
aS'->'
p89
aS'variable_20'
p90
ag30
ag64
ag32
aS'variable_14'
p91
aS'->'
p92
aS'variable_21'
p93
ag30
aS'rand'
p94
ag7
ag26
aS'|'
p95
ag7
aS'unsigned'
p96
aS'long'
p97
ag26
aS'variable_14'
p98
ag32
aS'variable_14'
p99
aS'->'
p100
aS'variable_22'
p101
ag30
aS'variable_23'
p102
ag32
aS'while'
p103
ag7
aS'variable_14'
p104
aS'->'
p105
aS'variable_22'
p106
aS'->'
p107
aS'variable_12'
p108
ag26
aS'variable_14'
p109
aS'->'
p110
aS'variable_22'
p111
ag30
aS'variable_14'
p112
aS'->'
p113
aS'variable_22'
p114
aS'->'
p115
aS'variable_12'
p116
ag32
aS'if'
p117
ag7
ag50
aS'variable_14'
p118
aS'->'
p119
aS'variable_24'
p120
aS'&&'
p121
ag7
aS'variable_25'
p122
aS'>'
p123
aS'5'
p124
ag26
ag26
aS'variable_14'
p125
aS'->'
p126
aS'variable_26'
p127
aS'+='
p128
ag124
ag32
aS'variable_14'
p129
aS'->'
p130
aS'variable_26'
p131
aS'+='
p132
aS'variable_25'
p133
ag32
aS'if'
p134
ag7
aS'variable_14'
p135
ag26
aS'struct'
p136
aS'message'
p137
aS'variable_27'
p138
ag30
aS'{'
p139
ag31
aS'}'
p140
ag32
aS'char'
p141
aS'variable_28'
p142
ag35
aS'80'
p143
ag37
ag32
aS'unsigned'
p144
aS'int'
p145
aS'variable_29'
p146
ag32
aS'size_t'
p147
aS'variable_30'
p148
ag32
aS'for'
p149
ag7
aS'variable_29'
p150
ag30
ag31
ag10
aS'variable_11'
p151
ag30
aS'variable_5'
p152
ag32
aS'variable_11'
p153
aS'&&'
p154
ag7
aS'variable_29'
p155
aS'<'
p156
aS'variable_31'
p157
ag26
ag32
aS'variable_29'
p158
aS'++'
p159
ag10
aS'variable_11'
p160
ag30
aS'variable_11'
p161
aS'->'
p162
aS'variable_12'
p163
ag26
aS'variable_30'
p164
ag30
aS'strlen'
p165
ag7
aS'variable_11'
p166
aS'->'
p167
aS'variable_13'
p168
ag26
aS'+'
p169
aS'strlen'
p170
ag7
aS'variable_11'
p171
aS'->'
p172
aS'variable_32'
p173
ag26
ag169
aS'3'
p174
ag32
aS'variable_27'
p175
aS'.'
p176
aS'variable_33'
p177
ag35
aS'variable_27'
p178
ag176
aS'variable_34'
p179
ag37
ag30
aS'func_4'
p180
ag7
aS'variable_30'
p181
ag26
ag32
aS'snprintf'
p182
ag7
ag7
aS'char'
p183
ag5
ag26
aS'variable_27'
p184
ag176
aS'variable_33'
p185
ag35
aS'variable_27'
p186
ag176
aS'variable_34'
p187
ag37
ag10
aS'variable_30'
p188
ag10
ag55
aS'%'
p189
aS's'
p190
aS':'
p191
ag189
ag190
ag55
ag10
aS'variable_11'
p192
aS'->'
p193
aS'variable_13'
p194
ag10
aS'variable_11'
p195
aS'->'
p196
aS'variable_32'
p197
ag26
ag32
aS'variable_27'
p198
ag176
aS'variable_34'
p199
ag30
aS'variable_29'
p200
ag169
ag64
ag32
aS'if'
p201
ag7
aS'func_5'
p202
ag7
aS'variable_14'
p203
ag10
ag68
aS'variable_27'
p204
ag26
ag26
aS'variable_14'
p205
aS'->'
p206
aS'variable_35'
p207
ag30
ag64
ag32
aS'sprintf'
p208
ag7
aS'variable_28'
p209
ag10
ag55
ag189
aS'08lx'
p210
ag55
ag10
aS'variable_14'
p211
aS'->'
p212
aS'variable_21'
p213
ag26
ag32
aS'if'
p214
ag7
aS'variable_14'
p215
aS'->'
p216
aS'variable_36'
p217
ag26
aS'char'
p218
ag5
aS'variable_28'
p219
ag32
aS'if'
p220
ag7
aS'variable_0'
p221
aS'=='
p222
aS'variable_37'
p223
ag26
aS'variable_28'
p224
ag30
aS'func_6'
p225
ag7
aS'variable_14'
p226
aS'->'
p227
aS'variable_36'
p228
aS'->'
p229
aS'variable_38'
p230
ag10
aS'variable_5'
p231
ag26
ag32
aS'if'
p232
ag7
aS'variable_0'
p233
aS'=='
p234
aS'variable_39'
p235
ag26
aS'variable_28'
p236
ag30
aS'func_7'
p237
ag7
aS'variable_14'
p238
aS'->'
p239
aS'variable_36'
p240
aS'->'
p241
aS'variable_38'
p242
ag26
ag32
aS'variable_28'
p243
ag30
aS'variable_14'
p244
aS'->'
p245
aS'variable_36'
p246
aS'->'
p247
aS'variable_38'
p248
ag32
aS'if'
p249
ag7
aS'variable_28'
p250
ag26
aS'variable_40'
p251
ag30
aS'malloc'
p252
ag7
aS'strlen'
p253
ag7
aS'variable_10'
p254
ag26
ag169
aS'strlen'
p255
ag7
aS'variable_28'
p256
ag26
ag169
aS'128'
p257
ag26
ag32
aS'if'
p258
ag7
aS'variable_40'
p259
ag26
aS'strcpy'
p260
ag7
aS'variable_40'
p261
ag10
aS'variable_10'
p262
ag26
ag32
aS'strcpy'
p263
ag7
aS'variable_40'
p264
ag169
aS'strlen'
p265
ag7
aS'variable_40'
p266
ag26
ag10
aS'variable_28'
p267
ag26
ag32
aS'variable_41'
p268
ag30
aS'variable_40'
p269
ag169
aS'strlen'
p270
ag7
aS'variable_40'
p271
ag26
ag32
aS'func_8'
p272
ag7
ag68
aS'variable_41'
p273
ag10
ag68
aS'variable_42'
p274
ag10
ag55
ag156
aS'/'
p275
aS'ajax'
p276
ag80
aS'response'
p277
ag123
aS'\\'
p278
aS'n'
p279
ag55
ag26
ag32
aS'func_9'
p280
ag7
ag68
aS'variable_41'
p281
ag10
ag68
aS'variable_42'
p282
ag10
ag55
ag156
ag275
aS'table'
p283
ag123
ag156
ag275
aS'body'
p284
ag123
ag278
aS'r'
p285
ag278
ag279
ag55
ag26
ag32
aaa(lp286
I1
aa(lp287
I477
aa(lp288
(lp289
S'main'
p290
aaa(lp291
S'47 /home/SySeVR/data/CVE_2008_1390_VULN_generic_http_callback.c c = retval + strlen ( retval ) 107'
p292
aa.