(lp0
(lp1
(lp2
S'int'
p3
aS'func_0'
p4
aS'('
p5
aS'variable_0'
p6
aS')'
p7
ag5
aS'struct'
p8
aS'variable_1'
p9
aS'*'
p10
aS'variable_2'
p11
aS','
p12
aS'char'
p13
ag10
ag10
aS'variable_3'
p14
ag12
aS'variable_4'
p15
ag10
aS'variable_5'
p16
ag12
aS'enum'
p17
aS'variable_6'
p18
ag10
aS'variable_7'
p19
ag12
aS'int'
p20
ag10
aS'variable_8'
p21
ag7
aS'char'
p22
aS'variable_9'
p23
aS'['
p24
aS'variable_10'
p25
aS']'
p26
aS'='
p27
aS'"'
p28
ag28
aS';'
p29
aS'size_t'
p30
aS'variable_11'
p31
ag27
aS'0'
p32
ag12
aS'variable_12'
p33
ag27
ag32
ag29
ag10
aS'variable_5'
p34
ag27
ag32
ag29
aS'if'
p35
ag5
aS'func_1'
p36
ag5
aS'variable_2'
p37
ag12
aS'&'
p38
aS'variable_9'
p39
ag24
ag32
ag26
ag12
aS'variable_13'
p40
ag12
aS'variable_7'
p41
ag7
ag7
aS'variable_12'
p42
aS'+='
p43
aS'variable_13'
p44
ag29
ag10
aS'variable_7'
p45
ag27
aS'variable_9'
p46
ag24
ag32
ag26
ag38
aS'0xf'
p47
ag29
ag10
aS'variable_5'
p48
ag27
aS'variable_9'
p49
ag24
aS'1'
p50
ag26
ag38
aS'0x7f'
p51
ag29
aS'if'
p52
ag5
ag10
aS'variable_7'
p53
aS'=='
p54
aS'variable_14'
p55
aS'||'
p56
ag10
aS'variable_7'
p57
aS'=='
p58
aS'variable_15'
p59
aS'||'
p60
ag10
aS'variable_7'
p61
aS'=='
p62
aS'variable_16'
p63
aS'||'
p64
ag10
aS'variable_7'
p65
aS'=='
p66
aS'variable_17'
p67
aS'||'
p68
ag10
aS'variable_7'
p69
aS'=='
p70
aS'variable_18'
p71
ag7
aS'if'
p72
ag5
ag10
aS'variable_7'
p73
aS'=='
p74
aS'variable_19'
p75
ag7
aS'if'
p76
ag5
ag5
ag10
aS'variable_5'
p77
ag7
aS'&&'
p78
ag5
aS'variable_20'
p79
ag27
aS'func_2'
p80
ag5
aS'variable_2'
p81
aS'->'
p82
aS'variable_3'
p83
ag12
ag10
aS'variable_5'
p84
ag7
ag7
ag7
aS'if'
p85
ag5
aS'func_3'
p86
ag5
aS'variable_2'
p87
ag12
ag38
aS'variable_9'
p88
ag24
aS'variable_12'
p89
ag26
ag12
ag5
ag10
aS'variable_5'
p90
ag7
ag12
aS'variable_7'
p91
ag7
ag7
aS'variable_2'
p92
aS'->'
p93
aS'variable_3'
p94
ag27
aS'variable_20'
p95
ag29
aS'memcpy'
p96
ag5
aS'variable_2'
p97
aS'->'
p98
aS'variable_3'
p99
ag12
ag38
aS'variable_9'
p100
ag24
aS'variable_12'
p101
ag26
ag12
ag10
aS'variable_5'
p102
ag7
ag29
ag10
aS'variable_3'
p103
ag27
aS'variable_2'
p104
aS'->'
p105
aS'variable_3'
p106
ag29
aS'variable_2'
p107
aS'->'
p108
aS'variable_21'
p109
ag27
ag50
ag29
aa(lp110
S'int'
p111
aS'func_0'
p112
ag5
aS'variable_0'
p113
ag7
ag5
aS'struct'
p114
aS'variable_1'
p115
ag10
aS'variable_2'
p116
ag12
aS'char'
p117
ag10
ag10
aS'variable_3'
p118
ag12
aS'variable_4'
p119
ag10
aS'variable_5'
p120
ag12
aS'enum'
p121
aS'variable_6'
p122
ag10
aS'variable_7'
p123
ag12
aS'int'
p124
ag10
aS'variable_8'
p125
ag7
aS'char'
p126
aS'variable_9'
p127
ag24
aS'variable_10'
p128
ag26
ag27
ag28
ag28
ag29
aS'size_t'
p129
aS'variable_11'
p130
ag27
ag32
ag12
aS'variable_12'
p131
ag27
ag32
ag29
ag10
aS'variable_3'
p132
ag27
aS'NULL'
p133
ag29
ag10
aS'variable_5'
p134
ag27
ag32
ag29
aS'if'
p135
ag5
aS'func_1'
p136
ag5
aS'variable_2'
p137
ag12
ag38
aS'variable_9'
p138
ag24
ag32
ag26
ag12
aS'variable_13'
p139
ag12
aS'variable_7'
p140
ag7
ag7
aS'variable_12'
p141
aS'+='
p142
aS'variable_13'
p143
ag29
ag10
aS'variable_7'
p144
ag27
aS'variable_9'
p145
ag24
ag32
ag26
ag38
aS'0xf'
p146
ag29
ag10
aS'variable_5'
p147
ag27
aS'variable_9'
p148
ag24
ag50
ag26
ag38
aS'0x7f'
p149
ag29
aS'if'
p150
ag5
ag10
aS'variable_7'
p151
aS'=='
p152
aS'variable_14'
p153
aS'||'
p154
ag10
aS'variable_7'
p155
aS'=='
p156
aS'variable_15'
p157
aS'||'
p158
ag10
aS'variable_7'
p159
aS'=='
p160
aS'variable_16'
p161
aS'||'
p162
ag10
aS'variable_7'
p163
aS'=='
p164
aS'variable_17'
p165
aS'||'
p166
ag10
aS'variable_7'
p167
aS'=='
p168
aS'variable_18'
p169
ag7
aS'variable_19'
p170
ag27
ag5
aS'variable_9'
p171
ag24
ag50
ag26
aS'>>'
p172
aS'7'
p173
ag7
ag38
ag50
ag29
aS'variable_11'
p174
aS'+='
p175
aS'variable_19'
p176
aS'?'
p177
aS'4'
p178
aS':'
p179
ag32
ag29
aS'variable_11'
p180
aS'+='
p181
ag5
ag10
aS'variable_5'
p182
aS'=='
p183
aS'126'
p184
ag7
ag177
aS'2'
p185
ag179
ag5
ag10
aS'variable_5'
p186
aS'=='
p187
aS'127'
p188
ag7
ag177
aS'8'
p189
ag179
ag32
ag29
aS'if'
p190
ag5
aS'variable_11'
p191
ag7
aS'if'
p192
ag5
aS'func_2'
p193
ag5
aS'variable_2'
p194
ag12
ag38
aS'variable_9'
p195
ag24
aS'variable_12'
p196
ag26
ag12
aS'variable_11'
p197
ag12
aS'variable_7'
p198
ag7
ag7
aS'variable_12'
p199
aS'+='
p200
aS'variable_11'
p201
ag29
aS'if'
p202
ag5
ag10
aS'variable_5'
p203
aS'=='
p204
aS'126'
p205
ag7
ag10
aS'variable_5'
p206
ag27
aS'func_3'
p207
ag5
aS'func_4'
p208
ag5
ag38
aS'variable_9'
p209
ag24
ag185
ag26
ag7
ag7
ag29
aS'variable_20'
p210
ag27
ag38
aS'variable_9'
p211
ag24
ag178
ag26
ag29
aS'if'
p212
ag5
ag10
aS'variable_5'
p213
aS'=='
p214
aS'127'
p215
ag7
ag10
aS'variable_5'
p216
ag27
aS'func_5'
p217
ag5
aS'func_6'
p218
ag5
ag38
aS'variable_9'
p219
ag24
ag185
ag26
ag7
ag7
ag29
aS'variable_20'
p220
ag27
ag38
aS'variable_9'
p221
ag24
aS'10'
p222
ag26
ag29
aS'variable_20'
p223
ag27
ag38
aS'variable_9'
p224
ag24
ag185
ag26
ag29
ag10
aS'variable_3'
p225
ag27
ag38
aS'variable_9'
p226
ag24
aS'variable_12'
p227
ag26
ag29
aS'variable_12'
p228
ag27
aS'variable_12'
p229
aS'+'
p230
ag5
ag10
aS'variable_5'
p231
ag7
ag29
aS'if'
p232
ag5
aS'variable_12'
p233
aS'>'
p234
aS'variable_10'
p235
ag7
aS'if'
p236
ag5
aS'func_7'
p237
ag5
aS'variable_2'
p238
ag12
ag5
ag10
aS'variable_3'
p239
ag7
ag12
ag5
ag10
aS'variable_5'
p240
ag7
ag12
aS'variable_7'
p241
ag7
ag7
aS'if'
p242
ag5
aS'variable_19'
p243
ag7
aS'unsigned'
p244
aS'int'
p245
aS'variable_21'
p246
ag29
aS'for'
p247
ag5
aS'variable_21'
p248
ag27
ag32
ag29
aS'variable_21'
p249
aS'<'
p250
ag10
aS'variable_5'
p251
ag29
aS'variable_21'
p252
aS'++'
p253
ag7
ag5
ag10
aS'variable_3'
p254
ag7
ag24
aS'variable_21'
p255
ag26
aS'^'
p256
ag27
aS'variable_20'
p257
ag24
aS'variable_21'
p258
aS'%'
p259
ag178
ag26
ag29
aS'if'
p260
ag5
ag5
ag10
aS'variable_7'
p261
aS'=='
p262
aS'variable_17'
p263
ag7
aS'&&'
p264
ag5
aS'func_8'
p265
ag5
aS'variable_2'
p266
ag12
aS'variable_18'
p267
ag12
ag10
aS'variable_3'
p268
ag12
ag10
aS'variable_5'
p269
ag7
ag7
ag7
ag10
aS'variable_5'
p270
ag27
ag32
ag29
aS'if'
p271
ag5
ag10
aS'variable_5'
p272
ag7
aS'if'
p273
ag5
aS'!'
p274
ag5
aS'variable_22'
p275
ag27
aS'func_9'
p276
ag5
aS'variable_2'
p277
aS'->'
p278
aS'variable_3'
p279
ag12
ag5
aS'variable_2'
p280
aS'->'
p281
aS'variable_5'
p282
ag230
ag10
aS'variable_5'
p283
ag7
ag7
ag7
ag7
ag10
aS'variable_5'
p284
ag27
ag32
ag29
aS'variable_2'
p285
aS'->'
p286
aS'variable_3'
p287
ag27
aS'variable_22'
p288
ag29
aS'memcpy'
p289
ag5
ag5
aS'variable_2'
p290
aS'->'
p291
aS'variable_3'
p292
ag230
aS'variable_2'
p293
aS'->'
p294
aS'variable_5'
p295
ag7
ag12
ag5
ag10
aS'variable_3'
p296
ag7
ag12
ag5
ag10
aS'variable_5'
p297
ag7
ag7
ag29
aS'variable_2'
p298
aS'->'
p299
aS'variable_5'
p300
aS'+='
p301
ag10
aS'variable_5'
p302
ag29
aS'if'
p303
ag5
ag274
aS'variable_23'
p304
aS'&&'
p305
aS'variable_2'
p306
aS'->'
p307
aS'variable_24'
p308
aS'&&'
p309
ag5
aS'variable_2'
p310
aS'->'
p311
aS'variable_5'
p312
ag250
aS'variable_2'
p313
aS'->'
p314
aS'variable_24'
p315
ag7
ag7
ag10
aS'variable_7'
p316
ag27
aS'variable_2'
p317
aS'->'
p318
aS'variable_7'
p319
ag29
ag10
aS'variable_5'
p320
ag27
aS'variable_2'
p321
aS'->'
p322
aS'variable_5'
p323
ag29
ag10
aS'variable_3'
p324
ag27
aS'variable_2'
p325
aS'->'
p326
aS'variable_3'
p327
ag29
aaa(lp328
I0
aI0
aa(lp329
I174
aI409
aa(lp330
(lp331
S'main'
p332
aa(lp333
g332
aaa(lp334
S'617 /home/SySeVR/data/CVE_2014_9374_PATCHED_AST_OPTIONAL_API_NAME.c memcpy 124'
p335
aS'618 /home/SySeVR/data/CVE_2014_9374_PATCHED_AST_OPTIONAL_API_NAME.c memcpy 88'
p336
aa.