(lp0
(lp1
(lp2
S'static'
p3
aS'int'
p4
aS'func_0'
p5
aS'('
p6
aS'variable_0'
p7
aS'*'
p8
aS'variable_1'
p9
aS','
p10
aS'variable_0'
p11
ag8
aS'const'
p12
aS'DVprofile'
p13
ag8
aS'variable_2'
p14
aS')'
p15
aS'int'
p16
aS'variable_3'
p17
ag10
aS'variable_4'
p18
ag10
aS'variable_5'
p19
ag10
aS'variable_6'
p20
ag10
aS'variable_7'
p21
ag10
aS'variable_8'
p22
ag10
aS'variable_9'
p23
ag10
aS'variable_10'
p24
ag10
aS'variable_11'
p25
ag10
aS'variable_12'
p26
aS';'
p27
aS'uint16_t'
p28
aS'variable_13'
p29
ag10
aS'variable_14'
p30
ag27
aS'const'
p31
aS'uint8_t'
p32
ag8
aS'variable_15'
p33
ag27
aS'variable_0'
p34
ag8
aS'variable_16'
p35
ag10
aS'variable_17'
p36
ag27
aS'variable_15'
p37
aS'='
p38
aS'func_1'
p39
ag6
aS'variable_1'
p40
ag10
aS'variable_18'
p41
ag15
ag27
aS'if'
p42
ag6
aS'!'
p43
aS'variable_15'
p44
ag15
aS'variable_9'
p45
ag38
aS'variable_15'
p46
aS'['
p47
aS'1'
p48
aS']'
p49
aS'&'
p50
aS'0x3f'
p51
ag27
aS'variable_10'
p52
ag38
ag6
aS'variable_15'
p53
ag47
aS'4'
p54
ag49
aS'>>'
p55
aS'3'
p56
ag15
ag50
aS'0x07'
p57
ag27
aS'variable_11'
p58
ag38
aS'variable_15'
p59
ag47
ag54
ag49
ag50
aS'0x07'
p60
ag27
aS'if'
p61
ag6
aS'variable_11'
p62
aS'>'
p63
ag48
ag15
aS'variable_3'
p64
ag38
ag6
aS'variable_2'
p65
aS'->'
p66
aS'variable_19'
p67
ag47
aS'variable_10'
p68
ag49
aS'+'
p69
aS'variable_9'
p70
ag15
ag8
ag54
ag27
aS'variable_12'
p71
ag38
aS'variable_2'
p72
aS'->'
p73
aS'variable_20'
p74
aS'/'
p75
aS'2'
p76
ag27
aS'variable_17'
p77
ag38
ag6
aS'variable_2'
p78
aS'->'
p79
aS'variable_21'
p80
aS'=='
p81
aS'720'
p82
aS'&&'
p83
ag43
ag6
aS'variable_1'
p84
ag47
ag48
ag49
ag50
aS'0x0C'
p85
ag15
ag15
aS'?'
p86
ag76
aS':'
p87
aS'0'
p88
ag27
aS'variable_16'
p89
ag38
aS'variable_22'
p90
ag47
aS'variable_17'
p91
aS'++'
p92
ag49
ag27
aS'for'
p93
ag6
aS'variable_4'
p94
ag38
ag88
ag27
aS'variable_4'
p95
aS'<'
p96
aS'variable_2'
p97
aS'->'
p98
aS'variable_23'
p99
ag27
aS'variable_4'
p100
aS'++'
p101
ag15
aS'for'
p102
ag6
aS'variable_5'
p103
ag38
ag88
ag27
aS'variable_5'
p104
ag96
aS'variable_2'
p105
aS'->'
p106
aS'variable_20'
p107
ag27
aS'variable_5'
p108
aS'++'
p109
ag15
aS'variable_1'
p110
aS'+='
p111
aS'6'
p112
ag8
aS'80'
p113
ag27
aS'if'
p114
ag6
aS'variable_11'
p115
aS'=='
p116
ag48
aS'&&'
p117
aS'variable_5'
p118
aS'=='
p119
aS'variable_12'
p120
ag15
aS'variable_16'
p121
ag38
aS'variable_22'
p122
ag47
aS'variable_17'
p123
aS'++'
p124
ag49
ag27
aS'if'
p125
ag6
ag43
aS'variable_16'
p126
ag15
aS'for'
p127
ag6
aS'variable_6'
p128
ag38
ag88
ag27
aS'variable_6'
p129
ag96
aS'9'
p130
ag27
aS'variable_6'
p131
aS'++'
p132
ag15
aS'for'
p133
ag6
aS'variable_7'
p134
ag38
aS'8'
p135
ag27
aS'variable_7'
p136
ag96
aS'80'
p137
ag27
aS'variable_7'
p138
aS'+='
p139
ag76
ag15
aS'if'
p140
ag6
aS'variable_11'
p141
aS'=='
p142
ag88
ag15
aS'variable_8'
p143
ag38
aS'variable_2'
p144
aS'->'
p145
aS'variable_24'
p146
ag47
aS'variable_5'
p147
ag49
ag47
aS'variable_6'
p148
ag49
ag69
ag6
aS'variable_7'
p149
aS'-'
p150
ag135
ag15
ag75
ag76
ag8
aS'variable_2'
p151
aS'->'
p152
aS'variable_25'
p153
ag27
aS'if'
p154
ag6
aS'variable_8'
p155
ag8
ag76
ag63
ag38
aS'variable_3'
p156
ag15
aS'variable_13'
p157
ag38
ag6
ag6
aS'variable_26'
p158
ag15
aS'variable_1'
p159
ag47
aS'variable_7'
p160
ag49
aS'<<'
p161
ag54
ag15
aS'|'
p162
ag6
ag6
aS'variable_26'
p163
ag15
aS'variable_1'
p164
ag47
aS'variable_7'
p165
ag69
ag76
ag49
aS'>>'
p166
ag54
ag15
ag27
aS'variable_14'
p167
ag38
ag6
ag6
aS'variable_26'
p168
ag15
aS'variable_1'
p169
ag47
aS'variable_7'
p170
ag69
ag48
ag49
aS'<<'
p171
ag54
ag15
ag162
ag6
ag6
aS'variable_26'
p172
ag15
aS'variable_1'
p173
ag47
aS'variable_7'
p174
ag69
ag76
ag49
ag50
aS'0x0f'
p175
ag15
ag27
aS'variable_13'
p176
ag38
ag6
aS'variable_13'
p177
aS'=='
p178
aS'0x800'
p179
ag86
ag88
ag87
aS'func_2'
p180
ag6
aS'variable_13'
p181
ag15
ag15
ag27
aS'variable_14'
p182
ag38
ag6
aS'variable_14'
p183
aS'=='
p184
aS'0x800'
p185
ag86
ag88
ag87
aS'func_3'
p186
ag6
aS'variable_14'
p187
ag15
ag15
ag27
aS'variable_8'
p188
ag38
aS'variable_2'
p189
aS'->'
p190
aS'variable_24'
p191
ag47
aS'variable_5'
p192
aS'%'
p193
aS'variable_12'
p194
ag49
ag47
aS'variable_6'
p195
ag49
ag69
ag6
aS'variable_7'
p196
ag150
ag135
ag15
ag75
ag56
ag8
aS'variable_2'
p197
aS'->'
p198
aS'variable_25'
p199
ag27
aS'if'
p200
ag6
aS'variable_8'
p201
ag8
ag76
ag63
ag38
aS'variable_3'
p202
ag15
aS'variable_16'
p203
ag47
aS'variable_8'
p204
ag8
ag76
ag49
ag38
aS'variable_13'
p205
ag50
aS'0xff'
p206
ag27
aS'variable_16'
p207
ag47
aS'variable_8'
p208
ag8
ag76
ag69
ag48
ag49
ag38
aS'variable_13'
p209
aS'>>'
p210
ag135
ag27
aS'variable_8'
p211
ag38
aS'variable_2'
p212
aS'->'
p213
aS'variable_24'
p214
ag47
aS'variable_5'
p215
ag193
aS'variable_12'
p216
ag69
aS'variable_12'
p217
ag49
ag47
aS'variable_6'
p218
ag49
ag69
ag6
aS'variable_7'
p219
ag150
ag135
ag15
ag75
ag56
ag8
aS'variable_2'
p220
aS'->'
p221
aS'variable_25'
p222
ag27
aS'variable_16'
p223
ag47
aS'variable_8'
p224
ag8
ag76
ag49
ag38
aS'variable_14'
p225
ag50
aS'0xff'
p226
ag27
aS'variable_16'
p227
ag47
aS'variable_8'
p228
ag8
ag76
ag69
ag48
ag49
ag38
aS'variable_14'
p229
aS'>>'
p230
ag135
ag27
aS'variable_1'
p231
aS'+='
p232
aS'16'
p233
ag8
aS'80'
p234
ag27
aS'variable_16'
p235
ag38
aS'variable_22'
p236
ag47
aS'variable_17'
p237
aS'++'
p238
ag49
ag27
aS'if'
p239
ag6
ag43
aS'variable_16'
p240
ag15
aaa(lp241
I0
aa(lp242
I454
aa(lp243
(lp244
S'main'
p245
aaa(lp246
S'258 /home/SySeVR/data/CVE_2011_3936_VULN_dv_extract_audio.c of = sys -> audio_shuffle [ i % half_ch + half_ch ] [ j ] + ( d - 8 ) / 3 * sys -> audio_stride 66'
p247
aa.