(lp0
(lp1
(lp2
S'static'
p3
aS'int'
p4
aS'func_0'
p5
aS'('
p6
aS'struct'
p7
aS'variable_0'
p8
aS'*'
p9
aS'variable_1'
p10
aS','
p11
aS'void'
p12
ag9
aS'variable_2'
p13
ag11
aS'int'
p14
aS'variable_3'
p15
ag11
aS'int'
p16
aS'variable_4'
p17
aS')'
p18
aS'unsigned'
p19
aS'char'
p20
aS'variable_5'
p21
aS'['
p22
aS'variable_6'
p23
aS'+'
p24
aS'640'
p25
aS']'
p26
aS';'
p27
aS'const'
p28
aS'int'
p29
aS'variable_7'
p30
aS'='
p31
aS'func_1'
p32
ag6
aS'variable_5'
p33
ag18
ag27
aS'struct'
p34
aS'.'
p35
aS'variable_9'
p36
ag31
ag35
aS'variable_10'
p37
ag31
ag35
aS'variable_11'
p38
ag31
aS'variable_12'
p39
ag11
aS'variable_13'
p40
ag35
aS'variable_2'
p41
ag35
aS'variable_14'
p42
ag31
aS'variable_5'
p43
ag24
aS'variable_6'
p44
ag27
aS'if'
p45
ag6
aS'variable_4'
p46
aS'>'
p47
aS'variable_7'
p48
ag18
aS'variable_4'
p49
ag31
aS'variable_7'
p50
ag27
aS'variable_3'
p51
ag31
aS'variable_4'
p52
ag9
aS'sizeof'
p53
ag6
aS'variable_5'
p54
ag22
aS'0'
p55
ag26
ag18
ag27
aS'variable_13'
p56
ag35
aS'variable_15'
p57
ag31
aS'variable_3'
p58
ag27
aS'variable_13'
p59
ag35
aS'variable_4'
p60
ag31
aS'variable_4'
p61
ag27
aS'if'
p62
ag6
aS'func_2'
p63
ag6
aS'variable_1'
p64
ag11
aS'&'
p65
aS'variable_13'
p66
ag18
aS'<'
p67
ag55
ag18
aS'func_3'
p68
ag6
aS'variable_16'
p69
ag11
aS'"'
p70
aS'Failed'
p71
aS'to'
p72
aS'write'
p73
aS'frame'
p74
aS'to'
p75
aS"'"
p76
aS'%'
p77
aS's'
p78
ag76
aS':'
p79
ag77
ag78
aS'\\'
p80
aS'n'
p81
ag70
ag11
aS'variable_1'
p82
aS'->'
p83
aS'variable_17'
p84
ag11
aS'strerror'
p85
ag6
aS'variable_18'
p86
ag18
ag18
ag27
aaa(lp87
I1
aa(lp88
I131
aa(lp89
(lp90
S'main'
p91
aaa(lp92
S'186 /home/SySeVR/data/CVE_2012_1183_VULN_milliwatt_generate.c strerror 35'
p93
aa.