(lp0
(lp1
(lp2
S'static'
p3
aS'int'
p4
aS'func_0'
p5
aS'('
p6
aS'struct'
p7
aS'variable_0'
p8
aS'*'
p9
aS'variable_1'
p10
aS','
p11
aS'void'
p12
ag9
aS'variable_2'
p13
ag11
aS'int'
p14
aS'variable_3'
p15
ag11
aS'int'
p16
aS'variable_4'
p17
aS')'
p18
aS'unsigned'
p19
aS'char'
p20
aS'variable_5'
p21
aS'['
p22
aS'variable_6'
p23
aS'+'
p24
aS'640'
p25
aS']'
p26
aS';'
p27
aS'const'
p28
aS'int'
p29
aS'variable_7'
p30
aS'='
p31
aS'func_1'
p32
ag6
aS'variable_5'
p33
ag18
ag27
aS'if'
p34
ag6
aS'variable_4'
p35
aS'>'
p36
aS'variable_7'
p37
ag18
aS'variable_4'
p38
ag31
aS'variable_7'
p39
ag27
aS'variable_3'
p40
ag31
aS'variable_4'
p41
ag9
aS'sizeof'
p42
ag6
aS'variable_5'
p43
ag22
aS'0'
p44
ag26
ag18
ag27
aS'variable_8'
p45
aS'.'
p46
aS'variable_9'
p47
ag31
aS'variable_3'
p48
ag27
aS'variable_8'
p49
ag46
aS'variable_4'
p50
ag31
aS'variable_4'
p51
ag27
aS'for'
p52
ag6
aS'variable_10'
p53
ag31
ag44
ag27
aS'variable_10'
p54
aS'<'
p55
aS'variable_3'
p56
ag27
aS'variable_10'
p57
aS'++'
p58
ag18
aS'if'
p59
ag6
aS'func_2'
p60
ag6
aS'variable_1'
p61
ag11
aS'&'
p62
aS'variable_8'
p63
ag18
ag55
ag44
ag18
aa(lp64
S'static'
p65
aS'int'
p66
aS'func_0'
p67
ag6
aS'struct'
p68
aS'variable_0'
p69
ag9
aS'variable_1'
p70
ag11
aS'void'
p71
ag9
aS'variable_2'
p72
ag11
aS'int'
p73
aS'variable_3'
p74
ag11
aS'int'
p75
aS'variable_4'
p76
ag18
aS'unsigned'
p77
aS'char'
p78
aS'variable_5'
p79
ag22
aS'variable_6'
p80
ag24
aS'640'
p81
ag26
ag27
aS'struct'
p82
ag46
aS'variable_8'
p83
ag31
ag46
aS'variable_9'
p84
ag31
ag46
aS'variable_10'
p85
ag31
aS'variable_11'
p86
ag11
aS'variable_12'
p87
ag46
aS'variable_2'
p88
ag46
aS'variable_13'
p89
ag31
aS'variable_5'
p90
ag24
aS'variable_6'
p91
ag27
aS'variable_12'
p92
ag46
aS'variable_14'
p93
ag31
aS'variable_3'
p94
ag27
aS'variable_12'
p95
ag46
aS'variable_4'
p96
ag31
aS'variable_4'
p97
ag27
aS'if'
p98
ag6
aS'func_1'
p99
ag6
aS'variable_1'
p100
ag11
ag62
aS'variable_12'
p101
ag18
ag55
ag44
ag18
aaa(lp102
I1
aI0
aa(lp103
I57
aI49
aa(lp104
(lp105
S'main'
p106
aa(lp107
g106
aaa(lp108
S'291 /home/SySeVR/data/CVE_2012_1183_VULN_milliwatt_generate.c len = samples * sizeof ( buf [ 0 ] ) 24'
p109
aS'292 /home/SySeVR/data/CVE_2012_1183_VULN_milliwatt_generate.c wf . data . ptr = buf + AST_FRIENDLY_OFFSET 12'
p110
aa.