(lp0
(lp1
(lp2
S'static'
p3
aS'int'
p4
aS'func_0'
p5
aS'('
p6
aS'variable_0'
p7
aS'*'
p8
aS'variable_1'
p9
aS','
p10
aS'int'
p11
aS'variable_2'
p12
ag10
aS'int'
p13
aS'variable_3'
p14
ag10
aS'const'
p15
aS'uint8_t'
p16
ag8
aS'variable_4'
p17
aS')'
p18
aS'const'
p19
aS'uint8_t'
p20
ag8
aS'variable_5'
p21
aS'='
p22
ag6
aS'variable_4'
p23
aS'+'
p24
aS'variable_3'
p25
ag18
aS';'
p26
aS'uint32_t'
p27
aS'variable_6'
p28
ag10
aS'variable_7'
p29
ag26
aS'variable_8'
p30
ag8
aS'variable_9'
p31
ag10
ag8
aS'variable_10'
p32
ag10
ag8
aS'variable_11'
p33
ag10
ag8
aS'variable_12'
p34
ag26
aS'unsigned'
p35
aS'int'
p36
aS'variable_13'
p37
ag10
aS'variable_14'
p38
ag26
aS'char'
p39
ag8
aS'variable_15'
p40
ag10
ag8
aS'variable_16'
p41
ag10
ag8
aS'variable_17'
p42
ag10
ag8
aS'variable_18'
p43
ag26
aS'variable_6'
p44
ag22
aS'0'
p45
ag26
aS'variable_7'
p46
ag22
ag45
ag26
aS'for'
p47
ag6
aS'variable_14'
p48
ag22
aS'variable_19'
p49
aS'->'
p50
aS'variable_20'
p51
ag26
aS'variable_14'
p52
aS'<'
p53
aS'variable_19'
p54
aS'->'
p55
aS'variable_21'
p56
ag26
aS'variable_14'
p57
aS'+='
p58
aS'4'
p59
ag18
aS'variable_15'
p60
ag22
aS'variable_16'
p61
ag22
aS'variable_17'
p62
ag22
aS'variable_18'
p63
ag22
aS'variable_1'
p64
aS'->'
p65
aS'variable_22'
p66
aS'->'
p67
aS'variable_4'
p68
aS'['
p69
ag45
aS']'
p70
ag24
ag6
aS'variable_1'
p71
aS'->'
p72
aS'variable_23'
p73
aS'?'
p74
aS'variable_19'
p75
aS'->'
p76
aS'variable_24'
p77
aS':'
p78
aS'variable_19'
p79
aS'->'
p80
aS'variable_24'
p81
ag8
aS'3'
p82
ag18
ag24
ag6
aS'variable_14'
p83
ag8
aS'variable_1'
p84
aS'->'
p85
aS'variable_22'
p86
aS'->'
p87
aS'variable_25'
p88
ag69
ag45
ag70
ag18
ag26
aS'for'
p89
ag6
aS'variable_13'
p90
ag22
aS'variable_19'
p91
aS'->'
p92
aS'variable_24'
p93
ag26
aS'variable_13'
p94
ag53
aS'variable_19'
p95
aS'->'
p96
aS'variable_26'
p97
ag26
aS'variable_13'
p98
aS'+='
p99
ag59
ag18
aS'if'
p100
ag6
ag6
aS'variable_2'
p101
aS'&'
p102
aS'0x01'
p103
ag18
aS'&&'
p104
aS'!'
p105
ag6
aS'variable_7'
p106
aS'>>'
p107
ag22
aS'1'
p108
ag18
ag18
aS'if'
p109
ag6
ag6
aS'variable_4'
p110
ag24
ag59
ag18
aS'>'
p111
aS'variable_5'
p112
ag18
aS'variable_6'
p113
ag22
aS'func_1'
p114
ag6
aS'variable_4'
p115
ag18
ag26
aS'variable_4'
p116
aS'+='
p117
ag59
ag26
aS'variable_7'
p118
ag22
aS'0x80000000'
p119
ag26
aS'if'
p120
ag6
ag105
ag6
aS'variable_2'
p121
ag102
aS'0x01'
p122
ag18
aS'||'
p123
ag6
aS'variable_6'
p124
ag102
aS'variable_7'
p125
ag18
ag18
aS'if'
p126
ag6
ag105
ag6
aS'variable_2'
p127
ag102
aS'0x02'
p128
ag18
aS'&&'
p129
ag105
ag6
aS'variable_7'
p130
aS'>>'
p131
ag22
ag108
ag18
ag18
aS'if'
p132
ag6
ag6
aS'variable_4'
p133
ag24
ag59
ag18
ag111
aS'variable_5'
p134
ag18
aS'variable_6'
p135
ag22
aS'func_2'
p136
ag6
aS'variable_4'
p137
ag18
ag26
aS'variable_4'
p138
aS'+='
p139
ag59
ag26
aS'variable_7'
p140
ag22
aS'0x80000000'
p141
ag26
aS'if'
p142
ag6
ag6
aS'variable_2'
p143
ag102
aS'0x02'
p144
ag18
aS'||'
p145
ag6
aS'~'
p146
aS'variable_6'
p147
ag102
aS'variable_7'
p148
ag18
ag18
aS'variable_8'
p149
ag8
aS'variable_27'
p150
ag26
aS'if'
p151
ag6
aS'variable_4'
p152
ag111
ag22
aS'variable_5'
p153
ag18
aS'variable_27'
p154
ag22
aS'variable_19'
p155
aS'->'
p156
aS'variable_28'
p157
ag69
ag8
aS'variable_4'
p158
aS'++'
p159
ag70
ag26
aS'variable_18'
p160
ag69
ag45
ag70
ag22
aS'variable_18'
p161
ag69
ag108
ag70
ag22
aS'variable_17'
p162
ag69
ag45
ag70
ag22
aS'variable_17'
p163
ag69
ag108
ag70
ag22
aS'variable_27'
p164
ag69
aS'6'
p165
ag70
ag26
aS'variable_18'
p166
ag69
aS'2'
p167
ag70
ag22
aS'variable_18'
p168
ag69
ag82
ag70
ag22
aS'variable_17'
p169
ag69
ag167
ag70
ag22
aS'variable_17'
p170
ag69
ag82
ag70
ag22
aS'variable_27'
p171
ag69
aS'9'
p172
ag70
ag26
aS'variable_16'
p173
ag69
ag45
ag70
ag22
aS'variable_16'
p174
ag69
ag108
ag70
ag22
aS'variable_15'
p175
ag69
ag45
ag70
ag22
aS'variable_15'
p176
ag69
ag108
ag70
ag22
aS'variable_27'
p177
ag69
ag45
ag70
ag26
aS'variable_16'
p178
ag69
ag167
ag70
ag22
aS'variable_16'
p179
ag69
ag82
ag70
ag22
aS'variable_15'
p180
ag69
ag167
ag70
ag22
aS'variable_15'
p181
ag69
ag82
ag70
ag22
aS'variable_27'
p182
ag69
ag82
ag70
ag26
aS'memcpy'
p183
ag6
aS'variable_15'
p184
ag24
ag45
ag10
aS'variable_27'
p185
ag10
ag82
ag18
ag26
aS'memcpy'
p186
ag6
aS'variable_15'
p187
ag24
ag82
ag10
aS'variable_27'
p188
ag10
ag82
ag18
ag26
aS'memcpy'
p189
ag6
aS'variable_15'
p190
ag24
ag165
ag10
aS'variable_27'
p191
ag10
ag82
ag18
ag26
aS'memcpy'
p192
ag6
aS'variable_15'
p193
ag24
ag172
ag10
aS'variable_27'
p194
ag10
ag82
ag18
ag26
aS'if'
p195
ag6
aS'variable_6'
p196
ag102
aS'variable_7'
p197
ag18
aS'if'
p198
ag6
ag6
aS'variable_4'
p199
ag24
ag59
ag18
ag111
aS'variable_5'
p200
ag18
aS'variable_9'
p201
ag22
aS'variable_19'
p202
aS'->'
p203
aS'variable_29'
p204
ag69
ag8
aS'variable_4'
p205
aS'++'
p206
ag70
ag26
aS'variable_10'
p207
ag22
aS'variable_19'
p208
aS'->'
p209
aS'variable_29'
p210
ag69
ag8
aS'variable_4'
p211
aS'++'
p212
ag70
ag26
aS'variable_11'
p213
ag22
aS'variable_19'
p214
aS'->'
p215
aS'variable_29'
p216
ag69
ag8
aS'variable_4'
p217
aS'++'
p218
ag70
ag26
aS'variable_12'
p219
ag22
aS'variable_19'
p220
aS'->'
p221
aS'variable_29'
p222
ag69
ag8
aS'variable_4'
p223
aS'++'
p224
ag70
ag26
aS'if'
p225
ag6
aS'variable_1'
p226
aS'->'
p227
aS'variable_23'
p228
ag18
aS'variable_27'
p229
ag22
aS'variable_15'
p230
ag26
ag8
aS'variable_27'
p231
aS'++'
p232
ag22
aS'variable_9'
p233
ag69
ag45
ag70
ag26
ag8
aS'variable_27'
p234
aS'++'
p235
ag22
aS'variable_9'
p236
ag69
ag82
ag70
ag26
ag8
aS'variable_27'
p237
aS'++'
p238
ag22
aS'variable_10'
p239
ag69
ag45
ag70
ag26
ag8
aS'variable_27'
p240
ag22
aS'variable_10'
p241
ag69
ag82
ag70
ag26
aS'memcpy'
p242
ag6
aS'variable_15'
p243
ag24
ag45
ag10
aS'variable_9'
p244
ag24
ag45
ag10
ag165
ag18
ag26
aS'memcpy'
p245
ag6
aS'variable_15'
p246
ag24
ag165
ag10
aS'variable_10'
p247
ag24
ag45
ag10
ag165
ag18
ag26
aS'if'
p248
ag6
aS'variable_1'
p249
aS'->'
p250
aS'variable_23'
p251
ag18
aS'variable_15'
p252
aS'+='
p253
ag59
ag26
aS'variable_15'
p254
aS'+='
p255
aS'12'
p256
ag26
aa(lp257
S'static'
p258
aS'int'
p259
aS'func_0'
p260
ag6
aS'variable_0'
p261
ag8
aS'variable_1'
p262
ag10
aS'int'
p263
aS'variable_2'
p264
ag10
aS'int'
p265
aS'variable_3'
p266
ag10
aS'const'
p267
aS'uint8_t'
p268
ag8
aS'variable_4'
p269
ag18
aS'const'
p270
aS'uint8_t'
p271
ag8
aS'variable_5'
p272
ag22
ag6
aS'variable_4'
p273
ag24
aS'variable_3'
p274
ag18
ag26
aS'uint32_t'
p275
aS'variable_6'
p276
ag10
aS'variable_7'
p277
ag26
aS'variable_8'
p278
ag8
aS'variable_9'
p279
ag10
ag8
aS'variable_10'
p280
ag10
ag8
aS'variable_11'
p281
ag10
ag8
aS'variable_12'
p282
ag26
aS'unsigned'
p283
aS'int'
p284
aS'variable_13'
p285
ag10
aS'variable_14'
p286
ag26
aS'char'
p287
ag8
aS'variable_15'
p288
ag10
ag8
aS'variable_16'
p289
ag10
ag8
aS'variable_17'
p290
ag10
ag8
aS'variable_18'
p291
ag26
aS'variable_6'
p292
ag22
ag45
ag26
aS'variable_7'
p293
ag22
ag45
ag26
aS'for'
p294
ag6
aS'variable_14'
p295
ag22
aS'variable_19'
p296
aS'->'
p297
aS'variable_20'
p298
ag26
aS'variable_14'
p299
ag53
aS'variable_19'
p300
aS'->'
p301
aS'variable_21'
p302
ag26
aS'variable_14'
p303
aS'+='
p304
ag59
ag18
aS'variable_15'
p305
ag22
aS'variable_16'
p306
ag22
aS'variable_17'
p307
ag22
aS'variable_18'
p308
ag22
aS'variable_1'
p309
aS'->'
p310
aS'variable_22'
p311
aS'->'
p312
aS'variable_4'
p313
ag69
ag45
ag70
ag24
ag6
aS'variable_1'
p314
aS'->'
p315
aS'variable_23'
p316
ag74
aS'variable_19'
p317
aS'->'
p318
aS'variable_24'
p319
ag78
aS'variable_19'
p320
aS'->'
p321
aS'variable_24'
p322
ag8
ag82
ag18
ag24
ag6
aS'variable_14'
p323
ag8
aS'variable_1'
p324
aS'->'
p325
aS'variable_22'
p326
aS'->'
p327
aS'variable_25'
p328
ag69
ag45
ag70
ag18
ag26
aS'if'
p329
ag6
aS'variable_1'
p330
aS'->'
p331
aS'variable_26'
p332
aS'->'
p333
aS'variable_27'
p334
aS'-'
p335
aS'variable_14'
p336
ag111
ag108
ag18
aS'variable_16'
p337
ag22
aS'variable_15'
p338
ag24
aS'variable_1'
p339
aS'->'
p340
aS'variable_22'
p341
aS'->'
p342
aS'variable_25'
p343
ag69
ag45
ag70
ag26
aS'for'
p344
ag6
aS'variable_13'
p345
ag22
aS'variable_19'
p346
aS'->'
p347
aS'variable_24'
p348
ag26
aS'variable_13'
p349
ag53
aS'variable_19'
p350
aS'->'
p351
aS'variable_28'
p352
ag26
aS'variable_13'
p353
aS'+='
p354
ag59
ag18
aS'if'
p355
ag6
ag6
aS'variable_2'
p356
ag102
aS'0x01'
p357
ag18
aS'&&'
p358
ag105
ag6
aS'variable_7'
p359
aS'>>'
p360
ag22
ag108
ag18
ag18
aS'if'
p361
ag6
ag6
aS'variable_4'
p362
ag24
ag59
ag18
ag111
aS'variable_5'
p363
ag18
aS'variable_6'
p364
ag22
aS'func_1'
p365
ag6
aS'variable_4'
p366
ag18
ag26
aS'variable_4'
p367
aS'+='
p368
ag59
ag26
aS'variable_7'
p369
ag22
aS'0x80000000'
p370
ag26
aS'if'
p371
ag6
ag105
ag6
aS'variable_2'
p372
ag102
aS'0x01'
p373
ag18
aS'||'
p374
ag6
aS'variable_6'
p375
ag102
aS'variable_7'
p376
ag18
ag18
aS'if'
p377
ag6
ag105
ag6
aS'variable_2'
p378
ag102
aS'0x02'
p379
ag18
aS'&&'
p380
ag105
ag6
aS'variable_7'
p381
aS'>>'
p382
ag22
ag108
ag18
ag18
aS'if'
p383
ag6
ag6
aS'variable_4'
p384
ag24
ag59
ag18
ag111
aS'variable_5'
p385
ag18
aS'variable_6'
p386
ag22
aS'func_2'
p387
ag6
aS'variable_4'
p388
ag18
ag26
aS'variable_4'
p389
aS'+='
p390
ag59
ag26
aS'variable_7'
p391
ag22
aS'0x80000000'
p392
ag26
aS'if'
p393
ag6
ag6
aS'variable_2'
p394
ag102
aS'0x02'
p395
ag18
aS'||'
p396
ag6
ag146
aS'variable_6'
p397
ag102
aS'variable_7'
p398
ag18
ag18
aS'variable_8'
p399
ag8
aS'variable_29'
p400
ag26
aS'if'
p401
ag6
aS'variable_4'
p402
ag111
ag22
aS'variable_5'
p403
ag18
aS'variable_29'
p404
ag22
aS'variable_19'
p405
aS'->'
p406
aS'variable_30'
p407
ag69
ag8
aS'variable_4'
p408
aS'++'
p409
ag70
ag26
aS'variable_18'
p410
ag69
ag45
ag70
ag22
aS'variable_18'
p411
ag69
ag108
ag70
ag22
aS'variable_17'
p412
ag69
ag45
ag70
ag22
aS'variable_17'
p413
ag69
ag108
ag70
ag22
aS'variable_29'
p414
ag69
ag165
ag70
ag26
aS'variable_18'
p415
ag69
ag167
ag70
ag22
aS'variable_18'
p416
ag69
ag82
ag70
ag22
aS'variable_17'
p417
ag69
ag167
ag70
ag22
aS'variable_17'
p418
ag69
ag82
ag70
ag22
aS'variable_29'
p419
ag69
ag172
ag70
ag26
aS'variable_16'
p420
ag69
ag45
ag70
ag22
aS'variable_16'
p421
ag69
ag108
ag70
ag22
aS'variable_15'
p422
ag69
ag45
ag70
ag22
aS'variable_15'
p423
ag69
ag108
ag70
ag22
aS'variable_29'
p424
ag69
ag45
ag70
ag26
aS'variable_16'
p425
ag69
ag167
ag70
ag22
aS'variable_16'
p426
ag69
ag82
ag70
ag22
aS'variable_15'
p427
ag69
ag167
ag70
ag22
aS'variable_15'
p428
ag69
ag82
ag70
ag22
aS'variable_29'
p429
ag69
ag82
ag70
ag26
aS'memcpy'
p430
ag6
aS'variable_16'
p431
ag24
ag45
ag10
aS'variable_29'
p432
ag10
ag82
ag18
ag26
aS'memcpy'
p433
ag6
aS'variable_16'
p434
ag24
ag82
ag10
aS'variable_29'
p435
ag10
ag82
ag18
ag26
aS'memcpy'
p436
ag6
aS'variable_16'
p437
ag24
ag165
ag10
aS'variable_29'
p438
ag10
ag82
ag18
ag26
aS'memcpy'
p439
ag6
aS'variable_16'
p440
ag24
ag172
ag10
aS'variable_29'
p441
ag10
ag82
ag18
ag26
aS'if'
p442
ag6
aS'variable_6'
p443
ag102
aS'variable_7'
p444
ag18
aS'if'
p445
ag6
ag6
aS'variable_4'
p446
ag24
ag59
ag18
ag111
aS'variable_5'
p447
ag18
aS'variable_9'
p448
ag22
aS'variable_19'
p449
aS'->'
p450
aS'variable_31'
p451
ag69
ag8
aS'variable_4'
p452
aS'++'
p453
ag70
ag26
aS'variable_10'
p454
ag22
aS'variable_19'
p455
aS'->'
p456
aS'variable_31'
p457
ag69
ag8
aS'variable_4'
p458
aS'++'
p459
ag70
ag26
aS'variable_11'
p460
ag22
aS'variable_19'
p461
aS'->'
p462
aS'variable_31'
p463
ag69
ag8
aS'variable_4'
p464
aS'++'
p465
ag70
ag26
aS'variable_12'
p466
ag22
aS'variable_19'
p467
aS'->'
p468
aS'variable_31'
p469
ag69
ag8
aS'variable_4'
p470
aS'++'
p471
ag70
ag26
aS'if'
p472
ag6
aS'variable_1'
p473
aS'->'
p474
aS'variable_23'
p475
ag18
aS'variable_29'
p476
ag22
aS'variable_16'
p477
ag26
ag8
aS'variable_29'
p478
aS'++'
p479
ag22
aS'variable_9'
p480
ag69
ag165
ag70
ag26
ag8
aS'variable_29'
p481
aS'++'
p482
ag22
aS'variable_9'
p483
ag69
ag172
ag70
ag26
ag8
aS'variable_29'
p484
aS'++'
p485
ag22
aS'variable_10'
p486
ag69
ag165
ag70
ag26
ag8
aS'variable_29'
p487
ag22
aS'variable_10'
p488
ag69
ag172
ag70
ag26
ag8
aS'variable_29'
p489
aS'++'
p490
ag22
aS'variable_9'
p491
ag69
ag45
ag70
ag26
ag8
aS'variable_29'
p492
aS'++'
p493
ag22
aS'variable_9'
p494
ag69
ag82
ag70
ag26
ag8
aS'variable_29'
p495
aS'++'
p496
ag22
aS'variable_10'
p497
ag69
ag45
ag70
ag26
ag8
aS'variable_29'
p498
ag22
aS'variable_10'
p499
ag69
ag82
ag70
ag26
aS'memcpy'
p500
ag6
aS'variable_16'
p501
ag24
ag45
ag10
aS'variable_9'
p502
ag24
ag165
ag10
ag165
ag18
ag26
aS'memcpy'
p503
ag6
aS'variable_16'
p504
ag24
ag165
ag10
aS'variable_10'
p505
ag24
ag165
ag10
ag165
ag18
ag26
aS'if'
p506
ag6
aS'variable_1'
p507
aS'->'
p508
aS'variable_23'
p509
ag18
aS'variable_16'
p510
aS'+='
p511
ag59
ag26
aS'variable_16'
p512
aS'+='
p513
aS'12'
p514
ag26
aa(lp515
S'static'
p516
aS'int'
p517
aS'func_0'
p518
ag6
aS'variable_0'
p519
ag8
aS'variable_1'
p520
ag10
aS'int'
p521
aS'variable_2'
p522
ag10
aS'int'
p523
aS'variable_3'
p524
ag10
aS'const'
p525
aS'uint8_t'
p526
ag8
aS'variable_4'
p527
ag18
aS'const'
p528
aS'uint8_t'
p529
ag8
aS'variable_5'
p530
ag22
ag6
aS'variable_4'
p531
ag24
aS'variable_3'
p532
ag18
ag26
aS'uint32_t'
p533
aS'variable_6'
p534
ag10
aS'variable_7'
p535
ag26
aS'variable_8'
p536
ag8
aS'variable_9'
p537
ag10
ag8
aS'variable_10'
p538
ag10
ag8
aS'variable_11'
p539
ag10
ag8
aS'variable_12'
p540
ag26
aS'unsigned'
p541
aS'int'
p542
aS'variable_13'
p543
ag10
aS'variable_14'
p544
ag26
aS'char'
p545
ag8
aS'variable_15'
p546
ag10
ag8
aS'variable_16'
p547
ag10
ag8
aS'variable_17'
p548
ag10
ag8
aS'variable_18'
p549
ag26
aS'variable_6'
p550
ag22
ag45
ag26
aS'variable_7'
p551
ag22
ag45
ag26
aS'for'
p552
ag6
aS'variable_14'
p553
ag22
aS'variable_19'
p554
aS'->'
p555
aS'variable_20'
p556
ag26
aS'variable_14'
p557
ag53
aS'variable_19'
p558
aS'->'
p559
aS'variable_21'
p560
ag26
aS'variable_14'
p561
aS'+='
p562
ag59
ag18
aS'variable_15'
p563
ag22
aS'variable_16'
p564
ag22
aS'variable_17'
p565
ag22
aS'variable_18'
p566
ag22
aS'variable_1'
p567
aS'->'
p568
aS'variable_22'
p569
aS'->'
p570
aS'variable_4'
p571
ag69
ag45
ag70
ag24
ag6
aS'variable_1'
p572
aS'->'
p573
aS'variable_23'
p574
ag74
aS'variable_19'
p575
aS'->'
p576
aS'variable_24'
p577
ag78
aS'variable_19'
p578
aS'->'
p579
aS'variable_24'
p580
ag8
ag82
ag18
ag24
ag6
aS'variable_14'
p581
ag8
aS'variable_1'
p582
aS'->'
p583
aS'variable_22'
p584
aS'->'
p585
aS'variable_25'
p586
ag69
ag45
ag70
ag18
ag26
aS'if'
p587
ag6
aS'variable_1'
p588
aS'->'
p589
aS'variable_26'
p590
aS'->'
p591
aS'variable_27'
p592
ag335
aS'variable_14'
p593
ag111
ag108
ag18
aS'variable_16'
p594
ag22
aS'variable_15'
p595
ag24
aS'variable_1'
p596
aS'->'
p597
aS'variable_22'
p598
aS'->'
p599
aS'variable_25'
p600
ag69
ag45
ag70
ag26
aS'if'
p601
ag6
aS'variable_1'
p602
aS'->'
p603
aS'variable_26'
p604
aS'->'
p605
aS'variable_27'
p606
ag335
aS'variable_14'
p607
ag111
ag167
ag18
aS'variable_17'
p608
ag22
aS'variable_16'
p609
ag24
aS'variable_1'
p610
aS'->'
p611
aS'variable_22'
p612
aS'->'
p613
aS'variable_25'
p614
ag69
ag45
ag70
ag26
aS'for'
p615
ag6
aS'variable_13'
p616
ag22
aS'variable_19'
p617
aS'->'
p618
aS'variable_24'
p619
ag26
aS'variable_13'
p620
ag53
aS'variable_19'
p621
aS'->'
p622
aS'variable_28'
p623
ag26
aS'variable_13'
p624
aS'+='
p625
ag59
ag18
aS'if'
p626
ag6
ag6
aS'variable_2'
p627
ag102
aS'0x01'
p628
ag18
aS'&&'
p629
ag105
ag6
aS'variable_7'
p630
aS'>>'
p631
ag22
ag108
ag18
ag18
aS'if'
p632
ag6
ag6
aS'variable_4'
p633
ag24
ag59
ag18
ag111
aS'variable_5'
p634
ag18
aS'variable_6'
p635
ag22
aS'func_1'
p636
ag6
aS'variable_4'
p637
ag18
ag26
aS'variable_4'
p638
aS'+='
p639
ag59
ag26
aS'variable_7'
p640
ag22
aS'0x80000000'
p641
ag26
aS'if'
p642
ag6
ag105
ag6
aS'variable_2'
p643
ag102
aS'0x01'
p644
ag18
aS'||'
p645
ag6
aS'variable_6'
p646
ag102
aS'variable_7'
p647
ag18
ag18
aS'if'
p648
ag6
ag105
ag6
aS'variable_2'
p649
ag102
aS'0x02'
p650
ag18
aS'&&'
p651
ag105
ag6
aS'variable_7'
p652
aS'>>'
p653
ag22
ag108
ag18
ag18
aS'if'
p654
ag6
ag6
aS'variable_4'
p655
ag24
ag59
ag18
ag111
aS'variable_5'
p656
ag18
aS'variable_6'
p657
ag22
aS'func_2'
p658
ag6
aS'variable_4'
p659
ag18
ag26
aS'variable_4'
p660
aS'+='
p661
ag59
ag26
aS'variable_7'
p662
ag22
aS'0x80000000'
p663
ag26
aS'if'
p664
ag6
ag6
aS'variable_2'
p665
ag102
aS'0x02'
p666
ag18
aS'||'
p667
ag6
ag146
aS'variable_6'
p668
ag102
aS'variable_7'
p669
ag18
ag18
aS'variable_8'
p670
ag8
aS'variable_29'
p671
ag26
aS'if'
p672
ag6
aS'variable_4'
p673
ag111
ag22
aS'variable_5'
p674
ag18
aS'variable_29'
p675
ag22
aS'variable_19'
p676
aS'->'
p677
aS'variable_30'
p678
ag69
ag8
aS'variable_4'
p679
aS'++'
p680
ag70
ag26
aS'variable_18'
p681
ag69
ag45
ag70
ag22
aS'variable_18'
p682
ag69
ag108
ag70
ag22
aS'variable_17'
p683
ag69
ag45
ag70
ag22
aS'variable_17'
p684
ag69
ag108
ag70
ag22
aS'variable_29'
p685
ag69
ag165
ag70
ag26
aS'variable_18'
p686
ag69
ag167
ag70
ag22
aS'variable_18'
p687
ag69
ag82
ag70
ag22
aS'variable_17'
p688
ag69
ag167
ag70
ag22
aS'variable_17'
p689
ag69
ag82
ag70
ag22
aS'variable_29'
p690
ag69
ag172
ag70
ag26
aS'variable_16'
p691
ag69
ag45
ag70
ag22
aS'variable_16'
p692
ag69
ag108
ag70
ag22
aS'variable_15'
p693
ag69
ag45
ag70
ag22
aS'variable_15'
p694
ag69
ag108
ag70
ag22
aS'variable_29'
p695
ag69
ag45
ag70
ag26
aS'variable_16'
p696
ag69
ag167
ag70
ag22
aS'variable_16'
p697
ag69
ag82
ag70
ag22
aS'variable_15'
p698
ag69
ag167
ag70
ag22
aS'variable_15'
p699
ag69
ag82
ag70
ag22
aS'variable_29'
p700
ag69
ag82
ag70
ag26
aS'memcpy'
p701
ag6
aS'variable_17'
p702
ag24
ag45
ag10
aS'variable_29'
p703
ag10
ag82
ag18
ag26
aS'memcpy'
p704
ag6
aS'variable_17'
p705
ag24
ag82
ag10
aS'variable_29'
p706
ag10
ag82
ag18
ag26
aS'memcpy'
p707
ag6
aS'variable_17'
p708
ag24
ag165
ag10
aS'variable_29'
p709
ag10
ag82
ag18
ag26
aS'memcpy'
p710
ag6
aS'variable_17'
p711
ag24
ag172
ag10
aS'variable_29'
p712
ag10
ag82
ag18
ag26
aS'if'
p713
ag6
aS'variable_6'
p714
ag102
aS'variable_7'
p715
ag18
aS'if'
p716
ag6
ag6
aS'variable_4'
p717
ag24
ag59
ag18
ag111
aS'variable_5'
p718
ag18
aS'variable_9'
p719
ag22
aS'variable_19'
p720
aS'->'
p721
aS'variable_31'
p722
ag69
ag8
aS'variable_4'
p723
aS'++'
p724
ag70
ag26
aS'variable_10'
p725
ag22
aS'variable_19'
p726
aS'->'
p727
aS'variable_31'
p728
ag69
ag8
aS'variable_4'
p729
aS'++'
p730
ag70
ag26
aS'variable_11'
p731
ag22
aS'variable_19'
p732
aS'->'
p733
aS'variable_31'
p734
ag69
ag8
aS'variable_4'
p735
aS'++'
p736
ag70
ag26
aS'variable_12'
p737
ag22
aS'variable_19'
p738
aS'->'
p739
aS'variable_31'
p740
ag69
ag8
aS'variable_4'
p741
aS'++'
p742
ag70
ag26
aS'if'
p743
ag6
aS'variable_1'
p744
aS'->'
p745
aS'variable_23'
p746
ag18
aS'variable_29'
p747
ag22
aS'variable_17'
p748
ag26
ag8
aS'variable_29'
p749
aS'++'
p750
ag22
aS'variable_11'
p751
ag69
ag45
ag70
ag26
ag8
aS'variable_29'
p752
aS'++'
p753
ag22
aS'variable_11'
p754
ag69
ag82
ag70
ag26
ag8
aS'variable_29'
p755
aS'++'
p756
ag22
aS'variable_12'
p757
ag69
ag45
ag70
ag26
ag8
aS'variable_29'
p758
ag22
aS'variable_12'
p759
ag69
ag82
ag70
ag26
ag8
aS'variable_29'
p760
aS'++'
p761
ag22
aS'variable_9'
p762
ag69
ag165
ag70
ag26
ag8
aS'variable_29'
p763
aS'++'
p764
ag22
aS'variable_9'
p765
ag69
ag172
ag70
ag26
ag8
aS'variable_29'
p766
aS'++'
p767
ag22
aS'variable_10'
p768
ag69
ag165
ag70
ag26
ag8
aS'variable_29'
p769
ag22
aS'variable_10'
p770
ag69
ag172
ag70
ag26
ag8
aS'variable_29'
p771
aS'++'
p772
ag22
aS'variable_9'
p773
ag69
ag45
ag70
ag26
ag8
aS'variable_29'
p774
aS'++'
p775
ag22
aS'variable_9'
p776
ag69
ag82
ag70
ag26
ag8
aS'variable_29'
p777
aS'++'
p778
ag22
aS'variable_10'
p779
ag69
ag45
ag70
ag26
ag8
aS'variable_29'
p780
ag22
aS'variable_10'
p781
ag69
ag82
ag70
ag26
aS'memcpy'
p782
ag6
aS'variable_17'
p783
ag24
ag45
ag10
aS'variable_11'
p784
ag24
ag45
ag10
ag165
ag18
ag26
aS'memcpy'
p785
ag6
aS'variable_17'
p786
ag24
ag165
ag10
aS'variable_12'
p787
ag24
ag45
ag10
ag165
ag18
ag26
aS'if'
p788
ag6
aS'variable_1'
p789
aS'->'
p790
aS'variable_23'
p791
ag18
aS'variable_17'
p792
aS'+='
p793
ag59
ag26
aS'variable_17'
p794
aS'+='
p795
aS'12'
p796
ag26
aa(lp797
S'static'
p798
aS'int'
p799
aS'func_0'
p800
ag6
aS'variable_0'
p801
ag8
aS'variable_1'
p802
ag10
aS'int'
p803
aS'variable_2'
p804
ag10
aS'int'
p805
aS'variable_3'
p806
ag10
aS'const'
p807
aS'uint8_t'
p808
ag8
aS'variable_4'
p809
ag18
aS'const'
p810
aS'uint8_t'
p811
ag8
aS'variable_5'
p812
ag22
ag6
aS'variable_4'
p813
ag24
aS'variable_3'
p814
ag18
ag26
aS'uint32_t'
p815
aS'variable_6'
p816
ag10
aS'variable_7'
p817
ag26
aS'variable_8'
p818
ag8
aS'variable_9'
p819
ag10
ag8
aS'variable_10'
p820
ag10
ag8
aS'variable_11'
p821
ag10
ag8
aS'variable_12'
p822
ag26
aS'unsigned'
p823
aS'int'
p824
aS'variable_13'
p825
ag10
aS'variable_14'
p826
ag26
aS'char'
p827
ag8
aS'variable_15'
p828
ag10
ag8
aS'variable_16'
p829
ag10
ag8
aS'variable_17'
p830
ag10
ag8
aS'variable_18'
p831
ag26
aS'variable_6'
p832
ag22
ag45
ag26
aS'variable_7'
p833
ag22
ag45
ag26
aS'for'
p834
ag6
aS'variable_14'
p835
ag22
aS'variable_19'
p836
aS'->'
p837
aS'variable_20'
p838
ag26
aS'variable_14'
p839
ag53
aS'variable_19'
p840
aS'->'
p841
aS'variable_21'
p842
ag26
aS'variable_14'
p843
aS'+='
p844
ag59
ag18
aS'variable_15'
p845
ag22
aS'variable_16'
p846
ag22
aS'variable_17'
p847
ag22
aS'variable_18'
p848
ag22
aS'variable_1'
p849
aS'->'
p850
aS'variable_22'
p851
aS'->'
p852
aS'variable_4'
p853
ag69
ag45
ag70
ag24
ag6
aS'variable_1'
p854
aS'->'
p855
aS'variable_23'
p856
ag74
aS'variable_19'
p857
aS'->'
p858
aS'variable_24'
p859
ag78
aS'variable_19'
p860
aS'->'
p861
aS'variable_24'
p862
ag8
ag82
ag18
ag24
ag6
aS'variable_14'
p863
ag8
aS'variable_1'
p864
aS'->'
p865
aS'variable_22'
p866
aS'->'
p867
aS'variable_25'
p868
ag69
ag45
ag70
ag18
ag26
aS'if'
p869
ag6
aS'variable_1'
p870
aS'->'
p871
aS'variable_26'
p872
aS'->'
p873
aS'variable_27'
p874
ag335
aS'variable_14'
p875
ag111
ag108
ag18
aS'variable_16'
p876
ag22
aS'variable_15'
p877
ag24
aS'variable_1'
p878
aS'->'
p879
aS'variable_22'
p880
aS'->'
p881
aS'variable_25'
p882
ag69
ag45
ag70
ag26
aS'if'
p883
ag6
aS'variable_1'
p884
aS'->'
p885
aS'variable_26'
p886
aS'->'
p887
aS'variable_27'
p888
ag335
aS'variable_14'
p889
ag111
ag167
ag18
aS'variable_17'
p890
ag22
aS'variable_16'
p891
ag24
aS'variable_1'
p892
aS'->'
p893
aS'variable_22'
p894
aS'->'
p895
aS'variable_25'
p896
ag69
ag45
ag70
ag26
aS'if'
p897
ag6
aS'variable_1'
p898
aS'->'
p899
aS'variable_26'
p900
aS'->'
p901
aS'variable_27'
p902
ag335
aS'variable_14'
p903
ag111
ag82
ag18
aS'variable_18'
p904
ag22
aS'variable_17'
p905
ag24
aS'variable_1'
p906
aS'->'
p907
aS'variable_22'
p908
aS'->'
p909
aS'variable_25'
p910
ag69
ag45
ag70
ag26
aS'for'
p911
ag6
aS'variable_13'
p912
ag22
aS'variable_19'
p913
aS'->'
p914
aS'variable_24'
p915
ag26
aS'variable_13'
p916
ag53
aS'variable_19'
p917
aS'->'
p918
aS'variable_28'
p919
ag26
aS'variable_13'
p920
aS'+='
p921
ag59
ag18
aS'if'
p922
ag6
ag6
aS'variable_2'
p923
ag102
aS'0x01'
p924
ag18
aS'&&'
p925
ag105
ag6
aS'variable_7'
p926
aS'>>'
p927
ag22
ag108
ag18
ag18
aS'if'
p928
ag6
ag6
aS'variable_4'
p929
ag24
ag59
ag18
ag111
aS'variable_5'
p930
ag18
aS'variable_6'
p931
ag22
aS'func_1'
p932
ag6
aS'variable_4'
p933
ag18
ag26
aS'variable_4'
p934
aS'+='
p935
ag59
ag26
aS'variable_7'
p936
ag22
aS'0x80000000'
p937
ag26
aS'if'
p938
ag6
ag105
ag6
aS'variable_2'
p939
ag102
aS'0x01'
p940
ag18
aS'||'
p941
ag6
aS'variable_6'
p942
ag102
aS'variable_7'
p943
ag18
ag18
aS'if'
p944
ag6
ag105
ag6
aS'variable_2'
p945
ag102
aS'0x02'
p946
ag18
aS'&&'
p947
ag105
ag6
aS'variable_7'
p948
aS'>>'
p949
ag22
ag108
ag18
ag18
aS'if'
p950
ag6
ag6
aS'variable_4'
p951
ag24
ag59
ag18
ag111
aS'variable_5'
p952
ag18
aS'variable_6'
p953
ag22
aS'func_2'
p954
ag6
aS'variable_4'
p955
ag18
ag26
aS'variable_4'
p956
aS'+='
p957
ag59
ag26
aS'variable_7'
p958
ag22
aS'0x80000000'
p959
ag26
aS'if'
p960
ag6
ag6
aS'variable_2'
p961
ag102
aS'0x02'
p962
ag18
aS'||'
p963
ag6
ag146
aS'variable_6'
p964
ag102
aS'variable_7'
p965
ag18
ag18
aS'variable_8'
p966
ag8
aS'variable_29'
p967
ag26
aS'if'
p968
ag6
aS'variable_4'
p969
ag111
ag22
aS'variable_5'
p970
ag18
aS'variable_29'
p971
ag22
aS'variable_19'
p972
aS'->'
p973
aS'variable_30'
p974
ag69
ag8
aS'variable_4'
p975
aS'++'
p976
ag70
ag26
aS'variable_18'
p977
ag69
ag45
ag70
ag22
aS'variable_18'
p978
ag69
ag108
ag70
ag22
aS'variable_17'
p979
ag69
ag45
ag70
ag22
aS'variable_17'
p980
ag69
ag108
ag70
ag22
aS'variable_29'
p981
ag69
ag165
ag70
ag26
aS'variable_18'
p982
ag69
ag167
ag70
ag22
aS'variable_18'
p983
ag69
ag82
ag70
ag22
aS'variable_17'
p984
ag69
ag167
ag70
ag22
aS'variable_17'
p985
ag69
ag82
ag70
ag22
aS'variable_29'
p986
ag69
ag172
ag70
ag26
aS'variable_16'
p987
ag69
ag45
ag70
ag22
aS'variable_16'
p988
ag69
ag108
ag70
ag22
aS'variable_15'
p989
ag69
ag45
ag70
ag22
aS'variable_15'
p990
ag69
ag108
ag70
ag22
aS'variable_29'
p991
ag69
ag45
ag70
ag26
aS'variable_16'
p992
ag69
ag167
ag70
ag22
aS'variable_16'
p993
ag69
ag82
ag70
ag22
aS'variable_15'
p994
ag69
ag167
ag70
ag22
aS'variable_15'
p995
ag69
ag82
ag70
ag22
aS'variable_29'
p996
ag69
ag82
ag70
ag26
aS'memcpy'
p997
ag6
aS'variable_18'
p998
ag24
ag45
ag10
aS'variable_29'
p999
ag10
ag82
ag18
ag26
aS'memcpy'
p1000
ag6
aS'variable_18'
p1001
ag24
ag82
ag10
aS'variable_29'
p1002
ag10
ag82
ag18
ag26
aS'memcpy'
p1003
ag6
aS'variable_18'
p1004
ag24
ag165
ag10
aS'variable_29'
p1005
ag10
ag82
ag18
ag26
aS'memcpy'
p1006
ag6
aS'variable_18'
p1007
ag24
ag172
ag10
aS'variable_29'
p1008
ag10
ag82
ag18
ag26
aS'if'
p1009
ag6
aS'variable_6'
p1010
ag102
aS'variable_7'
p1011
ag18
aS'if'
p1012
ag6
ag6
aS'variable_4'
p1013
ag24
ag59
ag18
ag111
aS'variable_5'
p1014
ag18
aS'variable_9'
p1015
ag22
aS'variable_19'
p1016
aS'->'
p1017
aS'variable_31'
p1018
ag69
ag8
aS'variable_4'
p1019
aS'++'
p1020
ag70
ag26
aS'variable_10'
p1021
ag22
aS'variable_19'
p1022
aS'->'
p1023
aS'variable_31'
p1024
ag69
ag8
aS'variable_4'
p1025
aS'++'
p1026
ag70
ag26
aS'variable_11'
p1027
ag22
aS'variable_19'
p1028
aS'->'
p1029
aS'variable_31'
p1030
ag69
ag8
aS'variable_4'
p1031
aS'++'
p1032
ag70
ag26
aS'variable_12'
p1033
ag22
aS'variable_19'
p1034
aS'->'
p1035
aS'variable_31'
p1036
ag69
ag8
aS'variable_4'
p1037
aS'++'
p1038
ag70
ag26
aS'if'
p1039
ag6
aS'variable_1'
p1040
aS'->'
p1041
aS'variable_23'
p1042
ag18
aS'variable_29'
p1043
ag22
aS'variable_18'
p1044
ag26
ag8
aS'variable_29'
p1045
aS'++'
p1046
ag22
aS'variable_11'
p1047
ag69
ag165
ag70
ag26
ag8
aS'variable_29'
p1048
aS'++'
p1049
ag22
aS'variable_11'
p1050
ag69
ag172
ag70
ag26
ag8
aS'variable_29'
p1051
aS'++'
p1052
ag22
aS'variable_12'
p1053
ag69
ag165
ag70
ag26
ag8
aS'variable_29'
p1054
ag22
aS'variable_12'
p1055
ag69
ag172
ag70
ag26
ag8
aS'variable_29'
p1056
aS'++'
p1057
ag22
aS'variable_11'
p1058
ag69
ag45
ag70
ag26
ag8
aS'variable_29'
p1059
aS'++'
p1060
ag22
aS'variable_11'
p1061
ag69
ag82
ag70
ag26
ag8
aS'variable_29'
p1062
aS'++'
p1063
ag22
aS'variable_12'
p1064
ag69
ag45
ag70
ag26
ag8
aS'variable_29'
p1065
ag22
aS'variable_12'
p1066
ag69
ag82
ag70
ag26
ag8
aS'variable_29'
p1067
aS'++'
p1068
ag22
aS'variable_9'
p1069
ag69
ag165
ag70
ag26
ag8
aS'variable_29'
p1070
aS'++'
p1071
ag22
aS'variable_9'
p1072
ag69
ag172
ag70
ag26
ag8
aS'variable_29'
p1073
aS'++'
p1074
ag22
aS'variable_10'
p1075
ag69
ag165
ag70
ag26
ag8
aS'variable_29'
p1076
ag22
aS'variable_10'
p1077
ag69
ag172
ag70
ag26
ag8
aS'variable_29'
p1078
aS'++'
p1079
ag22
aS'variable_9'
p1080
ag69
ag45
ag70
ag26
ag8
aS'variable_29'
p1081
aS'++'
p1082
ag22
aS'variable_9'
p1083
ag69
ag82
ag70
ag26
ag8
aS'variable_29'
p1084
aS'++'
p1085
ag22
aS'variable_10'
p1086
ag69
ag45
ag70
ag26
ag8
aS'variable_29'
p1087
ag22
aS'variable_10'
p1088
ag69
ag82
ag70
ag26
aS'memcpy'
p1089
ag6
aS'variable_18'
p1090
ag24
ag45
ag10
aS'variable_11'
p1091
ag24
ag165
ag10
ag165
ag18
ag26
aS'memcpy'
p1092
ag6
aS'variable_18'
p1093
ag24
ag165
ag10
aS'variable_12'
p1094
ag24
ag165
ag10
ag165
ag18
ag26
aS'if'
p1095
ag6
aS'variable_1'
p1096
aS'->'
p1097
aS'variable_23'
p1098
ag18
aS'variable_18'
p1099
aS'+='
p1100
ag59
ag26
aS'variable_18'
p1101
aS'+='
p1102
aS'12'
p1103
ag26
aa(lp1104
S'static'
p1105
aS'int'
p1106
aS'func_0'
p1107
ag6
aS'variable_0'
p1108
ag8
aS'variable_1'
p1109
ag10
aS'int'
p1110
aS'variable_2'
p1111
ag10
aS'int'
p1112
aS'variable_3'
p1113
ag10
aS'const'
p1114
aS'uint8_t'
p1115
ag8
aS'variable_4'
p1116
ag18
aS'const'
p1117
aS'uint8_t'
p1118
ag8
aS'variable_5'
p1119
ag22
ag6
aS'variable_4'
p1120
ag24
aS'variable_3'
p1121
ag18
ag26
aS'uint32_t'
p1122
aS'variable_6'
p1123
ag10
aS'variable_7'
p1124
ag26
aS'variable_8'
p1125
ag8
aS'variable_9'
p1126
ag10
ag8
aS'variable_10'
p1127
ag10
ag8
aS'variable_11'
p1128
ag10
ag8
aS'variable_12'
p1129
ag26
aS'unsigned'
p1130
aS'int'
p1131
aS'variable_13'
p1132
ag10
aS'variable_14'
p1133
ag26
aS'char'
p1134
ag8
aS'variable_15'
p1135
ag10
ag8
aS'variable_16'
p1136
ag10
ag8
aS'variable_17'
p1137
ag10
ag8
aS'variable_18'
p1138
ag26
aS'variable_6'
p1139
ag22
ag45
ag26
aS'variable_7'
p1140
ag22
ag45
ag26
aS'for'
p1141
ag6
aS'variable_14'
p1142
ag22
aS'variable_19'
p1143
aS'->'
p1144
aS'variable_20'
p1145
ag26
aS'variable_14'
p1146
ag53
aS'variable_19'
p1147
aS'->'
p1148
aS'variable_21'
p1149
ag26
aS'variable_14'
p1150
aS'+='
p1151
ag59
ag18
aS'variable_15'
p1152
ag22
aS'variable_16'
p1153
ag22
aS'variable_17'
p1154
ag22
aS'variable_18'
p1155
ag22
aS'variable_1'
p1156
aS'->'
p1157
aS'variable_22'
p1158
aS'->'
p1159
aS'variable_4'
p1160
ag69
ag45
ag70
ag24
ag6
aS'variable_1'
p1161
aS'->'
p1162
aS'variable_23'
p1163
ag74
aS'variable_19'
p1164
aS'->'
p1165
aS'variable_24'
p1166
ag78
aS'variable_19'
p1167
aS'->'
p1168
aS'variable_24'
p1169
ag8
ag82
ag18
ag24
ag6
aS'variable_14'
p1170
ag8
aS'variable_1'
p1171
aS'->'
p1172
aS'variable_22'
p1173
aS'->'
p1174
aS'variable_25'
p1175
ag69
ag45
ag70
ag18
ag26
aS'for'
p1176
ag6
aS'variable_13'
p1177
ag22
aS'variable_19'
p1178
aS'->'
p1179
aS'variable_24'
p1180
ag26
aS'variable_13'
p1181
ag53
aS'variable_19'
p1182
aS'->'
p1183
aS'variable_26'
p1184
ag26
aS'variable_13'
p1185
aS'+='
p1186
ag59
ag18
aS'if'
p1187
ag6
ag6
aS'variable_2'
p1188
ag102
aS'0x01'
p1189
ag18
aS'&&'
p1190
ag105
ag6
aS'variable_7'
p1191
aS'>>'
p1192
ag22
ag108
ag18
ag18
aS'if'
p1193
ag6
ag6
aS'variable_4'
p1194
ag24
ag59
ag18
ag111
aS'variable_5'
p1195
ag18
aS'variable_6'
p1196
ag22
aS'func_1'
p1197
ag6
aS'variable_4'
p1198
ag18
ag26
aS'variable_4'
p1199
aS'+='
p1200
ag59
ag26
aS'variable_7'
p1201
ag22
aS'0x80000000'
p1202
ag26
aS'if'
p1203
ag6
ag105
ag6
aS'variable_2'
p1204
ag102
aS'0x01'
p1205
ag18
aS'||'
p1206
ag6
aS'variable_6'
p1207
ag102
aS'variable_7'
p1208
ag18
ag18
aS'if'
p1209
ag6
ag105
ag6
aS'variable_2'
p1210
ag102
aS'0x02'
p1211
ag18
aS'&&'
p1212
ag105
ag6
aS'variable_7'
p1213
aS'>>'
p1214
ag22
ag108
ag18
ag18
aS'if'
p1215
ag6
ag6
aS'variable_4'
p1216
ag24
ag59
ag18
ag111
aS'variable_5'
p1217
ag18
aS'variable_6'
p1218
ag22
aS'func_2'
p1219
ag6
aS'variable_4'
p1220
ag18
ag26
aS'variable_4'
p1221
aS'+='
p1222
ag59
ag26
aS'variable_7'
p1223
ag22
aS'0x80000000'
p1224
ag26
aS'if'
p1225
ag6
ag6
aS'variable_2'
p1226
ag102
aS'0x02'
p1227
ag18
aS'||'
p1228
ag6
ag146
aS'variable_6'
p1229
ag102
aS'variable_7'
p1230
ag18
ag18
aS'variable_8'
p1231
ag8
aS'variable_27'
p1232
ag26
aS'if'
p1233
ag6
aS'variable_4'
p1234
ag111
ag22
aS'variable_5'
p1235
ag18
aS'variable_27'
p1236
ag22
aS'variable_19'
p1237
aS'->'
p1238
aS'variable_28'
p1239
ag69
ag8
aS'variable_4'
p1240
aS'++'
p1241
ag70
ag26
aS'if'
p1242
ag6
aS'variable_1'
p1243
aS'->'
p1244
aS'variable_23'
p1245
ag18
aS'variable_27'
p1246
aS'+='
p1247
ag165
ag26
aS'variable_27'
p1248
aS'+='
p1249
ag82
ag26
aS'variable_27'
p1250
aS'-='
p1251
ag172
ag26
aS'memcpy'
p1252
ag6
aS'variable_15'
p1253
ag24
ag45
ag10
aS'variable_27'
p1254
ag10
ag82
ag18
ag26
aS'memcpy'
p1255
ag6
aS'variable_15'
p1256
ag24
ag82
ag10
aS'variable_27'
p1257
ag10
ag82
ag18
ag26
aS'variable_27'
p1258
aS'+='
p1259
ag82
ag26
aS'memcpy'
p1260
ag6
aS'variable_15'
p1261
ag24
ag165
ag10
aS'variable_27'
p1262
ag10
ag82
ag18
ag26
aS'memcpy'
p1263
ag6
aS'variable_15'
p1264
ag24
ag172
ag10
aS'variable_27'
p1265
ag10
ag82
ag18
ag26
aS'if'
p1266
ag6
aS'variable_6'
p1267
ag102
aS'variable_7'
p1268
ag18
aS'if'
p1269
ag6
ag6
aS'variable_4'
p1270
ag24
ag59
ag18
ag111
aS'variable_5'
p1271
ag18
aS'variable_9'
p1272
ag22
aS'variable_19'
p1273
aS'->'
p1274
aS'variable_29'
p1275
ag69
ag8
aS'variable_4'
p1276
aS'++'
p1277
ag70
ag26
aS'variable_10'
p1278
ag22
aS'variable_19'
p1279
aS'->'
p1280
aS'variable_29'
p1281
ag69
ag8
aS'variable_4'
p1282
aS'++'
p1283
ag70
ag26
aS'variable_11'
p1284
ag22
aS'variable_19'
p1285
aS'->'
p1286
aS'variable_29'
p1287
ag69
ag8
aS'variable_4'
p1288
aS'++'
p1289
ag70
ag26
aS'variable_12'
p1290
ag22
aS'variable_19'
p1291
aS'->'
p1292
aS'variable_29'
p1293
ag69
ag8
aS'variable_4'
p1294
aS'++'
p1295
ag70
ag26
aS'if'
p1296
ag6
aS'variable_1'
p1297
aS'->'
p1298
aS'variable_23'
p1299
ag18
aS'memcpy'
p1300
ag6
aS'variable_15'
p1301
ag24
ag45
ag10
aS'variable_9'
p1302
ag24
ag45
ag10
ag165
ag18
ag26
aS'memcpy'
p1303
ag6
aS'variable_15'
p1304
ag24
ag165
ag10
aS'variable_10'
p1305
ag24
ag45
ag10
ag165
ag18
ag26
aS'if'
p1306
ag6
aS'variable_1'
p1307
aS'->'
p1308
aS'variable_23'
p1309
ag18
aS'variable_15'
p1310
aS'+='
p1311
ag59
ag26
aS'variable_15'
p1312
aS'+='
p1313
aS'12'
p1314
ag26
aa(lp1315
S'static'
p1316
aS'int'
p1317
aS'func_0'
p1318
ag6
aS'variable_0'
p1319
ag8
aS'variable_1'
p1320
ag10
aS'int'
p1321
aS'variable_2'
p1322
ag10
aS'int'
p1323
aS'variable_3'
p1324
ag10
aS'const'
p1325
aS'uint8_t'
p1326
ag8
aS'variable_4'
p1327
ag18
aS'const'
p1328
aS'uint8_t'
p1329
ag8
aS'variable_5'
p1330
ag22
ag6
aS'variable_4'
p1331
ag24
aS'variable_3'
p1332
ag18
ag26
aS'uint32_t'
p1333
aS'variable_6'
p1334
ag10
aS'variable_7'
p1335
ag26
aS'variable_8'
p1336
ag8
aS'variable_9'
p1337
ag10
ag8
aS'variable_10'
p1338
ag10
ag8
aS'variable_11'
p1339
ag10
ag8
aS'variable_12'
p1340
ag26
aS'unsigned'
p1341
aS'int'
p1342
aS'variable_13'
p1343
ag10
aS'variable_14'
p1344
ag26
aS'char'
p1345
ag8
aS'variable_15'
p1346
ag10
ag8
aS'variable_16'
p1347
ag10
ag8
aS'variable_17'
p1348
ag10
ag8
aS'variable_18'
p1349
ag26
aS'variable_6'
p1350
ag22
ag45
ag26
aS'variable_7'
p1351
ag22
ag45
ag26
aS'for'
p1352
ag6
aS'variable_14'
p1353
ag22
aS'variable_19'
p1354
aS'->'
p1355
aS'variable_20'
p1356
ag26
aS'variable_14'
p1357
ag53
aS'variable_19'
p1358
aS'->'
p1359
aS'variable_21'
p1360
ag26
aS'variable_14'
p1361
aS'+='
p1362
ag59
ag18
aS'variable_15'
p1363
ag22
aS'variable_16'
p1364
ag22
aS'variable_17'
p1365
ag22
aS'variable_18'
p1366
ag22
aS'variable_1'
p1367
aS'->'
p1368
aS'variable_22'
p1369
aS'->'
p1370
aS'variable_4'
p1371
ag69
ag45
ag70
ag24
ag6
aS'variable_1'
p1372
aS'->'
p1373
aS'variable_23'
p1374
ag74
aS'variable_19'
p1375
aS'->'
p1376
aS'variable_24'
p1377
ag78
aS'variable_19'
p1378
aS'->'
p1379
aS'variable_24'
p1380
ag8
ag82
ag18
ag24
ag6
aS'variable_14'
p1381
ag8
aS'variable_1'
p1382
aS'->'
p1383
aS'variable_22'
p1384
aS'->'
p1385
aS'variable_25'
p1386
ag69
ag45
ag70
ag18
ag26
aS'if'
p1387
ag6
aS'variable_1'
p1388
aS'->'
p1389
aS'variable_26'
p1390
aS'->'
p1391
aS'variable_27'
p1392
ag335
aS'variable_14'
p1393
ag111
ag108
ag18
aS'variable_16'
p1394
ag22
aS'variable_15'
p1395
ag24
aS'variable_1'
p1396
aS'->'
p1397
aS'variable_22'
p1398
aS'->'
p1399
aS'variable_25'
p1400
ag69
ag45
ag70
ag26
aS'for'
p1401
ag6
aS'variable_13'
p1402
ag22
aS'variable_19'
p1403
aS'->'
p1404
aS'variable_24'
p1405
ag26
aS'variable_13'
p1406
ag53
aS'variable_19'
p1407
aS'->'
p1408
aS'variable_28'
p1409
ag26
aS'variable_13'
p1410
aS'+='
p1411
ag59
ag18
aS'if'
p1412
ag6
ag6
aS'variable_2'
p1413
ag102
aS'0x01'
p1414
ag18
aS'&&'
p1415
ag105
ag6
aS'variable_7'
p1416
aS'>>'
p1417
ag22
ag108
ag18
ag18
aS'if'
p1418
ag6
ag6
aS'variable_4'
p1419
ag24
ag59
ag18
ag111
aS'variable_5'
p1420
ag18
aS'variable_6'
p1421
ag22
aS'func_1'
p1422
ag6
aS'variable_4'
p1423
ag18
ag26
aS'variable_4'
p1424
aS'+='
p1425
ag59
ag26
aS'variable_7'
p1426
ag22
aS'0x80000000'
p1427
ag26
aS'if'
p1428
ag6
ag105
ag6
aS'variable_2'
p1429
ag102
aS'0x01'
p1430
ag18
aS'||'
p1431
ag6
aS'variable_6'
p1432
ag102
aS'variable_7'
p1433
ag18
ag18
aS'if'
p1434
ag6
ag105
ag6
aS'variable_2'
p1435
ag102
aS'0x02'
p1436
ag18
aS'&&'
p1437
ag105
ag6
aS'variable_7'
p1438
aS'>>'
p1439
ag22
ag108
ag18
ag18
aS'if'
p1440
ag6
ag6
aS'variable_4'
p1441
ag24
ag59
ag18
ag111
aS'variable_5'
p1442
ag18
aS'variable_6'
p1443
ag22
aS'func_2'
p1444
ag6
aS'variable_4'
p1445
ag18
ag26
aS'variable_4'
p1446
aS'+='
p1447
ag59
ag26
aS'variable_7'
p1448
ag22
aS'0x80000000'
p1449
ag26
aS'if'
p1450
ag6
ag6
aS'variable_2'
p1451
ag102
aS'0x02'
p1452
ag18
aS'||'
p1453
ag6
ag146
aS'variable_6'
p1454
ag102
aS'variable_7'
p1455
ag18
ag18
aS'variable_8'
p1456
ag8
aS'variable_29'
p1457
ag26
aS'if'
p1458
ag6
aS'variable_4'
p1459
ag111
ag22
aS'variable_5'
p1460
ag18
aS'variable_29'
p1461
ag22
aS'variable_19'
p1462
aS'->'
p1463
aS'variable_30'
p1464
ag69
ag8
aS'variable_4'
p1465
aS'++'
p1466
ag70
ag26
aS'if'
p1467
ag6
aS'variable_1'
p1468
aS'->'
p1469
aS'variable_23'
p1470
ag18
aS'variable_29'
p1471
aS'+='
p1472
ag165
ag26
aS'variable_29'
p1473
aS'+='
p1474
ag82
ag26
aS'variable_29'
p1475
aS'-='
p1476
ag172
ag26
aS'memcpy'
p1477
ag6
aS'variable_16'
p1478
ag24
ag45
ag10
aS'variable_29'
p1479
ag10
ag82
ag18
ag26
aS'memcpy'
p1480
ag6
aS'variable_16'
p1481
ag24
ag82
ag10
aS'variable_29'
p1482
ag10
ag82
ag18
ag26
aS'variable_29'
p1483
aS'+='
p1484
ag82
ag26
aS'memcpy'
p1485
ag6
aS'variable_16'
p1486
ag24
ag165
ag10
aS'variable_29'
p1487
ag10
ag82
ag18
ag26
aS'memcpy'
p1488
ag6
aS'variable_16'
p1489
ag24
ag172
ag10
aS'variable_29'
p1490
ag10
ag82
ag18
ag26
aS'if'
p1491
ag6
aS'variable_6'
p1492
ag102
aS'variable_7'
p1493
ag18
aS'if'
p1494
ag6
ag6
aS'variable_4'
p1495
ag24
ag59
ag18
ag111
aS'variable_5'
p1496
ag18
aS'variable_9'
p1497
ag22
aS'variable_19'
p1498
aS'->'
p1499
aS'variable_31'
p1500
ag69
ag8
aS'variable_4'
p1501
aS'++'
p1502
ag70
ag26
aS'variable_10'
p1503
ag22
aS'variable_19'
p1504
aS'->'
p1505
aS'variable_31'
p1506
ag69
ag8
aS'variable_4'
p1507
aS'++'
p1508
ag70
ag26
aS'variable_11'
p1509
ag22
aS'variable_19'
p1510
aS'->'
p1511
aS'variable_31'
p1512
ag69
ag8
aS'variable_4'
p1513
aS'++'
p1514
ag70
ag26
aS'variable_12'
p1515
ag22
aS'variable_19'
p1516
aS'->'
p1517
aS'variable_31'
p1518
ag69
ag8
aS'variable_4'
p1519
aS'++'
p1520
ag70
ag26
aS'if'
p1521
ag6
aS'variable_1'
p1522
aS'->'
p1523
aS'variable_23'
p1524
ag18
aS'memcpy'
p1525
ag6
aS'variable_16'
p1526
ag24
ag45
ag10
aS'variable_9'
p1527
ag24
ag165
ag10
ag165
ag18
ag26
aS'memcpy'
p1528
ag6
aS'variable_16'
p1529
ag24
ag165
ag10
aS'variable_10'
p1530
ag24
ag165
ag10
ag165
ag18
ag26
aS'if'
p1531
ag6
aS'variable_1'
p1532
aS'->'
p1533
aS'variable_23'
p1534
ag18
aS'variable_16'
p1535
aS'+='
p1536
ag59
ag26
aS'variable_16'
p1537
aS'+='
p1538
aS'12'
p1539
ag26
aa(lp1540
S'static'
p1541
aS'int'
p1542
aS'func_0'
p1543
ag6
aS'variable_0'
p1544
ag8
aS'variable_1'
p1545
ag10
aS'int'
p1546
aS'variable_2'
p1547
ag10
aS'int'
p1548
aS'variable_3'
p1549
ag10
aS'const'
p1550
aS'uint8_t'
p1551
ag8
aS'variable_4'
p1552
ag18
aS'const'
p1553
aS'uint8_t'
p1554
ag8
aS'variable_5'
p1555
ag22
ag6
aS'variable_4'
p1556
ag24
aS'variable_3'
p1557
ag18
ag26
aS'uint32_t'
p1558
aS'variable_6'
p1559
ag10
aS'variable_7'
p1560
ag26
aS'variable_8'
p1561
ag8
aS'variable_9'
p1562
ag10
ag8
aS'variable_10'
p1563
ag10
ag8
aS'variable_11'
p1564
ag10
ag8
aS'variable_12'
p1565
ag26
aS'unsigned'
p1566
aS'int'
p1567
aS'variable_13'
p1568
ag10
aS'variable_14'
p1569
ag26
aS'char'
p1570
ag8
aS'variable_15'
p1571
ag10
ag8
aS'variable_16'
p1572
ag10
ag8
aS'variable_17'
p1573
ag10
ag8
aS'variable_18'
p1574
ag26
aS'variable_6'
p1575
ag22
ag45
ag26
aS'variable_7'
p1576
ag22
ag45
ag26
aS'for'
p1577
ag6
aS'variable_14'
p1578
ag22
aS'variable_19'
p1579
aS'->'
p1580
aS'variable_20'
p1581
ag26
aS'variable_14'
p1582
ag53
aS'variable_19'
p1583
aS'->'
p1584
aS'variable_21'
p1585
ag26
aS'variable_14'
p1586
aS'+='
p1587
ag59
ag18
aS'variable_15'
p1588
ag22
aS'variable_16'
p1589
ag22
aS'variable_17'
p1590
ag22
aS'variable_18'
p1591
ag22
aS'variable_1'
p1592
aS'->'
p1593
aS'variable_22'
p1594
aS'->'
p1595
aS'variable_4'
p1596
ag69
ag45
ag70
ag24
ag6
aS'variable_1'
p1597
aS'->'
p1598
aS'variable_23'
p1599
ag74
aS'variable_19'
p1600
aS'->'
p1601
aS'variable_24'
p1602
ag78
aS'variable_19'
p1603
aS'->'
p1604
aS'variable_24'
p1605
ag8
ag82
ag18
ag24
ag6
aS'variable_14'
p1606
ag8
aS'variable_1'
p1607
aS'->'
p1608
aS'variable_22'
p1609
aS'->'
p1610
aS'variable_25'
p1611
ag69
ag45
ag70
ag18
ag26
aS'for'
p1612
ag6
aS'variable_13'
p1613
ag22
aS'variable_19'
p1614
aS'->'
p1615
aS'variable_24'
p1616
ag26
aS'variable_13'
p1617
ag53
aS'variable_19'
p1618
aS'->'
p1619
aS'variable_26'
p1620
ag26
aS'variable_13'
p1621
aS'+='
p1622
ag59
ag18
aS'if'
p1623
ag6
ag6
aS'variable_2'
p1624
ag102
aS'0x01'
p1625
ag18
aS'&&'
p1626
ag105
ag6
aS'variable_7'
p1627
aS'>>'
p1628
ag22
ag108
ag18
ag18
aS'if'
p1629
ag6
ag6
aS'variable_4'
p1630
ag24
ag59
ag18
ag111
aS'variable_5'
p1631
ag18
aS'variable_6'
p1632
ag22
aS'func_1'
p1633
ag6
aS'variable_4'
p1634
ag18
ag26
aS'variable_4'
p1635
aS'+='
p1636
ag59
ag26
aS'variable_7'
p1637
ag22
aS'0x80000000'
p1638
ag26
aS'if'
p1639
ag6
ag105
ag6
aS'variable_2'
p1640
ag102
aS'0x01'
p1641
ag18
aS'||'
p1642
ag6
aS'variable_6'
p1643
ag102
aS'variable_7'
p1644
ag18
ag18
aS'if'
p1645
ag6
ag105
ag6
aS'variable_2'
p1646
ag102
aS'0x02'
p1647
ag18
aS'&&'
p1648
ag105
ag6
aS'variable_7'
p1649
aS'>>'
p1650
ag22
ag108
ag18
ag18
aS'if'
p1651
ag6
ag6
aS'variable_4'
p1652
ag24
ag59
ag18
ag111
aS'variable_5'
p1653
ag18
aS'variable_6'
p1654
ag22
aS'func_2'
p1655
ag6
aS'variable_4'
p1656
ag18
ag26
aS'variable_4'
p1657
aS'+='
p1658
ag59
ag26
aS'variable_7'
p1659
ag22
aS'0x80000000'
p1660
ag26
aS'if'
p1661
ag6
ag6
aS'variable_2'
p1662
ag102
aS'0x02'
p1663
ag18
aS'||'
p1664
ag6
ag146
aS'variable_6'
p1665
ag102
aS'variable_7'
p1666
ag18
ag18
aS'variable_8'
p1667
ag8
aS'variable_27'
p1668
ag26
aS'if'
p1669
ag6
aS'variable_4'
p1670
ag111
ag22
aS'variable_5'
p1671
ag18
aS'variable_27'
p1672
ag22
aS'variable_19'
p1673
aS'->'
p1674
aS'variable_28'
p1675
ag69
ag8
aS'variable_4'
p1676
aS'++'
p1677
ag70
ag26
aS'if'
p1678
ag6
aS'variable_1'
p1679
aS'->'
p1680
aS'variable_23'
p1681
ag18
aS'variable_27'
p1682
aS'+='
p1683
ag165
ag26
aS'variable_27'
p1684
aS'+='
p1685
ag82
ag26
aS'variable_27'
p1686
aS'-='
p1687
ag172
ag26
aS'memcpy'
p1688
ag6
aS'variable_15'
p1689
ag24
ag45
ag10
aS'variable_27'
p1690
ag10
ag82
ag18
ag26
aS'memcpy'
p1691
ag6
aS'variable_15'
p1692
ag24
ag82
ag10
aS'variable_27'
p1693
ag10
ag82
ag18
ag26
aS'memcpy'
p1694
ag6
aS'variable_15'
p1695
ag24
ag165
ag10
aS'variable_27'
p1696
ag10
ag82
ag18
ag26
aS'memcpy'
p1697
ag6
aS'variable_15'
p1698
ag24
ag172
ag10
aS'variable_27'
p1699
ag10
ag82
ag18
ag26
aS'if'
p1700
ag6
aS'variable_6'
p1701
ag102
aS'variable_7'
p1702
ag18
aS'if'
p1703
ag6
ag6
aS'variable_4'
p1704
ag24
ag59
ag18
ag111
aS'variable_5'
p1705
ag18
aS'variable_9'
p1706
ag22
aS'variable_19'
p1707
aS'->'
p1708
aS'variable_29'
p1709
ag69
ag8
aS'variable_4'
p1710
aS'++'
p1711
ag70
ag26
aS'variable_10'
p1712
ag22
aS'variable_19'
p1713
aS'->'
p1714
aS'variable_29'
p1715
ag69
ag8
aS'variable_4'
p1716
aS'++'
p1717
ag70
ag26
aS'variable_11'
p1718
ag22
aS'variable_19'
p1719
aS'->'
p1720
aS'variable_29'
p1721
ag69
ag8
aS'variable_4'
p1722
aS'++'
p1723
ag70
ag26
aS'variable_12'
p1724
ag22
aS'variable_19'
p1725
aS'->'
p1726
aS'variable_29'
p1727
ag69
ag8
aS'variable_4'
p1728
aS'++'
p1729
ag70
ag26
aS'if'
p1730
ag6
aS'variable_1'
p1731
aS'->'
p1732
aS'variable_23'
p1733
ag18
aS'memcpy'
p1734
ag6
aS'variable_15'
p1735
ag24
ag45
ag10
aS'variable_9'
p1736
ag24
ag45
ag10
ag165
ag18
ag26
aS'memcpy'
p1737
ag6
aS'variable_15'
p1738
ag24
ag165
ag10
aS'variable_10'
p1739
ag24
ag45
ag10
ag165
ag18
ag26
aS'if'
p1740
ag6
aS'variable_1'
p1741
aS'->'
p1742
aS'variable_23'
p1743
ag18
aS'variable_15'
p1744
aS'+='
p1745
ag59
ag26
aS'variable_15'
p1746
aS'+='
p1747
aS'12'
p1748
ag26
aa(lp1749
S'static'
p1750
aS'int'
p1751
aS'func_0'
p1752
ag6
aS'variable_0'
p1753
ag8
aS'variable_1'
p1754
ag10
aS'int'
p1755
aS'variable_2'
p1756
ag10
aS'int'
p1757
aS'variable_3'
p1758
ag10
aS'const'
p1759
aS'uint8_t'
p1760
ag8
aS'variable_4'
p1761
ag18
aS'const'
p1762
aS'uint8_t'
p1763
ag8
aS'variable_5'
p1764
ag22
ag6
aS'variable_4'
p1765
ag24
aS'variable_3'
p1766
ag18
ag26
aS'uint32_t'
p1767
aS'variable_6'
p1768
ag10
aS'variable_7'
p1769
ag26
aS'variable_8'
p1770
ag8
aS'variable_9'
p1771
ag10
ag8
aS'variable_10'
p1772
ag10
ag8
aS'variable_11'
p1773
ag10
ag8
aS'variable_12'
p1774
ag26
aS'unsigned'
p1775
aS'int'
p1776
aS'variable_13'
p1777
ag10
aS'variable_14'
p1778
ag26
aS'char'
p1779
ag8
aS'variable_15'
p1780
ag10
ag8
aS'variable_16'
p1781
ag10
ag8
aS'variable_17'
p1782
ag10
ag8
aS'variable_18'
p1783
ag26
aS'variable_6'
p1784
ag22
ag45
ag26
aS'variable_7'
p1785
ag22
ag45
ag26
aS'for'
p1786
ag6
aS'variable_14'
p1787
ag22
aS'variable_19'
p1788
aS'->'
p1789
aS'variable_20'
p1790
ag26
aS'variable_14'
p1791
ag53
aS'variable_19'
p1792
aS'->'
p1793
aS'variable_21'
p1794
ag26
aS'variable_14'
p1795
aS'+='
p1796
ag59
ag18
aS'variable_15'
p1797
ag22
aS'variable_16'
p1798
ag22
aS'variable_17'
p1799
ag22
aS'variable_18'
p1800
ag22
aS'variable_1'
p1801
aS'->'
p1802
aS'variable_22'
p1803
aS'->'
p1804
aS'variable_4'
p1805
ag69
ag45
ag70
ag24
ag6
aS'variable_1'
p1806
aS'->'
p1807
aS'variable_23'
p1808
ag74
aS'variable_19'
p1809
aS'->'
p1810
aS'variable_24'
p1811
ag78
aS'variable_19'
p1812
aS'->'
p1813
aS'variable_24'
p1814
ag8
ag82
ag18
ag24
ag6
aS'variable_14'
p1815
ag8
aS'variable_1'
p1816
aS'->'
p1817
aS'variable_22'
p1818
aS'->'
p1819
aS'variable_25'
p1820
ag69
ag45
ag70
ag18
ag26
aS'if'
p1821
ag6
aS'variable_1'
p1822
aS'->'
p1823
aS'variable_26'
p1824
aS'->'
p1825
aS'variable_27'
p1826
ag335
aS'variable_14'
p1827
ag111
ag108
ag18
aS'variable_16'
p1828
ag22
aS'variable_15'
p1829
ag24
aS'variable_1'
p1830
aS'->'
p1831
aS'variable_22'
p1832
aS'->'
p1833
aS'variable_25'
p1834
ag69
ag45
ag70
ag26
aS'for'
p1835
ag6
aS'variable_13'
p1836
ag22
aS'variable_19'
p1837
aS'->'
p1838
aS'variable_24'
p1839
ag26
aS'variable_13'
p1840
ag53
aS'variable_19'
p1841
aS'->'
p1842
aS'variable_28'
p1843
ag26
aS'variable_13'
p1844
aS'+='
p1845
ag59
ag18
aS'if'
p1846
ag6
ag6
aS'variable_2'
p1847
ag102
aS'0x01'
p1848
ag18
aS'&&'
p1849
ag105
ag6
aS'variable_7'
p1850
aS'>>'
p1851
ag22
ag108
ag18
ag18
aS'if'
p1852
ag6
ag6
aS'variable_4'
p1853
ag24
ag59
ag18
ag111
aS'variable_5'
p1854
ag18
aS'variable_6'
p1855
ag22
aS'func_1'
p1856
ag6
aS'variable_4'
p1857
ag18
ag26
aS'variable_4'
p1858
aS'+='
p1859
ag59
ag26
aS'variable_7'
p1860
ag22
aS'0x80000000'
p1861
ag26
aS'if'
p1862
ag6
ag105
ag6
aS'variable_2'
p1863
ag102
aS'0x01'
p1864
ag18
aS'||'
p1865
ag6
aS'variable_6'
p1866
ag102
aS'variable_7'
p1867
ag18
ag18
aS'if'
p1868
ag6
ag105
ag6
aS'variable_2'
p1869
ag102
aS'0x02'
p1870
ag18
aS'&&'
p1871
ag105
ag6
aS'variable_7'
p1872
aS'>>'
p1873
ag22
ag108
ag18
ag18
aS'if'
p1874
ag6
ag6
aS'variable_4'
p1875
ag24
ag59
ag18
ag111
aS'variable_5'
p1876
ag18
aS'variable_6'
p1877
ag22
aS'func_2'
p1878
ag6
aS'variable_4'
p1879
ag18
ag26
aS'variable_4'
p1880
aS'+='
p1881
ag59
ag26
aS'variable_7'
p1882
ag22
aS'0x80000000'
p1883
ag26
aS'if'
p1884
ag6
ag6
aS'variable_2'
p1885
ag102
aS'0x02'
p1886
ag18
aS'||'
p1887
ag6
ag146
aS'variable_6'
p1888
ag102
aS'variable_7'
p1889
ag18
ag18
aS'variable_8'
p1890
ag8
aS'variable_29'
p1891
ag26
aS'if'
p1892
ag6
aS'variable_4'
p1893
ag111
ag22
aS'variable_5'
p1894
ag18
aS'variable_29'
p1895
ag22
aS'variable_19'
p1896
aS'->'
p1897
aS'variable_30'
p1898
ag69
ag8
aS'variable_4'
p1899
aS'++'
p1900
ag70
ag26
aS'if'
p1901
ag6
aS'variable_1'
p1902
aS'->'
p1903
aS'variable_23'
p1904
ag18
aS'variable_29'
p1905
aS'+='
p1906
ag165
ag26
aS'variable_29'
p1907
aS'+='
p1908
ag82
ag26
aS'variable_29'
p1909
aS'-='
p1910
ag172
ag26
aS'memcpy'
p1911
ag6
aS'variable_16'
p1912
ag24
ag45
ag10
aS'variable_29'
p1913
ag10
ag82
ag18
ag26
aS'memcpy'
p1914
ag6
aS'variable_16'
p1915
ag24
ag82
ag10
aS'variable_29'
p1916
ag10
ag82
ag18
ag26
aS'memcpy'
p1917
ag6
aS'variable_16'
p1918
ag24
ag165
ag10
aS'variable_29'
p1919
ag10
ag82
ag18
ag26
aS'memcpy'
p1920
ag6
aS'variable_16'
p1921
ag24
ag172
ag10
aS'variable_29'
p1922
ag10
ag82
ag18
ag26
aS'if'
p1923
ag6
aS'variable_6'
p1924
ag102
aS'variable_7'
p1925
ag18
aS'if'
p1926
ag6
ag6
aS'variable_4'
p1927
ag24
ag59
ag18
ag111
aS'variable_5'
p1928
ag18
aS'variable_9'
p1929
ag22
aS'variable_19'
p1930
aS'->'
p1931
aS'variable_31'
p1932
ag69
ag8
aS'variable_4'
p1933
aS'++'
p1934
ag70
ag26
aS'variable_10'
p1935
ag22
aS'variable_19'
p1936
aS'->'
p1937
aS'variable_31'
p1938
ag69
ag8
aS'variable_4'
p1939
aS'++'
p1940
ag70
ag26
aS'variable_11'
p1941
ag22
aS'variable_19'
p1942
aS'->'
p1943
aS'variable_31'
p1944
ag69
ag8
aS'variable_4'
p1945
aS'++'
p1946
ag70
ag26
aS'variable_12'
p1947
ag22
aS'variable_19'
p1948
aS'->'
p1949
aS'variable_31'
p1950
ag69
ag8
aS'variable_4'
p1951
aS'++'
p1952
ag70
ag26
aS'if'
p1953
ag6
aS'variable_1'
p1954
aS'->'
p1955
aS'variable_23'
p1956
ag18
aS'memcpy'
p1957
ag6
aS'variable_16'
p1958
ag24
ag45
ag10
aS'variable_9'
p1959
ag24
ag165
ag10
ag165
ag18
ag26
aS'memcpy'
p1960
ag6
aS'variable_16'
p1961
ag24
ag165
ag10
aS'variable_10'
p1962
ag24
ag165
ag10
ag165
ag18
ag26
aS'if'
p1963
ag6
aS'variable_1'
p1964
aS'->'
p1965
aS'variable_23'
p1966
ag18
aS'variable_16'
p1967
aS'+='
p1968
ag59
ag26
aS'variable_16'
p1969
aS'+='
p1970
aS'12'
p1971
ag26
aa(lp1972
S'static'
p1973
aS'int'
p1974
aS'func_0'
p1975
ag6
aS'variable_0'
p1976
ag8
aS'variable_1'
p1977
ag10
aS'int'
p1978
aS'variable_2'
p1979
ag10
aS'int'
p1980
aS'variable_3'
p1981
ag10
aS'const'
p1982
aS'uint8_t'
p1983
ag8
aS'variable_4'
p1984
ag18
aS'const'
p1985
aS'uint8_t'
p1986
ag8
aS'variable_5'
p1987
ag22
ag6
aS'variable_4'
p1988
ag24
aS'variable_3'
p1989
ag18
ag26
aS'uint32_t'
p1990
aS'variable_6'
p1991
ag10
aS'variable_7'
p1992
ag26
aS'variable_8'
p1993
ag8
aS'variable_9'
p1994
ag10
ag8
aS'variable_10'
p1995
ag10
ag8
aS'variable_11'
p1996
ag10
ag8
aS'variable_12'
p1997
ag26
aS'unsigned'
p1998
aS'int'
p1999
aS'variable_13'
p2000
ag10
aS'variable_14'
p2001
ag26
aS'char'
p2002
ag8
aS'variable_15'
p2003
ag10
ag8
aS'variable_16'
p2004
ag10
ag8
aS'variable_17'
p2005
ag10
ag8
aS'variable_18'
p2006
ag26
aS'variable_6'
p2007
ag22
ag45
ag26
aS'variable_7'
p2008
ag22
ag45
ag26
aS'for'
p2009
ag6
aS'variable_14'
p2010
ag22
aS'variable_19'
p2011
aS'->'
p2012
aS'variable_20'
p2013
ag26
aS'variable_14'
p2014
ag53
aS'variable_19'
p2015
aS'->'
p2016
aS'variable_21'
p2017
ag26
aS'variable_14'
p2018
aS'+='
p2019
ag59
ag18
aS'variable_15'
p2020
ag22
aS'variable_16'
p2021
ag22
aS'variable_17'
p2022
ag22
aS'variable_18'
p2023
ag22
aS'variable_1'
p2024
aS'->'
p2025
aS'variable_22'
p2026
aS'->'
p2027
aS'variable_4'
p2028
ag69
ag45
ag70
ag24
ag6
aS'variable_1'
p2029
aS'->'
p2030
aS'variable_23'
p2031
ag74
aS'variable_19'
p2032
aS'->'
p2033
aS'variable_24'
p2034
ag78
aS'variable_19'
p2035
aS'->'
p2036
aS'variable_24'
p2037
ag8
ag82
ag18
ag24
ag6
aS'variable_14'
p2038
ag8
aS'variable_1'
p2039
aS'->'
p2040
aS'variable_22'
p2041
aS'->'
p2042
aS'variable_25'
p2043
ag69
ag45
ag70
ag18
ag26
aS'if'
p2044
ag6
aS'variable_1'
p2045
aS'->'
p2046
aS'variable_26'
p2047
aS'->'
p2048
aS'variable_27'
p2049
ag335
aS'variable_14'
p2050
ag111
ag108
ag18
aS'variable_16'
p2051
ag22
aS'variable_15'
p2052
ag24
aS'variable_1'
p2053
aS'->'
p2054
aS'variable_22'
p2055
aS'->'
p2056
aS'variable_25'
p2057
ag69
ag45
ag70
ag26
aS'if'
p2058
ag6
aS'variable_1'
p2059
aS'->'
p2060
aS'variable_26'
p2061
aS'->'
p2062
aS'variable_27'
p2063
ag335
aS'variable_14'
p2064
ag111
ag167
ag18
aS'variable_17'
p2065
ag22
aS'variable_16'
p2066
ag24
aS'variable_1'
p2067
aS'->'
p2068
aS'variable_22'
p2069
aS'->'
p2070
aS'variable_25'
p2071
ag69
ag45
ag70
ag26
aS'for'
p2072
ag6
aS'variable_13'
p2073
ag22
aS'variable_19'
p2074
aS'->'
p2075
aS'variable_24'
p2076
ag26
aS'variable_13'
p2077
ag53
aS'variable_19'
p2078
aS'->'
p2079
aS'variable_28'
p2080
ag26
aS'variable_13'
p2081
aS'+='
p2082
ag59
ag18
aS'if'
p2083
ag6
ag6
aS'variable_2'
p2084
ag102
aS'0x01'
p2085
ag18
aS'&&'
p2086
ag105
ag6
aS'variable_7'
p2087
aS'>>'
p2088
ag22
ag108
ag18
ag18
aS'if'
p2089
ag6
ag6
aS'variable_4'
p2090
ag24
ag59
ag18
ag111
aS'variable_5'
p2091
ag18
aS'variable_6'
p2092
ag22
aS'func_1'
p2093
ag6
aS'variable_4'
p2094
ag18
ag26
aS'variable_4'
p2095
aS'+='
p2096
ag59
ag26
aS'variable_7'
p2097
ag22
aS'0x80000000'
p2098
ag26
aS'if'
p2099
ag6
ag105
ag6
aS'variable_2'
p2100
ag102
aS'0x01'
p2101
ag18
aS'||'
p2102
ag6
aS'variable_6'
p2103
ag102
aS'variable_7'
p2104
ag18
ag18
aS'if'
p2105
ag6
ag105
ag6
aS'variable_2'
p2106
ag102
aS'0x02'
p2107
ag18
aS'&&'
p2108
ag105
ag6
aS'variable_7'
p2109
aS'>>'
p2110
ag22
ag108
ag18
ag18
aS'if'
p2111
ag6
ag6
aS'variable_4'
p2112
ag24
ag59
ag18
ag111
aS'variable_5'
p2113
ag18
aS'variable_6'
p2114
ag22
aS'func_2'
p2115
ag6
aS'variable_4'
p2116
ag18
ag26
aS'variable_4'
p2117
aS'+='
p2118
ag59
ag26
aS'variable_7'
p2119
ag22
aS'0x80000000'
p2120
ag26
aS'if'
p2121
ag6
ag6
aS'variable_2'
p2122
ag102
aS'0x02'
p2123
ag18
aS'||'
p2124
ag6
ag146
aS'variable_6'
p2125
ag102
aS'variable_7'
p2126
ag18
ag18
aS'variable_8'
p2127
ag8
aS'variable_29'
p2128
ag26
aS'if'
p2129
ag6
aS'variable_4'
p2130
ag111
ag22
aS'variable_5'
p2131
ag18
aS'variable_29'
p2132
ag22
aS'variable_19'
p2133
aS'->'
p2134
aS'variable_30'
p2135
ag69
ag8
aS'variable_4'
p2136
aS'++'
p2137
ag70
ag26
aS'if'
p2138
ag6
aS'variable_1'
p2139
aS'->'
p2140
aS'variable_23'
p2141
ag18
aS'variable_29'
p2142
aS'+='
p2143
ag165
ag26
aS'memcpy'
p2144
ag6
aS'variable_17'
p2145
ag24
ag45
ag10
aS'variable_29'
p2146
ag10
ag82
ag18
ag26
aS'memcpy'
p2147
ag6
aS'variable_17'
p2148
ag24
ag82
ag10
aS'variable_29'
p2149
ag10
ag82
ag18
ag26
aS'variable_29'
p2150
aS'+='
p2151
ag82
ag26
aS'memcpy'
p2152
ag6
aS'variable_17'
p2153
ag24
ag165
ag10
aS'variable_29'
p2154
ag10
ag82
ag18
ag26
aS'memcpy'
p2155
ag6
aS'variable_17'
p2156
ag24
ag172
ag10
aS'variable_29'
p2157
ag10
ag82
ag18
ag26
aS'if'
p2158
ag6
aS'variable_6'
p2159
ag102
aS'variable_7'
p2160
ag18
aS'if'
p2161
ag6
ag6
aS'variable_4'
p2162
ag24
ag59
ag18
ag111
aS'variable_5'
p2163
ag18
aS'variable_9'
p2164
ag22
aS'variable_19'
p2165
aS'->'
p2166
aS'variable_31'
p2167
ag69
ag8
aS'variable_4'
p2168
aS'++'
p2169
ag70
ag26
aS'variable_10'
p2170
ag22
aS'variable_19'
p2171
aS'->'
p2172
aS'variable_31'
p2173
ag69
ag8
aS'variable_4'
p2174
aS'++'
p2175
ag70
ag26
aS'variable_11'
p2176
ag22
aS'variable_19'
p2177
aS'->'
p2178
aS'variable_31'
p2179
ag69
ag8
aS'variable_4'
p2180
aS'++'
p2181
ag70
ag26
aS'variable_12'
p2182
ag22
aS'variable_19'
p2183
aS'->'
p2184
aS'variable_31'
p2185
ag69
ag8
aS'variable_4'
p2186
aS'++'
p2187
ag70
ag26
aS'if'
p2188
ag6
aS'variable_1'
p2189
aS'->'
p2190
aS'variable_23'
p2191
ag18
aS'memcpy'
p2192
ag6
aS'variable_17'
p2193
ag24
ag45
ag10
aS'variable_11'
p2194
ag24
ag45
ag10
ag165
ag18
ag26
aS'memcpy'
p2195
ag6
aS'variable_17'
p2196
ag24
ag165
ag10
aS'variable_12'
p2197
ag24
ag45
ag10
ag165
ag18
ag26
aS'if'
p2198
ag6
aS'variable_1'
p2199
aS'->'
p2200
aS'variable_23'
p2201
ag18
aS'variable_17'
p2202
aS'+='
p2203
ag59
ag26
aS'variable_17'
p2204
aS'+='
p2205
aS'12'
p2206
ag26
aa(lp2207
S'static'
p2208
aS'int'
p2209
aS'func_0'
p2210
ag6
aS'variable_0'
p2211
ag8
aS'variable_1'
p2212
ag10
aS'int'
p2213
aS'variable_2'
p2214
ag10
aS'int'
p2215
aS'variable_3'
p2216
ag10
aS'const'
p2217
aS'uint8_t'
p2218
ag8
aS'variable_4'
p2219
ag18
aS'const'
p2220
aS'uint8_t'
p2221
ag8
aS'variable_5'
p2222
ag22
ag6
aS'variable_4'
p2223
ag24
aS'variable_3'
p2224
ag18
ag26
aS'uint32_t'
p2225
aS'variable_6'
p2226
ag10
aS'variable_7'
p2227
ag26
aS'variable_8'
p2228
ag8
aS'variable_9'
p2229
ag10
ag8
aS'variable_10'
p2230
ag10
ag8
aS'variable_11'
p2231
ag10
ag8
aS'variable_12'
p2232
ag26
aS'unsigned'
p2233
aS'int'
p2234
aS'variable_13'
p2235
ag10
aS'variable_14'
p2236
ag26
aS'char'
p2237
ag8
aS'variable_15'
p2238
ag10
ag8
aS'variable_16'
p2239
ag10
ag8
aS'variable_17'
p2240
ag10
ag8
aS'variable_18'
p2241
ag26
aS'variable_6'
p2242
ag22
ag45
ag26
aS'variable_7'
p2243
ag22
ag45
ag26
aS'for'
p2244
ag6
aS'variable_14'
p2245
ag22
aS'variable_19'
p2246
aS'->'
p2247
aS'variable_20'
p2248
ag26
aS'variable_14'
p2249
ag53
aS'variable_19'
p2250
aS'->'
p2251
aS'variable_21'
p2252
ag26
aS'variable_14'
p2253
aS'+='
p2254
ag59
ag18
aS'variable_15'
p2255
ag22
aS'variable_16'
p2256
ag22
aS'variable_17'
p2257
ag22
aS'variable_18'
p2258
ag22
aS'variable_1'
p2259
aS'->'
p2260
aS'variable_22'
p2261
aS'->'
p2262
aS'variable_4'
p2263
ag69
ag45
ag70
ag24
ag6
aS'variable_1'
p2264
aS'->'
p2265
aS'variable_23'
p2266
ag74
aS'variable_19'
p2267
aS'->'
p2268
aS'variable_24'
p2269
ag78
aS'variable_19'
p2270
aS'->'
p2271
aS'variable_24'
p2272
ag8
ag82
ag18
ag24
ag6
aS'variable_14'
p2273
ag8
aS'variable_1'
p2274
aS'->'
p2275
aS'variable_22'
p2276
aS'->'
p2277
aS'variable_25'
p2278
ag69
ag45
ag70
ag18
ag26
aS'if'
p2279
ag6
aS'variable_1'
p2280
aS'->'
p2281
aS'variable_26'
p2282
aS'->'
p2283
aS'variable_27'
p2284
ag335
aS'variable_14'
p2285
ag111
ag108
ag18
aS'variable_16'
p2286
ag22
aS'variable_15'
p2287
ag24
aS'variable_1'
p2288
aS'->'
p2289
aS'variable_22'
p2290
aS'->'
p2291
aS'variable_25'
p2292
ag69
ag45
ag70
ag26
aS'if'
p2293
ag6
aS'variable_1'
p2294
aS'->'
p2295
aS'variable_26'
p2296
aS'->'
p2297
aS'variable_27'
p2298
ag335
aS'variable_14'
p2299
ag111
ag167
ag18
aS'variable_17'
p2300
ag22
aS'variable_16'
p2301
ag24
aS'variable_1'
p2302
aS'->'
p2303
aS'variable_22'
p2304
aS'->'
p2305
aS'variable_25'
p2306
ag69
ag45
ag70
ag26
aS'if'
p2307
ag6
aS'variable_1'
p2308
aS'->'
p2309
aS'variable_26'
p2310
aS'->'
p2311
aS'variable_27'
p2312
ag335
aS'variable_14'
p2313
ag111
ag82
ag18
aS'variable_18'
p2314
ag22
aS'variable_17'
p2315
ag24
aS'variable_1'
p2316
aS'->'
p2317
aS'variable_22'
p2318
aS'->'
p2319
aS'variable_25'
p2320
ag69
ag45
ag70
ag26
aS'for'
p2321
ag6
aS'variable_13'
p2322
ag22
aS'variable_19'
p2323
aS'->'
p2324
aS'variable_24'
p2325
ag26
aS'variable_13'
p2326
ag53
aS'variable_19'
p2327
aS'->'
p2328
aS'variable_28'
p2329
ag26
aS'variable_13'
p2330
aS'+='
p2331
ag59
ag18
aS'if'
p2332
ag6
ag6
aS'variable_2'
p2333
ag102
aS'0x01'
p2334
ag18
aS'&&'
p2335
ag105
ag6
aS'variable_7'
p2336
aS'>>'
p2337
ag22
ag108
ag18
ag18
aS'if'
p2338
ag6
ag6
aS'variable_4'
p2339
ag24
ag59
ag18
ag111
aS'variable_5'
p2340
ag18
aS'variable_6'
p2341
ag22
aS'func_1'
p2342
ag6
aS'variable_4'
p2343
ag18
ag26
aS'variable_4'
p2344
aS'+='
p2345
ag59
ag26
aS'variable_7'
p2346
ag22
aS'0x80000000'
p2347
ag26
aS'if'
p2348
ag6
ag105
ag6
aS'variable_2'
p2349
ag102
aS'0x01'
p2350
ag18
aS'||'
p2351
ag6
aS'variable_6'
p2352
ag102
aS'variable_7'
p2353
ag18
ag18
aS'if'
p2354
ag6
ag105
ag6
aS'variable_2'
p2355
ag102
aS'0x02'
p2356
ag18
aS'&&'
p2357
ag105
ag6
aS'variable_7'
p2358
aS'>>'
p2359
ag22
ag108
ag18
ag18
aS'if'
p2360
ag6
ag6
aS'variable_4'
p2361
ag24
ag59
ag18
ag111
aS'variable_5'
p2362
ag18
aS'variable_6'
p2363
ag22
aS'func_2'
p2364
ag6
aS'variable_4'
p2365
ag18
ag26
aS'variable_4'
p2366
aS'+='
p2367
ag59
ag26
aS'variable_7'
p2368
ag22
aS'0x80000000'
p2369
ag26
aS'if'
p2370
ag6
ag6
aS'variable_2'
p2371
ag102
aS'0x02'
p2372
ag18
aS'||'
p2373
ag6
ag146
aS'variable_6'
p2374
ag102
aS'variable_7'
p2375
ag18
ag18
aS'variable_8'
p2376
ag8
aS'variable_29'
p2377
ag26
aS'if'
p2378
ag6
aS'variable_4'
p2379
ag111
ag22
aS'variable_5'
p2380
ag18
aS'variable_29'
p2381
ag22
aS'variable_19'
p2382
aS'->'
p2383
aS'variable_30'
p2384
ag69
ag8
aS'variable_4'
p2385
aS'++'
p2386
ag70
ag26
aS'if'
p2387
ag6
aS'variable_1'
p2388
aS'->'
p2389
aS'variable_23'
p2390
ag18
aS'variable_29'
p2391
aS'+='
p2392
ag165
ag26
aS'memcpy'
p2393
ag6
aS'variable_18'
p2394
ag24
ag45
ag10
aS'variable_29'
p2395
ag10
ag82
ag18
ag26
aS'memcpy'
p2396
ag6
aS'variable_18'
p2397
ag24
ag82
ag10
aS'variable_29'
p2398
ag10
ag82
ag18
ag26
aS'variable_29'
p2399
aS'+='
p2400
ag82
ag26
aS'memcpy'
p2401
ag6
aS'variable_18'
p2402
ag24
ag165
ag10
aS'variable_29'
p2403
ag10
ag82
ag18
ag26
aS'memcpy'
p2404
ag6
aS'variable_18'
p2405
ag24
ag172
ag10
aS'variable_29'
p2406
ag10
ag82
ag18
ag26
aS'if'
p2407
ag6
aS'variable_6'
p2408
ag102
aS'variable_7'
p2409
ag18
aS'if'
p2410
ag6
ag6
aS'variable_4'
p2411
ag24
ag59
ag18
ag111
aS'variable_5'
p2412
ag18
aS'variable_9'
p2413
ag22
aS'variable_19'
p2414
aS'->'
p2415
aS'variable_31'
p2416
ag69
ag8
aS'variable_4'
p2417
aS'++'
p2418
ag70
ag26
aS'variable_10'
p2419
ag22
aS'variable_19'
p2420
aS'->'
p2421
aS'variable_31'
p2422
ag69
ag8
aS'variable_4'
p2423
aS'++'
p2424
ag70
ag26
aS'variable_11'
p2425
ag22
aS'variable_19'
p2426
aS'->'
p2427
aS'variable_31'
p2428
ag69
ag8
aS'variable_4'
p2429
aS'++'
p2430
ag70
ag26
aS'variable_12'
p2431
ag22
aS'variable_19'
p2432
aS'->'
p2433
aS'variable_31'
p2434
ag69
ag8
aS'variable_4'
p2435
aS'++'
p2436
ag70
ag26
aS'if'
p2437
ag6
aS'variable_1'
p2438
aS'->'
p2439
aS'variable_23'
p2440
ag18
aS'memcpy'
p2441
ag6
aS'variable_18'
p2442
ag24
ag45
ag10
aS'variable_11'
p2443
ag24
ag165
ag10
ag165
ag18
ag26
aS'memcpy'
p2444
ag6
aS'variable_18'
p2445
ag24
ag165
ag10
aS'variable_12'
p2446
ag24
ag165
ag10
ag165
ag18
ag26
aS'if'
p2447
ag6
aS'variable_1'
p2448
aS'->'
p2449
aS'variable_23'
p2450
ag18
aS'variable_18'
p2451
aS'+='
p2452
ag59
ag26
aS'variable_18'
p2453
aS'+='
p2454
aS'12'
p2455
ag26
aa(lp2456
S'static'
p2457
aS'int'
p2458
aS'func_0'
p2459
ag6
aS'variable_0'
p2460
ag8
aS'variable_1'
p2461
ag10
aS'int'
p2462
aS'variable_2'
p2463
ag10
aS'int'
p2464
aS'variable_3'
p2465
ag10
aS'const'
p2466
aS'uint8_t'
p2467
ag8
aS'variable_4'
p2468
ag18
aS'const'
p2469
aS'uint8_t'
p2470
ag8
aS'variable_5'
p2471
ag22
ag6
aS'variable_4'
p2472
ag24
aS'variable_3'
p2473
ag18
ag26
aS'uint32_t'
p2474
aS'variable_6'
p2475
ag10
aS'variable_7'
p2476
ag26
aS'variable_8'
p2477
ag8
aS'variable_9'
p2478
ag10
ag8
aS'variable_10'
p2479
ag10
ag8
aS'variable_11'
p2480
ag10
ag8
aS'variable_12'
p2481
ag26
aS'unsigned'
p2482
aS'int'
p2483
aS'variable_13'
p2484
ag10
aS'variable_14'
p2485
ag26
aS'char'
p2486
ag8
aS'variable_15'
p2487
ag10
ag8
aS'variable_16'
p2488
ag10
ag8
aS'variable_17'
p2489
ag10
ag8
aS'variable_18'
p2490
ag26
aS'variable_6'
p2491
ag22
ag45
ag26
aS'variable_7'
p2492
ag22
ag45
ag26
aS'for'
p2493
ag6
aS'variable_14'
p2494
ag22
aS'variable_19'
p2495
aS'->'
p2496
aS'variable_20'
p2497
ag26
aS'variable_14'
p2498
ag53
aS'variable_19'
p2499
aS'->'
p2500
aS'variable_21'
p2501
ag26
aS'variable_14'
p2502
aS'+='
p2503
ag59
ag18
aS'variable_15'
p2504
ag22
aS'variable_16'
p2505
ag22
aS'variable_17'
p2506
ag22
aS'variable_18'
p2507
ag22
aS'variable_1'
p2508
aS'->'
p2509
aS'variable_22'
p2510
aS'->'
p2511
aS'variable_4'
p2512
ag69
ag45
ag70
ag24
ag6
aS'variable_1'
p2513
aS'->'
p2514
aS'variable_23'
p2515
ag74
aS'variable_19'
p2516
aS'->'
p2517
aS'variable_24'
p2518
ag78
aS'variable_19'
p2519
aS'->'
p2520
aS'variable_24'
p2521
ag8
ag82
ag18
ag24
ag6
aS'variable_14'
p2522
ag8
aS'variable_1'
p2523
aS'->'
p2524
aS'variable_22'
p2525
aS'->'
p2526
aS'variable_25'
p2527
ag69
ag45
ag70
ag18
ag26
aS'if'
p2528
ag6
aS'variable_1'
p2529
aS'->'
p2530
aS'variable_26'
p2531
aS'->'
p2532
aS'variable_27'
p2533
ag335
aS'variable_14'
p2534
ag111
ag108
ag18
aS'variable_16'
p2535
ag22
aS'variable_15'
p2536
ag24
aS'variable_1'
p2537
aS'->'
p2538
aS'variable_22'
p2539
aS'->'
p2540
aS'variable_25'
p2541
ag69
ag45
ag70
ag26
aS'if'
p2542
ag6
aS'variable_1'
p2543
aS'->'
p2544
aS'variable_26'
p2545
aS'->'
p2546
aS'variable_27'
p2547
ag335
aS'variable_14'
p2548
ag111
ag167
ag18
aS'variable_17'
p2549
ag22
aS'variable_16'
p2550
ag24
aS'variable_1'
p2551
aS'->'
p2552
aS'variable_22'
p2553
aS'->'
p2554
aS'variable_25'
p2555
ag69
ag45
ag70
ag26
aS'for'
p2556
ag6
aS'variable_13'
p2557
ag22
aS'variable_19'
p2558
aS'->'
p2559
aS'variable_24'
p2560
ag26
aS'variable_13'
p2561
ag53
aS'variable_19'
p2562
aS'->'
p2563
aS'variable_28'
p2564
ag26
aS'variable_13'
p2565
aS'+='
p2566
ag59
ag18
aS'if'
p2567
ag6
ag6
aS'variable_2'
p2568
ag102
aS'0x01'
p2569
ag18
aS'&&'
p2570
ag105
ag6
aS'variable_7'
p2571
aS'>>'
p2572
ag22
ag108
ag18
ag18
aS'if'
p2573
ag6
ag6
aS'variable_4'
p2574
ag24
ag59
ag18
ag111
aS'variable_5'
p2575
ag18
aS'variable_6'
p2576
ag22
aS'func_1'
p2577
ag6
aS'variable_4'
p2578
ag18
ag26
aS'variable_4'
p2579
aS'+='
p2580
ag59
ag26
aS'variable_7'
p2581
ag22
aS'0x80000000'
p2582
ag26
aS'if'
p2583
ag6
ag105
ag6
aS'variable_2'
p2584
ag102
aS'0x01'
p2585
ag18
aS'||'
p2586
ag6
aS'variable_6'
p2587
ag102
aS'variable_7'
p2588
ag18
ag18
aS'if'
p2589
ag6
ag105
ag6
aS'variable_2'
p2590
ag102
aS'0x02'
p2591
ag18
aS'&&'
p2592
ag105
ag6
aS'variable_7'
p2593
aS'>>'
p2594
ag22
ag108
ag18
ag18
aS'if'
p2595
ag6
ag6
aS'variable_4'
p2596
ag24
ag59
ag18
ag111
aS'variable_5'
p2597
ag18
aS'variable_6'
p2598
ag22
aS'func_2'
p2599
ag6
aS'variable_4'
p2600
ag18
ag26
aS'variable_4'
p2601
aS'+='
p2602
ag59
ag26
aS'variable_7'
p2603
ag22
aS'0x80000000'
p2604
ag26
aS'if'
p2605
ag6
ag6
aS'variable_2'
p2606
ag102
aS'0x02'
p2607
ag18
aS'||'
p2608
ag6
ag146
aS'variable_6'
p2609
ag102
aS'variable_7'
p2610
ag18
ag18
aS'variable_8'
p2611
ag8
aS'variable_29'
p2612
ag26
aS'if'
p2613
ag6
aS'variable_4'
p2614
ag111
ag22
aS'variable_5'
p2615
ag18
aS'variable_29'
p2616
ag22
aS'variable_19'
p2617
aS'->'
p2618
aS'variable_30'
p2619
ag69
ag8
aS'variable_4'
p2620
aS'++'
p2621
ag70
ag26
aS'if'
p2622
ag6
aS'variable_1'
p2623
aS'->'
p2624
aS'variable_23'
p2625
ag18
aS'variable_29'
p2626
aS'+='
p2627
ag165
ag26
aS'memcpy'
p2628
ag6
aS'variable_17'
p2629
ag24
ag45
ag10
aS'variable_29'
p2630
ag10
ag82
ag18
ag26
aS'memcpy'
p2631
ag6
aS'variable_17'
p2632
ag24
ag82
ag10
aS'variable_29'
p2633
ag10
ag82
ag18
ag26
aS'memcpy'
p2634
ag6
aS'variable_17'
p2635
ag24
ag165
ag10
aS'variable_29'
p2636
ag10
ag82
ag18
ag26
aS'memcpy'
p2637
ag6
aS'variable_17'
p2638
ag24
ag172
ag10
aS'variable_29'
p2639
ag10
ag82
ag18
ag26
aS'if'
p2640
ag6
aS'variable_6'
p2641
ag102
aS'variable_7'
p2642
ag18
aS'if'
p2643
ag6
ag6
aS'variable_4'
p2644
ag24
ag59
ag18
ag111
aS'variable_5'
p2645
ag18
aS'variable_9'
p2646
ag22
aS'variable_19'
p2647
aS'->'
p2648
aS'variable_31'
p2649
ag69
ag8
aS'variable_4'
p2650
aS'++'
p2651
ag70
ag26
aS'variable_10'
p2652
ag22
aS'variable_19'
p2653
aS'->'
p2654
aS'variable_31'
p2655
ag69
ag8
aS'variable_4'
p2656
aS'++'
p2657
ag70
ag26
aS'variable_11'
p2658
ag22
aS'variable_19'
p2659
aS'->'
p2660
aS'variable_31'
p2661
ag69
ag8
aS'variable_4'
p2662
aS'++'
p2663
ag70
ag26
aS'variable_12'
p2664
ag22
aS'variable_19'
p2665
aS'->'
p2666
aS'variable_31'
p2667
ag69
ag8
aS'variable_4'
p2668
aS'++'
p2669
ag70
ag26
aS'if'
p2670
ag6
aS'variable_1'
p2671
aS'->'
p2672
aS'variable_23'
p2673
ag18
aS'memcpy'
p2674
ag6
aS'variable_17'
p2675
ag24
ag45
ag10
aS'variable_11'
p2676
ag24
ag45
ag10
ag165
ag18
ag26
aS'memcpy'
p2677
ag6
aS'variable_17'
p2678
ag24
ag165
ag10
aS'variable_12'
p2679
ag24
ag45
ag10
ag165
ag18
ag26
aS'if'
p2680
ag6
aS'variable_1'
p2681
aS'->'
p2682
aS'variable_23'
p2683
ag18
aS'variable_17'
p2684
aS'+='
p2685
ag59
ag26
aS'variable_17'
p2686
aS'+='
p2687
aS'12'
p2688
ag26
aa(lp2689
S'static'
p2690
aS'int'
p2691
aS'func_0'
p2692
ag6
aS'variable_0'
p2693
ag8
aS'variable_1'
p2694
ag10
aS'int'
p2695
aS'variable_2'
p2696
ag10
aS'int'
p2697
aS'variable_3'
p2698
ag10
aS'const'
p2699
aS'uint8_t'
p2700
ag8
aS'variable_4'
p2701
ag18
aS'const'
p2702
aS'uint8_t'
p2703
ag8
aS'variable_5'
p2704
ag22
ag6
aS'variable_4'
p2705
ag24
aS'variable_3'
p2706
ag18
ag26
aS'uint32_t'
p2707
aS'variable_6'
p2708
ag10
aS'variable_7'
p2709
ag26
aS'variable_8'
p2710
ag8
aS'variable_9'
p2711
ag10
ag8
aS'variable_10'
p2712
ag10
ag8
aS'variable_11'
p2713
ag10
ag8
aS'variable_12'
p2714
ag26
aS'unsigned'
p2715
aS'int'
p2716
aS'variable_13'
p2717
ag10
aS'variable_14'
p2718
ag26
aS'char'
p2719
ag8
aS'variable_15'
p2720
ag10
ag8
aS'variable_16'
p2721
ag10
ag8
aS'variable_17'
p2722
ag10
ag8
aS'variable_18'
p2723
ag26
aS'variable_6'
p2724
ag22
ag45
ag26
aS'variable_7'
p2725
ag22
ag45
ag26
aS'for'
p2726
ag6
aS'variable_14'
p2727
ag22
aS'variable_19'
p2728
aS'->'
p2729
aS'variable_20'
p2730
ag26
aS'variable_14'
p2731
ag53
aS'variable_19'
p2732
aS'->'
p2733
aS'variable_21'
p2734
ag26
aS'variable_14'
p2735
aS'+='
p2736
ag59
ag18
aS'variable_15'
p2737
ag22
aS'variable_16'
p2738
ag22
aS'variable_17'
p2739
ag22
aS'variable_18'
p2740
ag22
aS'variable_1'
p2741
aS'->'
p2742
aS'variable_22'
p2743
aS'->'
p2744
aS'variable_4'
p2745
ag69
ag45
ag70
ag24
ag6
aS'variable_1'
p2746
aS'->'
p2747
aS'variable_23'
p2748
ag74
aS'variable_19'
p2749
aS'->'
p2750
aS'variable_24'
p2751
ag78
aS'variable_19'
p2752
aS'->'
p2753
aS'variable_24'
p2754
ag8
ag82
ag18
ag24
ag6
aS'variable_14'
p2755
ag8
aS'variable_1'
p2756
aS'->'
p2757
aS'variable_22'
p2758
aS'->'
p2759
aS'variable_25'
p2760
ag69
ag45
ag70
ag18
ag26
aS'if'
p2761
ag6
aS'variable_1'
p2762
aS'->'
p2763
aS'variable_26'
p2764
aS'->'
p2765
aS'variable_27'
p2766
ag335
aS'variable_14'
p2767
ag111
ag108
ag18
aS'variable_16'
p2768
ag22
aS'variable_15'
p2769
ag24
aS'variable_1'
p2770
aS'->'
p2771
aS'variable_22'
p2772
aS'->'
p2773
aS'variable_25'
p2774
ag69
ag45
ag70
ag26
aS'if'
p2775
ag6
aS'variable_1'
p2776
aS'->'
p2777
aS'variable_26'
p2778
aS'->'
p2779
aS'variable_27'
p2780
ag335
aS'variable_14'
p2781
ag111
ag167
ag18
aS'variable_17'
p2782
ag22
aS'variable_16'
p2783
ag24
aS'variable_1'
p2784
aS'->'
p2785
aS'variable_22'
p2786
aS'->'
p2787
aS'variable_25'
p2788
ag69
ag45
ag70
ag26
aS'if'
p2789
ag6
aS'variable_1'
p2790
aS'->'
p2791
aS'variable_26'
p2792
aS'->'
p2793
aS'variable_27'
p2794
ag335
aS'variable_14'
p2795
ag111
ag82
ag18
aS'variable_18'
p2796
ag22
aS'variable_17'
p2797
ag24
aS'variable_1'
p2798
aS'->'
p2799
aS'variable_22'
p2800
aS'->'
p2801
aS'variable_25'
p2802
ag69
ag45
ag70
ag26
aS'for'
p2803
ag6
aS'variable_13'
p2804
ag22
aS'variable_19'
p2805
aS'->'
p2806
aS'variable_24'
p2807
ag26
aS'variable_13'
p2808
ag53
aS'variable_19'
p2809
aS'->'
p2810
aS'variable_28'
p2811
ag26
aS'variable_13'
p2812
aS'+='
p2813
ag59
ag18
aS'if'
p2814
ag6
ag6
aS'variable_2'
p2815
ag102
aS'0x01'
p2816
ag18
aS'&&'
p2817
ag105
ag6
aS'variable_7'
p2818
aS'>>'
p2819
ag22
ag108
ag18
ag18
aS'if'
p2820
ag6
ag6
aS'variable_4'
p2821
ag24
ag59
ag18
ag111
aS'variable_5'
p2822
ag18
aS'variable_6'
p2823
ag22
aS'func_1'
p2824
ag6
aS'variable_4'
p2825
ag18
ag26
aS'variable_4'
p2826
aS'+='
p2827
ag59
ag26
aS'variable_7'
p2828
ag22
aS'0x80000000'
p2829
ag26
aS'if'
p2830
ag6
ag105
ag6
aS'variable_2'
p2831
ag102
aS'0x01'
p2832
ag18
aS'||'
p2833
ag6
aS'variable_6'
p2834
ag102
aS'variable_7'
p2835
ag18
ag18
aS'if'
p2836
ag6
ag105
ag6
aS'variable_2'
p2837
ag102
aS'0x02'
p2838
ag18
aS'&&'
p2839
ag105
ag6
aS'variable_7'
p2840
aS'>>'
p2841
ag22
ag108
ag18
ag18
aS'if'
p2842
ag6
ag6
aS'variable_4'
p2843
ag24
ag59
ag18
ag111
aS'variable_5'
p2844
ag18
aS'variable_6'
p2845
ag22
aS'func_2'
p2846
ag6
aS'variable_4'
p2847
ag18
ag26
aS'variable_4'
p2848
aS'+='
p2849
ag59
ag26
aS'variable_7'
p2850
ag22
aS'0x80000000'
p2851
ag26
aS'if'
p2852
ag6
ag6
aS'variable_2'
p2853
ag102
aS'0x02'
p2854
ag18
aS'||'
p2855
ag6
ag146
aS'variable_6'
p2856
ag102
aS'variable_7'
p2857
ag18
ag18
aS'variable_8'
p2858
ag8
aS'variable_29'
p2859
ag26
aS'if'
p2860
ag6
aS'variable_4'
p2861
ag111
ag22
aS'variable_5'
p2862
ag18
aS'variable_29'
p2863
ag22
aS'variable_19'
p2864
aS'->'
p2865
aS'variable_30'
p2866
ag69
ag8
aS'variable_4'
p2867
aS'++'
p2868
ag70
ag26
aS'if'
p2869
ag6
aS'variable_1'
p2870
aS'->'
p2871
aS'variable_23'
p2872
ag18
aS'variable_29'
p2873
aS'+='
p2874
ag165
ag26
aS'memcpy'
p2875
ag6
aS'variable_18'
p2876
ag24
ag45
ag10
aS'variable_29'
p2877
ag10
ag82
ag18
ag26
aS'memcpy'
p2878
ag6
aS'variable_18'
p2879
ag24
ag82
ag10
aS'variable_29'
p2880
ag10
ag82
ag18
ag26
aS'memcpy'
p2881
ag6
aS'variable_18'
p2882
ag24
ag165
ag10
aS'variable_29'
p2883
ag10
ag82
ag18
ag26
aS'memcpy'
p2884
ag6
aS'variable_18'
p2885
ag24
ag172
ag10
aS'variable_29'
p2886
ag10
ag82
ag18
ag26
aS'if'
p2887
ag6
aS'variable_6'
p2888
ag102
aS'variable_7'
p2889
ag18
aS'if'
p2890
ag6
ag6
aS'variable_4'
p2891
ag24
ag59
ag18
ag111
aS'variable_5'
p2892
ag18
aS'variable_9'
p2893
ag22
aS'variable_19'
p2894
aS'->'
p2895
aS'variable_31'
p2896
ag69
ag8
aS'variable_4'
p2897
aS'++'
p2898
ag70
ag26
aS'variable_10'
p2899
ag22
aS'variable_19'
p2900
aS'->'
p2901
aS'variable_31'
p2902
ag69
ag8
aS'variable_4'
p2903
aS'++'
p2904
ag70
ag26
aS'variable_11'
p2905
ag22
aS'variable_19'
p2906
aS'->'
p2907
aS'variable_31'
p2908
ag69
ag8
aS'variable_4'
p2909
aS'++'
p2910
ag70
ag26
aS'variable_12'
p2911
ag22
aS'variable_19'
p2912
aS'->'
p2913
aS'variable_31'
p2914
ag69
ag8
aS'variable_4'
p2915
aS'++'
p2916
ag70
ag26
aS'if'
p2917
ag6
aS'variable_1'
p2918
aS'->'
p2919
aS'variable_23'
p2920
ag18
aS'memcpy'
p2921
ag6
aS'variable_18'
p2922
ag24
ag45
ag10
aS'variable_11'
p2923
ag24
ag165
ag10
ag165
ag18
ag26
aS'memcpy'
p2924
ag6
aS'variable_18'
p2925
ag24
ag165
ag10
aS'variable_12'
p2926
ag24
ag165
ag10
ag165
ag18
ag26
aS'if'
p2927
ag6
aS'variable_1'
p2928
aS'->'
p2929
aS'variable_23'
p2930
ag18
aS'variable_18'
p2931
aS'+='
p2932
ag59
ag26
aS'variable_18'
p2933
aS'+='
p2934
aS'12'
p2935
ag26
aaa(lp2936
I1
aI1
aI1
aI1
aI1
aI1
aI1
aI1
aI1
aI1
aI1
aI1
aa(lp2937
I551
aI611
aI671
aI731
aI333
aI358
aI307
aI332
aI375
aI400
aI349
aI374
aa(lp2938
(lp2939
S'main'
p2940
aa(lp2941
g2940
aa(lp2942
g2940
aa(lp2943
g2940
aa(lp2944
g2940
aa(lp2945
g2940
aa(lp2946
g2940
aa(lp2947
g2940
aa(lp2948
g2940
aa(lp2949
g2940
aa(lp2950
g2940
aa(lp2951
g2940
aaa(lp2952
S'587 /home/SySeVR/data/CVE_2014_8546_VULN_cinepak_decode_vectors.c memcpy 116'
p2953
aS'589 /home/SySeVR/data/CVE_2014_8546_VULN_cinepak_decode_vectors.c memcpy 114'
p2954
aS'591 /home/SySeVR/data/CVE_2014_8546_VULN_cinepak_decode_vectors.c memcpy 112'
p2955
aS'593 /home/SySeVR/data/CVE_2014_8546_VULN_cinepak_decode_vectors.c memcpy 110'
p2956
aS'595 /home/SySeVR/data/CVE_2014_8546_VULN_cinepak_decode_vectors.c memcpy 75'
p2957
aS'597 /home/SySeVR/data/CVE_2014_8546_VULN_cinepak_decode_vectors.c memcpy 74'
p2958
aS'599 /home/SySeVR/data/CVE_2014_8546_VULN_cinepak_decode_vectors.c memcpy 72'
p2959
aS'601 /home/SySeVR/data/CVE_2014_8546_VULN_cinepak_decode_vectors.c memcpy 71'
p2960
aS'603 /home/SySeVR/data/CVE_2014_8546_VULN_cinepak_decode_vectors.c memcpy 69'
p2961
aS'605 /home/SySeVR/data/CVE_2014_8546_VULN_cinepak_decode_vectors.c memcpy 68'
p2962
aS'607 /home/SySeVR/data/CVE_2014_8546_VULN_cinepak_decode_vectors.c memcpy 66'
p2963
aS'609 /home/SySeVR/data/CVE_2014_8546_VULN_cinepak_decode_vectors.c memcpy 65'
p2964
aa.