(lp0
(lp1
(lp2
S'static'
p3
aS'int'
p4
aS'func_0'
p5
aS'('
p6
aS'variable_0'
p7
aS'*'
p8
aS'variable_1'
p9
aS','
p10
aS'int'
p11
aS'variable_2'
p12
ag10
aS'int'
p13
aS'variable_3'
p14
ag10
aS'const'
p15
aS'uint8_t'
p16
ag8
aS'variable_4'
p17
aS')'
p18
aS'const'
p19
aS'uint8_t'
p20
ag8
aS'variable_5'
p21
aS'='
p22
ag6
aS'variable_4'
p23
aS'+'
p24
aS'variable_3'
p25
ag18
aS';'
p26
aS'if'
p27
ag6
ag6
aS'variable_4'
p28
ag24
aS'4'
p29
ag18
aS'>'
p30
aS'variable_5'
p31
ag18
aS'if'
p32
ag6
ag6
aS'variable_4'
p33
ag24
ag29
ag18
ag30
aS'variable_5'
p34
ag18
aS'if'
p35
ag6
aS'variable_4'
p36
ag30
ag22
aS'variable_5'
p37
ag18
aS'if'
p38
ag6
ag6
aS'variable_4'
p39
ag24
ag29
ag18
ag30
aS'variable_5'
p40
ag18
aaa(lp41
I0
aa(lp42
I29
aa(lp43
(lp44
S'main'
p45
aaa(lp46
S'930 /home/SySeVR/data/CVE_2014_8546_VULN_cinepak_decode_vectors.c const uint8_t * eod = ( data + size ) ; 4'
p47
aa.