(lp0
(lp1
(lp2
S'static'
p3
aS'int'
p4
aS'func_0'
p5
aS'('
p6
aS'struct'
p7
aS'variable_0'
p8
aS'*'
p9
aS'variable_1'
p10
aS','
p11
aS'char'
p12
aS'variable_2'
p13
ag9
aS'variable_3'
p14
ag11
aS'int'
p15
aS'variable_2'
p16
ag9
aS'variable_4'
p17
aS')'
p18
aS'struct'
p19
aS'variable_5'
p20
ag9
aS'variable_6'
p21
aS';'
p22
aS'struct'
p23
aS'variable_7'
p24
ag9
aS'variable_8'
p25
ag22
aS'struct'
p26
aS'sctp_getaddrs_old'
p27
aS'variable_9'
p28
ag22
aS'struct'
p29
aS'variable_10'
p30
ag9
aS'variable_11'
p31
ag22
aS'union'
p32
aS'sctp_addr'
p33
aS'variable_12'
p34
ag22
aS'int'
p35
aS'variable_13'
p36
ag22
aS'void'
p37
ag9
aS'variable_14'
p38
ag22
aS'void'
p39
ag9
aS'variable_15'
p40
ag22
aS'if'
p41
ag6
aS'variable_16'
p42
aS'<'
p43
aS'sizeof'
p44
ag6
aS'struct'
p45
aS'variable_17'
p46
ag18
ag18
aS'variable_16'
p47
aS'='
p48
aS'sizeof'
p49
ag6
aS'struct'
p50
aS'variable_17'
p51
ag18
ag22
aS'if'
p52
ag6
aS'func_1'
p53
ag6
aS'&'
p54
aS'variable_9'
p55
ag11
aS'variable_3'
p56
ag11
aS'variable_16'
p57
ag18
ag18
aS'if'
p58
ag6
aS'variable_9'
p59
aS'.'
p60
aS'variable_18'
p61
ag43
ag48
aS'0'
p62
aS'||'
p63
aS'variable_9'
p64
ag60
aS'variable_18'
p65
aS'>'
p66
ag48
ag6
aS'variable_19'
p67
aS'/'
p68
aS'sizeof'
p69
ag6
aS'union'
p70
aS'variable_20'
p71
ag18
ag18
ag18
aS'if'
p72
ag6
ag62
aS'=='
p73
aS'variable_9'
p74
ag60
aS'variable_21'
p75
ag18
aS'variable_6'
p76
ag48
ag54
aS'func_2'
p77
ag6
aS'variable_1'
p78
ag18
aS'->'
p79
aS'variable_22'
p80
aS'->'
p81
aS'variable_23'
p82
ag60
aS'variable_24'
p83
ag22
aS'variable_8'
p84
ag48
aS'func_3'
p85
ag6
aS'variable_1'
p86
ag11
aS'variable_9'
p87
ag60
aS'variable_21'
p88
ag18
ag22
aS'if'
p89
ag6
aS'!'
p90
aS'variable_8'
p91
ag18
aS'variable_6'
p92
ag48
ag54
aS'variable_8'
p93
aS'->'
p94
aS'variable_23'
p95
ag60
aS'variable_24'
p96
ag22
aS'variable_14'
p97
ag48
aS'kmalloc'
p98
ag6
aS'sizeof'
p99
ag6
aS'union'
p100
aS'variable_20'
p101
ag18
ag9
aS'variable_9'
p102
ag60
aS'variable_18'
p103
ag11
aS'variable_25'
p104
ag18
ag22
aS'if'
p105
ag6
ag90
aS'variable_14'
p106
ag18
aS'if'
p107
ag6
aS'func_4'
p108
ag6
ag54
aS'variable_6'
p109
aS'->'
p110
aS'variable_26'
p111
ag18
ag18
aS'variable_11'
p112
ag48
aS'func_5'
p113
ag6
aS'variable_6'
p114
aS'->'
p115
aS'variable_26'
p116
ag60
aS'struct'
p117
aS'variable_10'
p118
ag11
aS'variable_27'
p119
ag18
aS'if'
p120
ag6
aS'func_6'
p121
ag6
ag54
aS'variable_11'
p122
aS'->'
p123
aS'variable_28'
p124
ag18
ag18
aS'variable_15'
p125
ag48
aS'variable_14'
p126
ag22
aS'memcpy'
p127
ag6
ag54
aS'variable_12'
p128
ag11
ag54
aS'variable_11'
p129
aS'->'
p130
aS'variable_28'
p131
ag11
aS'sizeof'
p132
ag6
aS'variable_12'
p133
ag18
ag18
ag22
aS'variable_13'
p134
ag48
aS'func_7'
p135
ag6
aS'variable_12'
p136
ag60
aS'variable_29'
p137
ag60
aS'variable_30'
p138
ag18
aS'->'
p139
aS'variable_31'
p140
ag22
aS'memcpy'
p141
ag6
aS'variable_15'
p142
ag11
ag54
aS'variable_12'
p143
ag11
aS'variable_13'
p144
ag18
ag22
aS'variable_15'
p145
aS'+='
p146
aS'variable_13'
p147
ag22
aa(lp148
S'static'
p149
aS'int'
p150
aS'func_0'
p151
ag6
aS'struct'
p152
aS'variable_0'
p153
ag9
aS'variable_1'
p154
ag11
aS'char'
p155
aS'variable_2'
p156
ag9
aS'variable_3'
p157
ag11
aS'int'
p158
aS'variable_2'
p159
ag9
aS'variable_4'
p160
ag18
aS'struct'
p161
aS'variable_5'
p162
ag9
aS'variable_6'
p163
ag22
aS'struct'
p164
aS'variable_7'
p165
ag9
aS'variable_8'
p166
ag22
aS'struct'
p167
aS'sctp_getaddrs_old'
p168
aS'variable_9'
p169
ag22
aS'struct'
p170
aS'variable_10'
p171
ag9
aS'variable_11'
p172
ag22
aS'union'
p173
aS'sctp_addr'
p174
aS'variable_12'
p175
ag22
aS'void'
p176
ag9
aS'variable_13'
p177
ag22
aS'if'
p178
ag6
aS'variable_14'
p179
ag43
aS'sizeof'
p180
ag6
aS'struct'
p181
aS'variable_15'
p182
ag18
ag18
aS'variable_14'
p183
ag48
aS'sizeof'
p184
ag6
aS'struct'
p185
aS'variable_15'
p186
ag18
ag22
aS'if'
p187
ag6
aS'func_1'
p188
ag6
ag54
aS'variable_9'
p189
ag11
aS'variable_3'
p190
ag11
aS'variable_14'
p191
ag18
ag18
aS'if'
p192
ag6
aS'variable_9'
p193
ag60
aS'variable_16'
p194
ag43
ag48
ag62
aS'||'
p195
aS'variable_9'
p196
ag60
aS'variable_16'
p197
ag66
ag48
ag6
aS'variable_17'
p198
ag68
aS'sizeof'
p199
ag6
aS'union'
p200
aS'variable_18'
p201
ag18
ag18
ag18
aS'if'
p202
ag6
ag62
aS'=='
p203
aS'variable_9'
p204
ag60
aS'variable_19'
p205
ag18
aS'variable_6'
p206
ag48
ag54
aS'func_2'
p207
ag6
aS'variable_1'
p208
ag18
aS'->'
p209
aS'variable_20'
p210
aS'->'
p211
aS'variable_21'
p212
ag60
aS'variable_22'
p213
ag22
aS'variable_8'
p214
ag48
aS'func_3'
p215
ag6
aS'variable_1'
p216
ag11
aS'variable_9'
p217
ag60
aS'variable_19'
p218
ag18
ag22
aS'if'
p219
ag6
ag90
aS'variable_8'
p220
ag18
aS'variable_6'
p221
ag48
ag54
aS'variable_8'
p222
aS'->'
p223
aS'variable_21'
p224
ag60
aS'variable_22'
p225
ag22
aS'variable_13'
p226
ag48
aS'kmalloc'
p227
ag6
aS'sizeof'
p228
ag6
aS'union'
p229
aS'variable_18'
p230
ag18
ag9
aS'variable_9'
p231
ag60
aS'variable_16'
p232
ag11
aS'variable_23'
p233
ag18
ag22
aS'if'
p234
ag6
ag90
aS'variable_13'
p235
ag18
aS'if'
p236
ag6
aS'func_4'
p237
ag6
ag54
aS'variable_6'
p238
aS'->'
p239
aS'variable_24'
p240
ag18
ag18
aS'variable_11'
p241
ag48
aS'func_5'
p242
ag6
aS'variable_6'
p243
aS'->'
p244
aS'variable_24'
p245
ag60
aS'struct'
p246
aS'variable_10'
p247
ag11
aS'variable_25'
p248
ag18
aS'if'
p249
ag6
aS'func_6'
p250
ag6
ag54
aS'variable_11'
p251
aS'->'
p252
aS'variable_26'
p253
ag18
ag18
aS'memcpy'
p254
ag6
ag54
aS'variable_12'
p255
ag11
ag54
aS'variable_11'
p256
aS'->'
p257
aS'variable_26'
p258
ag11
aS'sizeof'
p259
ag6
aS'variable_12'
p260
ag18
ag18
ag22
aS'func_7'
p261
ag6
aS'variable_1'
p262
aS'->'
p263
aS'variable_27'
p264
ag18
aS'->'
p265
aS'func_8'
p266
ag6
aS'variable_28'
p267
ag11
ag54
aS'variable_12'
p268
ag18
ag22
aS'variable_29'
p269
ag48
aS'func_9'
p270
ag6
aS'variable_12'
p271
ag60
aS'variable_30'
p272
ag60
aS'variable_31'
p273
ag18
aS'->'
p274
aS'variable_32'
p275
ag22
aS'memcpy'
p276
ag6
aS'variable_33'
p277
ag11
ag54
aS'variable_12'
p278
ag11
aS'variable_29'
p279
ag18
ag22
aS'variable_33'
p280
aS'+='
p281
aS'variable_29'
p282
ag22
aS'variable_34'
p283
aS'+='
p284
aS'variable_29'
p285
ag22
aS'if'
p286
ag6
aS'func_10'
p287
ag6
aS'variable_35'
p288
ag11
aS'variable_13'
p289
ag11
aS'variable_34'
p290
ag18
ag18
aaa(lp291
I0
aI0
aa(lp292
I240
aI200
aa(lp293
(lp294
S'main'
p295
aa(lp296
g295
aaa(lp297
S'409 /home/SySeVR/data/CVE_2008_2826_PATCHED_sctp_getsockopt_local_addrs_old.c memcpy 77'
p298
aS'410 /home/SySeVR/data/CVE_2008_2826_PATCHED_sctp_getsockopt_local_addrs_old.c memcpy 74'
p299
aa.