(lp0
(lp1
(lp2
S'func_0'
p3
aS'('
p4
aS'unsigned'
p5
aS'char'
p6
aS'*'
p7
aS'variable_0'
p8
aS','
p9
aS'size_t'
p10
aS'variable_1'
p11
ag9
aS'size_t'
p12
aS'variable_2'
p13
ag9
aS'int'
p14
ag7
aS'variable_3'
p15
aS')'
p16
aS'unsigned'
p17
aS'char'
p18
ag7
aS'variable_4'
p19
aS'='
p20
aS'variable_0'
p21
aS';'
p22
aS'unsigned'
p23
aS'char'
p24
ag7
aS'variable_5'
p25
ag20
aS'variable_6'
p26
ag22
aS'unsigned'
p27
aS'char'
p28
ag7
aS'variable_7'
p29
ag20
aS'variable_4'
p30
aS'+'
p31
aS'variable_1'
p32
ag22
aS'unsigned'
p33
aS'char'
p34
ag7
aS'variable_8'
p35
ag20
aS'variable_5'
p36
ag31
aS'variable_2'
p37
ag22
aS'unsigned'
p38
aS'int'
p39
aS'variable_9'
p40
ag22
aS'unsigned'
p41
aS'int'
p42
aS'variable_10'
p43
ag20
aS'0'
p44
ag22
aS'unsigned'
p45
aS'int'
p46
aS'variable_11'
p47
ag22
aS'unsigned'
p48
aS'int'
p49
aS'variable_12'
p50
ag22
aS'int'
p51
aS'variable_13'
p52
ag22
aS'int'
p53
aS'variable_14'
p54
ag22
aS'if'
p55
ag4
aS'variable_1'
p56
aS'>'
p57
aS'variable_15'
p58
ag16
aS'variable_9'
p59
ag20
ag44
ag22
aS'while'
p60
ag4
aS'1'
p61
ag16
aS'variable_9'
p62
ag20
aS'variable_9'
p63
aS'>>'
p64
ag61
ag22
aS'if'
p65
ag4
ag44
aS'=='
p66
aS'variable_9'
p67
ag16
aS'variable_9'
p68
ag20
aS'0x8000'
p69
ag22
aS'variable_10'
p70
ag20
aS'func_1'
p71
ag4
aS'variable_4'
p72
ag16
ag22
aS'variable_4'
p73
aS'+='
p74
aS'2'
p75
ag22
aS'if'
p76
ag4
aS'variable_4'
p77
ag57
ag20
aS'variable_7'
p78
ag16
aS'if'
p79
ag4
aS'!'
p80
ag4
aS'variable_9'
p81
aS'&'
p82
aS'variable_10'
p83
ag16
ag16
ag7
ag4
aS'variable_5'
p84
aS'++'
p85
ag16
ag20
ag7
ag4
aS'variable_4'
p86
aS'++'
p87
ag16
ag22
aS'variable_11'
p88
ag20
ag4
aS'unsigned'
p89
aS'int'
p90
ag16
ag4
ag4
ag7
aS'variable_4'
p91
ag16
aS'>>'
p92
aS'4'
p93
ag16
ag82
aS'0xF'
p94
ag22
aS'variable_12'
p95
ag20
ag4
aS'unsigned'
p96
aS'int'
p97
ag16
ag4
ag4
ag7
aS'variable_4'
p98
ag16
ag82
aS'0xF'
p99
ag16
ag22
aS'variable_4'
p100
aS'++'
p101
ag22
aS'if'
p102
ag4
aS'variable_4'
p103
ag57
ag20
aS'variable_7'
p104
ag16
aS'switch'
p105
ag4
aS'variable_11'
p106
ag16
aS'variable_13'
p107
ag20
aS'variable_12'
p108
ag31
aS'3'
p109
ag22
aS'if'
p110
ag4
aS'variable_5'
p111
ag31
aS'variable_13'
p112
ag57
aS'variable_8'
p113
ag16
aS'memset'
p114
ag4
aS'variable_5'
p115
ag9
ag7
aS'variable_4'
p116
aS'++'
p117
ag9
aS'variable_13'
p118
ag16
ag22
aS'variable_5'
p119
aS'+='
p120
aS'variable_13'
p121
ag22
aS'variable_13'
p122
ag20
aS'variable_12'
p123
ag31
ag4
ag4
aS'unsigned'
p124
aS'int'
p125
ag16
ag4
ag7
aS'variable_4'
p126
aS'++'
p127
ag16
aS'<<'
p128
ag93
ag16
ag31
aS'19'
p129
ag22
aS'if'
p130
ag4
aS'variable_4'
p131
ag57
ag20
aS'variable_7'
p132
ag16
aS'if'
p133
ag4
aS'variable_5'
p134
ag31
aS'variable_13'
p135
ag57
aS'variable_8'
p136
ag16
aS'memset'
p137
ag4
aS'variable_5'
p138
ag9
ag7
aS'variable_4'
p139
aS'++'
p140
ag9
aS'variable_13'
p141
ag16
ag22
aS'variable_5'
p142
aS'+='
p143
aS'variable_13'
p144
ag22
aS'variable_14'
p145
ag20
aS'variable_12'
p146
ag31
ag4
ag4
aS'unsigned'
p147
aS'int'
p148
ag16
ag4
ag7
aS'variable_4'
p149
aS'++'
p150
ag16
aS'<<'
p151
ag93
ag16
ag31
ag109
ag22
aS'if'
p152
ag4
aS'variable_4'
p153
ag57
ag20
aS'variable_7'
p154
ag16
aS'if'
p155
ag4
aS'variable_5'
p156
aS'-'
p157
aS'variable_14'
p158
aS'<'
p159
aS'variable_6'
p160
ag16
aS'variable_13'
p161
ag20
ag4
aS'unsigned'
p162
aS'int'
p163
ag16
ag4
ag7
aS'variable_4'
p164
aS'++'
p165
ag16
ag31
aS'16'
p166
ag22
aS'if'
p167
ag4
aS'variable_5'
p168
ag31
aS'variable_13'
p169
ag57
aS'variable_8'
p170
ag16
aS'memcpy'
p171
ag4
aS'variable_5'
p172
ag9
aS'variable_5'
p173
ag157
aS'variable_14'
p174
ag9
aS'variable_13'
p175
ag16
ag22
aS'variable_5'
p176
aS'+='
p177
aS'variable_13'
p178
ag22
aS'variable_14'
p179
ag20
aS'variable_12'
p180
ag31
ag4
ag4
aS'unsigned'
p181
aS'int'
p182
ag16
ag4
ag7
aS'variable_4'
p183
aS'++'
p184
ag16
aS'<<'
p185
ag93
ag16
ag31
ag109
ag22
aS'if'
p186
ag4
aS'variable_5'
p187
ag157
aS'variable_14'
p188
ag159
aS'variable_6'
p189
ag16
aS'variable_13'
p190
ag20
aS'variable_11'
p191
ag22
aS'if'
p192
ag4
aS'variable_5'
p193
ag31
aS'variable_13'
p194
ag57
aS'variable_8'
p195
ag16
aS'memcpy'
p196
ag4
aS'variable_5'
p197
ag9
aS'variable_5'
p198
ag157
aS'variable_14'
p199
ag9
aS'variable_13'
p200
ag16
ag22
aS'variable_5'
p201
aS'+='
p202
aS'variable_13'
p203
ag22
aS'if'
p204
ag4
aS'variable_4'
p205
ag57
ag20
aS'variable_7'
p206
ag16
aS'return'
p207
ag4
aS'int'
p208
ag16
ag4
aS'variable_5'
p209
ag157
aS'variable_6'
p210
ag16
ag22
aaa(lp211
I0
aa(lp212
I250
aa(lp213
(lp214
S'main'
p215
aaa(lp216
S'136 /home/SySeVR/data/CVE_2014_6429_VULN_SnifferDecompress.c memset 104'
p217
aa.