(lp0
(lp1
(lp2
S'func_0'
p3
aS'('
p4
aS'unsigned'
p5
aS'char'
p6
aS'*'
p7
aS'variable_0'
p8
aS','
p9
aS'size_t'
p10
aS'variable_1'
p11
ag9
aS'size_t'
p12
aS'variable_2'
p13
ag9
aS'int'
p14
ag7
aS'variable_3'
p15
aS')'
p16
aS'unsigned'
p17
aS'char'
p18
ag7
aS'variable_4'
p19
aS'='
p20
aS'variable_5'
p21
aS';'
p22
aS'unsigned'
p23
aS'char'
p24
ag7
aS'variable_6'
p25
ag20
aS'variable_4'
p26
aS'+'
p27
aS'variable_2'
p28
ag22
aS'if'
p29
ag4
aS'variable_4'
p30
ag27
aS'variable_7'
p31
aS'>'
p32
aS'variable_6'
p33
ag16
aS'if'
p34
ag4
aS'variable_4'
p35
ag27
aS'variable_7'
p36
ag32
aS'variable_6'
p37
ag16
aS'if'
p38
ag4
aS'variable_4'
p39
ag27
aS'variable_7'
p40
ag32
aS'variable_6'
p41
ag16
aS'if'
p42
ag4
aS'variable_4'
p43
ag27
aS'variable_7'
p44
ag32
aS'variable_6'
p45
ag16
aa(lp46
S'func_0'
p47
ag4
aS'unsigned'
p48
aS'char'
p49
ag7
aS'variable_0'
p50
ag9
aS'size_t'
p51
aS'variable_1'
p52
ag9
aS'size_t'
p53
aS'variable_2'
p54
ag9
aS'int'
p55
ag7
aS'variable_3'
p56
ag16
aS'unsigned'
p57
aS'char'
p58
ag7
aS'variable_4'
p59
ag20
aS'variable_0'
p60
ag22
aS'unsigned'
p61
aS'char'
p62
ag7
aS'variable_5'
p63
ag20
aS'variable_4'
p64
ag27
aS'variable_1'
p65
ag22
aS'if'
p66
ag4
aS'variable_4'
p67
ag32
ag20
aS'variable_5'
p68
ag16
aS'if'
p69
ag4
aS'variable_4'
p70
ag32
ag20
aS'variable_5'
p71
ag16
aS'if'
p72
ag4
aS'variable_4'
p73
ag32
ag20
aS'variable_5'
p74
ag16
aS'if'
p75
ag4
aS'variable_4'
p76
ag32
ag20
aS'variable_5'
p77
ag16
aS'if'
p78
ag4
aS'variable_4'
p79
ag32
ag20
aS'variable_5'
p80
ag16
aaa(lp81
I0
aI0
aa(lp82
I33
aI33
aa(lp83
(lp84
S'main'
p85
aa(lp86
g85
aaa(lp87
S'917 /home/SySeVR/data/CVE_2014_6429_VULN_SnifferDecompress.c unsigned char * pout_end = pout + outlen ; 8'
p88
aS'918 /home/SySeVR/data/CVE_2014_6429_VULN_SnifferDecompress.c unsigned char * pin_end = pin + inlen ; 7'
p89
aa.