(lp0
(lp1
(lp2
S'int'
p3
aS'func_0'
p4
aS'('
p5
aS'variable_0'
p6
aS'*'
p7
aS'variable_1'
p8
aS','
p9
aS'const'
p10
aS'char'
p11
ag7
aS'variable_2'
p12
ag9
aS'variable_3'
p13
ag7
aS'variable_4'
p14
aS')'
p15
aS'int'
p16
aS'variable_5'
p17
aS';'
p18
aS'if'
p19
ag5
aS'variable_6'
p20
aS'&'
p21
aS'variable_7'
p22
ag15
aS'variable_0'
p23
ag7
aS'variable_8'
p24
ag18
aS'variable_8'
p25
aS'='
p26
aS'func_1'
p27
ag5
aS'"'
p28
ag28
ag15
ag18
aS'variable_5'
p29
ag26
aS'func_2'
p30
ag5
aS'variable_8'
p31
ag9
aS'variable_2'
p32
ag9
aS'0'
p33
ag9
aS'variable_4'
p34
ag15
ag18
aS'int'
p35
aS'func_3'
p36
ag5
aS'variable_0'
p37
ag7
aS'variable_1'
p38
ag9
aS'const'
p39
aS'char'
p40
ag7
aS'variable_2'
p41
ag9
aS'variable_3'
p42
ag7
aS'variable_4'
p43
ag15
aS'int'
p44
aS'variable_5'
p45
ag18
aS'if'
p46
ag5
aS'variable_6'
p47
ag21
aS'variable_7'
p48
ag15
aS'variable_0'
p49
ag7
aS'variable_8'
p50
ag18
aS'variable_8'
p51
ag26
aS'func_4'
p52
ag5
ag28
ag28
ag15
ag18
aS'variable_5'
p53
ag26
aS'func_5'
p54
ag5
aS'variable_8'
p55
ag9
aS'variable_2'
p56
ag9
ag33
ag9
aS'variable_4'
p57
ag15
ag18
aS'int'
p58
aS'func_6'
p59
ag5
aS'variable_0'
p60
ag7
aS'variable_1'
p61
ag9
aS'const'
p62
aS'char'
p63
ag7
aS'variable_2'
p64
ag9
aS'variable_3'
p65
ag7
aS'variable_4'
p66
ag15
aS'int'
p67
aS'variable_5'
p68
ag18
aS'if'
p69
ag5
aS'variable_6'
p70
ag21
aS'variable_7'
p71
ag15
aS'variable_0'
p72
ag7
aS'variable_8'
p73
ag18
aS'variable_8'
p74
ag26
aS'func_7'
p75
ag5
ag28
ag28
ag15
ag18
aS'variable_5'
p76
ag26
aS'func_8'
p77
ag5
aS'variable_8'
p78
ag9
aS'variable_2'
p79
ag9
ag33
ag9
aS'variable_4'
p80
ag15
ag18
aS'int'
p81
aS'func_9'
p82
ag5
aS'variable_0'
p83
ag7
aS'variable_1'
p84
ag9
aS'const'
p85
aS'char'
p86
ag7
aS'variable_2'
p87
ag9
aS'variable_3'
p88
ag7
aS'variable_4'
p89
ag15
aS'int'
p90
aS'variable_5'
p91
ag18
aS'char'
p92
aS'variable_9'
p93
aS'['
p94
aS'variable_10'
p95
aS']'
p96
ag18
aS'if'
p97
ag5
aS'variable_6'
p98
ag21
aS'variable_7'
p99
ag15
aS'variable_0'
p100
ag7
aS'variable_8'
p101
ag18
aS'int'
p102
aS'variable_11'
p103
ag26
ag33
ag18
aS'variable_3'
p104
ag7
aS'variable_12'
p105
ag18
aS'variable_13'
p106
ag7
aS'variable_14'
p107
ag18
aS'char'
p108
aS'variable_15'
p109
ag94
aS'variable_10'
p110
ag96
ag18
aS'variable_8'
p111
ag26
aS'func_10'
p112
ag5
ag28
ag28
ag15
ag18
aS'variable_5'
p113
ag26
aS'func_11'
p114
ag5
aS'variable_8'
p115
ag9
aS'variable_2'
p116
ag9
ag33
ag9
aS'variable_4'
p117
ag15
ag18
aS'if'
p118
ag5
aS'variable_5'
p119
aS'<'
p120
ag33
ag15
aS'if'
p121
ag5
aS'variable_8'
p122
aS'->'
p123
aS'variable_4'
p124
aS'&&'
p125
aS'variable_8'
p126
aS'->'
p127
aS'variable_4'
p128
aS'->'
p129
aS'variable_16'
p130
ag15
aS'variable_11'
p131
ag26
aS'1'
p132
ag18
aS'if'
p133
ag5
aS'variable_11'
p134
ag15
aS'snprintf'
p135
ag5
aS'variable_15'
p136
ag9
aS'sizeof'
p137
ag5
aS'variable_15'
p138
ag15
ag9
ag28
aS'%'
p139
aS's'
p140
ag28
ag9
aS'variable_2'
p141
ag15
ag18
aS'if'
p142
ag5
aS'!'
p143
aS'func_12'
p144
ag5
aS'variable_2'
p145
ag9
aS'variable_15'
p146
ag15
ag15
aS'variable_12'
p147
ag26
aS'func_13'
p148
ag5
ag28
aS'qcow2'
p149
ag28
ag15
ag18
aS'variable_14'
p150
ag26
aS'func_14'
p151
ag5
ag28
ag28
ag9
aS'variable_12'
p152
aS'->'
p153
aS'variable_17'
p154
ag9
aS'NULL'
p155
ag15
ag18
aS'variable_5'
p156
ag26
aS'func_15'
p157
ag5
aS'variable_12'
p158
ag9
aS'variable_9'
p159
ag9
aS'variable_14'
p160
ag15
ag18
aS'if'
p161
ag5
aS'variable_5'
p162
ag120
ag33
ag15
aS'variable_2'
p163
ag26
aS'variable_9'
p164
ag18
aS'variable_4'
p165
ag26
aS'variable_12'
p166
ag18
aS'variable_1'
p167
aS'->'
p168
aS'variable_18'
p169
ag26
ag132
ag18
aS'if'
p170
ag5
ag143
aS'variable_4'
p171
ag15
aS'variable_5'
p172
ag26
aS'func_16'
p173
ag5
aS'variable_2'
p174
ag9
ag21
aS'variable_4'
p175
ag15
ag18
aS'if'
p176
ag5
ag143
aS'variable_4'
p177
ag15
aS'variable_5'
p178
ag26
aS'func_17'
p179
ag5
aS'variable_1'
p180
ag9
aS'variable_2'
p181
ag9
aS'variable_6'
p182
ag9
aS'variable_4'
p183
ag15
ag18
aS'if'
p184
ag5
aS'variable_5'
p185
ag120
ag33
ag15
aS'if'
p186
ag5
ag5
aS'variable_6'
p187
ag21
aS'variable_19'
p188
ag15
aS'=='
p189
ag33
aS'&&'
p190
aS'variable_1'
p191
aS'->'
p192
aS'variable_20'
p193
ag94
ag33
ag96
aS'!='
p194
aS"'"
p195
aS'\\'
p196
ag33
ag195
ag15
aS'char'
p197
aS'variable_15'
p198
ag94
aS'variable_10'
p199
ag96
ag18
aS'int'
p200
aS'variable_21'
p201
ag18
aS'variable_3'
p202
ag7
aS'variable_22'
p203
ag26
aS'NULL'
p204
ag18
aS'variable_1'
p205
aS'->'
p206
aS'variable_23'
p207
ag26
aS'func_18'
p208
ag5
ag28
ag28
ag15
ag18
aS'if'
p209
ag5
aS'variable_1'
p210
aS'->'
p211
aS'variable_24'
p212
ag94
ag33
ag96
aS'!='
p213
ag195
ag196
ag33
ag195
ag15
aS'variable_22'
p214
ag26
aS'func_19'
p215
ag5
aS'variable_1'
p216
aS'->'
p217
aS'variable_24'
p218
ag15
ag18
aS'variable_21'
p219
ag26
aS'variable_6'
p220
ag21
aS'~'
p221
ag5
aS'variable_25'
p222
aS'|'
p223
aS'variable_7'
p224
ag223
aS'variable_19'
p225
ag15
ag18
aS'variable_5'
p226
ag26
aS'func_20'
p227
ag5
aS'variable_1'
p228
aS'->'
p229
aS'variable_23'
p230
ag9
aS'variable_15'
p231
ag9
aS'variable_21'
p232
ag9
aS'variable_22'
p233
ag15
ag18
aS'if'
p234
ag5
aS'variable_5'
p235
ag120
ag33
ag15
aS'if'
p236
ag5
aS'variable_1'
p237
aS'->'
p238
aS'variable_18'
p239
ag15
aS'variable_1'
p240
aS'->'
p241
aS'variable_23'
p242
aS'->'
p243
aS'variable_26'
p244
ag26
aS'variable_1'
p245
aS'->'
p246
aS'variable_26'
p247
ag18
aS'if'
p248
ag5
aS'variable_1'
p249
aS'->'
p250
aS'variable_18'
p251
ag15
aS'func_21'
p252
ag5
aS'variable_2'
p253
ag15
ag18
aa(lp254
S'int'
p255
aS'func_0'
p256
ag5
aS'variable_0'
p257
ag7
aS'variable_1'
p258
ag9
aS'const'
p259
aS'char'
p260
ag7
aS'variable_2'
p261
ag9
aS'variable_3'
p262
ag7
aS'variable_4'
p263
ag15
aS'int'
p264
aS'variable_5'
p265
ag18
aS'char'
p266
aS'variable_6'
p267
ag94
aS'variable_7'
p268
ag96
ag18
aS'if'
p269
ag5
aS'variable_8'
p270
ag21
aS'variable_9'
p271
ag15
aS'variable_0'
p272
ag7
aS'variable_10'
p273
ag18
aS'int'
p274
aS'variable_11'
p275
ag26
ag33
ag18
aS'variable_3'
p276
ag7
aS'variable_12'
p277
ag18
aS'variable_13'
p278
ag7
aS'variable_14'
p279
ag18
aS'char'
p280
aS'variable_15'
p281
ag94
aS'variable_7'
p282
ag96
ag18
aS'variable_10'
p283
ag26
aS'func_1'
p284
ag5
ag28
ag28
ag15
ag18
aS'variable_5'
p285
ag26
aS'func_2'
p286
ag5
aS'variable_10'
p287
ag9
aS'variable_2'
p288
ag9
ag33
ag9
aS'variable_4'
p289
ag15
ag18
aS'if'
p290
ag5
aS'variable_5'
p291
ag120
ag33
ag15
aS'if'
p292
ag5
aS'variable_10'
p293
aS'->'
p294
aS'variable_4'
p295
aS'&&'
p296
aS'variable_10'
p297
aS'->'
p298
aS'variable_4'
p299
aS'->'
p300
aS'variable_16'
p301
ag15
aS'variable_11'
p302
ag26
ag132
ag18
aS'if'
p303
ag5
aS'variable_11'
p304
ag15
aS'snprintf'
p305
ag5
aS'variable_15'
p306
ag9
aS'sizeof'
p307
ag5
aS'variable_15'
p308
ag15
ag9
ag28
ag139
ag140
ag28
ag9
aS'variable_2'
p309
ag15
ag18
aS'if'
p310
ag5
ag143
aS'func_3'
p311
ag5
aS'variable_2'
p312
ag9
aS'variable_15'
p313
ag15
ag15
aS'variable_12'
p314
ag26
aS'func_4'
p315
ag5
ag28
aS'qcow2'
p316
ag28
ag15
ag18
aS'variable_14'
p317
ag26
aS'func_5'
p318
ag5
ag28
ag28
ag9
aS'variable_12'
p319
aS'->'
p320
aS'variable_17'
p321
ag9
aS'NULL'
p322
ag15
ag18
aS'variable_5'
p323
ag26
aS'func_6'
p324
ag5
aS'variable_12'
p325
ag9
aS'variable_6'
p326
ag9
aS'variable_14'
p327
ag15
ag18
aS'if'
p328
ag5
aS'variable_5'
p329
ag120
ag33
ag15
aS'variable_2'
p330
ag26
aS'variable_6'
p331
ag18
aS'variable_4'
p332
ag26
aS'variable_12'
p333
ag18
aS'variable_1'
p334
aS'->'
p335
aS'variable_18'
p336
ag26
ag132
ag18
aS'if'
p337
ag5
ag143
aS'variable_4'
p338
ag15
aS'variable_5'
p339
ag26
aS'func_7'
p340
ag5
aS'variable_2'
p341
ag9
ag21
aS'variable_4'
p342
ag15
ag18
aS'if'
p343
ag5
ag143
aS'variable_4'
p344
ag15
aS'variable_5'
p345
ag26
aS'func_8'
p346
ag5
aS'variable_1'
p347
ag9
aS'variable_2'
p348
ag9
aS'variable_8'
p349
ag9
aS'variable_4'
p350
ag15
ag18
aS'if'
p351
ag5
aS'variable_5'
p352
ag120
ag33
ag15
aS'if'
p353
ag5
ag5
aS'variable_8'
p354
ag21
aS'variable_19'
p355
ag15
aS'=='
p356
ag33
aS'&&'
p357
aS'variable_1'
p358
aS'->'
p359
aS'variable_20'
p360
ag94
ag33
ag96
aS'!='
p361
ag195
ag196
ag33
ag195
ag15
aS'char'
p362
aS'variable_15'
p363
ag94
aS'variable_7'
p364
ag96
ag18
aS'int'
p365
aS'variable_21'
p366
ag18
aS'variable_3'
p367
ag7
aS'variable_22'
p368
ag26
aS'NULL'
p369
ag18
aS'variable_1'
p370
aS'->'
p371
aS'variable_23'
p372
ag26
aS'func_9'
p373
ag5
ag28
ag28
ag15
ag18
aS'if'
p374
ag5
aS'variable_1'
p375
aS'->'
p376
aS'variable_24'
p377
ag94
ag33
ag96
aS'!='
p378
ag195
ag196
ag33
ag195
ag15
aS'variable_22'
p379
ag26
aS'func_10'
p380
ag5
aS'variable_1'
p381
aS'->'
p382
aS'variable_24'
p383
ag15
ag18
aS'variable_21'
p384
ag26
aS'variable_8'
p385
ag21
ag221
ag5
aS'variable_25'
p386
ag223
aS'variable_9'
p387
ag223
aS'variable_19'
p388
ag15
ag18
aS'variable_5'
p389
ag26
aS'func_11'
p390
ag5
aS'variable_1'
p391
aS'->'
p392
aS'variable_23'
p393
ag9
aS'variable_15'
p394
ag9
aS'variable_21'
p395
ag9
aS'variable_22'
p396
ag15
ag18
aS'int'
p397
aS'func_12'
p398
ag5
aS'variable_0'
p399
ag7
aS'variable_1'
p400
ag9
aS'const'
p401
aS'char'
p402
ag7
aS'variable_2'
p403
ag9
aS'variable_3'
p404
ag7
aS'variable_4'
p405
ag15
aS'int'
p406
aS'variable_5'
p407
ag18
aS'if'
p408
ag5
aS'variable_8'
p409
ag21
aS'variable_9'
p410
ag15
aS'variable_0'
p411
ag7
aS'variable_10'
p412
ag18
aS'variable_10'
p413
ag26
aS'func_13'
p414
ag5
ag28
ag28
ag15
ag18
aS'variable_5'
p415
ag26
aS'func_14'
p416
ag5
aS'variable_10'
p417
ag9
aS'variable_2'
p418
ag9
ag33
ag9
aS'variable_4'
p419
ag15
ag18
aS'int'
p420
aS'func_15'
p421
ag5
aS'variable_0'
p422
ag7
aS'variable_1'
p423
ag9
aS'const'
p424
aS'char'
p425
ag7
aS'variable_2'
p426
ag9
aS'variable_3'
p427
ag7
aS'variable_4'
p428
ag15
aS'int'
p429
aS'variable_5'
p430
ag18
aS'if'
p431
ag5
aS'variable_8'
p432
ag21
aS'variable_9'
p433
ag15
aS'variable_0'
p434
ag7
aS'variable_10'
p435
ag18
aS'variable_10'
p436
ag26
aS'func_16'
p437
ag5
ag28
ag28
ag15
ag18
aS'variable_5'
p438
ag26
aS'func_17'
p439
ag5
aS'variable_10'
p440
ag9
aS'variable_2'
p441
ag9
ag33
ag9
aS'variable_4'
p442
ag15
ag18
aS'int'
p443
aS'func_18'
p444
ag5
aS'variable_0'
p445
ag7
aS'variable_1'
p446
ag9
aS'const'
p447
aS'char'
p448
ag7
aS'variable_2'
p449
ag9
aS'variable_3'
p450
ag7
aS'variable_4'
p451
ag15
aS'int'
p452
aS'variable_5'
p453
ag18
aS'char'
p454
aS'variable_6'
p455
ag94
aS'variable_7'
p456
ag96
ag18
aS'if'
p457
ag5
aS'variable_8'
p458
ag21
aS'variable_9'
p459
ag15
aS'variable_0'
p460
ag7
aS'variable_10'
p461
ag18
aS'int'
p462
aS'variable_11'
p463
ag26
ag33
ag18
aS'variable_3'
p464
ag7
aS'variable_12'
p465
ag18
aS'variable_13'
p466
ag7
aS'variable_14'
p467
ag18
aS'char'
p468
aS'variable_15'
p469
ag94
aS'variable_7'
p470
ag96
ag18
aS'variable_10'
p471
ag26
aS'func_19'
p472
ag5
ag28
ag28
ag15
ag18
aS'variable_5'
p473
ag26
aS'func_20'
p474
ag5
aS'variable_10'
p475
ag9
aS'variable_2'
p476
ag9
ag33
ag9
aS'variable_4'
p477
ag15
ag18
aS'if'
p478
ag5
aS'variable_5'
p479
ag120
ag33
ag15
aS'if'
p480
ag5
aS'variable_10'
p481
aS'->'
p482
aS'variable_4'
p483
aS'&&'
p484
aS'variable_10'
p485
aS'->'
p486
aS'variable_4'
p487
aS'->'
p488
aS'variable_16'
p489
ag15
aS'variable_11'
p490
ag26
ag132
ag18
aS'if'
p491
ag5
aS'variable_11'
p492
ag15
aS'snprintf'
p493
ag5
aS'variable_15'
p494
ag9
aS'sizeof'
p495
ag5
aS'variable_15'
p496
ag15
ag9
ag28
ag139
ag140
ag28
ag9
aS'variable_2'
p497
ag15
ag18
aS'if'
p498
ag5
ag143
aS'func_21'
p499
ag5
aS'variable_2'
p500
ag9
aS'variable_15'
p501
ag15
ag15
aS'variable_12'
p502
ag26
aS'func_22'
p503
ag5
ag28
aS'qcow2'
p504
ag28
ag15
ag18
aS'variable_14'
p505
ag26
aS'func_23'
p506
ag5
ag28
ag28
ag9
aS'variable_12'
p507
aS'->'
p508
aS'variable_17'
p509
ag9
aS'NULL'
p510
ag15
ag18
aS'variable_5'
p511
ag26
aS'func_24'
p512
ag5
aS'variable_12'
p513
ag9
aS'variable_6'
p514
ag9
aS'variable_14'
p515
ag15
ag18
aS'if'
p516
ag5
aS'variable_5'
p517
ag120
ag33
ag15
aS'variable_2'
p518
ag26
aS'variable_6'
p519
ag18
aS'variable_4'
p520
ag26
aS'variable_12'
p521
ag18
aS'variable_1'
p522
aS'->'
p523
aS'variable_18'
p524
ag26
ag132
ag18
aS'if'
p525
ag5
ag143
aS'variable_4'
p526
ag15
aS'variable_5'
p527
ag26
aS'func_25'
p528
ag5
aS'variable_2'
p529
ag9
ag21
aS'variable_4'
p530
ag15
ag18
aS'if'
p531
ag5
ag143
aS'variable_4'
p532
ag15
aS'variable_5'
p533
ag26
aS'func_26'
p534
ag5
aS'variable_1'
p535
ag9
aS'variable_2'
p536
ag9
aS'variable_8'
p537
ag9
aS'variable_4'
p538
ag15
ag18
aS'if'
p539
ag5
aS'variable_5'
p540
ag120
ag33
ag15
aS'if'
p541
ag5
ag5
aS'variable_8'
p542
ag21
aS'variable_19'
p543
ag15
aS'=='
p544
ag33
aS'&&'
p545
aS'variable_1'
p546
aS'->'
p547
aS'variable_20'
p548
ag94
ag33
ag96
aS'!='
p549
ag195
ag196
ag33
ag195
ag15
aS'char'
p550
aS'variable_15'
p551
ag94
aS'variable_7'
p552
ag96
ag18
aS'int'
p553
aS'variable_21'
p554
ag18
aS'variable_3'
p555
ag7
aS'variable_22'
p556
ag26
aS'NULL'
p557
ag18
aS'variable_1'
p558
aS'->'
p559
aS'variable_23'
p560
ag26
aS'func_27'
p561
ag5
ag28
ag28
ag15
ag18
aS'if'
p562
ag5
aS'variable_1'
p563
aS'->'
p564
aS'variable_24'
p565
ag94
ag33
ag96
aS'!='
p566
ag195
ag196
ag33
ag195
ag15
aS'variable_22'
p567
ag26
aS'func_28'
p568
ag5
aS'variable_1'
p569
aS'->'
p570
aS'variable_24'
p571
ag15
ag18
aS'variable_21'
p572
ag26
aS'variable_8'
p573
ag21
ag221
ag5
aS'variable_25'
p574
ag223
aS'variable_9'
p575
ag223
aS'variable_19'
p576
ag15
ag18
aS'variable_5'
p577
ag26
aS'func_29'
p578
ag5
aS'variable_1'
p579
aS'->'
p580
aS'variable_23'
p581
ag9
aS'variable_15'
p582
ag9
aS'variable_21'
p583
ag9
aS'variable_22'
p584
ag15
ag18
aS'if'
p585
ag5
aS'variable_5'
p586
ag120
ag33
ag15
aS'if'
p587
ag5
aS'variable_1'
p588
aS'->'
p589
aS'variable_18'
p590
ag15
aS'variable_1'
p591
aS'->'
p592
aS'variable_23'
p593
aS'->'
p594
aS'variable_26'
p595
ag26
aS'variable_1'
p596
aS'->'
p597
aS'variable_26'
p598
ag18
aS'if'
p599
ag5
aS'variable_1'
p600
aS'->'
p601
aS'variable_18'
p602
ag15
aS'func_30'
p603
ag5
aS'variable_2'
p604
ag15
ag18
aa(lp605
S'int'
p606
aS'func_0'
p607
ag5
aS'variable_0'
p608
ag7
aS'variable_1'
p609
ag9
aS'const'
p610
aS'char'
p611
ag7
aS'variable_2'
p612
ag9
aS'variable_3'
p613
ag7
aS'variable_4'
p614
ag15
aS'int'
p615
aS'variable_5'
p616
ag18
aS'if'
p617
ag5
aS'variable_6'
p618
ag21
aS'variable_7'
p619
ag15
aS'variable_0'
p620
ag7
aS'variable_8'
p621
ag18
aS'variable_8'
p622
ag26
aS'func_1'
p623
ag5
ag28
ag28
ag15
ag18
aS'variable_5'
p624
ag26
aS'func_2'
p625
ag5
aS'variable_8'
p626
ag9
aS'variable_2'
p627
ag9
ag33
ag9
aS'variable_4'
p628
ag15
ag18
aS'int'
p629
aS'func_3'
p630
ag5
aS'variable_0'
p631
ag7
aS'variable_1'
p632
ag9
aS'const'
p633
aS'char'
p634
ag7
aS'variable_2'
p635
ag9
aS'variable_3'
p636
ag7
aS'variable_4'
p637
ag15
aS'int'
p638
aS'variable_5'
p639
ag18
aS'char'
p640
aS'variable_9'
p641
ag94
aS'variable_10'
p642
ag96
ag18
aS'if'
p643
ag5
aS'variable_6'
p644
ag21
aS'variable_7'
p645
ag15
aS'variable_0'
p646
ag7
aS'variable_8'
p647
ag18
aS'int'
p648
aS'variable_11'
p649
ag26
ag33
ag18
aS'variable_3'
p650
ag7
aS'variable_12'
p651
ag18
aS'variable_13'
p652
ag7
aS'variable_14'
p653
ag18
aS'char'
p654
aS'variable_15'
p655
ag94
aS'variable_10'
p656
ag96
ag18
aS'variable_8'
p657
ag26
aS'func_4'
p658
ag5
ag28
ag28
ag15
ag18
aS'variable_5'
p659
ag26
aS'func_5'
p660
ag5
aS'variable_8'
p661
ag9
aS'variable_2'
p662
ag9
ag33
ag9
aS'variable_4'
p663
ag15
ag18
aS'if'
p664
ag5
aS'variable_5'
p665
ag120
ag33
ag15
aS'if'
p666
ag5
aS'variable_8'
p667
aS'->'
p668
aS'variable_4'
p669
aS'&&'
p670
aS'variable_8'
p671
aS'->'
p672
aS'variable_4'
p673
aS'->'
p674
aS'variable_16'
p675
ag15
aS'variable_11'
p676
ag26
ag132
ag18
aS'if'
p677
ag5
aS'variable_11'
p678
ag15
aS'snprintf'
p679
ag5
aS'variable_15'
p680
ag9
aS'sizeof'
p681
ag5
aS'variable_15'
p682
ag15
ag9
ag28
ag139
ag140
ag28
ag9
aS'variable_2'
p683
ag15
ag18
aS'if'
p684
ag5
ag143
aS'func_6'
p685
ag5
aS'variable_2'
p686
ag9
aS'variable_15'
p687
ag15
ag15
aS'variable_12'
p688
ag26
aS'func_7'
p689
ag5
ag28
aS'qcow2'
p690
ag28
ag15
ag18
aS'variable_14'
p691
ag26
aS'func_8'
p692
ag5
ag28
ag28
ag9
aS'variable_12'
p693
aS'->'
p694
aS'variable_17'
p695
ag9
aS'NULL'
p696
ag15
ag18
aS'variable_5'
p697
ag26
aS'func_9'
p698
ag5
aS'variable_12'
p699
ag9
aS'variable_9'
p700
ag9
aS'variable_14'
p701
ag15
ag18
aS'if'
p702
ag5
aS'variable_5'
p703
ag120
ag33
ag15
aS'variable_2'
p704
ag26
aS'variable_9'
p705
ag18
aS'variable_4'
p706
ag26
aS'variable_12'
p707
ag18
aS'variable_1'
p708
aS'->'
p709
aS'variable_18'
p710
ag26
ag132
ag18
aS'if'
p711
ag5
ag143
aS'variable_4'
p712
ag15
aS'variable_5'
p713
ag26
aS'func_10'
p714
ag5
aS'variable_2'
p715
ag9
ag21
aS'variable_4'
p716
ag15
ag18
aS'if'
p717
ag5
ag143
aS'variable_4'
p718
ag15
aS'variable_5'
p719
ag26
aS'func_11'
p720
ag5
aS'variable_1'
p721
ag9
aS'variable_2'
p722
ag9
aS'variable_6'
p723
ag9
aS'variable_4'
p724
ag15
ag18
aS'if'
p725
ag5
aS'variable_5'
p726
ag120
ag33
ag15
aS'if'
p727
ag5
ag5
aS'variable_6'
p728
ag21
aS'variable_19'
p729
ag15
aS'=='
p730
ag33
aS'&&'
p731
aS'variable_1'
p732
aS'->'
p733
aS'variable_20'
p734
ag94
ag33
ag96
aS'!='
p735
ag195
ag196
ag33
ag195
ag15
aS'char'
p736
aS'variable_15'
p737
ag94
aS'variable_10'
p738
ag96
ag18
aS'int'
p739
aS'variable_21'
p740
ag18
aS'variable_3'
p741
ag7
aS'variable_22'
p742
ag26
aS'NULL'
p743
ag18
aS'variable_1'
p744
aS'->'
p745
aS'variable_23'
p746
ag26
aS'func_12'
p747
ag5
ag28
ag28
ag15
ag18
aS'if'
p748
ag5
aS'variable_1'
p749
aS'->'
p750
aS'variable_24'
p751
ag94
ag33
ag96
aS'!='
p752
ag195
ag196
ag33
ag195
ag15
aS'variable_22'
p753
ag26
aS'func_13'
p754
ag5
aS'variable_1'
p755
aS'->'
p756
aS'variable_24'
p757
ag15
ag18
aS'variable_21'
p758
ag26
aS'variable_6'
p759
ag21
ag221
ag5
aS'variable_25'
p760
ag223
aS'variable_7'
p761
ag223
aS'variable_19'
p762
ag15
ag18
aS'variable_5'
p763
ag26
aS'func_14'
p764
ag5
aS'variable_1'
p765
aS'->'
p766
aS'variable_23'
p767
ag9
aS'variable_15'
p768
ag9
aS'variable_21'
p769
ag9
aS'variable_22'
p770
ag15
ag18
aS'int'
p771
aS'func_15'
p772
ag5
aS'variable_0'
p773
ag7
aS'variable_1'
p774
ag9
aS'const'
p775
aS'char'
p776
ag7
aS'variable_2'
p777
ag9
aS'variable_3'
p778
ag7
aS'variable_4'
p779
ag15
aS'int'
p780
aS'variable_5'
p781
ag18
aS'if'
p782
ag5
aS'variable_6'
p783
ag21
aS'variable_7'
p784
ag15
aS'variable_0'
p785
ag7
aS'variable_8'
p786
ag18
aS'variable_8'
p787
ag26
aS'func_16'
p788
ag5
ag28
ag28
ag15
ag18
aS'variable_5'
p789
ag26
aS'func_17'
p790
ag5
aS'variable_8'
p791
ag9
aS'variable_2'
p792
ag9
ag33
ag9
aS'variable_4'
p793
ag15
ag18
aS'int'
p794
aS'func_18'
p795
ag5
aS'variable_0'
p796
ag7
aS'variable_1'
p797
ag9
aS'const'
p798
aS'char'
p799
ag7
aS'variable_2'
p800
ag9
aS'variable_3'
p801
ag7
aS'variable_4'
p802
ag15
aS'int'
p803
aS'variable_5'
p804
ag18
aS'char'
p805
aS'variable_9'
p806
ag94
aS'variable_10'
p807
ag96
ag18
aS'if'
p808
ag5
aS'variable_6'
p809
ag21
aS'variable_7'
p810
ag15
aS'variable_0'
p811
ag7
aS'variable_8'
p812
ag18
aS'int'
p813
aS'variable_11'
p814
ag26
ag33
ag18
aS'variable_3'
p815
ag7
aS'variable_12'
p816
ag18
aS'variable_13'
p817
ag7
aS'variable_14'
p818
ag18
aS'char'
p819
aS'variable_15'
p820
ag94
aS'variable_10'
p821
ag96
ag18
aS'variable_8'
p822
ag26
aS'func_19'
p823
ag5
ag28
ag28
ag15
ag18
aS'variable_5'
p824
ag26
aS'func_20'
p825
ag5
aS'variable_8'
p826
ag9
aS'variable_2'
p827
ag9
ag33
ag9
aS'variable_4'
p828
ag15
ag18
aS'if'
p829
ag5
aS'variable_5'
p830
ag120
ag33
ag15
aS'if'
p831
ag5
aS'variable_8'
p832
aS'->'
p833
aS'variable_4'
p834
aS'&&'
p835
aS'variable_8'
p836
aS'->'
p837
aS'variable_4'
p838
aS'->'
p839
aS'variable_16'
p840
ag15
aS'variable_11'
p841
ag26
ag132
ag18
aS'if'
p842
ag5
aS'variable_11'
p843
ag15
aS'snprintf'
p844
ag5
aS'variable_15'
p845
ag9
aS'sizeof'
p846
ag5
aS'variable_15'
p847
ag15
ag9
ag28
ag139
ag140
ag28
ag9
aS'variable_2'
p848
ag15
ag18
aS'if'
p849
ag5
ag143
aS'func_21'
p850
ag5
aS'variable_2'
p851
ag9
aS'variable_15'
p852
ag15
ag15
aS'variable_12'
p853
ag26
aS'func_22'
p854
ag5
ag28
aS'qcow2'
p855
ag28
ag15
ag18
aS'variable_14'
p856
ag26
aS'func_23'
p857
ag5
ag28
ag28
ag9
aS'variable_12'
p858
aS'->'
p859
aS'variable_17'
p860
ag9
aS'NULL'
p861
ag15
ag18
aS'variable_5'
p862
ag26
aS'func_24'
p863
ag5
aS'variable_12'
p864
ag9
aS'variable_9'
p865
ag9
aS'variable_14'
p866
ag15
ag18
aS'if'
p867
ag5
aS'variable_5'
p868
ag120
ag33
ag15
aS'variable_2'
p869
ag26
aS'variable_9'
p870
ag18
aS'variable_4'
p871
ag26
aS'variable_12'
p872
ag18
aS'variable_1'
p873
aS'->'
p874
aS'variable_18'
p875
ag26
ag132
ag18
aS'if'
p876
ag5
ag143
aS'variable_4'
p877
ag15
aS'variable_5'
p878
ag26
aS'func_25'
p879
ag5
aS'variable_2'
p880
ag9
ag21
aS'variable_4'
p881
ag15
ag18
aS'if'
p882
ag5
ag143
aS'variable_4'
p883
ag15
aS'variable_5'
p884
ag26
aS'func_26'
p885
ag5
aS'variable_1'
p886
ag9
aS'variable_2'
p887
ag9
aS'variable_6'
p888
ag9
aS'variable_4'
p889
ag15
ag18
aS'if'
p890
ag5
aS'variable_5'
p891
ag120
ag33
ag15
aS'if'
p892
ag5
ag5
aS'variable_6'
p893
ag21
aS'variable_19'
p894
ag15
aS'=='
p895
ag33
aS'&&'
p896
aS'variable_1'
p897
aS'->'
p898
aS'variable_20'
p899
ag94
ag33
ag96
aS'!='
p900
ag195
ag196
ag33
ag195
ag15
aS'char'
p901
aS'variable_15'
p902
ag94
aS'variable_10'
p903
ag96
ag18
aS'int'
p904
aS'variable_21'
p905
ag18
aS'variable_3'
p906
ag7
aS'variable_22'
p907
ag26
aS'NULL'
p908
ag18
aS'variable_1'
p909
aS'->'
p910
aS'variable_23'
p911
ag26
aS'func_27'
p912
ag5
ag28
ag28
ag15
ag18
aS'if'
p913
ag5
aS'variable_1'
p914
aS'->'
p915
aS'variable_24'
p916
ag94
ag33
ag96
aS'!='
p917
ag195
ag196
ag33
ag195
ag15
aS'variable_22'
p918
ag26
aS'func_28'
p919
ag5
aS'variable_1'
p920
aS'->'
p921
aS'variable_24'
p922
ag15
ag18
aS'variable_21'
p923
ag26
aS'variable_6'
p924
ag21
ag221
ag5
aS'variable_25'
p925
ag223
aS'variable_7'
p926
ag223
aS'variable_19'
p927
ag15
ag18
aS'variable_5'
p928
ag26
aS'func_29'
p929
ag5
aS'variable_1'
p930
aS'->'
p931
aS'variable_23'
p932
ag9
aS'variable_15'
p933
ag9
aS'variable_21'
p934
ag9
aS'variable_22'
p935
ag15
ag18
aS'if'
p936
ag5
aS'variable_5'
p937
ag120
ag33
ag15
aS'if'
p938
ag5
aS'variable_1'
p939
aS'->'
p940
aS'variable_18'
p941
ag15
aS'variable_1'
p942
aS'->'
p943
aS'variable_23'
p944
aS'->'
p945
aS'variable_26'
p946
ag26
aS'variable_1'
p947
aS'->'
p948
aS'variable_26'
p949
ag18
aS'if'
p950
ag5
aS'variable_1'
p951
aS'->'
p952
aS'variable_18'
p953
ag15
aS'func_30'
p954
ag5
aS'variable_2'
p955
ag15
ag18
aa(lp956
S'int'
p957
aS'func_0'
p958
ag5
aS'variable_0'
p959
ag7
aS'variable_1'
p960
ag9
aS'const'
p961
aS'char'
p962
ag7
aS'variable_2'
p963
ag9
aS'variable_3'
p964
ag7
aS'variable_4'
p965
ag15
aS'int'
p966
aS'variable_5'
p967
ag18
aS'char'
p968
aS'variable_6'
p969
ag94
aS'variable_7'
p970
ag96
ag18
aS'if'
p971
ag5
aS'variable_8'
p972
ag21
aS'variable_9'
p973
ag15
aS'variable_0'
p974
ag7
aS'variable_10'
p975
ag18
aS'int'
p976
aS'variable_11'
p977
ag26
ag33
ag18
aS'variable_3'
p978
ag7
aS'variable_12'
p979
ag18
aS'variable_13'
p980
ag7
aS'variable_14'
p981
ag18
aS'char'
p982
aS'variable_15'
p983
ag94
aS'variable_7'
p984
ag96
ag18
aS'variable_10'
p985
ag26
aS'func_1'
p986
ag5
ag28
ag28
ag15
ag18
aS'variable_5'
p987
ag26
aS'func_2'
p988
ag5
aS'variable_10'
p989
ag9
aS'variable_2'
p990
ag9
ag33
ag9
aS'variable_4'
p991
ag15
ag18
aS'if'
p992
ag5
aS'variable_5'
p993
ag120
ag33
ag15
aS'if'
p994
ag5
aS'variable_10'
p995
aS'->'
p996
aS'variable_4'
p997
aS'&&'
p998
aS'variable_10'
p999
aS'->'
p1000
aS'variable_4'
p1001
aS'->'
p1002
aS'variable_16'
p1003
ag15
aS'variable_11'
p1004
ag26
ag132
ag18
aS'if'
p1005
ag5
aS'variable_11'
p1006
ag15
aS'snprintf'
p1007
ag5
aS'variable_15'
p1008
ag9
aS'sizeof'
p1009
ag5
aS'variable_15'
p1010
ag15
ag9
ag28
ag139
ag140
ag28
ag9
aS'variable_2'
p1011
ag15
ag18
aS'if'
p1012
ag5
ag143
aS'func_3'
p1013
ag5
aS'variable_2'
p1014
ag9
aS'variable_15'
p1015
ag15
ag15
aS'variable_12'
p1016
ag26
aS'func_4'
p1017
ag5
ag28
aS'qcow2'
p1018
ag28
ag15
ag18
aS'variable_14'
p1019
ag26
aS'func_5'
p1020
ag5
ag28
ag28
ag9
aS'variable_12'
p1021
aS'->'
p1022
aS'variable_17'
p1023
ag9
aS'NULL'
p1024
ag15
ag18
aS'variable_5'
p1025
ag26
aS'func_6'
p1026
ag5
aS'variable_12'
p1027
ag9
aS'variable_6'
p1028
ag9
aS'variable_14'
p1029
ag15
ag18
aS'if'
p1030
ag5
aS'variable_5'
p1031
ag120
ag33
ag15
aS'variable_2'
p1032
ag26
aS'variable_6'
p1033
ag18
aS'variable_4'
p1034
ag26
aS'variable_12'
p1035
ag18
aS'variable_1'
p1036
aS'->'
p1037
aS'variable_18'
p1038
ag26
ag132
ag18
aS'if'
p1039
ag5
ag143
aS'variable_4'
p1040
ag15
aS'variable_5'
p1041
ag26
aS'func_7'
p1042
ag5
aS'variable_2'
p1043
ag9
ag21
aS'variable_4'
p1044
ag15
ag18
aS'if'
p1045
ag5
ag143
aS'variable_4'
p1046
ag15
aS'variable_5'
p1047
ag26
aS'func_8'
p1048
ag5
aS'variable_1'
p1049
ag9
aS'variable_2'
p1050
ag9
aS'variable_8'
p1051
ag9
aS'variable_4'
p1052
ag15
ag18
aS'if'
p1053
ag5
aS'variable_5'
p1054
ag120
ag33
ag15
aS'if'
p1055
ag5
ag5
aS'variable_8'
p1056
ag21
aS'variable_19'
p1057
ag15
aS'=='
p1058
ag33
aS'&&'
p1059
aS'variable_1'
p1060
aS'->'
p1061
aS'variable_20'
p1062
ag94
ag33
ag96
aS'!='
p1063
ag195
ag196
ag33
ag195
ag15
aS'char'
p1064
aS'variable_15'
p1065
ag94
aS'variable_7'
p1066
ag96
ag18
aS'int'
p1067
aS'variable_21'
p1068
ag18
aS'variable_3'
p1069
ag7
aS'variable_22'
p1070
ag26
aS'NULL'
p1071
ag18
aS'variable_1'
p1072
aS'->'
p1073
aS'variable_23'
p1074
ag26
aS'func_9'
p1075
ag5
ag28
ag28
ag15
ag18
aS'if'
p1076
ag5
aS'variable_1'
p1077
aS'->'
p1078
aS'variable_24'
p1079
ag94
ag33
ag96
aS'!='
p1080
ag195
ag196
ag33
ag195
ag15
aS'variable_22'
p1081
ag26
aS'func_10'
p1082
ag5
aS'variable_1'
p1083
aS'->'
p1084
aS'variable_24'
p1085
ag15
ag18
aS'variable_21'
p1086
ag26
aS'variable_8'
p1087
ag21
ag221
ag5
aS'variable_25'
p1088
ag223
aS'variable_9'
p1089
ag223
aS'variable_19'
p1090
ag15
ag18
aS'variable_5'
p1091
ag26
aS'func_11'
p1092
ag5
aS'variable_1'
p1093
aS'->'
p1094
aS'variable_23'
p1095
ag9
aS'variable_15'
p1096
ag9
aS'variable_21'
p1097
ag9
aS'variable_22'
p1098
ag15
ag18
aS'int'
p1099
aS'func_12'
p1100
ag5
aS'variable_0'
p1101
ag7
aS'variable_1'
p1102
ag9
aS'const'
p1103
aS'char'
p1104
ag7
aS'variable_2'
p1105
ag9
aS'variable_3'
p1106
ag7
aS'variable_4'
p1107
ag15
aS'int'
p1108
aS'variable_5'
p1109
ag18
aS'char'
p1110
aS'variable_6'
p1111
ag94
aS'variable_7'
p1112
ag96
ag18
aS'if'
p1113
ag5
aS'variable_8'
p1114
ag21
aS'variable_9'
p1115
ag15
aS'variable_0'
p1116
ag7
aS'variable_10'
p1117
ag18
aS'int'
p1118
aS'variable_11'
p1119
ag26
ag33
ag18
aS'variable_3'
p1120
ag7
aS'variable_12'
p1121
ag18
aS'variable_13'
p1122
ag7
aS'variable_14'
p1123
ag18
aS'char'
p1124
aS'variable_15'
p1125
ag94
aS'variable_7'
p1126
ag96
ag18
aS'variable_10'
p1127
ag26
aS'func_13'
p1128
ag5
ag28
ag28
ag15
ag18
aS'variable_5'
p1129
ag26
aS'func_14'
p1130
ag5
aS'variable_10'
p1131
ag9
aS'variable_2'
p1132
ag9
ag33
ag9
aS'variable_4'
p1133
ag15
ag18
aS'if'
p1134
ag5
aS'variable_5'
p1135
ag120
ag33
ag15
aS'if'
p1136
ag5
aS'variable_10'
p1137
aS'->'
p1138
aS'variable_4'
p1139
aS'&&'
p1140
aS'variable_10'
p1141
aS'->'
p1142
aS'variable_4'
p1143
aS'->'
p1144
aS'variable_16'
p1145
ag15
aS'variable_11'
p1146
ag26
ag132
ag18
aS'if'
p1147
ag5
aS'variable_11'
p1148
ag15
aS'snprintf'
p1149
ag5
aS'variable_15'
p1150
ag9
aS'sizeof'
p1151
ag5
aS'variable_15'
p1152
ag15
ag9
ag28
ag139
ag140
ag28
ag9
aS'variable_2'
p1153
ag15
ag18
aS'if'
p1154
ag5
ag143
aS'func_15'
p1155
ag5
aS'variable_2'
p1156
ag9
aS'variable_15'
p1157
ag15
ag15
aS'variable_12'
p1158
ag26
aS'func_16'
p1159
ag5
ag28
aS'qcow2'
p1160
ag28
ag15
ag18
aS'variable_14'
p1161
ag26
aS'func_17'
p1162
ag5
ag28
ag28
ag9
aS'variable_12'
p1163
aS'->'
p1164
aS'variable_17'
p1165
ag9
aS'NULL'
p1166
ag15
ag18
aS'variable_5'
p1167
ag26
aS'func_18'
p1168
ag5
aS'variable_12'
p1169
ag9
aS'variable_6'
p1170
ag9
aS'variable_14'
p1171
ag15
ag18
aS'if'
p1172
ag5
aS'variable_5'
p1173
ag120
ag33
ag15
aS'variable_2'
p1174
ag26
aS'variable_6'
p1175
ag18
aS'variable_4'
p1176
ag26
aS'variable_12'
p1177
ag18
aS'variable_1'
p1178
aS'->'
p1179
aS'variable_18'
p1180
ag26
ag132
ag18
aS'if'
p1181
ag5
ag143
aS'variable_4'
p1182
ag15
aS'variable_5'
p1183
ag26
aS'func_19'
p1184
ag5
aS'variable_2'
p1185
ag9
ag21
aS'variable_4'
p1186
ag15
ag18
aS'if'
p1187
ag5
ag143
aS'variable_4'
p1188
ag15
aS'variable_5'
p1189
ag26
aS'func_20'
p1190
ag5
aS'variable_1'
p1191
ag9
aS'variable_2'
p1192
ag9
aS'variable_8'
p1193
ag9
aS'variable_4'
p1194
ag15
ag18
aS'if'
p1195
ag5
aS'variable_5'
p1196
ag120
ag33
ag15
aS'if'
p1197
ag5
ag5
aS'variable_8'
p1198
ag21
aS'variable_19'
p1199
ag15
aS'=='
p1200
ag33
aS'&&'
p1201
aS'variable_1'
p1202
aS'->'
p1203
aS'variable_20'
p1204
ag94
ag33
ag96
aS'!='
p1205
ag195
ag196
ag33
ag195
ag15
aS'char'
p1206
aS'variable_15'
p1207
ag94
aS'variable_7'
p1208
ag96
ag18
aS'int'
p1209
aS'variable_21'
p1210
ag18
aS'variable_3'
p1211
ag7
aS'variable_22'
p1212
ag26
aS'NULL'
p1213
ag18
aS'variable_1'
p1214
aS'->'
p1215
aS'variable_23'
p1216
ag26
aS'func_21'
p1217
ag5
ag28
ag28
ag15
ag18
aS'if'
p1218
ag5
aS'variable_1'
p1219
aS'->'
p1220
aS'variable_24'
p1221
ag94
ag33
ag96
aS'!='
p1222
ag195
ag196
ag33
ag195
ag15
aS'variable_22'
p1223
ag26
aS'func_22'
p1224
ag5
aS'variable_1'
p1225
aS'->'
p1226
aS'variable_24'
p1227
ag15
ag18
aS'variable_21'
p1228
ag26
aS'variable_8'
p1229
ag21
ag221
ag5
aS'variable_25'
p1230
ag223
aS'variable_9'
p1231
ag223
aS'variable_19'
p1232
ag15
ag18
aS'variable_5'
p1233
ag26
aS'func_23'
p1234
ag5
aS'variable_1'
p1235
aS'->'
p1236
aS'variable_23'
p1237
ag9
aS'variable_15'
p1238
ag9
aS'variable_21'
p1239
ag9
aS'variable_22'
p1240
ag15
ag18
aS'int'
p1241
aS'func_24'
p1242
ag5
aS'variable_0'
p1243
ag7
aS'variable_1'
p1244
ag9
aS'const'
p1245
aS'char'
p1246
ag7
aS'variable_2'
p1247
ag9
aS'variable_3'
p1248
ag7
aS'variable_4'
p1249
ag15
aS'int'
p1250
aS'variable_5'
p1251
ag18
aS'if'
p1252
ag5
aS'variable_8'
p1253
ag21
aS'variable_9'
p1254
ag15
aS'variable_0'
p1255
ag7
aS'variable_10'
p1256
ag18
aS'variable_10'
p1257
ag26
aS'func_25'
p1258
ag5
ag28
ag28
ag15
ag18
aS'variable_5'
p1259
ag26
aS'func_26'
p1260
ag5
aS'variable_10'
p1261
ag9
aS'variable_2'
p1262
ag9
ag33
ag9
aS'variable_4'
p1263
ag15
ag18
aS'int'
p1264
aS'func_27'
p1265
ag5
aS'variable_0'
p1266
ag7
aS'variable_1'
p1267
ag9
aS'const'
p1268
aS'char'
p1269
ag7
aS'variable_2'
p1270
ag9
aS'variable_3'
p1271
ag7
aS'variable_4'
p1272
ag15
aS'int'
p1273
aS'variable_5'
p1274
ag18
aS'char'
p1275
aS'variable_6'
p1276
ag94
aS'variable_7'
p1277
ag96
ag18
aS'if'
p1278
ag5
aS'variable_8'
p1279
ag21
aS'variable_9'
p1280
ag15
aS'variable_0'
p1281
ag7
aS'variable_10'
p1282
ag18
aS'int'
p1283
aS'variable_11'
p1284
ag26
ag33
ag18
aS'variable_3'
p1285
ag7
aS'variable_12'
p1286
ag18
aS'variable_13'
p1287
ag7
aS'variable_14'
p1288
ag18
aS'char'
p1289
aS'variable_15'
p1290
ag94
aS'variable_7'
p1291
ag96
ag18
aS'variable_10'
p1292
ag26
aS'func_28'
p1293
ag5
ag28
ag28
ag15
ag18
aS'variable_5'
p1294
ag26
aS'func_29'
p1295
ag5
aS'variable_10'
p1296
ag9
aS'variable_2'
p1297
ag9
ag33
ag9
aS'variable_4'
p1298
ag15
ag18
aS'if'
p1299
ag5
aS'variable_5'
p1300
ag120
ag33
ag15
aS'if'
p1301
ag5
aS'variable_10'
p1302
aS'->'
p1303
aS'variable_4'
p1304
aS'&&'
p1305
aS'variable_10'
p1306
aS'->'
p1307
aS'variable_4'
p1308
aS'->'
p1309
aS'variable_16'
p1310
ag15
aS'variable_11'
p1311
ag26
ag132
ag18
aS'if'
p1312
ag5
aS'variable_11'
p1313
ag15
aS'snprintf'
p1314
ag5
aS'variable_15'
p1315
ag9
aS'sizeof'
p1316
ag5
aS'variable_15'
p1317
ag15
ag9
ag28
ag139
ag140
ag28
ag9
aS'variable_2'
p1318
ag15
ag18
aS'if'
p1319
ag5
ag143
aS'func_30'
p1320
ag5
aS'variable_2'
p1321
ag9
aS'variable_15'
p1322
ag15
ag15
aS'variable_12'
p1323
ag26
aS'func_31'
p1324
ag5
ag28
aS'qcow2'
p1325
ag28
ag15
ag18
aS'variable_14'
p1326
ag26
aS'func_32'
p1327
ag5
ag28
ag28
ag9
aS'variable_12'
p1328
aS'->'
p1329
aS'variable_17'
p1330
ag9
aS'NULL'
p1331
ag15
ag18
aS'variable_5'
p1332
ag26
aS'func_33'
p1333
ag5
aS'variable_12'
p1334
ag9
aS'variable_6'
p1335
ag9
aS'variable_14'
p1336
ag15
ag18
aS'if'
p1337
ag5
aS'variable_5'
p1338
ag120
ag33
ag15
aS'variable_2'
p1339
ag26
aS'variable_6'
p1340
ag18
aS'variable_4'
p1341
ag26
aS'variable_12'
p1342
ag18
aS'variable_1'
p1343
aS'->'
p1344
aS'variable_18'
p1345
ag26
ag132
ag18
aS'if'
p1346
ag5
ag143
aS'variable_4'
p1347
ag15
aS'variable_5'
p1348
ag26
aS'func_34'
p1349
ag5
aS'variable_2'
p1350
ag9
ag21
aS'variable_4'
p1351
ag15
ag18
aS'if'
p1352
ag5
ag143
aS'variable_4'
p1353
ag15
aS'variable_5'
p1354
ag26
aS'func_35'
p1355
ag5
aS'variable_1'
p1356
ag9
aS'variable_2'
p1357
ag9
aS'variable_8'
p1358
ag9
aS'variable_4'
p1359
ag15
ag18
aS'if'
p1360
ag5
aS'variable_5'
p1361
ag120
ag33
ag15
aS'if'
p1362
ag5
ag5
aS'variable_8'
p1363
ag21
aS'variable_19'
p1364
ag15
aS'=='
p1365
ag33
aS'&&'
p1366
aS'variable_1'
p1367
aS'->'
p1368
aS'variable_20'
p1369
ag94
ag33
ag96
aS'!='
p1370
ag195
ag196
ag33
ag195
ag15
aS'char'
p1371
aS'variable_15'
p1372
ag94
aS'variable_7'
p1373
ag96
ag18
aS'int'
p1374
aS'variable_21'
p1375
ag18
aS'variable_3'
p1376
ag7
aS'variable_22'
p1377
ag26
aS'NULL'
p1378
ag18
aS'variable_1'
p1379
aS'->'
p1380
aS'variable_23'
p1381
ag26
aS'func_36'
p1382
ag5
ag28
ag28
ag15
ag18
aS'if'
p1383
ag5
aS'variable_1'
p1384
aS'->'
p1385
aS'variable_24'
p1386
ag94
ag33
ag96
aS'!='
p1387
ag195
ag196
ag33
ag195
ag15
aS'variable_22'
p1388
ag26
aS'func_37'
p1389
ag5
aS'variable_1'
p1390
aS'->'
p1391
aS'variable_24'
p1392
ag15
ag18
aS'variable_21'
p1393
ag26
aS'variable_8'
p1394
ag21
ag221
ag5
aS'variable_25'
p1395
ag223
aS'variable_9'
p1396
ag223
aS'variable_19'
p1397
ag15
ag18
aS'variable_5'
p1398
ag26
aS'func_38'
p1399
ag5
aS'variable_1'
p1400
aS'->'
p1401
aS'variable_23'
p1402
ag9
aS'variable_15'
p1403
ag9
aS'variable_21'
p1404
ag9
aS'variable_22'
p1405
ag15
ag18
aS'if'
p1406
ag5
aS'variable_5'
p1407
ag120
ag33
ag15
aS'if'
p1408
ag5
aS'variable_1'
p1409
aS'->'
p1410
aS'variable_18'
p1411
ag15
aS'variable_1'
p1412
aS'->'
p1413
aS'variable_23'
p1414
aS'->'
p1415
aS'variable_26'
p1416
ag26
aS'variable_1'
p1417
aS'->'
p1418
aS'variable_26'
p1419
ag18
aS'if'
p1420
ag5
aS'variable_1'
p1421
aS'->'
p1422
aS'variable_18'
p1423
ag15
aS'func_39'
p1424
ag5
aS'variable_2'
p1425
ag15
ag18
aa(lp1426
S'int'
p1427
aS'func_0'
p1428
ag5
aS'variable_0'
p1429
ag7
aS'variable_1'
p1430
ag9
aS'const'
p1431
aS'char'
p1432
ag7
aS'variable_2'
p1433
ag9
aS'variable_3'
p1434
ag7
aS'variable_4'
p1435
ag15
aS'int'
p1436
aS'variable_5'
p1437
ag18
aS'if'
p1438
ag5
aS'variable_6'
p1439
ag21
aS'variable_7'
p1440
ag15
aS'variable_0'
p1441
ag7
aS'variable_8'
p1442
ag18
aS'variable_8'
p1443
ag26
aS'func_1'
p1444
ag5
ag28
ag28
ag15
ag18
aS'variable_5'
p1445
ag26
aS'func_2'
p1446
ag5
aS'variable_8'
p1447
ag9
aS'variable_2'
p1448
ag9
ag33
ag9
aS'variable_4'
p1449
ag15
ag18
aS'int'
p1450
aS'func_3'
p1451
ag5
aS'variable_0'
p1452
ag7
aS'variable_1'
p1453
ag9
aS'const'
p1454
aS'char'
p1455
ag7
aS'variable_2'
p1456
ag9
aS'variable_3'
p1457
ag7
aS'variable_4'
p1458
ag15
aS'int'
p1459
aS'variable_5'
p1460
ag18
aS'if'
p1461
ag5
aS'variable_6'
p1462
ag21
aS'variable_7'
p1463
ag15
aS'variable_0'
p1464
ag7
aS'variable_8'
p1465
ag18
aS'variable_8'
p1466
ag26
aS'func_4'
p1467
ag5
ag28
ag28
ag15
ag18
aS'variable_5'
p1468
ag26
aS'func_5'
p1469
ag5
aS'variable_8'
p1470
ag9
aS'variable_2'
p1471
ag9
ag33
ag9
aS'variable_4'
p1472
ag15
ag18
aS'int'
p1473
aS'func_6'
p1474
ag5
aS'variable_0'
p1475
ag7
aS'variable_1'
p1476
ag9
aS'const'
p1477
aS'char'
p1478
ag7
aS'variable_2'
p1479
ag9
aS'variable_3'
p1480
ag7
aS'variable_4'
p1481
ag15
aS'int'
p1482
aS'variable_5'
p1483
ag18
aS'char'
p1484
aS'variable_9'
p1485
ag94
aS'variable_10'
p1486
ag96
ag18
aS'if'
p1487
ag5
aS'variable_6'
p1488
ag21
aS'variable_7'
p1489
ag15
aS'variable_0'
p1490
ag7
aS'variable_8'
p1491
ag18
aS'int'
p1492
aS'variable_11'
p1493
ag26
ag33
ag18
aS'variable_3'
p1494
ag7
aS'variable_12'
p1495
ag18
aS'variable_13'
p1496
ag7
aS'variable_14'
p1497
ag18
aS'char'
p1498
aS'variable_15'
p1499
ag94
aS'variable_10'
p1500
ag96
ag18
aS'variable_8'
p1501
ag26
aS'func_7'
p1502
ag5
ag28
ag28
ag15
ag18
aS'variable_5'
p1503
ag26
aS'func_8'
p1504
ag5
aS'variable_8'
p1505
ag9
aS'variable_2'
p1506
ag9
ag33
ag9
aS'variable_4'
p1507
ag15
ag18
aS'if'
p1508
ag5
aS'variable_5'
p1509
ag120
ag33
ag15
aS'if'
p1510
ag5
aS'variable_8'
p1511
aS'->'
p1512
aS'variable_4'
p1513
aS'&&'
p1514
aS'variable_8'
p1515
aS'->'
p1516
aS'variable_4'
p1517
aS'->'
p1518
aS'variable_16'
p1519
ag15
aS'variable_11'
p1520
ag26
ag132
ag18
aS'if'
p1521
ag5
aS'variable_11'
p1522
ag15
aS'snprintf'
p1523
ag5
aS'variable_15'
p1524
ag9
aS'sizeof'
p1525
ag5
aS'variable_15'
p1526
ag15
ag9
ag28
ag139
ag140
ag28
ag9
aS'variable_2'
p1527
ag15
ag18
aS'if'
p1528
ag5
ag143
aS'func_9'
p1529
ag5
aS'variable_2'
p1530
ag9
aS'variable_15'
p1531
ag15
ag15
aS'variable_12'
p1532
ag26
aS'func_10'
p1533
ag5
ag28
aS'qcow2'
p1534
ag28
ag15
ag18
aS'variable_14'
p1535
ag26
aS'func_11'
p1536
ag5
ag28
ag28
ag9
aS'variable_12'
p1537
aS'->'
p1538
aS'variable_17'
p1539
ag9
aS'NULL'
p1540
ag15
ag18
aS'variable_5'
p1541
ag26
aS'func_12'
p1542
ag5
aS'variable_12'
p1543
ag9
aS'variable_9'
p1544
ag9
aS'variable_14'
p1545
ag15
ag18
aS'if'
p1546
ag5
aS'variable_5'
p1547
ag120
ag33
ag15
aS'variable_2'
p1548
ag26
aS'variable_9'
p1549
ag18
aS'variable_4'
p1550
ag26
aS'variable_12'
p1551
ag18
aS'variable_1'
p1552
aS'->'
p1553
aS'variable_18'
p1554
ag26
ag132
ag18
aS'if'
p1555
ag5
ag143
aS'variable_4'
p1556
ag15
aS'variable_5'
p1557
ag26
aS'func_13'
p1558
ag5
aS'variable_2'
p1559
ag9
ag21
aS'variable_4'
p1560
ag15
ag18
aS'if'
p1561
ag5
ag143
aS'variable_4'
p1562
ag15
aS'variable_5'
p1563
ag26
aS'func_14'
p1564
ag5
aS'variable_1'
p1565
ag9
aS'variable_2'
p1566
ag9
aS'variable_6'
p1567
ag9
aS'variable_4'
p1568
ag15
ag18
aS'if'
p1569
ag5
aS'variable_5'
p1570
ag120
ag33
ag15
aS'if'
p1571
ag5
ag5
aS'variable_6'
p1572
ag21
aS'variable_19'
p1573
ag15
aS'=='
p1574
ag33
aS'&&'
p1575
aS'variable_1'
p1576
aS'->'
p1577
aS'variable_20'
p1578
ag94
ag33
ag96
aS'!='
p1579
ag195
ag196
ag33
ag195
ag15
aS'char'
p1580
aS'variable_15'
p1581
ag94
aS'variable_10'
p1582
ag96
ag18
aS'int'
p1583
aS'variable_21'
p1584
ag18
aS'variable_3'
p1585
ag7
aS'variable_22'
p1586
ag26
aS'NULL'
p1587
ag18
aS'variable_1'
p1588
aS'->'
p1589
aS'variable_23'
p1590
ag26
aS'func_15'
p1591
ag5
ag28
ag28
ag15
ag18
aS'if'
p1592
ag5
aS'variable_1'
p1593
aS'->'
p1594
aS'variable_24'
p1595
ag94
ag33
ag96
aS'!='
p1596
ag195
ag196
ag33
ag195
ag15
aS'variable_22'
p1597
ag26
aS'func_16'
p1598
ag5
aS'variable_1'
p1599
aS'->'
p1600
aS'variable_24'
p1601
ag15
ag18
aS'variable_21'
p1602
ag26
aS'variable_6'
p1603
ag21
ag221
ag5
aS'variable_25'
p1604
ag223
aS'variable_7'
p1605
ag223
aS'variable_19'
p1606
ag15
ag18
aS'variable_5'
p1607
ag26
aS'func_17'
p1608
ag5
aS'variable_1'
p1609
aS'->'
p1610
aS'variable_23'
p1611
ag9
aS'variable_15'
p1612
ag9
aS'variable_21'
p1613
ag9
aS'variable_22'
p1614
ag15
ag18
aS'int'
p1615
aS'func_18'
p1616
ag5
aS'variable_0'
p1617
ag7
aS'variable_1'
p1618
ag9
aS'const'
p1619
aS'char'
p1620
ag7
aS'variable_2'
p1621
ag9
aS'variable_3'
p1622
ag7
aS'variable_4'
p1623
ag15
aS'int'
p1624
aS'variable_5'
p1625
ag18
aS'char'
p1626
aS'variable_9'
p1627
ag94
aS'variable_10'
p1628
ag96
ag18
aS'if'
p1629
ag5
aS'variable_6'
p1630
ag21
aS'variable_7'
p1631
ag15
aS'variable_0'
p1632
ag7
aS'variable_8'
p1633
ag18
aS'int'
p1634
aS'variable_11'
p1635
ag26
ag33
ag18
aS'variable_3'
p1636
ag7
aS'variable_12'
p1637
ag18
aS'variable_13'
p1638
ag7
aS'variable_14'
p1639
ag18
aS'char'
p1640
aS'variable_15'
p1641
ag94
aS'variable_10'
p1642
ag96
ag18
aS'variable_8'
p1643
ag26
aS'func_19'
p1644
ag5
ag28
ag28
ag15
ag18
aS'variable_5'
p1645
ag26
aS'func_20'
p1646
ag5
aS'variable_8'
p1647
ag9
aS'variable_2'
p1648
ag9
ag33
ag9
aS'variable_4'
p1649
ag15
ag18
aS'if'
p1650
ag5
aS'variable_5'
p1651
ag120
ag33
ag15
aS'if'
p1652
ag5
aS'variable_8'
p1653
aS'->'
p1654
aS'variable_4'
p1655
aS'&&'
p1656
aS'variable_8'
p1657
aS'->'
p1658
aS'variable_4'
p1659
aS'->'
p1660
aS'variable_16'
p1661
ag15
aS'variable_11'
p1662
ag26
ag132
ag18
aS'if'
p1663
ag5
aS'variable_11'
p1664
ag15
aS'snprintf'
p1665
ag5
aS'variable_15'
p1666
ag9
aS'sizeof'
p1667
ag5
aS'variable_15'
p1668
ag15
ag9
ag28
ag139
ag140
ag28
ag9
aS'variable_2'
p1669
ag15
ag18
aS'if'
p1670
ag5
ag143
aS'func_21'
p1671
ag5
aS'variable_2'
p1672
ag9
aS'variable_15'
p1673
ag15
ag15
aS'variable_12'
p1674
ag26
aS'func_22'
p1675
ag5
ag28
aS'qcow2'
p1676
ag28
ag15
ag18
aS'variable_14'
p1677
ag26
aS'func_23'
p1678
ag5
ag28
ag28
ag9
aS'variable_12'
p1679
aS'->'
p1680
aS'variable_17'
p1681
ag9
aS'NULL'
p1682
ag15
ag18
aS'variable_5'
p1683
ag26
aS'func_24'
p1684
ag5
aS'variable_12'
p1685
ag9
aS'variable_9'
p1686
ag9
aS'variable_14'
p1687
ag15
ag18
aS'if'
p1688
ag5
aS'variable_5'
p1689
ag120
ag33
ag15
aS'variable_2'
p1690
ag26
aS'variable_9'
p1691
ag18
aS'variable_4'
p1692
ag26
aS'variable_12'
p1693
ag18
aS'variable_1'
p1694
aS'->'
p1695
aS'variable_18'
p1696
ag26
ag132
ag18
aS'if'
p1697
ag5
ag143
aS'variable_4'
p1698
ag15
aS'variable_5'
p1699
ag26
aS'func_25'
p1700
ag5
aS'variable_2'
p1701
ag9
ag21
aS'variable_4'
p1702
ag15
ag18
aS'if'
p1703
ag5
ag143
aS'variable_4'
p1704
ag15
aS'variable_5'
p1705
ag26
aS'func_26'
p1706
ag5
aS'variable_1'
p1707
ag9
aS'variable_2'
p1708
ag9
aS'variable_6'
p1709
ag9
aS'variable_4'
p1710
ag15
ag18
aS'if'
p1711
ag5
aS'variable_5'
p1712
ag120
ag33
ag15
aS'if'
p1713
ag5
ag5
aS'variable_6'
p1714
ag21
aS'variable_19'
p1715
ag15
aS'=='
p1716
ag33
aS'&&'
p1717
aS'variable_1'
p1718
aS'->'
p1719
aS'variable_20'
p1720
ag94
ag33
ag96
aS'!='
p1721
ag195
ag196
ag33
ag195
ag15
aS'char'
p1722
aS'variable_15'
p1723
ag94
aS'variable_10'
p1724
ag96
ag18
aS'int'
p1725
aS'variable_21'
p1726
ag18
aS'variable_3'
p1727
ag7
aS'variable_22'
p1728
ag26
aS'NULL'
p1729
ag18
aS'variable_1'
p1730
aS'->'
p1731
aS'variable_23'
p1732
ag26
aS'func_27'
p1733
ag5
ag28
ag28
ag15
ag18
aS'if'
p1734
ag5
aS'variable_1'
p1735
aS'->'
p1736
aS'variable_24'
p1737
ag94
ag33
ag96
aS'!='
p1738
ag195
ag196
ag33
ag195
ag15
aS'variable_22'
p1739
ag26
aS'func_28'
p1740
ag5
aS'variable_1'
p1741
aS'->'
p1742
aS'variable_24'
p1743
ag15
ag18
aS'variable_21'
p1744
ag26
aS'variable_6'
p1745
ag21
ag221
ag5
aS'variable_25'
p1746
ag223
aS'variable_7'
p1747
ag223
aS'variable_19'
p1748
ag15
ag18
aS'variable_5'
p1749
ag26
aS'func_29'
p1750
ag5
aS'variable_1'
p1751
aS'->'
p1752
aS'variable_23'
p1753
ag9
aS'variable_15'
p1754
ag9
aS'variable_21'
p1755
ag9
aS'variable_22'
p1756
ag15
ag18
aS'if'
p1757
ag5
aS'variable_5'
p1758
ag120
ag33
ag15
aS'if'
p1759
ag5
aS'variable_1'
p1760
aS'->'
p1761
aS'variable_18'
p1762
ag15
aS'variable_1'
p1763
aS'->'
p1764
aS'variable_23'
p1765
aS'->'
p1766
aS'variable_26'
p1767
ag26
aS'variable_1'
p1768
aS'->'
p1769
aS'variable_26'
p1770
ag18
aS'if'
p1771
ag5
aS'variable_1'
p1772
aS'->'
p1773
aS'variable_18'
p1774
ag15
aS'func_30'
p1775
ag5
aS'variable_2'
p1776
ag15
ag18
aa(lp1777
S'int'
p1778
aS'func_0'
p1779
ag5
aS'variable_0'
p1780
ag7
aS'variable_1'
p1781
ag9
aS'const'
p1782
aS'char'
p1783
ag7
aS'variable_2'
p1784
ag9
aS'variable_3'
p1785
ag7
aS'variable_4'
p1786
ag15
aS'int'
p1787
aS'variable_5'
p1788
ag18
aS'char'
p1789
aS'variable_6'
p1790
ag94
aS'variable_7'
p1791
ag96
ag18
aS'if'
p1792
ag5
aS'variable_8'
p1793
ag21
aS'variable_9'
p1794
ag15
aS'variable_0'
p1795
ag7
aS'variable_10'
p1796
ag18
aS'int'
p1797
aS'variable_11'
p1798
ag26
ag33
ag18
aS'variable_3'
p1799
ag7
aS'variable_12'
p1800
ag18
aS'variable_13'
p1801
ag7
aS'variable_14'
p1802
ag18
aS'char'
p1803
aS'variable_15'
p1804
ag94
aS'variable_7'
p1805
ag96
ag18
aS'variable_10'
p1806
ag26
aS'func_1'
p1807
ag5
ag28
ag28
ag15
ag18
aS'variable_5'
p1808
ag26
aS'func_2'
p1809
ag5
aS'variable_10'
p1810
ag9
aS'variable_2'
p1811
ag9
ag33
ag9
aS'variable_4'
p1812
ag15
ag18
aS'if'
p1813
ag5
aS'variable_5'
p1814
ag120
ag33
ag15
aS'if'
p1815
ag5
aS'variable_10'
p1816
aS'->'
p1817
aS'variable_4'
p1818
aS'&&'
p1819
aS'variable_10'
p1820
aS'->'
p1821
aS'variable_4'
p1822
aS'->'
p1823
aS'variable_16'
p1824
ag15
aS'variable_11'
p1825
ag26
ag132
ag18
aS'if'
p1826
ag5
aS'variable_11'
p1827
ag15
aS'snprintf'
p1828
ag5
aS'variable_15'
p1829
ag9
aS'sizeof'
p1830
ag5
aS'variable_15'
p1831
ag15
ag9
ag28
ag139
ag140
ag28
ag9
aS'variable_2'
p1832
ag15
ag18
aS'if'
p1833
ag5
ag143
aS'func_3'
p1834
ag5
aS'variable_2'
p1835
ag9
aS'variable_15'
p1836
ag15
ag15
aS'variable_12'
p1837
ag26
aS'func_4'
p1838
ag5
ag28
aS'qcow2'
p1839
ag28
ag15
ag18
aS'variable_14'
p1840
ag26
aS'func_5'
p1841
ag5
ag28
ag28
ag9
aS'variable_12'
p1842
aS'->'
p1843
aS'variable_17'
p1844
ag9
aS'NULL'
p1845
ag15
ag18
aS'variable_5'
p1846
ag26
aS'func_6'
p1847
ag5
aS'variable_12'
p1848
ag9
aS'variable_6'
p1849
ag9
aS'variable_14'
p1850
ag15
ag18
aS'if'
p1851
ag5
aS'variable_5'
p1852
ag120
ag33
ag15
aS'variable_2'
p1853
ag26
aS'variable_6'
p1854
ag18
aS'variable_4'
p1855
ag26
aS'variable_12'
p1856
ag18
aS'variable_1'
p1857
aS'->'
p1858
aS'variable_18'
p1859
ag26
ag132
ag18
aS'if'
p1860
ag5
ag143
aS'variable_4'
p1861
ag15
aS'variable_5'
p1862
ag26
aS'func_7'
p1863
ag5
aS'variable_2'
p1864
ag9
ag21
aS'variable_4'
p1865
ag15
ag18
aS'if'
p1866
ag5
ag143
aS'variable_4'
p1867
ag15
aS'variable_5'
p1868
ag26
aS'func_8'
p1869
ag5
aS'variable_1'
p1870
ag9
aS'variable_2'
p1871
ag9
aS'variable_8'
p1872
ag9
aS'variable_4'
p1873
ag15
ag18
aS'if'
p1874
ag5
aS'variable_5'
p1875
ag120
ag33
ag15
aS'if'
p1876
ag5
ag5
aS'variable_8'
p1877
ag21
aS'variable_19'
p1878
ag15
aS'=='
p1879
ag33
aS'&&'
p1880
aS'variable_1'
p1881
aS'->'
p1882
aS'variable_20'
p1883
ag94
ag33
ag96
aS'!='
p1884
ag195
ag196
ag33
ag195
ag15
aS'char'
p1885
aS'variable_15'
p1886
ag94
aS'variable_7'
p1887
ag96
ag18
aS'int'
p1888
aS'variable_21'
p1889
ag18
aS'variable_3'
p1890
ag7
aS'variable_22'
p1891
ag26
aS'NULL'
p1892
ag18
aS'variable_1'
p1893
aS'->'
p1894
aS'variable_23'
p1895
ag26
aS'func_9'
p1896
ag5
ag28
ag28
ag15
ag18
aS'if'
p1897
ag5
aS'variable_1'
p1898
aS'->'
p1899
aS'variable_24'
p1900
ag94
ag33
ag96
aS'!='
p1901
ag195
ag196
ag33
ag195
ag15
aS'variable_22'
p1902
ag26
aS'func_10'
p1903
ag5
aS'variable_1'
p1904
aS'->'
p1905
aS'variable_24'
p1906
ag15
ag18
aS'variable_21'
p1907
ag26
aS'variable_8'
p1908
ag21
ag221
ag5
aS'variable_25'
p1909
ag223
aS'variable_9'
p1910
ag223
aS'variable_19'
p1911
ag15
ag18
aS'variable_5'
p1912
ag26
aS'func_11'
p1913
ag5
aS'variable_1'
p1914
aS'->'
p1915
aS'variable_23'
p1916
ag9
aS'variable_15'
p1917
ag9
aS'variable_21'
p1918
ag9
aS'variable_22'
p1919
ag15
ag18
aS'int'
p1920
aS'func_12'
p1921
ag5
aS'variable_0'
p1922
ag7
aS'variable_1'
p1923
ag9
aS'const'
p1924
aS'char'
p1925
ag7
aS'variable_2'
p1926
ag9
aS'variable_3'
p1927
ag7
aS'variable_4'
p1928
ag15
aS'int'
p1929
aS'variable_5'
p1930
ag18
aS'if'
p1931
ag5
aS'variable_8'
p1932
ag21
aS'variable_9'
p1933
ag15
aS'variable_0'
p1934
ag7
aS'variable_10'
p1935
ag18
aS'variable_10'
p1936
ag26
aS'func_13'
p1937
ag5
ag28
ag28
ag15
ag18
aS'variable_5'
p1938
ag26
aS'func_14'
p1939
ag5
aS'variable_10'
p1940
ag9
aS'variable_2'
p1941
ag9
ag33
ag9
aS'variable_4'
p1942
ag15
ag18
aS'int'
p1943
aS'func_15'
p1944
ag5
aS'variable_0'
p1945
ag7
aS'variable_1'
p1946
ag9
aS'const'
p1947
aS'char'
p1948
ag7
aS'variable_2'
p1949
ag9
aS'variable_3'
p1950
ag7
aS'variable_4'
p1951
ag15
aS'int'
p1952
aS'variable_5'
p1953
ag18
aS'char'
p1954
aS'variable_6'
p1955
ag94
aS'variable_7'
p1956
ag96
ag18
aS'if'
p1957
ag5
aS'variable_8'
p1958
ag21
aS'variable_9'
p1959
ag15
aS'variable_0'
p1960
ag7
aS'variable_10'
p1961
ag18
aS'int'
p1962
aS'variable_11'
p1963
ag26
ag33
ag18
aS'variable_3'
p1964
ag7
aS'variable_12'
p1965
ag18
aS'variable_13'
p1966
ag7
aS'variable_14'
p1967
ag18
aS'char'
p1968
aS'variable_15'
p1969
ag94
aS'variable_7'
p1970
ag96
ag18
aS'variable_10'
p1971
ag26
aS'func_16'
p1972
ag5
ag28
ag28
ag15
ag18
aS'variable_5'
p1973
ag26
aS'func_17'
p1974
ag5
aS'variable_10'
p1975
ag9
aS'variable_2'
p1976
ag9
ag33
ag9
aS'variable_4'
p1977
ag15
ag18
aS'if'
p1978
ag5
aS'variable_5'
p1979
ag120
ag33
ag15
aS'if'
p1980
ag5
aS'variable_10'
p1981
aS'->'
p1982
aS'variable_4'
p1983
aS'&&'
p1984
aS'variable_10'
p1985
aS'->'
p1986
aS'variable_4'
p1987
aS'->'
p1988
aS'variable_16'
p1989
ag15
aS'variable_11'
p1990
ag26
ag132
ag18
aS'if'
p1991
ag5
aS'variable_11'
p1992
ag15
aS'snprintf'
p1993
ag5
aS'variable_15'
p1994
ag9
aS'sizeof'
p1995
ag5
aS'variable_15'
p1996
ag15
ag9
ag28
ag139
ag140
ag28
ag9
aS'variable_2'
p1997
ag15
ag18
aS'if'
p1998
ag5
ag143
aS'func_18'
p1999
ag5
aS'variable_2'
p2000
ag9
aS'variable_15'
p2001
ag15
ag15
aS'variable_12'
p2002
ag26
aS'func_19'
p2003
ag5
ag28
aS'qcow2'
p2004
ag28
ag15
ag18
aS'variable_14'
p2005
ag26
aS'func_20'
p2006
ag5
ag28
ag28
ag9
aS'variable_12'
p2007
aS'->'
p2008
aS'variable_17'
p2009
ag9
aS'NULL'
p2010
ag15
ag18
aS'variable_5'
p2011
ag26
aS'func_21'
p2012
ag5
aS'variable_12'
p2013
ag9
aS'variable_6'
p2014
ag9
aS'variable_14'
p2015
ag15
ag18
aS'if'
p2016
ag5
aS'variable_5'
p2017
ag120
ag33
ag15
aS'variable_2'
p2018
ag26
aS'variable_6'
p2019
ag18
aS'variable_4'
p2020
ag26
aS'variable_12'
p2021
ag18
aS'variable_1'
p2022
aS'->'
p2023
aS'variable_18'
p2024
ag26
ag132
ag18
aS'if'
p2025
ag5
ag143
aS'variable_4'
p2026
ag15
aS'variable_5'
p2027
ag26
aS'func_22'
p2028
ag5
aS'variable_2'
p2029
ag9
ag21
aS'variable_4'
p2030
ag15
ag18
aS'if'
p2031
ag5
ag143
aS'variable_4'
p2032
ag15
aS'variable_5'
p2033
ag26
aS'func_23'
p2034
ag5
aS'variable_1'
p2035
ag9
aS'variable_2'
p2036
ag9
aS'variable_8'
p2037
ag9
aS'variable_4'
p2038
ag15
ag18
aS'if'
p2039
ag5
aS'variable_5'
p2040
ag120
ag33
ag15
aS'if'
p2041
ag5
ag5
aS'variable_8'
p2042
ag21
aS'variable_19'
p2043
ag15
aS'=='
p2044
ag33
aS'&&'
p2045
aS'variable_1'
p2046
aS'->'
p2047
aS'variable_20'
p2048
ag94
ag33
ag96
aS'!='
p2049
ag195
ag196
ag33
ag195
ag15
aS'char'
p2050
aS'variable_15'
p2051
ag94
aS'variable_7'
p2052
ag96
ag18
aS'int'
p2053
aS'variable_21'
p2054
ag18
aS'variable_3'
p2055
ag7
aS'variable_22'
p2056
ag26
aS'NULL'
p2057
ag18
aS'variable_1'
p2058
aS'->'
p2059
aS'variable_23'
p2060
ag26
aS'func_24'
p2061
ag5
ag28
ag28
ag15
ag18
aS'if'
p2062
ag5
aS'variable_1'
p2063
aS'->'
p2064
aS'variable_24'
p2065
ag94
ag33
ag96
aS'!='
p2066
ag195
ag196
ag33
ag195
ag15
aS'variable_22'
p2067
ag26
aS'func_25'
p2068
ag5
aS'variable_1'
p2069
aS'->'
p2070
aS'variable_24'
p2071
ag15
ag18
aS'variable_21'
p2072
ag26
aS'variable_8'
p2073
ag21
ag221
ag5
aS'variable_25'
p2074
ag223
aS'variable_9'
p2075
ag223
aS'variable_19'
p2076
ag15
ag18
aS'variable_5'
p2077
ag26
aS'func_26'
p2078
ag5
aS'variable_1'
p2079
aS'->'
p2080
aS'variable_23'
p2081
ag9
aS'variable_15'
p2082
ag9
aS'variable_21'
p2083
ag9
aS'variable_22'
p2084
ag15
ag18
aS'int'
p2085
aS'func_27'
p2086
ag5
aS'variable_0'
p2087
ag7
aS'variable_1'
p2088
ag9
aS'const'
p2089
aS'char'
p2090
ag7
aS'variable_2'
p2091
ag9
aS'variable_3'
p2092
ag7
aS'variable_4'
p2093
ag15
aS'int'
p2094
aS'variable_5'
p2095
ag18
aS'char'
p2096
aS'variable_6'
p2097
ag94
aS'variable_7'
p2098
ag96
ag18
aS'if'
p2099
ag5
aS'variable_8'
p2100
ag21
aS'variable_9'
p2101
ag15
aS'variable_0'
p2102
ag7
aS'variable_10'
p2103
ag18
aS'int'
p2104
aS'variable_11'
p2105
ag26
ag33
ag18
aS'variable_3'
p2106
ag7
aS'variable_12'
p2107
ag18
aS'variable_13'
p2108
ag7
aS'variable_14'
p2109
ag18
aS'char'
p2110
aS'variable_15'
p2111
ag94
aS'variable_7'
p2112
ag96
ag18
aS'variable_10'
p2113
ag26
aS'func_28'
p2114
ag5
ag28
ag28
ag15
ag18
aS'variable_5'
p2115
ag26
aS'func_29'
p2116
ag5
aS'variable_10'
p2117
ag9
aS'variable_2'
p2118
ag9
ag33
ag9
aS'variable_4'
p2119
ag15
ag18
aS'if'
p2120
ag5
aS'variable_5'
p2121
ag120
ag33
ag15
aS'if'
p2122
ag5
aS'variable_10'
p2123
aS'->'
p2124
aS'variable_4'
p2125
aS'&&'
p2126
aS'variable_10'
p2127
aS'->'
p2128
aS'variable_4'
p2129
aS'->'
p2130
aS'variable_16'
p2131
ag15
aS'variable_11'
p2132
ag26
ag132
ag18
aS'if'
p2133
ag5
aS'variable_11'
p2134
ag15
aS'snprintf'
p2135
ag5
aS'variable_15'
p2136
ag9
aS'sizeof'
p2137
ag5
aS'variable_15'
p2138
ag15
ag9
ag28
ag139
ag140
ag28
ag9
aS'variable_2'
p2139
ag15
ag18
aS'if'
p2140
ag5
ag143
aS'func_30'
p2141
ag5
aS'variable_2'
p2142
ag9
aS'variable_15'
p2143
ag15
ag15
aS'variable_12'
p2144
ag26
aS'func_31'
p2145
ag5
ag28
aS'qcow2'
p2146
ag28
ag15
ag18
aS'variable_14'
p2147
ag26
aS'func_32'
p2148
ag5
ag28
ag28
ag9
aS'variable_12'
p2149
aS'->'
p2150
aS'variable_17'
p2151
ag9
aS'NULL'
p2152
ag15
ag18
aS'variable_5'
p2153
ag26
aS'func_33'
p2154
ag5
aS'variable_12'
p2155
ag9
aS'variable_6'
p2156
ag9
aS'variable_14'
p2157
ag15
ag18
aS'if'
p2158
ag5
aS'variable_5'
p2159
ag120
ag33
ag15
aS'variable_2'
p2160
ag26
aS'variable_6'
p2161
ag18
aS'variable_4'
p2162
ag26
aS'variable_12'
p2163
ag18
aS'variable_1'
p2164
aS'->'
p2165
aS'variable_18'
p2166
ag26
ag132
ag18
aS'if'
p2167
ag5
ag143
aS'variable_4'
p2168
ag15
aS'variable_5'
p2169
ag26
aS'func_34'
p2170
ag5
aS'variable_2'
p2171
ag9
ag21
aS'variable_4'
p2172
ag15
ag18
aS'if'
p2173
ag5
ag143
aS'variable_4'
p2174
ag15
aS'variable_5'
p2175
ag26
aS'func_35'
p2176
ag5
aS'variable_1'
p2177
ag9
aS'variable_2'
p2178
ag9
aS'variable_8'
p2179
ag9
aS'variable_4'
p2180
ag15
ag18
aS'if'
p2181
ag5
aS'variable_5'
p2182
ag120
ag33
ag15
aS'if'
p2183
ag5
ag5
aS'variable_8'
p2184
ag21
aS'variable_19'
p2185
ag15
aS'=='
p2186
ag33
aS'&&'
p2187
aS'variable_1'
p2188
aS'->'
p2189
aS'variable_20'
p2190
ag94
ag33
ag96
aS'!='
p2191
ag195
ag196
ag33
ag195
ag15
aS'char'
p2192
aS'variable_15'
p2193
ag94
aS'variable_7'
p2194
ag96
ag18
aS'int'
p2195
aS'variable_21'
p2196
ag18
aS'variable_3'
p2197
ag7
aS'variable_22'
p2198
ag26
aS'NULL'
p2199
ag18
aS'variable_1'
p2200
aS'->'
p2201
aS'variable_23'
p2202
ag26
aS'func_36'
p2203
ag5
ag28
ag28
ag15
ag18
aS'if'
p2204
ag5
aS'variable_1'
p2205
aS'->'
p2206
aS'variable_24'
p2207
ag94
ag33
ag96
aS'!='
p2208
ag195
ag196
ag33
ag195
ag15
aS'variable_22'
p2209
ag26
aS'func_37'
p2210
ag5
aS'variable_1'
p2211
aS'->'
p2212
aS'variable_24'
p2213
ag15
ag18
aS'variable_21'
p2214
ag26
aS'variable_8'
p2215
ag21
ag221
ag5
aS'variable_25'
p2216
ag223
aS'variable_9'
p2217
ag223
aS'variable_19'
p2218
ag15
ag18
aS'variable_5'
p2219
ag26
aS'func_38'
p2220
ag5
aS'variable_1'
p2221
aS'->'
p2222
aS'variable_23'
p2223
ag9
aS'variable_15'
p2224
ag9
aS'variable_21'
p2225
ag9
aS'variable_22'
p2226
ag15
ag18
aS'if'
p2227
ag5
aS'variable_5'
p2228
ag120
ag33
ag15
aS'if'
p2229
ag5
aS'variable_1'
p2230
aS'->'
p2231
aS'variable_18'
p2232
ag15
aS'variable_1'
p2233
aS'->'
p2234
aS'variable_23'
p2235
aS'->'
p2236
aS'variable_26'
p2237
ag26
aS'variable_1'
p2238
aS'->'
p2239
aS'variable_26'
p2240
ag18
aS'if'
p2241
ag5
aS'variable_1'
p2242
aS'->'
p2243
aS'variable_18'
p2244
ag15
aS'func_39'
p2245
ag5
aS'variable_2'
p2246
ag15
ag18
aa(lp2247
S'int'
p2248
aS'func_0'
p2249
ag5
aS'variable_0'
p2250
ag7
aS'variable_1'
p2251
ag9
aS'const'
p2252
aS'char'
p2253
ag7
aS'variable_2'
p2254
ag9
aS'variable_3'
p2255
ag7
aS'variable_4'
p2256
ag15
aS'int'
p2257
aS'variable_5'
p2258
ag18
aS'if'
p2259
ag5
aS'variable_6'
p2260
ag21
aS'variable_7'
p2261
ag15
aS'variable_0'
p2262
ag7
aS'variable_8'
p2263
ag18
aS'variable_8'
p2264
ag26
aS'func_1'
p2265
ag5
ag28
ag28
ag15
ag18
aS'variable_5'
p2266
ag26
aS'func_2'
p2267
ag5
aS'variable_8'
p2268
ag9
aS'variable_2'
p2269
ag9
ag33
ag9
aS'variable_4'
p2270
ag15
ag18
aS'int'
p2271
aS'func_3'
p2272
ag5
aS'variable_0'
p2273
ag7
aS'variable_1'
p2274
ag9
aS'const'
p2275
aS'char'
p2276
ag7
aS'variable_2'
p2277
ag9
aS'variable_3'
p2278
ag7
aS'variable_4'
p2279
ag15
aS'int'
p2280
aS'variable_5'
p2281
ag18
aS'char'
p2282
aS'variable_9'
p2283
ag94
aS'variable_10'
p2284
ag96
ag18
aS'if'
p2285
ag5
aS'variable_6'
p2286
ag21
aS'variable_7'
p2287
ag15
aS'variable_0'
p2288
ag7
aS'variable_8'
p2289
ag18
aS'int'
p2290
aS'variable_11'
p2291
ag26
ag33
ag18
aS'variable_3'
p2292
ag7
aS'variable_12'
p2293
ag18
aS'variable_13'
p2294
ag7
aS'variable_14'
p2295
ag18
aS'char'
p2296
aS'variable_15'
p2297
ag94
aS'variable_10'
p2298
ag96
ag18
aS'variable_8'
p2299
ag26
aS'func_4'
p2300
ag5
ag28
ag28
ag15
ag18
aS'variable_5'
p2301
ag26
aS'func_5'
p2302
ag5
aS'variable_8'
p2303
ag9
aS'variable_2'
p2304
ag9
ag33
ag9
aS'variable_4'
p2305
ag15
ag18
aS'if'
p2306
ag5
aS'variable_5'
p2307
ag120
ag33
ag15
aS'if'
p2308
ag5
aS'variable_8'
p2309
aS'->'
p2310
aS'variable_4'
p2311
aS'&&'
p2312
aS'variable_8'
p2313
aS'->'
p2314
aS'variable_4'
p2315
aS'->'
p2316
aS'variable_16'
p2317
ag15
aS'variable_11'
p2318
ag26
ag132
ag18
aS'if'
p2319
ag5
aS'variable_11'
p2320
ag15
aS'snprintf'
p2321
ag5
aS'variable_15'
p2322
ag9
aS'sizeof'
p2323
ag5
aS'variable_15'
p2324
ag15
ag9
ag28
ag139
ag140
ag28
ag9
aS'variable_2'
p2325
ag15
ag18
aS'if'
p2326
ag5
ag143
aS'func_6'
p2327
ag5
aS'variable_2'
p2328
ag9
aS'variable_15'
p2329
ag15
ag15
aS'variable_12'
p2330
ag26
aS'func_7'
p2331
ag5
ag28
aS'qcow2'
p2332
ag28
ag15
ag18
aS'variable_14'
p2333
ag26
aS'func_8'
p2334
ag5
ag28
ag28
ag9
aS'variable_12'
p2335
aS'->'
p2336
aS'variable_17'
p2337
ag9
aS'NULL'
p2338
ag15
ag18
aS'variable_5'
p2339
ag26
aS'func_9'
p2340
ag5
aS'variable_12'
p2341
ag9
aS'variable_9'
p2342
ag9
aS'variable_14'
p2343
ag15
ag18
aS'if'
p2344
ag5
aS'variable_5'
p2345
ag120
ag33
ag15
aS'variable_2'
p2346
ag26
aS'variable_9'
p2347
ag18
aS'variable_4'
p2348
ag26
aS'variable_12'
p2349
ag18
aS'variable_1'
p2350
aS'->'
p2351
aS'variable_18'
p2352
ag26
ag132
ag18
aS'if'
p2353
ag5
ag143
aS'variable_4'
p2354
ag15
aS'variable_5'
p2355
ag26
aS'func_10'
p2356
ag5
aS'variable_2'
p2357
ag9
ag21
aS'variable_4'
p2358
ag15
ag18
aS'if'
p2359
ag5
ag143
aS'variable_4'
p2360
ag15
aS'variable_5'
p2361
ag26
aS'func_11'
p2362
ag5
aS'variable_1'
p2363
ag9
aS'variable_2'
p2364
ag9
aS'variable_6'
p2365
ag9
aS'variable_4'
p2366
ag15
ag18
aS'if'
p2367
ag5
aS'variable_5'
p2368
ag120
ag33
ag15
aS'if'
p2369
ag5
ag5
aS'variable_6'
p2370
ag21
aS'variable_19'
p2371
ag15
aS'=='
p2372
ag33
aS'&&'
p2373
aS'variable_1'
p2374
aS'->'
p2375
aS'variable_20'
p2376
ag94
ag33
ag96
aS'!='
p2377
ag195
ag196
ag33
ag195
ag15
aS'char'
p2378
aS'variable_15'
p2379
ag94
aS'variable_10'
p2380
ag96
ag18
aS'int'
p2381
aS'variable_21'
p2382
ag18
aS'variable_3'
p2383
ag7
aS'variable_22'
p2384
ag26
aS'NULL'
p2385
ag18
aS'variable_1'
p2386
aS'->'
p2387
aS'variable_23'
p2388
ag26
aS'func_12'
p2389
ag5
ag28
ag28
ag15
ag18
aS'if'
p2390
ag5
aS'variable_1'
p2391
aS'->'
p2392
aS'variable_24'
p2393
ag94
ag33
ag96
aS'!='
p2394
ag195
ag196
ag33
ag195
ag15
aS'variable_22'
p2395
ag26
aS'func_13'
p2396
ag5
aS'variable_1'
p2397
aS'->'
p2398
aS'variable_24'
p2399
ag15
ag18
aS'variable_21'
p2400
ag26
aS'variable_6'
p2401
ag21
ag221
ag5
aS'variable_25'
p2402
ag223
aS'variable_7'
p2403
ag223
aS'variable_19'
p2404
ag15
ag18
aS'variable_5'
p2405
ag26
aS'func_14'
p2406
ag5
aS'variable_1'
p2407
aS'->'
p2408
aS'variable_23'
p2409
ag9
aS'variable_15'
p2410
ag9
aS'variable_21'
p2411
ag9
aS'variable_22'
p2412
ag15
ag18
aS'int'
p2413
aS'func_15'
p2414
ag5
aS'variable_0'
p2415
ag7
aS'variable_1'
p2416
ag9
aS'const'
p2417
aS'char'
p2418
ag7
aS'variable_2'
p2419
ag9
aS'variable_3'
p2420
ag7
aS'variable_4'
p2421
ag15
aS'int'
p2422
aS'variable_5'
p2423
ag18
aS'char'
p2424
aS'variable_9'
p2425
ag94
aS'variable_10'
p2426
ag96
ag18
aS'if'
p2427
ag5
aS'variable_6'
p2428
ag21
aS'variable_7'
p2429
ag15
aS'variable_0'
p2430
ag7
aS'variable_8'
p2431
ag18
aS'int'
p2432
aS'variable_11'
p2433
ag26
ag33
ag18
aS'variable_3'
p2434
ag7
aS'variable_12'
p2435
ag18
aS'variable_13'
p2436
ag7
aS'variable_14'
p2437
ag18
aS'char'
p2438
aS'variable_15'
p2439
ag94
aS'variable_10'
p2440
ag96
ag18
aS'variable_8'
p2441
ag26
aS'func_16'
p2442
ag5
ag28
ag28
ag15
ag18
aS'variable_5'
p2443
ag26
aS'func_17'
p2444
ag5
aS'variable_8'
p2445
ag9
aS'variable_2'
p2446
ag9
ag33
ag9
aS'variable_4'
p2447
ag15
ag18
aS'if'
p2448
ag5
aS'variable_5'
p2449
ag120
ag33
ag15
aS'if'
p2450
ag5
aS'variable_8'
p2451
aS'->'
p2452
aS'variable_4'
p2453
aS'&&'
p2454
aS'variable_8'
p2455
aS'->'
p2456
aS'variable_4'
p2457
aS'->'
p2458
aS'variable_16'
p2459
ag15
aS'variable_11'
p2460
ag26
ag132
ag18
aS'if'
p2461
ag5
aS'variable_11'
p2462
ag15
aS'snprintf'
p2463
ag5
aS'variable_15'
p2464
ag9
aS'sizeof'
p2465
ag5
aS'variable_15'
p2466
ag15
ag9
ag28
ag139
ag140
ag28
ag9
aS'variable_2'
p2467
ag15
ag18
aS'if'
p2468
ag5
ag143
aS'func_18'
p2469
ag5
aS'variable_2'
p2470
ag9
aS'variable_15'
p2471
ag15
ag15
aS'variable_12'
p2472
ag26
aS'func_19'
p2473
ag5
ag28
aS'qcow2'
p2474
ag28
ag15
ag18
aS'variable_14'
p2475
ag26
aS'func_20'
p2476
ag5
ag28
ag28
ag9
aS'variable_12'
p2477
aS'->'
p2478
aS'variable_17'
p2479
ag9
aS'NULL'
p2480
ag15
ag18
aS'variable_5'
p2481
ag26
aS'func_21'
p2482
ag5
aS'variable_12'
p2483
ag9
aS'variable_9'
p2484
ag9
aS'variable_14'
p2485
ag15
ag18
aS'if'
p2486
ag5
aS'variable_5'
p2487
ag120
ag33
ag15
aS'variable_2'
p2488
ag26
aS'variable_9'
p2489
ag18
aS'variable_4'
p2490
ag26
aS'variable_12'
p2491
ag18
aS'variable_1'
p2492
aS'->'
p2493
aS'variable_18'
p2494
ag26
ag132
ag18
aS'if'
p2495
ag5
ag143
aS'variable_4'
p2496
ag15
aS'variable_5'
p2497
ag26
aS'func_22'
p2498
ag5
aS'variable_2'
p2499
ag9
ag21
aS'variable_4'
p2500
ag15
ag18
aS'if'
p2501
ag5
ag143
aS'variable_4'
p2502
ag15
aS'variable_5'
p2503
ag26
aS'func_23'
p2504
ag5
aS'variable_1'
p2505
ag9
aS'variable_2'
p2506
ag9
aS'variable_6'
p2507
ag9
aS'variable_4'
p2508
ag15
ag18
aS'if'
p2509
ag5
aS'variable_5'
p2510
ag120
ag33
ag15
aS'if'
p2511
ag5
ag5
aS'variable_6'
p2512
ag21
aS'variable_19'
p2513
ag15
aS'=='
p2514
ag33
aS'&&'
p2515
aS'variable_1'
p2516
aS'->'
p2517
aS'variable_20'
p2518
ag94
ag33
ag96
aS'!='
p2519
ag195
ag196
ag33
ag195
ag15
aS'char'
p2520
aS'variable_15'
p2521
ag94
aS'variable_10'
p2522
ag96
ag18
aS'int'
p2523
aS'variable_21'
p2524
ag18
aS'variable_3'
p2525
ag7
aS'variable_22'
p2526
ag26
aS'NULL'
p2527
ag18
aS'variable_1'
p2528
aS'->'
p2529
aS'variable_23'
p2530
ag26
aS'func_24'
p2531
ag5
ag28
ag28
ag15
ag18
aS'if'
p2532
ag5
aS'variable_1'
p2533
aS'->'
p2534
aS'variable_24'
p2535
ag94
ag33
ag96
aS'!='
p2536
ag195
ag196
ag33
ag195
ag15
aS'variable_22'
p2537
ag26
aS'func_25'
p2538
ag5
aS'variable_1'
p2539
aS'->'
p2540
aS'variable_24'
p2541
ag15
ag18
aS'variable_21'
p2542
ag26
aS'variable_6'
p2543
ag21
ag221
ag5
aS'variable_25'
p2544
ag223
aS'variable_7'
p2545
ag223
aS'variable_19'
p2546
ag15
ag18
aS'variable_5'
p2547
ag26
aS'func_26'
p2548
ag5
aS'variable_1'
p2549
aS'->'
p2550
aS'variable_23'
p2551
ag9
aS'variable_15'
p2552
ag9
aS'variable_21'
p2553
ag9
aS'variable_22'
p2554
ag15
ag18
aS'int'
p2555
aS'func_27'
p2556
ag5
aS'variable_0'
p2557
ag7
aS'variable_1'
p2558
ag9
aS'const'
p2559
aS'char'
p2560
ag7
aS'variable_2'
p2561
ag9
aS'variable_3'
p2562
ag7
aS'variable_4'
p2563
ag15
aS'int'
p2564
aS'variable_5'
p2565
ag18
aS'char'
p2566
aS'variable_9'
p2567
ag94
aS'variable_10'
p2568
ag96
ag18
aS'if'
p2569
ag5
aS'variable_6'
p2570
ag21
aS'variable_7'
p2571
ag15
aS'variable_0'
p2572
ag7
aS'variable_8'
p2573
ag18
aS'int'
p2574
aS'variable_11'
p2575
ag26
ag33
ag18
aS'variable_3'
p2576
ag7
aS'variable_12'
p2577
ag18
aS'variable_13'
p2578
ag7
aS'variable_14'
p2579
ag18
aS'char'
p2580
aS'variable_15'
p2581
ag94
aS'variable_10'
p2582
ag96
ag18
aS'variable_8'
p2583
ag26
aS'func_28'
p2584
ag5
ag28
ag28
ag15
ag18
aS'variable_5'
p2585
ag26
aS'func_29'
p2586
ag5
aS'variable_8'
p2587
ag9
aS'variable_2'
p2588
ag9
ag33
ag9
aS'variable_4'
p2589
ag15
ag18
aS'if'
p2590
ag5
aS'variable_5'
p2591
ag120
ag33
ag15
aS'if'
p2592
ag5
aS'variable_8'
p2593
aS'->'
p2594
aS'variable_4'
p2595
aS'&&'
p2596
aS'variable_8'
p2597
aS'->'
p2598
aS'variable_4'
p2599
aS'->'
p2600
aS'variable_16'
p2601
ag15
aS'variable_11'
p2602
ag26
ag132
ag18
aS'if'
p2603
ag5
aS'variable_11'
p2604
ag15
aS'snprintf'
p2605
ag5
aS'variable_15'
p2606
ag9
aS'sizeof'
p2607
ag5
aS'variable_15'
p2608
ag15
ag9
ag28
ag139
ag140
ag28
ag9
aS'variable_2'
p2609
ag15
ag18
aS'if'
p2610
ag5
ag143
aS'func_30'
p2611
ag5
aS'variable_2'
p2612
ag9
aS'variable_15'
p2613
ag15
ag15
aS'variable_12'
p2614
ag26
aS'func_31'
p2615
ag5
ag28
aS'qcow2'
p2616
ag28
ag15
ag18
aS'variable_14'
p2617
ag26
aS'func_32'
p2618
ag5
ag28
ag28
ag9
aS'variable_12'
p2619
aS'->'
p2620
aS'variable_17'
p2621
ag9
aS'NULL'
p2622
ag15
ag18
aS'variable_5'
p2623
ag26
aS'func_33'
p2624
ag5
aS'variable_12'
p2625
ag9
aS'variable_9'
p2626
ag9
aS'variable_14'
p2627
ag15
ag18
aS'if'
p2628
ag5
aS'variable_5'
p2629
ag120
ag33
ag15
aS'variable_2'
p2630
ag26
aS'variable_9'
p2631
ag18
aS'variable_4'
p2632
ag26
aS'variable_12'
p2633
ag18
aS'variable_1'
p2634
aS'->'
p2635
aS'variable_18'
p2636
ag26
ag132
ag18
aS'if'
p2637
ag5
ag143
aS'variable_4'
p2638
ag15
aS'variable_5'
p2639
ag26
aS'func_34'
p2640
ag5
aS'variable_2'
p2641
ag9
ag21
aS'variable_4'
p2642
ag15
ag18
aS'if'
p2643
ag5
ag143
aS'variable_4'
p2644
ag15
aS'variable_5'
p2645
ag26
aS'func_35'
p2646
ag5
aS'variable_1'
p2647
ag9
aS'variable_2'
p2648
ag9
aS'variable_6'
p2649
ag9
aS'variable_4'
p2650
ag15
ag18
aS'if'
p2651
ag5
aS'variable_5'
p2652
ag120
ag33
ag15
aS'if'
p2653
ag5
ag5
aS'variable_6'
p2654
ag21
aS'variable_19'
p2655
ag15
aS'=='
p2656
ag33
aS'&&'
p2657
aS'variable_1'
p2658
aS'->'
p2659
aS'variable_20'
p2660
ag94
ag33
ag96
aS'!='
p2661
ag195
ag196
ag33
ag195
ag15
aS'char'
p2662
aS'variable_15'
p2663
ag94
aS'variable_10'
p2664
ag96
ag18
aS'int'
p2665
aS'variable_21'
p2666
ag18
aS'variable_3'
p2667
ag7
aS'variable_22'
p2668
ag26
aS'NULL'
p2669
ag18
aS'variable_1'
p2670
aS'->'
p2671
aS'variable_23'
p2672
ag26
aS'func_36'
p2673
ag5
ag28
ag28
ag15
ag18
aS'if'
p2674
ag5
aS'variable_1'
p2675
aS'->'
p2676
aS'variable_24'
p2677
ag94
ag33
ag96
aS'!='
p2678
ag195
ag196
ag33
ag195
ag15
aS'variable_22'
p2679
ag26
aS'func_37'
p2680
ag5
aS'variable_1'
p2681
aS'->'
p2682
aS'variable_24'
p2683
ag15
ag18
aS'variable_21'
p2684
ag26
aS'variable_6'
p2685
ag21
ag221
ag5
aS'variable_25'
p2686
ag223
aS'variable_7'
p2687
ag223
aS'variable_19'
p2688
ag15
ag18
aS'variable_5'
p2689
ag26
aS'func_38'
p2690
ag5
aS'variable_1'
p2691
aS'->'
p2692
aS'variable_23'
p2693
ag9
aS'variable_15'
p2694
ag9
aS'variable_21'
p2695
ag9
aS'variable_22'
p2696
ag15
ag18
aS'if'
p2697
ag5
aS'variable_5'
p2698
ag120
ag33
ag15
aS'if'
p2699
ag5
aS'variable_1'
p2700
aS'->'
p2701
aS'variable_18'
p2702
ag15
aS'variable_1'
p2703
aS'->'
p2704
aS'variable_23'
p2705
aS'->'
p2706
aS'variable_26'
p2707
ag26
aS'variable_1'
p2708
aS'->'
p2709
aS'variable_26'
p2710
ag18
aS'if'
p2711
ag5
aS'variable_1'
p2712
aS'->'
p2713
aS'variable_18'
p2714
ag15
aS'func_39'
p2715
ag5
aS'variable_2'
p2716
ag15
ag18
aa(lp2717
S'int'
p2718
aS'func_0'
p2719
ag5
aS'variable_0'
p2720
ag7
aS'variable_1'
p2721
ag9
aS'const'
p2722
aS'char'
p2723
ag7
aS'variable_2'
p2724
ag9
aS'variable_3'
p2725
ag7
aS'variable_4'
p2726
ag15
aS'int'
p2727
aS'variable_5'
p2728
ag18
aS'char'
p2729
aS'variable_6'
p2730
ag94
aS'variable_7'
p2731
ag96
ag18
aS'if'
p2732
ag5
aS'variable_8'
p2733
ag21
aS'variable_9'
p2734
ag15
aS'variable_0'
p2735
ag7
aS'variable_10'
p2736
ag18
aS'int'
p2737
aS'variable_11'
p2738
ag26
ag33
ag18
aS'variable_3'
p2739
ag7
aS'variable_12'
p2740
ag18
aS'variable_13'
p2741
ag7
aS'variable_14'
p2742
ag18
aS'char'
p2743
aS'variable_15'
p2744
ag94
aS'variable_7'
p2745
ag96
ag18
aS'variable_10'
p2746
ag26
aS'func_1'
p2747
ag5
ag28
ag28
ag15
ag18
aS'variable_5'
p2748
ag26
aS'func_2'
p2749
ag5
aS'variable_10'
p2750
ag9
aS'variable_2'
p2751
ag9
ag33
ag9
aS'variable_4'
p2752
ag15
ag18
aS'if'
p2753
ag5
aS'variable_5'
p2754
ag120
ag33
ag15
aS'if'
p2755
ag5
aS'variable_10'
p2756
aS'->'
p2757
aS'variable_4'
p2758
aS'&&'
p2759
aS'variable_10'
p2760
aS'->'
p2761
aS'variable_4'
p2762
aS'->'
p2763
aS'variable_16'
p2764
ag15
aS'variable_11'
p2765
ag26
ag132
ag18
aS'if'
p2766
ag5
aS'variable_11'
p2767
ag15
aS'snprintf'
p2768
ag5
aS'variable_15'
p2769
ag9
aS'sizeof'
p2770
ag5
aS'variable_15'
p2771
ag15
ag9
ag28
ag139
ag140
ag28
ag9
aS'variable_2'
p2772
ag15
ag18
aS'if'
p2773
ag5
ag143
aS'func_3'
p2774
ag5
aS'variable_2'
p2775
ag9
aS'variable_15'
p2776
ag15
ag15
aS'variable_12'
p2777
ag26
aS'func_4'
p2778
ag5
ag28
aS'qcow2'
p2779
ag28
ag15
ag18
aS'variable_14'
p2780
ag26
aS'func_5'
p2781
ag5
ag28
ag28
ag9
aS'variable_12'
p2782
aS'->'
p2783
aS'variable_17'
p2784
ag9
aS'NULL'
p2785
ag15
ag18
aS'variable_5'
p2786
ag26
aS'func_6'
p2787
ag5
aS'variable_12'
p2788
ag9
aS'variable_6'
p2789
ag9
aS'variable_14'
p2790
ag15
ag18
aS'if'
p2791
ag5
aS'variable_5'
p2792
ag120
ag33
ag15
aS'variable_2'
p2793
ag26
aS'variable_6'
p2794
ag18
aS'variable_4'
p2795
ag26
aS'variable_12'
p2796
ag18
aS'variable_1'
p2797
aS'->'
p2798
aS'variable_18'
p2799
ag26
ag132
ag18
aS'if'
p2800
ag5
ag143
aS'variable_4'
p2801
ag15
aS'variable_5'
p2802
ag26
aS'func_7'
p2803
ag5
aS'variable_2'
p2804
ag9
ag21
aS'variable_4'
p2805
ag15
ag18
aS'if'
p2806
ag5
ag143
aS'variable_4'
p2807
ag15
aS'variable_5'
p2808
ag26
aS'func_8'
p2809
ag5
aS'variable_1'
p2810
ag9
aS'variable_2'
p2811
ag9
aS'variable_8'
p2812
ag9
aS'variable_4'
p2813
ag15
ag18
aS'if'
p2814
ag5
aS'variable_5'
p2815
ag120
ag33
ag15
aS'if'
p2816
ag5
ag5
aS'variable_8'
p2817
ag21
aS'variable_19'
p2818
ag15
aS'=='
p2819
ag33
aS'&&'
p2820
aS'variable_1'
p2821
aS'->'
p2822
aS'variable_20'
p2823
ag94
ag33
ag96
aS'!='
p2824
ag195
ag196
ag33
ag195
ag15
aS'char'
p2825
aS'variable_15'
p2826
ag94
aS'variable_7'
p2827
ag96
ag18
aS'int'
p2828
aS'variable_21'
p2829
ag18
aS'variable_3'
p2830
ag7
aS'variable_22'
p2831
ag26
aS'NULL'
p2832
ag18
aS'variable_1'
p2833
aS'->'
p2834
aS'variable_23'
p2835
ag26
aS'func_9'
p2836
ag5
ag28
ag28
ag15
ag18
aS'if'
p2837
ag5
aS'variable_1'
p2838
aS'->'
p2839
aS'variable_24'
p2840
ag94
ag33
ag96
aS'!='
p2841
ag195
ag196
ag33
ag195
ag15
aS'variable_22'
p2842
ag26
aS'func_10'
p2843
ag5
aS'variable_1'
p2844
aS'->'
p2845
aS'variable_24'
p2846
ag15
ag18
aS'variable_21'
p2847
ag26
aS'variable_8'
p2848
ag21
ag221
ag5
aS'variable_25'
p2849
ag223
aS'variable_9'
p2850
ag223
aS'variable_19'
p2851
ag15
ag18
aS'variable_5'
p2852
ag26
aS'func_11'
p2853
ag5
aS'variable_1'
p2854
aS'->'
p2855
aS'variable_23'
p2856
ag9
aS'variable_15'
p2857
ag9
aS'variable_21'
p2858
ag9
aS'variable_22'
p2859
ag15
ag18
aS'int'
p2860
aS'func_12'
p2861
ag5
aS'variable_0'
p2862
ag7
aS'variable_1'
p2863
ag9
aS'const'
p2864
aS'char'
p2865
ag7
aS'variable_2'
p2866
ag9
aS'variable_3'
p2867
ag7
aS'variable_4'
p2868
ag15
aS'int'
p2869
aS'variable_5'
p2870
ag18
aS'char'
p2871
aS'variable_6'
p2872
ag94
aS'variable_7'
p2873
ag96
ag18
aS'if'
p2874
ag5
aS'variable_8'
p2875
ag21
aS'variable_9'
p2876
ag15
aS'variable_0'
p2877
ag7
aS'variable_10'
p2878
ag18
aS'int'
p2879
aS'variable_11'
p2880
ag26
ag33
ag18
aS'variable_3'
p2881
ag7
aS'variable_12'
p2882
ag18
aS'variable_13'
p2883
ag7
aS'variable_14'
p2884
ag18
aS'char'
p2885
aS'variable_15'
p2886
ag94
aS'variable_7'
p2887
ag96
ag18
aS'variable_10'
p2888
ag26
aS'func_13'
p2889
ag5
ag28
ag28
ag15
ag18
aS'variable_5'
p2890
ag26
aS'func_14'
p2891
ag5
aS'variable_10'
p2892
ag9
aS'variable_2'
p2893
ag9
ag33
ag9
aS'variable_4'
p2894
ag15
ag18
aS'if'
p2895
ag5
aS'variable_5'
p2896
ag120
ag33
ag15
aS'if'
p2897
ag5
aS'variable_10'
p2898
aS'->'
p2899
aS'variable_4'
p2900
aS'&&'
p2901
aS'variable_10'
p2902
aS'->'
p2903
aS'variable_4'
p2904
aS'->'
p2905
aS'variable_16'
p2906
ag15
aS'variable_11'
p2907
ag26
ag132
ag18
aS'if'
p2908
ag5
aS'variable_11'
p2909
ag15
aS'snprintf'
p2910
ag5
aS'variable_15'
p2911
ag9
aS'sizeof'
p2912
ag5
aS'variable_15'
p2913
ag15
ag9
ag28
ag139
ag140
ag28
ag9
aS'variable_2'
p2914
ag15
ag18
aS'if'
p2915
ag5
ag143
aS'func_15'
p2916
ag5
aS'variable_2'
p2917
ag9
aS'variable_15'
p2918
ag15
ag15
aS'variable_12'
p2919
ag26
aS'func_16'
p2920
ag5
ag28
aS'qcow2'
p2921
ag28
ag15
ag18
aS'variable_14'
p2922
ag26
aS'func_17'
p2923
ag5
ag28
ag28
ag9
aS'variable_12'
p2924
aS'->'
p2925
aS'variable_17'
p2926
ag9
aS'NULL'
p2927
ag15
ag18
aS'variable_5'
p2928
ag26
aS'func_18'
p2929
ag5
aS'variable_12'
p2930
ag9
aS'variable_6'
p2931
ag9
aS'variable_14'
p2932
ag15
ag18
aS'if'
p2933
ag5
aS'variable_5'
p2934
ag120
ag33
ag15
aS'variable_2'
p2935
ag26
aS'variable_6'
p2936
ag18
aS'variable_4'
p2937
ag26
aS'variable_12'
p2938
ag18
aS'variable_1'
p2939
aS'->'
p2940
aS'variable_18'
p2941
ag26
ag132
ag18
aS'if'
p2942
ag5
ag143
aS'variable_4'
p2943
ag15
aS'variable_5'
p2944
ag26
aS'func_19'
p2945
ag5
aS'variable_2'
p2946
ag9
ag21
aS'variable_4'
p2947
ag15
ag18
aS'if'
p2948
ag5
ag143
aS'variable_4'
p2949
ag15
aS'variable_5'
p2950
ag26
aS'func_20'
p2951
ag5
aS'variable_1'
p2952
ag9
aS'variable_2'
p2953
ag9
aS'variable_8'
p2954
ag9
aS'variable_4'
p2955
ag15
ag18
aS'if'
p2956
ag5
aS'variable_5'
p2957
ag120
ag33
ag15
aS'if'
p2958
ag5
ag5
aS'variable_8'
p2959
ag21
aS'variable_19'
p2960
ag15
aS'=='
p2961
ag33
aS'&&'
p2962
aS'variable_1'
p2963
aS'->'
p2964
aS'variable_20'
p2965
ag94
ag33
ag96
aS'!='
p2966
ag195
ag196
ag33
ag195
ag15
aS'char'
p2967
aS'variable_15'
p2968
ag94
aS'variable_7'
p2969
ag96
ag18
aS'int'
p2970
aS'variable_21'
p2971
ag18
aS'variable_3'
p2972
ag7
aS'variable_22'
p2973
ag26
aS'NULL'
p2974
ag18
aS'variable_1'
p2975
aS'->'
p2976
aS'variable_23'
p2977
ag26
aS'func_21'
p2978
ag5
ag28
ag28
ag15
ag18
aS'if'
p2979
ag5
aS'variable_1'
p2980
aS'->'
p2981
aS'variable_24'
p2982
ag94
ag33
ag96
aS'!='
p2983
ag195
ag196
ag33
ag195
ag15
aS'variable_22'
p2984
ag26
aS'func_22'
p2985
ag5
aS'variable_1'
p2986
aS'->'
p2987
aS'variable_24'
p2988
ag15
ag18
aS'variable_21'
p2989
ag26
aS'variable_8'
p2990
ag21
ag221
ag5
aS'variable_25'
p2991
ag223
aS'variable_9'
p2992
ag223
aS'variable_19'
p2993
ag15
ag18
aS'variable_5'
p2994
ag26
aS'func_23'
p2995
ag5
aS'variable_1'
p2996
aS'->'
p2997
aS'variable_23'
p2998
ag9
aS'variable_15'
p2999
ag9
aS'variable_21'
p3000
ag9
aS'variable_22'
p3001
ag15
ag18
aS'int'
p3002
aS'func_24'
p3003
ag5
aS'variable_0'
p3004
ag7
aS'variable_1'
p3005
ag9
aS'const'
p3006
aS'char'
p3007
ag7
aS'variable_2'
p3008
ag9
aS'variable_3'
p3009
ag7
aS'variable_4'
p3010
ag15
aS'int'
p3011
aS'variable_5'
p3012
ag18
aS'char'
p3013
aS'variable_6'
p3014
ag94
aS'variable_7'
p3015
ag96
ag18
aS'if'
p3016
ag5
aS'variable_8'
p3017
ag21
aS'variable_9'
p3018
ag15
aS'variable_0'
p3019
ag7
aS'variable_10'
p3020
ag18
aS'int'
p3021
aS'variable_11'
p3022
ag26
ag33
ag18
aS'variable_3'
p3023
ag7
aS'variable_12'
p3024
ag18
aS'variable_13'
p3025
ag7
aS'variable_14'
p3026
ag18
aS'char'
p3027
aS'variable_15'
p3028
ag94
aS'variable_7'
p3029
ag96
ag18
aS'variable_10'
p3030
ag26
aS'func_25'
p3031
ag5
ag28
ag28
ag15
ag18
aS'variable_5'
p3032
ag26
aS'func_26'
p3033
ag5
aS'variable_10'
p3034
ag9
aS'variable_2'
p3035
ag9
ag33
ag9
aS'variable_4'
p3036
ag15
ag18
aS'if'
p3037
ag5
aS'variable_5'
p3038
ag120
ag33
ag15
aS'if'
p3039
ag5
aS'variable_10'
p3040
aS'->'
p3041
aS'variable_4'
p3042
aS'&&'
p3043
aS'variable_10'
p3044
aS'->'
p3045
aS'variable_4'
p3046
aS'->'
p3047
aS'variable_16'
p3048
ag15
aS'variable_11'
p3049
ag26
ag132
ag18
aS'if'
p3050
ag5
aS'variable_11'
p3051
ag15
aS'snprintf'
p3052
ag5
aS'variable_15'
p3053
ag9
aS'sizeof'
p3054
ag5
aS'variable_15'
p3055
ag15
ag9
ag28
ag139
ag140
ag28
ag9
aS'variable_2'
p3056
ag15
ag18
aS'if'
p3057
ag5
ag143
aS'func_27'
p3058
ag5
aS'variable_2'
p3059
ag9
aS'variable_15'
p3060
ag15
ag15
aS'variable_12'
p3061
ag26
aS'func_28'
p3062
ag5
ag28
aS'qcow2'
p3063
ag28
ag15
ag18
aS'variable_14'
p3064
ag26
aS'func_29'
p3065
ag5
ag28
ag28
ag9
aS'variable_12'
p3066
aS'->'
p3067
aS'variable_17'
p3068
ag9
aS'NULL'
p3069
ag15
ag18
aS'variable_5'
p3070
ag26
aS'func_30'
p3071
ag5
aS'variable_12'
p3072
ag9
aS'variable_6'
p3073
ag9
aS'variable_14'
p3074
ag15
ag18
aS'if'
p3075
ag5
aS'variable_5'
p3076
ag120
ag33
ag15
aS'variable_2'
p3077
ag26
aS'variable_6'
p3078
ag18
aS'variable_4'
p3079
ag26
aS'variable_12'
p3080
ag18
aS'variable_1'
p3081
aS'->'
p3082
aS'variable_18'
p3083
ag26
ag132
ag18
aS'if'
p3084
ag5
ag143
aS'variable_4'
p3085
ag15
aS'variable_5'
p3086
ag26
aS'func_31'
p3087
ag5
aS'variable_2'
p3088
ag9
ag21
aS'variable_4'
p3089
ag15
ag18
aS'if'
p3090
ag5
ag143
aS'variable_4'
p3091
ag15
aS'variable_5'
p3092
ag26
aS'func_32'
p3093
ag5
aS'variable_1'
p3094
ag9
aS'variable_2'
p3095
ag9
aS'variable_8'
p3096
ag9
aS'variable_4'
p3097
ag15
ag18
aS'if'
p3098
ag5
aS'variable_5'
p3099
ag120
ag33
ag15
aS'if'
p3100
ag5
ag5
aS'variable_8'
p3101
ag21
aS'variable_19'
p3102
ag15
aS'=='
p3103
ag33
aS'&&'
p3104
aS'variable_1'
p3105
aS'->'
p3106
aS'variable_20'
p3107
ag94
ag33
ag96
aS'!='
p3108
ag195
ag196
ag33
ag195
ag15
aS'char'
p3109
aS'variable_15'
p3110
ag94
aS'variable_7'
p3111
ag96
ag18
aS'int'
p3112
aS'variable_21'
p3113
ag18
aS'variable_3'
p3114
ag7
aS'variable_22'
p3115
ag26
aS'NULL'
p3116
ag18
aS'variable_1'
p3117
aS'->'
p3118
aS'variable_23'
p3119
ag26
aS'func_33'
p3120
ag5
ag28
ag28
ag15
ag18
aS'if'
p3121
ag5
aS'variable_1'
p3122
aS'->'
p3123
aS'variable_24'
p3124
ag94
ag33
ag96
aS'!='
p3125
ag195
ag196
ag33
ag195
ag15
aS'variable_22'
p3126
ag26
aS'func_34'
p3127
ag5
aS'variable_1'
p3128
aS'->'
p3129
aS'variable_24'
p3130
ag15
ag18
aS'variable_21'
p3131
ag26
aS'variable_8'
p3132
ag21
ag221
ag5
aS'variable_25'
p3133
ag223
aS'variable_9'
p3134
ag223
aS'variable_19'
p3135
ag15
ag18
aS'variable_5'
p3136
ag26
aS'func_35'
p3137
ag5
aS'variable_1'
p3138
aS'->'
p3139
aS'variable_23'
p3140
ag9
aS'variable_15'
p3141
ag9
aS'variable_21'
p3142
ag9
aS'variable_22'
p3143
ag15
ag18
aS'int'
p3144
aS'func_36'
p3145
ag5
aS'variable_0'
p3146
ag7
aS'variable_1'
p3147
ag9
aS'const'
p3148
aS'char'
p3149
ag7
aS'variable_2'
p3150
ag9
aS'variable_3'
p3151
ag7
aS'variable_4'
p3152
ag15
aS'int'
p3153
aS'variable_5'
p3154
ag18
aS'char'
p3155
aS'variable_6'
p3156
ag94
aS'variable_7'
p3157
ag96
ag18
aS'if'
p3158
ag5
aS'variable_8'
p3159
ag21
aS'variable_9'
p3160
ag15
aS'variable_0'
p3161
ag7
aS'variable_10'
p3162
ag18
aS'int'
p3163
aS'variable_11'
p3164
ag26
ag33
ag18
aS'variable_3'
p3165
ag7
aS'variable_12'
p3166
ag18
aS'variable_13'
p3167
ag7
aS'variable_14'
p3168
ag18
aS'char'
p3169
aS'variable_15'
p3170
ag94
aS'variable_7'
p3171
ag96
ag18
aS'variable_10'
p3172
ag26
aS'func_37'
p3173
ag5
ag28
ag28
ag15
ag18
aS'variable_5'
p3174
ag26
aS'func_38'
p3175
ag5
aS'variable_10'
p3176
ag9
aS'variable_2'
p3177
ag9
ag33
ag9
aS'variable_4'
p3178
ag15
ag18
aS'if'
p3179
ag5
aS'variable_5'
p3180
ag120
ag33
ag15
aS'if'
p3181
ag5
aS'variable_10'
p3182
aS'->'
p3183
aS'variable_4'
p3184
aS'&&'
p3185
aS'variable_10'
p3186
aS'->'
p3187
aS'variable_4'
p3188
aS'->'
p3189
aS'variable_16'
p3190
ag15
aS'variable_11'
p3191
ag26
ag132
ag18
aS'if'
p3192
ag5
aS'variable_11'
p3193
ag15
aS'snprintf'
p3194
ag5
aS'variable_15'
p3195
ag9
aS'sizeof'
p3196
ag5
aS'variable_15'
p3197
ag15
ag9
ag28
ag139
ag140
ag28
ag9
aS'variable_2'
p3198
ag15
ag18
aS'if'
p3199
ag5
ag143
aS'func_39'
p3200
ag5
aS'variable_2'
p3201
ag9
aS'variable_15'
p3202
ag15
ag15
aS'variable_12'
p3203
ag26
aS'func_40'
p3204
ag5
ag28
aS'qcow2'
p3205
ag28
ag15
ag18
aS'variable_14'
p3206
ag26
aS'func_41'
p3207
ag5
ag28
ag28
ag9
aS'variable_12'
p3208
aS'->'
p3209
aS'variable_17'
p3210
ag9
aS'NULL'
p3211
ag15
ag18
aS'variable_5'
p3212
ag26
aS'func_42'
p3213
ag5
aS'variable_12'
p3214
ag9
aS'variable_6'
p3215
ag9
aS'variable_14'
p3216
ag15
ag18
aS'if'
p3217
ag5
aS'variable_5'
p3218
ag120
ag33
ag15
aS'variable_2'
p3219
ag26
aS'variable_6'
p3220
ag18
aS'variable_4'
p3221
ag26
aS'variable_12'
p3222
ag18
aS'variable_1'
p3223
aS'->'
p3224
aS'variable_18'
p3225
ag26
ag132
ag18
aS'if'
p3226
ag5
ag143
aS'variable_4'
p3227
ag15
aS'variable_5'
p3228
ag26
aS'func_43'
p3229
ag5
aS'variable_2'
p3230
ag9
ag21
aS'variable_4'
p3231
ag15
ag18
aS'if'
p3232
ag5
ag143
aS'variable_4'
p3233
ag15
aS'variable_5'
p3234
ag26
aS'func_44'
p3235
ag5
aS'variable_1'
p3236
ag9
aS'variable_2'
p3237
ag9
aS'variable_8'
p3238
ag9
aS'variable_4'
p3239
ag15
ag18
aS'if'
p3240
ag5
aS'variable_5'
p3241
ag120
ag33
ag15
aS'if'
p3242
ag5
ag5
aS'variable_8'
p3243
ag21
aS'variable_19'
p3244
ag15
aS'=='
p3245
ag33
aS'&&'
p3246
aS'variable_1'
p3247
aS'->'
p3248
aS'variable_20'
p3249
ag94
ag33
ag96
aS'!='
p3250
ag195
ag196
ag33
ag195
ag15
aS'char'
p3251
aS'variable_15'
p3252
ag94
aS'variable_7'
p3253
ag96
ag18
aS'int'
p3254
aS'variable_21'
p3255
ag18
aS'variable_3'
p3256
ag7
aS'variable_22'
p3257
ag26
aS'NULL'
p3258
ag18
aS'variable_1'
p3259
aS'->'
p3260
aS'variable_23'
p3261
ag26
aS'func_45'
p3262
ag5
ag28
ag28
ag15
ag18
aS'if'
p3263
ag5
aS'variable_1'
p3264
aS'->'
p3265
aS'variable_24'
p3266
ag94
ag33
ag96
aS'!='
p3267
ag195
ag196
ag33
ag195
ag15
aS'variable_22'
p3268
ag26
aS'func_46'
p3269
ag5
aS'variable_1'
p3270
aS'->'
p3271
aS'variable_24'
p3272
ag15
ag18
aS'variable_21'
p3273
ag26
aS'variable_8'
p3274
ag21
ag221
ag5
aS'variable_25'
p3275
ag223
aS'variable_9'
p3276
ag223
aS'variable_19'
p3277
ag15
ag18
aS'variable_5'
p3278
ag26
aS'func_47'
p3279
ag5
aS'variable_1'
p3280
aS'->'
p3281
aS'variable_23'
p3282
ag9
aS'variable_15'
p3283
ag9
aS'variable_21'
p3284
ag9
aS'variable_22'
p3285
ag15
ag18
aS'if'
p3286
ag5
aS'variable_5'
p3287
ag120
ag33
ag15
aS'if'
p3288
ag5
aS'variable_1'
p3289
aS'->'
p3290
aS'variable_18'
p3291
ag15
aS'variable_1'
p3292
aS'->'
p3293
aS'variable_23'
p3294
aS'->'
p3295
aS'variable_26'
p3296
ag26
aS'variable_1'
p3297
aS'->'
p3298
aS'variable_26'
p3299
ag18
aS'if'
p3300
ag5
aS'variable_1'
p3301
aS'->'
p3302
aS'variable_18'
p3303
ag15
aS'func_48'
p3304
ag5
aS'variable_2'
p3305
ag15
ag18
aaa(lp3306
I0
aI0
aI0
aI0
aI0
aI0
aI0
aI0
aa(lp3307
I497
aI766
aI766
aI1035
aI766
aI1035
aI1035
aI1304
aa(lp3308
(lp3309
S'main'
p3310
aa(lp3311
g3310
aa(lp3312
g3310
aa(lp3313
g3310
aa(lp3314
g3310
aa(lp3315
g3310
aa(lp3316
g3310
aa(lp3317
g3310
aaa(lp3318
S'303 /home/SySeVR/data/CVE_2012_2652_VULN_bdrv_open.c unlink 123'
p3319
aS'304 /home/SySeVR/data/CVE_2012_2652_VULN_bdrv_open.c unlink 123'
p3320
aS'305 /home/SySeVR/data/CVE_2012_2652_VULN_bdrv_open.c unlink 123'
p3321
aS'306 /home/SySeVR/data/CVE_2012_2652_VULN_bdrv_open.c unlink 123'
p3322
aS'307 /home/SySeVR/data/CVE_2012_2652_VULN_bdrv_open.c unlink 123'
p3323
aS'308 /home/SySeVR/data/CVE_2012_2652_VULN_bdrv_open.c unlink 123'
p3324
aS'309 /home/SySeVR/data/CVE_2012_2652_VULN_bdrv_open.c unlink 123'
p3325
aS'310 /home/SySeVR/data/CVE_2012_2652_VULN_bdrv_open.c unlink 123'
p3326
aa.