(lp0
(lp1
(lp2
S'static'
p3
aS'int'
p4
aS'func_0'
p5
aS'('
p6
aS'variable_0'
p7
aS'*'
p8
aS'variable_1'
p9
aS')'
p10
aS'int'
p11
aS'variable_2'
p12
aS';'
p13
aS'if'
p14
ag6
aS'!'
p15
aS'variable_1'
p16
aS'->'
p17
aS'variable_3'
p18
aS'||'
p19
aS'variable_1'
p20
aS'->'
p21
aS'variable_4'
p22
aS'<'
p23
aS'variable_1'
p24
aS'->'
p25
aS'variable_5'
p26
aS'||'
p27
aS'variable_1'
p28
aS'->'
p29
aS'variable_6'
p30
ag23
aS'variable_1'
p31
aS'->'
p32
aS'variable_7'
p33
ag10
aS'variable_1'
p34
aS'->'
p35
aS'variable_8'
p36
aS'='
p37
aS'func_1'
p38
ag6
aS'variable_1'
p39
aS'->'
p40
aS'variable_5'
p41
aS'+'
p42
aS'15'
p43
aS','
p44
aS'16'
p45
ag10
ag8
aS'3'
p46
ag13
aS'variable_2'
p47
ag37
aS'variable_1'
p48
aS'->'
p49
aS'variable_7'
p50
ag42
aS'15'
p51
ag13
aS'variable_1'
p52
aS'->'
p53
aS'variable_3'
p54
ag37
aS'func_2'
p55
ag6
aS'variable_1'
p56
aS'->'
p57
aS'variable_8'
p58
ag8
aS'variable_2'
p59
ag10
ag13
aS'if'
p60
ag6
ag15
aS'variable_1'
p61
aS'->'
p62
aS'variable_3'
p63
ag10
aS'if'
p64
ag6
ag15
aS'variable_1'
p65
aS'->'
p66
aS'variable_9'
p67
aS'||'
p68
ag15
aS'variable_1'
p69
aS'->'
p70
aS'variable_10'
p71
aS'||'
p72
aS'variable_1'
p73
aS'->'
p74
aS'variable_11'
p75
ag23
aS'variable_1'
p76
aS'->'
p77
aS'variable_12'
p78
aS'||'
p79
aS'variable_1'
p80
aS'->'
p81
aS'variable_13'
p82
ag23
aS'variable_1'
p83
aS'->'
p84
aS'variable_14'
p85
ag10
aS'variable_1'
p86
aS'->'
p87
aS'variable_15'
p88
ag37
aS'func_3'
p89
ag6
aS'variable_1'
p90
aS'->'
p91
aS'variable_12'
p92
ag8
ag46
ag44
aS'16'
p93
ag10
ag13
aS'variable_2'
p94
ag37
aS'func_4'
p95
ag6
aS'variable_1'
p96
aS'->'
p97
aS'variable_14'
p98
ag44
aS'16'
p99
ag10
ag13
aS'variable_1'
p100
aS'->'
p101
aS'variable_9'
p102
ag37
aS'func_5'
p103
ag6
aS'variable_1'
p104
aS'->'
p105
aS'variable_15'
p106
ag8
aS'variable_2'
p107
ag10
ag13
aS'variable_1'
p108
aS'->'
p109
aS'variable_10'
p110
ag37
aS'func_6'
p111
ag6
aS'variable_1'
p112
aS'->'
p113
aS'variable_15'
p114
ag8
aS'variable_2'
p115
ag10
ag13
aS'variable_1'
p116
aS'->'
p117
aS'variable_16'
p118
ag37
aS'func_7'
p119
ag6
ag6
aS'variable_1'
p120
aS'->'
p121
aS'variable_12'
p122
ag42
aS'1'
p123
ag10
ag8
aS'variable_2'
p124
ag42
aS'variable_17'
p125
ag10
ag13
aS'variable_1'
p126
aS'->'
p127
aS'variable_18'
p128
ag37
aS'func_8'
p129
ag6
aS'variable_1'
p130
aS'->'
p131
aS'variable_12'
p132
ag8
aS'variable_2'
p133
ag10
ag13
aS'if'
p134
ag6
ag15
aS'variable_1'
p135
aS'->'
p136
aS'variable_9'
p137
aS'||'
p138
ag15
aS'variable_1'
p139
aS'->'
p140
aS'variable_10'
p141
aS'||'
p142
ag15
aS'variable_1'
p143
aS'->'
p144
aS'variable_16'
p145
aS'||'
p146
ag15
aS'variable_1'
p147
aS'->'
p148
aS'variable_18'
p149
ag10
aa(lp150
S'static'
p151
aS'int'
p152
aS'func_0'
p153
ag6
aS'variable_0'
p154
ag8
aS'variable_1'
p155
ag10
aS'int'
p156
aS'variable_2'
p157
ag13
aS'if'
p158
ag6
ag15
aS'variable_1'
p159
aS'->'
p160
aS'variable_3'
p161
aS'||'
p162
aS'variable_1'
p163
aS'->'
p164
aS'variable_4'
p165
ag23
aS'variable_1'
p166
aS'->'
p167
aS'variable_5'
p168
aS'||'
p169
aS'variable_1'
p170
aS'->'
p171
aS'variable_6'
p172
ag23
aS'variable_1'
p173
aS'->'
p174
aS'variable_7'
p175
ag10
aS'variable_1'
p176
aS'->'
p177
aS'variable_8'
p178
ag37
aS'func_1'
p179
ag6
aS'variable_1'
p180
aS'->'
p181
aS'variable_5'
p182
ag42
aS'15'
p183
ag44
aS'16'
p184
ag10
ag8
ag46
ag13
aS'variable_2'
p185
ag37
aS'variable_1'
p186
aS'->'
p187
aS'variable_7'
p188
ag42
aS'15'
p189
ag13
aS'variable_1'
p190
aS'->'
p191
aS'variable_3'
p192
ag37
aS'func_2'
p193
ag6
aS'variable_1'
p194
aS'->'
p195
aS'variable_8'
p196
ag8
aS'variable_2'
p197
ag10
ag13
aS'if'
p198
ag6
ag15
aS'variable_1'
p199
aS'->'
p200
aS'variable_3'
p201
ag10
aS'if'
p202
ag6
ag15
aS'variable_1'
p203
aS'->'
p204
aS'variable_9'
p205
aS'||'
p206
ag15
aS'variable_1'
p207
aS'->'
p208
aS'variable_10'
p209
aS'||'
p210
aS'variable_1'
p211
aS'->'
p212
aS'variable_11'
p213
ag23
aS'variable_1'
p214
aS'->'
p215
aS'variable_12'
p216
aS'||'
p217
aS'variable_1'
p218
aS'->'
p219
aS'variable_13'
p220
ag23
aS'variable_1'
p221
aS'->'
p222
aS'variable_14'
p223
ag10
aS'variable_1'
p224
aS'->'
p225
aS'variable_15'
p226
ag37
aS'func_3'
p227
ag6
aS'variable_1'
p228
aS'->'
p229
aS'variable_12'
p230
ag8
ag46
ag44
aS'16'
p231
ag10
ag13
aS'variable_2'
p232
ag37
aS'func_4'
p233
ag6
aS'variable_1'
p234
aS'->'
p235
aS'variable_14'
p236
ag44
aS'16'
p237
ag10
ag13
aS'func_5'
p238
ag6
aS'variable_1'
p239
aS'->'
p240
aS'variable_9'
p241
ag10
ag13
aS'func_6'
p242
ag6
aS'variable_1'
p243
aS'->'
p244
aS'variable_10'
p245
ag10
ag13
aS'func_7'
p246
ag6
aS'variable_1'
p247
aS'->'
p248
aS'variable_16'
p249
ag10
ag13
aS'func_8'
p250
ag6
aS'variable_1'
p251
aS'->'
p252
aS'variable_17'
p253
ag10
ag13
aS'variable_1'
p254
aS'->'
p255
aS'variable_9'
p256
ag37
aS'func_9'
p257
ag6
aS'variable_1'
p258
aS'->'
p259
aS'variable_15'
p260
ag8
aS'variable_2'
p261
ag10
ag13
aS'variable_1'
p262
aS'->'
p263
aS'variable_10'
p264
ag37
aS'func_10'
p265
ag6
aS'variable_1'
p266
aS'->'
p267
aS'variable_15'
p268
ag8
aS'variable_2'
p269
ag10
ag13
aS'variable_1'
p270
aS'->'
p271
aS'variable_16'
p272
ag37
aS'func_11'
p273
ag6
ag6
aS'variable_1'
p274
aS'->'
p275
aS'variable_12'
p276
ag42
ag123
ag10
ag8
aS'variable_2'
p277
ag42
aS'variable_18'
p278
ag10
ag13
aS'variable_1'
p279
aS'->'
p280
aS'variable_17'
p281
ag37
aS'func_12'
p282
ag6
aS'variable_1'
p283
aS'->'
p284
aS'variable_12'
p285
ag8
aS'variable_2'
p286
ag10
ag13
aS'if'
p287
ag6
ag15
aS'variable_1'
p288
aS'->'
p289
aS'variable_9'
p290
aS'||'
p291
ag15
aS'variable_1'
p292
aS'->'
p293
aS'variable_10'
p294
aS'||'
p295
ag15
aS'variable_1'
p296
aS'->'
p297
aS'variable_16'
p298
aS'||'
p299
ag15
aS'variable_1'
p300
aS'->'
p301
aS'variable_17'
p302
ag10
aaa(lp303
I0
aI0
aa(lp304
I189
aI70
aa(lp305
(lp306
S'main'
p307
aa(lp308
g307
aaa(lp309
S'582 /home/SySeVR/data/CVE_2013_7022_PATCHED_g2m_init_buffers.c c -> kempf_flags = av_mallocz ( c -> tile_width * aligned_height ) 26'
p310
aS'586 /home/SySeVR/data/CVE_2013_7022_PATCHED_g2m_init_buffers.c c -> framebuf = av_mallocz ( c -> framebuf_stride * aligned_height ) 9'
p311
aa.