(lp0
(lp1
(lp2
S'func_0'
p3
aS'('
p4
aS'const'
p5
aS'unsigned'
p6
aS'int'
p7
aS'variable_0'
p8
aS','
p9
aS'struct'
p10
aS'variable_1'
p11
aS'*'
p12
aS'variable_2'
p13
ag9
aS'struct'
p14
aS'variable_3'
p15
ag12
aS'variable_4'
p16
ag9
aS'const'
p17
aS'struct'
p18
aS'variable_5'
p19
ag12
aS'variable_6'
p20
aS')'
p21
aS'int'
p22
aS'variable_7'
p23
aS';'
p24
aS'if'
p25
ag4
ag4
aS'variable_2'
p26
aS'->'
p27
aS'variable_8'
p28
ag21
aS'&&'
p29
aS'variable_9'
p30
ag21
aS'if'
p31
ag4
aS'variable_4'
p32
aS'&&'
p33
aS'variable_4'
p34
aS'->'
p35
aS'variable_10'
p36
ag21
aS'variable_11'
p37
aS'='
p38
aS'kmalloc'
p39
ag4
aS'variable_12'
p40
ag12
aS'2'
p41
ag9
aS'variable_13'
p42
ag21
ag24
aS'if'
p43
ag4
aS'variable_11'
p44
aS'=='
p45
aS'NULL'
p46
ag21
aS'variable_7'
p47
ag38
aS'func_1'
p48
ag4
aS'variable_11'
p49
ag9
aS'variable_9'
p50
ag9
aS'strlen'
p51
ag4
aS'variable_9'
p52
ag21
ag9
aS'variable_6'
p53
ag21
aS'+'
p54
aS'1'
p55
ag24
aS'variable_7'
p56
ag12
ag38
ag41
ag24
aS'if'
p57
ag4
aS'variable_7'
p58
aS'<'
p59
ag41
ag21
aS'variable_14'
p60
aS'->'
p61
aS'variable_15'
p62
ag38
aS'func_2'
p63
ag4
aS'variable_7'
p64
aS'-'
p65
ag41
ag21
ag24
aS'variable_16'
p66
aS'['
p67
ag55
aS']'
p68
aS'.'
p69
aS'variable_17'
p70
ag38
aS'variable_7'
p71
ag24
aS'func_3'
p72
ag4
aS'variable_14'
p73
ag9
aS'variable_7'
p74
ag65
ag55
ag21
ag24
aS'variable_18'
p75
ag38
aS'func_4'
p76
ag4
aS'variable_0'
p77
ag9
aS'variable_2'
p78
ag9
aS'variable_16'
p79
ag9
ag41
ag9
aS'&'
p80
aS'variable_19'
p81
ag9
aS'0'
p82
ag21
ag24
aS'variable_20'
p83
ag38
ag4
aS'struct'
p84
aS'smb2_tree_connect_rsp'
p85
ag12
ag21
aS'variable_16'
p86
ag67
ag82
ag68
ag69
aS'variable_21'
p87
ag24
aS'if'
p88
ag4
aS'variable_18'
p89
aS'!='
p90
ag82
ag21
aS'variable_2'
p91
aS'->'
p92
aS'variable_22'
p93
ag38
aS'variable_20'
p94
aS'->'
p95
aS'variable_23'
p96
ag69
aS'variable_24'
p97
ag24
aS'if'
p98
ag4
aS'variable_20'
p99
aS'->'
p100
aS'variable_25'
p101
ag80
aS'variable_26'
p102
ag21
aS'if'
p103
ag4
aS'variable_20'
p104
aS'->'
p105
aS'variable_25'
p106
ag80
aS'variable_27'
p107
ag21
aS'if'
p108
ag4
aS'variable_20'
p109
aS'->'
p110
aS'variable_25'
p111
ag80
aS'variable_28'
p112
ag21
aS'func_5'
p113
ag4
aS'variable_29'
p114
ag9
aS'"'
p115
aS'unknown'
p116
aS'share'
p117
aS'type'
p118
aS'%'
p119
aS'd'
p120
aS'\\'
p121
aS'n'
p122
ag115
ag9
aS'variable_20'
p123
aS'->'
p124
aS'variable_25'
p125
ag21
ag24
aS'variable_4'
p126
aS'->'
p127
aS'variable_30'
p128
ag38
aS'func_6'
p129
ag4
aS'variable_20'
p130
aS'->'
p131
aS'variable_31'
p132
ag21
ag24
aS'variable_4'
p133
aS'->'
p134
aS'variable_32'
p135
ag38
aS'variable_20'
p136
aS'->'
p137
aS'variable_33'
p138
ag24
aS'variable_4'
p139
aS'->'
p140
aS'variable_34'
p141
ag38
aS'func_7'
p142
ag4
aS'variable_20'
p143
aS'->'
p144
aS'variable_35'
p145
ag21
ag24
aS'variable_4'
p146
aS'->'
p147
aS'variable_36'
p148
ag38
aS'variable_37'
p149
ag24
aS'variable_4'
p150
aS'->'
p151
aS'variable_38'
p152
ag38
aS'false'
p153
ag24
aS'variable_4'
p154
aS'->'
p155
aS'variable_39'
p156
ag38
aS'variable_20'
p157
aS'->'
p158
aS'variable_23'
p159
ag69
aS'variable_24'
p160
ag24
aS'func_8'
p161
ag4
aS'variable_4'
p162
aS'->'
p163
aS'variable_40'
p164
ag9
aS'variable_9'
p165
ag9
aS'sizeof'
p166
ag4
aS'variable_4'
p167
aS'->'
p168
aS'variable_40'
p169
ag21
ag21
ag24
aS'if'
p170
ag4
ag4
aS'variable_20'
p171
aS'->'
p172
aS'variable_33'
p173
ag80
aS'variable_41'
p174
ag21
aS'&&'
p175
ag4
ag4
aS'variable_4'
p176
aS'->'
p177
aS'variable_30'
p178
ag80
aS'variable_42'
p179
ag21
aS'=='
p180
ag82
ag21
ag21
aS'func_9'
p181
ag4
aS'variable_4'
p182
ag21
ag24
aS'if'
p183
ag4
aS'variable_4'
p184
aS'->'
p185
aS'variable_2'
p186
aS'->'
p187
aS'variable_8'
p188
aS'->'
p189
aS'variable_43'
p190
aS'->'
p191
aS'variable_44'
p192
ag21
aS'variable_18'
p193
ag38
aS'variable_4'
p194
aS'->'
p195
aS'variable_2'
p196
aS'->'
p197
aS'variable_8'
p198
aS'->'
p199
aS'variable_43'
p200
aS'->'
p201
aS'func_10'
p202
ag4
aS'variable_0'
p203
ag9
aS'variable_4'
p204
ag21
ag24
aS'func_11'
p205
ag4
aS'variable_19'
p206
ag9
aS'variable_20'
p207
ag21
ag24
aS'return'
p208
aS'variable_18'
p209
ag24
aS'if'
p210
ag4
aS'variable_20'
p211
aS'->'
p212
aS'variable_23'
p213
ag69
aS'variable_45'
p214
aS'=='
p215
aS'variable_46'
p216
ag21
aaa(lp217
I0
aa(lp218
I70
aa(lp219
(lp220
S'main'
p221
aaa(lp222
S'298 /home/SySeVR/data/CVE_2014_7145_PATCHED_SMB2_tcon.c strlen 28'
p223
aa.