(lp0
(lp1
(lp2
S'static'
p3
aS'int'
p4
aS'func_0'
p5
aS'('
p6
aS'struct'
p7
aS'variable_0'
p8
aS'*'
p9
aS'variable_1'
p10
aS','
p11
aS'struct'
p12
aS'variable_2'
p13
ag9
aS'variable_3'
p14
aS')'
p15
aS'if'
p16
ag6
aS'func_1'
p17
ag6
aS'variable_3'
p18
ag11
aS'variable_4'
p19
ag11
aS'variable_5'
p20
aS'->'
p21
aS'variable_6'
p22
ag15
ag15
aS'if'
p23
ag6
aS'variable_5'
p24
aS'->'
p25
aS'variable_7'
p26
aS'&'
p27
aS'variable_8'
p28
ag15
aS'struct'
p29
aS'crypto_report_larval'
p30
aS'variable_9'
p31
aS';'
p32
aS'strncpy'
p33
ag6
aS'variable_9'
p34
aS'.'
p35
aS'variable_10'
p36
ag11
aS'"'
p37
aS'larval'
p38
ag37
ag11
aS'sizeof'
p39
ag6
aS'variable_9'
p40
ag35
aS'variable_10'
p41
ag15
ag15
ag32
aS'if'
p42
ag6
aS'func_2'
p43
ag6
aS'variable_3'
p44
ag11
aS'variable_11'
p45
ag11
aS'sizeof'
p46
ag6
aS'struct'
p47
aS'variable_12'
p48
ag15
ag11
ag27
aS'variable_9'
p49
ag15
ag15
aa(lp50
S'static'
p51
aS'int'
p52
aS'func_0'
p53
ag6
aS'struct'
p54
aS'variable_0'
p55
ag9
aS'variable_1'
p56
ag11
aS'struct'
p57
aS'variable_2'
p58
ag9
aS'variable_3'
p59
ag15
aS'strncpy'
p60
ag6
aS'variable_1'
p61
aS'->'
p62
aS'variable_4'
p63
ag11
aS'variable_5'
p64
aS'->'
p65
aS'variable_6'
p66
ag11
aS'sizeof'
p67
ag6
aS'variable_1'
p68
aS'->'
p69
aS'variable_4'
p70
ag15
ag15
ag32
aS'strncpy'
p71
ag6
aS'variable_1'
p72
aS'->'
p73
aS'variable_7'
p74
ag11
aS'variable_5'
p75
aS'->'
p76
aS'variable_8'
p77
ag11
aS'sizeof'
p78
ag6
aS'variable_1'
p79
aS'->'
p80
aS'variable_7'
p81
ag15
ag15
ag32
aS'strncpy'
p82
ag6
aS'variable_1'
p83
aS'->'
p84
aS'variable_9'
p85
ag11
aS'func_1'
p86
ag6
aS'variable_5'
p87
aS'->'
p88
aS'variable_10'
p89
ag15
ag11
aS'sizeof'
p90
ag6
aS'variable_1'
p91
aS'->'
p92
aS'variable_9'
p93
ag15
ag15
ag32
aS'variable_1'
p94
aS'->'
p95
aS'variable_11'
p96
aS'='
p97
aS'0'
p98
ag32
aS'variable_1'
p99
aS'->'
p100
aS'variable_12'
p101
ag97
ag98
ag32
aS'variable_1'
p102
aS'->'
p103
aS'variable_13'
p104
ag97
aS'variable_5'
p105
aS'->'
p106
aS'variable_14'
p107
ag32
aS'variable_1'
p108
aS'->'
p109
aS'variable_15'
p110
ag97
aS'func_2'
p111
ag6
ag27
aS'variable_5'
p112
aS'->'
p113
aS'variable_16'
p114
ag15
ag32
aaa(lp115
I0
aI0
aa(lp116
I40
aI51
aa(lp117
(lp118
S'main'
p119
aa(lp120
g119
aaa(lp121
S'355 /home/SySeVR/data/CVE_2013_2547_PATCHED_crypto_report_one.c strncpy 20'
p122
aS'356 /home/SySeVR/data/CVE_2013_2547_PATCHED_crypto_report_one.c strncpy 7'
p123
aa.