(lp0
(lp1
(lp2
S'func_0'
p3
aS'('
p4
aS'struct'
p5
aS'variable_0'
p6
aS'*'
p7
aS'variable_1'
p8
aS','
p9
aS'char'
p10
ag7
aS'variable_2'
p11
ag9
aS'const'
p12
aS'char'
p13
ag7
aS'variable_3'
p14
aS')'
p15
aS'int'
p16
aS'variable_4'
p17
aS';'
p18
aS'int'
p19
aS'variable_5'
p20
ag18
aS'struct'
p21
aS'variable_6'
p22
ag7
aS'variable_7'
p23
ag18
aS'struct'
p24
aS'variable_8'
p25
ag7
aS'variable_9'
p26
ag18
aS'struct'
p27
aS'variable_10'
p28
ag7
aS'variable_11'
p29
ag18
aS'struct'
p30
aS'variable_12'
p31
ag7
aS'variable_13'
p32
ag18
aS'char'
p33
ag7
aS'variable_14'
p34
ag18
aS'char'
p35
ag7
aS'variable_15'
p36
aS'='
p37
aS'variable_2'
p38
ag18
aS'struct'
p39
aS'variable_16'
p40
ag7
aS'variable_17'
p41
ag18
aS'struct'
p42
aS'variable_18'
p43
ag7
aS'variable_19'
p44
ag37
aS'NULL'
p45
ag18
aS'unsigned'
p46
aS'int'
p47
aS'variable_20'
p48
ag37
aS'0'
p49
ag18
aS'int'
p50
aS'variable_21'
p51
ag37
ag49
ag18
aS'variable_4'
p52
ag37
ag49
ag18
aS'variable_17'
p53
ag37
aS'NULL'
p54
ag18
aS'variable_5'
p55
ag37
aS'func_1'
p56
ag4
ag15
ag18
aS'variable_7'
p57
ag37
aS'func_2'
p58
ag4
aS'sizeof'
p59
ag4
aS'struct'
p60
aS'variable_6'
p61
ag15
ag9
aS'variable_22'
p62
ag15
ag18
aS'if'
p63
ag4
aS'!'
p64
aS'variable_7'
p65
ag15
aS'if'
p66
ag4
aS'func_3'
p67
ag4
aS'variable_15'
p68
ag9
aS'variable_3'
p69
ag9
aS'variable_7'
p70
ag15
ag15
aS'if'
p71
ag4
aS'variable_7'
p72
aS'->'
p73
aS'variable_23'
p74
ag15
aS'variable_7'
p75
aS'->'
p76
aS'variable_24'
p77
ag37
aS'"'
p78
ag78
ag18
aS'if'
p79
ag4
aS'variable_7'
p80
aS'->'
p81
aS'variable_24'
p82
ag15
aS'if'
p83
ag4
aS'variable_7'
p84
aS'->'
p85
aS'variable_25'
p86
aS'=='
p87
aS'NULL'
p88
ag15
aS'variable_7'
p89
aS'->'
p90
aS'variable_26'
p91
ag37
aS'func_4'
p92
ag4
ag15
ag18
aS'variable_7'
p93
aS'->'
p94
aS'variable_26'
p95
ag37
aS'func_5'
p96
ag4
aS'variable_7'
p97
aS'->'
p98
aS'variable_25'
p99
ag15
ag18
aS'if'
p100
ag4
aS'variable_7'
p101
aS'->'
p102
aS'variable_26'
p103
aS'=='
p104
aS'NULL'
p105
ag15
aS'variable_27'
p106
aS'->'
p107
aS'variable_26'
p108
ag37
aS'variable_7'
p109
aS'->'
p110
aS'variable_26'
p111
ag18
aS'variable_13'
p112
ag37
aS'func_6'
p113
ag4
aS'variable_7'
p114
ag15
ag18
aS'if'
p115
ag4
aS'func_7'
p116
ag4
aS'variable_13'
p117
ag15
ag15
aS'variable_9'
p118
ag37
aS'func_8'
p119
ag4
aS'variable_13'
p120
ag9
aS'variable_7'
p121
ag15
ag18
aS'if'
p122
ag4
aS'func_9'
p123
ag4
aS'variable_9'
p124
ag15
ag15
aS'variable_11'
p125
ag37
aS'func_10'
p126
ag4
aS'variable_9'
p127
ag9
aS'variable_7'
p128
ag15
ag18
aS'if'
p129
ag4
aS'func_11'
p130
ag4
aS'variable_11'
p131
ag15
ag15
aS'variable_4'
p132
ag37
aS'func_12'
p133
ag4
aS'variable_11'
p134
ag15
ag18
aS'variable_11'
p135
ag37
aS'NULL'
p136
ag18
aS'if'
p137
ag4
aS'variable_11'
p138
aS'->'
p139
aS'variable_28'
p140
aS'->'
p141
aS'variable_29'
p142
aS'&'
p143
aS'variable_30'
p144
ag15
aS'variable_11'
p145
aS'->'
p146
aS'variable_31'
p147
ag37
ag49
ag18
aS'if'
p148
ag4
ag4
aS'variable_11'
p149
aS'->'
p150
aS'variable_31'
p151
aS'=='
p152
ag49
ag15
aS'&&'
p153
ag4
aS'variable_27'
p154
aS'->'
p155
aS'variable_32'
p156
aS'>'
p157
ag4
aS'1024'
p158
ag7
aS'127'
p159
ag15
ag15
ag15
aS'variable_27'
p160
aS'->'
p161
aS'variable_32'
p162
ag37
aS'1024'
p163
ag7
aS'127'
p164
ag18
aS'if'
p165
ag4
ag64
ag4
aS'variable_11'
p166
aS'->'
p167
aS'variable_28'
p168
aS'->'
p169
aS'variable_29'
p170
ag143
aS'variable_33'
p171
ag15
ag15
aS'variable_27'
p172
aS'->'
p173
aS'variable_34'
p174
ag37
aS'min'
p175
ag4
aS'variable_27'
p176
aS'->'
p177
aS'variable_34'
p178
ag9
ag4
aS'variable_11'
p179
aS'->'
p180
aS'variable_28'
p181
aS'->'
p182
aS'variable_35'
p183
aS'->'
p184
aS'variable_36'
p185
aS'-'
p186
aS'variable_37'
p187
ag15
ag15
ag18
aS'if'
p188
ag4
ag64
ag4
aS'variable_11'
p189
aS'->'
p190
aS'variable_28'
p191
aS'->'
p192
aS'variable_29'
p193
ag143
aS'variable_38'
p194
ag15
ag15
aS'variable_27'
p195
aS'->'
p196
aS'variable_32'
p197
ag37
aS'min'
p198
ag4
aS'variable_27'
p199
aS'->'
p200
aS'variable_32'
p201
ag9
ag4
aS'variable_11'
p202
aS'->'
p203
aS'variable_28'
p204
aS'->'
p205
aS'variable_35'
p206
aS'->'
p207
aS'variable_36'
p208
ag186
aS'variable_37'
p209
ag15
ag15
ag18
aS'if'
p210
ag4
ag64
aS'variable_4'
p211
aS'&&'
p212
aS'variable_11'
p213
ag15
aS'variable_14'
p214
ag37
aS'func_13'
p215
ag4
aS'variable_27'
p216
ag9
aS'variable_11'
p217
ag15
ag18
aS'if'
p218
ag4
aS'variable_14'
p219
aS'=='
p220
aS'NULL'
p221
ag15
aS'variable_4'
p222
ag37
aS'func_14'
p223
ag4
aS'variable_5'
p224
ag9
aS'variable_11'
p225
ag9
aS'variable_27'
p226
ag9
aS'variable_14'
p227
ag15
ag18
aS'if'
p228
ag4
aS'variable_4'
p229
aS'!='
p230
ag49
aS'&&'
p231
aS'variable_4'
p232
aS'!='
p233
ag186
aS'variable_39'
p234
ag15
aS'if'
p235
ag4
aS'variable_4'
p236
aS'=='
p237
ag186
aS'variable_39'
p238
ag15
aS'if'
p239
ag4
aS'variable_21'
p240
ag157
aS'variable_40'
p241
ag15
aS'variable_14'
p242
ag37
aS'func_15'
p243
ag4
aS'variable_7'
p244
ag9
aS'variable_27'
p245
ag15
ag18
aS'if'
p246
ag4
aS'func_16'
p247
ag4
aS'variable_14'
p248
ag15
ag15
aS'variable_4'
p249
ag37
aS'func_17'
p250
ag4
aS'variable_5'
p251
ag9
aS'variable_9'
p252
ag9
aS'variable_14'
p253
aS'+'
p254
aS'1'
p255
ag9
aS'variable_27'
p256
aS'->'
p257
aS'variable_26'
p258
ag9
ag143
aS'variable_20'
p259
ag9
ag143
aS'variable_19'
p260
ag9
aS'variable_27'
p261
aS'->'
p262
aS'variable_41'
p263
ag143
aS'variable_42'
p264
ag15
ag18
aS'if'
p265
ag4
ag64
aS'variable_4'
p266
aS'&&'
p267
aS'variable_20'
p268
ag157
ag49
ag15
aS'variable_15'
p269
ag37
aS'func_18'
p270
ag4
aS'variable_27'
p271
aS'->'
p272
aS'variable_43'
p273
ag9
aS'variable_14'
p274
ag254
ag255
ag9
aS'variable_19'
p275
ag9
ag143
aS'variable_44'
p276
ag15
ag18
aS'if'
p277
ag4
aS'func_19'
p278
ag4
aS'variable_15'
p279
ag15
ag15
aS'variable_21'
p280
aS'++'
p281
ag18
aS'if'
p282
ag4
aS'variable_4'
p283
ag15
aS'variable_17'
p284
ag37
aS'func_20'
p285
ag4
aS'variable_45'
p286
ag7
aS'variable_17'
p287
ag9
aS'variable_22'
p288
ag15
ag18
aS'if'
p289
ag4
aS'variable_17'
p290
aS'=='
p291
aS'NULL'
p292
ag15
aS'variable_17'
p293
aS'->'
p294
aS'variable_46'
p295
ag37
aS'variable_9'
p296
aS'->'
p297
aS'variable_47'
p298
ag18
aS'variable_17'
p299
aS'->'
p300
aS'variable_48'
p301
ag37
aS'variable_11'
p302
ag18
aS'variable_17'
p303
aS'->'
p304
aS'variable_49'
p305
ag37
aS'variable_50'
p306
ag18
aS'func_21'
p307
ag4
aS'variable_51'
p308
ag9
ag143
aS'variable_17'
p309
aS'->'
p310
aS'variable_52'
p311
ag15
ag18
aS'func_22'
p312
ag4
aS'variable_53'
p313
ag9
ag143
aS'variable_17'
p314
aS'->'
p315
aS'variable_52'
p316
ag15
ag18
aS'variable_27'
p317
aS'->'
p318
aS'variable_54'
p319
ag37
aS'variable_17'
p320
ag18
aS'func_23'
p321
ag4
ag143
aS'variable_27'
p322
aS'->'
p323
aS'variable_55'
p324
ag15
ag18
aS'func_24'
p325
ag4
ag143
aS'variable_27'
p326
aS'->'
p327
aS'variable_56'
p328
ag9
aS'variable_17'
p329
ag15
ag18
aS'func_25'
p330
ag4
ag143
aS'variable_27'
p331
aS'->'
p332
aS'variable_55'
p333
ag15
ag18
aS'func_26'
p334
ag4
aS'variable_57'
p335
ag9
ag143
aS'variable_27'
p336
aS'->'
p337
aS'variable_58'
p338
ag9
aS'variable_59'
p339
ag15
ag18
aa(lp340
S'func_0'
p341
ag4
aS'struct'
p342
aS'variable_0'
p343
ag7
aS'variable_1'
p344
ag9
aS'char'
p345
ag7
aS'variable_2'
p346
ag9
aS'const'
p347
aS'char'
p348
ag7
aS'variable_3'
p349
ag15
aS'int'
p350
aS'variable_4'
p351
ag18
aS'int'
p352
aS'variable_5'
p353
ag18
aS'struct'
p354
aS'variable_6'
p355
ag7
aS'variable_7'
p356
ag18
aS'struct'
p357
aS'variable_8'
p358
ag7
aS'variable_9'
p359
ag18
aS'struct'
p360
aS'variable_10'
p361
ag7
aS'variable_11'
p362
ag18
aS'struct'
p363
aS'variable_12'
p364
ag7
aS'variable_13'
p365
ag18
aS'char'
p366
ag7
aS'variable_14'
p367
ag18
aS'char'
p368
ag7
aS'variable_15'
p369
ag37
aS'variable_2'
p370
ag18
aS'struct'
p371
aS'variable_16'
p372
ag7
aS'variable_17'
p373
ag37
aS'NULL'
p374
ag18
aS'unsigned'
p375
aS'int'
p376
aS'variable_18'
p377
ag37
ag49
ag18
aS'int'
p378
aS'variable_19'
p379
ag37
ag49
ag18
aS'variable_4'
p380
ag37
ag49
ag18
aS'variable_5'
p381
ag37
aS'func_1'
p382
ag4
ag15
ag18
aS'variable_7'
p383
ag37
aS'func_2'
p384
ag4
aS'sizeof'
p385
ag4
aS'struct'
p386
aS'variable_6'
p387
ag15
ag9
aS'variable_20'
p388
ag15
ag18
aS'if'
p389
ag4
ag64
aS'variable_7'
p390
ag15
aS'if'
p391
ag4
aS'func_3'
p392
ag4
aS'variable_15'
p393
ag9
aS'variable_3'
p394
ag9
aS'variable_7'
p395
ag15
ag15
aS'if'
p396
ag4
aS'variable_7'
p397
aS'->'
p398
aS'variable_21'
p399
ag15
aS'variable_7'
p400
aS'->'
p401
aS'variable_22'
p402
ag37
ag78
ag78
ag18
aS'if'
p403
ag4
aS'variable_7'
p404
aS'->'
p405
aS'variable_22'
p406
ag15
aS'if'
p407
ag4
aS'variable_7'
p408
aS'->'
p409
aS'variable_23'
p410
aS'=='
p411
aS'NULL'
p412
ag15
aS'variable_7'
p413
aS'->'
p414
aS'variable_24'
p415
ag37
aS'func_4'
p416
ag4
ag15
ag18
aS'variable_7'
p417
aS'->'
p418
aS'variable_24'
p419
ag37
aS'func_5'
p420
ag4
aS'variable_7'
p421
aS'->'
p422
aS'variable_23'
p423
ag15
ag18
aS'if'
p424
ag4
aS'variable_7'
p425
aS'->'
p426
aS'variable_24'
p427
aS'=='
p428
aS'NULL'
p429
ag15
aS'variable_25'
p430
aS'->'
p431
aS'variable_24'
p432
ag37
aS'variable_7'
p433
aS'->'
p434
aS'variable_24'
p435
ag18
aS'variable_13'
p436
ag37
aS'func_6'
p437
ag4
aS'variable_7'
p438
ag15
ag18
aS'if'
p439
ag4
aS'func_7'
p440
ag4
aS'variable_13'
p441
ag15
ag15
aS'variable_9'
p442
ag37
aS'func_8'
p443
ag4
aS'variable_13'
p444
ag9
aS'variable_7'
p445
ag15
ag18
aS'if'
p446
ag4
aS'func_9'
p447
ag4
aS'variable_9'
p448
ag15
ag15
aS'variable_11'
p449
ag37
aS'func_10'
p450
ag4
aS'variable_9'
p451
ag9
aS'variable_7'
p452
ag15
ag18
aS'if'
p453
ag4
aS'func_11'
p454
ag4
aS'variable_11'
p455
ag15
ag15
aS'variable_4'
p456
ag37
aS'func_12'
p457
ag4
aS'variable_11'
p458
ag15
ag18
aS'variable_11'
p459
ag37
aS'NULL'
p460
ag18
aS'if'
p461
ag4
aS'variable_11'
p462
aS'->'
p463
aS'variable_26'
p464
aS'->'
p465
aS'variable_27'
p466
ag143
aS'variable_28'
p467
ag15
aS'variable_11'
p468
aS'->'
p469
aS'variable_29'
p470
ag37
ag49
ag18
aS'if'
p471
ag4
ag4
aS'variable_11'
p472
aS'->'
p473
aS'variable_29'
p474
aS'=='
p475
ag49
ag15
aS'&&'
p476
ag4
aS'variable_25'
p477
aS'->'
p478
aS'variable_30'
p479
ag157
ag4
aS'1024'
p480
ag7
aS'127'
p481
ag15
ag15
ag15
aS'variable_25'
p482
aS'->'
p483
aS'variable_30'
p484
ag37
aS'1024'
p485
ag7
aS'127'
p486
ag18
aS'if'
p487
ag4
ag64
ag4
aS'variable_11'
p488
aS'->'
p489
aS'variable_26'
p490
aS'->'
p491
aS'variable_27'
p492
ag143
aS'variable_31'
p493
ag15
ag15
aS'variable_25'
p494
aS'->'
p495
aS'variable_32'
p496
ag37
aS'min'
p497
ag4
aS'variable_25'
p498
aS'->'
p499
aS'variable_32'
p500
ag9
ag4
aS'variable_11'
p501
aS'->'
p502
aS'variable_26'
p503
aS'->'
p504
aS'variable_33'
p505
aS'->'
p506
aS'variable_34'
p507
ag186
aS'variable_35'
p508
ag15
ag15
ag18
aS'if'
p509
ag4
ag64
ag4
aS'variable_11'
p510
aS'->'
p511
aS'variable_26'
p512
aS'->'
p513
aS'variable_27'
p514
ag143
aS'variable_36'
p515
ag15
ag15
aS'variable_25'
p516
aS'->'
p517
aS'variable_30'
p518
ag37
aS'min'
p519
ag4
aS'variable_25'
p520
aS'->'
p521
aS'variable_30'
p522
ag9
ag4
aS'variable_11'
p523
aS'->'
p524
aS'variable_26'
p525
aS'->'
p526
aS'variable_33'
p527
aS'->'
p528
aS'variable_34'
p529
ag186
aS'variable_35'
p530
ag15
ag15
ag18
aS'if'
p531
ag4
ag64
aS'variable_4'
p532
aS'&&'
p533
aS'variable_11'
p534
ag15
aS'variable_14'
p535
ag37
aS'func_13'
p536
ag4
aS'variable_25'
p537
ag9
aS'variable_11'
p538
ag15
ag18
aS'if'
p539
ag4
aS'variable_14'
p540
aS'=='
p541
aS'NULL'
p542
ag15
aS'variable_4'
p543
ag37
aS'func_14'
p544
ag4
aS'variable_5'
p545
ag9
aS'variable_11'
p546
ag9
aS'variable_25'
p547
ag9
aS'variable_14'
p548
ag15
ag18
aS'if'
p549
ag4
aS'variable_4'
p550
aS'!='
p551
ag49
aS'&&'
p552
aS'variable_4'
p553
aS'!='
p554
ag186
aS'variable_37'
p555
ag15
aS'kfree'
p556
ag4
aS'variable_14'
p557
ag15
ag18
aS'kfree'
p558
ag4
aS'variable_14'
p559
ag15
ag18
aS'if'
p560
ag4
aS'variable_4'
p561
aS'=='
p562
ag186
aS'variable_37'
p563
ag15
aS'if'
p564
ag4
aS'variable_19'
p565
ag157
aS'variable_38'
p566
ag15
aS'if'
p567
ag4
ag4
aS'variable_25'
p568
aS'->'
p569
aS'variable_39'
p570
ag143
aS'variable_40'
p571
ag15
aS'=='
p572
ag49
ag15
aS'func_15'
p573
ag4
aS'variable_25'
p574
aS'->'
p575
aS'variable_41'
p576
ag9
aS'func_16'
p577
ag4
aS'variable_25'
p578
ag15
ag15
ag18
aS'variable_14'
p579
ag37
aS'func_17'
p580
ag4
aS'variable_7'
p581
ag9
aS'variable_25'
p582
ag15
ag18
aS'if'
p583
ag4
aS'func_18'
p584
ag4
aS'variable_14'
p585
ag15
ag15
aS'variable_4'
p586
ag37
aS'func_19'
p587
ag4
aS'variable_14'
p588
ag15
ag18
aS'func_20'
p589
ag4
ag255
ag9
ag78
aS'Getting'
p590
aS'referral'
p591
aS'for'
p592
aS':'
p593
aS'%'
p594
aS's'
p595
ag78
ag9
aS'variable_14'
p596
ag15
ag18
aS'variable_4'
p597
ag37
aS'func_21'
p598
ag4
aS'variable_5'
p599
ag9
aS'variable_9'
p600
ag9
aS'variable_14'
p601
ag254
ag255
ag9
aS'variable_25'
p602
aS'->'
p603
aS'variable_24'
p604
ag9
ag143
aS'variable_18'
p605
ag9
ag143
aS'variable_17'
p606
ag9
aS'variable_25'
p607
aS'->'
p608
aS'variable_39'
p609
ag143
aS'variable_42'
p610
ag15
ag18
aS'if'
p611
ag4
ag64
aS'variable_4'
p612
aS'&&'
p613
aS'variable_18'
p614
ag157
ag49
ag15
aS'if'
p615
ag4
aS'variable_15'
p616
aS'!='
p617
aS'variable_2'
p618
ag15
aS'kfree'
p619
ag4
aS'variable_15'
p620
ag15
ag18
aS'variable_15'
p621
ag37
aS'func_22'
p622
ag4
aS'variable_25'
p623
aS'->'
p624
aS'variable_43'
p625
ag9
aS'variable_14'
p626
ag254
ag255
ag9
aS'variable_17'
p627
ag9
ag143
aS'variable_44'
p628
ag15
ag18
aS'kfree'
p629
ag4
aS'variable_14'
p630
ag15
ag18
aS'if'
p631
ag4
aS'func_23'
p632
ag4
aS'variable_15'
p633
ag15
ag15
aS'variable_4'
p634
ag37
aS'func_24'
p635
ag4
aS'variable_15'
p636
ag15
ag18
aS'variable_19'
p637
aS'++'
p638
ag18
aS'if'
p639
ag4
aS'variable_4'
p640
ag15
aS'variable_25'
p641
aS'->'
p642
aS'variable_45'
p643
ag37
aS'variable_46'
p644
ag18
aS'func_25'
p645
ag4
ag143
aS'variable_25'
p646
aS'->'
p647
aS'variable_47'
p648
ag15
ag18
aS'func_26'
p649
ag4
ag143
aS'variable_25'
p650
aS'->'
p651
aS'variable_48'
p652
ag9
aS'variable_46'
p653
ag15
ag18
aS'func_27'
p654
ag4
ag143
aS'variable_25'
p655
aS'->'
p656
aS'variable_47'
p657
ag15
ag18
aS'func_28'
p658
ag4
aS'variable_49'
p659
ag9
ag143
aS'variable_25'
p660
aS'->'
p661
aS'variable_50'
p662
ag9
aS'variable_51'
p663
ag15
ag18
aS'if'
p664
ag4
aS'variable_4'
p665
ag15
aS'if'
p666
ag4
aS'variable_15'
p667
aS'!='
p668
aS'variable_2'
p669
ag15
aS'kfree'
p670
ag4
aS'variable_15'
p671
ag15
ag18
aS'return'
p672
aS'variable_4'
p673
ag18
aaa(lp674
I0
aI0
aa(lp675
I510
aI344
aa(lp676
(lp677
S'main'
p678
aa(lp679
g678
aaa(lp680
S'247 /home/SySeVR/data/CVE_2011_3363_PATCHED_cifs_mount.c tlink = kzalloc ( sizeof * tlink , GFP_KERNEL ) 213'
p681
aS'248 /home/SySeVR/data/CVE_2011_3363_PATCHED_cifs_mount.c cifs_sb -> rsize = min ( cifs_sb -> rsize , ( tcon -> ses -> server -> maxBuf - MAX_CIFS_HDR_SIZE ) ) 127'
p682
aa.