(lp0
(lp1
(lp2
S'int'
p3
aS'func_0'
p4
aS'('
p5
aS'variable_0'
p6
aS'*'
p7
aS'variable_1'
p8
aS','
p9
aS'unsigned'
p10
aS'char'
p11
ag7
ag7
aS'variable_2'
p12
ag9
aS'unsigned'
p13
aS'char'
p14
ag7
aS'variable_3'
p15
ag9
aS'int'
p16
aS'variable_4'
p17
ag9
aS'int'
p18
ag7
aS'variable_5'
p19
aS')'
p20
aS'unsigned'
p21
aS'short'
p22
aS'variable_6'
p23
aS';'
p24
aS'unsigned'
p25
aS'short'
p26
aS'variable_7'
p27
ag24
aS'unsigned'
p28
aS'short'
p29
aS'variable_8'
p30
ag24
aS'unsigned'
p31
aS'char'
p32
ag7
aS'variable_9'
p33
aS'='
p34
ag7
aS'variable_2'
p35
ag24
aS'variable_1'
p36
aS'->'
p37
aS'variable_10'
p38
ag34
aS'0'
p39
ag24
aS'variable_1'
p40
aS'->'
p41
aS'variable_11'
p42
ag34
aS'-'
p43
aS'1'
p44
ag24
aS'if'
p45
ag5
aS'variable_9'
p46
aS'>'
p47
ag34
ag5
aS'variable_3'
p48
aS'+'
p49
aS'variable_4'
p50
ag43
aS'2'
p51
ag20
ag20
aS'if'
p52
ag5
aS'variable_9'
p53
ag47
ag5
aS'variable_3'
p54
ag49
aS'variable_4'
p55
ag43
aS'variable_8'
p56
ag20
ag20
aS'while'
p57
ag5
aS'variable_9'
p58
aS'<'
p59
ag34
ag5
aS'variable_3'
p60
ag49
aS'variable_4'
p61
ag43
aS'4'
p62
ag20
ag20
aS'if'
p63
ag5
aS'variable_9'
p64
ag49
aS'variable_7'
p65
ag47
ag5
aS'variable_3'
p66
ag49
aS'variable_4'
p67
ag20
ag20
aS'if'
p68
ag5
aS'variable_6'
p69
aS'=='
p70
aS'variable_12'
p71
ag20
aS'unsigned'
p72
aS'char'
p73
ag7
aS'variable_13'
p74
ag24
aS'int'
p75
aS'variable_14'
p76
ag24
aS'int'
p77
aS'variable_15'
p78
ag24
aS'if'
p79
ag5
aS'variable_7'
p80
ag59
ag51
ag20
aS'variable_7'
p81
aS'-='
p82
ag51
ag24
aS'if'
p83
ag5
aS'variable_15'
p84
ag47
aS'variable_7'
p85
ag20
aS'variable_13'
p86
ag34
aS'variable_9'
p87
ag24
aS'while'
p88
ag5
aS'variable_15'
p89
ag47
aS'3'
p90
ag20
aS'variable_14'
p91
ag34
ag7
ag5
aS'variable_13'
p92
aS'++'
p93
ag20
ag24
aS'variable_15'
p94
aS'-='
p95
ag90
ag24
aS'if'
p96
ag5
aS'variable_8'
p97
ag47
aS'variable_15'
p98
ag20
aS'if'
p99
ag5
aS'variable_1'
p100
aS'->'
p101
aS'variable_10'
p102
aS'=='
p103
ag39
ag20
aS'switch'
p104
ag5
aS'variable_14'
p105
ag20
aS'if'
p106
ag5
aS'variable_1'
p107
aS'->'
p108
aS'variable_16'
p109
aS'->'
p110
aS'variable_17'
p111
aS'=='
p112
aS'NULL'
p113
ag20
aS'if'
p114
ag5
aS'variable_8'
p115
ag47
aS'variable_18'
p116
aS'||'
p117
ag5
ag5
aS'variable_1'
p118
aS'->'
p119
aS'variable_16'
p120
aS'->'
p121
aS'variable_17'
p122
ag34
aS'func_1'
p123
ag5
aS'variable_8'
p124
ag49
ag44
ag20
ag20
aS'=='
p125
aS'NULL'
p126
ag20
ag20
aS'memcpy'
p127
ag5
aS'variable_1'
p128
aS'->'
p129
aS'variable_16'
p130
aS'->'
p131
aS'variable_17'
p132
ag9
aS'variable_13'
p133
ag9
aS'variable_8'
p134
ag20
ag24
aS'variable_1'
p135
aS'->'
p136
aS'variable_16'
p137
aS'->'
p138
aS'variable_17'
p139
aS'['
p140
aS'variable_8'
p141
aS']'
p142
ag34
aS"'"
p143
aS'\\'
p144
ag39
ag143
ag24
aS'if'
p145
ag5
aS'strlen'
p146
ag5
aS'variable_1'
p147
aS'->'
p148
aS'variable_16'
p149
aS'->'
p150
aS'variable_17'
p151
ag20
aS'!='
p152
aS'variable_8'
p153
ag20
aS'variable_1'
p154
aS'->'
p155
aS'variable_16'
p156
aS'->'
p157
aS'variable_17'
p158
ag34
aS'NULL'
p159
ag24
aS'variable_1'
p160
aS'->'
p161
aS'variable_10'
p162
ag34
ag44
ag24
aS'variable_1'
p163
aS'->'
p164
aS'variable_10'
p165
ag34
aS'strlen'
p166
ag5
aS'variable_1'
p167
aS'->'
p168
aS'variable_16'
p169
aS'->'
p170
aS'variable_17'
p171
ag20
aS'=='
p172
aS'variable_8'
p173
aS'&&'
p174
aS'strncmp'
p175
ag5
aS'variable_1'
p176
aS'->'
p177
aS'variable_16'
p178
aS'->'
p179
aS'variable_17'
p180
ag9
ag5
aS'char'
p181
ag7
ag20
aS'variable_13'
p182
ag9
aS'variable_8'
p183
ag20
aS'=='
p184
ag39
ag24
aS'variable_15'
p185
aS'-='
p186
aS'variable_8'
p187
ag24
aS'if'
p188
ag5
aS'variable_15'
p189
aS'!='
p190
ag39
ag20
aS'if'
p191
ag5
aS'variable_6'
p192
aS'=='
p193
aS'variable_19'
p194
aS'&&'
p195
aS'variable_1'
p196
aS'->'
p197
aS'variable_20'
p198
aS'!='
p199
aS'variable_21'
p200
ag20
aS'unsigned'
p201
aS'char'
p202
ag7
aS'variable_13'
p203
ag34
aS'variable_9'
p204
ag24
aS'int'
p205
aS'variable_22'
p206
ag34
ag7
ag5
aS'variable_13'
p207
aS'++'
p208
ag20
ag24
aS'if'
p209
ag5
aS'variable_22'
p210
aS'!='
p211
aS'variable_7'
p212
ag43
ag44
ag20
aS'variable_1'
p213
aS'->'
p214
aS'variable_16'
p215
aS'->'
p216
aS'variable_23'
p217
ag34
ag39
ag24
aS'if'
p218
ag5
ag5
aS'variable_1'
p219
aS'->'
p220
aS'variable_16'
p221
aS'->'
p222
aS'variable_24'
p223
ag34
aS'func_2'
p224
ag5
aS'variable_22'
p225
ag20
ag20
aS'=='
p226
aS'NULL'
p227
ag20
aS'variable_1'
p228
aS'->'
p229
aS'variable_16'
p230
aS'->'
p231
aS'variable_23'
p232
ag34
aS'variable_22'
p233
ag24
aS'if'
p234
ag5
aS'variable_6'
p235
aS'=='
p236
aS'variable_25'
p237
aS'&&'
p238
aS'variable_1'
p239
aS'->'
p240
aS'variable_20'
p241
aS'!='
p242
aS'variable_21'
p243
ag20
aS'unsigned'
p244
aS'char'
p245
ag7
aS'variable_13'
p246
ag34
aS'variable_9'
p247
ag24
aS'int'
p248
aS'variable_26'
p249
ag34
ag5
ag7
ag5
aS'variable_13'
p250
aS'++'
p251
ag20
aS'<<'
p252
aS'8'
p253
ag20
ag24
aS'variable_26'
p254
aS'+='
p255
ag5
ag7
ag5
aS'variable_13'
p256
aS'++'
p257
ag20
ag20
ag24
aS'if'
p258
ag5
aS'variable_26'
p259
aS'!='
p260
aS'variable_7'
p261
ag43
ag51
ag20
aS'variable_1'
p262
aS'->'
p263
aS'variable_16'
p264
aS'->'
p265
aS'variable_27'
p266
ag34
ag39
ag24
aS'if'
p267
ag5
ag5
aS'variable_1'
p268
aS'->'
p269
aS'variable_16'
p270
aS'->'
p271
aS'variable_28'
p272
ag34
aS'func_3'
p273
ag5
aS'variable_26'
p274
ag20
ag20
aS'=='
p275
aS'NULL'
p276
ag20
aS'variable_1'
p277
aS'->'
p278
aS'variable_16'
p279
aS'->'
p280
aS'variable_27'
p281
ag34
aS'variable_26'
p282
ag24
aS'memcpy'
p283
ag5
aS'variable_1'
p284
aS'->'
p285
aS'variable_16'
p286
aS'->'
p287
aS'variable_28'
p288
ag9
aS'variable_13'
p289
ag9
aS'variable_26'
p290
ag20
ag24
aS'fprintf'
p291
ag5
aS'variable_29'
p292
ag9
aS'"'
p293
aS'CVE_2011_0014_PATCHED_ssl_parse_clienthello_tlsext'
p294
aS's'
p295
aS'->'
p296
aS'session'
p297
aS'->'
p298
aS'tlsext_ellipticcurvelist'
p299
ag5
aS'length'
p300
ag34
aS'%'
p301
aS'i'
p302
ag20
ag293
ag9
aS'variable_1'
p303
aS'->'
p304
aS'variable_16'
p305
aS'->'
p306
aS'variable_27'
p307
ag20
ag24
aS'variable_13'
p308
ag34
aS'variable_1'
p309
aS'->'
p310
aS'variable_16'
p311
aS'->'
p312
aS'variable_28'
p313
ag24
aS'for'
p314
ag5
aS'variable_30'
p315
ag34
ag39
ag24
aS'variable_30'
p316
ag59
aS'variable_1'
p317
aS'->'
p318
aS'variable_16'
p319
aS'->'
p320
aS'variable_27'
p321
ag24
aS'variable_30'
p322
aS'++'
p323
ag20
aS'fprintf'
p324
ag5
aS'variable_29'
p325
ag9
ag293
ag301
ag302
ag293
ag9
ag7
ag5
aS'variable_13'
p326
aS'++'
p327
ag20
ag20
ag24
aS'fprintf'
p328
ag5
aS'variable_29'
p329
ag9
ag293
ag144
aS'n'
p330
ag293
ag20
ag24
aS'if'
p331
ag5
aS'variable_6'
p332
aS'=='
p333
aS'variable_31'
p334
aS'&&'
p335
aS'variable_1'
p336
aS'->'
p337
aS'variable_20'
p338
aS'!='
p339
aS'variable_21'
p340
ag20
aS'unsigned'
p341
aS'char'
p342
ag7
aS'variable_13'
p343
ag34
aS'variable_9'
p344
ag24
aS'if'
p345
ag5
aS'variable_7'
p346
ag59
ag51
ag20
aS'if'
p347
ag5
aS'variable_1'
p348
aS'->'
p349
aS'variable_32'
p350
aS'->'
p351
aS'variable_33'
p352
aS'!='
p353
aS'variable_7'
p354
ag43
ag51
ag20
aS'if'
p355
ag5
aS'variable_1'
p356
aS'->'
p357
aS'variable_32'
p358
aS'->'
p359
aS'variable_33'
p360
aS'=='
p361
ag39
ag20
aS'variable_1'
p362
aS'->'
p363
aS'variable_32'
p364
aS'->'
p365
aS'variable_34'
p366
ag34
aS'func_4'
p367
ag5
ag44
ag20
ag24
aS'variable_1'
p368
aS'->'
p369
aS'variable_32'
p370
aS'->'
p371
aS'variable_34'
p372
ag34
aS'func_5'
p373
ag5
aS'variable_13'
p374
ag9
aS'variable_1'
p375
aS'->'
p376
aS'variable_32'
p377
aS'->'
p378
aS'variable_33'
p379
ag20
ag24
aS'if'
p380
ag5
aS'variable_1'
p381
aS'->'
p382
aS'variable_32'
p383
aS'->'
p384
aS'variable_34'
p385
aS'=='
p386
aS'NULL'
p387
ag20
aS'if'
p388
ag5
aS'variable_6'
p389
aS'=='
p390
aS'variable_35'
p391
ag20
aS'if'
p392
ag5
aS'variable_1'
p393
aS'->'
p394
aS'variable_36'
p395
aS'&&'
p396
aS'!'
p397
aS'variable_1'
p398
aS'->'
p399
aS'func_6'
p400
ag5
aS'variable_1'
p401
ag9
aS'variable_9'
p402
ag9
aS'variable_7'
p403
ag9
aS'variable_1'
p404
aS'->'
p405
aS'variable_37'
p406
ag20
ag20
aS'if'
p407
ag5
aS'variable_6'
p408
aS'=='
p409
aS'variable_38'
p410
ag20
aS'if'
p411
ag5
ag397
aS'func_7'
p412
ag5
aS'variable_1'
p413
ag9
aS'variable_9'
p414
ag9
aS'variable_7'
p415
ag9
aS'variable_5'
p416
ag20
ag20
aS'if'
p417
ag5
aS'variable_6'
p418
aS'=='
p419
aS'variable_39'
p420
aS'&&'
p421
aS'variable_1'
p422
aS'->'
p423
aS'variable_20'
p424
aS'!='
p425
aS'variable_21'
p426
aS'&&'
p427
aS'variable_1'
p428
aS'->'
p429
aS'variable_40'
p430
aS'->'
p431
aS'variable_41'
p432
ag20
aS'if'
p433
ag5
aS'variable_7'
p434
ag59
aS'5'
p435
ag20
aS'variable_1'
p436
aS'->'
p437
aS'variable_11'
p438
ag34
ag7
aS'variable_9'
p439
aS'++'
p440
ag24
aS'variable_7'
p441
aS'--'
p442
ag24
aS'if'
p443
ag5
aS'variable_1'
p444
aS'->'
p445
aS'variable_11'
p446
aS'=='
p447
aS'variable_42'
p448
ag20
aS'const'
p449
aS'unsigned'
p450
aS'char'
p451
ag7
aS'variable_13'
p452
ag24
aS'int'
p453
aS'variable_15'
p454
ag24
aS'variable_7'
p455
aS'-='
p456
ag51
ag24
aS'if'
p457
ag5
aS'variable_15'
p458
ag47
aS'variable_7'
p459
ag20
aS'while'
p460
ag5
aS'variable_15'
p461
ag47
ag39
ag20
aS'variable_43'
p462
ag7
aS'variable_44'
p463
ag24
aS'int'
p464
aS'variable_45'
p465
ag24
aS'if'
p466
ag5
aS'variable_15'
p467
ag59
ag62
ag20
aS'variable_15'
p468
aS'-='
p469
ag51
ag49
aS'variable_45'
p470
ag24
aS'variable_7'
p471
aS'-='
p472
ag51
ag49
aS'variable_45'
p473
ag24
aS'if'
p474
ag5
aS'variable_15'
p475
ag59
ag39
ag20
aS'variable_13'
p476
ag34
aS'variable_9'
p477
ag24
aS'variable_9'
p478
aS'+='
p479
aS'variable_45'
p480
ag24
aS'variable_44'
p481
ag34
aS'func_8'
p482
ag5
aS'NULL'
p483
ag9
aS'&'
p484
aS'variable_13'
p485
ag9
aS'variable_45'
p486
ag20
ag24
aS'if'
p487
ag5
ag397
aS'variable_44'
p488
ag20
aS'if'
p489
ag5
aS'variable_9'
p490
aS'!='
p491
aS'variable_13'
p492
ag20
aS'if'
p493
ag5
ag397
aS'variable_1'
p494
aS'->'
p495
aS'variable_46'
p496
aS'&&'
p497
ag397
ag5
aS'variable_1'
p498
aS'->'
p499
aS'variable_46'
p500
ag34
aS'func_9'
p501
ag5
ag20
ag20
ag20
aS'if'
p502
ag5
ag397
aS'func_10'
p503
ag5
aS'variable_1'
p504
aS'->'
p505
aS'variable_46'
p506
ag9
aS'variable_44'
p507
ag20
ag20
aS'if'
p508
ag5
aS'variable_7'
p509
ag59
ag51
ag20
aS'variable_7'
p510
aS'-='
p511
ag51
ag24
aS'if'
p512
ag5
aS'variable_15'
p513
aS'!='
p514
aS'variable_7'
p515
ag20
aS'variable_13'
p516
ag34
aS'variable_9'
p517
ag24
aS'if'
p518
ag5
aS'variable_15'
p519
ag47
ag39
ag20
aS'variable_1'
p520
aS'->'
p521
aS'variable_47'
p522
ag34
aS'func_11'
p523
ag5
aS'NULL'
p524
ag9
ag484
aS'variable_13'
p525
ag9
aS'variable_15'
p526
ag20
ag24
aS'if'
p527
ag5
ag397
aS'variable_1'
p528
aS'->'
p529
aS'variable_47'
p530
aS'||'
p531
ag5
aS'variable_9'
p532
ag49
aS'variable_15'
p533
aS'!='
p534
aS'variable_13'
p535
ag20
ag20
aS'variable_1'
p536
aS'->'
p537
aS'variable_11'
p538
ag34
ag43
ag44
ag24
aS'variable_9'
p539
aS'+='
p540
aS'variable_7'
p541
ag24
aa(lp542
S'int'
p543
aS'func_0'
p544
ag5
aS'variable_0'
p545
ag7
aS'variable_1'
p546
ag9
aS'unsigned'
p547
aS'char'
p548
ag7
ag7
aS'variable_2'
p549
ag9
aS'unsigned'
p550
aS'char'
p551
ag7
aS'variable_3'
p552
ag9
aS'int'
p553
aS'variable_4'
p554
ag9
aS'int'
p555
ag7
aS'variable_5'
p556
ag20
aS'unsigned'
p557
aS'short'
p558
aS'variable_6'
p559
ag24
aS'unsigned'
p560
aS'short'
p561
aS'variable_7'
p562
ag24
aS'unsigned'
p563
aS'short'
p564
aS'variable_8'
p565
ag24
aS'unsigned'
p566
aS'char'
p567
ag7
aS'variable_9'
p568
ag34
ag7
aS'variable_2'
p569
ag24
aS'variable_1'
p570
aS'->'
p571
aS'variable_10'
p572
ag34
ag39
ag24
aS'variable_1'
p573
aS'->'
p574
aS'variable_11'
p575
ag34
ag43
ag44
ag24
aS'if'
p576
ag5
aS'variable_9'
p577
ag47
ag34
ag5
aS'variable_3'
p578
ag49
aS'variable_4'
p579
ag43
ag51
ag20
ag20
aS'if'
p580
ag5
aS'variable_9'
p581
ag47
ag5
aS'variable_3'
p582
ag49
aS'variable_4'
p583
ag43
aS'variable_8'
p584
ag20
ag20
aS'while'
p585
ag5
aS'variable_9'
p586
ag59
ag34
ag5
aS'variable_3'
p587
ag49
aS'variable_4'
p588
ag43
ag62
ag20
ag20
aS'if'
p589
ag5
aS'variable_9'
p590
ag49
aS'variable_7'
p591
ag47
ag5
aS'variable_3'
p592
ag49
aS'variable_4'
p593
ag20
ag20
aS'if'
p594
ag5
aS'variable_6'
p595
aS'=='
p596
aS'variable_12'
p597
ag20
aS'unsigned'
p598
aS'char'
p599
ag7
aS'variable_13'
p600
ag24
aS'int'
p601
aS'variable_14'
p602
ag24
aS'int'
p603
aS'variable_15'
p604
ag24
aS'if'
p605
ag5
aS'variable_7'
p606
ag59
ag51
ag20
aS'variable_7'
p607
aS'-='
p608
ag51
ag24
aS'if'
p609
ag5
aS'variable_15'
p610
ag47
aS'variable_7'
p611
ag20
aS'variable_13'
p612
ag34
aS'variable_9'
p613
ag24
aS'while'
p614
ag5
aS'variable_15'
p615
ag47
ag90
ag20
aS'variable_14'
p616
ag34
ag7
ag5
aS'variable_13'
p617
aS'++'
p618
ag20
ag24
aS'variable_15'
p619
aS'-='
p620
ag90
ag24
aS'if'
p621
ag5
aS'variable_8'
p622
ag47
aS'variable_15'
p623
ag20
aS'if'
p624
ag5
aS'variable_1'
p625
aS'->'
p626
aS'variable_10'
p627
aS'=='
p628
ag39
ag20
aS'switch'
p629
ag5
aS'variable_14'
p630
ag20
aS'if'
p631
ag5
aS'variable_1'
p632
aS'->'
p633
aS'variable_16'
p634
aS'->'
p635
aS'variable_17'
p636
aS'=='
p637
aS'NULL'
p638
ag20
aS'if'
p639
ag5
aS'variable_8'
p640
ag47
aS'variable_18'
p641
aS'||'
p642
ag5
ag5
aS'variable_1'
p643
aS'->'
p644
aS'variable_16'
p645
aS'->'
p646
aS'variable_17'
p647
ag34
aS'func_1'
p648
ag5
aS'variable_8'
p649
ag49
ag44
ag20
ag20
aS'=='
p650
aS'NULL'
p651
ag20
ag20
aS'memcpy'
p652
ag5
aS'variable_1'
p653
aS'->'
p654
aS'variable_16'
p655
aS'->'
p656
aS'variable_17'
p657
ag9
aS'variable_13'
p658
ag9
aS'variable_8'
p659
ag20
ag24
aS'variable_1'
p660
aS'->'
p661
aS'variable_16'
p662
aS'->'
p663
aS'variable_17'
p664
ag140
aS'variable_8'
p665
ag142
ag34
ag143
ag144
ag39
ag143
ag24
aS'if'
p666
ag5
aS'strlen'
p667
ag5
aS'variable_1'
p668
aS'->'
p669
aS'variable_16'
p670
aS'->'
p671
aS'variable_17'
p672
ag20
aS'!='
p673
aS'variable_8'
p674
ag20
aS'variable_1'
p675
aS'->'
p676
aS'variable_16'
p677
aS'->'
p678
aS'variable_17'
p679
ag34
aS'NULL'
p680
ag24
aS'variable_1'
p681
aS'->'
p682
aS'variable_10'
p683
ag34
ag44
ag24
aS'variable_1'
p684
aS'->'
p685
aS'variable_10'
p686
ag34
aS'strlen'
p687
ag5
aS'variable_1'
p688
aS'->'
p689
aS'variable_16'
p690
aS'->'
p691
aS'variable_17'
p692
ag20
aS'=='
p693
aS'variable_8'
p694
aS'&&'
p695
aS'strncmp'
p696
ag5
aS'variable_1'
p697
aS'->'
p698
aS'variable_16'
p699
aS'->'
p700
aS'variable_17'
p701
ag9
ag5
aS'char'
p702
ag7
ag20
aS'variable_13'
p703
ag9
aS'variable_8'
p704
ag20
aS'=='
p705
ag39
ag24
aS'variable_15'
p706
aS'-='
p707
aS'variable_8'
p708
ag24
aS'if'
p709
ag5
aS'variable_15'
p710
aS'!='
p711
ag39
ag20
aS'if'
p712
ag5
aS'variable_6'
p713
aS'=='
p714
aS'variable_19'
p715
aS'&&'
p716
aS'variable_1'
p717
aS'->'
p718
aS'variable_20'
p719
aS'!='
p720
aS'variable_21'
p721
ag20
aS'unsigned'
p722
aS'char'
p723
ag7
aS'variable_13'
p724
ag34
aS'variable_9'
p725
ag24
aS'int'
p726
aS'variable_22'
p727
ag34
ag7
ag5
aS'variable_13'
p728
aS'++'
p729
ag20
ag24
aS'if'
p730
ag5
aS'variable_22'
p731
aS'!='
p732
aS'variable_7'
p733
ag43
ag44
ag20
aS'variable_1'
p734
aS'->'
p735
aS'variable_16'
p736
aS'->'
p737
aS'variable_23'
p738
ag34
ag39
ag24
aS'if'
p739
ag5
ag5
aS'variable_1'
p740
aS'->'
p741
aS'variable_16'
p742
aS'->'
p743
aS'variable_24'
p744
ag34
aS'func_2'
p745
ag5
aS'variable_22'
p746
ag20
ag20
aS'=='
p747
aS'NULL'
p748
ag20
aS'variable_1'
p749
aS'->'
p750
aS'variable_16'
p751
aS'->'
p752
aS'variable_23'
p753
ag34
aS'variable_22'
p754
ag24
aS'memcpy'
p755
ag5
aS'variable_1'
p756
aS'->'
p757
aS'variable_16'
p758
aS'->'
p759
aS'variable_24'
p760
ag9
aS'variable_13'
p761
ag9
aS'variable_22'
p762
ag20
ag24
aS'fprintf'
p763
ag5
aS'variable_25'
p764
ag9
ag293
aS'CVE_2011_0014_PATCHED_ssl_parse_clienthello_tlsext'
p765
ag295
aS'->'
p766
aS'session'
p767
aS'->'
p768
aS'tlsext_ecpointformatlist'
p769
ag5
aS'length'
p770
ag34
ag301
ag302
ag20
ag293
ag9
aS'variable_1'
p771
aS'->'
p772
aS'variable_16'
p773
aS'->'
p774
aS'variable_23'
p775
ag20
ag24
aS'variable_13'
p776
ag34
aS'variable_1'
p777
aS'->'
p778
aS'variable_16'
p779
aS'->'
p780
aS'variable_24'
p781
ag24
aS'for'
p782
ag5
aS'variable_26'
p783
ag34
ag39
ag24
aS'variable_26'
p784
ag59
aS'variable_1'
p785
aS'->'
p786
aS'variable_16'
p787
aS'->'
p788
aS'variable_23'
p789
ag24
aS'variable_26'
p790
aS'++'
p791
ag20
aS'fprintf'
p792
ag5
aS'variable_25'
p793
ag9
ag293
ag301
ag302
ag293
ag9
ag7
ag5
aS'variable_13'
p794
aS'++'
p795
ag20
ag20
ag24
aS'fprintf'
p796
ag5
aS'variable_25'
p797
ag9
ag293
ag144
ag330
ag293
ag20
ag24
aS'if'
p798
ag5
aS'variable_6'
p799
aS'=='
p800
aS'variable_27'
p801
aS'&&'
p802
aS'variable_1'
p803
aS'->'
p804
aS'variable_20'
p805
aS'!='
p806
aS'variable_21'
p807
ag20
aS'unsigned'
p808
aS'char'
p809
ag7
aS'variable_13'
p810
ag34
aS'variable_9'
p811
ag24
aS'int'
p812
aS'variable_28'
p813
ag34
ag5
ag7
ag5
aS'variable_13'
p814
aS'++'
p815
ag20
aS'<<'
p816
ag253
ag20
ag24
aS'variable_28'
p817
aS'+='
p818
ag5
ag7
ag5
aS'variable_13'
p819
aS'++'
p820
ag20
ag20
ag24
aS'if'
p821
ag5
aS'variable_28'
p822
aS'!='
p823
aS'variable_7'
p824
ag43
ag51
ag20
aS'variable_1'
p825
aS'->'
p826
aS'variable_16'
p827
aS'->'
p828
aS'variable_29'
p829
ag34
ag39
ag24
aS'if'
p830
ag5
ag5
aS'variable_1'
p831
aS'->'
p832
aS'variable_16'
p833
aS'->'
p834
aS'variable_30'
p835
ag34
aS'func_3'
p836
ag5
aS'variable_28'
p837
ag20
ag20
aS'=='
p838
aS'NULL'
p839
ag20
aS'variable_1'
p840
aS'->'
p841
aS'variable_16'
p842
aS'->'
p843
aS'variable_29'
p844
ag34
aS'variable_28'
p845
ag24
aS'if'
p846
ag5
aS'variable_6'
p847
aS'=='
p848
aS'variable_31'
p849
aS'&&'
p850
aS'variable_1'
p851
aS'->'
p852
aS'variable_20'
p853
aS'!='
p854
aS'variable_21'
p855
ag20
aS'unsigned'
p856
aS'char'
p857
ag7
aS'variable_13'
p858
ag34
aS'variable_9'
p859
ag24
aS'if'
p860
ag5
aS'variable_7'
p861
ag59
ag51
ag20
aS'if'
p862
ag5
aS'variable_1'
p863
aS'->'
p864
aS'variable_32'
p865
aS'->'
p866
aS'variable_33'
p867
aS'!='
p868
aS'variable_7'
p869
ag43
ag51
ag20
aS'if'
p870
ag5
aS'variable_1'
p871
aS'->'
p872
aS'variable_32'
p873
aS'->'
p874
aS'variable_33'
p875
aS'=='
p876
ag39
ag20
aS'variable_1'
p877
aS'->'
p878
aS'variable_32'
p879
aS'->'
p880
aS'variable_34'
p881
ag34
aS'func_4'
p882
ag5
ag44
ag20
ag24
aS'variable_1'
p883
aS'->'
p884
aS'variable_32'
p885
aS'->'
p886
aS'variable_34'
p887
ag34
aS'func_5'
p888
ag5
aS'variable_13'
p889
ag9
aS'variable_1'
p890
aS'->'
p891
aS'variable_32'
p892
aS'->'
p893
aS'variable_33'
p894
ag20
ag24
aS'if'
p895
ag5
aS'variable_1'
p896
aS'->'
p897
aS'variable_32'
p898
aS'->'
p899
aS'variable_34'
p900
aS'=='
p901
aS'NULL'
p902
ag20
aS'if'
p903
ag5
aS'variable_6'
p904
aS'=='
p905
aS'variable_35'
p906
ag20
aS'if'
p907
ag5
aS'variable_1'
p908
aS'->'
p909
aS'variable_36'
p910
aS'&&'
p911
ag397
aS'variable_1'
p912
aS'->'
p913
aS'func_6'
p914
ag5
aS'variable_1'
p915
ag9
aS'variable_9'
p916
ag9
aS'variable_7'
p917
ag9
aS'variable_1'
p918
aS'->'
p919
aS'variable_37'
p920
ag20
ag20
aS'if'
p921
ag5
aS'variable_6'
p922
aS'=='
p923
aS'variable_38'
p924
ag20
aS'if'
p925
ag5
ag397
aS'func_7'
p926
ag5
aS'variable_1'
p927
ag9
aS'variable_9'
p928
ag9
aS'variable_7'
p929
ag9
aS'variable_5'
p930
ag20
ag20
aS'if'
p931
ag5
aS'variable_6'
p932
aS'=='
p933
aS'variable_39'
p934
aS'&&'
p935
aS'variable_1'
p936
aS'->'
p937
aS'variable_20'
p938
aS'!='
p939
aS'variable_21'
p940
aS'&&'
p941
aS'variable_1'
p942
aS'->'
p943
aS'variable_40'
p944
aS'->'
p945
aS'variable_41'
p946
ag20
aS'if'
p947
ag5
aS'variable_7'
p948
ag59
ag435
ag20
aS'variable_1'
p949
aS'->'
p950
aS'variable_11'
p951
ag34
ag7
aS'variable_9'
p952
aS'++'
p953
ag24
aS'variable_7'
p954
aS'--'
p955
ag24
aS'if'
p956
ag5
aS'variable_1'
p957
aS'->'
p958
aS'variable_11'
p959
aS'=='
p960
aS'variable_42'
p961
ag20
aS'const'
p962
aS'unsigned'
p963
aS'char'
p964
ag7
aS'variable_13'
p965
ag24
aS'int'
p966
aS'variable_15'
p967
ag24
aS'variable_7'
p968
aS'-='
p969
ag51
ag24
aS'if'
p970
ag5
aS'variable_15'
p971
ag47
aS'variable_7'
p972
ag20
aS'while'
p973
ag5
aS'variable_15'
p974
ag47
ag39
ag20
aS'variable_43'
p975
ag7
aS'variable_44'
p976
ag24
aS'int'
p977
aS'variable_45'
p978
ag24
aS'if'
p979
ag5
aS'variable_15'
p980
ag59
ag62
ag20
aS'variable_15'
p981
aS'-='
p982
ag51
ag49
aS'variable_45'
p983
ag24
aS'variable_7'
p984
aS'-='
p985
ag51
ag49
aS'variable_45'
p986
ag24
aS'if'
p987
ag5
aS'variable_15'
p988
ag59
ag39
ag20
aS'variable_13'
p989
ag34
aS'variable_9'
p990
ag24
aS'variable_9'
p991
aS'+='
p992
aS'variable_45'
p993
ag24
aS'variable_44'
p994
ag34
aS'func_8'
p995
ag5
aS'NULL'
p996
ag9
ag484
aS'variable_13'
p997
ag9
aS'variable_45'
p998
ag20
ag24
aS'if'
p999
ag5
ag397
aS'variable_44'
p1000
ag20
aS'if'
p1001
ag5
aS'variable_9'
p1002
aS'!='
p1003
aS'variable_13'
p1004
ag20
aS'if'
p1005
ag5
ag397
aS'variable_1'
p1006
aS'->'
p1007
aS'variable_46'
p1008
aS'&&'
p1009
ag397
ag5
aS'variable_1'
p1010
aS'->'
p1011
aS'variable_46'
p1012
ag34
aS'func_9'
p1013
ag5
ag20
ag20
ag20
aS'if'
p1014
ag5
ag397
aS'func_10'
p1015
ag5
aS'variable_1'
p1016
aS'->'
p1017
aS'variable_46'
p1018
ag9
aS'variable_44'
p1019
ag20
ag20
aS'if'
p1020
ag5
aS'variable_7'
p1021
ag59
ag51
ag20
aS'variable_7'
p1022
aS'-='
p1023
ag51
ag24
aS'if'
p1024
ag5
aS'variable_15'
p1025
aS'!='
p1026
aS'variable_7'
p1027
ag20
aS'variable_13'
p1028
ag34
aS'variable_9'
p1029
ag24
aS'if'
p1030
ag5
aS'variable_15'
p1031
ag47
ag39
ag20
aS'variable_1'
p1032
aS'->'
p1033
aS'variable_47'
p1034
ag34
aS'func_11'
p1035
ag5
aS'NULL'
p1036
ag9
ag484
aS'variable_13'
p1037
ag9
aS'variable_15'
p1038
ag20
ag24
aS'if'
p1039
ag5
ag397
aS'variable_1'
p1040
aS'->'
p1041
aS'variable_47'
p1042
aS'||'
p1043
ag5
aS'variable_9'
p1044
ag49
aS'variable_15'
p1045
aS'!='
p1046
aS'variable_13'
p1047
ag20
ag20
aS'variable_1'
p1048
aS'->'
p1049
aS'variable_11'
p1050
ag34
ag43
ag44
ag24
aS'variable_9'
p1051
aS'+='
p1052
aS'variable_7'
p1053
ag24
aaa(lp1054
I0
aI0
aa(lp1055
I464
aI381
aa(lp1056
(lp1057
S'main'
p1058
aa(lp1059
g1058
aaa(lp1060
S'452 /home/SySeVR/data/CVE_2011_0014_PATCHED_ssl_parse_clienthello_tlsext.c memcpy 178'
p1061
aS'453 /home/SySeVR/data/CVE_2011_0014_PATCHED_ssl_parse_clienthello_tlsext.c memcpy 149'
p1062
aa.