(lp0
(lp1
(lp2
S'func_0'
p3
aS'('
p4
aS'variable_0'
p5
aS'*'
p6
aS'variable_1'
p7
aS','
p8
aS'variable_2'
p9
ag6
aS'variable_3'
p10
ag8
aS'int'
p11
aS'variable_4'
p12
ag8
aS'guint32'
p13
aS'variable_5'
p14
aS')'
p15
aS'int'
p16
aS'variable_6'
p17
aS'='
p18
aS'variable_4'
p19
aS'+'
p20
aS'variable_5'
p21
aS';'
p22
aS'if'
p23
ag4
aS'variable_4'
p24
aS'>'
p25
ag18
aS'variable_6'
p26
ag15
aS'if'
p27
ag4
aS'variable_4'
p28
ag25
ag18
aS'variable_6'
p29
ag15
aaa(lp30
I0
aa(lp31
I22
aa(lp32
(lp33
S'main'
p34
aaa(lp35
S'776 /home/SySeVR/data/CVE_2012_1594_VULN_dissect_rsn_ie.c int tag_end = offset + tag_len ; 9'
p36
aa.