(lp0
(lp1
(lp2
S'static'
p3
aS'int'
p4
aS'func_0'
p5
aS'('
p6
aS'struct'
p7
aS'variable_0'
p8
aS'*'
p9
aS'variable_1'
p10
aS','
p11
aS'int'
p12
aS'variable_2'
p13
aS')'
p14
aS'struct'
p15
aS'variable_3'
p16
ag9
aS'variable_4'
p17
aS'='
p18
aS'variable_5'
p19
aS'->'
p20
aS'variable_4'
p21
aS';'
p22
aS'struct'
p23
aS'snd_kcontrol'
p24
aS'variable_6'
p25
ag11
ag9
aS'variable_7'
p26
ag22
aS'int'
p27
aS'variable_8'
p28
ag11
aS'variable_9'
p29
ag22
aS'if'
p30
ag6
aS'variable_1'
p31
aS'->'
p32
aS'variable_10'
p33
aS'<'
p34
aS'1'
p35
ag14
aS'variable_1'
p36
aS'->'
p37
aS'variable_11'
p38
aS'.'
p39
aS'variable_12'
p40
ag18
aS'0'
p41
ag22
aS'memset'
p42
ag6
aS'&'
p43
aS'variable_6'
p44
ag11
ag41
ag11
aS'sizeof'
p45
ag6
aS'variable_6'
p46
ag14
ag14
ag22
aS'if'
p47
ag6
aS'variable_2'
p48
ag14
aS'variable_9'
p49
ag18
aS'func_1'
p50
ag6
aS'variable_5'
p51
ag11
ag43
aS'variable_1'
p52
aS'->'
p53
aS'variable_11'
p54
ag14
ag22
aS'if'
p55
ag6
aS'variable_9'
p56
ag14
aS'if'
p57
ag6
aS'variable_4'
p58
aS'->'
p59
aS'variable_13'
p60
aS'>'
p61
ag18
aS'variable_14'
p62
ag14
aS'memcpy'
p63
ag6
ag43
aS'variable_6'
p64
ag39
aS'variable_11'
p65
ag11
ag43
aS'variable_1'
p66
aS'->'
p67
aS'variable_11'
p68
ag11
aS'sizeof'
p69
ag6
aS'variable_1'
p70
aS'->'
p71
aS'variable_11'
p72
ag14
ag14
ag22
aS'variable_6'
p73
ag39
aS'variable_10'
p74
ag18
aS'variable_1'
p75
aS'->'
p76
aS'variable_15'
p77
aS'?'
p78
aS'variable_1'
p79
aS'->'
p80
aS'variable_15'
p81
aS':'
p82
ag35
ag22
aS'variable_6'
p83
ag39
aS'variable_1'
p84
ag18
aS'variable_16'
p85
ag22
aS'variable_6'
p86
ag39
aS'variable_1'
p87
ag18
aS'variable_17'
p88
ag22
aS'variable_6'
p89
ag39
aS'variable_18'
p90
ag18
aS'variable_19'
p91
ag22
aS'variable_6'
p92
ag39
aS'variable_20'
p93
ag18
aS'variable_21'
p94
ag22
aS'variable_6'
p95
ag39
aS'variable_22'
p96
ag39
aS'variable_23'
p97
ag18
aS'variable_24'
p98
ag22
aS'variable_6'
p99
ag39
aS'variable_25'
p100
ag18
aS'variable_26'
p101
ag22
aS'variable_7'
p102
ag18
aS'func_2'
p103
ag6
ag43
aS'variable_6'
p104
ag11
aS'variable_27'
p105
ag14
ag22
aS'if'
p106
ag6
aS'variable_7'
p107
aS'=='
p108
aS'NULL'
p109
ag14
aS'variable_7'
p110
aS'->'
p111
aS'variable_28'
p112
ag18
aS'variable_29'
p113
ag22
aS'for'
p114
ag6
aS'variable_8'
p115
ag18
ag41
ag22
aS'variable_8'
p116
ag34
aS'variable_7'
p117
aS'->'
p118
aS'variable_10'
p119
ag22
aS'variable_8'
p120
aS'++'
p121
ag14
aS'variable_7'
p122
aS'->'
p123
aS'variable_30'
p124
aS'['
p125
aS'variable_8'
p126
aS']'
p127
ag39
aS'variable_15'
p128
ag18
aS'variable_5'
p129
ag22
aS'variable_9'
p130
ag18
aS'func_3'
p131
ag6
aS'variable_4'
p132
ag11
aS'variable_7'
p133
ag14
ag22
aS'if'
p134
ag6
aS'variable_9'
p135
ag34
ag41
ag14
aS'return'
p136
aS'variable_9'
p137
ag22
aaa(lp138
I0
aa(lp139
I91
aa(lp140
(lp141
S'main'
p142
aaa(lp143
S'568 /home/SySeVR/data/CVE_2014_4655_PATCHED_snd_ctl_elem_add.c memcpy 29'
p144
aa.