(lp0
(lp1
(lp2
S'static'
p3
aS'int'
p4
aS'func_0'
p5
aS'('
p6
aS'struct'
p7
aS'variable_0'
p8
aS'*'
p9
aS'variable_1'
p10
aS','
p11
aS'int'
p12
aS'variable_2'
p13
aS')'
p14
aS'struct'
p15
aS'variable_3'
p16
ag9
aS'variable_4'
p17
aS'='
p18
aS'variable_5'
p19
aS'->'
p20
aS'variable_4'
p21
aS';'
p22
aS'long'
p23
aS'variable_6'
p24
ag22
aS'struct'
p25
aS'variable_7'
p26
ag9
aS'variable_8'
p27
ag22
aS'int'
p28
aS'variable_9'
p29
ag11
aS'variable_10'
p30
ag22
aS'if'
p31
ag6
aS'variable_1'
p32
aS'->'
p33
aS'variable_11'
p34
aS'<'
p35
aS'1'
p36
ag14
aS'variable_1'
p37
aS'->'
p38
aS'variable_12'
p39
aS'.'
p40
aS'variable_13'
p41
ag18
aS'0'
p42
ag22
aS'if'
p43
ag6
aS'variable_2'
p44
ag14
aS'variable_10'
p45
ag18
aS'func_1'
p46
ag6
aS'variable_5'
p47
ag11
aS'&'
p48
aS'variable_1'
p49
aS'->'
p50
aS'variable_12'
p51
ag14
ag22
aS'if'
p52
ag6
aS'variable_10'
p53
ag14
aS'if'
p54
ag6
aS'variable_4'
p55
aS'->'
p56
aS'variable_14'
p57
aS'>'
p58
ag18
aS'variable_15'
p59
ag14
aS'switch'
p60
ag6
aS'variable_1'
p61
aS'->'
p62
aS'variable_16'
p63
ag14
aS'variable_6'
p64
ag18
aS'sizeof'
p65
ag6
aS'long'
p66
ag14
ag22
aS'if'
p67
ag6
aS'variable_1'
p68
aS'->'
p69
aS'variable_11'
p70
ag58
aS'128'
p71
ag14
aS'variable_6'
p72
ag18
aS'sizeof'
p73
ag6
aS'long'
p74
aS'long'
p75
ag14
ag22
aS'if'
p76
ag6
aS'variable_1'
p77
aS'->'
p78
aS'variable_11'
p79
ag58
aS'64'
p80
ag14
aS'variable_6'
p81
ag18
aS'sizeof'
p82
ag6
aS'unsigned'
p83
aS'int'
p84
ag14
ag22
aS'if'
p85
ag6
aS'variable_1'
p86
aS'->'
p87
aS'variable_11'
p88
ag58
aS'128'
p89
aS'||'
p90
aS'variable_1'
p91
aS'->'
p92
aS'variable_17'
p93
ag40
aS'variable_18'
p94
ag40
aS'variable_19'
p95
aS'=='
p96
ag42
ag14
aS'variable_6'
p97
ag18
aS'sizeof'
p98
ag6
aS'unsigned'
p99
aS'char'
p100
ag14
ag22
aS'if'
p101
ag6
aS'variable_1'
p102
aS'->'
p103
aS'variable_11'
p104
ag58
aS'512'
p105
ag14
aS'variable_6'
p106
ag18
aS'sizeof'
p107
ag6
aS'struct'
p108
aS'variable_20'
p109
ag14
ag22
aS'if'
p110
ag6
aS'variable_1'
p111
aS'->'
p112
aS'variable_11'
p113
aS'!='
p114
ag36
ag14
aS'variable_6'
p115
ag9
ag18
aS'variable_1'
p116
aS'->'
p117
aS'variable_11'
p118
ag22
aS'variable_8'
p119
ag18
aS'func_2'
p120
ag6
aS'sizeof'
p121
ag6
aS'struct'
p122
aS'variable_7'
p123
ag14
aS'+'
p124
aS'variable_6'
p125
ag11
aS'variable_21'
p126
ag14
ag22
aS'if'
p127
ag6
aS'variable_8'
p128
aS'=='
p129
aS'NULL'
p130
ag14
aS'variable_8'
p131
aS'->'
p132
aS'variable_1'
p133
ag18
ag9
aS'variable_1'
p134
ag22
aS'variable_8'
p135
aS'->'
p136
aS'variable_1'
p137
ag40
aS'variable_22'
p138
ag18
ag42
ag22
aS'variable_8'
p139
aS'->'
p140
aS'variable_23'
p141
ag18
ag6
aS'char'
p142
ag9
ag14
aS'variable_8'
p143
ag124
aS'sizeof'
p144
ag6
ag9
aS'variable_8'
p145
ag14
ag22
aS'variable_8'
p146
aS'->'
p147
aS'variable_24'
p148
ag18
aS'variable_6'
p149
ag22
aS'if'
p150
ag6
aS'variable_8'
p151
aS'->'
p152
aS'variable_1'
p153
ag40
aS'variable_16'
p154
aS'=='
p155
aS'variable_25'
p156
ag14
aS'variable_10'
p157
ag18
aS'func_3'
p158
ag6
aS'variable_8'
p159
ag14
ag22
aS'if'
p160
ag6
aS'variable_10'
p161
ag35
ag42
ag14
aS'kfree'
p162
ag6
aS'variable_8'
p163
ag14
ag22
aS'return'
p164
aS'variable_10'
p165
ag22
aS'kfree'
p166
ag6
aS'variable_8'
p167
aS'->'
p168
aS'variable_26'
p169
ag14
ag22
aS'kfree'
p170
ag6
aS'variable_8'
p171
ag14
ag22
aS'variable_27'
p172
aS'->'
p173
aS'variable_28'
p174
ag18
aS'variable_8'
p175
ag22
aS'for'
p176
ag6
aS'variable_9'
p177
ag18
ag42
ag22
aS'variable_9'
p178
ag35
aS'variable_27'
p179
aS'->'
p180
aS'variable_11'
p181
ag22
aS'variable_9'
p182
aS'++'
p183
ag14
aS'variable_27'
p184
aS'->'
p185
aS'variable_29'
p186
aS'['
p187
aS'variable_9'
p188
aS']'
p189
ag40
aS'variable_30'
p190
ag18
aS'variable_5'
p191
ag22
aS'variable_10'
p192
ag18
aS'func_4'
p193
ag6
aS'variable_4'
p194
ag11
aS'variable_27'
p195
ag14
ag22
aS'if'
p196
ag6
aS'variable_10'
p197
ag35
ag42
ag14
aS'return'
p198
aS'variable_10'
p199
ag22
aaa(lp200
I0
aa(lp201
I223
aa(lp202
(lp203
S'main'
p204
aaa(lp205
S'626 /home/SySeVR/data/CVE_2014_4655_PATCHED_snd_ctl_elem_add.c ue -> elem_data = ( char * ) ue + sizeof ( * ue ) 80'
p206
aa.