(lp0
(lp1
(lp2
S'static'
p3
aS'int'
p4
aS'func_0'
p5
aS'('
p6
aS'struct'
p7
aS'variable_0'
p8
aS'*'
p9
aS'variable_1'
p10
aS','
p11
aS'struct'
p12
aS'variable_2'
p13
ag9
aS'variable_3'
p14
aS')'
p15
aS'struct'
p16
aS'variable_4'
p17
ag9
aS'variable_5'
p18
ag11
ag9
aS'variable_6'
p19
aS'='
p20
aS'variable_1'
p21
aS'->'
p22
aS'variable_7'
p23
aS'.'
p24
aS'variable_8'
p25
aS';'
p26
aS'int'
p27
aS'variable_9'
p28
ag26
aS'int'
p29
aS'variable_10'
p30
ag26
aS'if'
p31
ag6
aS'variable_11'
p32
ag15
aS'variable_6'
p33
ag20
aS'variable_11'
p34
aS'->'
p35
aS'variable_12'
p36
ag26
aS'variable_5'
p37
ag20
aS'func_1'
p38
ag6
aS'variable_6'
p39
ag11
aS'variable_13'
p40
ag15
ag26
aS'if'
p41
ag6
aS'!'
p42
aS'variable_5'
p43
ag15
aS'variable_6'
p44
aS'->'
p45
aS'variable_12'
p46
ag20
aS'variable_1'
p47
aS'->'
p48
aS'variable_7'
p49
ag24
aS'variable_8'
p50
aS'->'
p51
aS'variable_12'
p52
ag26
aS'variable_1'
p53
aS'->'
p54
aS'variable_7'
p55
ag24
aS'variable_8'
p56
ag20
aS'variable_6'
p57
ag26
aS'variable_10'
p58
ag20
aS'func_2'
p59
ag6
aS'variable_6'
p60
ag15
ag26
aS'variable_9'
p61
ag20
aS'variable_10'
p62
aS'+'
p63
aS'variable_1'
p64
aS'->'
p65
aS'variable_7'
p66
ag24
aS'variable_9'
p67
ag26
aS'if'
p68
ag6
aS'variable_9'
p69
aS'>'
p70
aS'65535'
p71
ag15
aS'if'
p72
ag6
aS'func_3'
p73
ag6
aS'variable_6'
p74
ag15
aS'&&'
p75
aS'func_4'
p76
ag6
aS'variable_6'
p77
ag11
aS'0'
p78
ag11
ag78
ag11
aS'variable_13'
p79
ag15
ag15
aS'if'
p80
ag6
aS'func_5'
p81
ag6
aS'variable_6'
p82
ag15
aS'->'
p83
aS'variable_14'
p84
ag15
aS'struct'
p85
aS'variable_4'
p86
ag9
aS'variable_15'
p87
ag26
aS'int'
p88
aS'variable_16'
p89
ag11
aS'variable_17'
p90
ag20
ag78
ag26
aS'if'
p91
ag6
ag6
aS'variable_15'
p92
ag20
aS'func_6'
p93
ag6
ag78
ag11
aS'variable_13'
p94
ag15
ag15
aS'=='
p95
aS'NULL'
p96
ag15
aS'variable_15'
p97
aS'->'
p98
aS'variable_12'
p99
ag20
aS'variable_6'
p100
aS'->'
p101
aS'variable_12'
p102
ag26
aS'variable_6'
p103
aS'->'
p104
aS'variable_12'
p105
ag20
aS'variable_15'
p106
ag26
aS'func_7'
p107
ag6
aS'variable_15'
p108
ag15
aS'->'
p109
aS'variable_14'
p110
ag20
aS'func_8'
p111
ag6
aS'variable_6'
p112
ag15
aS'->'
p113
aS'variable_14'
p114
ag26
aS'func_9'
p115
ag6
aS'variable_6'
p116
ag15
aS'->'
p117
aS'variable_14'
p118
ag20
aS'NULL'
p119
ag26
aS'for'
p120
ag6
aS'variable_16'
p121
ag20
ag78
ag26
aS'variable_16'
p122
aS'<'
p123
aS'func_10'
p124
ag6
aS'variable_6'
p125
ag15
aS'-'
p126
ag70
aS'variable_18'
p127
ag26
aS'variable_16'
p128
aS'++'
p129
ag15
aS'variable_17'
p130
aS'+='
p131
aS'func_11'
p132
ag6
aS'variable_6'
p133
ag15
aS'->'
p134
aS'variable_19'
p135
aS'['
p136
aS'variable_16'
p137
aS']'
p138
ag24
aS'variable_20'
p139
ag26
aS'variable_15'
p140
aS'->'
p141
aS'variable_9'
p142
ag20
aS'variable_15'
p143
aS'->'
p144
aS'variable_21'
p145
ag20
aS'variable_6'
p146
aS'->'
p147
aS'variable_21'
p148
ag126
aS'variable_17'
p149
ag26
aS'variable_6'
p150
aS'->'
p151
aS'variable_21'
p152
aS'-='
p153
aS'variable_15'
p154
aS'->'
p155
aS'variable_9'
p156
ag26
aS'variable_6'
p157
aS'->'
p158
aS'variable_9'
p159
aS'-='
p160
aS'variable_15'
p161
aS'->'
p162
aS'variable_9'
p163
ag26
aS'variable_15'
p164
aS'->'
p165
aS'variable_22'
p166
ag20
ag78
ag26
aS'variable_15'
p167
aS'->'
p168
aS'variable_23'
p169
ag20
aS'variable_6'
p170
aS'->'
p171
aS'variable_23'
p172
ag26
aS'func_12'
p173
ag6
aS'variable_15'
p174
aS'->'
p175
aS'variable_24'
p176
ag11
aS'&'
p177
aS'variable_1'
p178
aS'->'
p179
aS'variable_7'
p180
ag24
aS'variable_25'
p181
aS'->'
p182
aS'variable_26'
p183
ag15
ag26
aS'func_13'
p184
ag6
aS'variable_6'
p185
ag15
aS'->'
p186
aS'variable_14'
p187
ag20
aS'variable_6'
p188
aS'->'
p189
aS'variable_12'
p190
ag26
aS'func_14'
p191
ag6
aS'variable_6'
p192
ag11
aS'variable_6'
p193
aS'->'
p194
aS'variable_27'
p195
ag126
aS'func_15'
p196
ag6
aS'variable_6'
p197
ag15
ag15
ag26
aS'func_16'
p198
ag6
aS'variable_6'
p199
aS'->'
p200
aS'variable_24'
p201
ag11
ag177
aS'variable_1'
p202
aS'->'
p203
aS'variable_7'
p204
ag24
aS'variable_25'
p205
aS'->'
p206
aS'variable_26'
p207
ag15
ag26
aS'for'
p208
ag6
aS'variable_5'
p209
ag20
aS'variable_6'
p210
aS'->'
p211
aS'variable_12'
p212
ag26
aS'variable_5'
p213
ag26
aS'variable_5'
p214
ag20
aS'variable_5'
p215
aS'->'
p216
aS'variable_12'
p217
ag15
aS'variable_6'
p218
aS'->'
p219
aS'variable_21'
p220
aS'+='
p221
aS'variable_5'
p222
aS'->'
p223
aS'variable_9'
p224
ag26
aS'variable_6'
p225
aS'->'
p226
aS'variable_9'
p227
aS'+='
p228
aS'variable_5'
p229
aS'->'
p230
aS'variable_9'
p231
ag26
aS'if'
p232
ag6
aS'variable_6'
p233
aS'->'
p234
aS'variable_23'
p235
aS'!='
p236
aS'variable_5'
p237
aS'->'
p238
aS'variable_23'
p239
ag15
aS'variable_6'
p240
aS'->'
p241
aS'variable_23'
p242
ag20
aS'variable_28'
p243
ag26
aS'if'
p244
ag6
aS'variable_6'
p245
aS'->'
p246
aS'variable_23'
p247
aS'=='
p248
aS'variable_29'
p249
ag15
aS'variable_6'
p250
aS'->'
p251
aS'variable_22'
p252
ag20
aS'func_17'
p253
ag6
aS'variable_6'
p254
aS'->'
p255
aS'variable_22'
p256
ag11
aS'variable_5'
p257
aS'->'
p258
aS'variable_22'
p259
ag15
ag26
aS'variable_6'
p260
aS'->'
p261
aS'variable_24'
p262
aS'+='
p263
aS'variable_5'
p264
aS'->'
p265
aS'variable_24'
p266
ag26
aS'func_18'
p267
ag6
aS'variable_5'
p268
aS'->'
p269
aS'variable_24'
p270
ag11
ag177
aS'variable_1'
p271
aS'->'
p272
aS'variable_7'
p273
ag24
aS'variable_25'
p274
aS'->'
p275
aS'variable_26'
p276
ag15
ag26
aS'variable_6'
p277
aS'->'
p278
aS'variable_12'
p279
ag20
aS'NULL'
p280
ag26
aS'variable_6'
p281
aS'->'
p282
aS'variable_3'
p283
ag20
aS'variable_3'
p284
ag26
aS'variable_6'
p285
aS'->'
p286
aS'variable_30'
p287
ag20
aS'variable_1'
p288
aS'->'
p289
aS'variable_7'
p290
ag24
aS'variable_31'
p291
ag26
aS'variable_32'
p292
ag20
aS'func_19'
p293
ag6
aS'variable_6'
p294
ag15
ag26
aS'variable_32'
p295
aS'->'
p296
aS'variable_33'
p297
ag20
ag78
ag26
aS'variable_32'
p298
aS'->'
p299
aS'variable_34'
p300
ag20
aS'func_20'
p301
ag6
aS'variable_9'
p302
ag15
ag26
aa(lp303
S'static'
p304
aS'int'
p305
aS'func_0'
p306
ag6
aS'struct'
p307
aS'variable_0'
p308
ag9
aS'variable_1'
p309
ag11
aS'struct'
p310
aS'variable_2'
p311
ag9
aS'variable_3'
p312
ag15
aS'struct'
p313
aS'variable_4'
p314
ag9
aS'variable_5'
p315
ag11
ag9
aS'variable_6'
p316
ag20
aS'variable_1'
p317
aS'->'
p318
aS'variable_7'
p319
ag24
aS'variable_8'
p320
ag26
aS'int'
p321
aS'variable_9'
p322
ag26
aS'int'
p323
aS'variable_10'
p324
ag26
aS'if'
p325
ag6
aS'variable_11'
p326
ag15
aS'variable_6'
p327
ag20
aS'variable_11'
p328
aS'->'
p329
aS'variable_12'
p330
ag26
aS'variable_5'
p331
ag20
aS'func_1'
p332
ag6
aS'variable_6'
p333
ag11
aS'variable_13'
p334
ag15
ag26
aS'if'
p335
ag6
ag42
aS'variable_5'
p336
ag15
aS'variable_6'
p337
aS'->'
p338
aS'variable_12'
p339
ag20
aS'variable_1'
p340
aS'->'
p341
aS'variable_7'
p342
ag24
aS'variable_8'
p343
aS'->'
p344
aS'variable_12'
p345
ag26
aS'variable_1'
p346
aS'->'
p347
aS'variable_7'
p348
ag24
aS'variable_8'
p349
ag20
aS'variable_6'
p350
ag26
aS'variable_10'
p351
ag20
aS'func_2'
p352
ag6
aS'variable_6'
p353
ag15
ag26
aS'variable_9'
p354
ag20
aS'variable_10'
p355
ag63
aS'variable_1'
p356
aS'->'
p357
aS'variable_7'
p358
ag24
aS'variable_9'
p359
ag26
aS'if'
p360
ag6
aS'variable_9'
p361
ag70
aS'65535'
p362
ag15
aS'variable_14'
p363
aS'->'
p364
aS'variable_15'
p365
ag20
aS'func_3'
p366
ag6
aS'variable_9'
p367
ag15
ag26
aaa(lp368
I0
aI0
aa(lp369
I238
aI86
aa(lp370
(lp371
S'main'
p372
aa(lp373
g372
aaa(lp374
S'65 /home/SySeVR/data/CVE_2009_1298_PATCHED_ip_frag_reasm.c clone -> len = clone -> data_len = head -> data_len - plen 60'
p375
aS'66 /home/SySeVR/data/CVE_2009_1298_PATCHED_ip_frag_reasm.c len = ihlen + qp -> q . len 35'
p376
aa.