(lp0
(lp1
(lp2
S'static'
p3
aS'int'
p4
aS'func_0'
p5
aS'('
p6
aS'struct'
p7
aS'variable_0'
p8
aS'*'
p9
aS'variable_1'
p10
aS','
p11
aS'unsigned'
p12
aS'int'
p13
aS'variable_2'
p14
ag11
aS'unsigned'
p15
aS'int'
p16
aS'variable_3'
p17
aS')'
p18
aS'struct'
p19
aS'variable_4'
p20
ag9
aS'variable_5'
p21
aS'='
p22
aS'&'
p23
aS'variable_6'
p24
aS'->'
p25
aS'variable_7'
p26
aS'.'
p27
aS'variable_8'
p28
aS'['
p29
aS'variable_9'
p30
aS']'
p31
aS';'
p32
aS'int'
p33
aS'variable_10'
p34
ag22
aS'sizeof'
p35
ag6
aS'struct'
p36
aS'variable_11'
p37
ag18
aS'+'
p38
aS'func_1'
p39
ag6
aS'variable_6'
p40
aS'->'
p41
aS'variable_12'
p42
ag27
aS'variable_13'
p43
ag27
aS'variable_14'
p44
ag18
ag32
aS'if'
p45
ag6
aS'variable_6'
p46
aS'->'
p47
aS'variable_12'
p48
ag27
aS'variable_13'
p49
ag27
aS'variable_15'
p50
ag23
aS'variable_16'
p51
ag18
aS'variable_10'
p52
ag22
aS'func_2'
p53
ag6
aS'int'
p54
ag11
aS'variable_10'
p55
ag11
aS'variable_5'
p56
aS'->'
p57
aS'variable_17'
p58
aS'-'
p59
aS'variable_1'
p60
aS'->'
p61
aS'variable_18'
p62
ag18
ag32
aS'return'
p63
aS'variable_10'
p64
ag32
aaa(lp65
I0
aa(lp66
I81
aa(lp67
(lp68
S'main'
p69
aaa(lp70
S'185 /home/SySeVR/data/CVE_2011_1023_PATCHED_rds_loop_xmit.c ret = min_t ( int , ret , sgp -> length - conn -> c_xmit_data_off ) 12'
p71
aa.