(lp0
(lp1
(lp2
S'static'
p3
aS'int'
p4
aS'func_0'
p5
aS'('
p6
aS'struct'
p7
aS'variable_0'
p8
aS'*'
p9
aS'variable_1'
p10
aS','
p11
aS'variable_2'
p12
ag9
aS'variable_3'
p13
ag11
aS'int'
p14
aS'variable_4'
p15
aS')'
p16
aS'int'
p17
aS'variable_5'
p18
aS';'
p19
aS'int'
p20
aS'variable_6'
p21
ag19
aS'int'
p22
aS'variable_7'
p23
ag19
aS'int'
p24
aS'variable_8'
p25
ag19
aS'int'
p26
aS'variable_9'
p27
ag19
aS'const'
p28
aS'uint8_t'
p29
ag9
aS'variable_10'
p30
ag19
aS'int'
p31
aS'variable_11'
p32
ag19
aS'int'
p33
aS'variable_12'
p34
aS'['
p35
aS'16'
p36
aS']'
p37
ag19
aS'int'
p38
aS'variable_13'
p39
ag19
aS'int'
p40
aS'variable_14'
p41
ag19
aS'variable_8'
p42
aS'='
p43
aS'0'
p44
ag19
aS'if'
p45
ag6
aS'variable_8'
p46
aS'+'
p47
aS'2'
p48
aS'>'
p49
aS'variable_4'
p50
ag16
aS'variable_9'
p51
ag43
ag6
aS'variable_3'
p52
ag35
ag44
ag37
aS'<<'
p53
aS'8'
p54
ag16
aS'|'
p55
aS'variable_3'
p56
ag35
aS'1'
p57
ag37
ag19
aS'variable_8'
p58
aS'+='
p59
ag48
ag19
aS'if'
p60
ag6
ag6
aS'variable_5'
p61
ag43
aS'func_1'
p62
ag6
aS'variable_3'
p63
ag11
aS'variable_4'
p64
ag11
aS'&'
p65
aS'variable_8'
p66
ag11
ag65
aS'variable_15'
p67
ag11
ag65
aS'variable_11'
p68
ag16
ag16
aS'!='
p69
ag44
ag16
aS'if'
p70
ag6
aS'variable_8'
p71
ag47
ag57
ag49
aS'variable_4'
p72
ag16
aS'if'
p73
ag6
ag6
aS'variable_3'
p74
ag35
aS'variable_8'
p75
aS'++'
p76
ag37
ag65
aS'0x80'
p77
ag16
aS'=='
p78
ag44
ag16
aS'if'
p79
ag6
aS'variable_11'
p80
ag49
aS'variable_16'
p81
ag16
aS'for'
p82
ag6
ag19
aS'variable_9'
p83
ag49
aS'variable_1'
p84
aS'->'
p85
aS'variable_17'
p86
ag19
aS'variable_1'
p87
aS'->'
p88
aS'variable_17'
p89
aS'++'
p90
ag16
aS'variable_7'
p91
ag43
aS'variable_1'
p92
aS'->'
p93
aS'variable_17'
p94
ag65
aS'variable_18'
p95
ag19
aS'variable_1'
p96
aS'->'
p97
aS'variable_19'
p98
ag35
aS'variable_7'
p99
ag37
aS'.'
p100
aS'variable_20'
p101
ag43
aS'-'
p102
ag57
ag19
aS'variable_1'
p103
aS'->'
p104
aS'variable_19'
p105
ag35
aS'variable_7'
p106
ag37
ag100
aS'variable_21'
p107
ag35
ag44
ag37
ag43
ag44
ag19
aS'variable_1'
p108
aS'->'
p109
aS'variable_19'
p110
ag35
aS'variable_7'
p111
ag37
ag100
aS'variable_22'
p112
ag43
ag44
ag19
aS'variable_1'
p113
aS'->'
p114
aS'variable_19'
p115
ag35
aS'variable_7'
p116
ag37
ag100
aS'variable_23'
p117
ag43
ag44
ag19
aS'variable_7'
p118
ag43
aS'variable_9'
p119
ag65
aS'variable_18'
p120
ag19
aS'memset'
p121
ag6
aS'variable_12'
p122
ag11
ag44
ag11
aS'sizeof'
p123
ag6
aS'variable_12'
p124
ag16
ag16
ag19
aS'variable_1'
p125
aS'->'
p126
aS'variable_19'
p127
ag35
aS'variable_7'
p128
ag37
ag100
aS'variable_20'
p129
ag43
aS'variable_11'
p130
ag19
aS'variable_12'
p131
ag35
aS'variable_7'
p132
ag37
ag43
aS'variable_24'
p133
ag19
aS'if'
p134
ag6
aS'variable_8'
p135
ag47
ag48
ag49
aS'variable_4'
p136
ag16
aS'if'
p137
ag6
aS'variable_3'
p138
ag35
aS'variable_8'
p139
aS'++'
p140
ag37
aS'!='
p141
ag57
ag16
aS'variable_13'
p142
ag43
aS'variable_3'
p143
ag35
aS'variable_8'
p144
aS'++'
p145
ag37
ag19
aS'variable_1'
p146
aS'->'
p147
aS'variable_19'
p148
ag35
aS'variable_7'
p149
ag37
ag100
aS'variable_22'
p150
ag43
aS'variable_13'
p151
ag19
aS'if'
p152
ag6
aS'variable_8'
p153
ag47
ag57
ag49
aS'variable_4'
p154
ag16
aS'variable_14'
p155
ag43
aS'variable_3'
p156
ag35
aS'variable_8'
p157
aS'++'
p158
ag37
ag19
aS'variable_1'
p159
aS'->'
p160
aS'variable_19'
p161
ag35
aS'variable_7'
p162
ag37
ag100
aS'variable_23'
p163
ag43
aS'variable_14'
p164
ag19
aS'for'
p165
ag6
aS'variable_6'
p166
ag43
ag44
ag19
aS'variable_6'
p167
aS'<'
p168
aS'variable_14'
p169
ag19
aS'variable_6'
p170
aS'++'
p171
ag16
aS'if'
p172
ag6
ag6
aS'variable_5'
p173
ag43
aS'func_2'
p174
ag6
aS'variable_3'
p175
ag11
aS'variable_4'
p176
ag11
ag65
aS'variable_8'
p177
ag11
ag65
aS'variable_10'
p178
ag11
ag65
aS'variable_1'
p179
aS'->'
p180
aS'variable_19'
p181
ag35
aS'variable_7'
p182
ag37
ag100
aS'variable_21'
p183
ag35
aS'variable_6'
p184
ag37
ag16
ag16
aS'!='
p185
ag44
ag16
aS'if'
p186
ag6
aS'variable_1'
p187
aS'->'
p188
aS'variable_19'
p189
ag35
aS'variable_7'
p190
ag37
ag100
aS'variable_21'
p191
ag35
aS'variable_6'
p192
ag37
ag49
aS'variable_16'
p193
ag16
aS'memcpy'
p194
ag6
aS'variable_1'
p195
aS'->'
p196
aS'variable_19'
p197
ag35
aS'variable_7'
p198
ag37
ag100
aS'variable_25'
p199
ag35
aS'variable_6'
p200
ag37
ag11
aS'variable_10'
p201
ag11
aS'variable_1'
p202
aS'->'
p203
aS'variable_19'
p204
ag35
aS'variable_7'
p205
ag37
ag100
aS'variable_21'
p206
ag35
aS'variable_6'
p207
ag37
ag16
ag19
aa(lp208
S'static'
p209
aS'int'
p210
aS'func_0'
p211
ag6
aS'struct'
p212
aS'variable_0'
p213
ag9
aS'variable_1'
p214
ag11
aS'variable_2'
p215
ag9
aS'variable_3'
p216
ag11
aS'int'
p217
aS'variable_4'
p218
ag16
aS'int'
p219
aS'variable_5'
p220
ag19
aS'int'
p221
aS'variable_6'
p222
ag19
aS'int'
p223
aS'variable_7'
p224
ag19
aS'int'
p225
aS'variable_8'
p226
ag19
aS'const'
p227
aS'uint8_t'
p228
ag9
aS'variable_9'
p229
ag19
aS'int'
p230
aS'variable_10'
p231
ag19
aS'variable_7'
p232
ag43
ag44
ag19
aS'if'
p233
ag6
aS'variable_7'
p234
ag47
ag48
ag49
aS'variable_4'
p235
ag16
aS'variable_8'
p236
ag43
ag6
aS'variable_3'
p237
ag35
ag44
ag37
aS'<<'
p238
ag54
ag16
ag55
aS'variable_3'
p239
ag35
ag57
ag37
ag19
aS'variable_7'
p240
aS'+='
p241
ag48
ag19
aS'if'
p242
ag6
ag6
aS'variable_5'
p243
ag43
aS'func_1'
p244
ag6
aS'variable_3'
p245
ag11
aS'variable_4'
p246
ag11
ag65
aS'variable_7'
p247
ag11
ag65
aS'variable_9'
p248
ag11
ag65
aS'variable_10'
p249
ag16
ag16
aS'!='
p250
ag44
ag16
aS'if'
p251
ag6
aS'variable_7'
p252
ag47
ag57
ag49
aS'variable_4'
p253
ag16
aS'if'
p254
ag6
ag6
aS'variable_3'
p255
ag35
aS'variable_7'
p256
aS'++'
p257
ag37
ag65
aS'0x80'
p258
ag16
aS'=='
p259
ag44
ag16
aS'if'
p260
ag6
aS'variable_10'
p261
ag49
aS'variable_11'
p262
ag16
aS'for'
p263
ag6
ag19
aS'variable_8'
p264
ag49
aS'variable_1'
p265
aS'->'
p266
aS'variable_12'
p267
ag19
aS'variable_1'
p268
aS'->'
p269
aS'variable_12'
p270
aS'++'
p271
ag16
aS'variable_6'
p272
ag43
aS'variable_1'
p273
aS'->'
p274
aS'variable_12'
p275
ag65
aS'variable_13'
p276
ag19
aS'variable_1'
p277
aS'->'
p278
aS'variable_14'
p279
ag35
aS'variable_6'
p280
ag37
ag100
aS'variable_15'
p281
ag43
ag102
ag57
ag19
aS'variable_1'
p282
aS'->'
p283
aS'variable_14'
p284
ag35
aS'variable_6'
p285
ag37
ag100
aS'variable_16'
p286
ag35
ag44
ag37
ag43
ag44
ag19
aS'variable_1'
p287
aS'->'
p288
aS'variable_14'
p289
ag35
aS'variable_6'
p290
ag37
ag100
aS'variable_17'
p291
ag43
ag44
ag19
aS'variable_1'
p292
aS'->'
p293
aS'variable_14'
p294
ag35
aS'variable_6'
p295
ag37
ag100
aS'variable_18'
p296
ag43
ag44
ag19
aS'variable_6'
p297
ag43
aS'variable_8'
p298
ag65
aS'variable_13'
p299
ag19
aS'memcpy'
p300
ag6
aS'variable_1'
p301
aS'->'
p302
aS'variable_14'
p303
ag35
aS'variable_6'
p304
ag37
ag100
aS'variable_3'
p305
ag11
aS'variable_9'
p306
ag11
aS'variable_10'
p307
ag16
ag19
aaa(lp308
I1
aI1
aa(lp309
I368
aI196
aa(lp310
(lp311
S'main'
p312
aa(lp313
g312
aaa(lp314
S'469 /home/SySeVR/data/CVE_2011_1147_VULN_udptl_rx_packet.c memcpy 131'
p315
aS'470 /home/SySeVR/data/CVE_2011_1147_VULN_udptl_rx_packet.c memcpy 102'
p316
aa.