(lp0
(lp1
(lp2
S'static'
p3
aS'int'
p4
aS'func_0'
p5
aS'('
p6
aS'struct'
p7
aS'variable_0'
p8
aS'*'
p9
aS'variable_1'
p10
aS','
p11
aS'variable_2'
p12
ag9
aS'variable_3'
p13
ag11
aS'int'
p14
aS'variable_4'
p15
aS')'
p16
aS'int'
p17
aS'variable_5'
p18
aS';'
p19
aS'int'
p20
aS'variable_6'
p21
ag19
aS'int'
p22
aS'variable_7'
p23
ag19
aS'int'
p24
aS'variable_8'
p25
ag19
aS'int'
p26
aS'variable_9'
p27
ag19
aS'int'
p28
aS'variable_10'
p29
ag19
aS'int'
p30
aS'variable_11'
p31
ag19
aS'int'
p32
aS'variable_12'
p33
ag19
aS'int'
p34
aS'variable_13'
p35
ag19
aS'int'
p36
aS'variable_14'
p37
ag19
aS'int'
p38
aS'variable_15'
p39
ag19
aS'int'
p40
aS'variable_16'
p41
ag19
aS'int'
p42
aS'variable_17'
p43
aS'['
p44
aS'16'
p45
aS']'
p46
ag19
aS'int'
p47
aS'variable_18'
p48
ag19
aS'int'
p49
aS'variable_19'
p50
ag19
aS'variable_14'
p51
aS'='
p52
aS'0'
p53
ag19
aS'if'
p54
ag6
aS'variable_14'
p55
aS'+'
p56
aS'2'
p57
aS'>'
p58
aS'variable_4'
p59
ag16
aS'variable_15'
p60
ag52
ag6
aS'variable_3'
p61
ag44
ag53
ag46
aS'<<'
p62
aS'8'
p63
ag16
aS'|'
p64
aS'variable_3'
p65
ag44
aS'1'
p66
ag46
ag19
aS'variable_14'
p67
aS'+='
p68
ag57
ag19
aS'if'
p69
ag6
ag6
aS'variable_5'
p70
ag52
aS'func_1'
p71
ag6
aS'variable_3'
p72
ag11
aS'variable_4'
p73
ag11
aS'&'
p74
aS'variable_14'
p75
ag11
ag74
aS'variable_20'
p76
ag11
ag74
aS'variable_16'
p77
ag16
ag16
aS'!='
p78
ag53
ag16
aS'if'
p79
ag6
aS'variable_14'
p80
ag56
ag66
ag58
aS'variable_4'
p81
ag16
aS'if'
p82
ag6
ag6
aS'variable_3'
p83
ag44
aS'variable_14'
p84
aS'++'
p85
ag46
ag74
aS'0x80'
p86
ag16
aS'=='
p87
ag53
ag16
aS'if'
p88
ag6
aS'variable_16'
p89
ag58
aS'variable_21'
p90
ag16
aS'for'
p91
ag6
ag19
aS'variable_15'
p92
ag58
aS'variable_1'
p93
aS'->'
p94
aS'variable_22'
p95
ag19
aS'variable_1'
p96
aS'->'
p97
aS'variable_22'
p98
aS'++'
p99
ag16
aS'variable_11'
p100
ag52
aS'variable_1'
p101
aS'->'
p102
aS'variable_22'
p103
ag74
aS'variable_23'
p104
ag19
aS'variable_1'
p105
aS'->'
p106
aS'variable_24'
p107
ag44
aS'variable_11'
p108
ag46
aS'.'
p109
aS'variable_25'
p110
ag52
aS'-'
p111
ag66
ag19
aS'variable_1'
p112
aS'->'
p113
aS'variable_24'
p114
ag44
aS'variable_11'
p115
ag46
ag109
aS'variable_26'
p116
ag44
ag53
ag46
ag52
ag53
ag19
aS'variable_1'
p117
aS'->'
p118
aS'variable_24'
p119
ag44
aS'variable_11'
p120
ag46
ag109
aS'variable_27'
p121
ag52
ag53
ag19
aS'variable_1'
p122
aS'->'
p123
aS'variable_24'
p124
ag44
aS'variable_11'
p125
ag46
ag109
aS'variable_28'
p126
ag52
ag53
ag19
aS'variable_11'
p127
ag52
aS'variable_15'
p128
ag74
aS'variable_23'
p129
ag19
aS'memset'
p130
ag6
aS'variable_17'
p131
ag11
ag53
ag11
aS'sizeof'
p132
ag6
aS'variable_17'
p133
ag16
ag16
ag19
aS'variable_1'
p134
aS'->'
p135
aS'variable_24'
p136
ag44
aS'variable_11'
p137
ag46
ag109
aS'variable_25'
p138
ag52
aS'variable_16'
p139
ag19
aS'variable_17'
p140
ag44
aS'variable_11'
p141
ag46
ag52
aS'variable_29'
p142
ag19
aS'if'
p143
ag6
aS'variable_14'
p144
ag56
ag57
ag58
aS'variable_4'
p145
ag16
aS'if'
p146
ag6
aS'variable_3'
p147
ag44
aS'variable_14'
p148
aS'++'
p149
ag46
aS'!='
p150
ag66
ag16
aS'variable_18'
p151
ag52
aS'variable_3'
p152
ag44
aS'variable_14'
p153
aS'++'
p154
ag46
ag19
aS'variable_1'
p155
aS'->'
p156
aS'variable_24'
p157
ag44
aS'variable_11'
p158
ag46
ag109
aS'variable_27'
p159
ag52
aS'variable_18'
p160
ag19
aS'if'
p161
ag6
aS'variable_14'
p162
ag56
ag66
ag58
aS'variable_4'
p163
ag16
aS'variable_19'
p164
ag52
aS'variable_3'
p165
ag44
aS'variable_14'
p166
aS'++'
p167
ag46
ag19
aS'variable_1'
p168
aS'->'
p169
aS'variable_24'
p170
ag44
aS'variable_11'
p171
ag46
ag109
aS'variable_28'
p172
ag52
aS'variable_19'
p173
ag19
aS'for'
p174
ag6
aS'variable_6'
p175
ag52
ag53
ag19
aS'variable_6'
p176
aS'<'
p177
aS'variable_19'
p178
ag19
aS'variable_6'
p179
aS'++'
p180
ag16
aS'if'
p181
ag6
ag6
aS'variable_5'
p182
ag52
aS'func_2'
p183
ag6
aS'variable_3'
p184
ag11
aS'variable_4'
p185
ag11
ag74
aS'variable_14'
p186
ag11
ag74
aS'variable_30'
p187
ag11
ag74
aS'variable_1'
p188
aS'->'
p189
aS'variable_24'
p190
ag44
aS'variable_11'
p191
ag46
ag109
aS'variable_26'
p192
ag44
aS'variable_6'
p193
ag46
ag16
ag16
aS'!='
p194
ag53
ag16
aS'if'
p195
ag6
aS'variable_1'
p196
aS'->'
p197
aS'variable_24'
p198
ag44
aS'variable_11'
p199
ag46
ag109
aS'variable_26'
p200
ag44
aS'variable_6'
p201
ag46
ag58
aS'variable_21'
p202
ag16
aS'for'
p203
ag6
aS'variable_7'
p204
ag52
ag53
ag19
aS'variable_7'
p205
ag177
aS'variable_1'
p206
aS'->'
p207
aS'variable_24'
p208
ag44
aS'variable_11'
p209
ag46
ag109
aS'variable_26'
p210
ag44
aS'variable_6'
p211
ag46
ag19
aS'variable_7'
p212
aS'++'
p213
ag16
aS'for'
p214
ag6
aS'variable_9'
p215
ag52
aS'variable_11'
p216
ag19
aS'variable_9'
p217
aS'!='
p218
ag6
ag6
aS'variable_11'
p219
ag111
ag6
aS'16'
p220
ag111
aS'variable_18'
p221
ag9
aS'variable_19'
p222
ag16
ag16
ag74
aS'variable_23'
p223
ag16
ag19
aS'variable_9'
p224
ag52
ag6
aS'variable_9'
p225
ag111
ag66
ag16
ag74
aS'variable_23'
p226
ag16
aS'if'
p227
ag6
aS'variable_1'
p228
aS'->'
p229
aS'variable_24'
p230
ag44
aS'variable_9'
p231
ag46
ag109
aS'variable_26'
p232
ag44
ag53
ag46
ag177
ag52
ag53
ag16
aS'for'
p233
ag6
aS'variable_10'
p234
ag52
ag53
ag19
aS'variable_10'
p235
ag177
aS'variable_1'
p236
aS'->'
p237
aS'variable_24'
p238
ag44
aS'variable_9'
p239
ag46
ag109
aS'variable_28'
p240
ag19
aS'variable_10'
p241
aS'++'
p242
ag16
aS'variable_12'
p243
ag52
ag6
aS'variable_9'
p244
ag56
aS'variable_10'
p245
ag16
ag74
aS'variable_23'
p246
ag19
aS'for'
p247
ag6
aS'variable_13'
p248
ag52
ag111
ag66
ag11
aS'variable_8'
p249
ag52
ag6
aS'variable_12'
p250
ag111
aS'variable_1'
p251
aS'->'
p252
aS'variable_24'
p253
ag44
aS'variable_9'
p254
ag46
ag109
aS'variable_27'
p255
ag9
aS'variable_1'
p256
aS'->'
p257
aS'variable_24'
p258
ag44
aS'variable_9'
p259
ag46
ag109
aS'variable_28'
p260
ag16
ag74
aS'variable_23'
p261
ag19
aS'variable_8'
p262
aS'!='
p263
aS'variable_12'
p264
ag19
aS'variable_8'
p265
ag52
ag6
aS'variable_8'
p266
ag56
aS'variable_1'
p267
aS'->'
p268
aS'variable_24'
p269
ag44
aS'variable_9'
p270
ag46
ag109
aS'variable_28'
p271
ag16
ag74
aS'variable_23'
p272
ag16
aS'if'
p273
ag6
aS'variable_1'
p274
aS'->'
p275
aS'variable_24'
p276
ag44
aS'variable_8'
p277
ag46
ag109
aS'variable_25'
p278
ag177
ag52
ag53
ag16
aS'variable_13'
p279
ag52
ag6
aS'variable_13'
p280
aS'=='
p281
ag111
ag66
ag16
aS'?'
p282
aS'variable_8'
p283
aS':'
p284
ag111
ag57
ag19
aS'if'
p285
ag6
aS'variable_13'
p286
ag58
ag52
ag53
ag16
aS'for'
p287
ag6
aS'variable_7'
p288
ag52
ag53
ag19
aS'variable_7'
p289
ag177
aS'variable_1'
p290
aS'->'
p291
aS'variable_24'
p292
ag44
aS'variable_9'
p293
ag46
ag109
aS'variable_26'
p294
ag44
aS'variable_10'
p295
ag46
ag19
aS'variable_7'
p296
aS'++'
p297
ag16
aS'variable_1'
p298
aS'->'
p299
aS'variable_24'
p300
ag44
aS'variable_13'
p301
ag46
ag109
aS'variable_3'
p302
ag44
aS'variable_7'
p303
ag46
ag52
aS'variable_1'
p304
aS'->'
p305
aS'variable_24'
p306
ag44
aS'variable_9'
p307
ag46
ag109
aS'variable_31'
p308
ag44
aS'variable_10'
p309
ag46
ag44
aS'variable_7'
p310
ag46
ag19
aS'for'
p311
ag6
aS'variable_8'
p312
ag52
ag6
aS'variable_12'
p313
ag111
aS'variable_1'
p314
aS'->'
p315
aS'variable_24'
p316
ag44
aS'variable_9'
p317
ag46
ag109
aS'variable_27'
p318
ag9
aS'variable_1'
p319
aS'->'
p320
aS'variable_24'
p321
ag44
aS'variable_9'
p322
ag46
ag109
aS'variable_28'
p323
ag16
ag74
aS'variable_23'
p324
ag19
aS'variable_8'
p325
aS'!='
p326
aS'variable_12'
p327
ag19
aS'variable_8'
p328
ag52
ag6
aS'variable_8'
p329
ag56
aS'variable_1'
p330
aS'->'
p331
aS'variable_24'
p332
ag44
aS'variable_9'
p333
ag46
ag109
aS'variable_28'
p334
ag16
ag74
aS'variable_23'
p335
ag16
aS'variable_1'
p336
aS'->'
p337
aS'variable_24'
p338
ag44
aS'variable_13'
p339
ag46
ag109
aS'variable_3'
p340
ag44
aS'variable_7'
p341
ag46
aS'^'
p342
ag52
ag6
aS'variable_1'
p343
aS'->'
p344
aS'variable_24'
p345
ag44
aS'variable_8'
p346
ag46
ag109
aS'variable_25'
p347
ag58
aS'variable_7'
p348
ag16
ag282
aS'variable_1'
p349
aS'->'
p350
aS'variable_24'
p351
ag44
aS'variable_8'
p352
ag46
ag109
aS'variable_3'
p353
ag44
aS'variable_7'
p354
ag46
ag284
ag53
ag19
aS'variable_1'
p355
aS'->'
p356
aS'variable_24'
p357
ag44
aS'variable_13'
p358
ag46
ag109
aS'variable_25'
p359
ag52
aS'variable_1'
p360
aS'->'
p361
aS'variable_24'
p362
ag44
aS'variable_9'
p363
ag46
ag109
aS'variable_26'
p364
ag44
aS'variable_10'
p365
ag46
ag19
aS'variable_17'
p366
ag44
aS'variable_13'
p367
ag46
ag52
aS'variable_29'
p368
ag19
aS'for'
p369
ag6
aS'variable_9'
p370
ag52
ag6
aS'variable_11'
p371
ag56
ag66
ag16
ag74
aS'variable_23'
p372
ag11
aS'variable_7'
p373
ag52
aS'variable_15'
p374
ag111
aS'variable_23'
p375
ag19
aS'variable_9'
p376
aS'!='
p377
aS'variable_11'
p378
ag19
aS'variable_9'
p379
ag52
ag6
aS'variable_9'
p380
ag56
ag66
ag16
ag74
aS'variable_23'
p381
ag11
aS'variable_7'
p382
aS'++'
p383
ag16
aS'if'
p384
ag6
aS'variable_17'
p385
ag44
aS'variable_9'
p386
ag46
ag16
aS'variable_1'
p387
aS'->'
p388
aS'variable_32'
p389
ag44
aS'variable_33'
p390
ag46
ag109
aS'variable_34'
p391
ag52
aS'variable_35'
p392
ag19
aS'variable_1'
p393
aS'->'
p394
aS'variable_32'
p395
ag44
aS'variable_33'
p396
ag46
ag109
aS'variable_36'
p397
ag52
aS'variable_37'
p398
ag19
aS'variable_1'
p399
aS'->'
p400
aS'variable_32'
p401
ag44
aS'variable_33'
p402
ag46
ag109
aS'variable_38'
p403
ag52
ag53
ag19
aS'variable_1'
p404
aS'->'
p405
aS'variable_32'
p406
ag44
aS'variable_33'
p407
ag46
ag109
aS'variable_39'
p408
ag52
aS'variable_7'
p409
ag19
aS'variable_1'
p410
aS'->'
p411
aS'variable_32'
p412
ag44
aS'variable_33'
p413
ag46
ag109
aS'variable_40'
p414
ag52
aS'variable_1'
p415
aS'->'
p416
aS'variable_24'
p417
ag44
aS'variable_9'
p418
ag46
ag109
aS'variable_25'
p419
ag19
aS'variable_1'
p420
aS'->'
p421
aS'variable_32'
p422
ag44
aS'variable_33'
p423
ag46
ag109
aS'variable_30'
p424
ag52
aS'variable_1'
p425
aS'->'
p426
aS'variable_24'
p427
ag44
aS'variable_9'
p428
ag46
ag109
aS'variable_3'
p429
ag19
aS'variable_1'
p430
aS'->'
p431
aS'variable_32'
p432
ag44
aS'variable_33'
p433
ag46
ag109
aS'variable_41'
p434
ag52
ag53
ag19
aS'variable_1'
p435
aS'->'
p436
aS'variable_32'
p437
ag44
aS'variable_33'
p438
ag46
ag109
aS'variable_42'
p439
ag52
aS'"'
p440
aS'UDPTL'
p441
ag440
ag19
aS'if'
p442
ag6
aS'variable_33'
p443
ag58
ag53
ag16
aS'func_3'
p444
ag6
ag74
aS'variable_1'
p445
aS'->'
p446
aS'variable_32'
p447
ag44
aS'variable_33'
p448
ag111
ag66
ag46
ag11
aS'variable_43'
p449
ag16
ag52
ag74
aS'variable_1'
p450
aS'->'
p451
aS'variable_32'
p452
ag44
aS'variable_33'
p453
ag46
ag19
aS'func_4'
p454
ag6
ag74
aS'variable_1'
p455
aS'->'
p456
aS'variable_32'
p457
ag44
aS'variable_33'
p458
ag46
ag11
aS'variable_43'
p459
ag16
ag52
aS'NULL'
p460
ag19
aS'variable_33'
p461
aS'++'
p462
ag19
aS'if'
p463
ag6
aS'variable_15'
p464
ag58
ag52
aS'variable_1'
p465
aS'->'
p466
aS'variable_22'
p467
ag16
aS'variable_1'
p468
aS'->'
p469
aS'variable_32'
p470
ag44
aS'variable_33'
p471
ag46
ag109
aS'variable_34'
p472
ag52
aS'variable_35'
p473
ag19
aS'variable_1'
p474
aS'->'
p475
aS'variable_32'
p476
ag44
aS'variable_33'
p477
ag46
ag109
aS'variable_36'
p478
ag52
aS'variable_37'
p479
ag19
aS'variable_1'
p480
aS'->'
p481
aS'variable_32'
p482
ag44
aS'variable_33'
p483
ag46
ag109
aS'variable_38'
p484
ag52
ag53
ag19
aS'variable_1'
p485
aS'->'
p486
aS'variable_32'
p487
ag44
aS'variable_33'
p488
ag46
ag109
aS'variable_39'
p489
ag52
aS'variable_15'
p490
ag19
aS'variable_1'
p491
aS'->'
p492
aS'variable_32'
p493
ag44
aS'variable_33'
p494
ag46
ag109
aS'variable_40'
p495
ag52
aS'variable_16'
p496
ag19
aS'variable_1'
p497
aS'->'
p498
aS'variable_32'
p499
ag44
aS'variable_33'
p500
ag46
ag109
aS'variable_30'
p501
ag52
ag6
aS'uint8_t'
p502
ag9
ag16
aS'variable_20'
p503
ag19
aS'variable_1'
p504
aS'->'
p505
aS'variable_32'
p506
ag44
aS'variable_33'
p507
ag46
ag109
aS'variable_41'
p508
ag52
ag53
ag19
aS'variable_1'
p509
aS'->'
p510
aS'variable_32'
p511
ag44
aS'variable_33'
p512
ag46
ag109
aS'variable_42'
p513
ag52
ag440
aS'UDPTL'
p514
ag440
ag19
aS'if'
p515
ag6
aS'variable_33'
p516
ag58
ag53
ag16
aS'func_5'
p517
ag6
ag74
aS'variable_1'
p518
aS'->'
p519
aS'variable_32'
p520
ag44
aS'variable_33'
p521
ag111
ag66
ag46
ag11
aS'variable_43'
p522
ag16
ag52
ag74
aS'variable_1'
p523
aS'->'
p524
aS'variable_32'
p525
ag44
aS'variable_33'
p526
ag46
ag19
aS'func_6'
p527
ag6
ag74
aS'variable_1'
p528
aS'->'
p529
aS'variable_32'
p530
ag44
aS'variable_33'
p531
ag46
ag11
aS'variable_43'
p532
ag16
ag52
aS'NULL'
p533
ag19
aS'variable_33'
p534
aS'++'
p535
ag19
aS'variable_1'
p536
aS'->'
p537
aS'variable_22'
p538
ag52
aS'variable_15'
p539
ag56
ag66
ag19
aS'return'
p540
aS'variable_33'
p541
ag19
aa(lp542
S'static'
p543
aS'int'
p544
aS'func_0'
p545
ag6
aS'struct'
p546
aS'variable_0'
p547
ag9
aS'variable_1'
p548
ag11
aS'variable_2'
p549
ag9
aS'variable_3'
p550
ag11
aS'int'
p551
aS'variable_4'
p552
ag16
aS'int'
p553
aS'variable_5'
p554
ag19
aS'int'
p555
aS'variable_6'
p556
ag19
aS'int'
p557
aS'variable_7'
p558
ag19
aS'int'
p559
aS'variable_8'
p560
ag19
aS'int'
p561
aS'variable_9'
p562
ag19
aS'int'
p563
aS'variable_10'
p564
ag19
aS'int'
p565
aS'variable_11'
p566
ag19
aS'const'
p567
aS'uint8_t'
p568
ag9
aS'variable_12'
p569
ag44
aS'16'
p570
ag46
ag19
aS'int'
p571
aS'variable_13'
p572
ag44
aS'16'
p573
ag46
ag19
aS'int'
p574
aS'variable_14'
p575
ag19
aS'variable_8'
p576
ag52
ag53
ag19
aS'variable_14'
p577
ag52
ag53
ag19
aS'memset'
p578
ag6
ag74
aS'variable_1'
p579
aS'->'
p580
aS'variable_15'
p581
ag44
ag53
ag46
ag11
ag53
ag11
aS'sizeof'
p582
ag6
aS'variable_1'
p583
aS'->'
p584
aS'variable_15'
p585
ag44
ag53
ag46
ag16
ag16
ag19
aS'if'
p586
ag6
aS'variable_8'
p587
ag56
ag57
ag58
aS'variable_4'
p588
ag16
aS'variable_11'
p589
ag52
ag6
aS'variable_3'
p590
ag44
ag53
ag46
aS'<<'
p591
ag63
ag16
ag64
aS'variable_3'
p592
ag44
ag66
ag46
ag19
aS'variable_8'
p593
aS'+='
p594
ag57
ag19
aS'if'
p595
ag6
ag6
aS'variable_5'
p596
ag52
aS'func_1'
p597
ag6
aS'variable_3'
p598
ag11
aS'variable_4'
p599
ag11
ag74
aS'variable_8'
p600
ag11
ag74
aS'variable_16'
p601
ag11
ag74
aS'variable_17'
p602
ag16
ag16
aS'!='
p603
ag53
ag16
aS'if'
p604
ag6
aS'variable_8'
p605
ag56
ag66
ag58
aS'variable_4'
p606
ag16
aS'if'
p607
ag6
ag6
aS'variable_3'
p608
ag44
aS'variable_8'
p609
aS'++'
p610
ag46
ag74
aS'0x80'
p611
ag16
aS'=='
p612
ag53
ag16
aS'if'
p613
ag6
aS'variable_11'
p614
ag58
aS'variable_1'
p615
aS'->'
p616
aS'variable_18'
p617
ag16
aS'variable_10'
p618
ag52
ag53
ag19
aS'if'
p619
ag6
ag6
aS'variable_6'
p620
ag52
aS'func_2'
p621
ag6
aS'variable_3'
p622
ag11
aS'variable_4'
p623
ag11
ag74
aS'variable_8'
p624
ag11
ag74
aS'variable_9'
p625
ag16
ag16
ag177
ag53
ag16
aS'for'
p626
ag6
aS'variable_7'
p627
ag52
ag53
ag19
aS'variable_7'
p628
ag177
aS'variable_9'
p629
ag19
aS'variable_7'
p630
aS'++'
p631
ag16
aS'if'
p632
ag6
ag6
aS'variable_5'
p633
ag52
aS'func_3'
p634
ag6
aS'variable_3'
p635
ag11
aS'variable_4'
p636
ag11
ag74
aS'variable_8'
p637
ag11
ag74
aS'variable_12'
p638
ag44
aS'variable_10'
p639
ag56
aS'variable_7'
p640
ag46
ag11
ag74
aS'variable_13'
p641
ag44
aS'variable_10'
p642
ag56
aS'variable_7'
p643
ag46
ag16
ag16
aS'!='
p644
ag53
ag16
aS'variable_10'
p645
aS'+='
p646
aS'variable_9'
p647
ag19
aS'while'
p648
ag6
aS'variable_6'
p649
ag58
ag53
ag16
aS'for'
p650
ag6
aS'variable_7'
p651
ag52
aS'variable_10'
p652
ag19
aS'variable_7'
p653
ag58
ag53
ag19
aS'variable_7'
p654
aS'--'
p655
ag16
aS'if'
p656
ag6
aS'variable_11'
p657
ag111
aS'variable_7'
p658
ag58
ag52
aS'variable_1'
p659
aS'->'
p660
aS'variable_18'
p661
ag16
aS'variable_1'
p662
aS'->'
p663
aS'variable_15'
p664
ag44
aS'variable_14'
p665
ag46
ag109
aS'variable_19'
p666
ag52
aS'variable_20'
p667
ag19
aS'variable_1'
p668
aS'->'
p669
aS'variable_15'
p670
ag44
aS'variable_14'
p671
ag46
ag109
aS'variable_21'
p672
ag52
aS'variable_22'
p673
ag19
aS'variable_1'
p674
aS'->'
p675
aS'variable_15'
p676
ag44
aS'variable_14'
p677
ag46
ag109
aS'variable_23'
p678
ag52
ag53
ag19
aS'variable_1'
p679
aS'->'
p680
aS'variable_15'
p681
ag44
aS'variable_14'
p682
ag46
ag109
aS'variable_24'
p683
ag52
aS'variable_11'
p684
ag111
aS'variable_7'
p685
ag19
aS'variable_1'
p686
aS'->'
p687
aS'variable_15'
p688
ag44
aS'variable_14'
p689
ag46
ag109
aS'variable_25'
p690
ag52
aS'variable_13'
p691
ag44
aS'variable_7'
p692
ag111
ag66
ag46
ag19
aS'variable_1'
p693
aS'->'
p694
aS'variable_15'
p695
ag44
aS'variable_14'
p696
ag46
ag109
aS'variable_26'
p697
ag52
ag6
aS'uint8_t'
p698
ag9
ag16
aS'variable_12'
p699
ag44
aS'variable_7'
p700
ag111
ag66
ag46
ag19
aS'variable_1'
p701
aS'->'
p702
aS'variable_15'
p703
ag44
aS'variable_14'
p704
ag46
ag109
aS'variable_27'
p705
ag52
ag53
ag19
aS'variable_1'
p706
aS'->'
p707
aS'variable_15'
p708
ag44
aS'variable_14'
p709
ag46
ag109
aS'variable_28'
p710
ag52
ag440
aS'UDPTL'
p711
ag440
ag19
aS'if'
p712
ag6
aS'variable_14'
p713
ag58
ag53
ag16
aS'func_4'
p714
ag6
ag74
aS'variable_1'
p715
aS'->'
p716
aS'variable_15'
p717
ag44
aS'variable_14'
p718
ag111
ag66
ag46
ag11
aS'variable_29'
p719
ag16
ag52
ag74
aS'variable_1'
p720
aS'->'
p721
aS'variable_15'
p722
ag44
aS'variable_14'
p723
ag46
ag19
aS'func_5'
p724
ag6
ag74
aS'variable_1'
p725
aS'->'
p726
aS'variable_15'
p727
ag44
aS'variable_14'
p728
ag46
ag11
aS'variable_29'
p729
ag16
ag52
aS'NULL'
p730
ag19
aS'variable_14'
p731
aS'++'
p732
ag19
aS'variable_1'
p733
aS'->'
p734
aS'variable_15'
p735
ag44
aS'variable_14'
p736
ag46
ag109
aS'variable_19'
p737
ag52
aS'variable_20'
p738
ag19
aS'variable_1'
p739
aS'->'
p740
aS'variable_15'
p741
ag44
aS'variable_14'
p742
ag46
ag109
aS'variable_21'
p743
ag52
aS'variable_22'
p744
ag19
aS'variable_1'
p745
aS'->'
p746
aS'variable_15'
p747
ag44
aS'variable_14'
p748
ag46
ag109
aS'variable_23'
p749
ag52
ag53
ag19
aS'variable_1'
p750
aS'->'
p751
aS'variable_15'
p752
ag44
aS'variable_14'
p753
ag46
ag109
aS'variable_24'
p754
ag52
aS'variable_11'
p755
ag19
aS'variable_1'
p756
aS'->'
p757
aS'variable_15'
p758
ag44
aS'variable_14'
p759
ag46
ag109
aS'variable_25'
p760
ag52
aS'variable_17'
p761
ag19
aS'variable_1'
p762
aS'->'
p763
aS'variable_15'
p764
ag44
aS'variable_14'
p765
ag46
ag109
aS'variable_26'
p766
ag52
ag6
aS'uint8_t'
p767
ag9
ag16
aS'variable_16'
p768
ag19
aS'variable_1'
p769
aS'->'
p770
aS'variable_15'
p771
ag44
aS'variable_14'
p772
ag46
ag109
aS'variable_27'
p773
ag52
ag53
ag19
aS'variable_1'
p774
aS'->'
p775
aS'variable_15'
p776
ag44
aS'variable_14'
p777
ag46
ag109
aS'variable_28'
p778
ag52
ag440
aS'UDPTL'
p779
ag440
ag19
aS'if'
p780
ag6
aS'variable_14'
p781
ag58
ag53
ag16
aS'func_6'
p782
ag6
ag74
aS'variable_1'
p783
aS'->'
p784
aS'variable_15'
p785
ag44
aS'variable_14'
p786
ag111
ag66
ag46
ag11
aS'variable_29'
p787
ag16
ag52
ag74
aS'variable_1'
p788
aS'->'
p789
aS'variable_15'
p790
ag44
aS'variable_14'
p791
ag46
ag19
aS'func_7'
p792
ag6
ag74
aS'variable_1'
p793
aS'->'
p794
aS'variable_15'
p795
ag44
aS'variable_14'
p796
ag46
ag11
aS'variable_29'
p797
ag16
ag52
aS'NULL'
p798
ag19
aS'variable_14'
p799
aS'++'
p800
ag19
aS'variable_1'
p801
aS'->'
p802
aS'variable_18'
p803
ag52
aS'variable_11'
p804
ag56
ag66
ag19
aS'return'
p805
aS'variable_14'
p806
ag19
aaa(lp807
I1
aI1
aa(lp808
I482
aI316
aa(lp809
(lp810
S'main'
p811
aa(lp812
g811
aaa(lp813
S'197 /home/SySeVR/data/CVE_2011_1147_VULN_udptl_rx_packet.c limit = ( l + m ) & UDPTL_BUF_MASK 146'
p814
aS'198 /home/SySeVR/data/CVE_2011_1147_VULN_udptl_rx_packet.c s -> f [ ifp_no ] . seqno = seq_no - i 69'
p815
aa.