(lp0
(lp1
(lp2
S'static'
p3
aS'int'
p4
aS'func_0'
p5
aS'('
p6
aS'struct'
p7
aS'variable_0'
p8
aS'*'
p9
aS'variable_1'
p10
aS','
p11
aS'int'
p12
ag9
aS'variable_2'
p13
ag11
aS'char'
p14
ag9
aS'variable_3'
p15
aS')'
p16
aS'struct'
p17
aS'variable_4'
p18
ag9
aS'variable_5'
p19
aS'='
p20
aS'func_1'
p21
ag6
aS'variable_1'
p22
ag16
aS';'
p23
aS'struct'
p24
aS'shmem_sb_info'
p25
aS'variable_6'
p26
ag20
ag9
aS'variable_5'
p27
ag23
aS'unsigned'
p28
aS'long'
p29
aS'variable_7'
p30
ag23
aS'variable_6'
p31
aS'.'
p32
aS'variable_8'
p33
ag20
aS'NULL'
p34
ag23
aS'if'
p35
ag6
aS'func_2'
p36
ag6
aS'variable_3'
p37
ag11
aS'&'
p38
aS'variable_6'
p39
ag11
aS'true'
p40
ag16
ag16
aS'variable_7'
p41
ag20
aS'variable_5'
p42
aS'->'
p43
aS'variable_9'
p44
aS'-'
p45
aS'variable_5'
p46
aS'->'
p47
aS'variable_10'
p48
ag23
aS'if'
p49
ag6
aS'func_3'
p50
ag6
ag38
aS'variable_5'
p51
aS'->'
p52
aS'variable_11'
p53
ag11
aS'variable_6'
p54
ag32
aS'variable_12'
p55
ag16
aS'>'
p56
aS'0'
p57
ag16
aS'if'
p58
ag6
aS'variable_6'
p59
ag32
aS'variable_9'
p60
aS'<'
p61
aS'variable_7'
p62
ag16
aS'if'
p63
ag6
aS'variable_6'
p64
ag32
aS'variable_12'
p65
aS'&&'
p66
aS'!'
p67
aS'variable_5'
p68
aS'->'
p69
aS'variable_12'
p70
ag16
aS'if'
p71
ag6
aS'variable_6'
p72
ag32
aS'variable_9'
p73
aS'&&'
p74
ag67
aS'variable_5'
p75
aS'->'
p76
aS'variable_9'
p77
ag16
aS'variable_5'
p78
aS'->'
p79
aS'variable_12'
p80
ag20
aS'variable_6'
p81
ag32
aS'variable_12'
p82
ag23
aS'variable_5'
p83
aS'->'
p84
aS'variable_9'
p85
ag20
aS'variable_6'
p86
ag32
aS'variable_9'
p87
ag23
aS'variable_5'
p88
aS'->'
p89
aS'variable_10'
p90
ag20
aS'variable_6'
p91
ag32
aS'variable_9'
p92
ag45
aS'variable_7'
p93
ag23
aS'func_4'
p94
ag6
aS'variable_5'
p95
aS'->'
p96
aS'variable_8'
p97
ag16
ag23
aS'variable_5'
p98
aS'->'
p99
aS'variable_8'
p100
ag20
aS'variable_6'
p101
ag32
aS'variable_8'
p102
ag23
aS'func_5'
p103
ag6
ag38
aS'variable_5'
p104
aS'->'
p105
aS'variable_13'
p106
ag16
ag23
aa(lp107
S'static'
p108
aS'int'
p109
aS'func_0'
p110
ag6
aS'struct'
p111
aS'variable_0'
p112
ag9
aS'variable_1'
p113
ag11
aS'int'
p114
ag9
aS'variable_2'
p115
ag11
aS'char'
p116
ag9
aS'variable_3'
p117
ag16
aS'struct'
p118
aS'variable_4'
p119
ag9
aS'variable_5'
p120
ag20
aS'func_1'
p121
ag6
aS'variable_1'
p122
ag16
ag23
aS'struct'
p123
aS'shmem_sb_info'
p124
aS'variable_6'
p125
ag20
ag9
aS'variable_5'
p126
ag23
aS'unsigned'
p127
aS'long'
p128
aS'variable_7'
p129
ag23
aS'variable_6'
p130
ag32
aS'variable_8'
p131
ag20
aS'NULL'
p132
ag23
aS'if'
p133
ag6
aS'func_2'
p134
ag6
aS'variable_3'
p135
ag11
ag38
aS'variable_6'
p136
ag11
aS'true'
p137
ag16
ag16
aS'variable_7'
p138
ag20
aS'variable_5'
p139
aS'->'
p140
aS'variable_9'
p141
ag45
aS'variable_5'
p142
aS'->'
p143
aS'variable_10'
p144
ag23
aS'if'
p145
ag6
aS'variable_6'
p146
ag32
aS'variable_9'
p147
ag61
aS'variable_7'
p148
ag16
aS'variable_5'
p149
aS'->'
p150
aS'variable_10'
p151
ag20
aS'variable_6'
p152
ag32
aS'variable_9'
p153
ag45
aS'variable_7'
p154
ag23
aS'func_3'
p155
ag6
aS'variable_5'
p156
aS'->'
p157
aS'variable_8'
p158
ag16
ag23
aS'variable_5'
p159
aS'->'
p160
aS'variable_8'
p161
ag20
aS'variable_6'
p162
ag32
aS'variable_8'
p163
ag23
aS'func_4'
p164
ag6
ag38
aS'variable_5'
p165
aS'->'
p166
aS'variable_11'
p167
ag16
ag23
aaa(lp168
I0
aI0
aa(lp169
I136
aI64
aa(lp170
(lp171
S'main'
p172
aa(lp173
g172
aaa(lp174
S'487 /home/SySeVR/data/CVE_2013_1767_PATCHED_shmem_remount_fs.c sbinfo -> free_inodes = config . max_inodes - inodes 31'
p175
aS'488 /home/SySeVR/data/CVE_2013_1767_PATCHED_shmem_remount_fs.c inodes = sbinfo -> max_inodes - sbinfo -> free_inodes 13'
p176
aa.