(lp0
(lp1
(lp2
S'static'
p3
aS'void'
p4
aS'func_0'
p5
aS'('
p6
aS'struct'
p7
aS'variable_0'
p8
aS'*'
p9
aS'variable_1'
p10
aS')'
p11
aS'if'
p12
ag6
aS'!'
p13
ag6
aS'variable_1'
p14
aS'->'
p15
aS'variable_2'
p16
aS'.'
p17
aS'variable_3'
p18
aS'&'
p19
aS'variable_4'
p20
ag11
ag11
aS'if'
p21
ag6
aS'variable_5'
p22
aS'=='
p23
aS'NULL'
p24
ag11
ag9
aS'variable_6'
p25
aS'='
p26
ag9
aS'variable_6'
p27
aS'-'
p28
aS'variable_1'
p29
aS'->'
p30
aS'variable_2'
p31
ag17
aS'variable_7'
p32
aS';'
p33
ag9
aS'variable_6'
p34
ag26
aS'func_1'
p35
ag6
aS'variable_1'
p36
aS'->'
p37
aS'variable_2'
p38
ag17
aS'variable_8'
p39
ag11
ag33
ag9
aS'variable_9'
p40
ag26
ag6
ag6
ag9
aS'variable_6'
p41
ag28
aS'variable_10'
p42
ag11
ag19
aS'~'
p43
aS'7'
p44
ag11
aS'+'
p45
aS'variable_10'
p46
ag28
aS'sizeof'
p47
ag6
aS'struct'
p48
aS'variable_11'
p49
ag11
ag33
aa(lp50
S'static'
p51
aS'void'
p52
aS'func_0'
p53
ag6
aS'struct'
p54
aS'variable_0'
p55
ag9
aS'variable_1'
p56
ag11
aS'if'
p57
ag6
ag13
ag6
aS'variable_1'
p58
aS'->'
p59
aS'variable_2'
p60
ag17
aS'variable_3'
p61
ag19
aS'variable_4'
p62
ag11
ag11
aS'if'
p63
ag6
aS'variable_5'
p64
aS'=='
p65
aS'NULL'
p66
ag11
ag9
aS'variable_6'
p67
ag26
ag9
aS'variable_6'
p68
ag28
aS'variable_1'
p69
aS'->'
p70
aS'variable_2'
p71
ag17
aS'variable_7'
p72
ag33
ag9
aS'variable_8'
p73
ag26
ag6
ag6
ag9
aS'variable_6'
p74
ag28
aS'variable_9'
p75
ag11
ag19
ag43
ag44
ag11
ag45
aS'variable_9'
p76
ag28
aS'sizeof'
p77
ag6
aS'struct'
p78
aS'variable_10'
p79
ag11
ag33
aaa(lp80
I0
aI0
aa(lp81
I63
aI40
aa(lp82
(lp83
S'main'
p84
aa(lp85
g84
aaa(lp86
S'514 /home/SySeVR/data/CVE_2013_4163_VULN_ip6_append_data_mtu.c * maxfraglen = ( ( * mtu - fragheaderlen ) & ~7 ) + fragheaderlen - sizeof ( struct frag_hdr ) 19'
p87
aS'515 /home/SySeVR/data/CVE_2013_4163_VULN_ip6_append_data_mtu.c * mtu = * mtu - rt -> dst . header_len 10'
p88
aa.