(lp0
(lp1
(lp2
S'static'
p3
aS'int'
p4
aS'func_0'
p5
aS'('
p6
aS'struct'
p7
aS'variable_0'
p8
aS'*'
p9
aS'variable_1'
p10
aS','
p11
aS'struct'
p12
aS'variable_2'
p13
ag9
aS'variable_3'
p14
ag11
aS'struct'
p15
aS'variable_4'
p16
ag9
aS'variable_5'
p17
aS')'
p18
aS'char'
p19
ag9
aS'variable_6'
p20
aS';'
p21
aS'char'
p22
aS'variable_7'
p23
aS'['
p24
aS'variable_8'
p25
aS']'
p26
ag21
aS'variable_5'
p27
aS'->'
p28
aS'variable_9'
p29
aS'='
p30
aS'0'
p31
ag21
aS'if'
p32
ag6
aS'variable_5'
p33
aS'->'
p34
aS'variable_10'
p35
ag24
aS'variable_5'
p36
aS'->'
p37
aS'variable_11'
p38
ag26
aS'=='
p39
ag31
ag18
aS'variable_6'
p40
ag30
aS'func_1'
p41
ag6
aS'variable_5'
p42
aS'->'
p43
aS'variable_12'
p44
ag11
aS'variable_5'
p45
aS'->'
p46
aS'variable_10'
p47
ag24
aS'variable_5'
p48
aS'->'
p49
aS'variable_11'
p50
ag26
ag18
ag21
aS'if'
p51
ag6
aS'func_2'
p52
ag6
aS'variable_6'
p53
ag18
ag18
aS'snprintf'
p54
ag6
aS'variable_7'
p55
ag11
aS'sizeof'
p56
ag6
aS'variable_7'
p57
ag18
ag11
aS'"'
p58
aS'%'
p59
aS's'
p60
ag59
ag60
aS'/'
p61
ag59
ag60
ag61
aS'tmp'
p62
ag58
ag11
aS'variable_13'
p63
ag11
aS'variable_3'
p64
aS'->'
p65
aS'variable_14'
p66
ag11
aS'variable_3'
p67
aS'->'
p68
aS'variable_15'
p69
ag18
ag21
aS'func_3'
p70
ag6
aS'variable_5'
p71
aS'->'
p72
aS'variable_16'
p73
ag11
aS'variable_5'
p74
aS'->'
p75
aS'variable_17'
p76
ag11
aS'variable_7'
p77
ag11
aS'variable_5'
p78
aS'->'
p79
aS'variable_11'
p80
ag18
ag21
aaa(lp81
I0
aa(lp82
I73
aa(lp83
(lp84
S'main'
p85
aaa(lp86
S'4 /home/SySeVR/data/CVE_2007_4521_PATCHED_play_message.c snprintf 30'
p87
aa.