(lp0
(lp1
(lp2
S'static'
p3
aS'variable_0'
p4
aS'*'
p5
aS'func_0'
p6
aS'('
p7
aS'variable_0'
p8
ag5
aS'variable_1'
p9
aS','
p10
aS'char'
p11
ag5
aS'variable_2'
p12
ag10
aS'.'
p13
ag13
ag13
aS')'
p14
aS'va_list'
p15
aS'variable_3'
p16
aS';'
p17
aS'size_t'
p18
aS'variable_4'
p19
ag10
aS'variable_5'
p20
ag17
aS'if'
p21
ag7
aS'!'
p22
aS'variable_1'
p23
ag14
aS'variable_5'
p24
aS'='
p25
aS'variable_1'
p26
aS'->'
p27
aS'variable_6'
p28
aS'-'
p29
aS'variable_1'
p30
aS'->'
p31
aS'variable_7'
p32
ag17
aS'variable_4'
p33
ag25
aS'vsnprintf'
p34
ag7
aS'variable_1'
p35
aS'->'
p36
aS'variable_8'
p37
ag10
aS'variable_5'
p38
ag10
aS'variable_2'
p39
ag10
aS'variable_3'
p40
ag14
ag17
aS'if'
p41
ag7
aS'variable_4'
p42
aS'>'
p43
ag25
aS'variable_5'
p44
ag14
aS'size_t'
p45
aS'variable_9'
p46
ag25
aS'2'
p47
ag5
aS'variable_1'
p48
aS'->'
p49
aS'variable_6'
p50
ag17
aS'variable_10'
p51
ag5
aS'variable_11'
p52
ag17
aS'while'
p53
ag7
ag7
aS'variable_9'
p54
ag29
aS'variable_1'
p55
aS'->'
p56
aS'variable_7'
p57
ag14
aS'<'
p58
ag25
aS'variable_4'
p59
ag14
aS'variable_9'
p60
ag5
ag25
ag47
ag17
aS'variable_11'
p61
ag25
aS'kmalloc'
p62
ag7
aS'variable_9'
p63
ag10
aS'variable_12'
p64
ag14
ag17
aS'if'
p65
ag7
ag22
aS'variable_11'
p66
ag14
aS'memcpy'
p67
ag7
aS'variable_11'
p68
ag10
aS'variable_1'
p69
aS'->'
p70
aS'variable_13'
p71
ag10
aS'variable_1'
p72
aS'->'
p73
aS'variable_7'
p74
ag14
ag17
aS'variable_11'
p75
aS'['
p76
aS'variable_1'
p77
aS'->'
p78
aS'variable_7'
p79
aS']'
p80
ag25
aS'0'
p81
ag17
aS'variable_1'
p82
aS'->'
p83
aS'variable_13'
p84
ag25
aS'variable_11'
p85
ag17
aS'variable_1'
p86
aS'->'
p87
aS'variable_8'
p88
ag25
aS'variable_1'
p89
aS'->'
p90
aS'variable_13'
p91
aS'+'
p92
aS'variable_1'
p93
aS'->'
p94
aS'variable_7'
p95
ag17
aS'variable_1'
p96
aS'->'
p97
aS'variable_6'
p98
ag25
aS'variable_9'
p99
ag17
aS'variable_5'
p100
ag25
aS'variable_1'
p101
aS'->'
p102
aS'variable_6'
p103
ag29
aS'variable_1'
p104
aS'->'
p105
aS'variable_7'
p106
ag17
aS'variable_4'
p107
ag25
aS'vsnprintf'
p108
ag7
aS'variable_1'
p109
aS'->'
p110
aS'variable_8'
p111
ag10
aS'variable_5'
p112
ag10
aS'variable_2'
p113
ag10
aS'variable_3'
p114
ag14
ag17
aS'variable_1'
p115
aS'->'
p116
aS'variable_8'
p117
aS'+='
p118
aS'variable_4'
p119
ag17
aS'variable_1'
p120
aS'->'
p121
aS'variable_7'
p122
aS'+='
p123
aS'variable_4'
p124
ag17
aS'return'
p125
aS'variable_1'
p126
ag17
aa(lp127
S'static'
p128
aS'variable_0'
p129
ag5
aS'func_0'
p130
ag7
aS'variable_0'
p131
ag5
aS'variable_1'
p132
ag10
aS'char'
p133
ag5
aS'variable_2'
p134
ag10
ag13
ag13
ag13
ag14
aS'size_t'
p135
aS'variable_3'
p136
ag10
aS'variable_4'
p137
ag17
aS'if'
p138
ag7
ag22
aS'variable_1'
p139
ag14
aS'variable_4'
p140
ag25
aS'variable_1'
p141
aS'->'
p142
aS'variable_5'
p143
ag29
aS'variable_1'
p144
aS'->'
p145
aS'variable_6'
p146
ag17
aS'variable_3'
p147
ag25
aS'vsnprintf'
p148
ag7
aS'variable_1'
p149
aS'->'
p150
aS'variable_7'
p151
ag10
aS'variable_4'
p152
ag10
aS'variable_2'
p153
ag10
aS'variable_8'
p154
ag14
ag17
aS'if'
p155
ag7
aS'variable_3'
p156
ag43
ag25
aS'variable_4'
p157
ag14
aS'while'
p158
ag7
ag7
aS'variable_9'
p159
ag29
aS'variable_1'
p160
aS'->'
p161
aS'variable_6'
p162
ag14
ag58
ag25
aS'variable_3'
p163
ag14
aS'variable_3'
p164
ag25
aS'vsnprintf'
p165
ag7
aS'variable_1'
p166
aS'->'
p167
aS'variable_7'
p168
ag10
aS'variable_4'
p169
ag10
aS'variable_2'
p170
ag10
aS'variable_8'
p171
ag14
ag17
aS'variable_1'
p172
aS'->'
p173
aS'variable_7'
p174
aS'+='
p175
aS'variable_3'
p176
ag17
aS'variable_1'
p177
aS'->'
p178
aS'variable_6'
p179
aS'+='
p180
aS'variable_3'
p181
ag17
aS'return'
p182
aS'variable_1'
p183
ag17
aaa(lp184
I0
aI0
aa(lp185
I158
aI35
aa(lp186
(lp187
S'main'
p188
aa(lp189
g188
aaa(lp190
S'37 /home/SySeVR/data/CVE_2007_1217_PATCHED_bufprint.c r = cdb -> size - cdb -> pos 31'
p191
aS'39 /home/SySeVR/data/CVE_2007_1217_PATCHED_bufprint.c r = cdb -> size - cdb -> pos 9'
p192
aa.