(lp0
(lp1
(lp2
S'int'
p3
aS'func_0'
p4
aS'('
p5
aS'int'
p6
aS'variable_0'
p7
aS')'
p8
aS'struct'
p9
aS'variable_1'
p10
aS'*'
p11
aS'variable_2'
p12
aS'='
p13
aS'variable_3'
p14
aS';'
p15
aS'static'
p16
aS'char'
p17
aS'variable_4'
p18
aS'['
p19
aS'sizeof'
p20
ag5
aS'variable_2'
p21
aS'->'
p22
aS'variable_5'
p23
ag8
aS']'
p24
ag15
aS'if'
p25
ag5
aS'strncmp'
p26
ag5
aS'variable_4'
p27
aS','
p28
aS'variable_2'
p29
aS'->'
p30
aS'variable_5'
p31
ag28
aS'sizeof'
p32
ag5
aS'variable_4'
p33
ag8
ag8
ag8
aS'strncpy'
p34
ag5
aS'variable_4'
p35
ag28
aS'variable_2'
p36
aS'->'
p37
aS'variable_5'
p38
ag28
aS'sizeof'
p39
ag5
aS'variable_4'
p40
ag8
ag8
ag15
aaa(lp41
I0
aa(lp42
I41
aa(lp43
(lp44
S'main'
p45
aaa(lp46
S'344 /home/SySeVR/data/CVE_2004_1151_PATCHED_sys32_ni_syscall.c strncpy 9'
p47
aa.