(lp0
(lp1
(lp2
S'static'
p3
aS'int'
p4
aS'func_0'
p5
aS'('
p6
aS'variable_0'
p7
aS'*'
p8
aS'variable_1'
p9
aS','
p10
aS'const'
p11
aS'struct'
p12
aS'variable_2'
p13
ag8
aS'variable_3'
p14
ag10
aS'int'
p15
aS'variable_4'
p16
ag10
aS'variable_5'
p17
ag8
aS'variable_6'
p18
ag10
aS'int'
p19
aS'variable_7'
p20
aS')'
p21
aS'int'
p22
aS'variable_8'
p23
ag10
aS'variable_9'
p24
ag10
aS'variable_10'
p25
ag10
aS'variable_11'
p26
aS';'
p27
aS'unsigned'
p28
aS'int'
p29
aS'variable_12'
p30
ag10
aS'variable_13'
p31
ag27
aS'for'
p32
ag6
aS'variable_8'
p33
aS'='
p34
aS'0'
p35
ag27
aS'variable_8'
p36
aS'<'
p37
aS'65'
p38
ag27
aS'variable_8'
p39
aS'++'
p40
ag21
aS'variable_12'
p41
ag34
aS'func_1'
p42
ag6
aS'variable_14'
p43
ag10
aS'variable_3'
p44
aS'->'
p45
aS'variable_15'
p46
ag21
ag27
aS'if'
p47
ag6
aS'variable_12'
p48
aS'>'
p49
ag34
aS'variable_16'
p50
ag21
aS'variable_13'
p51
ag34
ag6
ag6
aS'variable_12'
p52
aS'-'
p53
aS'variable_16'
p54
ag21
aS'>>'
p55
aS'1'
p56
ag21
aS'+'
p57
ag56
ag27
aS'variable_9'
p58
ag34
aS'func_2'
p59
ag6
aS'variable_14'
p60
ag10
aS'variable_17'
p61
ag21
ag27
aS'variable_10'
p62
ag34
aS'variable_9'
p63
ag57
ag6
aS'variable_13'
p64
ag49
aS'variable_3'
p65
aS'->'
p66
aS'variable_18'
p67
aS'?'
p68
ag56
aS':'
p69
aS'variable_3'
p70
aS'->'
p71
aS'variable_19'
p72
aS'['
p73
aS'variable_13'
p74
aS']'
p75
ag21
ag27
aS'while'
p76
ag6
aS'variable_10'
p77
ag49
aS'variable_3'
p78
aS'->'
p79
aS'variable_20'
p80
ag21
aS'variable_3'
p81
aS'++'
p82
ag27
aS'variable_10'
p83
ag34
ag6
aS'variable_10'
p84
aS'^'
p85
aS'variable_11'
p86
ag21
ag53
aS'variable_11'
p87
ag27
aS'variable_10'
p88
ag34
aS'variable_3'
p89
aS'->'
p90
aS'variable_21'
p91
ag73
aS'variable_12'
p92
ag75
ag73
ag35
ag75
ag27
aS'if'
p93
ag6
aS'!'
p94
aS'variable_10'
p95
ag21
aS'variable_3'
p96
aS'+='
p97
aS'variable_3'
p98
aS'->'
p99
aS'variable_21'
p100
ag73
aS'variable_12'
p101
ag75
ag73
aS'2'
p102
ag75
ag27
aS'variable_22'
p103
ag73
aS'variable_8'
p104
ag75
ag34
aS'variable_10'
p105
ag27
aS'variable_23'
p106
ag73
aS'variable_8'
p107
ag75
ag34
aS'variable_13'
p108
ag27
aS'if'
p109
ag6
aS'func_3'
p110
ag6
aS'variable_1'
p111
ag10
aS'variable_22'
p112
ag10
aS'variable_23'
p113
ag10
aS'variable_24'
p114
ag10
aS'variable_25'
p115
ag73
aS'variable_4'
p116
ag75
ag10
aS'variable_26'
p117
ag73
aS'variable_4'
p118
ag75
ag10
aS'variable_8'
p119
ag21
ag21
aaa(lp120
I0
aa(lp121
I78
aa(lp122
(lp123
S'main'
p124
aaa(lp125
S'245 /home/SySeVR/data/CVE_2011_3362_PATCHED_decode_residual_block.c run = ( ( level_code - ESCAPE_CODE ) >> 1 ) + 1 13'
p126
aa.