(lp0
(lp1
(lp2
S'int'
p3
aS'func_0'
p4
aS'('
p5
aS'int'
p6
aS'variable_0'
p7
aS','
p8
aS'variable_1'
p9
aS'*'
p10
ag10
aS'variable_2'
p11
aS')'
p12
aS'if'
p13
ag5
aS'variable_0'
p14
aS'<'
p15
aS'3'
p16
ag12
aS'variable_3'
p17
aS'['
p18
aS'variable_4'
p19
aS'-'
p20
aS'1'
p21
aS']'
p22
aS'='
p23
aS'func_1'
p24
ag5
aS"'"
p25
aS'\\'
p26
aS'0'
p27
ag25
ag12
aS';'
p28
aS'bool'
p29
aS'variable_5'
p30
ag23
aS'getenv'
p31
ag5
aS'"'
p32
aS'MOZ_NO_SERVICE_FALLBACK'
p33
ag32
ag12
aS'!='
p34
aS'NULL'
p35
ag28
aS'variable_6'
p36
ag23
aS'func_2'
p37
ag5
ag12
ag28
aS'variable_7'
p38
ag23
aS'func_3'
p39
ag5
ag12
ag28
aS'__int64'
p40
aS'variable_8'
p41
ag23
ag27
ag28
aS'if'
p42
ag5
aS'variable_0'
p43
aS'>'
p44
ag16
ag12
aS'variable_8'
p45
ag23
aS'func_4'
p46
ag5
aS'variable_2'
p47
ag18
ag16
ag22
ag12
ag28
aS'if'
p48
ag5
aS'variable_8'
p49
aS'=='
p50
ag20
ag21
ag12
aS'variable_9'
p51
ag23
aS'true'
p52
ag28
aS'if'
p53
ag5
aS'func_5'
p54
ag5
aS'variable_2'
p55
ag18
ag16
ag22
ag8
aS'func_6'
p56
ag5
ag32
aS'/'
p57
aS'replace'
p58
ag32
ag12
ag12
ag12
aS'variable_10'
p59
ag23
aS'true'
p60
ag28
aS'if'
p61
ag5
aS'variable_10'
p62
ag12
aS'NS_tchar'
p63
aS'variable_11'
p64
ag18
aS'variable_4'
p65
ag22
ag28
aS'if'
p66
ag5
aS'!'
p67
aS'func_7'
p68
ag5
aS'variable_11'
p69
ag12
ag12
aS'if'
p70
ag5
ag67
aS'func_8'
p71
ag5
ag32
aS'applying'
p72
ag32
ag12
ag12
aS'if'
p73
ag5
aS'variable_8'
p74
ag44
ag27
ag12
aS'HANDLE'
p75
aS'variable_12'
p76
ag23
aS'OpenProcess'
p77
ag5
aS'variable_13'
p78
ag8
aS'false'
p79
ag8
ag5
aS'variable_14'
p80
ag12
aS'variable_8'
p81
ag12
ag28
aS'if'
p82
ag5
aS'variable_12'
p83
ag12
aS'DWORD'
p84
aS'variable_15'
p85
ag23
aS'WaitForSingleObject'
p86
ag5
aS'variable_12'
p87
ag8
aS'5000'
p88
ag12
ag28
aS'if'
p89
ag5
aS'variable_15'
p90
aS'!='
p91
aS'variable_16'
p92
ag12
aS'const'
p93
aS'int'
p94
aS'variable_17'
p95
ag23
aS'5'
p96
ag28
aS'variable_18'
p97
ag23
aS'getenv'
p98
ag5
ag32
aS'MOZ_USING_SERVICE'
p99
ag32
ag12
aS'!='
p100
aS'NULL'
p101
ag28
aS'if'
p102
ag5
ag67
aS'variable_18'
p103
aS'&&'
p104
ag5
aS'variable_0'
p105
ag44
aS'variable_17'
p106
aS'||'
p107
aS'variable_9'
p108
aS'||'
p109
aS'variable_10'
p110
ag12
ag12
aS'NS_tchar'
p111
aS'variable_19'
p112
ag18
aS'variable_4'
p113
ag22
ag28
aS'if'
p114
ag5
aS'variable_9'
p115
ag12
aS'if'
p116
ag5
aS'variable_10'
p117
ag12
aS'NS_tchar'
p118
aS'variable_11'
p119
ag18
aS'variable_4'
p120
ag22
ag28
aS'if'
p121
ag5
ag67
aS'func_9'
p122
ag5
aS'variable_11'
p123
ag12
ag12
aS'if'
p124
ag5
ag67
aS'func_10'
p125
ag5
aS'variable_19'
p126
ag8
aS'variable_20'
p127
ag12
aS'&&'
p128
aS'func_11'
p129
ag5
aS'variable_19'
p130
ag12
aS'!='
p131
ag27
ag12
aS'variable_21'
p132
ag23
aS'func_12'
p133
ag5
aS'variable_19'
p134
ag8
aS'variable_22'
p135
aS'|'
p136
aS'variable_23'
p137
ag8
ag27
ag8
aS'NULL'
p138
ag8
aS'variable_24'
p139
ag8
aS'variable_25'
p140
ag8
aS'NULL'
p141
ag12
ag28
aS'if'
p142
ag5
aS'variable_21'
p143
aS'=='
p144
aS'variable_26'
p145
aS'||'
p146
ag5
aS'variable_6'
p147
aS'&&'
p148
aS'variable_7'
p149
aS'&&'
p150
aS'variable_5'
p151
ag12
ag12
aS'GonkAutoMounter'
p152
aS'variable_27'
p153
ag28
aS'if'
p154
ag5
aS'variable_27'
p155
aS'.'
p156
aS'func_13'
p157
ag5
ag12
aS'!='
p158
aS'variable_28'
p159
aS':'
p160
ag160
aS'variable_29'
p161
ag12
aS'if'
p162
ag5
ag67
aS'variable_10'
p163
ag12
aS'if'
p164
ag5
aS'func_14'
p165
ag5
aS'variable_3'
p166
ag12
aS'!='
p167
ag27
ag12
aS'int'
p168
aS'variable_30'
p169
ag23
aS'func_15'
p170
ag5
aS'variable_3'
p171
ag8
aS'0755'
p172
ag12
ag28
aS'if'
p173
ag5
aS'variable_30'
p174
aS'=='
p175
aS'variable_31'
p176
aS'&&'
p177
aS'variable_32'
p178
aS'!='
p179
aS'variable_33'
p180
ag12
aS'if'
p181
ag5
aS'func_16'
p182
ag5
aS'variable_3'
p183
ag12
aS'!='
p184
ag27
ag12
aS'if'
p185
ag5
ag67
aS'variable_10'
p186
ag12
aS'variable_1'
p187
ag10
aS'variable_34'
p188
ag23
ag5
aS'NS_tchar'
p189
ag10
ag12
aS'malloc'
p190
ag5
ag5
aS'func_17'
p191
ag5
aS'variable_3'
p192
ag12
aS'+'
p193
aS'2'
p194
ag12
ag10
aS'sizeof'
p195
ag5
aS'variable_1'
p196
ag12
ag12
ag28
aS'if'
p197
ag5
ag67
aS'variable_34'
p198
ag12
aS'NS_tchar'
p199
aS'variable_35'
p200
ag18
aS'variable_4'
p201
ag22
ag28
aS'if'
p202
ag5
ag67
aS'func_18'
p203
ag5
aS'variable_3'
p204
ag8
aS'variable_35'
p205
ag8
aS'sizeof'
p206
ag5
aS'variable_35'
p207
ag12
ag57
aS'sizeof'
p208
ag5
aS'variable_35'
p209
ag18
ag27
ag22
ag12
ag12
ag12
aS'if'
p210
ag5
aS'variable_0'
p211
ag44
aS'variable_17'
p212
ag12
aS'if'
p213
ag5
aS'variable_10'
p214
ag12
aS'size_t'
p215
aS'variable_36'
p216
ag23
aS'func_19'
p217
ag5
aS'variable_2'
p218
ag18
aS'variable_17'
p219
ag22
ag8
aS'variable_3'
p220
ag8
aS'NULL'
p221
ag12
ag28
aS'size_t'
p222
aS'variable_37'
p223
ag23
aS'func_20'
p224
ag5
aS'variable_3'
p225
ag193
aS'variable_36'
p226
ag12
ag28
aS'variable_38'
p227
aS'+='
p228
aS'variable_37'
p229
ag28
aS'variable_39'
p230
aS'-='
p231
aS'variable_37'
p232
ag28
ag10
aS'variable_38'
p233
ag23
aS'func_21'
p234
ag5
ag25
ag26
ag26
ag25
ag12
ag28
aS'variable_39'
p235
aS'--'
p236
ag28
ag10
aS'variable_38'
p237
ag23
aS'func_22'
p238
ag5
ag25
ag26
ag27
ag25
ag12
ag28
aS'func_23'
p239
ag5
aS'variable_38'
p240
ag8
aS'variable_2'
p241
ag18
aS'variable_17'
p242
ag22
ag193
aS'max'
p243
ag5
aS'variable_40'
p244
ag8
aS'variable_36'
p245
ag12
ag8
aS'variable_39'
p246
ag12
ag28
aaa(lp247
I0
aa(lp248
I448
aa(lp249
(lp250
S'main'
p251
aaa(lp252
S'835 /home/SySeVR/data/CVE_2013_1707_PATCHED_NS_main.c size_t len = NS_tstrlen ( gDestinationPath + commonPrefixLength ) ; 590'
p253
aa.