(lp0
(lp1
(lp2
S'func_0'
p3
aS'('
p4
aS'variable_0'
p5
aS'*'
p6
aS'variable_1'
p7
aS','
p8
aS'variable_2'
p9
ag6
aS'variable_3'
p10
aS')'
p11
aS'variable_2'
p12
ag6
aS'variable_4'
p13
aS';'
p14
aS'variable_2'
p15
ag6
aS'variable_5'
p16
ag14
aS'const'
p17
aS'char'
p18
ag6
aS'variable_6'
p19
ag14
aS'char'
p20
aS'variable_7'
p21
aS'['
p22
aS'variable_8'
p23
aS']'
p24
ag8
aS'variable_9'
p25
ag22
aS'variable_10'
p26
ag24
ag8
aS'variable_11'
p27
ag22
aS'variable_8'
p28
aS'+'
p29
aS'variable_10'
p30
ag29
aS'2'
p31
ag24
ag14
aS'variable_12'
p32
ag6
aS'variable_13'
p33
ag14
aS'if'
p34
ag4
ag4
aS'variable_4'
p35
aS'='
p36
aS'func_1'
p37
ag4
aS'variable_1'
p38
aS'->'
p39
aS'variable_14'
p40
ag8
aS'"'
p41
aS'compression'
p42
ag41
ag8
aS'variable_15'
p43
ag11
ag11
aS'!='
p44
aS'NULL'
p45
ag11
aS'if'
p46
ag4
aS'!'
p47
aS'variable_1'
p48
aS'->'
p49
aS'variable_16'
p50
ag11
aS'if'
p51
ag4
ag47
aS'func_2'
p52
ag4
aS'variable_3'
p53
aS'->'
p54
aS'variable_17'
p55
ag22
aS'0'
p56
ag24
aS'.'
p57
aS'variable_18'
p58
ag57
aS'variable_19'
p59
ag8
aS'NULL'
p60
ag8
aS'&'
p61
aS'variable_13'
p62
ag11
ag11
aS'if'
p63
ag4
ag4
aS'variable_5'
p64
ag36
aS'func_3'
p65
ag4
aS'variable_1'
p66
aS'->'
p67
aS'variable_14'
p68
ag8
ag41
aS'document'
p69
aS'-'
p70
aS'format'
p71
ag41
ag8
aS'variable_20'
p72
ag11
ag11
aS'!='
p73
aS'NULL'
p74
ag11
aS'if'
p75
ag4
ag4
aS'variable_6'
p76
ag36
aS'func_4'
p77
ag4
ag41
aS'document'
p78
ag70
aS'format'
p79
ag41
ag8
aS'variable_13'
p80
aS'->'
p81
aS'variable_21'
p82
ag8
aS'variable_13'
p83
aS'->'
p84
aS'variable_22'
p85
ag11
ag11
aS'!='
p86
aS'NULL'
p87
ag11
aS'if'
p88
ag4
aS'sscanf'
p89
ag4
aS'variable_6'
p90
ag8
ag41
aS'%'
p91
aS'15'
p92
ag22
aS'^'
p93
aS'/'
p94
ag24
ag94
ag91
aS'255'
p95
ag22
ag93
ag14
ag24
ag41
ag8
aS'variable_7'
p96
ag8
aS'variable_9'
p97
ag11
aS'!='
p98
ag31
ag11
aS'if'
p99
ag4
ag47
aS'strcmp'
p100
ag4
aS'variable_7'
p101
ag8
ag41
aS'application'
p102
ag41
ag11
aS'&&'
p103
ag47
aS'strcmp'
p104
ag4
aS'variable_9'
p105
ag8
ag41
aS'octet'
p106
ag70
aS'stream'
p107
ag41
ag11
ag11
aS'variable_23'
p108
ag36
aS'func_5'
p109
ag4
aS'variable_24'
p110
ag8
aS'variable_7'
p111
ag8
aS'variable_9'
p112
ag11
ag14
aS'func_6'
p113
ag4
aS'variable_25'
p114
ag8
ag41
ag22
aS'Job'
p115
aS'?'
p116
ag116
ag116
ag24
aS'Request'
p117
aS'file'
p118
aS'type'
p119
aS'is'
p120
ag91
aS's'
p121
ag94
ag91
ag121
ag57
ag41
ag8
aS'variable_23'
p122
aS'->'
p123
aS'variable_7'
p124
ag8
aS'variable_23'
p125
aS'->'
p126
aS'variable_9'
p127
ag11
ag14
aS'variable_23'
p128
ag36
aS'func_7'
p129
ag4
aS'variable_24'
p130
ag8
aS'variable_7'
p131
ag8
aS'variable_9'
p132
ag11
ag14
aS'if'
p133
ag4
aS'variable_23'
p134
aS'&&'
p135
ag4
ag47
aS'variable_5'
p136
aS'||'
p137
ag4
ag47
aS'strcmp'
p138
ag4
aS'variable_7'
p139
ag8
ag41
aS'application'
p140
ag41
ag11
aS'&&'
p141
ag47
aS'strcmp'
p142
ag4
aS'variable_9'
p143
ag8
ag41
aS'octet'
p144
ag70
aS'stream'
p145
ag41
ag11
ag11
ag11
ag11
aS'snprintf'
p146
ag4
aS'variable_11'
p147
ag8
aS'sizeof'
p148
ag4
aS'variable_11'
p149
ag11
ag8
ag41
ag91
ag121
ag94
ag91
ag121
ag41
ag8
aS'variable_23'
p150
aS'->'
p151
aS'variable_7'
p152
ag8
aS'variable_23'
p153
aS'->'
p154
aS'variable_9'
p155
ag11
ag14
aS'func_8'
p156
ag4
aS'variable_1'
p157
aS'->'
p158
aS'variable_14'
p159
ag8
ag61
aS'variable_5'
p160
ag8
ag56
ag8
aS'variable_11'
p161
ag11
ag14
aS'func_9'
p162
ag4
aS'variable_1'
p163
aS'->'
p164
aS'variable_14'
p165
ag8
aS'variable_26'
p166
ag8
aS'variable_20'
p167
ag8
ag41
aS'document'
p168
ag70
aS'format'
p169
ag41
ag8
aS'NULL'
p170
ag8
aS'variable_11'
p171
ag11
ag14
aS'if'
p172
ag4
ag47
aS'variable_23'
p173
ag11
aS'if'
p174
ag4
ag47
aS'func_10'
p175
ag4
aS'variable_23'
p176
aS'->'
p177
aS'variable_7'
p178
ag8
ag41
aS'application'
p179
ag41
ag11
aS'&&'
p180
ag4
ag47
aS'func_11'
p181
ag4
aS'variable_23'
p182
aS'->'
p183
aS'variable_9'
p184
ag8
ag41
aS'postscript'
p185
ag41
ag11
aS'||'
p186
ag47
aS'func_12'
p187
ag4
aS'variable_23'
p188
aS'->'
p189
aS'variable_9'
p190
ag8
ag41
aS'pdf'
p191
ag41
ag11
ag11
ag11
aS'if'
p192
ag4
ag4
aS'variable_27'
p193
ag36
aS'func_13'
p194
ag4
aS'variable_1'
p195
ag8
aS'variable_13'
p196
ag8
aS'variable_23'
p197
ag11
ag11
aS'=='
p198
aS'NULL'
p199
ag11
aS'func_14'
p200
ag4
aS'variable_13'
p201
ag8
aS'variable_27'
p202
aS'->'
p203
aS'variable_28'
p204
ag8
ag56
ag8
aS'variable_29'
p205
ag11
ag14
aS'variable_27'
p206
aS'->'
p207
aS'variable_30'
p208
aS'+='
p209
aS'variable_29'
p210
ag14
aS'if'
p211
ag4
ag4
aS'variable_4'
p212
ag36
aS'func_15'
p213
ag4
aS'variable_27'
p214
aS'->'
p215
aS'variable_31'
p216
ag8
ag41
aS'job'
p217
ag70
aS'k'
p218
ag70
aS'octets'
p219
ag41
ag8
aS'variable_32'
p220
ag11
ag11
aS'!='
p221
aS'NULL'
p222
ag11
aS'variable_4'
p223
aS'->'
p224
aS'variable_17'
p225
ag22
ag56
ag24
ag57
aS'variable_33'
p226
aS'+='
p227
aS'variable_29'
p228
ag14
aS'if'
p229
ag4
aS'func_16'
p230
ag4
aS'variable_1'
p231
ag8
aS'variable_27'
p232
ag8
aS'variable_23'
p233
ag8
aS'variable_34'
p234
ag11
ag11
aS'snprintf'
p235
ag4
aS'variable_16'
p236
ag8
aS'sizeof'
p237
ag4
aS'variable_16'
p238
ag11
ag8
ag41
ag91
ag121
ag94
aS'd'
p239
ag91
aS'05d'
p240
ag70
ag91
aS'03d'
p241
ag41
ag8
aS'variable_35'
p242
ag8
aS'variable_27'
p243
aS'->'
p244
aS'variable_36'
p245
ag8
aS'variable_27'
p246
aS'->'
p247
aS'variable_37'
p248
ag11
ag14
aS'rename'
p249
ag4
aS'variable_1'
p250
aS'->'
p251
aS'variable_16'
p252
ag8
aS'variable_16'
p253
ag11
ag14
aS'if'
p254
ag4
aS'func_17'
p255
ag4
aS'variable_27'
p256
ag11
ag11
aS'func_18'
p257
ag4
aS'variable_27'
p258
ag8
aS'variable_25'
p259
ag8
ag41
aS'File'
p260
aS'of'
p261
aS'type'
p262
ag91
ag121
ag94
ag91
ag121
aS'queued'
p263
aS'by'
p264
aS'\\'
p265
ag41
ag91
aS'variable_38'
p266
ag265
ag41
ag57
ag41
ag8
aS'variable_23'
p267
aS'->'
p268
aS'variable_7'
p269
ag8
aS'variable_23'
p270
aS'->'
p271
aS'variable_9'
p272
ag8
aS'variable_27'
p273
aS'->'
p274
aS'variable_28'
p275
ag11
ag14
aS'func_19'
p276
ag4
aS'variable_27'
p277
ag8
aS'variable_39'
p278
ag8
ag41
aS'hold_until'
p279
ag36
ag91
ag239
ag41
ag8
ag4
aS'int'
p280
ag11
aS'variable_27'
p281
aS'->'
p282
aS'variable_40'
p283
ag11
ag14
aS'func_20'
p284
ag4
aS'variable_27'
p285
ag8
aS'variable_25'
p286
ag8
ag41
aS'Queued'
p287
aS'on'
p288
ag265
ag41
ag91
aS'variable_38'
p289
ag265
ag41
aS'by'
p290
ag265
ag41
ag91
aS'variable_38'
p291
ag265
ag41
ag57
ag41
ag8
aS'variable_27'
p292
aS'->'
p293
aS'variable_41'
p294
ag8
aS'variable_27'
p295
aS'->'
p296
aS'variable_28'
p297
ag11
ag14
aa(lp298
S'func_0'
p299
ag4
aS'variable_0'
p300
ag6
aS'variable_1'
p301
ag8
aS'variable_2'
p302
ag6
aS'variable_3'
p303
ag11
aS'variable_2'
p304
ag6
aS'variable_4'
p305
ag14
aS'variable_2'
p306
ag6
aS'variable_5'
p307
ag14
aS'char'
p308
aS'variable_6'
p309
ag22
aS'variable_7'
p310
ag24
ag8
aS'variable_8'
p311
ag22
aS'variable_9'
p312
ag24
ag8
aS'variable_10'
p313
ag22
aS'variable_7'
p314
ag29
aS'variable_9'
p315
ag29
ag31
ag24
ag14
aS'variable_11'
p316
ag6
aS'variable_12'
p317
ag14
aS'if'
p318
ag4
ag4
aS'variable_4'
p319
ag36
aS'func_1'
p320
ag4
aS'variable_1'
p321
aS'->'
p322
aS'variable_13'
p323
ag8
ag41
aS'compression'
p324
ag41
ag8
aS'variable_14'
p325
ag11
ag11
aS'!='
p326
aS'NULL'
p327
ag11
aS'if'
p328
ag4
ag47
aS'variable_1'
p329
aS'->'
p330
aS'variable_15'
p331
ag11
aS'if'
p332
ag4
ag47
aS'func_2'
p333
ag4
aS'variable_3'
p334
aS'->'
p335
aS'variable_16'
p336
ag22
ag56
ag24
ag57
aS'variable_17'
p337
ag57
aS'variable_18'
p338
ag8
aS'NULL'
p339
ag8
ag61
aS'variable_12'
p340
ag11
ag11
aS'if'
p341
ag4
ag4
aS'variable_5'
p342
ag36
aS'func_3'
p343
ag4
aS'variable_1'
p344
aS'->'
p345
aS'variable_13'
p346
ag8
ag41
aS'document'
p347
ag70
aS'format'
p348
ag41
ag8
aS'variable_19'
p349
ag11
ag11
aS'!='
p350
aS'NULL'
p351
ag11
aS'if'
p352
ag4
aS'sscanf'
p353
ag4
aS'variable_5'
p354
aS'->'
p355
aS'variable_16'
p356
ag22
ag56
ag24
ag57
aS'variable_17'
p357
ag57
aS'variable_18'
p358
ag8
ag41
ag91
aS'15'
p359
ag22
ag93
ag94
ag24
ag94
ag91
aS'255'
p360
ag22
ag93
ag14
ag24
ag41
ag8
aS'variable_6'
p361
ag8
aS'variable_8'
p362
ag11
aS'!='
p363
ag31
ag11
aaa(lp364
I0
aI0
aa(lp365
I147
aI117
aa(lp366
(lp367
S'main'
p368
aa(lp369
g368
aaa(lp370
S'895 /home/SySeVR/data/CVE_2015_1158_PATCHED_print_job.c sscanf 109'
p371
aS'896 /home/SySeVR/data/CVE_2015_1158_PATCHED_print_job.c sscanf 92'
p372
aa.