(lp0
(lp1
(lp2
S'func_0'
p3
aS'('
p4
aS'variable_0'
p5
aS'*'
p6
aS'variable_1'
p7
aS','
p8
aS'variable_2'
p9
ag6
aS'variable_3'
p10
ag8
aS'variable_4'
p11
ag6
aS')'
p12
aS'if'
p13
ag4
aS'variable_7'
p14
aS'>'
p15
aS'variable_8'
p16
ag12
aS'if'
p17
ag4
aS'variable_9'
p18
ag12
aS'variable_5'
p19
ag6
aS'variable_10'
p20
aS';'
p21
aS'variable_10'
p22
aS'='
p23
aS'func_1'
p24
ag4
aS'variable_7'
p25
ag6
aS'sizeof'
p26
ag4
aS'variable_5'
p27
ag12
ag12
ag21
aS'for'
p28
ag4
aS'variable_11'
p29
ag23
aS'variable_12'
p30
ag21
aS'variable_11'
p31
aS'!='
p32
aS'NULL'
p33
aS'&&'
p34
aS'variable_13'
p35
aS'<'
p36
aS'variable_7'
p37
ag21
aS'variable_11'
p38
ag23
aS'variable_11'
p39
aS'->'
p40
aS'variable_14'
p41
ag12
aS'variable_10'
p42
aS'['
p43
aS'variable_13'
p44
aS'++'
p45
aS']'
p46
ag23
aS'variable_11'
p47
aS'->'
p48
aS'variable_15'
p49
ag21
aS'if'
p50
ag4
aS'variable_13'
p51
ag15
ag23
aS'variable_16'
p52
ag12
aS'func_2'
p53
ag4
aS'variable_17'
p54
ag8
aS'variable_1'
p55
ag8
aS'0'
p56
ag8
aS'-'
p57
aS'1'
p58
ag8
aS'"'
p59
aS'want'
p60
aS'%'
p61
aS'd'
p62
ag8
aS'got'
p63
ag61
ag62
aS'need'
p64
ag61
ag62
ag59
ag8
aS'variable_7'
p65
ag8
aS'variable_13'
p66
ag8
aS'variable_16'
p67
ag12
ag21
aS'for'
p68
ag4
aS'variable_18'
p69
ag23
ag56
ag21
aS'variable_18'
p70
ag36
aS'variable_13'
p71
ag21
aS'variable_18'
p72
aS'++'
p73
ag12
aS'guint'
p74
aS'variable_19'
p75
ag23
aS'variable_10'
p76
ag43
aS'variable_18'
p77
ag46
ag21
aS'if'
p78
ag4
aS'variable_19'
p79
ag15
aS'variable_8'
p80
ag12
aS'func_3'
p81
ag4
aS'variable_17'
p82
ag8
aS'variable_1'
p83
ag8
ag56
ag8
ag57
ag58
ag8
ag59
ag43
aS'Reassembly'
p84
aS'of'
p85
ag61
ag62
aS'fragments'
p86
aS'not'
p87
aS'attempted'
p88
ag46
ag59
ag8
aS'variable_19'
p89
ag12
ag21
aS'if'
p90
ag4
aS'variable_19'
p91
ag57
aS'variable_20'
p92
ag15
aS'variable_21'
p93
ag12
aS'func_4'
p94
ag4
aS'variable_17'
p95
ag8
aS'variable_1'
p96
ag8
ag56
ag8
ag57
ag58
ag8
ag59
ag43
aS'Missing'
p97
ag61
ag62
aS'consecutive'
p98
aS'packets'
p99
aS'.'
p100
aS'Don'
p101
aS"'"
p102
aS't'
p103
aS'attempt'
p104
aS'reassembly'
p105
ag46
ag59
ag8
aS'variable_19'
p106
ag57
aS'variable_20'
p107
ag12
ag21
aS'for'
p108
ag4
ag21
aS'variable_20'
p109
ag36
aS'variable_19'
p110
ag21
aS'variable_20'
p111
aS'++'
p112
ag12
aa(lp113
S'func_0'
p114
ag4
aS'variable_0'
p115
ag6
aS'variable_1'
p116
ag8
aS'variable_2'
p117
ag6
aS'variable_3'
p118
ag8
aS'variable_4'
p119
ag6
ag12
aS'guint32'
p120
aS'variable_7'
p121
ag21
aS'if'
p122
ag4
aS'variable_8'
p123
ag15
aS'variable_9'
p124
ag12
aS'variable_7'
p125
ag23
aS'variable_8'
p126
ag6
aS'variable_10'
p127
ag21
aS'variable_11'
p128
ag6
aS'variable_12'
p129
ag23
ag4
aS'guint8'
p130
ag6
ag12
aS'func_1'
p131
ag4
aS'variable_7'
p132
ag12
ag21
aS'variable_13'
p133
ag23
aS'func_2'
p134
ag4
aS'variable_14'
p135
ag8
aS'variable_12'
p136
ag8
aS'variable_15'
p137
ag8
aS'variable_16'
p138
ag8
aS'variable_17'
p139
ag12
ag21
aS'func_3'
p140
ag4
aS'variable_18'
p141
ag8
aS'variable_19'
p142
ag8
aS'variable_1'
p143
ag8
aS'variable_20'
p144
ag8
aS'2'
p145
ag8
aS'variable_13'
p146
ag12
ag21
aS'variable_21'
p147
ag23
aS'func_4'
p148
ag4
aS'variable_22'
p149
ag8
aS'variable_12'
p150
ag8
aS'variable_7'
p151
ag8
aS'variable_7'
p152
ag12
ag21
aS'func_5'
p153
ag4
aS'variable_3'
p154
ag8
aS'variable_21'
p155
ag8
ag59
aS'RS'
p156
aS'Error'
p157
aS'Corrected'
p158
aS'Data'
p159
ag59
ag12
ag21
aS'func_6'
p160
ag4
aS'variable_21'
p161
ag8
aS'variable_23'
p162
ag12
ag21
aS'return'
p163
aS'variable_21'
p164
ag21
aaa(lp165
I0
aI0
aa(lp166
I39
aI29
aa(lp167
(lp168
S'main'
p169
aa(lp170
g169
aaa(lp171
S'498 /home/SySeVR/data/CVE_2013_3559_PATCHED_dissect_pft_fec_detailed.c got = ep_alloc ( fcount * sizeof ( guint32 ) ) 45'
p172
aS'501 /home/SySeVR/data/CVE_2013_3559_PATCHED_dissect_pft_fec_detailed.c decoded_size = fcount * plen 25'
p173
aa.