(lp0
(lp1
(lp2
S'static'
p3
aS'long'
p4
aS'func_0'
p5
aS'('
p6
aS'struct'
p7
aS'variable_0'
p8
aS'*'
p9
aS'variable_0'
p10
aS','
p11
aS'int'
p12
aS'variable_1'
p13
ag11
aS'loff_t'
p14
aS'variable_2'
p15
aS')'
p16
aS'struct'
p17
aS'variable_3'
p18
ag9
aS'variable_3'
p19
aS'='
p20
aS'variable_0'
p21
aS'->'
p22
aS'variable_4'
p23
aS'.'
p24
aS'variable_5'
p25
aS'->'
p26
aS'variable_6'
p27
aS';'
p28
aS'struct'
p29
aS'variable_7'
p30
ag9
aS'variable_8'
p31
ag20
aS'func_1'
p32
ag6
aS'variable_3'
p33
ag16
ag28
aS'loff_t'
p34
aS'variable_9'
p35
ag20
ag6
aS'variable_10'
p36
aS'+'
p37
aS'variable_2'
p38
aS'-'
p39
aS'1'
p40
ag16
aS'>>'
p41
aS'variable_8'
p42
aS'->'
p43
aS'variable_11'
p44
ag24
aS'variable_12'
p45
ag28
aS'variable_9'
p46
ag20
ag6
aS'variable_9'
p47
ag37
ag40
ag16
aS'<<'
p48
aS'variable_8'
p49
aS'->'
p50
aS'variable_11'
p51
ag24
aS'variable_12'
p52
ag28
aS'variable_2'
p53
ag20
aS'variable_9'
p54
ag39
aS'variable_10'
p55
ag28
aS'if'
p56
ag6
aS'!'
p57
aS'func_2'
p58
ag6
aS'variable_13'
p59
ag11
aS'variable_10'
p60
ag11
aS'variable_2'
p61
ag16
ag16
aS'while'
p62
ag6
aS'variable_2'
p63
aS'>'
p64
aS'0'
p65
ag16
aS'if'
p66
ag6
aS'variable_2'
p67
aS'<'
p68
aS'variable_14'
p69
ag16
aS'variable_14'
p70
ag20
aS'variable_2'
p71
ag28
aS'func_3'
p72
ag6
aS'variable_13'
p73
ag11
aS'variable_14'
p74
ag11
aS'&'
p75
aS'variable_15'
p76
ag11
ag75
aS'variable_16'
p77
ag16
ag28
aS'if'
p78
ag6
aS'variable_17'
p79
aS'=='
p80
ag39
aS'variable_18'
p81
aS'&&'
p82
aS'variable_14'
p83
ag64
aS'variable_8'
p84
aS'->'
p85
aS'variable_11'
p86
ag24
aS'variable_19'
p87
ag16
aS'variable_14'
p88
aS'>>'
p89
ag20
ag40
ag28
aS'variable_14'
p90
ag75
ag20
aS'variable_20'
p91
ag28
aS'if'
p92
ag6
aS'variable_14'
p93
aS'=='
p94
ag65
ag16
aS'variable_21'
p95
ag20
aS'variable_14'
p96
ag28
aS'func_4'
p97
ag6
aS'variable_13'
p98
ag11
aS'variable_2'
p99
ag11
ag75
aS'variable_21'
p100
ag11
ag75
aS'variable_15'
p101
ag11
ag75
aS'variable_16'
p102
ag16
ag28
aS'variable_17'
p103
ag20
aS'func_5'
p104
ag6
aS'variable_3'
p105
ag11
aS'variable_10'
p106
ag11
aS'variable_21'
p107
ag11
aS'variable_1'
p108
ag16
ag28
aS'if'
p109
ag6
aS'variable_17'
p110
ag16
aS'variable_2'
p111
aS'-='
p112
aS'variable_21'
p113
ag28
aS'variable_10'
p114
aS'+='
p115
aS'variable_21'
p116
ag28
aS'return'
p117
aS'variable_17'
p118
ag28
aaa(lp119
I0
aa(lp120
I54
aa(lp121
(lp122
S'main'
p123
aaa(lp124
S'767 /home/SySeVR/data/CVE_2011_2689_PATCHED_gfs2_fallocate.c loff_t next = ( offset + len - 1 ) >> sdp -> sd_sb . sb_bsize_shift ; 12'
p125
aa.