(lp0
(lp1
(lp2
S'func_0'
p3
aS'('
p4
aS'variable_0'
p5
aS'*'
p6
ag6
aS'variable_1'
p7
aS')'
p8
aS'unsigned'
p9
aS'long'
p10
aS'variable_2'
p11
aS';'
p12
aS'unsigned'
p13
aS'char'
p14
ag6
aS'variable_3'
p15
ag12
aS'variable_0'
p16
ag6
aS'variable_4'
p17
aS'='
p18
ag6
aS'variable_1'
p19
ag12
aS'variable_5'
p20
ag6
aS'variable_6'
p21
ag18
aS'variable_4'
p22
aS'->'
p23
aS'variable_7'
p24
ag12
aS'variable_8'
p25
ag6
aS'variable_9'
p26
ag12
aS'variable_2'
p27
ag18
aS'func_1'
p28
ag4
aS'variable_4'
p29
ag8
ag12
aS'variable_9'
p30
ag18
aS'func_2'
p31
ag4
aS'variable_10'
p32
aS','
p33
aS'variable_2'
p34
ag33
aS'variable_6'
p35
ag8
ag12
aS'if'
p36
ag4
aS'variable_9'
p37
aS'!='
p38
aS'NULL'
p39
ag8
aS'if'
p40
ag4
aS'!'
p41
aS'variable_6'
p42
ag8
aS'variable_11'
p43
ag18
aS'func_3'
p44
ag4
aS'variable_10'
p45
ag33
aS'variable_2'
p46
ag33
aS'variable_12'
p47
aS'|'
p48
aS'variable_13'
p49
ag33
aS'variable_1'
p50
ag8
ag12
aS'if'
p51
ag4
aS'func_4'
p52
ag4
aS'variable_11'
p53
ag8
ag8
aS'variable_4'
p54
ag18
ag6
aS'variable_1'
p55
ag12
aS'variable_6'
p56
ag18
aS'variable_4'
p57
aS'->'
p58
aS'variable_7'
p59
ag12
aS'if'
p60
ag4
aS'variable_10'
p61
aS'->'
p62
aS'variable_14'
p63
aS'=='
p64
aS'NULL'
p65
ag8
aS'variable_11'
p66
ag18
aS'func_5'
p67
ag4
aS'variable_15'
p68
ag33
aS'variable_10'
p69
ag8
ag12
aS'if'
p70
ag4
aS'func_6'
p71
ag4
aS'variable_11'
p72
ag8
ag8
aS'variable_9'
p73
ag18
aS'func_7'
p74
ag4
aS'variable_10'
p75
ag33
aS'variable_6'
p76
aS'->'
p77
aS'variable_16'
p78
ag8
ag12
aS'int'
p79
aS'variable_17'
p80
ag18
aS'func_8'
p81
ag4
aS'variable_9'
p82
aS'->'
p83
aS'variable_16'
p84
ag33
aS'variable_6'
p85
aS'->'
p86
aS'variable_18'
p87
ag8
ag6
aS'variable_6'
p88
aS'->'
p89
aS'variable_19'
p90
ag12
aS'int'
p91
aS'variable_20'
p92
ag18
ag4
aS'func_9'
p93
ag4
aS'variable_15'
p94
aS'->'
p95
aS'variable_15'
p96
ag8
aS'?'
p97
aS'func_10'
p98
ag4
aS'variable_15'
p99
aS'->'
p100
aS'variable_15'
p101
ag8
aS':'
p102
aS'func_11'
p103
ag4
aS'variable_15'
p104
aS'->'
p105
aS'variable_15'
p106
ag8
ag8
ag6
aS'4'
p107
aS'-'
p108
aS'variable_21'
p109
ag108
aS'variable_22'
p110
ag108
aS'8'
p111
ag12
aS'if'
p112
ag4
aS'variable_17'
p113
aS'>'
p114
ag18
aS'variable_20'
p115
ag8
aS'if'
p116
ag4
aS'variable_6'
p117
aS'->'
p118
aS'variable_18'
p119
aS'=='
p120
aS'0'
p121
aS'||'
p122
aS'variable_6'
p123
aS'->'
p124
aS'variable_19'
p125
aS'=='
p126
ag121
ag8
aS'variable_23'
p127
ag6
aS'variable_24'
p128
ag12
aS'variable_24'
p129
ag18
aS'func_12'
p130
ag4
aS'variable_9'
p131
aS'->'
p132
aS'variable_16'
p133
ag33
aS'1'
p134
ag33
ag134
ag8
ag12
aS'variable_11'
p135
ag18
aS'variable_24'
p136
aS'->'
p137
aS'variable_11'
p138
ag12
aS'if'
p139
ag4
aS'func_13'
p140
ag4
aS'variable_11'
p141
ag8
ag8
aS'variable_24'
p142
aS'->'
p143
aS'variable_25'
p144
ag18
aS'variable_6'
p145
aS'->'
p146
aS'variable_26'
p147
aS'.'
p148
aS'variable_25'
p149
ag12
aS'variable_24'
p150
aS'->'
p151
aS'variable_27'
p152
ag18
aS'variable_6'
p153
aS'->'
p154
aS'variable_26'
p155
ag148
aS'variable_27'
p156
ag12
aS'variable_6'
p157
ag18
ag4
aS'cairo_image_surface_t'
p158
ag6
ag8
aS'variable_24'
p159
ag12
aS'if'
p160
ag4
aS'variable_6'
p161
aS'->'
p162
aS'variable_16'
p163
aS'!='
p164
aS'variable_9'
p165
aS'->'
p166
aS'variable_16'
p167
ag8
aS'cairo_surface_pattern_t'
p168
aS'variable_28'
p169
ag12
aS'variable_23'
p170
ag6
aS'variable_24'
p171
ag12
aS'variable_24'
p172
ag18
aS'func_14'
p173
ag4
aS'variable_9'
p174
aS'->'
p175
aS'variable_16'
p176
ag33
aS'variable_6'
p177
aS'->'
p178
aS'variable_18'
p179
ag33
aS'variable_6'
p180
aS'->'
p181
aS'variable_19'
p182
ag8
ag12
aS'variable_11'
p183
ag18
aS'variable_24'
p184
aS'->'
p185
aS'variable_11'
p186
ag12
aS'if'
p187
ag4
aS'func_15'
p188
ag4
aS'variable_11'
p189
ag8
ag8
aS'variable_24'
p190
aS'->'
p191
aS'variable_25'
p192
ag18
aS'variable_6'
p193
aS'->'
p194
aS'variable_26'
p195
ag148
aS'variable_25'
p196
ag12
aS'variable_24'
p197
aS'->'
p198
aS'variable_27'
p199
ag18
aS'variable_6'
p200
aS'->'
p201
aS'variable_26'
p202
ag148
aS'variable_27'
p203
ag12
aS'variable_11'
p204
ag18
aS'func_16'
p205
ag4
aS'variable_24'
p206
ag33
aS'variable_29'
p207
ag33
aS'&'
p208
aS'variable_28'
p209
ag148
aS'variable_26'
p210
ag33
aS'NULL'
p211
ag8
ag12
aS'variable_6'
p212
ag18
ag4
aS'cairo_image_surface_t'
p213
ag6
ag8
aS'variable_24'
p214
ag12
aS'if'
p215
ag4
aS'func_17'
p216
ag4
aS'variable_11'
p217
ag8
ag8
aS'variable_3'
p218
ag18
aS'variable_6'
p219
aS'->'
p220
aS'variable_3'
p221
ag12
aS'switch'
p222
ag4
aS'func_18'
p223
ag4
aS'variable_4'
p224
aS'->'
p225
aS'variable_7'
p226
aS'->'
p227
aS'variable_16'
p228
ag8
ag8
aS'if'
p229
ag4
aS'func_19'
p230
ag4
ag8
aS'!='
p231
ag4
aS'func_20'
p232
ag4
aS'variable_15'
p233
aS'->'
p234
aS'variable_15'
p235
ag8
aS'=='
p236
aS'variable_30'
p237
ag8
ag8
aS'if'
p238
ag4
aS'func_21'
p239
ag4
ag8
aS'!='
p240
ag4
aS'func_22'
p241
ag4
aS'variable_15'
p242
aS'->'
p243
aS'variable_15'
p244
ag8
aS'=='
p245
aS'variable_30'
p246
ag8
ag8
aS'if'
p247
ag4
aS'variable_3'
p248
aS'!='
p249
aS'variable_6'
p250
aS'->'
p251
aS'variable_3'
p252
ag8
aS'free'
p253
ag4
aS'variable_3'
p254
ag8
ag12
aaa(lp255
I0
aa(lp256
I419
aa(lp257
(lp258
S'main'
p259
aaa(lp260
S'334 /home/SySeVR/data/CVE_2013_1678_PATCHED__cairo_xlib_surface_add_glyph.c free 187'
p261
aa.