(lp0
(lp1
(lp2
S'func_0'
p3
aS'('
p4
aS'variable_0'
p5
aS'*'
p6
ag6
aS'variable_1'
p7
aS')'
p8
aS'unsigned'
p9
aS'long'
p10
aS'variable_2'
p11
aS';'
p12
aS'variable_0'
p13
ag6
aS'variable_3'
p14
aS'='
p15
ag6
aS'variable_1'
p16
ag12
aS'variable_4'
p17
ag6
aS'variable_5'
p18
ag15
aS'variable_3'
p19
aS'->'
p20
aS'variable_6'
p21
ag12
aS'variable_7'
p22
ag6
aS'variable_8'
p23
ag12
aS'variable_2'
p24
ag15
aS'func_1'
p25
ag4
aS'variable_3'
p26
ag8
ag12
aS'variable_8'
p27
ag15
aS'func_2'
p28
ag4
aS'variable_9'
p29
aS','
p30
aS'variable_2'
p31
ag30
aS'variable_5'
p32
ag8
ag12
aS'if'
p33
ag4
aS'variable_8'
p34
aS'!='
p35
aS'NULL'
p36
ag8
aS'if'
p37
ag4
aS'!'
p38
aS'variable_5'
p39
ag8
aS'variable_10'
p40
ag15
aS'func_3'
p41
ag4
aS'variable_9'
p42
ag30
aS'variable_2'
p43
ag30
aS'variable_11'
p44
aS'|'
p45
aS'variable_12'
p46
ag30
aS'variable_1'
p47
ag8
ag12
aS'if'
p48
ag4
aS'func_4'
p49
ag4
aS'variable_10'
p50
ag8
ag8
aS'variable_3'
p51
ag15
ag6
aS'variable_1'
p52
ag12
aS'variable_5'
p53
ag15
aS'variable_3'
p54
aS'->'
p55
aS'variable_6'
p56
ag12
aS'if'
p57
ag4
aS'variable_9'
p58
aS'->'
p59
aS'variable_13'
p60
aS'=='
p61
aS'NULL'
p62
ag8
aS'variable_10'
p63
ag15
aS'func_5'
p64
ag4
aS'variable_14'
p65
ag30
aS'variable_9'
p66
ag8
ag12
aS'if'
p67
ag4
aS'func_6'
p68
ag4
aS'variable_10'
p69
ag8
ag8
aS'variable_8'
p70
ag15
aS'func_7'
p71
ag4
aS'variable_9'
p72
ag30
aS'variable_5'
p73
aS'->'
p74
aS'variable_15'
p75
ag8
ag12
aS'int'
p76
aS'variable_16'
p77
ag15
aS'func_8'
p78
ag4
aS'variable_8'
p79
aS'->'
p80
aS'variable_15'
p81
ag30
aS'variable_5'
p82
aS'->'
p83
aS'variable_17'
p84
ag8
ag6
aS'variable_5'
p85
aS'->'
p86
aS'variable_18'
p87
ag12
aS'int'
p88
aS'variable_19'
p89
ag15
ag4
aS'func_9'
p90
ag4
aS'variable_14'
p91
aS'->'
p92
aS'variable_14'
p93
ag8
aS'?'
p94
aS'func_10'
p95
ag4
aS'variable_14'
p96
aS'->'
p97
aS'variable_14'
p98
ag8
aS':'
p99
aS'func_11'
p100
ag4
aS'variable_14'
p101
aS'->'
p102
aS'variable_14'
p103
ag8
ag8
ag6
aS'4'
p104
aS'-'
p105
aS'variable_20'
p106
ag105
aS'variable_21'
p107
ag105
aS'8'
p108
ag12
aS'if'
p109
ag4
aS'variable_16'
p110
aS'>'
p111
ag15
aS'variable_19'
p112
ag8
aS'if'
p113
ag4
aS'variable_5'
p114
aS'->'
p115
aS'variable_17'
p116
aS'=='
p117
aS'0'
p118
aS'||'
p119
aS'variable_5'
p120
aS'->'
p121
aS'variable_18'
p122
aS'=='
p123
ag118
ag8
aS'variable_22'
p124
ag6
aS'variable_23'
p125
ag12
aS'variable_23'
p126
ag15
aS'func_12'
p127
ag4
aS'variable_8'
p128
aS'->'
p129
aS'variable_15'
p130
ag30
aS'1'
p131
ag30
ag131
ag8
ag12
aS'variable_10'
p132
ag15
aS'variable_23'
p133
aS'->'
p134
aS'variable_10'
p135
ag12
aS'if'
p136
ag4
aS'func_13'
p137
ag4
aS'variable_10'
p138
ag8
ag8
aS'variable_23'
p139
aS'->'
p140
aS'variable_24'
p141
ag15
aS'variable_5'
p142
aS'->'
p143
aS'variable_25'
p144
aS'.'
p145
aS'variable_24'
p146
ag12
aS'variable_23'
p147
aS'->'
p148
aS'variable_26'
p149
ag15
aS'variable_5'
p150
aS'->'
p151
aS'variable_25'
p152
ag145
aS'variable_26'
p153
ag12
aS'variable_5'
p154
ag15
ag4
aS'cairo_image_surface_t'
p155
ag6
ag8
aS'variable_23'
p156
ag12
aS'if'
p157
ag4
aS'variable_5'
p158
aS'->'
p159
aS'variable_15'
p160
aS'!='
p161
aS'variable_8'
p162
aS'->'
p163
aS'variable_15'
p164
ag8
aS'cairo_surface_pattern_t'
p165
aS'variable_27'
p166
ag12
aS'variable_22'
p167
ag6
aS'variable_23'
p168
ag12
aS'variable_23'
p169
ag15
aS'func_14'
p170
ag4
aS'variable_8'
p171
aS'->'
p172
aS'variable_15'
p173
ag30
aS'variable_5'
p174
aS'->'
p175
aS'variable_17'
p176
ag30
aS'variable_5'
p177
aS'->'
p178
aS'variable_18'
p179
ag8
ag12
aS'variable_10'
p180
ag15
aS'variable_23'
p181
aS'->'
p182
aS'variable_10'
p183
ag12
aS'if'
p184
ag4
aS'func_15'
p185
ag4
aS'variable_10'
p186
ag8
ag8
aS'variable_23'
p187
aS'->'
p188
aS'variable_24'
p189
ag15
aS'variable_5'
p190
aS'->'
p191
aS'variable_25'
p192
ag145
aS'variable_24'
p193
ag12
aS'variable_23'
p194
aS'->'
p195
aS'variable_26'
p196
ag15
aS'variable_5'
p197
aS'->'
p198
aS'variable_25'
p199
ag145
aS'variable_26'
p200
ag12
aS'variable_10'
p201
ag15
aS'func_16'
p202
ag4
aS'variable_23'
p203
ag30
aS'variable_28'
p204
ag30
aS'&'
p205
aS'variable_27'
p206
ag145
aS'variable_25'
p207
ag30
aS'NULL'
p208
ag8
ag12
aS'variable_5'
p209
ag15
ag4
aS'cairo_image_surface_t'
p210
ag6
ag8
aS'variable_23'
p211
ag12
aS'if'
p212
ag4
aS'func_17'
p213
ag4
aS'variable_10'
p214
ag8
ag8
aS'switch'
p215
ag4
aS'func_18'
p216
ag4
aS'variable_3'
p217
aS'->'
p218
aS'variable_6'
p219
aS'->'
p220
aS'variable_15'
p221
ag8
ag8
aS'if'
p222
ag4
aS'func_19'
p223
ag4
ag8
aS'!='
p224
ag4
aS'func_20'
p225
ag4
aS'variable_14'
p226
aS'->'
p227
aS'variable_14'
p228
ag8
aS'=='
p229
aS'variable_29'
p230
ag8
ag8
aS'unsigned'
p231
aS'int'
p232
aS'variable_30'
p233
ag15
aS'variable_5'
p234
aS'->'
p235
aS'variable_31'
p236
ag6
aS'variable_5'
p237
aS'->'
p238
aS'variable_18'
p239
aS'/'
p240
ag104
ag12
aa(lp241
S'func_0'
p242
ag4
aS'variable_0'
p243
ag6
ag6
aS'variable_1'
p244
ag8
aS'unsigned'
p245
aS'long'
p246
aS'variable_2'
p247
ag12
aS'variable_0'
p248
ag6
aS'variable_3'
p249
ag15
ag6
aS'variable_1'
p250
ag12
aS'variable_4'
p251
ag6
aS'variable_5'
p252
ag15
aS'variable_3'
p253
aS'->'
p254
aS'variable_6'
p255
ag12
aS'variable_7'
p256
ag6
aS'variable_8'
p257
ag12
aS'variable_2'
p258
ag15
aS'func_1'
p259
ag4
aS'variable_3'
p260
ag8
ag12
aS'variable_8'
p261
ag15
aS'func_2'
p262
ag4
aS'variable_9'
p263
ag30
aS'variable_2'
p264
ag30
aS'variable_5'
p265
ag8
ag12
aS'if'
p266
ag4
aS'variable_8'
p267
aS'!='
p268
aS'NULL'
p269
ag8
aS'if'
p270
ag4
ag38
aS'variable_5'
p271
ag8
aS'variable_10'
p272
ag15
aS'func_3'
p273
ag4
aS'variable_9'
p274
ag30
aS'variable_2'
p275
ag30
aS'variable_11'
p276
ag45
aS'variable_12'
p277
ag30
aS'variable_1'
p278
ag8
ag12
aS'if'
p279
ag4
aS'func_4'
p280
ag4
aS'variable_10'
p281
ag8
ag8
aS'variable_3'
p282
ag15
ag6
aS'variable_1'
p283
ag12
aS'variable_5'
p284
ag15
aS'variable_3'
p285
aS'->'
p286
aS'variable_6'
p287
ag12
aS'if'
p288
ag4
aS'variable_9'
p289
aS'->'
p290
aS'variable_13'
p291
aS'=='
p292
aS'NULL'
p293
ag8
aS'variable_10'
p294
ag15
aS'func_5'
p295
ag4
aS'variable_14'
p296
ag30
aS'variable_9'
p297
ag8
ag12
aS'if'
p298
ag4
aS'func_6'
p299
ag4
aS'variable_10'
p300
ag8
ag8
aS'variable_8'
p301
ag15
aS'func_7'
p302
ag4
aS'variable_9'
p303
ag30
aS'variable_5'
p304
aS'->'
p305
aS'variable_15'
p306
ag8
ag12
aS'int'
p307
aS'variable_16'
p308
ag15
aS'func_8'
p309
ag4
aS'variable_8'
p310
aS'->'
p311
aS'variable_15'
p312
ag30
aS'variable_5'
p313
aS'->'
p314
aS'variable_17'
p315
ag8
ag6
aS'variable_5'
p316
aS'->'
p317
aS'variable_18'
p318
ag12
aS'int'
p319
aS'variable_19'
p320
ag15
ag4
aS'func_9'
p321
ag4
aS'variable_14'
p322
aS'->'
p323
aS'variable_14'
p324
ag8
ag94
aS'func_10'
p325
ag4
aS'variable_14'
p326
aS'->'
p327
aS'variable_14'
p328
ag8
ag99
aS'func_11'
p329
ag4
aS'variable_14'
p330
aS'->'
p331
aS'variable_14'
p332
ag8
ag8
ag6
ag104
ag105
aS'variable_20'
p333
ag105
aS'variable_21'
p334
ag105
ag108
ag12
aS'if'
p335
ag4
aS'variable_16'
p336
ag111
ag15
aS'variable_19'
p337
ag8
aS'if'
p338
ag4
aS'variable_5'
p339
aS'->'
p340
aS'variable_17'
p341
aS'=='
p342
ag118
aS'||'
p343
aS'variable_5'
p344
aS'->'
p345
aS'variable_18'
p346
aS'=='
p347
ag118
ag8
aS'variable_22'
p348
ag6
aS'variable_23'
p349
ag12
aS'variable_23'
p350
ag15
aS'func_12'
p351
ag4
aS'variable_8'
p352
aS'->'
p353
aS'variable_15'
p354
ag30
ag131
ag30
ag131
ag8
ag12
aS'variable_10'
p355
ag15
aS'variable_23'
p356
aS'->'
p357
aS'variable_10'
p358
ag12
aS'if'
p359
ag4
aS'func_13'
p360
ag4
aS'variable_10'
p361
ag8
ag8
aS'variable_23'
p362
aS'->'
p363
aS'variable_24'
p364
ag15
aS'variable_5'
p365
aS'->'
p366
aS'variable_25'
p367
ag145
aS'variable_24'
p368
ag12
aS'variable_23'
p369
aS'->'
p370
aS'variable_26'
p371
ag15
aS'variable_5'
p372
aS'->'
p373
aS'variable_25'
p374
ag145
aS'variable_26'
p375
ag12
aS'variable_5'
p376
ag15
ag4
aS'cairo_image_surface_t'
p377
ag6
ag8
aS'variable_23'
p378
ag12
aS'if'
p379
ag4
aS'variable_5'
p380
aS'->'
p381
aS'variable_15'
p382
aS'!='
p383
aS'variable_8'
p384
aS'->'
p385
aS'variable_15'
p386
ag8
aS'cairo_surface_pattern_t'
p387
aS'variable_27'
p388
ag12
aS'variable_22'
p389
ag6
aS'variable_23'
p390
ag12
aS'variable_23'
p391
ag15
aS'func_14'
p392
ag4
aS'variable_8'
p393
aS'->'
p394
aS'variable_15'
p395
ag30
aS'variable_5'
p396
aS'->'
p397
aS'variable_17'
p398
ag30
aS'variable_5'
p399
aS'->'
p400
aS'variable_18'
p401
ag8
ag12
aS'variable_10'
p402
ag15
aS'variable_23'
p403
aS'->'
p404
aS'variable_10'
p405
ag12
aS'if'
p406
ag4
aS'func_15'
p407
ag4
aS'variable_10'
p408
ag8
ag8
aS'variable_23'
p409
aS'->'
p410
aS'variable_24'
p411
ag15
aS'variable_5'
p412
aS'->'
p413
aS'variable_25'
p414
ag145
aS'variable_24'
p415
ag12
aS'variable_23'
p416
aS'->'
p417
aS'variable_26'
p418
ag15
aS'variable_5'
p419
aS'->'
p420
aS'variable_25'
p421
ag145
aS'variable_26'
p422
ag12
aS'variable_10'
p423
ag15
aS'func_16'
p424
ag4
aS'variable_23'
p425
ag30
aS'variable_28'
p426
ag30
ag205
aS'variable_27'
p427
ag145
aS'variable_25'
p428
ag30
aS'NULL'
p429
ag8
ag12
aS'variable_5'
p430
ag15
ag4
aS'cairo_image_surface_t'
p431
ag6
ag8
aS'variable_23'
p432
ag12
aS'if'
p433
ag4
aS'func_17'
p434
ag4
aS'variable_10'
p435
ag8
ag8
aS'switch'
p436
ag4
aS'func_18'
p437
ag4
aS'variable_3'
p438
aS'->'
p439
aS'variable_6'
p440
aS'->'
p441
aS'variable_15'
p442
ag8
ag8
aS'if'
p443
ag4
aS'func_19'
p444
ag4
ag8
aS'!='
p445
ag4
aS'func_20'
p446
ag4
aS'variable_14'
p447
aS'->'
p448
aS'variable_14'
p449
ag8
aS'=='
p450
aS'variable_29'
p451
ag8
ag8
aS'int'
p452
aS'variable_30'
p453
ag15
aS'variable_5'
p454
aS'->'
p455
aS'variable_31'
p456
ag6
aS'variable_5'
p457
aS'->'
p458
aS'variable_18'
p459
ag12
aa(lp460
S'func_0'
p461
ag4
aS'variable_0'
p462
ag6
ag6
aS'variable_1'
p463
ag8
aS'unsigned'
p464
aS'long'
p465
aS'variable_2'
p466
ag12
aS'variable_0'
p467
ag6
aS'variable_3'
p468
ag15
ag6
aS'variable_1'
p469
ag12
aS'variable_4'
p470
ag6
aS'variable_5'
p471
ag15
aS'variable_3'
p472
aS'->'
p473
aS'variable_6'
p474
ag12
aS'variable_7'
p475
ag6
aS'variable_8'
p476
ag12
aS'variable_2'
p477
ag15
aS'func_1'
p478
ag4
aS'variable_3'
p479
ag8
ag12
aS'variable_8'
p480
ag15
aS'func_2'
p481
ag4
aS'variable_9'
p482
ag30
aS'variable_2'
p483
ag30
aS'variable_5'
p484
ag8
ag12
aS'if'
p485
ag4
aS'variable_8'
p486
aS'!='
p487
aS'NULL'
p488
ag8
aS'if'
p489
ag4
ag38
aS'variable_5'
p490
ag8
aS'variable_10'
p491
ag15
aS'func_3'
p492
ag4
aS'variable_9'
p493
ag30
aS'variable_2'
p494
ag30
aS'variable_11'
p495
ag45
aS'variable_12'
p496
ag30
aS'variable_1'
p497
ag8
ag12
aS'if'
p498
ag4
aS'func_4'
p499
ag4
aS'variable_10'
p500
ag8
ag8
aS'if'
p501
ag4
aS'variable_9'
p502
aS'->'
p503
aS'variable_13'
p504
aS'=='
p505
aS'NULL'
p506
ag8
aS'variable_10'
p507
ag15
aS'func_5'
p508
ag4
aS'variable_14'
p509
ag30
aS'variable_9'
p510
ag8
ag12
aS'if'
p511
ag4
aS'func_6'
p512
ag4
aS'variable_10'
p513
ag8
ag8
aS'int'
p514
aS'variable_15'
p515
ag15
ag4
aS'func_7'
p516
ag4
aS'variable_14'
p517
aS'->'
p518
aS'variable_14'
p519
ag8
ag94
aS'func_8'
p520
ag4
aS'variable_14'
p521
aS'->'
p522
aS'variable_14'
p523
ag8
ag99
aS'func_9'
p524
ag4
aS'variable_14'
p525
aS'->'
p526
aS'variable_14'
p527
ag8
ag8
ag6
ag104
ag105
aS'variable_16'
p528
ag105
aS'variable_17'
p529
ag105
ag108
ag12
aS'if'
p530
ag4
aS'variable_18'
p531
ag111
ag15
aS'variable_15'
p532
ag8
aaa(lp533
I0
aI0
aI0
aa(lp534
I396
aI393
aI138
aa(lp535
(lp536
S'main'
p537
aa(lp538
g537
aa(lp539
g537
aaa(lp540
S'820 /home/SySeVR/data/CVE_2013_1678_PATCHED__cairo_xlib_surface_add_glyph.c unsigned int c = glyph_surface -> stride * glyph_surface -> height / 4 ; 148'
p541
aS'821 /home/SySeVR/data/CVE_2013_1678_PATCHED__cairo_xlib_surface_add_glyph.c int c = glyph_surface -> stride * glyph_surface -> height ; 123'
p542
aS'822 /home/SySeVR/data/CVE_2013_1678_PATCHED__cairo_xlib_surface_add_glyph.c int max_request_size = ( XExtendedMaxRequestSize ( display -> display ) ? XExtendedMaxRequestSize ( display -> display ) : XMaxRequestSize ( display -> display ) ) * 4 - sz_xRenderAddGlyphsReq - sz_xGlyphInfo - 8 ; 52'
p543
aa.