(lp0
(lp1
(lp2
S'int'
p3
aS'func_0'
p4
aS'('
p5
aS'variable_0'
p6
aS'*'
p7
aS'variable_1'
p8
aS','
p9
aS'variable_2'
p10
ag7
aS'variable_3'
p11
ag9
aS'char'
p12
ag7
aS'variable_4'
p13
ag9
aS'int'
p14
aS'variable_5'
p15
aS')'
p16
aS'int'
p17
aS'variable_6'
p18
aS';'
p19
aS'variable_2'
p20
ag7
aS'variable_7'
p21
ag19
aS'variable_4'
p22
aS'='
p23
ag5
aS'variable_4'
p24
aS'&&'
p25
ag5
aS'variable_3'
p26
aS'->'
p27
aS'variable_8'
p28
aS'&'
p29
aS'variable_9'
p30
ag16
ag16
aS'?'
p31
aS'variable_4'
p32
aS'+'
p33
aS'variable_3'
p34
aS'->'
p35
aS'variable_10'
p36
aS':'
p37
aS'NULL'
p38
ag19
aS'variable_11'
p39
ag23
ag5
aS'variable_3'
p40
aS'->'
p41
aS'variable_8'
p42
ag29
aS'variable_12'
p43
ag16
ag31
aS'func_1'
p44
ag5
aS'variable_1'
p45
ag16
ag37
aS'0'
p46
ag19
aS'variable_13'
p47
ag23
aS'func_2'
p48
ag5
aS'variable_1'
p49
ag9
aS'variable_3'
p50
aS'->'
p51
aS'variable_14'
p52
ag16
ag19
aS'if'
p53
ag5
aS'variable_4'
p54
ag16
ag7
ag5
aS'unsigned'
p55
ag7
ag16
aS'variable_4'
p56
ag23
aS'variable_13'
p57
ag19
aS'for'
p58
ag5
aS'variable_15'
p59
ag23
aS'variable_16'
p60
ag23
ag46
ag9
aS'variable_7'
p61
ag23
aS'variable_3'
p62
aS'->'
p63
aS'variable_17'
p64
ag19
aS'variable_15'
p65
aS'<'
p66
aS'variable_3'
p67
aS'->'
p68
aS'variable_18'
p69
ag19
aS'variable_15'
p70
aS'++'
p71
ag9
aS'variable_7'
p72
aS'++'
p73
ag16
aS'if'
p74
ag5
aS'variable_7'
p75
aS'->'
p76
aS'variable_8'
p77
ag29
aS'variable_19'
p78
ag16
aS'if'
p79
ag5
aS'variable_7'
p80
aS'->'
p81
aS'variable_8'
p82
ag29
aS'variable_20'
p83
ag16
aS'if'
p84
ag5
aS'!'
p85
ag5
ag5
aS'0x80000000U'
p86
aS'>>'
p87
ag5
aS'variable_16'
p88
aS'++'
p89
ag16
ag16
ag29
aS'variable_13'
p90
ag16
ag16
aS'if'
p91
ag5
aS'variable_7'
p92
aS'->'
p93
aS'variable_8'
p94
ag29
aS'variable_21'
p95
ag16
aS'variable_22'
p96
ag23
aS'func_3'
p97
ag5
aS'variable_1'
p98
ag16
ag19
aS'if'
p99
ag5
ag85
aS'variable_4'
p100
ag16
aS'variable_1'
p101
aS'->'
p102
aS'variable_23'
p103
aS'+='
p104
aS'variable_22'
p105
ag19
aS'variable_24'
p106
ag23
aS'variable_1'
p107
aS'->'
p108
aS'variable_23'
p109
ag19
aS'if'
p110
ag5
ag5
aS'variable_6'
p111
ag23
ag5
aS'variable_25'
p112
aS'['
p113
aS'variable_7'
p114
aS'->'
p115
aS'variable_26'
p116
aS']'
p117
ag16
ag5
aS'variable_1'
p118
ag9
aS'variable_7'
p119
ag9
aS'variable_4'
p120
ag9
aS'variable_5'
p121
ag33
aS'1'
p122
ag16
ag16
ag66
aS'variable_27'
p123
ag16
aS'variable_1'
p124
aS'->'
p125
aS'variable_23'
p126
ag23
aS'variable_24'
p127
ag33
aS'variable_22'
p128
ag19
aS'variable_1'
p129
aS'->'
p130
aS'variable_28'
p131
ag23
ag46
ag19
aS'if'
p132
ag5
ag5
aS'variable_6'
p133
ag23
ag5
aS'variable_25'
p134
ag113
aS'variable_7'
p135
aS'->'
p136
aS'variable_26'
p137
ag117
ag16
ag5
aS'variable_1'
p138
ag9
aS'variable_7'
p139
ag9
aS'variable_4'
p140
ag9
aS'variable_5'
p141
ag33
ag122
ag16
ag16
ag66
aS'variable_27'
p142
ag16
aS'if'
p143
ag5
ag85
aS'variable_11'
p144
ag16
aS'variable_29'
p145
ag23
aS'func_4'
p146
ag5
aS'variable_1'
p147
ag9
aS'7'
p148
ag16
ag33
ag122
ag19
aS'variable_30'
p149
ag23
aS'func_5'
p150
ag5
aS'variable_1'
p151
ag9
aS'variable_29'
p152
ag16
ag19
aS'variable_13'
p153
aS'|'
p154
ag23
aS'variable_30'
p155
aS'>>'
p156
aS'variable_3'
p157
aS'->'
p158
aS'variable_14'
p159
ag19
aS'if'
p160
ag5
aS'variable_4'
p161
ag16
ag7
ag5
aS'unsigned'
p162
ag7
ag16
aS'variable_4'
p163
ag23
aS'variable_13'
p164
ag19
aS'for'
p165
ag5
aS'variable_16'
p166
ag23
ag46
ag19
aS'variable_16'
p167
ag66
aS'variable_29'
p168
ag19
aS'variable_16'
p169
aS'++'
p170
ag9
aS'variable_15'
p171
aS'++'
p172
ag9
aS'variable_7'
p173
aS'++'
p174
ag16
aS'if'
p175
ag5
aS'variable_15'
p176
ag66
aS'variable_3'
p177
aS'->'
p178
aS'variable_31'
p179
aS'&&'
p180
aS'variable_7'
p181
aS'->'
p182
aS'variable_8'
p183
ag29
aS'variable_19'
p184
ag16
aS'if'
p185
ag5
ag85
ag5
ag5
aS'0x80000000'
p186
aS'>>'
p187
aS'variable_16'
p188
ag16
ag29
aS'variable_30'
p189
ag16
ag16
aS'if'
p190
ag5
aS'variable_15'
p191
aS'>'
p192
ag23
aS'variable_3'
p193
aS'->'
p194
aS'variable_31'
p195
ag16
aS'variable_22'
p196
ag23
aS'func_6'
p197
ag5
aS'variable_1'
p198
ag16
ag19
aS'variable_1'
p199
aS'->'
p200
aS'variable_23'
p201
aS'+='
p202
aS'variable_22'
p203
ag19
aS'variable_22'
p204
ag23
aS'func_7'
p205
ag5
aS'variable_1'
p206
ag16
ag19
aS'if'
p207
ag5
ag85
aS'variable_4'
p208
aS'||'
p209
ag85
ag5
aS'variable_7'
p210
aS'->'
p211
aS'variable_8'
p212
ag29
aS'variable_9'
p213
ag16
ag16
aS'variable_1'
p214
aS'->'
p215
aS'variable_23'
p216
aS'+='
p217
aS'variable_22'
p218
ag19
aS'variable_24'
p219
ag23
aS'variable_1'
p220
aS'->'
p221
aS'variable_23'
p222
ag19
aS'if'
p223
ag5
ag5
aS'variable_6'
p224
ag23
ag5
aS'variable_25'
p225
ag113
aS'variable_7'
p226
aS'->'
p227
aS'variable_26'
p228
ag117
ag16
ag5
aS'variable_1'
p229
ag9
aS'variable_7'
p230
ag9
aS'variable_4'
p231
ag9
aS'variable_5'
p232
ag33
ag122
ag16
ag16
ag66
aS'variable_27'
p233
ag16
aS'variable_1'
p234
aS'->'
p235
aS'variable_23'
p236
ag23
aS'variable_24'
p237
ag33
aS'variable_22'
p238
ag19
aS'variable_1'
p239
aS'->'
p240
aS'variable_28'
p241
ag23
ag46
ag19
aa(lp242
S'int'
p243
aS'func_0'
p244
ag5
aS'variable_0'
p245
ag7
aS'variable_1'
p246
ag9
aS'variable_2'
p247
ag7
aS'variable_3'
p248
ag9
aS'char'
p249
ag7
aS'variable_4'
p250
ag9
aS'int'
p251
aS'variable_5'
p252
ag16
aS'int'
p253
aS'variable_6'
p254
ag19
aS'variable_2'
p255
ag7
aS'variable_7'
p256
ag19
aS'variable_4'
p257
ag23
ag5
aS'variable_4'
p258
aS'&&'
p259
ag5
aS'variable_3'
p260
aS'->'
p261
aS'variable_8'
p262
ag29
aS'variable_9'
p263
ag16
ag16
ag31
aS'variable_4'
p264
ag33
aS'variable_3'
p265
aS'->'
p266
aS'variable_10'
p267
ag37
aS'NULL'
p268
ag19
aS'variable_11'
p269
ag23
aS'func_1'
p270
ag5
aS'variable_1'
p271
ag9
aS'variable_3'
p272
aS'->'
p273
aS'variable_12'
p274
ag16
ag19
aS'if'
p275
ag5
aS'variable_4'
p276
ag16
ag7
ag5
aS'unsigned'
p277
ag7
ag16
aS'variable_4'
p278
ag23
aS'variable_11'
p279
ag19
aS'for'
p280
ag5
aS'variable_13'
p281
ag23
aS'variable_14'
p282
ag23
ag46
ag9
aS'variable_7'
p283
ag23
aS'variable_3'
p284
aS'->'
p285
aS'variable_15'
p286
ag19
aS'variable_13'
p287
ag66
aS'variable_3'
p288
aS'->'
p289
aS'variable_16'
p290
ag19
aS'variable_13'
p291
aS'++'
p292
ag9
aS'variable_7'
p293
aS'++'
p294
ag16
aS'if'
p295
ag5
aS'variable_7'
p296
aS'->'
p297
aS'variable_8'
p298
ag29
aS'variable_17'
p299
ag16
aS'if'
p300
ag5
aS'variable_7'
p301
aS'->'
p302
aS'variable_8'
p303
ag29
aS'variable_18'
p304
ag16
aS'if'
p305
ag5
ag85
ag5
ag5
aS'0x80000000U'
p306
aS'>>'
p307
ag5
aS'variable_14'
p308
aS'++'
p309
ag16
ag16
ag29
aS'variable_11'
p310
ag16
ag16
aS'if'
p311
ag5
aS'variable_7'
p312
aS'->'
p313
aS'variable_8'
p314
ag29
aS'variable_19'
p315
ag16
aS'variable_20'
p316
ag23
aS'func_2'
p317
ag5
aS'variable_1'
p318
ag16
ag19
aS'if'
p319
ag5
ag85
aS'variable_4'
p320
ag16
aS'variable_1'
p321
aS'->'
p322
aS'variable_21'
p323
aS'+='
p324
aS'variable_20'
p325
ag19
aS'variable_22'
p326
ag23
aS'variable_1'
p327
aS'->'
p328
aS'variable_21'
p329
ag19
aS'if'
p330
ag5
ag5
aS'variable_6'
p331
ag23
ag5
aS'variable_23'
p332
ag113
aS'variable_7'
p333
aS'->'
p334
aS'variable_24'
p335
ag117
ag16
ag5
aS'variable_1'
p336
ag9
aS'variable_7'
p337
ag9
aS'variable_4'
p338
ag9
aS'variable_5'
p339
ag33
ag122
ag16
ag16
ag66
aS'variable_25'
p340
ag16
aS'variable_1'
p341
aS'->'
p342
aS'variable_21'
p343
ag23
aS'variable_22'
p344
ag33
aS'variable_20'
p345
ag19
aS'variable_1'
p346
aS'->'
p347
aS'variable_26'
p348
ag23
ag46
ag19
aS'if'
p349
ag5
ag5
aS'variable_6'
p350
ag23
ag5
aS'variable_23'
p351
ag113
aS'variable_7'
p352
aS'->'
p353
aS'variable_24'
p354
ag117
ag16
ag5
aS'variable_1'
p355
ag9
aS'variable_7'
p356
ag9
aS'variable_4'
p357
ag9
aS'variable_5'
p358
ag33
ag122
ag16
ag16
ag66
aS'variable_25'
p359
ag16
aS'variable_27'
p360
ag23
aS'func_3'
p361
ag5
aS'variable_1'
p362
ag9
ag148
ag16
ag33
ag122
ag19
aS'func_4'
p363
ag5
aS'variable_1'
p364
ag9
ag5
aS'variable_27'
p365
ag33
ag148
ag16
aS'>>'
p366
aS'3'
p367
ag16
ag19
aS'variable_28'
p368
ag23
aS'func_5'
p369
ag5
aS'variable_1'
p370
ag9
aS'variable_27'
p371
ag16
ag19
aS'variable_11'
p372
ag154
ag23
aS'variable_28'
p373
aS'>>'
p374
aS'variable_3'
p375
aS'->'
p376
aS'variable_12'
p377
ag19
ag7
ag5
aS'unsigned'
p378
ag7
ag16
aS'variable_4'
p379
ag23
aS'variable_11'
p380
ag19
aS'func_6'
p381
ag5
aS'variable_1'
p382
ag16
ag19
aS'for'
p383
ag5
aS'variable_14'
p384
ag23
ag46
ag19
aS'variable_14'
p385
ag66
aS'variable_27'
p386
ag19
aS'variable_14'
p387
aS'++'
p388
ag9
aS'variable_13'
p389
aS'++'
p390
ag9
aS'variable_7'
p391
aS'++'
p392
ag16
aS'if'
p393
ag5
ag85
ag5
ag5
aS'0x80000000'
p394
aS'>>'
p395
aS'variable_14'
p396
ag16
ag29
aS'variable_28'
p397
ag16
ag16
aS'func_7'
p398
ag5
aS'variable_1'
p399
ag9
aS'2'
p400
ag16
ag19
aS'variable_20'
p401
ag23
aS'func_8'
p402
ag5
aS'variable_1'
p403
ag16
ag19
aS'func_9'
p404
ag5
aS'variable_1'
p405
ag9
aS'variable_20'
p406
ag16
ag19
aS'variable_1'
p407
aS'->'
p408
aS'variable_21'
p409
aS'+='
p410
aS'variable_20'
p411
ag19
aS'if'
p412
ag5
ag85
aS'variable_4'
p413
aS'||'
p414
ag85
ag5
aS'variable_7'
p415
aS'->'
p416
aS'variable_8'
p417
ag29
aS'variable_9'
p418
ag16
ag16
aS'variable_1'
p419
aS'->'
p420
aS'variable_21'
p421
aS'+='
p422
aS'variable_20'
p423
ag19
aS'variable_22'
p424
ag23
aS'variable_1'
p425
aS'->'
p426
aS'variable_21'
p427
ag19
aS'if'
p428
ag5
ag5
aS'variable_6'
p429
ag23
ag5
aS'variable_23'
p430
ag113
aS'variable_7'
p431
aS'->'
p432
aS'variable_24'
p433
ag117
ag16
ag5
aS'variable_1'
p434
ag9
aS'variable_7'
p435
ag9
aS'variable_4'
p436
ag9
aS'variable_5'
p437
ag33
ag122
ag16
ag16
ag66
aS'variable_25'
p438
ag16
aS'return'
p439
aS'variable_6'
p440
ag19
aS'variable_1'
p441
aS'->'
p442
aS'variable_21'
p443
ag23
aS'variable_22'
p444
ag33
aS'variable_20'
p445
ag19
aS'variable_1'
p446
aS'->'
p447
aS'variable_26'
p448
ag23
ag46
ag19
aa(lp449
S'int'
p450
aS'func_0'
p451
ag5
aS'variable_0'
p452
ag7
aS'variable_1'
p453
ag9
aS'variable_2'
p454
ag7
aS'variable_3'
p455
ag9
aS'char'
p456
ag7
aS'variable_4'
p457
ag9
aS'int'
p458
aS'variable_5'
p459
ag16
aS'variable_4'
p460
ag23
ag5
aS'variable_4'
p461
aS'&&'
p462
ag5
aS'variable_3'
p463
aS'->'
p464
aS'variable_6'
p465
ag29
aS'variable_7'
p466
ag16
ag16
ag31
aS'variable_4'
p467
ag33
aS'variable_3'
p468
aS'->'
p469
aS'variable_8'
p470
ag37
aS'NULL'
p471
ag19
aS'if'
p472
ag5
aS'variable_4'
p473
ag16
ag7
ag5
aS'unsigned'
p474
ag7
ag16
aS'variable_4'
p475
ag23
aS'variable_9'
p476
ag19
aS'if'
p477
ag5
ag85
aS'variable_4'
p478
ag16
aS'if'
p479
ag5
ag5
aS'variable_10'
p480
ag23
ag5
aS'variable_11'
p481
ag113
aS'variable_12'
p482
aS'->'
p483
aS'variable_13'
p484
ag117
ag16
ag5
aS'variable_1'
p485
ag9
aS'variable_12'
p486
ag9
aS'variable_4'
p487
ag9
aS'variable_5'
p488
ag33
ag122
ag16
ag16
ag66
aS'variable_14'
p489
ag16
aS'return'
p490
aS'variable_10'
p491
ag19
aS'if'
p492
ag5
ag5
aS'variable_10'
p493
ag23
ag5
aS'variable_11'
p494
ag113
aS'variable_12'
p495
aS'->'
p496
aS'variable_13'
p497
ag117
ag16
ag5
aS'variable_1'
p498
ag9
aS'variable_12'
p499
ag9
aS'variable_4'
p500
ag9
aS'variable_5'
p501
ag33
ag122
ag16
ag16
ag66
aS'variable_14'
p502
ag16
aS'return'
p503
aS'variable_10'
p504
ag19
aS'if'
p505
ag5
aS'variable_4'
p506
ag16
ag7
ag5
aS'unsigned'
p507
ag7
ag16
aS'variable_4'
p508
ag23
aS'variable_9'
p509
ag19
aS'if'
p510
ag5
ag85
aS'variable_4'
p511
aS'||'
p512
ag85
ag5
aS'variable_12'
p513
aS'->'
p514
aS'variable_6'
p515
ag29
aS'variable_7'
p516
ag16
ag16
aS'if'
p517
ag5
ag5
aS'variable_10'
p518
ag23
ag5
aS'variable_11'
p519
ag113
aS'variable_12'
p520
aS'->'
p521
aS'variable_13'
p522
ag117
ag16
ag5
aS'variable_1'
p523
ag9
aS'variable_12'
p524
ag9
aS'variable_4'
p525
ag9
aS'variable_5'
p526
ag33
ag122
ag16
ag16
ag66
aS'variable_14'
p527
ag16
aS'return'
p528
aS'variable_10'
p529
ag19
aaa(lp530
I0
aI0
aI0
aa(lp531
I429
aI195
aI38
aa(lp532
(lp533
S'main'
p534
aa(lp535
g534
aa(lp536
g534
aaa(lp537
S'40 /home/SySeVR/data/CVE_2007_3642_VULN_decode_seq.c bs -> cur = beg + len 110'
p538
aS'41 /home/SySeVR/data/CVE_2007_3642_VULN_decode_seq.c bs -> cur = beg + len 53'
p539
aS'42 /home/SySeVR/data/CVE_2007_3642_VULN_decode_seq.c base = ( base && ( f -> attr & DECODE ) ) ? base + f -> offset : NULL 11'
p540
aa.