(lp0
(lp1
(lp2
S'static'
p3
aS'void'
p4
aS'func_0'
p5
aS'('
p6
aS'bool'
p7
aS'variable_0'
p8
aS')'
p9
aS'if'
p10
ag6
aS'!'
p11
ag6
aS'variable_1'
p12
aS'->'
p13
aS'variable_2'
p14
aS'.'
p15
aS'variable_3'
p16
aS'&'
p17
aS'variable_4'
p18
ag9
ag9
aS'if'
p19
ag6
aS'variable_5'
p20
aS'=='
p21
aS'NULL'
p22
ag9
aS'*'
p23
aS'variable_6'
p24
aS'='
p25
ag23
aS'variable_6'
p26
aS'-'
p27
aS'variable_1'
p28
aS'->'
p29
aS'variable_2'
p30
ag15
aS'variable_7'
p31
aS';'
p32
ag23
aS'variable_6'
p33
ag25
aS'min'
p34
ag6
ag23
aS'variable_6'
p35
aS','
p36
aS'variable_0'
p37
aS'?'
p38
aS'variable_1'
p39
aS'->'
p40
aS'variable_2'
p41
ag15
aS'variable_8'
p42
aS'->'
p43
aS'variable_6'
p44
aS':'
p45
aS'func_1'
p46
ag6
aS'variable_1'
p47
aS'->'
p48
aS'variable_2'
p49
ag15
aS'variable_9'
p50
ag9
ag9
ag32
ag23
aS'variable_10'
p51
ag25
ag6
ag6
ag23
aS'variable_6'
p52
ag27
aS'variable_11'
p53
ag9
ag17
aS'~'
p54
aS'7'
p55
ag9
aS'+'
p56
aS'variable_11'
p57
ag27
aS'sizeof'
p58
ag6
aS'struct'
p59
aS'variable_12'
p60
ag9
ag32
aa(lp61
S'static'
p62
aS'void'
p63
aS'func_0'
p64
ag6
aS'bool'
p65
aS'variable_0'
p66
ag9
aS'if'
p67
ag6
ag11
ag6
aS'variable_1'
p68
aS'->'
p69
aS'variable_2'
p70
ag15
aS'variable_3'
p71
ag17
aS'variable_4'
p72
ag9
ag9
aS'if'
p73
ag6
aS'variable_5'
p74
aS'=='
p75
aS'NULL'
p76
ag9
ag23
aS'variable_6'
p77
ag25
ag23
aS'variable_6'
p78
ag27
aS'variable_1'
p79
aS'->'
p80
aS'variable_2'
p81
ag15
aS'variable_7'
p82
ag32
ag23
aS'variable_8'
p83
ag25
ag6
ag6
ag23
aS'variable_6'
p84
ag27
aS'variable_9'
p85
ag9
ag17
ag54
ag55
ag9
ag56
aS'variable_9'
p86
ag27
aS'sizeof'
p87
ag6
aS'struct'
p88
aS'variable_10'
p89
ag9
ag32
aaa(lp90
I0
aI0
aa(lp91
I79
aI40
aa(lp92
(lp93
S'main'
p94
aa(lp95
g94
aaa(lp96
S'512 /home/SySeVR/data/CVE_2013_4163_PATCHED_ip6_append_data_mtu.c * maxfraglen = ( ( * mtu - fragheaderlen ) & ~7 ) + fragheaderlen - sizeof ( struct frag_hdr ) 22'
p97
aS'513 /home/SySeVR/data/CVE_2013_4163_PATCHED_ip6_append_data_mtu.c * mtu = * mtu - rt -> dst . header_len 11'
p98
aa.