(lp0
(lp1
(lp2
S'static'
p3
aS'int'
p4
aS'func_0'
p5
aS'('
p6
aS'variable_0'
p7
aS'*'
p8
aS'variable_1'
p9
aS','
p10
aS'int'
p11
aS'variable_2'
p12
ag10
aS'variable_3'
p13
ag8
aS'variable_4'
p14
ag10
aS'variable_5'
p15
ag8
aS'variable_6'
p16
aS')'
p17
aS'int'
p18
aS'variable_7'
p19
aS'='
p20
aS'variable_2'
p21
aS';'
p22
aS'variable_8'
p23
ag20
ag6
aS'int'
p24
ag17
aS'func_1'
p25
ag6
aS'variable_1'
p26
ag10
aS'variable_7'
p27
aS'+'
p28
aS'variable_9'
p29
ag17
ag22
aS'variable_10'
p30
ag20
aS'func_2'
p31
ag6
aS'variable_1'
p32
ag10
aS'variable_7'
p33
ag28
aS'variable_11'
p34
ag17
ag22
aS'variable_7'
p35
aS'+='
p36
aS'variable_8'
p37
ag22
aS'if'
p38
ag6
ag6
aS'variable_10'
p39
aS'&'
p40
aS'variable_12'
p41
ag17
aS'!='
p42
aS'0'
p43
ag17
aS'variable_13'
p44
ag20
aS'func_3'
p45
ag6
aS'variable_1'
p46
ag10
aS'variable_7'
p47
ag28
aS'variable_14'
p48
ag17
ag22
aS'variable_7'
p49
aS'+='
p50
aS'variable_15'
p51
ag22
aS'variable_13'
p52
aS'-='
p53
aS'variable_15'
p54
ag22
aS'while'
p55
ag6
aS'variable_13'
p56
aS'>'
p57
ag43
ag17
aS'guint8'
p58
aS'variable_16'
p59
ag20
aS'func_4'
p60
ag6
aS'variable_1'
p61
ag10
aS'variable_7'
p62
ag28
aS'variable_17'
p63
ag17
ag22
aS'guint8'
p64
aS'variable_18'
p65
ag20
aS'func_5'
p66
ag6
aS'variable_1'
p67
ag10
aS'variable_7'
p68
ag28
aS'variable_19'
p69
ag17
ag22
aS'switch'
p70
ag6
aS'variable_16'
p71
ag17
aS'variable_20'
p72
ag20
aS'func_6'
p73
ag6
aS'variable_21'
p74
ag10
aS'variable_22'
p75
ag10
aS'variable_1'
p76
ag10
aS'variable_7'
p77
ag10
aS'variable_23'
p78
ag10
aS'variable_24'
p79
ag17
ag22
aS'variable_25'
p80
ag20
aS'func_7'
p81
ag6
aS'variable_20'
p82
ag10
aS'variable_26'
p83
ag17
ag22
aS'func_8'
p84
ag6
aS'variable_25'
p85
ag10
aS'variable_27'
p86
ag10
aS'variable_1'
p87
ag10
aS'variable_7'
p88
ag28
aS'variable_28'
p89
ag10
aS'variable_29'
p90
ag10
aS'variable_30'
p91
ag17
ag22
aS'func_9'
p92
ag6
aS'variable_25'
p93
ag10
aS'variable_31'
p94
ag10
aS'variable_1'
p95
ag10
aS'variable_7'
p96
ag28
aS'variable_32'
p97
ag10
aS'variable_33'
p98
ag10
aS'variable_30'
p99
ag17
ag22
aS'func_10'
p100
ag6
aS'variable_25'
p101
ag10
aS'variable_34'
p102
ag10
aS'variable_1'
p103
ag10
aS'variable_7'
p104
ag28
aS'variable_35'
p105
ag10
aS'variable_36'
p106
ag10
aS'variable_24'
p107
ag17
ag22
aS'variable_37'
p108
aS'+='
p109
aS'variable_23'
p110
ag22
aS'variable_7'
p111
aS'+='
p112
aS'variable_23'
p113
ag22
aS'variable_13'
p114
aS'-='
p115
aS'variable_23'
p116
ag22
aS'variable_37'
p117
aS'+='
p118
aS'variable_18'
p119
ag22
aS'variable_7'
p120
aS'+='
p121
aS'variable_18'
p122
ag22
aS'variable_13'
p123
aS'-='
p124
aS'variable_18'
p125
ag22
aS'func_11'
p126
ag6
aS'variable_4'
p127
ag10
aS'NULL'
p128
ag10
ag40
aS'variable_38'
p129
ag10
aS'"'
p130
aS'Unknown'
p131
aS'LBMR'
p132
aS'PSER'
p133
aS'option'
p134
aS'0x'
p135
aS'%'
p136
aS'02x'
p137
ag130
ag10
aS'variable_16'
p138
ag17
ag22
aS'if'
p139
ag6
aS'variable_18'
p140
aS'=='
p141
ag43
ag17
aS'return'
p142
ag6
aS'variable_37'
p143
ag17
ag22
aS'return'
p144
ag6
aS'variable_37'
p145
ag17
ag22
aa(lp146
S'static'
p147
aS'int'
p148
aS'func_0'
p149
ag6
aS'variable_0'
p150
ag8
aS'variable_1'
p151
ag10
aS'int'
p152
aS'variable_2'
p153
ag10
aS'variable_3'
p154
ag8
aS'variable_4'
p155
ag10
aS'variable_5'
p156
ag8
aS'variable_6'
p157
ag17
aS'int'
p158
aS'variable_7'
p159
ag20
aS'variable_2'
p160
ag22
aS'variable_8'
p161
ag20
ag6
aS'int'
p162
ag17
aS'func_1'
p163
ag6
aS'variable_1'
p164
ag10
aS'variable_7'
p165
ag28
aS'variable_9'
p166
ag17
ag22
aS'variable_10'
p167
ag20
aS'func_2'
p168
ag6
aS'variable_1'
p169
ag10
aS'variable_7'
p170
ag28
aS'variable_11'
p171
ag17
ag22
aS'variable_7'
p172
aS'+='
p173
aS'variable_8'
p174
ag22
aS'if'
p175
ag6
ag6
aS'variable_10'
p176
ag40
aS'variable_12'
p177
ag17
aS'!='
p178
ag43
ag17
aS'variable_13'
p179
ag20
aS'func_3'
p180
ag6
aS'variable_1'
p181
ag10
aS'variable_7'
p182
ag28
aS'variable_14'
p183
ag17
ag22
aS'variable_7'
p184
aS'+='
p185
aS'variable_15'
p186
ag22
aS'variable_13'
p187
aS'-='
p188
aS'variable_15'
p189
ag22
aS'while'
p190
ag6
aS'variable_13'
p191
ag57
ag43
ag17
aS'guint8'
p192
aS'variable_16'
p193
ag20
aS'func_4'
p194
ag6
aS'variable_1'
p195
ag10
aS'variable_7'
p196
ag28
aS'variable_17'
p197
ag17
ag22
aS'guint8'
p198
aS'variable_18'
p199
ag20
aS'func_5'
p200
ag6
aS'variable_1'
p201
ag10
aS'variable_7'
p202
ag28
aS'variable_19'
p203
ag17
ag22
aS'switch'
p204
ag6
aS'variable_16'
p205
ag17
aS'variable_7'
p206
aS'+='
p207
aS'variable_20'
p208
ag22
aS'variable_13'
p209
aS'-='
p210
aS'variable_20'
p211
ag22
aS'variable_7'
p212
aS'+='
p213
aS'variable_18'
p214
ag22
aS'variable_13'
p215
aS'-='
p216
aS'variable_18'
p217
ag22
aS'func_6'
p218
ag6
aS'variable_4'
p219
ag10
aS'NULL'
p220
ag10
ag40
aS'variable_21'
p221
ag10
ag130
aS'Unknown'
p222
aS'LBMR'
p223
aS'PSER'
p224
aS'option'
p225
aS'0x'
p226
ag136
aS'02x'
p227
ag130
ag10
aS'variable_16'
p228
ag17
ag22
aS'if'
p229
ag6
aS'variable_18'
p230
aS'=='
p231
ag43
ag17
aaa(lp232
I0
aI0
aa(lp233
I111
aI99
aa(lp234
(lp235
S'main'
p236
aa(lp237
g236
aaa(lp238
S'940 /home/SySeVR/data/CVE_2015_3809_PATCHED_dissect_lbmr_pser.c guint8 option_len = tvb_get_guint8 ( tvb , curr_offset + O_LBMR_PSER_OPT_HDR_T_LEN ) ; 52'
p239
aS'941 /home/SySeVR/data/CVE_2015_3809_PATCHED_dissect_lbmr_pser.c guint8 opt_type = tvb_get_guint8 ( tvb , curr_offset + O_LBMR_PSER_OPT_HDR_T_TYPE ) ; 51'
p240
aa.