(lp0
(lp1
(lp2
S'static'
p3
aS'int'
p4
aS'func_0'
p5
aS'('
p6
aS'variable_0'
p7
aS'*'
p8
aS'variable_1'
p9
aS','
p10
aS'variable_2'
p11
ag8
aS'variable_3'
p12
aS')'
p13
aS'variable_3'
p14
aS'->'
p15
aS'variable_4'
p16
aS'.'
p17
aS'variable_5'
p18
ag17
aS'variable_6'
p19
aS'='
p20
aS'variable_7'
p21
aS';'
p22
aS'variable_3'
p23
aS'->'
p24
aS'variable_4'
p25
ag17
aS'variable_5'
p26
ag17
aS'variable_8'
p27
ag20
aS'malloc'
p28
ag6
aS'func_1'
p29
ag6
aS'variable_3'
p30
aS'->'
p31
aS'variable_9'
p32
ag17
aS'variable_10'
p33
ag10
aS'sizeof'
p34
ag6
aS'variable_11'
p35
ag13
ag13
ag13
ag22
aS'if'
p36
ag6
aS'variable_3'
p37
aS'->'
p38
aS'variable_4'
p39
ag17
aS'variable_5'
p40
ag17
aS'variable_8'
p41
aS'->'
p42
aS'variable_12'
p43
aS'!='
p44
aS'variable_13'
p45
aS'&&'
p46
aS'variable_3'
p47
aS'->'
p48
aS'variable_9'
p49
ag17
aS'variable_10'
p50
aS'>'
p51
aS'sizeof'
p52
ag6
aS'variable_11'
p53
ag13
ag13
aS'if'
p54
ag6
aS'variable_3'
p55
aS'->'
p56
aS'variable_4'
p57
ag17
aS'variable_5'
p58
ag17
aS'variable_8'
p59
aS'->'
p60
aS'variable_14'
p61
ag51
aS'variable_3'
p62
aS'->'
p63
aS'variable_9'
p64
ag17
aS'variable_10'
p65
aS'-'
p66
aS'sizeof'
p67
ag6
aS'variable_11'
p68
ag13
ag13
aS'variable_3'
p69
aS'->'
p70
aS'variable_4'
p71
ag17
aS'variable_5'
p72
ag17
aS'variable_8'
p73
aS'->'
p74
aS'variable_14'
p75
ag20
aS'variable_3'
p76
aS'->'
p77
aS'variable_9'
p78
ag17
aS'variable_10'
p79
ag66
aS'sizeof'
p80
ag6
aS'variable_11'
p81
ag13
ag22
aS'variable_3'
p82
aS'->'
p83
aS'variable_4'
p84
ag17
aS'variable_5'
p85
ag17
aS'variable_8'
p86
aS'->'
p87
aS'variable_14'
p88
ag20
aS'0'
p89
ag22
aS'if'
p90
ag6
aS'variable_3'
p91
aS'->'
p92
aS'variable_4'
p93
ag17
aS'variable_5'
p94
ag17
aS'variable_8'
p95
aS'->'
p96
aS'variable_14'
p97
ag51
ag89
ag13
aS'memcpy'
p98
ag6
aS'&'
p99
aS'variable_3'
p100
aS'->'
p101
aS'variable_4'
p102
ag17
aS'variable_5'
p103
ag17
aS'variable_8'
p104
aS'['
p105
aS'1'
p106
aS']'
p107
ag10
aS'variable_15'
p108
aS'+'
p109
aS'8'
p110
ag109
aS'sizeof'
p111
ag6
aS'variable_11'
p112
ag13
ag10
aS'variable_3'
p113
aS'->'
p114
aS'variable_4'
p115
ag17
aS'variable_5'
p116
ag17
aS'variable_8'
p117
aS'->'
p118
aS'variable_14'
p119
ag13
ag22
aS'variable_3'
p120
aS'->'
p121
aS'variable_4'
p122
ag17
aS'variable_16'
p123
ag17
aS'variable_6'
p124
ag20
aS'variable_17'
p125
ag22
aS'variable_3'
p126
aS'->'
p127
aS'variable_4'
p128
ag17
aS'variable_16'
p129
ag17
aS'variable_18'
p130
ag20
aS'malloc'
p131
ag6
aS'variable_3'
p132
aS'->'
p133
aS'variable_9'
p134
ag17
aS'variable_10'
p135
ag13
ag22
aS'func_2'
p136
ag6
aS'variable_3'
p137
aS'->'
p138
aS'variable_4'
p139
ag17
aS'variable_16'
p140
ag17
aS'variable_18'
p141
aS'->'
p142
aS'variable_19'
p143
ag13
ag22
aS'func_3'
p144
ag6
aS'variable_3'
p145
aS'->'
p146
aS'variable_4'
p147
ag17
aS'variable_16'
p148
ag17
aS'variable_18'
p149
aS'->'
p150
aS'variable_20'
p151
ag13
ag22
aS'func_4'
p152
ag6
aS'variable_3'
p153
aS'->'
p154
aS'variable_4'
p155
ag17
aS'variable_16'
p156
ag17
aS'variable_18'
p157
aS'->'
p158
aS'variable_21'
p159
ag13
ag22
aS'func_5'
p160
ag6
aS'variable_3'
p161
aS'->'
p162
aS'variable_4'
p163
ag17
aS'variable_16'
p164
ag17
aS'variable_18'
p165
aS'->'
p166
aS'variable_22'
p167
ag13
ag22
aS'func_6'
p168
ag6
aS'variable_3'
p169
aS'->'
p170
aS'variable_4'
p171
ag17
aS'variable_16'
p172
ag17
aS'variable_18'
p173
aS'->'
p174
aS'variable_23'
p175
ag13
ag22
aS'func_7'
p176
ag6
aS'variable_3'
p177
aS'->'
p178
aS'variable_4'
p179
ag17
aS'variable_16'
p180
ag17
aS'variable_18'
p181
aS'->'
p182
aS'variable_24'
p183
ag13
ag22
aS'func_8'
p184
ag6
aS'variable_3'
p185
aS'->'
p186
aS'variable_4'
p187
ag17
aS'variable_16'
p188
ag17
aS'variable_18'
p189
aS'->'
p190
aS'variable_25'
p191
ag13
ag22
aS'func_9'
p192
ag6
aS'variable_3'
p193
aS'->'
p194
aS'variable_4'
p195
ag17
aS'variable_16'
p196
ag17
aS'variable_18'
p197
aS'->'
p198
aS'variable_26'
p199
ag13
ag22
aS'func_10'
p200
ag6
aS'variable_3'
p201
aS'->'
p202
aS'variable_4'
p203
ag17
aS'variable_16'
p204
ag17
aS'variable_18'
p205
aS'->'
p206
aS'variable_27'
p207
ag13
ag22
aS'func_11'
p208
ag6
aS'variable_3'
p209
aS'->'
p210
aS'variable_4'
p211
ag17
aS'variable_16'
p212
ag17
aS'variable_18'
p213
aS'->'
p214
aS'variable_28'
p215
ag13
ag22
aS'func_12'
p216
ag6
aS'variable_3'
p217
aS'->'
p218
aS'variable_4'
p219
ag17
aS'variable_16'
p220
ag17
aS'variable_18'
p221
aS'->'
p222
aS'variable_29'
p223
ag13
ag22
aS'if'
p224
ag6
aS'variable_3'
p225
aS'->'
p226
aS'variable_4'
p227
ag17
aS'variable_16'
p228
ag17
aS'variable_18'
p229
aS'->'
p230
aS'variable_19'
p231
ag51
aS'variable_3'
p232
aS'->'
p233
aS'variable_9'
p234
ag17
aS'variable_10'
p235
ag13
aS'variable_3'
p236
aS'->'
p237
aS'variable_4'
p238
ag17
aS'variable_16'
p239
ag17
aS'variable_18'
p240
aS'->'
p241
aS'variable_19'
p242
ag20
aS'variable_3'
p243
aS'->'
p244
aS'variable_9'
p245
ag17
aS'variable_10'
p246
ag22
aS'if'
p247
ag6
aS'variable_3'
p248
aS'->'
p249
aS'variable_9'
p250
ag17
aS'variable_10'
p251
ag66
aS'sizeof'
p252
ag6
aS'variable_30'
p253
ag13
ag51
ag89
ag13
aS'memcpy'
p254
ag6
ag99
aS'variable_3'
p255
aS'->'
p256
aS'variable_4'
p257
ag17
aS'variable_16'
p258
ag17
aS'variable_18'
p259
ag105
ag106
ag107
ag10
aS'variable_15'
p260
ag109
ag110
ag109
aS'sizeof'
p261
ag6
aS'variable_30'
p262
ag13
ag10
aS'variable_3'
p263
aS'->'
p264
aS'variable_9'
p265
ag17
aS'variable_10'
p266
ag66
aS'sizeof'
p267
ag6
aS'variable_30'
p268
ag13
ag13
ag22
aS'variable_3'
p269
aS'->'
p270
aS'variable_4'
p271
ag17
aS'variable_9'
p272
ag17
aS'variable_6'
p273
ag20
aS'variable_31'
p274
ag22
aa(lp275
S'static'
p276
aS'int'
p277
aS'func_0'
p278
ag6
aS'variable_0'
p279
ag8
aS'variable_1'
p280
ag10
aS'variable_2'
p281
ag8
aS'variable_3'
p282
ag13
aS'variable_3'
p283
aS'->'
p284
aS'variable_4'
p285
ag17
aS'variable_5'
p286
ag17
aS'variable_6'
p287
ag20
aS'variable_7'
p288
ag22
aS'variable_3'
p289
aS'->'
p290
aS'variable_4'
p291
ag17
aS'variable_5'
p292
ag17
aS'variable_8'
p293
ag20
aS'malloc'
p294
ag6
aS'func_1'
p295
ag6
aS'variable_3'
p296
aS'->'
p297
aS'variable_9'
p298
ag17
aS'variable_10'
p299
ag10
aS'sizeof'
p300
ag6
aS'variable_11'
p301
ag13
ag13
ag13
ag22
aS'func_2'
p302
ag6
aS'variable_3'
p303
aS'->'
p304
aS'variable_4'
p305
ag17
aS'variable_5'
p306
ag17
aS'variable_8'
p307
aS'->'
p308
aS'variable_12'
p309
ag13
ag22
aS'func_3'
p310
ag6
aS'variable_3'
p311
aS'->'
p312
aS'variable_4'
p313
ag17
aS'variable_5'
p314
ag17
aS'variable_8'
p315
aS'->'
p316
aS'variable_13'
p317
ag13
ag22
aS'func_4'
p318
ag6
aS'variable_3'
p319
aS'->'
p320
aS'variable_4'
p321
ag17
aS'variable_5'
p322
ag17
aS'variable_8'
p323
aS'->'
p324
aS'variable_14'
p325
ag13
ag22
aS'func_5'
p326
ag6
aS'variable_3'
p327
aS'->'
p328
aS'variable_4'
p329
ag17
aS'variable_5'
p330
ag17
aS'variable_8'
p331
aS'->'
p332
aS'variable_15'
p333
ag13
ag22
aS'func_6'
p334
ag6
aS'variable_3'
p335
aS'->'
p336
aS'variable_4'
p337
ag17
aS'variable_5'
p338
ag17
aS'variable_8'
p339
aS'->'
p340
aS'variable_16'
p341
ag13
ag22
aS'func_7'
p342
ag6
aS'variable_3'
p343
aS'->'
p344
aS'variable_4'
p345
ag17
aS'variable_5'
p346
ag17
aS'variable_8'
p347
aS'->'
p348
aS'variable_17'
p349
ag13
ag22
aS'if'
p350
ag6
aS'variable_3'
p351
aS'->'
p352
aS'variable_4'
p353
ag17
aS'variable_5'
p354
ag17
aS'variable_8'
p355
aS'->'
p356
aS'variable_12'
p357
aS'!='
p358
aS'variable_18'
p359
aS'&&'
p360
aS'variable_3'
p361
aS'->'
p362
aS'variable_9'
p363
ag17
aS'variable_10'
p364
ag51
aS'sizeof'
p365
ag6
aS'variable_11'
p366
ag13
ag13
aS'func_8'
p367
ag6
aS'variable_3'
p368
aS'->'
p369
aS'variable_4'
p370
ag17
aS'variable_5'
p371
ag17
aS'variable_8'
p372
aS'->'
p373
aS'variable_19'
p374
ag13
ag22
aS'if'
p375
ag6
aS'variable_3'
p376
aS'->'
p377
aS'variable_4'
p378
ag17
aS'variable_5'
p379
ag17
aS'variable_8'
p380
aS'->'
p381
aS'variable_19'
p382
ag51
aS'variable_3'
p383
aS'->'
p384
aS'variable_9'
p385
ag17
aS'variable_10'
p386
ag66
aS'sizeof'
p387
ag6
aS'variable_11'
p388
ag13
ag13
aS'variable_3'
p389
aS'->'
p390
aS'variable_4'
p391
ag17
aS'variable_5'
p392
ag17
aS'variable_8'
p393
aS'->'
p394
aS'variable_19'
p395
ag20
aS'variable_3'
p396
aS'->'
p397
aS'variable_9'
p398
ag17
aS'variable_10'
p399
ag66
aS'sizeof'
p400
ag6
aS'variable_11'
p401
ag13
ag22
aS'if'
p402
ag6
aS'variable_3'
p403
aS'->'
p404
aS'variable_4'
p405
ag17
aS'variable_5'
p406
ag17
aS'variable_8'
p407
aS'->'
p408
aS'variable_12'
p409
aS'=='
p410
aS'variable_20'
p411
ag13
aS'variable_3'
p412
aS'->'
p413
aS'variable_4'
p414
ag17
aS'variable_5'
p415
ag17
aS'variable_8'
p416
aS'->'
p417
aS'variable_19'
p418
ag20
ag89
ag22
aS'if'
p419
ag6
aS'variable_3'
p420
aS'->'
p421
aS'variable_4'
p422
ag17
aS'variable_5'
p423
ag17
aS'variable_8'
p424
aS'->'
p425
aS'variable_19'
p426
ag51
ag89
ag13
aS'memcpy'
p427
ag6
ag99
aS'variable_3'
p428
aS'->'
p429
aS'variable_4'
p430
ag17
aS'variable_5'
p431
ag17
aS'variable_8'
p432
ag105
ag106
ag107
ag10
aS'variable_21'
p433
ag109
ag110
ag109
aS'sizeof'
p434
ag6
aS'variable_11'
p435
ag13
ag10
aS'variable_3'
p436
aS'->'
p437
aS'variable_4'
p438
ag17
aS'variable_5'
p439
ag17
aS'variable_8'
p440
aS'->'
p441
aS'variable_19'
p442
ag13
ag22
aS'func_9'
p443
ag6
ag6
aS'vlc_object_t'
p444
ag8
ag13
aS'variable_1'
p445
ag10
aS'"'
p446
aS'strf'
p447
aS':'
p448
aS'audio'
p449
ag448
aS'0x'
p450
aS'%'
p451
aS'4'
p452
ag17
aS'4x'
p453
aS'channels'
p454
ag448
ag451
aS'd'
p455
ag451
aS'dHz'
p456
ag451
aS'dbits'
p457
aS'/'
p458
aS'sample'
p459
ag451
aS'dkb'
p460
ag458
aS's'
p461
ag446
ag10
aS'variable_3'
p462
aS'->'
p463
aS'variable_4'
p464
ag17
aS'variable_5'
p465
ag17
aS'variable_8'
p466
aS'->'
p467
aS'variable_12'
p468
ag10
aS'variable_3'
p469
aS'->'
p470
aS'variable_4'
p471
ag17
aS'variable_5'
p472
ag17
aS'variable_8'
p473
aS'->'
p474
aS'variable_13'
p475
ag10
aS'variable_3'
p476
aS'->'
p477
aS'variable_4'
p478
ag17
aS'variable_5'
p479
ag17
aS'variable_8'
p480
aS'->'
p481
aS'variable_14'
p482
ag10
aS'variable_3'
p483
aS'->'
p484
aS'variable_4'
p485
ag17
aS'variable_5'
p486
ag17
aS'variable_8'
p487
aS'->'
p488
aS'variable_17'
p489
ag10
aS'variable_3'
p490
aS'->'
p491
aS'variable_4'
p492
ag17
aS'variable_5'
p493
ag17
aS'variable_8'
p494
aS'->'
p495
aS'variable_15'
p496
ag8
ag110
ag458
aS'1024'
p497
ag13
ag22
aS'variable_3'
p498
aS'->'
p499
aS'variable_4'
p500
ag17
aS'variable_22'
p501
ag17
aS'variable_6'
p502
ag20
aS'variable_23'
p503
ag22
aS'variable_3'
p504
aS'->'
p505
aS'variable_4'
p506
ag17
aS'variable_22'
p507
ag17
aS'variable_24'
p508
ag20
aS'malloc'
p509
ag6
aS'variable_3'
p510
aS'->'
p511
aS'variable_9'
p512
ag17
aS'variable_10'
p513
ag13
ag22
aS'func_10'
p514
ag6
aS'variable_3'
p515
aS'->'
p516
aS'variable_4'
p517
ag17
aS'variable_22'
p518
ag17
aS'variable_24'
p519
aS'->'
p520
aS'variable_25'
p521
ag13
ag22
aS'func_11'
p522
ag6
aS'variable_3'
p523
aS'->'
p524
aS'variable_4'
p525
ag17
aS'variable_22'
p526
ag17
aS'variable_24'
p527
aS'->'
p528
aS'variable_26'
p529
ag13
ag22
aS'func_12'
p530
ag6
aS'variable_3'
p531
aS'->'
p532
aS'variable_4'
p533
ag17
aS'variable_22'
p534
ag17
aS'variable_24'
p535
aS'->'
p536
aS'variable_27'
p537
ag13
ag22
aS'func_13'
p538
ag6
aS'variable_3'
p539
aS'->'
p540
aS'variable_4'
p541
ag17
aS'variable_22'
p542
ag17
aS'variable_24'
p543
aS'->'
p544
aS'variable_28'
p545
ag13
ag22
aS'func_14'
p546
ag6
aS'variable_3'
p547
aS'->'
p548
aS'variable_4'
p549
ag17
aS'variable_22'
p550
ag17
aS'variable_24'
p551
aS'->'
p552
aS'variable_29'
p553
ag13
ag22
aS'func_15'
p554
ag6
aS'variable_3'
p555
aS'->'
p556
aS'variable_4'
p557
ag17
aS'variable_22'
p558
ag17
aS'variable_24'
p559
aS'->'
p560
aS'variable_30'
p561
ag13
ag22
aS'func_16'
p562
ag6
aS'variable_3'
p563
aS'->'
p564
aS'variable_4'
p565
ag17
aS'variable_22'
p566
ag17
aS'variable_24'
p567
aS'->'
p568
aS'variable_31'
p569
ag13
ag22
aS'func_17'
p570
ag6
aS'variable_3'
p571
aS'->'
p572
aS'variable_4'
p573
ag17
aS'variable_22'
p574
ag17
aS'variable_24'
p575
aS'->'
p576
aS'variable_32'
p577
ag13
ag22
aS'func_18'
p578
ag6
aS'variable_3'
p579
aS'->'
p580
aS'variable_4'
p581
ag17
aS'variable_22'
p582
ag17
aS'variable_24'
p583
aS'->'
p584
aS'variable_33'
p585
ag13
ag22
aS'func_19'
p586
ag6
aS'variable_3'
p587
aS'->'
p588
aS'variable_4'
p589
ag17
aS'variable_22'
p590
ag17
aS'variable_24'
p591
aS'->'
p592
aS'variable_34'
p593
ag13
ag22
aS'func_20'
p594
ag6
aS'variable_3'
p595
aS'->'
p596
aS'variable_4'
p597
ag17
aS'variable_22'
p598
ag17
aS'variable_24'
p599
aS'->'
p600
aS'variable_35'
p601
ag13
ag22
aS'if'
p602
ag6
aS'variable_3'
p603
aS'->'
p604
aS'variable_4'
p605
ag17
aS'variable_22'
p606
ag17
aS'variable_24'
p607
aS'->'
p608
aS'variable_25'
p609
ag51
aS'variable_3'
p610
aS'->'
p611
aS'variable_9'
p612
ag17
aS'variable_10'
p613
ag13
aS'variable_3'
p614
aS'->'
p615
aS'variable_4'
p616
ag17
aS'variable_22'
p617
ag17
aS'variable_24'
p618
aS'->'
p619
aS'variable_25'
p620
ag20
aS'variable_3'
p621
aS'->'
p622
aS'variable_9'
p623
ag17
aS'variable_10'
p624
ag22
aS'if'
p625
ag6
aS'variable_3'
p626
aS'->'
p627
aS'variable_9'
p628
ag17
aS'variable_10'
p629
ag66
aS'sizeof'
p630
ag6
aS'variable_36'
p631
ag13
ag51
ag89
ag13
aS'memcpy'
p632
ag6
ag99
aS'variable_3'
p633
aS'->'
p634
aS'variable_4'
p635
ag17
aS'variable_22'
p636
ag17
aS'variable_24'
p637
ag105
ag106
ag107
ag10
aS'variable_21'
p638
ag109
ag110
ag109
aS'sizeof'
p639
ag6
aS'variable_36'
p640
ag13
ag10
aS'variable_3'
p641
aS'->'
p642
aS'variable_9'
p643
ag17
aS'variable_10'
p644
ag66
aS'sizeof'
p645
ag6
aS'variable_36'
p646
ag13
ag13
ag22
aS'variable_3'
p647
aS'->'
p648
aS'variable_4'
p649
ag17
aS'variable_9'
p650
ag17
aS'variable_6'
p651
ag20
aS'variable_37'
p652
ag22
aaa(lp653
I1
aI1
aa(lp654
I194
aI30
aa(lp655
(lp656
S'main'
p657
aa(lp658
g657
aaa(lp659
S'705 /home/SySeVR/data/CVE_2011_2588_VULN_AVI_ChunkRead_strf.c malloc 69'
p660
aS'706 /home/SySeVR/data/CVE_2011_2588_VULN_AVI_ChunkRead_strf.c malloc 21'
p661
aa.