(lp0
(lp1
(lp2
S'static'
p3
aS'int'
p4
aS'func_0'
p5
aS'('
p6
aS'variable_0'
p7
aS'*'
p8
aS'variable_1'
p9
aS','
p10
aS'variable_2'
p11
ag8
aS'variable_3'
p12
aS')'
p13
aS'variable_3'
p14
aS'->'
p15
aS'variable_4'
p16
aS'.'
p17
aS'variable_5'
p18
ag17
aS'variable_6'
p19
aS'='
p20
aS'variable_7'
p21
aS';'
p22
aS'variable_3'
p23
aS'->'
p24
aS'variable_4'
p25
ag17
aS'variable_5'
p26
ag17
aS'variable_8'
p27
ag20
aS'malloc'
p28
ag6
aS'func_1'
p29
ag6
aS'variable_3'
p30
aS'->'
p31
aS'variable_9'
p32
ag17
aS'variable_10'
p33
ag10
aS'sizeof'
p34
ag6
aS'variable_11'
p35
ag13
ag13
ag13
ag22
aS'if'
p36
ag6
aS'variable_3'
p37
aS'->'
p38
aS'variable_4'
p39
ag17
aS'variable_5'
p40
ag17
aS'variable_8'
p41
aS'->'
p42
aS'variable_12'
p43
aS'!='
p44
aS'variable_13'
p45
aS'&&'
p46
aS'variable_3'
p47
aS'->'
p48
aS'variable_9'
p49
ag17
aS'variable_10'
p50
aS'>'
p51
aS'sizeof'
p52
ag6
aS'variable_11'
p53
ag13
ag13
aS'if'
p54
ag6
aS'variable_3'
p55
aS'->'
p56
aS'variable_4'
p57
ag17
aS'variable_5'
p58
ag17
aS'variable_8'
p59
aS'->'
p60
aS'variable_14'
p61
ag51
aS'variable_3'
p62
aS'->'
p63
aS'variable_9'
p64
ag17
aS'variable_10'
p65
aS'-'
p66
aS'sizeof'
p67
ag6
aS'variable_11'
p68
ag13
ag13
aS'variable_3'
p69
aS'->'
p70
aS'variable_4'
p71
ag17
aS'variable_5'
p72
ag17
aS'variable_8'
p73
aS'->'
p74
aS'variable_14'
p75
ag20
aS'variable_3'
p76
aS'->'
p77
aS'variable_9'
p78
ag17
aS'variable_10'
p79
ag66
aS'sizeof'
p80
ag6
aS'variable_11'
p81
ag13
ag22
aS'if'
p82
ag6
aS'variable_3'
p83
aS'->'
p84
aS'variable_4'
p85
ag17
aS'variable_5'
p86
ag17
aS'variable_8'
p87
aS'->'
p88
aS'variable_12'
p89
aS'=='
p90
aS'variable_15'
p91
ag13
aS'variable_3'
p92
aS'->'
p93
aS'variable_4'
p94
ag17
aS'variable_5'
p95
ag17
aS'variable_8'
p96
aS'->'
p97
aS'variable_14'
p98
ag20
aS'0'
p99
ag22
aS'if'
p100
ag6
aS'variable_3'
p101
aS'->'
p102
aS'variable_4'
p103
ag17
aS'variable_5'
p104
ag17
aS'variable_8'
p105
aS'->'
p106
aS'variable_14'
p107
ag51
ag99
ag13
aS'memcpy'
p108
ag6
aS'&'
p109
aS'variable_3'
p110
aS'->'
p111
aS'variable_4'
p112
ag17
aS'variable_5'
p113
ag17
aS'variable_8'
p114
aS'['
p115
aS'1'
p116
aS']'
p117
ag10
aS'variable_16'
p118
aS'+'
p119
aS'8'
p120
ag119
aS'sizeof'
p121
ag6
aS'variable_11'
p122
ag13
ag10
aS'variable_3'
p123
aS'->'
p124
aS'variable_4'
p125
ag17
aS'variable_5'
p126
ag17
aS'variable_8'
p127
aS'->'
p128
aS'variable_14'
p129
ag13
ag22
aS'func_2'
p130
ag6
ag6
aS'vlc_object_t'
p131
ag8
ag13
aS'variable_1'
p132
ag10
aS'"'
p133
aS'strf'
p134
aS':'
p135
aS'audio'
p136
ag135
aS'0x'
p137
aS'%'
p138
aS'4'
p139
ag17
aS'4x'
p140
aS'channels'
p141
ag135
ag138
aS'd'
p142
ag138
aS'dHz'
p143
ag138
aS'dbits'
p144
aS'/'
p145
aS'sample'
p146
ag138
aS'dkb'
p147
ag145
aS's'
p148
ag133
ag10
aS'variable_3'
p149
aS'->'
p150
aS'variable_4'
p151
ag17
aS'variable_5'
p152
ag17
aS'variable_8'
p153
aS'->'
p154
aS'variable_12'
p155
ag10
aS'variable_3'
p156
aS'->'
p157
aS'variable_4'
p158
ag17
aS'variable_5'
p159
ag17
aS'variable_8'
p160
aS'->'
p161
aS'variable_17'
p162
ag10
aS'variable_3'
p163
aS'->'
p164
aS'variable_4'
p165
ag17
aS'variable_5'
p166
ag17
aS'variable_8'
p167
aS'->'
p168
aS'variable_18'
p169
ag10
aS'variable_3'
p170
aS'->'
p171
aS'variable_4'
p172
ag17
aS'variable_5'
p173
ag17
aS'variable_8'
p174
aS'->'
p175
aS'variable_19'
p176
ag10
aS'variable_3'
p177
aS'->'
p178
aS'variable_4'
p179
ag17
aS'variable_5'
p180
ag17
aS'variable_8'
p181
aS'->'
p182
aS'variable_20'
p183
ag8
ag120
ag145
aS'1024'
p184
ag13
ag22
aS'variable_3'
p185
aS'->'
p186
aS'variable_4'
p187
ag17
aS'variable_21'
p188
ag17
aS'variable_6'
p189
ag20
aS'variable_22'
p190
ag22
aS'variable_3'
p191
aS'->'
p192
aS'variable_4'
p193
ag17
aS'variable_21'
p194
ag17
aS'variable_23'
p195
ag20
aS'malloc'
p196
ag6
aS'variable_3'
p197
aS'->'
p198
aS'variable_9'
p199
ag17
aS'variable_10'
p200
ag13
ag22
aS'func_3'
p201
ag6
aS'variable_3'
p202
aS'->'
p203
aS'variable_4'
p204
ag17
aS'variable_21'
p205
ag17
aS'variable_23'
p206
aS'->'
p207
aS'variable_24'
p208
ag13
ag22
aS'func_4'
p209
ag6
aS'variable_3'
p210
aS'->'
p211
aS'variable_4'
p212
ag17
aS'variable_21'
p213
ag17
aS'variable_23'
p214
aS'->'
p215
aS'variable_25'
p216
ag13
ag22
aS'func_5'
p217
ag6
aS'variable_3'
p218
aS'->'
p219
aS'variable_4'
p220
ag17
aS'variable_21'
p221
ag17
aS'variable_23'
p222
aS'->'
p223
aS'variable_26'
p224
ag13
ag22
aS'func_6'
p225
ag6
aS'variable_3'
p226
aS'->'
p227
aS'variable_4'
p228
ag17
aS'variable_21'
p229
ag17
aS'variable_23'
p230
aS'->'
p231
aS'variable_27'
p232
ag13
ag22
aS'func_7'
p233
ag6
aS'variable_3'
p234
aS'->'
p235
aS'variable_4'
p236
ag17
aS'variable_21'
p237
ag17
aS'variable_23'
p238
aS'->'
p239
aS'variable_28'
p240
ag13
ag22
aS'func_8'
p241
ag6
aS'variable_3'
p242
aS'->'
p243
aS'variable_4'
p244
ag17
aS'variable_21'
p245
ag17
aS'variable_23'
p246
aS'->'
p247
aS'variable_29'
p248
ag13
ag22
aS'func_9'
p249
ag6
aS'variable_3'
p250
aS'->'
p251
aS'variable_4'
p252
ag17
aS'variable_21'
p253
ag17
aS'variable_23'
p254
aS'->'
p255
aS'variable_30'
p256
ag13
ag22
aS'func_10'
p257
ag6
aS'variable_3'
p258
aS'->'
p259
aS'variable_4'
p260
ag17
aS'variable_21'
p261
ag17
aS'variable_23'
p262
aS'->'
p263
aS'variable_31'
p264
ag13
ag22
aS'func_11'
p265
ag6
aS'variable_3'
p266
aS'->'
p267
aS'variable_4'
p268
ag17
aS'variable_21'
p269
ag17
aS'variable_23'
p270
aS'->'
p271
aS'variable_32'
p272
ag13
ag22
aS'func_12'
p273
ag6
aS'variable_3'
p274
aS'->'
p275
aS'variable_4'
p276
ag17
aS'variable_21'
p277
ag17
aS'variable_23'
p278
aS'->'
p279
aS'variable_33'
p280
ag13
ag22
aS'func_13'
p281
ag6
aS'variable_3'
p282
aS'->'
p283
aS'variable_4'
p284
ag17
aS'variable_21'
p285
ag17
aS'variable_23'
p286
aS'->'
p287
aS'variable_34'
p288
ag13
ag22
aS'if'
p289
ag6
aS'variable_3'
p290
aS'->'
p291
aS'variable_4'
p292
ag17
aS'variable_21'
p293
ag17
aS'variable_23'
p294
aS'->'
p295
aS'variable_24'
p296
ag51
aS'variable_3'
p297
aS'->'
p298
aS'variable_9'
p299
ag17
aS'variable_10'
p300
ag13
aS'variable_3'
p301
aS'->'
p302
aS'variable_4'
p303
ag17
aS'variable_21'
p304
ag17
aS'variable_23'
p305
aS'->'
p306
aS'variable_24'
p307
ag20
aS'variable_3'
p308
aS'->'
p309
aS'variable_9'
p310
ag17
aS'variable_10'
p311
ag22
aS'if'
p312
ag6
aS'variable_3'
p313
aS'->'
p314
aS'variable_9'
p315
ag17
aS'variable_10'
p316
ag66
aS'sizeof'
p317
ag6
aS'variable_35'
p318
ag13
ag51
ag99
ag13
aS'memcpy'
p319
ag6
ag109
aS'variable_3'
p320
aS'->'
p321
aS'variable_4'
p322
ag17
aS'variable_21'
p323
ag17
aS'variable_23'
p324
ag115
ag116
ag117
ag10
aS'variable_16'
p325
ag119
ag120
ag119
aS'sizeof'
p326
ag6
aS'variable_35'
p327
ag13
ag10
aS'variable_3'
p328
aS'->'
p329
aS'variable_9'
p330
ag17
aS'variable_10'
p331
ag66
aS'sizeof'
p332
ag6
aS'variable_35'
p333
ag13
ag13
ag22
aS'variable_3'
p334
aS'->'
p335
aS'variable_4'
p336
ag17
aS'variable_9'
p337
ag17
aS'variable_6'
p338
ag20
aS'variable_36'
p339
ag22
aaa(lp340
I1
aa(lp341
I114
aa(lp342
(lp343
S'main'
p344
aaa(lp345
S'206 /home/SySeVR/data/CVE_2011_2588_VULN_AVI_ChunkRead_strf.c p_chk -> strf . auds . p_wf -> cbSize = p_chk -> common . i_chunk_size - sizeof ( WAVEFORMATEX ) 36'
p346
aa.