(lp0
(lp1
(lp2
S'static'
p3
aS'int'
p4
aS'func_0'
p5
aS'('
p6
aS'struct'
p7
aS'variable_0'
p8
aS'*'
p9
aS'variable_1'
p10
aS','
p11
aS'unsigned'
p12
aS'long'
p13
aS'variable_2'
p14
ag11
aS'unsigned'
p15
aS'long'
p16
aS'variable_3'
p17
aS')'
p18
aS'size_t'
p19
aS'variable_4'
p20
aS'='
p21
aS'variable_2'
p22
ag9
aS'sizeof'
p23
ag6
aS'struct'
p24
aS'variable_5'
p25
ag18
aS';'
p26
aS'if'
p27
ag6
aS'variable_4'
p28
aS'>'
p29
aS'variable_6'
p30
ag18
aS'variable_7'
p31
ag21
aS'kmalloc'
p32
ag6
aS'variable_4'
p33
ag11
aS'variable_8'
p34
ag18
ag26
aS'if'
p35
ag6
aS'!'
p36
aS'variable_7'
p37
ag18
aS'variable_9'
p38
ag21
aS'func_1'
p39
ag6
aS'variable_1'
p40
ag11
aS'variable_7'
p41
ag11
aS'variable_2'
p42
ag11
aS'variable_3'
p43
ag18
ag26
aS'if'
p44
ag6
aS'variable_9'
p45
ag29
aS'0'
p46
ag18
aS'if'
p47
ag6
aS'func_2'
p48
ag6
aS'variable_10'
p49
ag11
aS'variable_7'
p50
ag11
aS'variable_9'
p51
ag9
aS'sizeof'
p52
ag6
aS'struct'
p53
aS'variable_5'
p54
ag18
ag18
ag18
aS'kfree'
p55
ag6
aS'variable_7'
p56
ag18
ag26
aS'return'
p57
aS'variable_9'
p58
ag26
aaa(lp59
I1
aa(lp60
I28
aa(lp61
(lp62
S'main'
p63
aaa(lp64
S'738 /home/SySeVR/data/CVE_2006_5751_VULN_get_fdb_entries.c size_t size = maxnum * sizeof ( struct __fdb_entry ) ; 6'
p65
aa.