(lp0
(lp1
(lp2
S'static'
p3
aS'ssize_t'
p4
aS'func_0'
p5
aS'('
p6
aS'struct'
p7
aS'variable_0'
p8
aS'*'
p9
aS'char'
p10
aS'variable_1'
p11
ag9
aS'variable_2'
p12
aS','
p13
aS'size_t'
p14
aS'variable_3'
p15
ag13
aS'variable_4'
p16
ag9
aS'variable_5'
p17
aS')'
p18
aS'if'
p19
ag6
ag9
aS'variable_5'
p20
aS'<'
p21
aS'0'
p22
aS'||'
p23
ag9
aS'variable_5'
p24
aS'>'
p25
aS'='
p26
aS'variable_6'
p27
ag18
aS'variable_3'
p28
ag26
ag9
aS'variable_5'
p29
aS'+'
p30
aS'variable_3'
p31
ag21
aS'variable_6'
p32
aS'?'
p33
aS'variable_3'
p34
aS':'
p35
aS'variable_6'
p36
aS'-'
p37
ag9
aS'variable_5'
p38
aS';'
p39
aS'variable_7'
p40
ag26
aS'kmalloc'
p41
ag6
aS'variable_3'
p42
ag13
aS'variable_8'
p43
ag18
ag39
aS'if'
p44
ag6
aS'variable_7'
p45
ag18
aS'for'
p46
ag6
aS'variable_9'
p47
ag26
ag22
ag39
aS'variable_9'
p48
ag21
aS'variable_3'
p49
ag39
aS'variable_9'
p50
aS'++'
p51
ag18
aS'variable_7'
p52
aS'['
p53
aS'variable_9'
p54
aS']'
p55
ag26
aS'func_1'
p56
ag6
aS'variable_10'
p57
ag30
ag6
ag9
aS'variable_5'
p58
ag18
aS'++'
p59
ag18
ag39
aS'if'
p60
ag6
aS'func_2'
p61
ag6
aS'variable_2'
p62
ag13
aS'variable_7'
p63
ag13
aS'variable_3'
p64
ag18
ag18
aS'variable_11'
p65
ag26
aS'variable_3'
p66
ag39
aS'kfree'
p67
ag6
aS'variable_7'
p68
ag18
ag39
aS'return'
p69
aS'variable_11'
p70
ag39
aaa(lp71
I0
aa(lp72
I34
aa(lp73
(lp74
S'main'
p75
aaa(lp76
S'75 /home/SySeVR/data/CVE_2009_2846_PATCHED_eisa_eeprom_read.c count = * ppos + count < HPEE_MAX_LENGTH ? count : HPEE_MAX_LENGTH - * ppos 11'
p77
aa.