(lp0
(lp1
(lp2
S'func_0'
p3
aS'('
p4
aS'unsigned'
p5
aS'int'
p6
aS'variable_0'
p7
aS','
p8
aS'const'
p9
aS'char'
p10
aS'*'
p11
aS'variable_1'
p12
ag8
aS'const'
p13
aS'struct'
p14
aS'variable_2'
p15
ag11
aS'variable_3'
p16
aS')'
p17
aS'struct'
p18
aS'variable_4'
p19
ag11
aS'variable_5'
p20
aS';'
p21
aS'struct'
p22
aS'variable_4'
p23
ag11
aS'variable_6'
p24
ag21
aS'variable_7'
p25
ag11
aS'variable_8'
p26
ag21
aS'unsigned'
p27
aS'char'
p28
ag11
aS'variable_9'
p29
ag21
aS'int'
p30
aS'variable_10'
p31
ag21
aS'if'
p32
ag4
aS'variable_11'
p33
aS'=='
p34
aS'NULL'
p35
ag17
aS'variable_5'
p36
aS'='
p37
aS'func_1'
p38
ag4
ag17
ag21
aS'if'
p39
ag4
aS'variable_5'
p40
aS'=='
p41
aS'NULL'
p42
ag17
aS'variable_6'
p43
ag37
aS'variable_5'
p44
ag21
aS'variable_5'
p45
aS'->'
p46
aS'variable_12'
p47
ag37
aS'func_2'
p48
ag4
aS'variable_11'
p49
aS'->'
p50
aS'variable_13'
p51
ag17
ag21
aS'variable_5'
p52
aS'->'
p53
aS'variable_14'
p54
ag37
aS'variable_11'
p55
aS'->'
p56
aS'variable_15'
p57
ag21
aS'variable_8'
p58
ag37
ag4
aS'TCONX_REQ'
p59
ag11
ag17
aS'variable_5'
p60
ag21
aS'variable_8'
p61
aS'->'
p62
aS'variable_16'
p63
ag37
aS'0xFF'
p64
ag21
aS'variable_8'
p65
aS'->'
p66
aS'variable_17'
p67
ag37
aS'func_3'
p68
ag4
aS'variable_18'
p69
ag17
ag21
aS'variable_9'
p70
ag37
aS'&'
p71
aS'variable_8'
p72
aS'->'
p73
aS'variable_19'
p74
aS'['
p75
aS'0'
p76
aS']'
p77
ag21
aS'if'
p78
ag4
ag4
aS'variable_11'
p79
aS'->'
p80
aS'variable_13'
p81
aS'->'
p82
aS'variable_20'
p83
ag17
ag71
aS'variable_21'
p84
ag17
ag11
aS'variable_9'
p85
ag37
ag76
ag21
aS'variable_9'
p86
aS'++'
p87
ag21
aS'variable_9'
p88
aS'+='
p89
aS'variable_22'
p90
ag21
aS'if'
p91
ag4
aS'variable_11'
p92
aS'->'
p93
aS'variable_23'
p94
ag71
aS'variable_24'
p95
ag17
ag11
aS'variable_9'
p96
ag37
ag76
ag21
aS'variable_9'
p97
aS'++'
p98
ag21
aS'if'
p99
ag4
aS'variable_11'
p100
aS'->'
p101
aS'variable_13'
p102
aS'->'
p103
aS'variable_20'
p104
ag71
ag4
aS'variable_25'
p105
aS'|'
p106
aS'variable_26'
p107
ag17
ag17
aS'variable_5'
p108
aS'->'
p109
aS'variable_27'
p110
ag106
ag37
aS'variable_28'
p111
ag21
aS'if'
p112
ag4
aS'variable_11'
p113
aS'->'
p114
aS'variable_23'
p115
ag71
aS'variable_29'
p116
ag17
aS'variable_5'
p117
aS'->'
p118
aS'variable_27'
p119
ag106
ag37
aS'variable_30'
p120
ag21
aS'if'
p121
ag4
aS'variable_11'
p122
aS'->'
p123
aS'variable_23'
p124
ag71
aS'variable_31'
p125
ag17
aS'variable_5'
p126
aS'->'
p127
aS'variable_27'
p128
ag106
ag37
aS'variable_32'
p129
ag21
aS'if'
p130
ag4
aS'variable_11'
p131
aS'->'
p132
aS'variable_23'
p133
ag71
aS'variable_24'
p134
ag17
aS'variable_5'
p135
aS'->'
p136
aS'variable_27'
p137
ag106
ag37
aS'variable_33'
p138
ag21
aS'variable_10'
p139
ag37
aS'func_4'
p140
ag4
ag4
aS'__le16'
p141
ag11
ag17
aS'variable_9'
p142
ag8
aS'variable_1'
p143
ag8
aS'6'
p144
ag11
ag4
aS'+'
p145
aS'256'
p146
ag17
ag8
aS'variable_3'
p147
ag17
ag21
aS'variable_9'
p148
aS'+='
p149
aS'2'
p150
ag11
aS'variable_10'
p151
ag21
aS'variable_9'
p152
aS'+='
p153
ag150
ag21
aS'strcpy'
p154
ag4
aS'variable_9'
p155
ag8
aS'variable_1'
p156
ag17
ag21
aS'variable_9'
p157
aS'+='
p158
aS'strlen'
p159
ag4
aS'variable_1'
p160
ag17
ag145
aS'1'
p161
ag21
aS'strcpy'
p162
ag4
aS'variable_9'
p163
ag8
aS'"'
p164
aS'?'
p165
ag165
ag165
ag165
ag165
ag164
ag17
ag21
aS'variable_9'
p166
aS'+='
p167
aS'strlen'
p168
ag4
ag164
ag165
ag165
ag165
ag165
ag165
ag164
ag17
ag21
aS'variable_9'
p169
aS'+='
p170
ag161
ag21
aS'variable_34'
p171
ag37
aS'func_5'
p172
ag4
aS'variable_0'
p173
ag8
aS'variable_11'
p174
ag8
aS'variable_5'
p175
ag8
aS'variable_6'
p176
ag8
ag71
aS'variable_10'
p177
ag8
aS'variable_35'
p178
ag17
ag21
aS'if'
p179
ag4
ag4
aS'variable_34'
p180
aS'=='
p181
ag76
ag17
aS'&&'
p182
ag4
aS'variable_36'
p183
aS'!='
p184
aS'NULL'
p185
ag17
ag17
aS'variable_36'
p186
aS'->'
p187
aS'variable_37'
p188
ag37
aS'variable_38'
p189
ag21
aS'variable_36'
p190
aS'->'
p191
aS'variable_39'
p192
ag37
aS'false'
p193
ag21
aS'variable_36'
p194
aS'->'
p195
aS'variable_40'
p196
ag37
aS'variable_6'
p197
aS'->'
p198
aS'variable_41'
p199
ag21
aS'variable_9'
p200
ag37
aS'func_6'
p201
ag4
aS'variable_6'
p202
ag17
ag21
aS'variable_10'
p203
ag37
aS'func_7'
p204
ag4
aS'variable_9'
p205
ag8
aS'func_8'
p206
ag4
aS'variable_6'
p207
ag17
aS'-'
p208
ag150
ag17
ag21
aS'if'
p209
ag4
aS'variable_10'
p210
aS'=='
p211
aS'3'
p212
ag17
aS'if'
p213
ag4
ag4
aS'variable_9'
p214
ag75
ag76
ag77
aS'=='
p215
aS"'"
p216
aS'I'
p217
ag216
ag17
aS'&&'
p218
ag4
aS'variable_9'
p219
ag75
ag161
ag77
aS'=='
p220
ag216
aS'P'
p221
ag216
ag17
aS'&&'
p222
ag4
aS'variable_9'
p223
ag75
ag150
ag77
aS'=='
p224
ag216
aS'C'
p225
ag216
ag17
ag17
aS'variable_36'
p226
aS'->'
p227
aS'variable_42'
p228
ag37
ag161
ag21
aS'strncpy'
p229
ag4
aS'variable_36'
p230
aS'->'
p231
aS'variable_43'
p232
ag8
aS'variable_1'
p233
ag8
aS'variable_44'
p234
ag17
ag21
aS'kfree'
p235
ag4
aS'variable_36'
p236
aS'->'
p237
aS'variable_45'
p238
ag17
ag21
aS'variable_36'
p239
aS'->'
p240
aS'variable_45'
p241
ag37
aS'func_9'
p242
ag4
aS'variable_10'
p243
ag145
ag150
ag8
aS'variable_46'
p244
ag17
ag21
aS'if'
p245
ag4
aS'variable_36'
p246
aS'->'
p247
aS'variable_45'
p248
ag17
aS'func_10'
p249
ag4
aS'variable_36'
p250
aS'->'
p251
aS'variable_45'
p252
ag8
ag4
aS'__le16'
p253
ag11
ag17
aS'variable_9'
p254
ag8
aS'variable_10'
p255
ag8
aS'variable_3'
p256
ag17
ag21
aaa(lp257
I0
aa(lp258
I419
aa(lp259
(lp260
S'main'
p261
aaa(lp262
S'350 /home/SySeVR/data/CVE_2009_1439_VULN_CIFSTCon.c strncpy 122'
p263
aa.