(lp0
(lp1
(lp2
S'static'
p3
aS'u32'
p4
aS'func_0'
p5
aS'('
p6
aS'struct'
p7
aS'variable_0'
p8
aS'*'
p9
aS'variable_1'
p10
aS')'
p11
aS'ktime_t'
p12
aS'variable_2'
p13
aS';'
p14
aS's64'
p15
aS'variable_3'
p16
ag14
aS'u32'
p17
aS'variable_4'
p18
ag14
aS'if'
p19
ag6
aS'func_1'
p20
ag6
aS'variable_1'
p21
aS','
p22
aS'variable_5'
p23
ag11
aS'=='
p24
aS'0'
p25
aS'||'
p26
aS'variable_1'
p27
aS'->'
p28
aS'variable_6'
p29
aS'.'
p30
aS'variable_7'
p31
aS'=='
p32
ag25
ag11
aS'variable_2'
p33
aS'='
p34
aS'func_2'
p35
ag6
aS'&'
p36
aS'variable_1'
p37
aS'->'
p38
aS'variable_6'
p39
ag30
aS'variable_8'
p40
ag11
ag14
aS'if'
p41
ag6
aS'func_3'
p42
ag6
aS'variable_2'
p43
ag11
aS'<'
p44
ag25
ag11
aS'variable_2'
p45
ag34
aS'func_4'
p46
ag6
ag25
ag22
ag25
ag11
ag14
aS'variable_3'
p47
ag34
aS'func_5'
p48
ag6
aS'func_6'
p49
ag6
aS'variable_2'
p50
ag11
ag22
aS'variable_1'
p51
aS'->'
p52
aS'variable_6'
p53
ag30
aS'variable_7'
p54
ag11
ag14
aS'variable_4'
p55
ag34
aS'func_7'
p56
ag6
aS'variable_3'
p57
ag22
ag6
aS'variable_9'
p58
ag9
aS'variable_1'
p59
aS'->'
p60
aS'variable_10'
p61
ag11
ag11
ag14
aS'return'
p62
aS'variable_4'
p63
ag14
aaa(lp64
I0
aa(lp65
I95
aa(lp66
(lp67
S'main'
p68
aaa(lp69
S'538 /home/SySeVR/data/CVE_2013_6367_PATCHED_apic_get_tmcct.c tmcct = div64_u64 ( ns , ( APIC_BUS_CYCLE_NS * apic -> divide_count ) ) 19'
p70
aa.