(lp0
(lp1
(lp2
S'int'
p3
aS'func_0'
p4
aS'('
p5
aS'variable_0'
p6
aS'*'
p7
aS'variable_1'
p8
aS')'
p9
aS'int'
p10
aS'variable_2'
p11
aS','
p12
aS'variable_3'
p13
ag12
aS'variable_4'
p14
ag12
aS'variable_5'
p15
ag12
aS'variable_6'
p16
ag12
aS'variable_7'
p17
ag12
aS'variable_8'
p18
aS';'
p19
aS'int'
p20
aS'variable_9'
p21
aS'['
p22
aS'variable_10'
p23
aS']'
p24
ag19
aS'int'
p25
aS'variable_11'
p26
ag22
aS'variable_10'
p27
ag24
ag19
aS'variable_1'
p28
aS'->'
p29
aS'variable_12'
p30
aS'='
p31
aS'0'
p32
ag19
aS'variable_1'
p33
aS'->'
p34
aS'variable_13'
p35
ag31
aS'variable_1'
p36
aS'->'
p37
aS'variable_14'
p38
ag31
ag32
ag19
aS'variable_1'
p39
aS'->'
p40
aS'variable_15'
p41
aS'->'
p42
aS'variable_16'
p43
ag31
aS'variable_1'
p44
aS'->'
p45
aS'variable_17'
p46
ag31
aS'func_1'
p47
ag5
aS'&'
p48
aS'variable_1'
p49
aS'->'
p50
aS'variable_18'
p51
ag12
aS'8'
p52
ag9
ag19
aS'if'
p53
ag5
aS'variable_1'
p54
aS'->'
p55
aS'variable_19'
p56
ag9
aS'variable_1'
p57
aS'->'
p58
aS'variable_17'
p59
ag31
aS'9'
p60
ag19
aS'if'
p61
ag5
aS'variable_1'
p62
aS'->'
p63
aS'variable_17'
p64
aS'=='
p65
ag60
aS'&&'
p66
aS'!'
p67
aS'variable_1'
p68
aS'->'
p69
aS'variable_19'
p70
ag9
aS'variable_1'
p71
aS'->'
p72
aS'variable_20'
p73
ag31
aS'1'
p74
ag19
aS'if'
p75
ag5
aS'variable_1'
p76
aS'->'
p77
aS'variable_21'
p78
aS'&&'
p79
aS'variable_1'
p80
aS'->'
p81
aS'variable_15'
p82
aS'->'
p83
aS'variable_22'
p84
ag9
aS'variable_6'
p85
ag31
aS'func_2'
p86
ag5
ag48
aS'variable_1'
p87
aS'->'
p88
aS'variable_18'
p89
ag12
aS'16'
p90
ag9
ag19
aS'variable_5'
p91
ag31
aS'func_3'
p92
ag5
ag48
aS'variable_1'
p93
aS'->'
p94
aS'variable_18'
p95
ag12
aS'16'
p96
ag9
ag19
aS'if'
p97
ag5
aS'variable_1'
p98
aS'->'
p99
aS'variable_23'
p100
aS'&&'
p101
aS'variable_1'
p102
aS'->'
p103
aS'variable_5'
p104
aS'=='
p105
aS'variable_5'
p106
aS'&&'
p107
aS'variable_1'
p108
aS'->'
p109
aS'variable_6'
p110
aS'=='
p111
aS'variable_6'
p112
aS'+'
p113
ag74
ag9
aS'variable_6'
p114
ag31
aS'variable_1'
p115
aS'->'
p116
aS'variable_6'
p117
ag19
aS'if'
p118
ag5
aS'func_4'
p119
ag5
aS'variable_5'
p120
ag12
aS'variable_6'
p121
ag12
ag32
ag12
aS'variable_1'
p122
aS'->'
p123
aS'variable_15'
p124
ag9
ag9
aS'variable_3'
p125
ag31
aS'func_5'
p126
ag5
ag48
aS'variable_1'
p127
aS'->'
p128
aS'variable_18'
p129
ag12
ag52
ag9
ag19
aS'if'
p130
ag5
aS'variable_3'
p131
aS'<'
p132
ag31
ag32
aS'||'
p133
aS'variable_3'
p134
aS'>'
p135
aS'variable_10'
p136
ag9
aS'if'
p137
ag5
aS'variable_1'
p138
aS'->'
p139
aS'variable_23'
p140
aS'&&'
p141
ag5
aS'variable_1'
p142
aS'->'
p143
aS'variable_24'
p144
aS'=='
p145
ag67
aS'variable_1'
p146
aS'->'
p147
aS'variable_25'
p148
ag9
ag9
aS'if'
p149
ag5
aS'variable_3'
p150
aS'!='
p151
aS'variable_1'
p152
aS'->'
p153
aS'variable_3'
p154
ag9
aS'if'
p155
ag5
aS'variable_1'
p156
aS'->'
p157
aS'variable_26'
p158
aS'&&'
p159
ag67
ag5
aS'variable_1'
p160
aS'->'
p161
aS'variable_17'
p162
ag132
ag31
ag52
aS'||'
p163
aS'variable_3'
p164
aS'=='
p165
ag74
ag9
ag9
aS'variable_1'
p166
aS'->'
p167
aS'variable_3'
p168
ag31
aS'variable_3'
p169
ag19
aS'variable_1'
p170
aS'->'
p171
aS'variable_27'
p172
ag31
ag74
ag19
aS'variable_1'
p173
aS'->'
p174
aS'variable_28'
p175
ag31
ag74
ag19
aS'memset'
p176
ag5
aS'variable_9'
p177
ag12
ag32
ag12
aS'sizeof'
p178
ag5
aS'variable_9'
p179
ag9
ag9
ag19
aS'memset'
p180
ag5
aS'variable_11'
p181
ag12
ag32
ag12
aS'sizeof'
p182
ag5
aS'variable_11'
p183
ag9
ag9
ag19
aS'for'
p184
ag5
aS'variable_4'
p185
ag31
ag32
ag19
aS'variable_4'
p186
ag132
aS'variable_3'
p187
ag19
aS'variable_4'
p188
aS'++'
p189
ag9
aS'variable_1'
p190
aS'->'
p191
aS'variable_29'
p192
ag22
aS'variable_4'
p193
ag24
ag31
aS'func_6'
p194
ag5
ag48
aS'variable_1'
p195
aS'->'
p196
aS'variable_18'
p197
ag12
ag52
ag9
aS'-'
p198
ag74
ag19
aS'variable_9'
p199
ag22
aS'variable_4'
p200
ag24
ag31
aS'func_7'
p201
ag5
ag48
aS'variable_1'
p202
aS'->'
p203
aS'variable_18'
p204
ag12
aS'4'
p205
ag9
ag19
aS'variable_11'
p206
ag22
aS'variable_4'
p207
ag24
ag31
aS'func_8'
p208
ag5
ag48
aS'variable_1'
p209
aS'->'
p210
aS'variable_18'
p211
ag12
ag205
ag9
ag19
aS'if'
p212
ag5
aS'variable_9'
p213
ag22
aS'variable_4'
p214
ag24
ag135
aS'variable_1'
p215
aS'->'
p216
aS'variable_27'
p217
ag9
aS'variable_1'
p218
aS'->'
p219
aS'variable_27'
p220
ag31
aS'variable_9'
p221
ag22
aS'variable_4'
p222
ag24
ag19
aS'if'
p223
ag5
aS'variable_11'
p224
ag22
aS'variable_4'
p225
ag24
ag135
aS'variable_1'
p226
aS'->'
p227
aS'variable_28'
p228
ag9
aS'variable_1'
p229
aS'->'
p230
aS'variable_28'
p231
ag31
aS'variable_11'
p232
ag22
aS'variable_4'
p233
ag24
ag19
aS'variable_1'
p234
aS'->'
p235
aS'variable_30'
p236
ag22
aS'variable_4'
p237
ag24
ag31
aS'func_9'
p238
ag5
ag48
aS'variable_1'
p239
aS'->'
p240
aS'variable_18'
p241
ag12
ag52
ag9
ag19
aS'if'
p242
ag5
aS'variable_1'
p243
aS'->'
p244
aS'variable_30'
p245
ag22
aS'variable_4'
p246
ag24
ag135
ag31
ag205
ag9
aS'if'
p247
ag5
ag67
aS'variable_9'
p248
ag22
aS'variable_4'
p249
ag24
aS'||'
p250
ag67
aS'variable_11'
p251
ag22
aS'variable_4'
p252
ag24
ag9
aS'if'
p253
ag5
aS'variable_1'
p254
aS'->'
p255
aS'variable_26'
p256
aS'&&'
p257
ag5
aS'variable_1'
p258
aS'->'
p259
aS'variable_27'
p260
ag135
ag74
aS'||'
p261
aS'variable_1'
p262
aS'->'
p263
aS'variable_28'
p264
ag135
ag74
ag9
ag9
aS'if'
p265
ag5
aS'variable_5'
p266
aS'!='
p267
aS'variable_1'
p268
aS'->'
p269
aS'variable_5'
p270
aS'||'
p271
aS'variable_6'
p272
aS'!='
p273
aS'variable_1'
p274
aS'->'
p275
aS'variable_6'
p276
aS'||'
p277
aS'memcmp'
p278
ag5
aS'variable_1'
p279
aS'->'
p280
aS'variable_9'
p281
ag12
aS'variable_9'
p282
ag12
aS'sizeof'
p283
ag5
aS'variable_9'
p284
ag9
ag9
aS'||'
p285
aS'memcmp'
p286
ag5
aS'variable_1'
p287
aS'->'
p288
aS'variable_11'
p289
ag12
aS'variable_11'
p290
ag12
aS'sizeof'
p291
ag5
aS'variable_11'
p292
ag9
ag9
ag9
aS'variable_1'
p293
aS'->'
p294
aS'variable_5'
p295
ag31
aS'variable_5'
p296
ag19
aS'variable_1'
p297
aS'->'
p298
aS'variable_6'
p299
ag31
aS'variable_6'
p300
ag19
aS'memcpy'
p301
ag5
aS'variable_1'
p302
aS'->'
p303
aS'variable_9'
p304
ag12
aS'variable_9'
p305
ag12
aS'sizeof'
p306
ag5
aS'variable_9'
p307
ag9
ag9
ag19
aS'memcpy'
p308
ag5
aS'variable_1'
p309
aS'->'
p310
aS'variable_11'
p311
ag12
aS'variable_11'
p312
ag12
aS'sizeof'
p313
ag5
aS'variable_11'
p314
ag9
ag9
ag19
aS'variable_1'
p315
aS'->'
p316
aS'variable_23'
p317
ag31
ag32
ag19
aS'variable_1'
p318
aS'->'
p319
aS'variable_31'
p320
ag31
ag32
ag19
aS'if'
p321
ag5
aS'variable_1'
p322
aS'->'
p323
aS'variable_32'
p324
aS'&&'
p325
aS'variable_1'
p326
aS'->'
p327
aS'variable_33'
p328
aS'!='
p329
ag32
aS'&&'
p330
aS'variable_1'
p331
aS'->'
p332
aS'variable_6'
p333
ag132
ag5
ag5
aS'variable_1'
p334
aS'->'
p335
aS'variable_33'
p336
ag7
aS'3'
p337
ag9
aS'/'
p338
ag205
ag9
ag9
aS'variable_1'
p339
aS'->'
p340
aS'variable_23'
p341
ag31
ag74
ag19
aS'variable_1'
p342
aS'->'
p343
aS'variable_24'
p344
ag31
aS'variable_1'
p345
aS'->'
p346
aS'variable_25'
p347
ag19
aS'variable_1'
p348
aS'->'
p349
aS'variable_34'
p350
aS'->'
p351
aS'variable_35'
p352
ag31
ag74
ag19
aS'variable_1'
p353
aS'->'
p354
aS'variable_34'
p355
aS'->'
p356
aS'variable_36'
p357
ag31
ag67
aS'variable_1'
p358
aS'->'
p359
aS'variable_25'
p360
ag19
aS'variable_8'
p361
ag31
aS'func_10'
p362
ag5
aS'variable_1'
p363
aS'->'
p364
aS'variable_15'
p365
ag12
aS'variable_5'
p366
ag12
aS'variable_6'
p367
ag9
ag19
aS'if'
p368
ag5
aS'variable_8'
p369
ag132
ag32
ag9
aS'return'
p370
aS'variable_8'
p371
ag19
aS'if'
p372
ag5
aS'variable_1'
p373
aS'->'
p374
aS'variable_31'
p375
aS'&&'
p376
aS'variable_1'
p377
aS'->'
p378
aS'variable_23'
p379
aS'&&'
p380
ag5
aS'variable_1'
p381
aS'->'
p382
aS'variable_24'
p383
aS'=='
p384
ag67
aS'variable_1'
p385
aS'->'
p386
aS'variable_25'
p387
ag9
ag9
aS'variable_7'
p388
ag31
ag5
aS'variable_1'
p389
aS'->'
p390
aS'variable_9'
p391
ag22
ag32
ag24
aS'<<'
p392
aS'28'
p393
ag9
aS'|'
p394
ag5
aS'variable_1'
p395
aS'->'
p396
aS'variable_11'
p397
ag22
ag32
ag24
aS'<<'
p398
aS'24'
p399
ag9
ag394
ag5
aS'variable_1'
p400
aS'->'
p401
aS'variable_9'
p402
ag22
ag74
ag24
aS'<<'
p403
aS'20'
p404
ag9
ag394
ag5
aS'variable_1'
p405
aS'->'
p406
aS'variable_11'
p407
ag22
ag74
ag24
aS'<<'
p408
aS'16'
p409
ag9
ag394
ag5
aS'variable_1'
p410
aS'->'
p411
aS'variable_9'
p412
ag22
aS'2'
p413
ag24
aS'<<'
p414
aS'12'
p415
ag9
ag394
ag5
aS'variable_1'
p416
aS'->'
p417
aS'variable_11'
p418
ag22
ag413
ag24
aS'<<'
p419
ag52
ag9
ag394
ag5
aS'variable_1'
p420
aS'->'
p421
aS'variable_9'
p422
ag22
ag337
ag24
aS'<<'
p423
ag205
ag9
ag394
aS'variable_1'
p424
aS'->'
p425
aS'variable_11'
p426
ag22
ag337
ag24
ag19
aS'func_11'
p427
ag5
aS'variable_1'
p428
aS'->'
p429
aS'variable_15'
p430
ag12
aS'variable_37'
p431
ag12
aS'"'
p432
aS'pix'
p433
aS'fmt'
p434
aS'id'
p435
aS'%'
p436
aS'x'
p437
aS'\\'
p438
aS'n'
p439
ag432
ag12
aS'variable_7'
p440
ag9
ag19
aS'if'
p441
ag5
ag67
ag5
aS'variable_7'
p442
ag48
aS'0xD0D0D0D0'
p443
ag9
ag9
aS'variable_7'
p444
aS'-='
p445
ag5
aS'variable_7'
p446
ag48
aS'0xF0F0F0F0'
p447
ag9
aS'>>'
p448
ag74
ag19
aS'if'
p449
ag5
ag67
ag5
aS'variable_7'
p450
ag48
aS'0x0D0D0D0D'
p451
ag9
ag9
aS'variable_7'
p452
aS'-='
p453
ag5
aS'variable_7'
p454
ag48
aS'0x0F0F0F0F'
p455
ag9
aS'>>'
p456
ag74
ag19
aS'int'
p457
aS'variable_38'
p458
ag31
ag5
aS'variable_7'
p459
aS'>>'
p460
ag5
ag205
ag7
aS'variable_4'
p461
ag9
ag9
ag48
aS'0xF'
p462
ag19
aS'int'
p463
aS'variable_39'
p464
ag31
ag5
aS'variable_7'
p465
aS'>>'
p466
ag5
ag205
ag7
aS'variable_40'
p467
ag9
ag9
ag48
aS'0xF'
p468
ag19
aS'if'
p469
ag5
aS'variable_38'
p470
aS'=='
p471
ag74
aS'&&'
p472
aS'variable_39'
p473
aS'!='
p474
ag413
aS'&&'
p475
ag5
aS'variable_4'
p476
ag132
ag413
aS'||'
p477
aS'variable_4'
p478
ag135
aS'5'
p479
ag9
ag9
aS'variable_39'
p480
ag31
ag5
aS'variable_7'
p481
aS'>>'
p482
ag5
ag52
ag113
ag205
ag7
ag5
aS'variable_4'
p483
ag48
ag74
ag9
ag9
ag9
ag48
aS'0xF'
p484
ag19
aS'if'
p485
ag5
aS'variable_38'
p486
aS'=='
p487
ag74
aS'&&'
p488
aS'variable_39'
p489
aS'!='
p490
ag413
aS'&&'
p491
ag5
aS'variable_4'
p492
ag132
ag413
aS'||'
p493
aS'variable_4'
p494
ag135
ag479
ag9
ag9
aS'variable_39'
p495
ag31
ag5
aS'variable_7'
p496
aS'>>'
p497
ag5
aS'16'
p498
ag113
ag205
ag7
ag5
aS'variable_4'
p499
ag48
ag74
ag9
ag9
ag9
ag48
aS'0xF'
p500
ag19
aS'if'
p501
ag5
aS'variable_38'
p502
aS'=='
p503
ag74
aS'&&'
p504
aS'variable_39'
p505
aS'=='
p506
ag413
ag9
aS'switch'
p507
ag5
aS'variable_7'
p508
ag9
aS'if'
p509
ag5
aS'variable_1'
p510
aS'->'
p511
aS'variable_29'
p512
ag22
ag32
ag24
aS'=='
p513
aS"'"
p514
aS'Q'
p515
ag514
aS'&&'
p516
aS'variable_1'
p517
aS'->'
p518
aS'variable_29'
p519
ag22
ag74
ag24
aS'=='
p520
ag514
aS'F'
p521
ag514
aS'&&'
p522
aS'variable_1'
p523
aS'->'
p524
aS'variable_29'
p525
ag22
ag413
ag24
aS'=='
p526
ag514
aS'A'
p527
ag514
ag9
aS'if'
p528
ag5
aS'variable_7'
p529
aS'=='
p530
aS'0x42111100'
p531
ag9
aS'func_12'
p532
ag5
aS'variable_1'
p533
aS'->'
p534
aS'variable_15'
p535
ag12
aS'variable_41'
p536
ag12
ag432
aS'Unhandled'
p537
aS'pixel'
p538
aS'format'
p539
aS'0x'
p540
ag436
ag437
ag438
ag439
ag432
ag12
aS'variable_7'
p541
ag9
ag19
aS'variable_1'
p542
aS'->'
p543
aS'variable_42'
p544
ag22
aS'variable_4'
p545
ag24
ag31
aS'variable_1'
p546
aS'->'
p547
aS'variable_34'
p548
aS'->'
p549
aS'variable_42'
p550
ag22
aS'variable_4'
p551
ag24
aS'<<'
p552
aS'variable_1'
p553
aS'->'
p554
aS'variable_23'
p555
ag19
aS'func_13'
p556
ag5
aS'variable_1'
p557
aS'->'
p558
aS'variable_15'
p559
ag12
ag432
ag436
aS'd'
p560
ag436
ag560
ag436
ag560
ag436
ag560
ag436
ag560
ag436
ag560
ag438
ag439
ag432
ag12
aS'variable_1'
p561
aS'->'
p562
aS'variable_5'
p563
ag12
aS'variable_1'
p564
aS'->'
p565
aS'variable_6'
p566
ag12
aS'variable_1'
p567
aS'->'
p568
aS'variable_42'
p569
ag22
ag32
ag24
ag12
aS'variable_1'
p570
aS'->'
p571
aS'variable_42'
p572
ag22
ag74
ag24
ag12
aS'variable_1'
p573
aS'->'
p574
aS'variable_23'
p575
ag12
aS'variable_1'
p576
aS'->'
p577
aS'variable_15'
p578
aS'->'
p579
aS'variable_6'
p580
ag9
ag19
aS'func_14'
p581
ag5
aS'variable_1'
p582
aS'->'
p583
aS'variable_15'
p584
ag12
aS'variable_37'
p585
ag12
ag432
aS'decode_sof0'
p586
aS':'
p587
aS'error'
p588
ag12
aS'len'
p589
ag5
ag436
ag560
ag9
aS'mismatch'
p590
ag438
ag439
ag432
ag12
aS'variable_2'
p591
ag9
ag19
aS'if'
p592
ag5
aS'variable_1'
p593
aS'->'
p594
aS'variable_43'
p595
aS'&&'
p596
ag67
aS'variable_1'
p597
aS'->'
p598
aS'variable_21'
p599
aS'&&'
p600
ag67
aS'variable_1'
p601
aS'->'
p602
aS'variable_26'
p603
ag9
aS'func_15'
p604
ag5
aS'variable_1'
p605
aS'->'
p606
aS'variable_15'
p607
ag12
aS'variable_41'
p608
ag12
ag432
aS'Unsupported'
p609
aS'coding'
p610
aS'and'
p611
aS'pixel'
p612
aS'format'
p613
aS'combination'
p614
ag438
ag439
ag432
ag9
ag19
aS'if'
p615
ag5
aS'variable_1'
p616
aS'->'
p617
aS'variable_44'
p618
ag9
aS'int'
p619
aS'variable_45'
p620
ag31
ag5
aS'variable_5'
p621
ag113
aS'variable_1'
p622
aS'->'
p623
aS'variable_27'
p624
ag7
ag52
ag198
ag74
ag9
ag338
ag5
aS'variable_1'
p625
aS'->'
p626
aS'variable_27'
p627
ag7
ag52
ag9
ag19
aS'int'
p628
aS'variable_46'
p629
ag31
ag5
aS'variable_6'
p630
ag113
aS'variable_1'
p631
aS'->'
p632
aS'variable_28'
p633
ag7
ag52
ag198
ag74
ag9
ag338
ag5
aS'variable_1'
p634
aS'->'
p635
aS'variable_28'
p636
ag7
ag52
ag9
ag19
aS'for'
p637
ag5
aS'variable_4'
p638
ag31
ag32
ag19
aS'variable_4'
p639
ag132
aS'variable_1'
p640
aS'->'
p641
aS'variable_3'
p642
ag19
aS'variable_4'
p643
aS'++'
p644
ag9
aS'int'
p645
aS'variable_47'
p646
ag31
aS'variable_45'
p647
ag7
aS'variable_46'
p648
ag7
aS'variable_1'
p649
aS'->'
p650
aS'variable_9'
p651
ag22
aS'variable_4'
p652
ag24
ag7
aS'variable_1'
p653
aS'->'
p654
aS'variable_11'
p655
ag22
aS'variable_4'
p656
ag24
ag19
aS'func_16'
p657
ag5
ag48
aS'variable_1'
p658
aS'->'
p659
aS'variable_48'
p660
ag22
aS'variable_4'
p661
ag24
ag9
ag19
aS'func_17'
p662
ag5
ag48
aS'variable_1'
p663
aS'->'
p664
aS'variable_49'
p665
ag22
aS'variable_4'
p666
ag24
ag9
ag19
aS'variable_1'
p667
aS'->'
p668
aS'variable_48'
p669
ag22
aS'variable_4'
p670
ag24
ag31
aS'func_18'
p671
ag5
aS'variable_47'
p672
ag12
aS'sizeof'
p673
ag5
ag7
ag7
aS'variable_1'
p674
aS'->'
p675
aS'variable_48'
p676
ag9
ag9
ag19
aS'variable_1'
p677
aS'->'
p678
aS'variable_49'
p679
ag22
aS'variable_4'
p680
ag24
ag31
aS'func_19'
p681
ag5
aS'variable_47'
p682
ag12
aS'sizeof'
p683
ag5
ag7
ag7
aS'variable_1'
p684
aS'->'
p685
aS'variable_49'
p686
ag9
ag9
ag19
aS'if'
p687
ag5
ag67
aS'variable_1'
p688
aS'->'
p689
aS'variable_48'
p690
ag22
aS'variable_4'
p691
ag24
aS'||'
p692
ag67
aS'variable_1'
p693
aS'->'
p694
aS'variable_49'
p695
ag22
aS'variable_4'
p696
ag24
ag9
aS'variable_1'
p697
aS'->'
p698
aS'variable_50'
p699
ag22
aS'variable_4'
p700
ag24
ag31
aS'variable_45'
p701
ag7
aS'variable_1'
p702
aS'->'
p703
aS'variable_9'
p704
ag22
aS'variable_4'
p705
ag24
ag19
aS'memset'
p706
ag5
aS'variable_1'
p707
aS'->'
p708
aS'variable_51'
p709
ag12
ag32
ag12
aS'sizeof'
p710
ag5
aS'variable_1'
p711
aS'->'
p712
aS'variable_51'
p713
ag9
ag9
ag19
aaa(lp714
I1
aa(lp715
I518
aa(lp716
(lp717
S'main'
p718
aaa(lp719
S'584 /home/SySeVR/data/CVE_2014_8541_VULN_ff_mjpeg_decode_sof.c memcpy 102'
p720
aa.