(lp0
(lp1
(lp2
S'int'
p3
aS'func_0'
p4
aS'('
p5
aS'variable_0'
p6
aS'*'
p7
aS'variable_1'
p8
aS')'
p9
aS'int'
p10
aS'variable_2'
p11
aS','
p12
aS'variable_3'
p13
ag12
aS'variable_4'
p14
ag12
aS'variable_5'
p15
ag12
aS'variable_6'
p16
ag12
aS'variable_7'
p17
ag12
aS'variable_8'
p18
aS';'
p19
aS'int'
p20
aS'variable_9'
p21
aS'['
p22
aS'variable_10'
p23
aS']'
p24
ag19
aS'int'
p25
aS'variable_11'
p26
ag22
aS'variable_10'
p27
ag24
ag19
aS'variable_1'
p28
aS'->'
p29
aS'variable_12'
p30
aS'='
p31
aS'0'
p32
ag19
aS'variable_1'
p33
aS'->'
p34
aS'variable_13'
p35
ag31
aS'variable_1'
p36
aS'->'
p37
aS'variable_14'
p38
ag31
ag32
ag19
aS'variable_1'
p39
aS'->'
p40
aS'variable_15'
p41
aS'->'
p42
aS'variable_16'
p43
ag31
aS'variable_1'
p44
aS'->'
p45
aS'variable_17'
p46
ag31
aS'func_1'
p47
ag5
aS'&'
p48
aS'variable_1'
p49
aS'->'
p50
aS'variable_18'
p51
ag12
aS'8'
p52
ag9
ag19
aS'if'
p53
ag5
aS'variable_1'
p54
aS'->'
p55
aS'variable_19'
p56
ag9
aS'variable_1'
p57
aS'->'
p58
aS'variable_17'
p59
ag31
aS'9'
p60
ag19
aS'if'
p61
ag5
aS'variable_1'
p62
aS'->'
p63
aS'variable_17'
p64
aS'=='
p65
ag60
aS'&&'
p66
aS'!'
p67
aS'variable_1'
p68
aS'->'
p69
aS'variable_19'
p70
ag9
aS'variable_1'
p71
aS'->'
p72
aS'variable_20'
p73
ag31
aS'1'
p74
ag19
aS'if'
p75
ag5
aS'variable_1'
p76
aS'->'
p77
aS'variable_21'
p78
aS'&&'
p79
aS'variable_1'
p80
aS'->'
p81
aS'variable_15'
p82
aS'->'
p83
aS'variable_22'
p84
ag9
aS'variable_6'
p85
ag31
aS'func_2'
p86
ag5
ag48
aS'variable_1'
p87
aS'->'
p88
aS'variable_18'
p89
ag12
aS'16'
p90
ag9
ag19
aS'variable_5'
p91
ag31
aS'func_3'
p92
ag5
ag48
aS'variable_1'
p93
aS'->'
p94
aS'variable_18'
p95
ag12
aS'16'
p96
ag9
ag19
aS'if'
p97
ag5
aS'variable_1'
p98
aS'->'
p99
aS'variable_23'
p100
aS'&&'
p101
aS'variable_1'
p102
aS'->'
p103
aS'variable_5'
p104
aS'=='
p105
aS'variable_5'
p106
aS'&&'
p107
aS'variable_1'
p108
aS'->'
p109
aS'variable_6'
p110
aS'=='
p111
aS'variable_6'
p112
aS'+'
p113
ag74
ag9
aS'variable_6'
p114
ag31
aS'variable_1'
p115
aS'->'
p116
aS'variable_6'
p117
ag19
aS'if'
p118
ag5
aS'func_4'
p119
ag5
aS'variable_5'
p120
ag12
aS'variable_6'
p121
ag12
ag32
ag12
aS'variable_1'
p122
aS'->'
p123
aS'variable_15'
p124
ag9
ag9
aS'variable_3'
p125
ag31
aS'func_5'
p126
ag5
ag48
aS'variable_1'
p127
aS'->'
p128
aS'variable_18'
p129
ag12
ag52
ag9
ag19
aS'if'
p130
ag5
aS'variable_3'
p131
aS'<'
p132
ag31
ag32
aS'||'
p133
aS'variable_3'
p134
aS'>'
p135
aS'variable_10'
p136
ag9
aS'if'
p137
ag5
aS'variable_1'
p138
aS'->'
p139
aS'variable_23'
p140
aS'&&'
p141
ag5
aS'variable_1'
p142
aS'->'
p143
aS'variable_24'
p144
aS'=='
p145
ag67
aS'variable_1'
p146
aS'->'
p147
aS'variable_25'
p148
ag9
ag9
aS'if'
p149
ag5
aS'variable_3'
p150
aS'!='
p151
aS'variable_1'
p152
aS'->'
p153
aS'variable_3'
p154
ag9
aS'if'
p155
ag5
aS'variable_1'
p156
aS'->'
p157
aS'variable_26'
p158
aS'&&'
p159
ag67
ag5
aS'variable_1'
p160
aS'->'
p161
aS'variable_17'
p162
ag132
ag31
ag52
aS'||'
p163
aS'variable_3'
p164
aS'=='
p165
ag74
ag9
ag9
aS'variable_1'
p166
aS'->'
p167
aS'variable_3'
p168
ag31
aS'variable_3'
p169
ag19
aS'variable_1'
p170
aS'->'
p171
aS'variable_27'
p172
ag31
ag74
ag19
aS'variable_1'
p173
aS'->'
p174
aS'variable_28'
p175
ag31
ag74
ag19
aS'memset'
p176
ag5
aS'variable_9'
p177
ag12
ag32
ag12
aS'sizeof'
p178
ag5
aS'variable_9'
p179
ag9
ag9
ag19
aS'memset'
p180
ag5
aS'variable_11'
p181
ag12
ag32
ag12
aS'sizeof'
p182
ag5
aS'variable_11'
p183
ag9
ag9
ag19
aS'for'
p184
ag5
aS'variable_4'
p185
ag31
ag32
ag19
aS'variable_4'
p186
ag132
aS'variable_3'
p187
ag19
aS'variable_4'
p188
aS'++'
p189
ag9
aS'variable_1'
p190
aS'->'
p191
aS'variable_29'
p192
ag22
aS'variable_4'
p193
ag24
ag31
aS'func_6'
p194
ag5
ag48
aS'variable_1'
p195
aS'->'
p196
aS'variable_18'
p197
ag12
ag52
ag9
aS'-'
p198
ag74
ag19
aS'variable_9'
p199
ag22
aS'variable_4'
p200
ag24
ag31
aS'func_7'
p201
ag5
ag48
aS'variable_1'
p202
aS'->'
p203
aS'variable_18'
p204
ag12
aS'4'
p205
ag9
ag19
aS'variable_11'
p206
ag22
aS'variable_4'
p207
ag24
ag31
aS'func_8'
p208
ag5
ag48
aS'variable_1'
p209
aS'->'
p210
aS'variable_18'
p211
ag12
ag205
ag9
ag19
aS'if'
p212
ag5
aS'variable_9'
p213
ag22
aS'variable_4'
p214
ag24
ag135
aS'variable_1'
p215
aS'->'
p216
aS'variable_27'
p217
ag9
aS'variable_1'
p218
aS'->'
p219
aS'variable_27'
p220
ag31
aS'variable_9'
p221
ag22
aS'variable_4'
p222
ag24
ag19
aS'if'
p223
ag5
aS'variable_11'
p224
ag22
aS'variable_4'
p225
ag24
ag135
aS'variable_1'
p226
aS'->'
p227
aS'variable_28'
p228
ag9
aS'variable_1'
p229
aS'->'
p230
aS'variable_28'
p231
ag31
aS'variable_11'
p232
ag22
aS'variable_4'
p233
ag24
ag19
aS'variable_1'
p234
aS'->'
p235
aS'variable_30'
p236
ag22
aS'variable_4'
p237
ag24
ag31
aS'func_9'
p238
ag5
ag48
aS'variable_1'
p239
aS'->'
p240
aS'variable_18'
p241
ag12
ag52
ag9
ag19
aS'if'
p242
ag5
aS'variable_1'
p243
aS'->'
p244
aS'variable_30'
p245
ag22
aS'variable_4'
p246
ag24
ag135
ag31
ag205
ag9
aS'if'
p247
ag5
ag67
aS'variable_9'
p248
ag22
aS'variable_4'
p249
ag24
aS'||'
p250
ag67
aS'variable_11'
p251
ag22
aS'variable_4'
p252
ag24
ag9
aS'if'
p253
ag5
aS'variable_1'
p254
aS'->'
p255
aS'variable_26'
p256
aS'&&'
p257
ag5
aS'variable_1'
p258
aS'->'
p259
aS'variable_27'
p260
ag135
ag74
aS'||'
p261
aS'variable_1'
p262
aS'->'
p263
aS'variable_28'
p264
ag135
ag74
ag9
ag9
aS'if'
p265
ag5
aS'variable_5'
p266
aS'!='
p267
aS'variable_1'
p268
aS'->'
p269
aS'variable_5'
p270
aS'||'
p271
aS'variable_6'
p272
aS'!='
p273
aS'variable_1'
p274
aS'->'
p275
aS'variable_6'
p276
aS'||'
p277
aS'memcmp'
p278
ag5
aS'variable_1'
p279
aS'->'
p280
aS'variable_9'
p281
ag12
aS'variable_9'
p282
ag12
aS'sizeof'
p283
ag5
aS'variable_9'
p284
ag9
ag9
aS'||'
p285
aS'memcmp'
p286
ag5
aS'variable_1'
p287
aS'->'
p288
aS'variable_11'
p289
ag12
aS'variable_11'
p290
ag12
aS'sizeof'
p291
ag5
aS'variable_11'
p292
ag9
ag9
ag9
aS'variable_1'
p293
aS'->'
p294
aS'variable_5'
p295
ag31
aS'variable_5'
p296
ag19
aS'variable_1'
p297
aS'->'
p298
aS'variable_6'
p299
ag31
aS'variable_6'
p300
ag19
aS'memcpy'
p301
ag5
aS'variable_1'
p302
aS'->'
p303
aS'variable_9'
p304
ag12
aS'variable_9'
p305
ag12
aS'sizeof'
p306
ag5
aS'variable_9'
p307
ag9
ag9
ag19
aS'memcpy'
p308
ag5
aS'variable_1'
p309
aS'->'
p310
aS'variable_11'
p311
ag12
aS'variable_11'
p312
ag12
aS'sizeof'
p313
ag5
aS'variable_11'
p314
ag9
ag9
ag19
aS'variable_1'
p315
aS'->'
p316
aS'variable_23'
p317
ag31
ag32
ag19
aS'variable_1'
p318
aS'->'
p319
aS'variable_31'
p320
ag31
ag32
ag19
aS'if'
p321
ag5
aS'variable_1'
p322
aS'->'
p323
aS'variable_32'
p324
aS'&&'
p325
aS'variable_1'
p326
aS'->'
p327
aS'variable_33'
p328
aS'!='
p329
ag32
aS'&&'
p330
aS'variable_1'
p331
aS'->'
p332
aS'variable_6'
p333
ag132
ag5
ag5
aS'variable_1'
p334
aS'->'
p335
aS'variable_33'
p336
ag7
aS'3'
p337
ag9
aS'/'
p338
ag205
ag9
ag9
aS'variable_1'
p339
aS'->'
p340
aS'variable_23'
p341
ag31
ag74
ag19
aS'variable_1'
p342
aS'->'
p343
aS'variable_24'
p344
ag31
aS'variable_1'
p345
aS'->'
p346
aS'variable_25'
p347
ag19
aS'variable_1'
p348
aS'->'
p349
aS'variable_34'
p350
aS'->'
p351
aS'variable_35'
p352
ag31
ag74
ag19
aS'variable_1'
p353
aS'->'
p354
aS'variable_34'
p355
aS'->'
p356
aS'variable_36'
p357
ag31
ag67
aS'variable_1'
p358
aS'->'
p359
aS'variable_25'
p360
ag19
aS'variable_6'
p361
ag7
ag31
aS'2'
p362
ag19
aS'variable_8'
p363
ag31
aS'func_10'
p364
ag5
aS'variable_1'
p365
aS'->'
p366
aS'variable_15'
p367
ag12
aS'variable_5'
p368
ag12
aS'variable_6'
p369
ag9
ag19
aS'if'
p370
ag5
aS'variable_8'
p371
ag132
ag32
ag9
aS'variable_1'
p372
aS'->'
p373
aS'variable_32'
p374
ag31
ag32
ag19
aS'if'
p375
ag5
aS'variable_1'
p376
aS'->'
p377
aS'variable_31'
p378
aS'&&'
p379
aS'variable_1'
p380
aS'->'
p381
aS'variable_23'
p382
aS'&&'
p383
ag5
aS'variable_1'
p384
aS'->'
p385
aS'variable_24'
p386
aS'=='
p387
ag67
aS'variable_1'
p388
aS'->'
p389
aS'variable_25'
p390
ag9
ag9
aS'if'
p391
ag5
aS'variable_1'
p392
aS'->'
p393
aS'variable_37'
p394
ag9
aS'if'
p395
ag5
aS'variable_1'
p396
aS'->'
p397
aS'variable_28'
p398
aS'=='
p399
ag74
aS'&&'
p400
aS'variable_1'
p401
aS'->'
p402
aS'variable_27'
p403
aS'=='
p404
ag74
aS'&&'
p405
aS'variable_1'
p406
aS'->'
p407
aS'variable_21'
p408
aS'=='
p409
ag74
aS'&&'
p410
ag5
aS'variable_3'
p411
aS'=='
p412
ag337
aS'||'
p413
aS'variable_3'
p414
aS'=='
p415
ag205
ag9
ag9
aS'variable_1'
p416
aS'->'
p417
aS'variable_38'
p418
ag31
ag74
ag19
aS'if'
p419
ag5
ag67
aS'variable_1'
p420
aS'->'
p421
aS'variable_21'
p422
ag9
aS'variable_1'
p423
aS'->'
p424
aS'variable_38'
p425
ag31
ag32
ag19
aS'variable_7'
p426
ag31
ag5
aS'variable_1'
p427
aS'->'
p428
aS'variable_9'
p429
ag22
ag32
ag24
aS'<<'
p430
aS'28'
p431
ag9
aS'|'
p432
ag5
aS'variable_1'
p433
aS'->'
p434
aS'variable_11'
p435
ag22
ag32
ag24
aS'<<'
p436
aS'24'
p437
ag9
ag432
ag5
aS'variable_1'
p438
aS'->'
p439
aS'variable_9'
p440
ag22
ag74
ag24
aS'<<'
p441
aS'20'
p442
ag9
ag432
ag5
aS'variable_1'
p443
aS'->'
p444
aS'variable_11'
p445
ag22
ag74
ag24
aS'<<'
p446
aS'16'
p447
ag9
ag432
ag5
aS'variable_1'
p448
aS'->'
p449
aS'variable_9'
p450
ag22
ag362
ag24
aS'<<'
p451
aS'12'
p452
ag9
ag432
ag5
aS'variable_1'
p453
aS'->'
p454
aS'variable_11'
p455
ag22
ag362
ag24
aS'<<'
p456
ag52
ag9
ag432
ag5
aS'variable_1'
p457
aS'->'
p458
aS'variable_9'
p459
ag22
ag337
ag24
aS'<<'
p460
ag205
ag9
ag432
aS'variable_1'
p461
aS'->'
p462
aS'variable_11'
p463
ag22
ag337
ag24
ag19
aS'if'
p464
ag5
ag67
ag5
aS'variable_7'
p465
ag48
aS'0xD0D0D0D0'
p466
ag9
ag9
aS'variable_7'
p467
aS'-='
p468
ag5
aS'variable_7'
p469
ag48
aS'0xF0F0F0F0'
p470
ag9
aS'>>'
p471
ag74
ag19
aS'if'
p472
ag5
ag67
ag5
aS'variable_7'
p473
ag48
aS'0x0D0D0D0D'
p474
ag9
ag9
aS'variable_7'
p475
aS'-='
p476
ag5
aS'variable_7'
p477
ag48
aS'0x0F0F0F0F'
p478
ag9
aS'>>'
p479
ag74
ag19
aS'for'
p480
ag5
aS'variable_4'
p481
ag31
ag32
ag19
aS'variable_4'
p482
ag132
ag52
ag19
aS'variable_4'
p483
aS'++'
p484
ag9
aS'int'
p485
aS'variable_39'
p486
ag31
aS'6'
p487
ag113
ag5
aS'variable_4'
p488
ag48
ag74
ag9
ag198
ag5
aS'variable_4'
p489
ag48
ag487
ag9
ag19
aS'int'
p490
aS'variable_40'
p491
ag31
ag5
aS'variable_7'
p492
aS'>>'
p493
ag5
ag205
ag7
aS'variable_4'
p494
ag9
ag9
ag48
aS'0xF'
p495
ag19
aS'int'
p496
aS'variable_41'
p497
ag31
ag5
aS'variable_7'
p498
aS'>>'
p499
ag5
ag205
ag7
aS'variable_39'
p500
ag9
ag9
ag48
aS'0xF'
p501
ag19
aS'if'
p502
ag5
aS'variable_40'
p503
aS'=='
p504
ag74
aS'&&'
p505
aS'variable_41'
p506
aS'!='
p507
ag362
aS'&&'
p508
ag5
aS'variable_4'
p509
ag132
ag362
aS'||'
p510
aS'variable_4'
p511
ag135
aS'5'
p512
ag9
ag9
aS'variable_41'
p513
ag31
ag5
aS'variable_7'
p514
aS'>>'
p515
ag5
ag52
ag113
ag205
ag7
ag5
aS'variable_4'
p516
ag48
ag74
ag9
ag9
ag9
ag48
aS'0xF'
p517
ag19
aS'if'
p518
ag5
aS'variable_40'
p519
aS'=='
p520
ag74
aS'&&'
p521
aS'variable_41'
p522
aS'!='
p523
ag362
aS'&&'
p524
ag5
aS'variable_4'
p525
ag132
ag362
aS'||'
p526
aS'variable_4'
p527
ag135
ag512
ag9
ag9
aS'variable_41'
p528
ag31
ag5
aS'variable_7'
p529
aS'>>'
p530
ag5
aS'16'
p531
ag113
ag205
ag7
ag5
aS'variable_4'
p532
ag48
ag74
ag9
ag9
ag9
ag48
aS'0xF'
p533
ag19
aS'if'
p534
ag5
aS'variable_40'
p535
aS'=='
p536
ag74
aS'&&'
p537
aS'variable_41'
p538
aS'=='
p539
ag362
ag9
aS'if'
p540
ag5
aS'variable_4'
p541
ag48
ag74
ag9
aS'variable_1'
p542
aS'->'
p543
aS'variable_13'
p544
ag432
ag31
ag74
aS'<<'
p545
ag5
aS'variable_39'
p546
ag338
ag362
ag9
ag19
aS'variable_1'
p547
aS'->'
p548
aS'variable_14'
p549
ag432
ag31
ag74
aS'<<'
p550
ag5
aS'variable_39'
p551
ag338
ag362
ag9
ag19
aS'switch'
p552
ag5
aS'variable_7'
p553
ag9
aS'if'
p554
ag5
aS'variable_1'
p555
aS'->'
p556
aS'variable_38'
p557
ag9
aS'variable_1'
p558
aS'->'
p559
aS'variable_15'
p560
aS'->'
p561
aS'variable_42'
p562
ag31
aS'variable_1'
p563
aS'->'
p564
aS'variable_17'
p565
ag132
ag31
ag60
aS'?'
p566
aS'variable_43'
p567
aS':'
p568
aS'variable_44'
p569
ag19
aS'if'
p570
ag5
aS'variable_1'
p571
aS'->'
p572
aS'variable_29'
p573
ag22
ag32
ag24
aS'=='
p574
aS"'"
p575
aS'Q'
p576
ag575
aS'&&'
p577
aS'variable_1'
p578
aS'->'
p579
aS'variable_29'
p580
ag22
ag74
ag24
aS'=='
p581
ag575
aS'F'
p582
ag575
aS'&&'
p583
aS'variable_1'
p584
aS'->'
p585
aS'variable_29'
p586
ag22
ag362
ag24
aS'=='
p587
ag575
aS'A'
p588
ag575
ag9
aS'variable_1'
p589
aS'->'
p590
aS'variable_15'
p591
aS'->'
p592
aS'variable_42'
p593
ag31
aS'variable_1'
p594
aS'->'
p595
aS'variable_17'
p596
ag132
ag31
ag52
ag566
aS'variable_45'
p597
ag568
aS'variable_46'
p598
ag19
aS'if'
p599
ag5
aS'variable_1'
p600
aS'->'
p601
aS'variable_17'
p602
ag132
ag31
ag52
ag9
aS'variable_1'
p603
aS'->'
p604
aS'variable_15'
p605
aS'->'
p606
aS'variable_42'
p607
ag31
aS'variable_1'
p608
aS'->'
p609
aS'variable_47'
p610
ag566
aS'variable_48'
p611
ag568
aS'variable_49'
p612
ag19
aS'variable_1'
p613
aS'->'
p614
aS'variable_15'
p615
aS'->'
p616
aS'variable_42'
p617
ag31
aS'variable_50'
p618
ag19
aS'variable_1'
p619
aS'->'
p620
aS'variable_15'
p621
aS'->'
p622
aS'variable_51'
p623
ag31
aS'variable_1'
p624
aS'->'
p625
aS'variable_47'
p626
ag566
aS'variable_52'
p627
ag568
aS'variable_53'
p628
ag19
aS'if'
p629
ag5
aS'variable_1'
p630
aS'->'
p631
aS'variable_38'
p632
ag9
aS'variable_1'
p633
aS'->'
p634
aS'variable_15'
p635
aS'->'
p636
aS'variable_42'
p637
ag31
aS'variable_1'
p638
aS'->'
p639
aS'variable_17'
p640
ag132
ag31
ag60
ag566
aS'variable_54'
p641
ag568
aS'variable_55'
p642
ag19
aS'if'
p643
ag5
aS'variable_1'
p644
aS'->'
p645
aS'variable_56'
p646
aS'=='
p647
ag32
aS'&&'
p648
aS'variable_1'
p649
aS'->'
p650
aS'variable_17'
p651
ag132
ag31
ag52
ag9
aS'variable_1'
p652
aS'->'
p653
aS'variable_15'
p654
aS'->'
p655
aS'variable_42'
p656
ag31
aS'variable_57'
p657
ag19
aS'variable_1'
p658
aS'->'
p659
aS'variable_15'
p660
aS'->'
p661
aS'variable_42'
p662
ag31
aS'variable_1'
p663
aS'->'
p664
aS'variable_17'
p665
ag132
ag31
ag52
ag566
aS'variable_58'
p666
ag568
aS'variable_59'
p667
ag19
aS'variable_1'
p668
aS'->'
p669
aS'variable_15'
p670
aS'->'
p671
aS'variable_51'
p672
ag31
aS'variable_1'
p673
aS'->'
p674
aS'variable_47'
p675
ag566
aS'variable_52'
p676
ag568
aS'variable_53'
p677
ag19
aS'if'
p678
ag5
aS'variable_1'
p679
aS'->'
p680
aS'variable_56'
p681
aS'=='
p682
ag32
aS'&&'
p683
aS'variable_1'
p684
aS'->'
p685
aS'variable_17'
p686
ag132
ag31
ag52
ag9
aS'variable_1'
p687
aS'->'
p688
aS'variable_15'
p689
aS'->'
p690
aS'variable_42'
p691
ag31
aS'variable_57'
p692
ag19
aS'variable_1'
p693
aS'->'
p694
aS'variable_14'
p695
ag31
ag487
ag19
aS'variable_1'
p696
aS'->'
p697
aS'variable_13'
p698
ag31
ag487
ag19
aS'variable_1'
p699
aS'->'
p700
aS'variable_60'
p701
ag31
aS'variable_1'
p702
aS'->'
p703
aS'variable_6'
p704
ag19
aS'if'
p705
ag5
aS'variable_1'
p706
aS'->'
p707
aS'variable_56'
p708
aS'=='
p709
ag362
aS'&&'
p710
aS'variable_1'
p711
aS'->'
p712
aS'variable_17'
p713
ag132
ag31
ag52
ag9
aS'variable_1'
p714
aS'->'
p715
aS'variable_15'
p716
aS'->'
p717
aS'variable_42'
p718
ag31
aS'variable_58'
p719
ag19
aS'variable_1'
p720
aS'->'
p721
aS'variable_14'
p722
ag31
ag487
ag19
aS'variable_1'
p723
aS'->'
p724
aS'variable_13'
p725
ag31
ag487
ag19
aS'variable_1'
p726
aS'->'
p727
aS'variable_60'
p728
ag31
aS'variable_1'
p729
aS'->'
p730
aS'variable_6'
p731
ag19
aS'variable_1'
p732
aS'->'
p733
aS'variable_15'
p734
aS'->'
p735
aS'variable_51'
p736
ag31
aS'variable_1'
p737
aS'->'
p738
aS'variable_47'
p739
ag566
aS'variable_52'
p740
ag568
aS'variable_53'
p741
ag19
aS'if'
p742
ag5
aS'variable_1'
p743
aS'->'
p744
aS'variable_17'
p745
ag132
ag31
ag52
ag9
aS'variable_1'
p746
aS'->'
p747
aS'variable_15'
p748
aS'->'
p749
aS'variable_42'
p750
ag31
aS'variable_61'
p751
ag19
aS'variable_1'
p752
aS'->'
p753
aS'variable_15'
p754
aS'->'
p755
aS'variable_42'
p756
ag31
aS'variable_62'
p757
ag19
aS'variable_1'
p758
aS'->'
p759
aS'variable_15'
p760
aS'->'
p761
aS'variable_51'
p762
ag31
aS'variable_1'
p763
aS'->'
p764
aS'variable_47'
p765
ag566
aS'variable_52'
p766
ag568
aS'variable_53'
p767
ag19
aS'if'
p768
ag5
aS'variable_1'
p769
aS'->'
p770
aS'variable_17'
p771
ag132
ag31
ag52
ag9
aS'variable_1'
p772
aS'->'
p773
aS'variable_15'
p774
aS'->'
p775
aS'variable_42'
p776
ag31
aS'variable_1'
p777
aS'->'
p778
aS'variable_47'
p779
ag566
aS'variable_48'
p780
ag568
aS'variable_49'
p781
ag19
aS'variable_1'
p782
aS'->'
p783
aS'variable_15'
p784
aS'->'
p785
aS'variable_51'
p786
ag31
aS'variable_1'
p787
aS'->'
p788
aS'variable_47'
p789
ag566
aS'variable_52'
p790
ag568
aS'variable_53'
p791
ag19
aS'variable_1'
p792
aS'->'
p793
aS'variable_60'
p794
ag31
aS'variable_1'
p795
aS'->'
p796
aS'variable_6'
p797
ag19
aS'if'
p798
ag5
aS'variable_1'
p799
aS'->'
p800
aS'variable_17'
p801
ag132
ag31
ag52
ag9
aS'variable_1'
p802
aS'->'
p803
aS'variable_15'
p804
aS'->'
p805
aS'variable_42'
p806
ag31
aS'variable_1'
p807
aS'->'
p808
aS'variable_47'
p809
ag566
aS'variable_48'
p810
ag568
aS'variable_49'
p811
ag19
aS'variable_1'
p812
aS'->'
p813
aS'variable_15'
p814
aS'->'
p815
aS'variable_51'
p816
ag31
aS'variable_1'
p817
aS'->'
p818
aS'variable_47'
p819
ag566
aS'variable_52'
p820
ag568
aS'variable_53'
p821
ag19
aS'variable_1'
p822
aS'->'
p823
aS'variable_60'
p824
ag31
ag5
aS'variable_1'
p825
aS'->'
p826
aS'variable_6'
p827
ag113
ag74
ag9
ag338
ag362
ag19
aS'if'
p828
ag5
aS'variable_1'
p829
aS'->'
p830
aS'variable_17'
p831
ag132
ag31
ag52
ag9
aS'variable_1'
p832
aS'->'
p833
aS'variable_15'
p834
aS'->'
p835
aS'variable_42'
p836
ag31
aS'variable_63'
p837
ag19
aS'variable_1'
p838
aS'->'
p839
aS'variable_15'
p840
aS'->'
p841
aS'variable_42'
p842
ag31
aS'variable_64'
p843
ag19
aS'if'
p844
ag5
aS'variable_1'
p845
aS'->'
p846
aS'variable_17'
p847
ag132
ag31
ag52
ag9
aS'variable_1'
p848
aS'->'
p849
aS'variable_15'
p850
aS'->'
p851
aS'variable_42'
p852
ag31
aS'variable_1'
p853
aS'->'
p854
aS'variable_47'
p855
ag566
aS'variable_65'
p856
ag568
aS'variable_66'
p857
ag19
aS'variable_1'
p858
aS'->'
p859
aS'variable_15'
p860
aS'->'
p861
aS'variable_51'
p862
ag31
aS'variable_1'
p863
aS'->'
p864
aS'variable_47'
p865
ag566
aS'variable_52'
p866
ag568
aS'variable_53'
p867
ag19
aS'variable_1'
p868
aS'->'
p869
aS'variable_60'
p870
ag31
ag5
aS'variable_1'
p871
aS'->'
p872
aS'variable_6'
p873
ag113
ag74
ag9
ag338
ag362
ag19
aS'if'
p874
ag5
aS'variable_1'
p875
aS'->'
p876
aS'variable_17'
p877
ag132
ag31
ag52
ag9
aS'variable_1'
p878
aS'->'
p879
aS'variable_15'
p880
aS'->'
p881
aS'variable_42'
p882
ag31
aS'variable_1'
p883
aS'->'
p884
aS'variable_47'
p885
ag566
aS'variable_67'
p886
ag568
aS'variable_68'
p887
ag19
aS'variable_1'
p888
aS'->'
p889
aS'variable_15'
p890
aS'->'
p891
aS'variable_42'
p892
ag31
aS'variable_69'
p893
ag19
aS'variable_1'
p894
aS'->'
p895
aS'variable_15'
p896
aS'->'
p897
aS'variable_51'
p898
ag31
aS'variable_1'
p899
aS'->'
p900
aS'variable_47'
p901
ag566
aS'variable_52'
p902
ag568
aS'variable_53'
p903
ag19
aS'if'
p904
ag5
aS'variable_1'
p905
aS'->'
p906
aS'variable_17'
p907
ag132
ag31
ag52
ag9
aS'variable_1'
p908
aS'->'
p909
aS'variable_15'
p910
aS'->'
p911
aS'variable_42'
p912
ag31
aS'variable_1'
p913
aS'->'
p914
aS'variable_47'
p915
ag566
aS'variable_67'
p916
ag568
aS'variable_68'
p917
ag19
aS'variable_1'
p918
aS'->'
p919
aS'variable_15'
p920
aS'->'
p921
aS'variable_51'
p922
ag31
aS'variable_1'
p923
aS'->'
p924
aS'variable_47'
p925
ag566
aS'variable_52'
p926
ag568
aS'variable_53'
p927
ag19
aS'if'
p928
ag5
aS'variable_1'
p929
aS'->'
p930
aS'variable_17'
p931
ag132
ag31
ag52
ag9
aS'variable_1'
p932
aS'->'
p933
aS'variable_15'
p934
aS'->'
p935
aS'variable_42'
p936
ag31
aS'variable_1'
p937
aS'->'
p938
aS'variable_47'
p939
ag566
aS'variable_70'
p940
ag568
aS'variable_71'
p941
ag19
aS'variable_1'
p942
aS'->'
p943
aS'variable_15'
p944
aS'->'
p945
aS'variable_42'
p946
ag31
aS'variable_72'
p947
ag19
aS'variable_1'
p948
aS'->'
p949
aS'variable_15'
p950
aS'->'
p951
aS'variable_51'
p952
ag31
aS'variable_1'
p953
aS'->'
p954
aS'variable_47'
p955
ag566
aS'variable_52'
p956
ag568
aS'variable_53'
p957
ag19
aS'if'
p958
ag5
aS'variable_7'
p959
aS'=='
p960
aS'0x42111100'
p961
ag9
aS'variable_1'
p962
aS'->'
p963
aS'variable_13'
p964
ag31
ag487
ag19
aS'variable_1'
p965
aS'->'
p966
aS'variable_60'
p967
ag31
ag5
aS'variable_1'
p968
aS'->'
p969
aS'variable_6'
p970
ag113
ag74
ag9
ag338
ag362
ag19
aS'if'
p971
ag5
aS'variable_1'
p972
aS'->'
p973
aS'variable_17'
p974
ag132
ag31
ag52
ag9
aS'variable_1'
p975
aS'->'
p976
aS'variable_15'
p977
aS'->'
p978
aS'variable_42'
p979
ag31
aS'variable_1'
p980
aS'->'
p981
aS'variable_47'
p982
ag566
aS'variable_73'
p983
ag568
aS'variable_74'
p984
ag19
aS'variable_1'
p985
aS'->'
p986
aS'variable_15'
p987
aS'->'
p988
aS'variable_51'
p989
ag31
aS'variable_1'
p990
aS'->'
p991
aS'variable_47'
p992
ag566
aS'variable_52'
p993
ag568
aS'variable_53'
p994
ag19
aS'variable_1'
p995
aS'->'
p996
aS'variable_13'
p997
ag31
aS'variable_1'
p998
aS'->'
p999
aS'variable_14'
p1000
ag31
ag32
ag19
aS'if'
p1001
ag5
ag5
aS'variable_1'
p1002
aS'->'
p1003
aS'variable_13'
p1004
aS'||'
p1005
aS'variable_1'
p1006
aS'->'
p1007
aS'variable_14'
p1008
ag9
aS'&&'
p1009
aS'variable_1'
p1010
aS'->'
p1011
aS'variable_15'
p1012
aS'->'
p1013
aS'variable_22'
p1014
ag9
aS'if'
p1015
ag5
aS'variable_1'
p1016
aS'->'
p1017
aS'variable_26'
p1018
ag9
aS'variable_1'
p1019
aS'->'
p1020
aS'variable_13'
p1021
ag31
aS'variable_1'
p1022
aS'->'
p1023
aS'variable_14'
p1024
ag31
ag32
ag19
aS'if'
p1025
ag5
aS'variable_1'
p1026
aS'->'
p1027
aS'variable_3'
p1028
ag135
ag74
ag9
aS'variable_1'
p1029
aS'->'
p1030
aS'variable_15'
p1031
aS'->'
p1032
aS'variable_42'
p1033
ag31
aS'variable_75'
p1034
ag19
aS'if'
p1035
ag5
aS'variable_1'
p1036
aS'->'
p1037
aS'variable_76'
p1038
aS'&&'
p1039
aS'variable_1'
p1040
aS'->'
p1041
aS'variable_17'
p1042
ag132
ag31
ag52
ag9
aS'variable_1'
p1043
aS'->'
p1044
aS'variable_15'
p1045
aS'->'
p1046
aS'variable_42'
p1047
ag31
aS'variable_77'
p1048
ag19
aS'if'
p1049
ag5
aS'variable_1'
p1050
aS'->'
p1051
aS'variable_17'
p1052
ag132
ag31
ag52
ag9
aS'variable_1'
p1053
aS'->'
p1054
aS'variable_15'
p1055
aS'->'
p1056
aS'variable_42'
p1057
ag31
aS'variable_63'
p1058
ag19
aS'variable_1'
p1059
aS'->'
p1060
aS'variable_15'
p1061
aS'->'
p1062
aS'variable_42'
p1063
ag31
aS'variable_64'
p1064
ag19
aS'variable_1'
p1065
aS'->'
p1066
aS'variable_78'
p1067
ag31
aS'func_11'
p1068
ag5
aS'variable_1'
p1069
aS'->'
p1070
aS'variable_15'
p1071
aS'->'
p1072
aS'variable_42'
p1073
ag9
ag19
aS'if'
p1074
ag5
ag67
aS'variable_1'
p1075
aS'->'
p1076
aS'variable_78'
p1077
ag9
aS'if'
p1078
ag5
aS'func_12'
p1079
ag5
aS'variable_1'
p1080
aS'->'
p1081
aS'variable_15'
p1082
ag12
aS'variable_1'
p1083
aS'->'
p1084
aS'variable_34'
p1085
ag12
aS'variable_79'
p1086
ag9
ag132
ag32
ag9
aS'variable_1'
p1087
aS'->'
p1088
aS'variable_34'
p1089
aS'->'
p1090
aS'variable_80'
p1091
ag31
aS'variable_81'
p1092
ag19
aS'variable_1'
p1093
aS'->'
p1094
aS'variable_34'
p1095
aS'->'
p1096
aS'variable_82'
p1097
ag31
ag74
ag19
aS'variable_1'
p1098
aS'->'
p1099
aS'variable_31'
p1100
ag31
ag74
ag19
aS'for'
p1101
ag5
aS'variable_4'
p1102
ag31
ag32
ag19
aS'variable_4'
p1103
ag132
ag205
ag19
aS'variable_4'
p1104
aS'++'
p1105
ag9
aS'variable_1'
p1106
aS'->'
p1107
aS'variable_83'
p1108
ag22
aS'variable_4'
p1109
ag24
ag31
aS'variable_1'
p1110
aS'->'
p1111
aS'variable_34'
p1112
aS'->'
p1113
aS'variable_83'
p1114
ag22
aS'variable_4'
p1115
ag24
aS'<<'
p1116
aS'variable_1'
p1117
aS'->'
p1118
aS'variable_23'
p1119
ag19
aS'if'
p1120
ag5
aS'variable_1'
p1121
aS'->'
p1122
aS'variable_38'
p1123
aS'&&'
p1124
ag67
aS'variable_1'
p1125
aS'->'
p1126
aS'variable_21'
p1127
aS'&&'
p1128
ag67
aS'variable_1'
p1129
aS'->'
p1130
aS'variable_26'
p1131
ag9
aS'if'
p1132
ag5
aS'variable_1'
p1133
aS'->'
p1134
aS'variable_37'
p1135
ag9
aS'int'
p1136
aS'variable_84'
p1137
ag31
ag5
aS'variable_6'
p1138
ag113
aS'variable_1'
p1139
aS'->'
p1140
aS'variable_28'
p1141
ag7
ag52
ag198
ag74
ag9
ag338
ag5
aS'variable_1'
p1142
aS'->'
p1143
aS'variable_28'
p1144
ag7
ag52
ag9
ag19
aS'int'
p1145
aS'variable_85'
p1146
ag31
aS'variable_86'
p1147
ag7
aS'variable_84'
p1148
ag7
aS'variable_1'
p1149
aS'->'
p1150
aS'variable_9'
p1151
ag22
aS'variable_4'
p1152
ag24
ag7
aS'variable_1'
p1153
aS'->'
p1154
aS'variable_11'
p1155
ag22
aS'variable_4'
p1156
ag24
ag19
aS'variable_1'
p1157
aS'->'
p1158
aS'variable_87'
p1159
ag22
aS'variable_4'
p1160
ag24
ag31
aS'func_13'
p1161
ag5
aS'variable_85'
p1162
ag12
aS'sizeof'
p1163
ag5
ag7
ag7
aS'variable_1'
p1164
aS'->'
p1165
aS'variable_87'
p1166
ag9
ag9
ag19
aS'variable_1'
p1167
aS'->'
p1168
aS'variable_88'
p1169
ag22
aS'variable_4'
p1170
ag24
ag31
aS'func_14'
p1171
ag5
aS'variable_85'
p1172
ag12
aS'sizeof'
p1173
ag5
ag7
ag7
aS'variable_1'
p1174
aS'->'
p1175
aS'variable_88'
p1176
ag9
ag9
ag19
aS'if'
p1177
ag5
ag67
aS'variable_1'
p1178
aS'->'
p1179
aS'variable_87'
p1180
ag22
aS'variable_4'
p1181
ag24
aS'||'
p1182
ag67
aS'variable_1'
p1183
aS'->'
p1184
aS'variable_88'
p1185
ag22
aS'variable_4'
p1186
ag24
ag9
aS'variable_1'
p1187
aS'->'
p1188
aS'variable_89'
p1189
ag22
aS'variable_4'
p1190
ag24
ag31
aS'variable_86'
p1191
ag7
aS'variable_1'
p1192
aS'->'
p1193
aS'variable_9'
p1194
ag22
aS'variable_4'
p1195
ag24
ag19
aS'memset'
p1196
ag5
aS'variable_1'
p1197
aS'->'
p1198
aS'variable_90'
p1199
ag12
ag32
ag12
aS'sizeof'
p1200
ag5
aS'variable_1'
p1201
aS'->'
p1202
aS'variable_90'
p1203
ag9
ag9
ag19
aa(lp1204
S'int'
p1205
aS'func_0'
p1206
ag5
aS'variable_0'
p1207
ag7
aS'variable_1'
p1208
ag9
aS'int'
p1209
aS'variable_2'
p1210
ag12
aS'variable_3'
p1211
ag12
aS'variable_4'
p1212
ag12
aS'variable_5'
p1213
ag12
aS'variable_6'
p1214
ag12
aS'variable_7'
p1215
ag12
aS'variable_8'
p1216
ag19
aS'int'
p1217
aS'variable_9'
p1218
ag22
aS'variable_10'
p1219
ag24
ag19
aS'int'
p1220
aS'variable_11'
p1221
ag22
aS'variable_10'
p1222
ag24
ag19
aS'variable_1'
p1223
aS'->'
p1224
aS'variable_12'
p1225
ag31
ag32
ag19
aS'variable_1'
p1226
aS'->'
p1227
aS'variable_13'
p1228
ag31
aS'variable_1'
p1229
aS'->'
p1230
aS'variable_14'
p1231
ag31
ag32
ag19
aS'variable_1'
p1232
aS'->'
p1233
aS'variable_15'
p1234
aS'->'
p1235
aS'variable_16'
p1236
ag31
aS'variable_1'
p1237
aS'->'
p1238
aS'variable_17'
p1239
ag31
aS'func_1'
p1240
ag5
ag48
aS'variable_1'
p1241
aS'->'
p1242
aS'variable_18'
p1243
ag12
ag52
ag9
ag19
aS'if'
p1244
ag5
aS'variable_1'
p1245
aS'->'
p1246
aS'variable_19'
p1247
ag9
aS'variable_1'
p1248
aS'->'
p1249
aS'variable_17'
p1250
ag31
ag60
ag19
aS'if'
p1251
ag5
aS'variable_1'
p1252
aS'->'
p1253
aS'variable_17'
p1254
aS'=='
p1255
ag60
aS'&&'
p1256
ag67
aS'variable_1'
p1257
aS'->'
p1258
aS'variable_19'
p1259
ag9
aS'variable_1'
p1260
aS'->'
p1261
aS'variable_20'
p1262
ag31
ag74
ag19
aS'if'
p1263
ag5
aS'variable_1'
p1264
aS'->'
p1265
aS'variable_21'
p1266
aS'&&'
p1267
aS'variable_1'
p1268
aS'->'
p1269
aS'variable_15'
p1270
aS'->'
p1271
aS'variable_22'
p1272
ag9
aS'variable_6'
p1273
ag31
aS'func_2'
p1274
ag5
ag48
aS'variable_1'
p1275
aS'->'
p1276
aS'variable_18'
p1277
ag12
aS'16'
p1278
ag9
ag19
aS'variable_5'
p1279
ag31
aS'func_3'
p1280
ag5
ag48
aS'variable_1'
p1281
aS'->'
p1282
aS'variable_18'
p1283
ag12
aS'16'
p1284
ag9
ag19
aS'if'
p1285
ag5
aS'variable_1'
p1286
aS'->'
p1287
aS'variable_23'
p1288
aS'&&'
p1289
aS'variable_1'
p1290
aS'->'
p1291
aS'variable_5'
p1292
aS'=='
p1293
aS'variable_5'
p1294
aS'&&'
p1295
aS'variable_1'
p1296
aS'->'
p1297
aS'variable_6'
p1298
aS'=='
p1299
aS'variable_6'
p1300
ag113
ag74
ag9
aS'variable_6'
p1301
ag31
aS'variable_1'
p1302
aS'->'
p1303
aS'variable_6'
p1304
ag19
aS'if'
p1305
ag5
aS'func_4'
p1306
ag5
aS'variable_5'
p1307
ag12
aS'variable_6'
p1308
ag12
ag32
ag12
aS'variable_1'
p1309
aS'->'
p1310
aS'variable_15'
p1311
ag9
ag9
aS'variable_3'
p1312
ag31
aS'func_5'
p1313
ag5
ag48
aS'variable_1'
p1314
aS'->'
p1315
aS'variable_18'
p1316
ag12
ag52
ag9
ag19
aS'if'
p1317
ag5
aS'variable_3'
p1318
ag132
ag31
ag32
aS'||'
p1319
aS'variable_3'
p1320
ag135
aS'variable_10'
p1321
ag9
aS'if'
p1322
ag5
aS'variable_1'
p1323
aS'->'
p1324
aS'variable_23'
p1325
aS'&&'
p1326
ag5
aS'variable_1'
p1327
aS'->'
p1328
aS'variable_24'
p1329
aS'=='
p1330
ag67
aS'variable_1'
p1331
aS'->'
p1332
aS'variable_25'
p1333
ag9
ag9
aS'if'
p1334
ag5
aS'variable_3'
p1335
aS'!='
p1336
aS'variable_1'
p1337
aS'->'
p1338
aS'variable_3'
p1339
ag9
aS'if'
p1340
ag5
aS'variable_1'
p1341
aS'->'
p1342
aS'variable_26'
p1343
aS'&&'
p1344
ag67
ag5
aS'variable_1'
p1345
aS'->'
p1346
aS'variable_17'
p1347
ag132
ag31
ag52
aS'||'
p1348
aS'variable_3'
p1349
aS'=='
p1350
ag74
ag9
ag9
aS'variable_1'
p1351
aS'->'
p1352
aS'variable_3'
p1353
ag31
aS'variable_3'
p1354
ag19
aS'variable_1'
p1355
aS'->'
p1356
aS'variable_27'
p1357
ag31
ag74
ag19
aS'variable_1'
p1358
aS'->'
p1359
aS'variable_28'
p1360
ag31
ag74
ag19
aS'memset'
p1361
ag5
aS'variable_9'
p1362
ag12
ag32
ag12
aS'sizeof'
p1363
ag5
aS'variable_9'
p1364
ag9
ag9
ag19
aS'memset'
p1365
ag5
aS'variable_11'
p1366
ag12
ag32
ag12
aS'sizeof'
p1367
ag5
aS'variable_11'
p1368
ag9
ag9
ag19
aS'for'
p1369
ag5
aS'variable_4'
p1370
ag31
ag32
ag19
aS'variable_4'
p1371
ag132
aS'variable_3'
p1372
ag19
aS'variable_4'
p1373
aS'++'
p1374
ag9
aS'variable_1'
p1375
aS'->'
p1376
aS'variable_29'
p1377
ag22
aS'variable_4'
p1378
ag24
ag31
aS'func_6'
p1379
ag5
ag48
aS'variable_1'
p1380
aS'->'
p1381
aS'variable_18'
p1382
ag12
ag52
ag9
ag198
ag74
ag19
aS'variable_9'
p1383
ag22
aS'variable_4'
p1384
ag24
ag31
aS'func_7'
p1385
ag5
ag48
aS'variable_1'
p1386
aS'->'
p1387
aS'variable_18'
p1388
ag12
ag205
ag9
ag19
aS'variable_11'
p1389
ag22
aS'variable_4'
p1390
ag24
ag31
aS'func_8'
p1391
ag5
ag48
aS'variable_1'
p1392
aS'->'
p1393
aS'variable_18'
p1394
ag12
ag205
ag9
ag19
aS'if'
p1395
ag5
aS'variable_9'
p1396
ag22
aS'variable_4'
p1397
ag24
ag135
aS'variable_1'
p1398
aS'->'
p1399
aS'variable_27'
p1400
ag9
aS'variable_1'
p1401
aS'->'
p1402
aS'variable_27'
p1403
ag31
aS'variable_9'
p1404
ag22
aS'variable_4'
p1405
ag24
ag19
aS'if'
p1406
ag5
aS'variable_11'
p1407
ag22
aS'variable_4'
p1408
ag24
ag135
aS'variable_1'
p1409
aS'->'
p1410
aS'variable_28'
p1411
ag9
aS'variable_1'
p1412
aS'->'
p1413
aS'variable_28'
p1414
ag31
aS'variable_11'
p1415
ag22
aS'variable_4'
p1416
ag24
ag19
aS'variable_1'
p1417
aS'->'
p1418
aS'variable_30'
p1419
ag22
aS'variable_4'
p1420
ag24
ag31
aS'func_9'
p1421
ag5
ag48
aS'variable_1'
p1422
aS'->'
p1423
aS'variable_18'
p1424
ag12
ag52
ag9
ag19
aS'if'
p1425
ag5
aS'variable_1'
p1426
aS'->'
p1427
aS'variable_30'
p1428
ag22
aS'variable_4'
p1429
ag24
ag135
ag31
ag205
ag9
aS'if'
p1430
ag5
ag67
aS'variable_9'
p1431
ag22
aS'variable_4'
p1432
ag24
aS'||'
p1433
ag67
aS'variable_11'
p1434
ag22
aS'variable_4'
p1435
ag24
ag9
aS'if'
p1436
ag5
aS'variable_1'
p1437
aS'->'
p1438
aS'variable_26'
p1439
aS'&&'
p1440
ag5
aS'variable_1'
p1441
aS'->'
p1442
aS'variable_27'
p1443
ag135
ag74
aS'||'
p1444
aS'variable_1'
p1445
aS'->'
p1446
aS'variable_28'
p1447
ag135
ag74
ag9
ag9
aS'if'
p1448
ag5
aS'variable_5'
p1449
aS'!='
p1450
aS'variable_1'
p1451
aS'->'
p1452
aS'variable_5'
p1453
aS'||'
p1454
aS'variable_6'
p1455
aS'!='
p1456
aS'variable_1'
p1457
aS'->'
p1458
aS'variable_6'
p1459
aS'||'
p1460
aS'memcmp'
p1461
ag5
aS'variable_1'
p1462
aS'->'
p1463
aS'variable_9'
p1464
ag12
aS'variable_9'
p1465
ag12
aS'sizeof'
p1466
ag5
aS'variable_9'
p1467
ag9
ag9
aS'||'
p1468
aS'memcmp'
p1469
ag5
aS'variable_1'
p1470
aS'->'
p1471
aS'variable_11'
p1472
ag12
aS'variable_11'
p1473
ag12
aS'sizeof'
p1474
ag5
aS'variable_11'
p1475
ag9
ag9
ag9
aS'variable_1'
p1476
aS'->'
p1477
aS'variable_5'
p1478
ag31
aS'variable_5'
p1479
ag19
aS'variable_1'
p1480
aS'->'
p1481
aS'variable_6'
p1482
ag31
aS'variable_6'
p1483
ag19
aS'memcpy'
p1484
ag5
aS'variable_1'
p1485
aS'->'
p1486
aS'variable_9'
p1487
ag12
aS'variable_9'
p1488
ag12
aS'sizeof'
p1489
ag5
aS'variable_9'
p1490
ag9
ag9
ag19
aS'memcpy'
p1491
ag5
aS'variable_1'
p1492
aS'->'
p1493
aS'variable_11'
p1494
ag12
aS'variable_11'
p1495
ag12
aS'sizeof'
p1496
ag5
aS'variable_11'
p1497
ag9
ag9
ag19
aS'variable_1'
p1498
aS'->'
p1499
aS'variable_23'
p1500
ag31
ag32
ag19
aS'variable_1'
p1501
aS'->'
p1502
aS'variable_31'
p1503
ag31
ag32
ag19
aS'if'
p1504
ag5
aS'variable_1'
p1505
aS'->'
p1506
aS'variable_32'
p1507
aS'&&'
p1508
aS'variable_1'
p1509
aS'->'
p1510
aS'variable_33'
p1511
aS'!='
p1512
ag32
aS'&&'
p1513
aS'variable_1'
p1514
aS'->'
p1515
aS'variable_6'
p1516
ag132
ag5
ag5
aS'variable_1'
p1517
aS'->'
p1518
aS'variable_33'
p1519
ag7
ag337
ag9
ag338
ag205
ag9
ag9
aS'variable_1'
p1520
aS'->'
p1521
aS'variable_23'
p1522
ag31
ag74
ag19
aS'variable_1'
p1523
aS'->'
p1524
aS'variable_24'
p1525
ag31
aS'variable_1'
p1526
aS'->'
p1527
aS'variable_25'
p1528
ag19
aS'variable_1'
p1529
aS'->'
p1530
aS'variable_34'
p1531
aS'->'
p1532
aS'variable_35'
p1533
ag31
ag74
ag19
aS'variable_1'
p1534
aS'->'
p1535
aS'variable_34'
p1536
aS'->'
p1537
aS'variable_36'
p1538
ag31
ag67
aS'variable_1'
p1539
aS'->'
p1540
aS'variable_25'
p1541
ag19
aS'variable_6'
p1542
ag7
ag31
ag362
ag19
aS'variable_8'
p1543
ag31
aS'func_10'
p1544
ag5
aS'variable_1'
p1545
aS'->'
p1546
aS'variable_15'
p1547
ag12
aS'variable_5'
p1548
ag12
aS'variable_6'
p1549
ag9
ag19
aS'if'
p1550
ag5
aS'variable_8'
p1551
ag132
ag32
ag9
aS'variable_1'
p1552
aS'->'
p1553
aS'variable_32'
p1554
ag31
ag32
ag19
aS'if'
p1555
ag5
aS'variable_1'
p1556
aS'->'
p1557
aS'variable_31'
p1558
aS'&&'
p1559
aS'variable_1'
p1560
aS'->'
p1561
aS'variable_23'
p1562
aS'&&'
p1563
ag5
aS'variable_1'
p1564
aS'->'
p1565
aS'variable_24'
p1566
aS'=='
p1567
ag67
aS'variable_1'
p1568
aS'->'
p1569
aS'variable_25'
p1570
ag9
ag9
aS'if'
p1571
ag5
aS'variable_1'
p1572
aS'->'
p1573
aS'variable_37'
p1574
ag9
aS'if'
p1575
ag5
aS'variable_1'
p1576
aS'->'
p1577
aS'variable_28'
p1578
aS'=='
p1579
ag74
aS'&&'
p1580
aS'variable_1'
p1581
aS'->'
p1582
aS'variable_27'
p1583
aS'=='
p1584
ag74
aS'&&'
p1585
aS'variable_1'
p1586
aS'->'
p1587
aS'variable_21'
p1588
aS'=='
p1589
ag74
aS'&&'
p1590
ag5
aS'variable_3'
p1591
aS'=='
p1592
ag337
aS'||'
p1593
aS'variable_3'
p1594
aS'=='
p1595
ag205
ag9
ag9
aS'variable_1'
p1596
aS'->'
p1597
aS'variable_38'
p1598
ag31
ag74
ag19
aS'if'
p1599
ag5
ag67
aS'variable_1'
p1600
aS'->'
p1601
aS'variable_21'
p1602
ag9
aS'variable_1'
p1603
aS'->'
p1604
aS'variable_38'
p1605
ag31
ag32
ag19
aS'variable_7'
p1606
ag31
ag5
aS'variable_1'
p1607
aS'->'
p1608
aS'variable_9'
p1609
ag22
ag32
ag24
aS'<<'
p1610
aS'28'
p1611
ag9
ag432
ag5
aS'variable_1'
p1612
aS'->'
p1613
aS'variable_11'
p1614
ag22
ag32
ag24
aS'<<'
p1615
aS'24'
p1616
ag9
ag432
ag5
aS'variable_1'
p1617
aS'->'
p1618
aS'variable_9'
p1619
ag22
ag74
ag24
aS'<<'
p1620
aS'20'
p1621
ag9
ag432
ag5
aS'variable_1'
p1622
aS'->'
p1623
aS'variable_11'
p1624
ag22
ag74
ag24
aS'<<'
p1625
aS'16'
p1626
ag9
ag432
ag5
aS'variable_1'
p1627
aS'->'
p1628
aS'variable_9'
p1629
ag22
ag362
ag24
aS'<<'
p1630
aS'12'
p1631
ag9
ag432
ag5
aS'variable_1'
p1632
aS'->'
p1633
aS'variable_11'
p1634
ag22
ag362
ag24
aS'<<'
p1635
ag52
ag9
ag432
ag5
aS'variable_1'
p1636
aS'->'
p1637
aS'variable_9'
p1638
ag22
ag337
ag24
aS'<<'
p1639
ag205
ag9
ag432
aS'variable_1'
p1640
aS'->'
p1641
aS'variable_11'
p1642
ag22
ag337
ag24
ag19
aS'if'
p1643
ag5
ag67
ag5
aS'variable_7'
p1644
ag48
aS'0xD0D0D0D0'
p1645
ag9
ag9
aS'variable_7'
p1646
aS'-='
p1647
ag5
aS'variable_7'
p1648
ag48
aS'0xF0F0F0F0'
p1649
ag9
aS'>>'
p1650
ag74
ag19
aS'if'
p1651
ag5
ag67
ag5
aS'variable_7'
p1652
ag48
aS'0x0D0D0D0D'
p1653
ag9
ag9
aS'variable_7'
p1654
aS'-='
p1655
ag5
aS'variable_7'
p1656
ag48
aS'0x0F0F0F0F'
p1657
ag9
aS'>>'
p1658
ag74
ag19
aS'for'
p1659
ag5
aS'variable_4'
p1660
ag31
ag32
ag19
aS'variable_4'
p1661
ag132
ag52
ag19
aS'variable_4'
p1662
aS'++'
p1663
ag9
aS'int'
p1664
aS'variable_39'
p1665
ag31
ag487
ag113
ag5
aS'variable_4'
p1666
ag48
ag74
ag9
ag198
ag5
aS'variable_4'
p1667
ag48
ag487
ag9
ag19
aS'int'
p1668
aS'variable_40'
p1669
ag31
ag5
aS'variable_7'
p1670
aS'>>'
p1671
ag5
ag205
ag7
aS'variable_4'
p1672
ag9
ag9
ag48
aS'0xF'
p1673
ag19
aS'int'
p1674
aS'variable_41'
p1675
ag31
ag5
aS'variable_7'
p1676
aS'>>'
p1677
ag5
ag205
ag7
aS'variable_39'
p1678
ag9
ag9
ag48
aS'0xF'
p1679
ag19
aS'if'
p1680
ag5
aS'variable_40'
p1681
aS'=='
p1682
ag74
aS'&&'
p1683
aS'variable_41'
p1684
aS'!='
p1685
ag362
aS'&&'
p1686
ag5
aS'variable_4'
p1687
ag132
ag362
aS'||'
p1688
aS'variable_4'
p1689
ag135
ag512
ag9
ag9
aS'variable_41'
p1690
ag31
ag5
aS'variable_7'
p1691
aS'>>'
p1692
ag5
ag52
ag113
ag205
ag7
ag5
aS'variable_4'
p1693
ag48
ag74
ag9
ag9
ag9
ag48
aS'0xF'
p1694
ag19
aS'if'
p1695
ag5
aS'variable_40'
p1696
aS'=='
p1697
ag74
aS'&&'
p1698
aS'variable_41'
p1699
aS'!='
p1700
ag362
aS'&&'
p1701
ag5
aS'variable_4'
p1702
ag132
ag362
aS'||'
p1703
aS'variable_4'
p1704
ag135
ag512
ag9
ag9
aS'variable_41'
p1705
ag31
ag5
aS'variable_7'
p1706
aS'>>'
p1707
ag5
aS'16'
p1708
ag113
ag205
ag7
ag5
aS'variable_4'
p1709
ag48
ag74
ag9
ag9
ag9
ag48
aS'0xF'
p1710
ag19
aS'if'
p1711
ag5
aS'variable_40'
p1712
aS'=='
p1713
ag74
aS'&&'
p1714
aS'variable_41'
p1715
aS'=='
p1716
ag362
ag9
aS'if'
p1717
ag5
aS'variable_4'
p1718
ag48
ag74
ag9
aS'variable_1'
p1719
aS'->'
p1720
aS'variable_13'
p1721
ag432
ag31
ag74
aS'<<'
p1722
ag5
aS'variable_39'
p1723
ag338
ag362
ag9
ag19
aS'variable_1'
p1724
aS'->'
p1725
aS'variable_14'
p1726
ag432
ag31
ag74
aS'<<'
p1727
ag5
aS'variable_39'
p1728
ag338
ag362
ag9
ag19
aS'switch'
p1729
ag5
aS'variable_7'
p1730
ag9
aS'if'
p1731
ag5
aS'variable_1'
p1732
aS'->'
p1733
aS'variable_38'
p1734
ag9
aS'variable_1'
p1735
aS'->'
p1736
aS'variable_15'
p1737
aS'->'
p1738
aS'variable_42'
p1739
ag31
aS'variable_1'
p1740
aS'->'
p1741
aS'variable_17'
p1742
ag132
ag31
ag60
ag566
aS'variable_43'
p1743
ag568
aS'variable_44'
p1744
ag19
aS'if'
p1745
ag5
aS'variable_1'
p1746
aS'->'
p1747
aS'variable_29'
p1748
ag22
ag32
ag24
aS'=='
p1749
ag575
ag576
ag575
aS'&&'
p1750
aS'variable_1'
p1751
aS'->'
p1752
aS'variable_29'
p1753
ag22
ag74
ag24
aS'=='
p1754
ag575
ag582
ag575
aS'&&'
p1755
aS'variable_1'
p1756
aS'->'
p1757
aS'variable_29'
p1758
ag22
ag362
ag24
aS'=='
p1759
ag575
ag588
ag575
ag9
aS'variable_1'
p1760
aS'->'
p1761
aS'variable_15'
p1762
aS'->'
p1763
aS'variable_42'
p1764
ag31
aS'variable_1'
p1765
aS'->'
p1766
aS'variable_17'
p1767
ag132
ag31
ag52
ag566
aS'variable_45'
p1768
ag568
aS'variable_46'
p1769
ag19
aS'if'
p1770
ag5
aS'variable_1'
p1771
aS'->'
p1772
aS'variable_17'
p1773
ag132
ag31
ag52
ag9
aS'variable_1'
p1774
aS'->'
p1775
aS'variable_15'
p1776
aS'->'
p1777
aS'variable_42'
p1778
ag31
aS'variable_1'
p1779
aS'->'
p1780
aS'variable_47'
p1781
ag566
aS'variable_48'
p1782
ag568
aS'variable_49'
p1783
ag19
aS'variable_1'
p1784
aS'->'
p1785
aS'variable_15'
p1786
aS'->'
p1787
aS'variable_42'
p1788
ag31
aS'variable_50'
p1789
ag19
aS'variable_1'
p1790
aS'->'
p1791
aS'variable_15'
p1792
aS'->'
p1793
aS'variable_51'
p1794
ag31
aS'variable_1'
p1795
aS'->'
p1796
aS'variable_47'
p1797
ag566
aS'variable_52'
p1798
ag568
aS'variable_53'
p1799
ag19
aS'if'
p1800
ag5
aS'variable_1'
p1801
aS'->'
p1802
aS'variable_38'
p1803
ag9
aS'variable_1'
p1804
aS'->'
p1805
aS'variable_15'
p1806
aS'->'
p1807
aS'variable_42'
p1808
ag31
aS'variable_1'
p1809
aS'->'
p1810
aS'variable_17'
p1811
ag132
ag31
ag60
ag566
aS'variable_54'
p1812
ag568
aS'variable_55'
p1813
ag19
aS'if'
p1814
ag5
aS'variable_1'
p1815
aS'->'
p1816
aS'variable_56'
p1817
aS'=='
p1818
ag32
aS'&&'
p1819
aS'variable_1'
p1820
aS'->'
p1821
aS'variable_17'
p1822
ag132
ag31
ag52
ag9
aS'variable_1'
p1823
aS'->'
p1824
aS'variable_15'
p1825
aS'->'
p1826
aS'variable_42'
p1827
ag31
aS'variable_57'
p1828
ag19
aS'variable_1'
p1829
aS'->'
p1830
aS'variable_15'
p1831
aS'->'
p1832
aS'variable_42'
p1833
ag31
aS'variable_1'
p1834
aS'->'
p1835
aS'variable_17'
p1836
ag132
ag31
ag52
ag566
aS'variable_58'
p1837
ag568
aS'variable_59'
p1838
ag19
aS'variable_1'
p1839
aS'->'
p1840
aS'variable_15'
p1841
aS'->'
p1842
aS'variable_51'
p1843
ag31
aS'variable_1'
p1844
aS'->'
p1845
aS'variable_47'
p1846
ag566
aS'variable_52'
p1847
ag568
aS'variable_53'
p1848
ag19
aS'if'
p1849
ag5
aS'variable_1'
p1850
aS'->'
p1851
aS'variable_56'
p1852
aS'=='
p1853
ag32
aS'&&'
p1854
aS'variable_1'
p1855
aS'->'
p1856
aS'variable_17'
p1857
ag132
ag31
ag52
ag9
aS'variable_1'
p1858
aS'->'
p1859
aS'variable_15'
p1860
aS'->'
p1861
aS'variable_42'
p1862
ag31
aS'variable_57'
p1863
ag19
aS'variable_1'
p1864
aS'->'
p1865
aS'variable_14'
p1866
ag31
ag487
ag19
aS'variable_1'
p1867
aS'->'
p1868
aS'variable_13'
p1869
ag31
ag487
ag19
aS'variable_1'
p1870
aS'->'
p1871
aS'variable_60'
p1872
ag31
aS'variable_1'
p1873
aS'->'
p1874
aS'variable_6'
p1875
ag19
aS'if'
p1876
ag5
aS'variable_1'
p1877
aS'->'
p1878
aS'variable_56'
p1879
aS'=='
p1880
ag362
aS'&&'
p1881
aS'variable_1'
p1882
aS'->'
p1883
aS'variable_17'
p1884
ag132
ag31
ag52
ag9
aS'variable_1'
p1885
aS'->'
p1886
aS'variable_15'
p1887
aS'->'
p1888
aS'variable_42'
p1889
ag31
aS'variable_58'
p1890
ag19
aS'variable_1'
p1891
aS'->'
p1892
aS'variable_14'
p1893
ag31
ag487
ag19
aS'variable_1'
p1894
aS'->'
p1895
aS'variable_13'
p1896
ag31
ag487
ag19
aS'variable_1'
p1897
aS'->'
p1898
aS'variable_60'
p1899
ag31
aS'variable_1'
p1900
aS'->'
p1901
aS'variable_6'
p1902
ag19
aS'variable_1'
p1903
aS'->'
p1904
aS'variable_15'
p1905
aS'->'
p1906
aS'variable_51'
p1907
ag31
aS'variable_1'
p1908
aS'->'
p1909
aS'variable_47'
p1910
ag566
aS'variable_52'
p1911
ag568
aS'variable_53'
p1912
ag19
aS'if'
p1913
ag5
aS'variable_1'
p1914
aS'->'
p1915
aS'variable_17'
p1916
ag132
ag31
ag52
ag9
aS'variable_1'
p1917
aS'->'
p1918
aS'variable_15'
p1919
aS'->'
p1920
aS'variable_42'
p1921
ag31
aS'variable_61'
p1922
ag19
aS'variable_1'
p1923
aS'->'
p1924
aS'variable_15'
p1925
aS'->'
p1926
aS'variable_42'
p1927
ag31
aS'variable_62'
p1928
ag19
aS'variable_1'
p1929
aS'->'
p1930
aS'variable_15'
p1931
aS'->'
p1932
aS'variable_51'
p1933
ag31
aS'variable_1'
p1934
aS'->'
p1935
aS'variable_47'
p1936
ag566
aS'variable_52'
p1937
ag568
aS'variable_53'
p1938
ag19
aS'if'
p1939
ag5
aS'variable_1'
p1940
aS'->'
p1941
aS'variable_17'
p1942
ag132
ag31
ag52
ag9
aS'variable_1'
p1943
aS'->'
p1944
aS'variable_15'
p1945
aS'->'
p1946
aS'variable_42'
p1947
ag31
aS'variable_1'
p1948
aS'->'
p1949
aS'variable_47'
p1950
ag566
aS'variable_48'
p1951
ag568
aS'variable_49'
p1952
ag19
aS'variable_1'
p1953
aS'->'
p1954
aS'variable_15'
p1955
aS'->'
p1956
aS'variable_51'
p1957
ag31
aS'variable_1'
p1958
aS'->'
p1959
aS'variable_47'
p1960
ag566
aS'variable_52'
p1961
ag568
aS'variable_53'
p1962
ag19
aS'variable_1'
p1963
aS'->'
p1964
aS'variable_60'
p1965
ag31
aS'variable_1'
p1966
aS'->'
p1967
aS'variable_6'
p1968
ag19
aS'if'
p1969
ag5
aS'variable_1'
p1970
aS'->'
p1971
aS'variable_17'
p1972
ag132
ag31
ag52
ag9
aS'variable_1'
p1973
aS'->'
p1974
aS'variable_15'
p1975
aS'->'
p1976
aS'variable_42'
p1977
ag31
aS'variable_1'
p1978
aS'->'
p1979
aS'variable_47'
p1980
ag566
aS'variable_48'
p1981
ag568
aS'variable_49'
p1982
ag19
aS'variable_1'
p1983
aS'->'
p1984
aS'variable_15'
p1985
aS'->'
p1986
aS'variable_51'
p1987
ag31
aS'variable_1'
p1988
aS'->'
p1989
aS'variable_47'
p1990
ag566
aS'variable_52'
p1991
ag568
aS'variable_53'
p1992
ag19
aS'variable_1'
p1993
aS'->'
p1994
aS'variable_60'
p1995
ag31
ag5
aS'variable_1'
p1996
aS'->'
p1997
aS'variable_6'
p1998
ag113
ag74
ag9
ag338
ag362
ag19
aS'if'
p1999
ag5
aS'variable_1'
p2000
aS'->'
p2001
aS'variable_17'
p2002
ag132
ag31
ag52
ag9
aS'variable_1'
p2003
aS'->'
p2004
aS'variable_15'
p2005
aS'->'
p2006
aS'variable_42'
p2007
ag31
aS'variable_63'
p2008
ag19
aS'variable_1'
p2009
aS'->'
p2010
aS'variable_15'
p2011
aS'->'
p2012
aS'variable_42'
p2013
ag31
aS'variable_64'
p2014
ag19
aS'if'
p2015
ag5
aS'variable_1'
p2016
aS'->'
p2017
aS'variable_17'
p2018
ag132
ag31
ag52
ag9
aS'variable_1'
p2019
aS'->'
p2020
aS'variable_15'
p2021
aS'->'
p2022
aS'variable_42'
p2023
ag31
aS'variable_1'
p2024
aS'->'
p2025
aS'variable_47'
p2026
ag566
aS'variable_65'
p2027
ag568
aS'variable_66'
p2028
ag19
aS'variable_1'
p2029
aS'->'
p2030
aS'variable_15'
p2031
aS'->'
p2032
aS'variable_51'
p2033
ag31
aS'variable_1'
p2034
aS'->'
p2035
aS'variable_47'
p2036
ag566
aS'variable_52'
p2037
ag568
aS'variable_53'
p2038
ag19
aS'variable_1'
p2039
aS'->'
p2040
aS'variable_60'
p2041
ag31
ag5
aS'variable_1'
p2042
aS'->'
p2043
aS'variable_6'
p2044
ag113
ag74
ag9
ag338
ag362
ag19
aS'if'
p2045
ag5
aS'variable_1'
p2046
aS'->'
p2047
aS'variable_17'
p2048
ag132
ag31
ag52
ag9
aS'variable_1'
p2049
aS'->'
p2050
aS'variable_15'
p2051
aS'->'
p2052
aS'variable_42'
p2053
ag31
aS'variable_1'
p2054
aS'->'
p2055
aS'variable_47'
p2056
ag566
aS'variable_67'
p2057
ag568
aS'variable_68'
p2058
ag19
aS'variable_1'
p2059
aS'->'
p2060
aS'variable_15'
p2061
aS'->'
p2062
aS'variable_42'
p2063
ag31
aS'variable_69'
p2064
ag19
aS'variable_1'
p2065
aS'->'
p2066
aS'variable_15'
p2067
aS'->'
p2068
aS'variable_51'
p2069
ag31
aS'variable_1'
p2070
aS'->'
p2071
aS'variable_47'
p2072
ag566
aS'variable_52'
p2073
ag568
aS'variable_53'
p2074
ag19
aS'if'
p2075
ag5
aS'variable_1'
p2076
aS'->'
p2077
aS'variable_17'
p2078
ag132
ag31
ag52
ag9
aS'variable_1'
p2079
aS'->'
p2080
aS'variable_15'
p2081
aS'->'
p2082
aS'variable_42'
p2083
ag31
aS'variable_1'
p2084
aS'->'
p2085
aS'variable_47'
p2086
ag566
aS'variable_67'
p2087
ag568
aS'variable_68'
p2088
ag19
aS'variable_1'
p2089
aS'->'
p2090
aS'variable_15'
p2091
aS'->'
p2092
aS'variable_51'
p2093
ag31
aS'variable_1'
p2094
aS'->'
p2095
aS'variable_47'
p2096
ag566
aS'variable_52'
p2097
ag568
aS'variable_53'
p2098
ag19
aS'if'
p2099
ag5
aS'variable_1'
p2100
aS'->'
p2101
aS'variable_17'
p2102
ag132
ag31
ag52
ag9
aS'variable_1'
p2103
aS'->'
p2104
aS'variable_15'
p2105
aS'->'
p2106
aS'variable_42'
p2107
ag31
aS'variable_1'
p2108
aS'->'
p2109
aS'variable_47'
p2110
ag566
aS'variable_70'
p2111
ag568
aS'variable_71'
p2112
ag19
aS'variable_1'
p2113
aS'->'
p2114
aS'variable_15'
p2115
aS'->'
p2116
aS'variable_42'
p2117
ag31
aS'variable_72'
p2118
ag19
aS'variable_1'
p2119
aS'->'
p2120
aS'variable_15'
p2121
aS'->'
p2122
aS'variable_51'
p2123
ag31
aS'variable_1'
p2124
aS'->'
p2125
aS'variable_47'
p2126
ag566
aS'variable_52'
p2127
ag568
aS'variable_53'
p2128
ag19
aS'if'
p2129
ag5
aS'variable_7'
p2130
aS'=='
p2131
aS'0x42111100'
p2132
ag9
aS'variable_1'
p2133
aS'->'
p2134
aS'variable_13'
p2135
ag31
ag487
ag19
aS'variable_1'
p2136
aS'->'
p2137
aS'variable_60'
p2138
ag31
ag5
aS'variable_1'
p2139
aS'->'
p2140
aS'variable_6'
p2141
ag113
ag74
ag9
ag338
ag362
ag19
aS'if'
p2142
ag5
aS'variable_1'
p2143
aS'->'
p2144
aS'variable_17'
p2145
ag132
ag31
ag52
ag9
aS'variable_1'
p2146
aS'->'
p2147
aS'variable_15'
p2148
aS'->'
p2149
aS'variable_42'
p2150
ag31
aS'variable_1'
p2151
aS'->'
p2152
aS'variable_47'
p2153
ag566
aS'variable_73'
p2154
ag568
aS'variable_74'
p2155
ag19
aS'variable_1'
p2156
aS'->'
p2157
aS'variable_15'
p2158
aS'->'
p2159
aS'variable_51'
p2160
ag31
aS'variable_1'
p2161
aS'->'
p2162
aS'variable_47'
p2163
ag566
aS'variable_52'
p2164
ag568
aS'variable_53'
p2165
ag19
aS'variable_1'
p2166
aS'->'
p2167
aS'variable_13'
p2168
ag31
aS'variable_1'
p2169
aS'->'
p2170
aS'variable_14'
p2171
ag31
ag32
ag19
aS'if'
p2172
ag5
ag5
aS'variable_1'
p2173
aS'->'
p2174
aS'variable_13'
p2175
aS'||'
p2176
aS'variable_1'
p2177
aS'->'
p2178
aS'variable_14'
p2179
ag9
aS'&&'
p2180
aS'variable_1'
p2181
aS'->'
p2182
aS'variable_15'
p2183
aS'->'
p2184
aS'variable_22'
p2185
ag9
aS'if'
p2186
ag5
aS'variable_1'
p2187
aS'->'
p2188
aS'variable_26'
p2189
ag9
aS'variable_1'
p2190
aS'->'
p2191
aS'variable_13'
p2192
ag31
aS'variable_1'
p2193
aS'->'
p2194
aS'variable_14'
p2195
ag31
ag32
ag19
aS'if'
p2196
ag5
aS'variable_1'
p2197
aS'->'
p2198
aS'variable_3'
p2199
ag135
ag74
ag9
aS'variable_1'
p2200
aS'->'
p2201
aS'variable_15'
p2202
aS'->'
p2203
aS'variable_42'
p2204
ag31
aS'variable_75'
p2205
ag19
aS'if'
p2206
ag5
aS'variable_1'
p2207
aS'->'
p2208
aS'variable_76'
p2209
aS'&&'
p2210
aS'variable_1'
p2211
aS'->'
p2212
aS'variable_17'
p2213
ag132
ag31
ag52
ag9
aS'variable_1'
p2214
aS'->'
p2215
aS'variable_15'
p2216
aS'->'
p2217
aS'variable_42'
p2218
ag31
aS'variable_77'
p2219
ag19
aS'if'
p2220
ag5
aS'variable_1'
p2221
aS'->'
p2222
aS'variable_17'
p2223
ag132
ag31
ag52
ag9
aS'variable_1'
p2224
aS'->'
p2225
aS'variable_15'
p2226
aS'->'
p2227
aS'variable_42'
p2228
ag31
aS'variable_63'
p2229
ag19
aS'variable_1'
p2230
aS'->'
p2231
aS'variable_15'
p2232
aS'->'
p2233
aS'variable_42'
p2234
ag31
aS'variable_64'
p2235
ag19
aS'variable_1'
p2236
aS'->'
p2237
aS'variable_78'
p2238
ag31
aS'func_11'
p2239
ag5
aS'variable_1'
p2240
aS'->'
p2241
aS'variable_15'
p2242
aS'->'
p2243
aS'variable_42'
p2244
ag9
ag19
aS'if'
p2245
ag5
ag67
aS'variable_1'
p2246
aS'->'
p2247
aS'variable_78'
p2248
ag9
aS'if'
p2249
ag5
aS'func_12'
p2250
ag5
aS'variable_1'
p2251
aS'->'
p2252
aS'variable_15'
p2253
ag12
aS'variable_1'
p2254
aS'->'
p2255
aS'variable_34'
p2256
ag12
aS'variable_79'
p2257
ag9
ag132
ag32
ag9
aS'variable_1'
p2258
aS'->'
p2259
aS'variable_34'
p2260
aS'->'
p2261
aS'variable_80'
p2262
ag31
aS'variable_81'
p2263
ag19
aS'variable_1'
p2264
aS'->'
p2265
aS'variable_34'
p2266
aS'->'
p2267
aS'variable_82'
p2268
ag31
ag74
ag19
aS'variable_1'
p2269
aS'->'
p2270
aS'variable_31'
p2271
ag31
ag74
ag19
aS'for'
p2272
ag5
aS'variable_4'
p2273
ag31
ag32
ag19
aS'variable_4'
p2274
ag132
ag205
ag19
aS'variable_4'
p2275
aS'++'
p2276
ag9
aS'variable_1'
p2277
aS'->'
p2278
aS'variable_83'
p2279
ag22
aS'variable_4'
p2280
ag24
ag31
aS'variable_1'
p2281
aS'->'
p2282
aS'variable_34'
p2283
aS'->'
p2284
aS'variable_83'
p2285
ag22
aS'variable_4'
p2286
ag24
aS'<<'
p2287
aS'variable_1'
p2288
aS'->'
p2289
aS'variable_23'
p2290
ag19
aS'if'
p2291
ag5
aS'variable_1'
p2292
aS'->'
p2293
aS'variable_38'
p2294
aS'&&'
p2295
ag67
aS'variable_1'
p2296
aS'->'
p2297
aS'variable_21'
p2298
aS'&&'
p2299
ag67
aS'variable_1'
p2300
aS'->'
p2301
aS'variable_26'
p2302
ag9
aS'if'
p2303
ag5
aS'variable_1'
p2304
aS'->'
p2305
aS'variable_37'
p2306
ag9
aS'int'
p2307
aS'variable_84'
p2308
ag31
ag5
aS'variable_5'
p2309
ag113
aS'variable_1'
p2310
aS'->'
p2311
aS'variable_27'
p2312
ag7
ag52
ag198
ag74
ag9
ag338
ag5
aS'variable_1'
p2313
aS'->'
p2314
aS'variable_27'
p2315
ag7
ag52
ag9
ag19
aS'int'
p2316
aS'variable_85'
p2317
ag31
aS'variable_84'
p2318
ag7
aS'variable_86'
p2319
ag7
aS'variable_1'
p2320
aS'->'
p2321
aS'variable_9'
p2322
ag22
aS'variable_4'
p2323
ag24
ag7
aS'variable_1'
p2324
aS'->'
p2325
aS'variable_11'
p2326
ag22
aS'variable_4'
p2327
ag24
ag19
aS'variable_1'
p2328
aS'->'
p2329
aS'variable_87'
p2330
ag22
aS'variable_4'
p2331
ag24
ag31
aS'func_13'
p2332
ag5
aS'variable_85'
p2333
ag12
aS'sizeof'
p2334
ag5
ag7
ag7
aS'variable_1'
p2335
aS'->'
p2336
aS'variable_87'
p2337
ag9
ag9
ag19
aS'variable_1'
p2338
aS'->'
p2339
aS'variable_88'
p2340
ag22
aS'variable_4'
p2341
ag24
ag31
aS'func_14'
p2342
ag5
aS'variable_85'
p2343
ag12
aS'sizeof'
p2344
ag5
ag7
ag7
aS'variable_1'
p2345
aS'->'
p2346
aS'variable_88'
p2347
ag9
ag9
ag19
aS'if'
p2348
ag5
ag67
aS'variable_1'
p2349
aS'->'
p2350
aS'variable_87'
p2351
ag22
aS'variable_4'
p2352
ag24
aS'||'
p2353
ag67
aS'variable_1'
p2354
aS'->'
p2355
aS'variable_88'
p2356
ag22
aS'variable_4'
p2357
ag24
ag9
aS'variable_1'
p2358
aS'->'
p2359
aS'variable_89'
p2360
ag22
aS'variable_4'
p2361
ag24
ag31
aS'variable_84'
p2362
ag7
aS'variable_1'
p2363
aS'->'
p2364
aS'variable_9'
p2365
ag22
aS'variable_4'
p2366
ag24
ag19
aS'memset'
p2367
ag5
aS'variable_1'
p2368
aS'->'
p2369
aS'variable_90'
p2370
ag12
ag32
ag12
aS'sizeof'
p2371
ag5
aS'variable_1'
p2372
aS'->'
p2373
aS'variable_90'
p2374
ag9
ag9
ag19
aaa(lp2375
I1
aI1
aa(lp2376
I1941
aI1941
aa(lp2377
(lp2378
S'main'
p2379
aa(lp2380
g2379
aaa(lp2381
S'928 /home/SySeVR/data/CVE_2014_8541_VULN_ff_mjpeg_decode_sof.c int bh = ( height + s -> v_max * 8 - 1 ) / ( s -> v_max * 8 ) ; 335'
p2382
aS'929 /home/SySeVR/data/CVE_2014_8541_VULN_ff_mjpeg_decode_sof.c int bw = ( width + s -> h_max * 8 - 1 ) / ( s -> h_max * 8 ) ; 334'
p2383
aa.