(lp0
(lp1
(lp2
S'static'
p3
aS'int'
p4
aS'func_0'
p5
aS'('
p6
aS'variable_0'
p7
aS'*'
p8
aS'variable_1'
p9
aS')'
p10
aS'const'
p11
aS'char'
p12
ag8
aS'variable_2'
p13
aS';'
p14
aS'const'
p15
aS'char'
p16
ag8
aS'variable_3'
p17
ag14
aS'const'
p18
aS'char'
p19
ag8
aS'variable_4'
p20
ag14
aS'const'
p21
aS'char'
p22
ag8
aS'variable_5'
p23
ag14
aS'if'
p24
ag6
aS'variable_1'
p25
aS'->'
p26
aS'variable_6'
p27
ag10
aS'if'
p28
ag6
aS'!'
p29
ag6
aS'variable_2'
p30
aS'='
p31
aS'func_1'
p32
ag6
aS'variable_1'
p33
aS'->'
p34
aS'variable_7'
p35
aS','
p36
aS'"'
p37
aS'Range'
p38
ag37
ag10
ag10
ag10
aS'variable_2'
p39
ag31
aS'func_2'
p40
ag6
aS'variable_1'
p41
aS'->'
p42
aS'variable_7'
p43
ag36
ag37
aS'Request'
p44
aS'-'
p45
aS'Range'
p46
ag37
ag10
ag14
aS'if'
p47
ag6
ag29
aS'variable_2'
p48
aS'||'
p49
aS'func_3'
p50
ag6
aS'variable_2'
p51
ag36
ag37
aS'bytes'
p52
ag31
ag37
ag36
aS'6'
p53
ag10
aS'||'
p54
aS'variable_1'
p55
aS'->'
p56
aS'variable_8'
p57
aS'!='
p58
aS'variable_9'
p59
ag10
aS'if'
p60
ag6
aS'func_4'
p61
ag6
aS'variable_1'
p62
aS'->'
p63
aS'variable_10'
p64
ag36
ag37
aS'Content'
p65
ag45
aS'Range'
p66
ag37
ag10
ag10
aS'if'
p67
ag6
ag6
aS'variable_5'
p68
ag31
aS'func_5'
p69
ag6
aS'variable_1'
p70
aS'->'
p71
aS'variable_10'
p72
ag36
ag37
aS'Content'
p73
ag45
aS'Type'
p74
ag37
ag10
ag10
aS'&&'
p75
ag6
ag29
aS'func_6'
p76
ag6
aS'variable_5'
p77
ag36
ag37
aS'multipart'
p78
aS'/'
p79
aS'byteranges'
p80
ag37
ag36
aS'20'
p81
ag10
aS'||'
p82
ag29
aS'func_7'
p83
ag6
aS'variable_5'
p84
ag36
ag37
aS'multipart'
p85
ag79
aS'x'
p86
ag45
aS'byteranges'
p87
ag37
ag36
aS'22'
p88
ag10
ag10
ag10
aS'if'
p89
ag6
aS'variable_3'
p90
ag31
aS'func_8'
p91
ag6
aS'variable_1'
p92
aS'->'
p93
aS'variable_7'
p94
ag36
ag37
aS'If'
p95
ag45
aS'Range'
p96
ag37
ag10
ag10
aS'if'
p97
ag6
aS'variable_3'
p98
aS'['
p99
aS'0'
p100
aS']'
p101
aS'=='
p102
aS"'"
p103
ag37
ag103
ag10
aS'if'
p104
ag6
ag29
ag6
aS'variable_4'
p105
ag31
aS'func_9'
p106
ag6
aS'variable_1'
p107
aS'->'
p108
aS'variable_10'
p109
ag36
ag37
aS'Last'
p110
ag45
aS'Modified'
p111
ag37
ag10
ag10
aS'||'
p112
ag6
aS'strcmp'
p113
ag6
aS'variable_3'
p114
ag36
aS'variable_4'
p115
ag10
aS'!='
p116
ag100
ag10
ag10
aa(lp117
S'static'
p118
aS'int'
p119
aS'func_0'
p120
ag6
aS'variable_0'
p121
ag8
aS'variable_1'
p122
ag10
aS'const'
p123
aS'char'
p124
ag8
aS'variable_2'
p125
ag14
aS'const'
p126
aS'char'
p127
ag8
aS'variable_3'
p128
ag14
aS'const'
p129
aS'char'
p130
ag8
aS'variable_4'
p131
ag14
aS'const'
p132
aS'char'
p133
ag8
aS'variable_5'
p134
ag14
aS'if'
p135
ag6
aS'variable_1'
p136
aS'->'
p137
aS'variable_6'
p138
ag10
aS'if'
p139
ag6
ag29
ag6
aS'variable_2'
p140
ag31
aS'func_1'
p141
ag6
aS'variable_1'
p142
aS'->'
p143
aS'variable_7'
p144
ag36
ag37
aS'Range'
p145
ag37
ag10
ag10
ag10
aS'variable_2'
p146
ag31
aS'func_2'
p147
ag6
aS'variable_1'
p148
aS'->'
p149
aS'variable_7'
p150
ag36
ag37
aS'Request'
p151
ag45
aS'Range'
p152
ag37
ag10
ag14
aS'if'
p153
ag6
ag29
aS'variable_2'
p154
aS'||'
p155
aS'func_3'
p156
ag6
aS'variable_2'
p157
ag36
ag37
aS'bytes'
p158
ag31
ag37
ag36
ag53
ag10
aS'||'
p159
aS'variable_1'
p160
aS'->'
p161
aS'variable_8'
p162
aS'!='
p163
aS'variable_9'
p164
ag10
aS'if'
p165
ag6
aS'func_4'
p166
ag6
aS'variable_1'
p167
aS'->'
p168
aS'variable_10'
p169
ag36
ag37
aS'Content'
p170
ag45
aS'Range'
p171
ag37
ag10
ag10
aS'if'
p172
ag6
ag6
aS'variable_5'
p173
ag31
aS'func_5'
p174
ag6
aS'variable_1'
p175
aS'->'
p176
aS'variable_10'
p177
ag36
ag37
aS'Content'
p178
ag45
aS'Type'
p179
ag37
ag10
ag10
aS'&&'
p180
ag6
ag29
aS'func_6'
p181
ag6
aS'variable_5'
p182
ag36
ag37
aS'multipart'
p183
ag79
aS'byteranges'
p184
ag37
ag36
aS'20'
p185
ag10
aS'||'
p186
ag29
aS'func_7'
p187
ag6
aS'variable_5'
p188
ag36
ag37
aS'multipart'
p189
ag79
ag86
ag45
aS'byteranges'
p190
ag37
ag36
aS'22'
p191
ag10
ag10
ag10
aS'if'
p192
ag6
aS'variable_3'
p193
ag31
aS'func_8'
p194
ag6
aS'variable_1'
p195
aS'->'
p196
aS'variable_7'
p197
ag36
ag37
aS'If'
p198
ag45
aS'Range'
p199
ag37
ag10
ag10
aS'if'
p200
ag6
aS'variable_3'
p201
ag99
ag100
ag101
aS'=='
p202
ag103
ag37
ag103
ag10
aS'if'
p203
ag6
ag29
ag6
aS'variable_4'
p204
ag31
aS'func_9'
p205
ag6
aS'variable_1'
p206
aS'->'
p207
aS'variable_10'
p208
ag36
ag37
aS'Etag'
p209
ag37
ag10
ag10
aS'||'
p210
ag6
aS'strcmp'
p211
ag6
aS'variable_3'
p212
ag36
aS'variable_4'
p213
ag10
aS'!='
p214
ag100
ag10
ag10
aaa(lp215
I0
aI0
aa(lp216
I205
aI203
aa(lp217
(lp218
S'main'
p219
aa(lp220
g219
aaa(lp221
S'739 /home/SySeVR/data/CVE_2011_3192_VULN_ap_set_byterange.c strcmp 54'
p222
aS'740 /home/SySeVR/data/CVE_2011_3192_VULN_ap_set_byterange.c strcmp 49'
p223
aa.