(lp0
(lp1
(lp2
S'func_0'
p3
aS'('
p4
aS'variable_0'
p5
aS'*'
p6
aS'variable_1'
p7
aS','
p8
aS'variable_2'
p9
ag6
aS'variable_3'
p10
ag8
aS'variable_4'
p11
ag6
aS')'
p12
aS'if'
p13
ag4
aS'variable_7'
p14
aS'>'
p15
aS'variable_8'
p16
ag12
aS'if'
p17
ag4
aS'variable_9'
p18
ag12
aS'variable_5'
p19
ag6
aS'variable_10'
p20
aS';'
p21
aS'variable_10'
p22
aS'='
p23
aS'func_1'
p24
ag4
aS'variable_7'
p25
ag6
aS'sizeof'
p26
ag4
aS'variable_5'
p27
ag12
ag12
ag21
aS'variable_10'
p28
aS'['
p29
aS'variable_11'
p30
aS'++'
p31
aS']'
p32
ag23
aS'variable_12'
p33
aS'->'
p34
aS'variable_13'
p35
ag21
aS'variable_10'
p36
ag29
aS'variable_11'
p37
aS'++'
p38
ag32
ag23
aS'variable_7'
p39
ag21
aS'if'
p40
ag4
aS'variable_11'
p41
ag15
ag23
aS'variable_14'
p42
ag12
aS'func_2'
p43
ag4
aS'variable_15'
p44
ag8
aS'variable_1'
p45
ag8
aS'0'
p46
ag8
aS'-'
p47
aS'1'
p48
ag8
aS'"'
p49
aS'want'
p50
aS'%'
p51
aS'd'
p52
ag8
aS'got'
p53
ag51
ag52
aS'need'
p54
ag51
ag52
ag49
ag8
aS'variable_7'
p55
ag8
aS'variable_11'
p56
ag8
aS'variable_14'
p57
ag12
ag21
aS'for'
p58
ag4
aS'variable_16'
p59
ag23
ag46
ag21
aS'variable_16'
p60
aS'<'
p61
aS'variable_11'
p62
ag21
aS'variable_16'
p63
aS'++'
p64
ag12
aS'guint'
p65
aS'variable_17'
p66
ag23
aS'variable_10'
p67
ag29
aS'variable_16'
p68
ag32
ag21
aS'if'
p69
ag4
aS'variable_17'
p70
ag15
aS'variable_8'
p71
ag12
aS'func_3'
p72
ag4
aS'variable_15'
p73
ag8
aS'variable_1'
p74
ag8
ag46
ag8
ag47
ag48
ag8
ag49
ag29
aS'Reassembly'
p75
aS'of'
p76
ag51
ag52
aS'fragments'
p77
aS'not'
p78
aS'attempted'
p79
ag32
ag49
ag8
aS'variable_17'
p80
ag12
ag21
aS'for'
p81
ag4
ag21
aS'variable_18'
p82
ag61
aS'variable_17'
p83
ag21
aS'variable_18'
p84
aS'++'
p85
ag12
aaa(lp86
I0
aa(lp87
I39
aa(lp88
(lp89
S'main'
p90
aaa(lp91
S'466 /home/SySeVR/data/CVE_2013_1588_VULN_dissect_pft_fec_detailed.c got = ep_alloc ( fcount * sizeof ( guint32 ) ) 45'
p92
aa.