(lp0
(lp1
(lp2
S'static'
p3
aS'int'
p4
aS'func_0'
p5
aS'('
p6
aS'struct'
p7
aS'variable_0'
p8
aS'*'
p9
aS'variable_1'
p10
aS','
p11
aS'struct'
p12
aS'variable_2'
p13
ag9
aS'variable_3'
p14
aS')'
p15
aS'memcpy'
p16
ag6
aS'&'
p17
aS'variable_1'
p18
aS'->'
p19
aS'variable_4'
p20
ag11
ag17
aS'variable_5'
p21
aS'->'
p22
aS'variable_6'
p23
ag11
aS'sizeof'
p24
ag6
aS'variable_1'
p25
aS'->'
p26
aS'variable_4'
p27
ag15
ag15
aS';'
p28
aS'memcpy'
p29
ag6
ag17
aS'variable_1'
p30
aS'->'
p31
aS'variable_7'
p32
ag11
ag17
aS'variable_5'
p33
aS'->'
p34
aS'variable_8'
p35
ag11
aS'sizeof'
p36
ag6
aS'variable_1'
p37
aS'->'
p38
aS'variable_7'
p39
ag15
ag15
ag28
aS'memcpy'
p40
ag6
ag17
aS'variable_1'
p41
aS'->'
p42
aS'variable_9'
p43
ag11
aS'func_1'
p44
ag6
aS'variable_5'
p45
aS'->'
p46
aS'variable_10'
p47
ag15
ag11
aS'variable_11'
p48
ag15
ag28
aS'variable_1'
p49
aS'->'
p50
aS'variable_12'
p51
aS'='
p52
aS'variable_5'
p53
aS'->'
p54
aS'variable_13'
p55
ag28
aS'variable_1'
p56
aS'->'
p57
aS'variable_14'
p58
ag52
aS'func_2'
p59
ag6
ag17
aS'variable_5'
p60
aS'->'
p61
aS'variable_15'
p62
ag15
ag28
aaa(lp63
I1
aa(lp64
I55
aa(lp65
(lp66
S'main'
p67
aaa(lp68
S'529 /home/SySeVR/data/CVE_2013_2547_VULN_crypto_report_one.c memcpy 7'
p69
aa.