(lp0
(lp1
(lp2
S'int'
p3
aS'func_0'
p4
aS'('
p5
aS'struct'
p6
aS'variable_0'
p7
aS'*'
p8
aS'variable_1'
p9
aS')'
p10
aS'int'
p11
aS'variable_2'
p12
aS';'
p13
aS'variable_2'
p14
aS'='
p15
aS'func_1'
p16
ag5
aS'variable_1'
p17
ag10
ag13
aS'if'
p18
ag5
aS'variable_2'
p19
ag10
aS'variable_1'
p20
aS'->'
p21
aS'variable_3'
p22
ag15
aS'1'
p23
ag13
aS'memset'
p24
ag5
aS'variable_1'
p25
aS'->'
p26
aS'variable_4'
p27
aS','
p28
aS'0'
p29
ag28
aS'variable_5'
p30
ag10
ag13
aS'return'
p31
aS'func_2'
p32
ag5
aS'variable_1'
p33
aS'->'
p34
aS'variable_6'
p35
ag28
ag29
ag28
aS'variable_1'
p36
aS'->'
p37
aS'variable_4'
p38
ag28
aS'variable_5'
p39
ag10
ag13
aaa(lp40
I0
aa(lp41
I28
aa(lp42
(lp43
S'main'
p44
aaa(lp45
S'148 /home/SySeVR/data/CVE_2015_3339_PATCHED_prepare_binprm.c memset 13'
p46
aa.