(lp0
(lp1
(lp2
S'func_0'
p3
aS'('
p4
aS'FT_Stream'
p5
aS'variable_0'
p6
aS')'
p7
aS'FT_Error'
p8
aS'variable_1'
p9
aS';'
p10
aS'FT_ULong'
p11
aS'variable_2'
p12
ag10
aS'variable_3'
p13
aS'*'
p14
aS'variable_4'
p15
ag10
aS'variable_3'
p16
ag14
aS'variable_5'
p17
ag10
aS'FT_UInt'
p18
aS'variable_6'
p19
aS','
p20
aS'variable_7'
p21
ag10
aS'variable_1'
p22
aS'='
p23
aS'variable_8'
p24
aS'->'
p25
aS'func_1'
p26
ag4
aS'variable_8'
p27
ag20
aS'variable_9'
p28
ag20
aS'variable_0'
p29
ag20
aS'&'
p30
aS'variable_2'
p31
ag7
ag10
aS'if'
p32
ag4
aS'variable_1'
p33
ag7
aS'if'
p34
ag4
aS'variable_2'
p35
aS'<'
p36
aS'4'
p37
ag7
aS'if'
p38
ag4
aS'func_2'
p39
ag4
aS'variable_2'
p40
ag20
aS'variable_8'
p41
aS'->'
p42
aS'variable_10'
p43
ag7
ag7
aS'variable_8'
p44
aS'->'
p45
aS'variable_11'
p46
ag23
aS'variable_2'
p47
ag10
aS'variable_4'
p48
ag23
aS'variable_8'
p49
aS'->'
p50
aS'variable_10'
p51
ag10
aS'variable_5'
p52
ag23
aS'variable_4'
p53
aS'+'
p54
aS'variable_2'
p55
ag10
aS'variable_4'
p56
aS'+='
p57
aS'2'
p58
ag10
aS'variable_7'
p59
ag23
aS'func_3'
p60
ag4
aS'variable_4'
p61
ag7
ag10
aS'if'
p62
ag4
aS'variable_7'
p63
aS'>'
p64
aS'32'
p65
ag7
aS'variable_7'
p66
ag23
aS'32'
p67
ag10
aS'for'
p68
ag4
aS'variable_6'
p69
ag23
aS'0'
p70
ag10
aS'variable_6'
p71
ag36
aS'variable_7'
p72
ag10
aS'variable_6'
p73
aS'++'
p74
ag7
aS'FT_UInt'
p75
aS'variable_12'
p76
ag20
aS'variable_13'
p77
ag20
aS'variable_14'
p78
ag10
aS'variable_3'
p79
ag14
aS'variable_15'
p80
ag10
aS'if'
p81
ag4
aS'variable_4'
p82
ag54
aS'6'
p83
ag64
aS'variable_5'
p84
ag7
aS'variable_15'
p85
ag23
aS'variable_4'
p86
ag10
aS'variable_4'
p87
aS'+='
p88
ag58
ag10
aS'variable_13'
p89
ag23
aS'func_4'
p90
ag4
aS'variable_4'
p91
ag7
ag10
aS'variable_14'
p92
ag23
aS'func_5'
p93
ag4
aS'variable_4'
p94
ag7
ag10
aS'if'
p95
ag4
aS'variable_13'
p96
ag36
ag23
ag83
ag7
aS'variable_15'
p97
aS'+='
p98
aS'variable_13'
p99
ag10
aS'if'
p100
ag4
aS'variable_15'
p101
ag64
aS'variable_5'
p102
ag7
aS'variable_15'
p103
ag23
aS'variable_5'
p104
ag10
aS'if'
p105
ag4
ag4
aS'variable_14'
p106
ag30
aS'~'
p107
aS'8'
p108
ag7
aS'!='
p109
aS'0x0001'
p110
aS'||'
p111
aS'variable_4'
p112
ag54
ag108
ag64
aS'variable_5'
p113
ag7
aS'variable_12'
p114
ag23
aS'func_6'
p115
ag4
aS'variable_4'
p116
ag7
ag10
aS'variable_4'
p117
aS'+='
p118
ag83
ag10
aS'if'
p119
ag4
ag4
aS'variable_15'
p120
aS'-'
p121
aS'variable_4'
p122
ag7
ag36
ag83
ag14
ag4
aS'int'
p123
ag7
aS'variable_12'
p124
ag7
aS'variable_12'
p125
ag23
ag4
aS'variable_16'
p126
ag7
ag4
ag4
aS'variable_15'
p127
ag121
aS'variable_4'
p128
ag7
aS'/'
p129
ag83
ag7
ag10
aS'if'
p130
ag4
aS'variable_12'
p131
ag64
ag70
ag7
aS'for'
p132
ag4
aS'variable_17'
p133
ag23
aS'variable_12'
p134
ag121
aS'1'
p135
ag10
aS'variable_17'
p136
ag64
ag70
ag10
aS'variable_17'
p137
aS'--'
p138
ag7
aS'if'
p139
ag4
aS'variable_17'
p140
aS'=='
p141
ag70
ag7
aS'variable_4'
p142
ag23
aS'variable_15'
p143
ag10
aa(lp144
S'func_0'
p145
ag4
aS'FT_Stream'
p146
aS'variable_0'
p147
ag7
aS'FT_Error'
p148
aS'variable_1'
p149
ag10
aS'FT_ULong'
p150
aS'variable_2'
p151
ag10
aS'variable_3'
p152
ag14
aS'variable_4'
p153
ag10
aS'variable_3'
p154
ag14
aS'variable_5'
p155
ag10
aS'variable_1'
p156
ag23
aS'variable_6'
p157
aS'->'
p158
aS'func_1'
p159
ag4
aS'variable_6'
p160
ag20
aS'variable_7'
p161
ag20
aS'variable_0'
p162
ag20
ag30
aS'variable_2'
p163
ag7
ag10
aS'if'
p164
ag4
aS'variable_1'
p165
ag7
aS'if'
p166
ag4
aS'variable_2'
p167
ag36
ag37
ag7
aS'if'
p168
ag4
aS'func_2'
p169
ag4
aS'variable_2'
p170
ag20
aS'variable_6'
p171
aS'->'
p172
aS'variable_8'
p173
ag7
ag7
aS'variable_6'
p174
aS'->'
p175
aS'variable_9'
p176
ag23
aS'variable_2'
p177
ag10
aS'variable_4'
p178
ag23
aS'variable_6'
p179
aS'->'
p180
aS'variable_8'
p181
ag10
aS'variable_5'
p182
ag23
aS'variable_4'
p183
ag54
aS'variable_2'
p184
ag10
aS'if'
p185
ag4
aS'variable_4'
p186
ag54
ag83
ag64
aS'variable_5'
p187
ag7
aS'variable_10'
p188
ag23
aS'variable_4'
p189
ag10
aS'variable_4'
p190
aS'+='
p191
ag58
ag10
aS'variable_11'
p192
ag23
aS'func_3'
p193
ag4
aS'variable_4'
p194
ag7
ag10
aS'variable_12'
p195
ag23
aS'func_4'
p196
ag4
aS'variable_4'
p197
ag7
ag10
aS'if'
p198
ag4
aS'variable_11'
p199
ag36
ag23
ag83
ag7
aS'variable_10'
p200
aS'+='
p201
aS'variable_11'
p202
ag10
aS'if'
p203
ag4
aS'variable_10'
p204
ag64
aS'variable_5'
p205
ag7
aS'variable_10'
p206
ag23
aS'variable_5'
p207
ag10
aS'if'
p208
ag4
ag4
aS'variable_12'
p209
ag30
ag107
ag108
ag7
aS'!='
p210
aS'0x0001'
p211
aS'||'
p212
aS'variable_4'
p213
ag54
ag108
ag64
aS'variable_5'
p214
ag7
aS'variable_13'
p215
ag23
aS'func_5'
p216
ag4
aS'variable_4'
p217
ag7
ag10
aS'variable_4'
p218
aS'+='
p219
ag83
ag10
aS'if'
p220
ag4
ag4
aS'variable_10'
p221
ag121
aS'variable_4'
p222
ag7
ag36
ag83
ag14
ag4
aS'int'
p223
ag7
aS'variable_13'
p224
ag7
aS'variable_13'
p225
ag23
ag4
aS'variable_14'
p226
ag7
ag4
ag4
aS'variable_10'
p227
ag121
aS'variable_4'
p228
ag7
ag129
ag83
ag7
ag10
aS'if'
p229
ag4
aS'variable_13'
p230
ag64
ag70
ag7
aS'variable_15'
p231
ag23
aS'func_6'
p232
ag4
aS'variable_4'
p233
ag7
ag10
aS'variable_4'
p234
aS'+='
p235
ag58
ag10
aS'for'
p236
ag4
aS'variable_16'
p237
ag23
aS'variable_13'
p238
ag121
ag135
ag10
aS'variable_16'
p239
ag64
ag70
ag10
aS'variable_16'
p240
aS'--'
p241
ag7
aS'variable_17'
p242
ag23
aS'func_7'
p243
ag4
aS'variable_4'
p244
ag7
ag10
aS'if'
p245
ag4
aS'variable_17'
p246
ag36
ag23
aS'variable_15'
p247
ag7
aS'variable_4'
p248
aS'+='
p249
ag58
ag10
aS'variable_15'
p250
ag23
aS'variable_17'
p251
ag10
aS'if'
p252
ag4
aS'variable_16'
p253
aS'=='
p254
ag70
ag7
aS'variable_4'
p255
ag23
aS'variable_10'
p256
ag10
aaa(lp257
I1
aI1
aa(lp258
I221
aI72
aa(lp259
(lp260
S'main'
p261
aa(lp262
g261
aaa(lp263
S'657 /home/SySeVR/data/CVE_2014_9658_VULN_tt_face_load_kern.c num_pairs = ( FT_UInt ) ( ( p_next - p ) / 6 ) 76'
p264
aS'658 /home/SySeVR/data/CVE_2014_9658_VULN_tt_face_load_kern.c p_limit = p + table_size 35'
p265
aa.