(lp0
(lp1
(lp2
S'static'
p3
aS'int'
p4
aS'func_0'
p5
aS'('
p6
aS'void'
p7
aS'*'
p8
aS'variable_0'
p9
aS','
p10
aS'const'
p11
aS'uint8_t'
p12
ag8
aS'variable_1'
p13
ag10
aS'int'
p14
aS'variable_2'
p15
aS')'
p16
aS'variable_3'
p17
ag8
aS'variable_4'
p18
aS'='
p19
aS'variable_5'
p20
aS'->'
p21
aS'variable_6'
p22
aS';'
p23
aS'int'
p24
aS'variable_7'
p25
ag19
aS'0'
p26
ag23
aS'int'
p27
aS'variable_8'
p28
ag23
aS'int'
p29
aS'variable_9'
p30
ag23
aS'unsigned'
p31
aS'char'
p32
aS'variable_10'
p33
ag23
aS'unsigned'
p34
aS'char'
p35
aS'variable_11'
p36
ag23
aS'unsigned'
p37
aS'int'
p38
aS'variable_12'
p39
ag23
aS'int'
p40
aS'variable_13'
p41
ag23
aS'unsigned'
p42
aS'int'
p43
aS'variable_14'
p44
ag23
aS'int'
p45
aS'variable_15'
p46
ag23
aS'int'
p47
aS'variable_16'
p48
ag10
aS'variable_17'
p49
ag23
aS'int'
p50
aS'variable_18'
p51
ag23
aS'int'
p52
aS'variable_19'
p53
ag23
aS'int'
p54
aS'variable_20'
p55
ag23
aS'unsigned'
p56
aS'char'
p57
aS'variable_21'
p58
ag10
aS'variable_22'
p59
ag10
aS'variable_23'
p60
ag23
aS'int'
p61
aS'variable_24'
p62
ag23
aS'int'
p63
aS'variable_25'
p64
ag23
aS'int'
p65
aS'variable_26'
p66
ag23
aS'signed'
p67
aS'short'
p68
aS'variable_27'
p69
ag23
aS'int'
p70
aS'variable_28'
p71
ag23
aS'int'
p72
aS'variable_29'
p73
ag23
aS'int'
p74
aS'variable_30'
p75
ag23
aS'int'
p76
aS'variable_31'
p77
ag23
aS'unsigned'
p78
aS'char'
p79
ag8
aS'variable_32'
p80
ag23
aS'variable_4'
p81
aS'->'
p82
aS'variable_33'
p83
aS'.'
p84
aS'variable_34'
p85
ag19
aS'1'
p86
ag23
aS'variable_4'
p87
aS'->'
p88
aS'variable_33'
p89
ag84
aS'variable_35'
p90
ag19
aS'variable_36'
p91
aS'|'
p92
aS'variable_37'
p93
ag92
aS'variable_38'
p94
ag23
aS'if'
p95
ag6
aS'variable_5'
p96
aS'->'
p97
aS'func_1'
p98
ag6
aS'variable_5'
p99
ag10
aS'&'
p100
aS'variable_4'
p101
aS'->'
p102
aS'variable_33'
p103
ag16
aS'<'
p104
ag26
ag16
aS'variable_32'
p105
ag19
aS'variable_4'
p106
aS'->'
p107
aS'variable_33'
p108
ag84
aS'variable_0'
p109
aS'['
p110
ag26
aS']'
p111
ag23
aS'variable_12'
p112
ag19
aS'func_2'
p113
ag6
ag100
aS'variable_1'
p114
ag110
aS'variable_7'
p115
ag111
ag16
ag23
aS'variable_7'
p116
aS'+='
p117
aS'6'
p118
ag23
aS'variable_13'
p119
ag19
aS'func_3'
p120
ag6
ag100
aS'variable_1'
p121
ag110
aS'variable_7'
p122
ag111
ag16
ag23
aS'variable_7'
p123
aS'+='
p124
aS'10'
p125
ag23
aS'variable_12'
p126
aS'-='
p127
aS'16'
p128
ag23
aS'while'
p129
ag6
ag6
aS'variable_12'
p130
aS'>'
p131
ag26
ag16
aS'&&'
p132
ag6
aS'variable_13'
p133
ag131
ag26
ag16
ag16
aS'variable_14'
p134
ag19
aS'func_4'
p135
ag6
ag100
aS'variable_1'
p136
ag110
aS'variable_7'
p137
ag111
ag16
ag23
aS'variable_7'
p138
aS'+='
p139
aS'4'
p140
ag23
aS'variable_15'
p141
ag19
aS'func_5'
p142
ag6
ag100
aS'variable_1'
p143
ag110
aS'variable_7'
p144
ag111
ag16
ag23
aS'variable_7'
p145
aS'+='
p146
aS'2'
p147
ag23
aS'switch'
p148
ag6
aS'variable_15'
p149
ag16
aS'variable_8'
p150
ag19
aS'variable_7'
p151
aS'+'
p152
aS'variable_14'
p153
aS'-'
p154
ag118
ag23
aS'if'
p155
ag6
ag6
aS'variable_15'
p156
aS'=='
p157
aS'variable_39'
p158
ag16
aS'&&'
p159
ag6
aS'variable_4'
p160
aS'->'
p161
aS'variable_40'
p162
aS'!='
p163
aS'variable_41'
p164
ag16
ag16
aS'variable_20'
p165
ag19
ag26
ag23
aS'variable_20'
p166
ag19
ag147
ag23
aS'variable_18'
p167
ag19
aS'func_6'
p168
ag6
ag100
aS'variable_1'
p169
ag110
aS'variable_7'
p170
ag111
ag16
ag23
aS'variable_7'
p171
aS'+='
p172
ag147
ag23
aS'variable_9'
p173
ag19
ag26
ag23
aS'for'
p174
ag6
aS'variable_16'
p175
ag19
ag26
ag23
aS'variable_16'
p176
ag104
aS'variable_18'
p177
ag23
aS'variable_16'
p178
aS'++'
p179
ag16
aS'variable_9'
p180
aS'+='
p181
aS'variable_1'
p182
ag110
aS'variable_7'
p183
aS'++'
p184
ag111
ag23
aS'variable_19'
p185
ag19
aS'variable_1'
p186
ag110
aS'variable_7'
p187
aS'++'
p188
ag111
ag23
aS'if'
p189
ag6
aS'variable_19'
p190
aS'=='
p191
ag26
ag16
aS'variable_19'
p192
ag19
aS'256'
p193
ag23
aS'for'
p194
ag6
aS'variable_17'
p195
ag19
ag26
ag23
aS'variable_17'
p196
ag104
aS'variable_19'
p197
ag23
aS'variable_17'
p198
aS'++'
p199
ag16
aS'unsigned'
p200
aS'int'
p201
aS'variable_42'
p202
ag23
aS'if'
p203
ag6
ag6
aS'unsigned'
p204
ag16
aS'variable_9'
p205
ag131
ag19
aS'256'
p206
ag16
aS'variable_9'
p207
ag19
ag26
ag23
aS'variable_21'
p208
ag19
aS'variable_1'
p209
ag110
aS'variable_7'
p210
aS'++'
p211
ag111
aS'<<'
p212
aS'variable_20'
p213
ag23
aS'variable_22'
p214
ag19
aS'variable_1'
p215
ag110
aS'variable_7'
p216
aS'++'
p217
ag111
aS'<<'
p218
aS'variable_20'
p219
ag23
aS'variable_23'
p220
ag19
aS'variable_1'
p221
ag110
aS'variable_7'
p222
aS'++'
p223
ag111
aS'<<'
p224
aS'variable_20'
p225
ag23
aS'variable_42'
p226
ag19
ag6
aS'variable_21'
p227
aS'<<'
p228
aS'16'
p229
ag16
ag92
ag6
aS'variable_22'
p230
aS'<<'
p231
aS'8'
p232
ag16
ag92
aS'variable_23'
p233
ag23
aS'if'
p234
ag6
aS'variable_4'
p235
aS'->'
p236
aS'variable_43'
p237
ag110
aS'variable_9'
p238
ag111
aS'!='
p239
aS'variable_42'
p240
ag16
aS'variable_4'
p241
aS'->'
p242
aS'variable_44'
p243
ag19
ag86
ag23
aS'variable_4'
p244
aS'->'
p245
aS'variable_43'
p246
ag110
aS'variable_9'
p247
aS'++'
p248
ag111
ag19
aS'variable_42'
p249
ag23
aS'variable_7'
p250
ag19
aS'variable_8'
p251
ag23
aS'variable_28'
p252
ag19
ag26
ag23
aS'variable_25'
p253
ag19
aS'func_7'
p254
ag6
ag100
aS'variable_1'
p255
ag110
aS'variable_7'
p256
ag111
ag16
ag23
aS'variable_7'
p257
aS'+='
p258
ag147
ag23
aS'while'
p259
ag6
aS'variable_25'
p260
ag131
ag26
ag16
aS'variable_27'
p261
ag19
aS'func_8'
p262
ag6
ag100
aS'variable_1'
p263
ag110
aS'variable_7'
p264
ag111
ag16
ag23
aS'variable_7'
p265
aS'+='
p266
ag147
ag23
aS'if'
p267
ag6
ag6
aS'variable_27'
p268
ag100
aS'0xC000'
p269
ag16
aS'=='
p270
aS'0xC000'
p271
ag16
aS'variable_27'
p272
ag19
ag154
aS'variable_27'
p273
ag23
aS'variable_28'
p274
aS'+='
p275
aS'variable_27'
p276
ag8
aS'variable_4'
p277
aS'->'
p278
aS'variable_33'
p279
ag84
aS'variable_45'
p280
ag110
ag26
ag111
ag23
aS'if'
p281
ag6
ag6
aS'variable_27'
p282
ag100
aS'0xC000'
p283
ag16
aS'=='
p284
aS'0x4000'
p285
ag16
aS'if'
p286
ag6
ag6
aS'variable_27'
p287
ag100
aS'0xC000'
p288
ag16
aS'=='
p289
aS'0x8000'
p290
ag16
aS'variable_32'
p291
ag110
aS'variable_28'
p292
ag152
aS'variable_4'
p293
aS'->'
p294
aS'variable_33'
p295
ag84
aS'variable_45'
p296
ag110
ag26
ag111
ag154
ag86
ag111
ag19
aS'variable_27'
p297
ag100
aS'0xff'
p298
ag23
aS'variable_25'
p299
aS'--'
p300
ag23
aS'variable_31'
p301
ag19
aS'variable_4'
p302
aS'->'
p303
aS'variable_5'
p304
aS'->'
p305
aS'variable_46'
p306
ag23
aS'for'
p307
ag6
aS'variable_16'
p308
ag19
ag26
ag23
aS'variable_16'
p309
ag104
aS'variable_27'
p310
ag23
aS'variable_16'
p311
aS'++'
p312
ag16
aS'variable_30'
p313
ag19
aS'variable_1'
p314
ag110
aS'variable_7'
p315
aS'++'
p316
ag111
ag23
aS'variable_31'
p317
aS'-='
p318
aS'variable_30'
p319
ag23
aS'variable_29'
p320
ag19
ag6
aS'signed'
p321
aS'char'
p322
ag16
ag6
aS'variable_1'
p323
ag110
aS'variable_7'
p324
aS'++'
p325
ag111
ag16
ag23
aS'if'
p326
ag6
aS'variable_29'
p327
ag104
ag26
ag16
aS'variable_29'
p328
ag19
ag154
aS'variable_29'
p329
ag23
aS'variable_10'
p330
ag19
aS'variable_1'
p331
ag110
aS'variable_7'
p332
aS'++'
p333
ag111
ag23
aS'variable_11'
p334
ag19
aS'variable_1'
p335
ag110
aS'variable_7'
p336
aS'++'
p337
ag111
ag23
aS'for'
p338
ag6
aS'variable_17'
p339
ag19
ag26
ag23
aS'variable_17'
p340
ag104
aS'variable_29'
p341
ag23
aS'variable_17'
p342
aS'++'
p343
ag10
aS'variable_31'
p344
aS'-='
p345
ag147
ag16
aS'for'
p346
ag6
aS'variable_17'
p347
ag19
ag26
ag23
aS'variable_17'
p348
ag104
aS'variable_29'
p349
ag8
ag147
ag23
aS'variable_17'
p350
aS'++'
p351
ag10
aS'variable_31'
p352
aS'--'
p353
ag16
aS'variable_10'
p354
ag19
aS'variable_1'
p355
ag110
aS'variable_7'
p356
aS'++'
p357
ag111
ag23
aS'variable_28'
p358
aS'+='
p359
aS'variable_4'
p360
aS'->'
p361
aS'variable_33'
p362
ag84
aS'variable_45'
p363
ag110
ag26
ag111
ag23
aS'variable_26'
p364
ag19
aS'func_9'
p365
ag6
ag100
aS'variable_1'
p366
ag110
aS'variable_7'
p367
ag111
ag16
ag23
aS'variable_7'
p368
aS'+='
p369
ag147
ag23
aS'variable_28'
p370
ag19
ag26
ag23
aS'variable_28'
p371
aS'+='
p372
aS'variable_26'
p373
ag8
aS'variable_4'
p374
aS'->'
p375
aS'variable_33'
p376
ag84
aS'variable_45'
p377
ag110
ag26
ag111
ag23
aS'variable_25'
p378
ag19
aS'func_10'
p379
ag6
ag100
aS'variable_1'
p380
ag110
aS'variable_7'
p381
ag111
ag16
ag23
aS'variable_7'
p382
aS'+='
p383
ag147
ag23
aS'while'
p384
ag6
aS'variable_25'
p385
ag131
ag26
ag16
aS'variable_31'
p386
ag19
aS'variable_4'
p387
aS'->'
p388
aS'variable_5'
p389
aS'->'
p390
aS'variable_46'
p391
ag23
aS'variable_27'
p392
ag19
aS'variable_1'
p393
ag110
aS'variable_7'
p394
aS'++'
p395
ag111
ag23
aS'if'
p396
ag6
aS'variable_27'
p397
ag131
ag26
ag16
aS'for'
p398
ag6
aS'variable_16'
p399
ag19
ag26
ag23
aS'variable_16'
p400
ag104
aS'variable_27'
p401
ag23
aS'variable_16'
p402
aS'++'
p403
ag16
aS'variable_30'
p404
ag19
aS'variable_1'
p405
ag110
aS'variable_7'
p406
aS'++'
p407
ag111
ag23
aS'variable_31'
p408
aS'-='
p409
aS'variable_30'
p410
ag23
aS'variable_29'
p411
ag19
ag6
aS'signed'
p412
aS'char'
p413
ag16
ag6
aS'variable_1'
p414
ag110
aS'variable_7'
p415
aS'++'
p416
ag111
ag16
ag23
aS'if'
p417
ag6
aS'variable_29'
p418
ag131
ag26
ag16
aS'for'
p419
ag6
aS'variable_17'
p420
ag19
ag26
ag23
aS'variable_17'
p421
ag104
aS'variable_29'
p422
ag23
aS'variable_17'
p423
aS'++'
p424
ag10
aS'variable_31'
p425
aS'--'
p426
ag16
aS'variable_10'
p427
ag19
aS'variable_1'
p428
ag110
aS'variable_7'
p429
aS'++'
p430
ag111
ag23
aS'if'
p431
ag6
aS'variable_29'
p432
ag104
ag26
ag16
aS'variable_29'
p433
ag19
ag154
aS'variable_29'
p434
ag23
aS'variable_10'
p435
ag19
aS'variable_1'
p436
ag110
aS'variable_7'
p437
aS'++'
p438
ag111
ag23
aS'for'
p439
ag6
aS'variable_17'
p440
ag19
ag26
ag23
aS'variable_17'
p441
ag104
aS'variable_29'
p442
ag23
aS'variable_17'
p443
aS'++'
p444
ag10
aS'variable_31'
p445
aS'--'
p446
ag16
aS'variable_28'
p447
aS'+='
p448
aS'variable_4'
p449
aS'->'
p450
aS'variable_33'
p451
ag84
aS'variable_45'
p452
ag110
ag26
ag111
ag23
aS'variable_25'
p453
aS'--'
p454
ag23
aS'variable_28'
p455
ag19
ag26
ag23
aS'for'
p456
ag6
aS'variable_24'
p457
ag19
ag26
ag23
aS'variable_24'
p458
ag104
aS'variable_4'
p459
aS'->'
p460
aS'variable_5'
p461
aS'->'
p462
aS'variable_47'
p463
ag23
aS'variable_24'
p464
aS'++'
p465
ag16
aS'variable_7'
p466
aS'++'
p467
ag23
aS'variable_31'
p468
ag19
aS'variable_4'
p469
aS'->'
p470
aS'variable_5'
p471
aS'->'
p472
aS'variable_46'
p473
ag23
aS'while'
p474
ag6
aS'variable_31'
p475
ag131
ag26
ag16
aS'variable_29'
p476
ag19
ag6
aS'signed'
p477
aS'char'
p478
ag16
ag6
aS'variable_1'
p479
ag110
aS'variable_7'
p480
aS'++'
p481
ag111
ag16
ag23
aS'if'
p482
ag6
aS'variable_29'
p483
ag131
ag26
ag16
aS'variable_10'
p484
ag19
aS'variable_1'
p485
ag110
aS'variable_7'
p486
aS'++'
p487
ag111
ag23
aS'for'
p488
ag6
aS'variable_17'
p489
ag19
ag26
ag23
aS'variable_17'
p490
ag104
aS'variable_29'
p491
ag23
aS'variable_17'
p492
aS'++'
p493
ag16
aS'variable_31'
p494
aS'--'
p495
ag23
aS'variable_29'
p496
ag19
ag154
aS'variable_29'
p497
ag23
aS'for'
p498
ag6
aS'variable_17'
p499
ag19
ag26
ag23
aS'variable_17'
p500
ag104
aS'variable_29'
p501
ag23
aS'variable_17'
p502
aS'++'
p503
ag16
aS'variable_10'
p504
ag19
aS'variable_1'
p505
ag110
aS'variable_7'
p506
aS'++'
p507
ag111
ag23
aS'variable_31'
p508
aS'--'
p509
ag23
aS'variable_28'
p510
aS'+='
p511
aS'variable_4'
p512
aS'->'
p513
aS'variable_33'
p514
ag84
aS'variable_45'
p515
ag110
ag26
ag111
ag23
aS'if'
p516
ag6
aS'variable_14'
p517
ag154
ag118
ag131
aS'variable_4'
p518
aS'->'
p519
aS'variable_5'
p520
aS'->'
p521
aS'variable_46'
p522
ag8
aS'variable_4'
p523
aS'->'
p524
aS'variable_5'
p525
aS'->'
p526
aS'variable_47'
p527
ag16
aS'variable_7'
p528
aS'+='
p529
aS'variable_14'
p530
ag154
ag118
ag23
aS'for'
p531
ag6
aS'variable_28'
p532
ag19
ag26
ag23
aS'variable_28'
p533
ag104
aS'variable_4'
p534
aS'->'
p535
aS'variable_33'
p536
ag84
aS'variable_45'
p537
ag110
ag26
ag111
ag8
aS'variable_28'
p538
aS'+='
p539
aS'variable_4'
p540
aS'->'
p541
aS'variable_33'
p542
ag84
aS'variable_45'
p543
ag110
ag26
ag111
ag16
aS'variable_7'
p544
aS'+='
p545
aS'variable_4'
p546
aS'->'
p547
aS'variable_5'
p548
aS'->'
p549
aS'variable_46'
p550
ag23
aS'variable_7'
p551
aS'+='
p552
aS'variable_14'
p553
ag154
ag118
ag23
aS'variable_12'
p554
aS'-='
p555
aS'variable_14'
p556
ag23
aS'variable_13'
p557
aS'--'
p558
ag23
aS'memcpy'
p559
ag6
aS'variable_4'
p560
aS'->'
p561
aS'variable_33'
p562
ag84
aS'variable_0'
p563
ag110
ag86
ag111
ag10
aS'variable_4'
p564
aS'->'
p565
aS'variable_43'
p566
ag10
aS'variable_48'
p567
ag16
ag23
aS'variable_4'
p568
aS'->'
p569
aS'variable_33'
p570
ag84
aS'variable_49'
p571
ag19
ag86
ag23
aS'variable_4'
p572
aS'->'
p573
aS'variable_44'
p574
ag19
ag26
ag23
ag8
ag6
aS'AVFrame'
p575
ag8
ag16
aS'variable_0'
p576
ag19
aS'variable_4'
p577
aS'->'
p578
aS'variable_33'
p579
ag23
aa(lp580
S'static'
p581
aS'int'
p582
aS'func_0'
p583
ag6
aS'void'
p584
ag8
aS'variable_0'
p585
ag10
aS'const'
p586
aS'uint8_t'
p587
ag8
aS'variable_1'
p588
ag10
aS'int'
p589
aS'variable_2'
p590
ag16
aS'variable_3'
p591
ag8
aS'variable_4'
p592
ag19
aS'variable_5'
p593
aS'->'
p594
aS'variable_6'
p595
ag23
aS'int'
p596
aS'variable_7'
p597
ag19
ag26
ag23
aS'int'
p598
aS'variable_8'
p599
ag23
aS'int'
p600
aS'variable_9'
p601
ag23
aS'int'
p602
aS'variable_10'
p603
ag23
aS'unsigned'
p604
aS'char'
p605
aS'variable_11'
p606
ag23
aS'unsigned'
p607
aS'char'
p608
aS'variable_12'
p609
ag23
aS'unsigned'
p610
aS'int'
p611
aS'variable_13'
p612
ag23
aS'int'
p613
aS'variable_14'
p614
ag23
aS'unsigned'
p615
aS'int'
p616
aS'variable_15'
p617
ag23
aS'int'
p618
aS'variable_16'
p619
ag23
aS'int'
p620
aS'variable_17'
p621
ag10
aS'variable_18'
p622
ag23
aS'int'
p623
aS'variable_19'
p624
ag23
aS'int'
p625
aS'variable_20'
p626
ag23
aS'int'
p627
aS'variable_21'
p628
ag23
aS'unsigned'
p629
aS'char'
p630
aS'variable_22'
p631
ag10
aS'variable_23'
p632
ag10
aS'variable_24'
p633
ag23
aS'int'
p634
aS'variable_25'
p635
ag23
aS'int'
p636
aS'variable_26'
p637
ag23
aS'int'
p638
aS'variable_27'
p639
ag23
aS'signed'
p640
aS'short'
p641
aS'variable_28'
p642
ag23
aS'int'
p643
aS'variable_29'
p644
ag23
aS'int'
p645
aS'variable_30'
p646
ag23
aS'int'
p647
aS'variable_31'
p648
ag23
aS'int'
p649
aS'variable_32'
p650
ag23
aS'unsigned'
p651
aS'char'
p652
ag8
aS'variable_33'
p653
ag23
aS'variable_4'
p654
aS'->'
p655
aS'variable_34'
p656
ag84
aS'variable_35'
p657
ag19
ag86
ag23
aS'variable_4'
p658
aS'->'
p659
aS'variable_34'
p660
ag84
aS'variable_36'
p661
ag19
aS'variable_37'
p662
ag92
aS'variable_38'
p663
ag92
aS'variable_39'
p664
ag23
aS'if'
p665
ag6
aS'variable_5'
p666
aS'->'
p667
aS'func_1'
p668
ag6
aS'variable_5'
p669
ag10
ag100
aS'variable_4'
p670
aS'->'
p671
aS'variable_34'
p672
ag16
ag104
ag26
ag16
aS'variable_33'
p673
ag19
aS'variable_4'
p674
aS'->'
p675
aS'variable_34'
p676
ag84
aS'variable_0'
p677
ag110
ag26
ag111
ag23
aS'variable_13'
p678
ag19
aS'func_2'
p679
ag6
ag100
aS'variable_1'
p680
ag110
aS'variable_7'
p681
ag111
ag16
ag23
aS'variable_7'
p682
aS'+='
p683
ag118
ag23
aS'variable_14'
p684
ag19
aS'func_3'
p685
ag6
ag100
aS'variable_1'
p686
ag110
aS'variable_7'
p687
ag111
ag16
ag23
aS'variable_7'
p688
aS'+='
p689
aS'10'
p690
ag23
aS'variable_13'
p691
aS'-='
p692
aS'16'
p693
ag23
aS'while'
p694
ag6
ag6
aS'variable_13'
p695
ag131
ag26
ag16
aS'&&'
p696
ag6
aS'variable_14'
p697
ag131
ag26
ag16
ag16
aS'variable_15'
p698
ag19
aS'func_4'
p699
ag6
ag100
aS'variable_1'
p700
ag110
aS'variable_7'
p701
ag111
ag16
ag23
aS'variable_7'
p702
aS'+='
p703
ag140
ag23
aS'variable_16'
p704
ag19
aS'func_5'
p705
ag6
ag100
aS'variable_1'
p706
ag110
aS'variable_7'
p707
ag111
ag16
ag23
aS'variable_7'
p708
aS'+='
p709
ag147
ag23
aS'switch'
p710
ag6
aS'variable_16'
p711
ag16
aS'variable_8'
p712
ag19
aS'variable_7'
p713
ag152
aS'variable_15'
p714
ag154
ag118
ag23
aS'if'
p715
ag6
ag6
aS'variable_16'
p716
aS'=='
p717
aS'variable_40'
p718
ag16
aS'&&'
p719
ag6
aS'variable_4'
p720
aS'->'
p721
aS'variable_41'
p722
aS'!='
p723
aS'variable_42'
p724
ag16
ag16
aS'variable_21'
p725
ag19
ag26
ag23
aS'variable_21'
p726
ag19
ag147
ag23
aS'variable_19'
p727
ag19
aS'func_6'
p728
ag6
ag100
aS'variable_1'
p729
ag110
aS'variable_7'
p730
ag111
ag16
ag23
aS'variable_7'
p731
aS'+='
p732
ag147
ag23
aS'variable_10'
p733
ag19
ag26
ag23
aS'for'
p734
ag6
aS'variable_17'
p735
ag19
ag26
ag23
aS'variable_17'
p736
ag104
aS'variable_19'
p737
ag23
aS'variable_17'
p738
aS'++'
p739
ag16
aS'variable_10'
p740
aS'+='
p741
aS'variable_1'
p742
ag110
aS'variable_7'
p743
aS'++'
p744
ag111
ag23
aS'variable_20'
p745
ag19
aS'variable_1'
p746
ag110
aS'variable_7'
p747
aS'++'
p748
ag111
ag23
aS'if'
p749
ag6
aS'variable_20'
p750
aS'=='
p751
ag26
ag16
aS'variable_20'
p752
ag19
aS'256'
p753
ag23
aS'for'
p754
ag6
aS'variable_18'
p755
ag19
ag26
ag23
aS'variable_18'
p756
ag104
aS'variable_20'
p757
ag23
aS'variable_18'
p758
aS'++'
p759
ag16
aS'unsigned'
p760
aS'int'
p761
aS'variable_43'
p762
ag23
aS'if'
p763
ag6
ag6
aS'unsigned'
p764
ag16
aS'variable_10'
p765
ag131
ag19
aS'256'
p766
ag16
aS'variable_10'
p767
ag19
ag26
ag23
aS'variable_22'
p768
ag19
aS'variable_1'
p769
ag110
aS'variable_7'
p770
aS'++'
p771
ag111
aS'<<'
p772
aS'variable_21'
p773
ag23
aS'variable_23'
p774
ag19
aS'variable_1'
p775
ag110
aS'variable_7'
p776
aS'++'
p777
ag111
aS'<<'
p778
aS'variable_21'
p779
ag23
aS'variable_24'
p780
ag19
aS'variable_1'
p781
ag110
aS'variable_7'
p782
aS'++'
p783
ag111
aS'<<'
p784
aS'variable_21'
p785
ag23
aS'variable_43'
p786
ag19
ag6
aS'variable_22'
p787
aS'<<'
p788
aS'16'
p789
ag16
ag92
ag6
aS'variable_23'
p790
aS'<<'
p791
ag232
ag16
ag92
aS'variable_24'
p792
ag23
aS'if'
p793
ag6
aS'variable_4'
p794
aS'->'
p795
aS'variable_44'
p796
ag110
aS'variable_10'
p797
ag111
aS'!='
p798
aS'variable_43'
p799
ag16
aS'variable_4'
p800
aS'->'
p801
aS'variable_45'
p802
ag19
ag86
ag23
aS'variable_4'
p803
aS'->'
p804
aS'variable_44'
p805
ag110
aS'variable_10'
p806
aS'++'
p807
ag111
ag19
aS'variable_43'
p808
ag23
aS'variable_7'
p809
ag19
aS'variable_8'
p810
ag23
aS'variable_29'
p811
ag19
ag26
ag23
aS'variable_26'
p812
ag19
aS'func_7'
p813
ag6
ag100
aS'variable_1'
p814
ag110
aS'variable_7'
p815
ag111
ag16
ag23
aS'variable_7'
p816
aS'+='
p817
ag147
ag23
aS'while'
p818
ag6
aS'variable_26'
p819
ag131
ag26
ag16
aS'variable_28'
p820
ag19
aS'func_8'
p821
ag6
ag100
aS'variable_1'
p822
ag110
aS'variable_7'
p823
ag111
ag16
ag23
aS'variable_7'
p824
aS'+='
p825
ag147
ag23
aS'if'
p826
ag6
ag6
aS'variable_28'
p827
ag100
aS'0xC000'
p828
ag16
aS'=='
p829
aS'0xC000'
p830
ag16
aS'variable_28'
p831
ag19
ag154
aS'variable_28'
p832
ag23
aS'variable_29'
p833
aS'+='
p834
aS'variable_28'
p835
ag8
aS'variable_4'
p836
aS'->'
p837
aS'variable_34'
p838
ag84
aS'variable_46'
p839
ag110
ag26
ag111
ag23
aS'if'
p840
ag6
ag6
aS'variable_28'
p841
ag100
aS'0xC000'
p842
ag16
aS'=='
p843
aS'0x4000'
p844
ag16
aS'if'
p845
ag6
ag6
aS'variable_28'
p846
ag100
aS'0xC000'
p847
ag16
aS'=='
p848
aS'0x8000'
p849
ag16
aS'variable_33'
p850
ag110
aS'variable_29'
p851
ag152
aS'variable_4'
p852
aS'->'
p853
aS'variable_34'
p854
ag84
aS'variable_46'
p855
ag110
ag26
ag111
ag154
ag86
ag111
ag19
aS'variable_28'
p856
ag100
aS'0xff'
p857
ag23
aS'variable_26'
p858
aS'--'
p859
ag23
aS'variable_9'
p860
ag19
aS'variable_29'
p861
ag23
aS'variable_32'
p862
ag19
aS'variable_4'
p863
aS'->'
p864
aS'variable_5'
p865
aS'->'
p866
aS'variable_47'
p867
ag23
aS'for'
p868
ag6
aS'variable_17'
p869
ag19
ag26
ag23
aS'variable_17'
p870
ag104
aS'variable_28'
p871
ag23
aS'variable_17'
p872
aS'++'
p873
ag16
aS'variable_31'
p874
ag19
aS'variable_1'
p875
ag110
aS'variable_7'
p876
aS'++'
p877
ag111
ag23
aS'variable_9'
p878
aS'+='
p879
aS'variable_31'
p880
ag23
aS'variable_32'
p881
aS'-='
p882
aS'variable_31'
p883
ag23
aS'variable_30'
p884
ag19
ag6
aS'signed'
p885
aS'char'
p886
ag16
ag6
aS'variable_1'
p887
ag110
aS'variable_7'
p888
aS'++'
p889
ag111
ag16
ag23
aS'if'
p890
ag6
aS'variable_30'
p891
ag104
ag26
ag16
aS'variable_30'
p892
ag19
ag154
aS'variable_30'
p893
ag23
aS'variable_11'
p894
ag19
aS'variable_1'
p895
ag110
aS'variable_7'
p896
aS'++'
p897
ag111
ag23
aS'variable_12'
p898
ag19
aS'variable_1'
p899
ag110
aS'variable_7'
p900
aS'++'
p901
ag111
ag23
aS'for'
p902
ag6
aS'variable_18'
p903
ag19
ag26
ag23
aS'variable_18'
p904
ag104
aS'variable_30'
p905
ag23
aS'variable_18'
p906
aS'++'
p907
ag10
aS'variable_32'
p908
aS'-='
p909
ag147
ag16
aS'variable_33'
p910
ag110
aS'variable_9'
p911
aS'++'
p912
ag111
ag19
aS'variable_11'
p913
ag23
aS'variable_33'
p914
ag110
aS'variable_9'
p915
aS'++'
p916
ag111
ag19
aS'variable_12'
p917
ag23
aS'for'
p918
ag6
aS'variable_18'
p919
ag19
ag26
ag23
aS'variable_18'
p920
ag104
aS'variable_30'
p921
ag8
ag147
ag23
aS'variable_18'
p922
aS'++'
p923
ag10
aS'variable_32'
p924
aS'--'
p925
ag16
aS'variable_11'
p926
ag19
aS'variable_1'
p927
ag110
aS'variable_7'
p928
aS'++'
p929
ag111
ag23
aS'variable_33'
p930
ag110
aS'variable_9'
p931
aS'++'
p932
ag111
ag19
aS'variable_11'
p933
ag23
aS'variable_29'
p934
aS'+='
p935
aS'variable_4'
p936
aS'->'
p937
aS'variable_34'
p938
ag84
aS'variable_46'
p939
ag110
ag26
ag111
ag23
aS'variable_27'
p940
ag19
aS'func_9'
p941
ag6
ag100
aS'variable_1'
p942
ag110
aS'variable_7'
p943
ag111
ag16
ag23
aS'variable_7'
p944
aS'+='
p945
ag147
ag23
aS'variable_29'
p946
ag19
ag26
ag23
aS'variable_29'
p947
aS'+='
p948
aS'variable_27'
p949
ag8
aS'variable_4'
p950
aS'->'
p951
aS'variable_34'
p952
ag84
aS'variable_46'
p953
ag110
ag26
ag111
ag23
aS'variable_26'
p954
ag19
aS'func_10'
p955
ag6
ag100
aS'variable_1'
p956
ag110
aS'variable_7'
p957
ag111
ag16
ag23
aS'variable_7'
p958
aS'+='
p959
ag147
ag23
aS'while'
p960
ag6
aS'variable_26'
p961
ag131
ag26
ag16
aS'variable_9'
p962
ag19
aS'variable_29'
p963
ag23
aS'variable_32'
p964
ag19
aS'variable_4'
p965
aS'->'
p966
aS'variable_5'
p967
aS'->'
p968
aS'variable_47'
p969
ag23
aS'variable_28'
p970
ag19
aS'variable_1'
p971
ag110
aS'variable_7'
p972
aS'++'
p973
ag111
ag23
aS'if'
p974
ag6
aS'variable_28'
p975
ag131
ag26
ag16
aS'for'
p976
ag6
aS'variable_17'
p977
ag19
ag26
ag23
aS'variable_17'
p978
ag104
aS'variable_28'
p979
ag23
aS'variable_17'
p980
aS'++'
p981
ag16
aS'variable_31'
p982
ag19
aS'variable_1'
p983
ag110
aS'variable_7'
p984
aS'++'
p985
ag111
ag23
aS'variable_9'
p986
aS'+='
p987
aS'variable_31'
p988
ag23
aS'variable_32'
p989
aS'-='
p990
aS'variable_31'
p991
ag23
aS'variable_30'
p992
ag19
ag6
aS'signed'
p993
aS'char'
p994
ag16
ag6
aS'variable_1'
p995
ag110
aS'variable_7'
p996
aS'++'
p997
ag111
ag16
ag23
aS'if'
p998
ag6
aS'variable_30'
p999
ag131
ag26
ag16
aS'for'
p1000
ag6
aS'variable_18'
p1001
ag19
ag26
ag23
aS'variable_18'
p1002
ag104
aS'variable_30'
p1003
ag23
aS'variable_18'
p1004
aS'++'
p1005
ag10
aS'variable_32'
p1006
aS'--'
p1007
ag16
aS'variable_11'
p1008
ag19
aS'variable_1'
p1009
ag110
aS'variable_7'
p1010
aS'++'
p1011
ag111
ag23
aS'variable_33'
p1012
ag110
aS'variable_9'
p1013
aS'++'
p1014
ag111
ag19
aS'variable_11'
p1015
ag23
aS'if'
p1016
ag6
aS'variable_30'
p1017
ag104
ag26
ag16
aS'variable_30'
p1018
ag19
ag154
aS'variable_30'
p1019
ag23
aS'variable_11'
p1020
ag19
aS'variable_1'
p1021
ag110
aS'variable_7'
p1022
aS'++'
p1023
ag111
ag23
aS'for'
p1024
ag6
aS'variable_18'
p1025
ag19
ag26
ag23
aS'variable_18'
p1026
ag104
aS'variable_30'
p1027
ag23
aS'variable_18'
p1028
aS'++'
p1029
ag10
aS'variable_32'
p1030
aS'--'
p1031
ag16
aS'variable_33'
p1032
ag110
aS'variable_9'
p1033
aS'++'
p1034
ag111
ag19
aS'variable_11'
p1035
ag23
aS'variable_29'
p1036
aS'+='
p1037
aS'variable_4'
p1038
aS'->'
p1039
aS'variable_34'
p1040
ag84
aS'variable_46'
p1041
ag110
ag26
ag111
ag23
aS'variable_26'
p1042
aS'--'
p1043
ag23
aS'memset'
p1044
ag6
aS'variable_33'
p1045
ag10
ag26
ag10
aS'variable_4'
p1046
aS'->'
p1047
aS'variable_34'
p1048
ag84
aS'variable_46'
p1049
ag110
ag26
ag111
ag8
aS'variable_4'
p1050
aS'->'
p1051
aS'variable_5'
p1052
aS'->'
p1053
aS'variable_48'
p1054
ag16
ag23
aS'variable_29'
p1055
ag19
ag26
ag23
aS'for'
p1056
ag6
aS'variable_25'
p1057
ag19
ag26
ag23
aS'variable_25'
p1058
ag104
aS'variable_4'
p1059
aS'->'
p1060
aS'variable_5'
p1061
aS'->'
p1062
aS'variable_48'
p1063
ag23
aS'variable_25'
p1064
aS'++'
p1065
ag16
aS'variable_9'
p1066
ag19
aS'variable_29'
p1067
ag23
aS'variable_7'
p1068
aS'++'
p1069
ag23
aS'variable_32'
p1070
ag19
aS'variable_4'
p1071
aS'->'
p1072
aS'variable_5'
p1073
aS'->'
p1074
aS'variable_47'
p1075
ag23
aS'while'
p1076
ag6
aS'variable_32'
p1077
ag131
ag26
ag16
aS'variable_30'
p1078
ag19
ag6
aS'signed'
p1079
aS'char'
p1080
ag16
ag6
aS'variable_1'
p1081
ag110
aS'variable_7'
p1082
aS'++'
p1083
ag111
ag16
ag23
aS'if'
p1084
ag6
aS'variable_30'
p1085
ag131
ag26
ag16
aS'variable_11'
p1086
ag19
aS'variable_1'
p1087
ag110
aS'variable_7'
p1088
aS'++'
p1089
ag111
ag23
aS'for'
p1090
ag6
aS'variable_18'
p1091
ag19
ag26
ag23
aS'variable_18'
p1092
ag104
aS'variable_30'
p1093
ag23
aS'variable_18'
p1094
aS'++'
p1095
ag16
aS'variable_33'
p1096
ag110
aS'variable_9'
p1097
aS'++'
p1098
ag111
ag19
aS'variable_11'
p1099
ag23
aS'variable_32'
p1100
aS'--'
p1101
ag23
aS'variable_30'
p1102
ag19
ag154
aS'variable_30'
p1103
ag23
aS'for'
p1104
ag6
aS'variable_18'
p1105
ag19
ag26
ag23
aS'variable_18'
p1106
ag104
aS'variable_30'
p1107
ag23
aS'variable_18'
p1108
aS'++'
p1109
ag16
aS'variable_11'
p1110
ag19
aS'variable_1'
p1111
ag110
aS'variable_7'
p1112
aS'++'
p1113
ag111
ag23
aS'variable_33'
p1114
ag110
aS'variable_9'
p1115
aS'++'
p1116
ag111
ag19
aS'variable_11'
p1117
ag23
aS'variable_32'
p1118
aS'--'
p1119
ag23
aS'variable_29'
p1120
aS'+='
p1121
aS'variable_4'
p1122
aS'->'
p1123
aS'variable_34'
p1124
ag84
aS'variable_46'
p1125
ag110
ag26
ag111
ag23
aS'if'
p1126
ag6
aS'variable_15'
p1127
ag154
ag118
ag131
aS'variable_4'
p1128
aS'->'
p1129
aS'variable_5'
p1130
aS'->'
p1131
aS'variable_47'
p1132
ag8
aS'variable_4'
p1133
aS'->'
p1134
aS'variable_5'
p1135
aS'->'
p1136
aS'variable_48'
p1137
ag16
aS'variable_7'
p1138
aS'+='
p1139
aS'variable_15'
p1140
ag154
ag118
ag23
aS'for'
p1141
ag6
aS'variable_29'
p1142
ag19
ag26
ag23
aS'variable_29'
p1143
ag104
aS'variable_4'
p1144
aS'->'
p1145
aS'variable_34'
p1146
ag84
aS'variable_46'
p1147
ag110
ag26
ag111
ag8
aS'variable_29'
p1148
aS'+='
p1149
aS'variable_4'
p1150
aS'->'
p1151
aS'variable_34'
p1152
ag84
aS'variable_46'
p1153
ag110
ag26
ag111
ag16
aS'memcpy'
p1154
ag6
ag100
aS'variable_33'
p1155
ag110
aS'variable_29'
p1156
ag111
ag10
ag100
aS'variable_1'
p1157
ag110
aS'variable_7'
p1158
ag111
ag10
aS'variable_4'
p1159
aS'->'
p1160
aS'variable_5'
p1161
aS'->'
p1162
aS'variable_47'
p1163
ag16
ag23
aS'variable_7'
p1164
aS'+='
p1165
aS'variable_4'
p1166
aS'->'
p1167
aS'variable_5'
p1168
aS'->'
p1169
aS'variable_47'
p1170
ag23
aS'variable_7'
p1171
aS'+='
p1172
aS'variable_15'
p1173
ag154
ag118
ag23
aS'variable_13'
p1174
aS'-='
p1175
aS'variable_15'
p1176
ag23
aS'variable_14'
p1177
aS'--'
p1178
ag23
aaa(lp1179
I1
aI1
aa(lp1180
I1062
aI1142
aa(lp1181
(lp1182
S'main'
p1183
aa(lp1184
g1183
aaa(lp1185
S'442 /home/SySeVR/data/CVE_2010_3429_VULN_flic_decode_frame_8BPP.c memcpy 289'
p1186
aS'443 /home/SySeVR/data/CVE_2010_3429_VULN_flic_decode_frame_8BPP.c memcpy 261'
p1187
aa.