(lp0
(lp1
(lp2
S'static'
p3
aS'int'
p4
aS'func_0'
p5
aS'('
p6
aS'void'
p7
aS'*'
p8
aS'variable_0'
p9
aS','
p10
aS'const'
p11
aS'uint8_t'
p12
ag8
aS'variable_1'
p13
ag10
aS'int'
p14
aS'variable_2'
p15
aS')'
p16
aS'variable_3'
p17
ag8
aS'variable_4'
p18
aS'='
p19
aS'variable_5'
p20
aS'->'
p21
aS'variable_6'
p22
aS';'
p23
aS'int'
p24
aS'variable_7'
p25
ag19
aS'0'
p26
ag23
aS'int'
p27
aS'variable_8'
p28
ag23
aS'int'
p29
aS'variable_9'
p30
ag23
aS'unsigned'
p31
aS'char'
p32
aS'variable_10'
p33
ag23
aS'unsigned'
p34
aS'char'
p35
aS'variable_11'
p36
ag23
aS'unsigned'
p37
aS'int'
p38
aS'variable_12'
p39
ag23
aS'int'
p40
aS'variable_13'
p41
ag23
aS'unsigned'
p42
aS'int'
p43
aS'variable_14'
p44
ag23
aS'int'
p45
aS'variable_15'
p46
ag23
aS'int'
p47
aS'variable_16'
p48
ag10
aS'variable_17'
p49
ag23
aS'int'
p50
aS'variable_18'
p51
ag23
aS'int'
p52
aS'variable_19'
p53
ag23
aS'int'
p54
aS'variable_20'
p55
ag23
aS'unsigned'
p56
aS'char'
p57
aS'variable_21'
p58
ag10
aS'variable_22'
p59
ag10
aS'variable_23'
p60
ag23
aS'int'
p61
aS'variable_24'
p62
ag23
aS'int'
p63
aS'variable_25'
p64
ag23
aS'int'
p65
aS'variable_26'
p66
ag23
aS'signed'
p67
aS'short'
p68
aS'variable_27'
p69
ag23
aS'int'
p70
aS'variable_28'
p71
ag23
aS'int'
p72
aS'variable_29'
p73
ag23
aS'int'
p74
aS'variable_30'
p75
ag23
aS'int'
p76
aS'variable_31'
p77
ag23
aS'unsigned'
p78
aS'char'
p79
ag8
aS'variable_32'
p80
ag23
aS'variable_4'
p81
aS'->'
p82
aS'variable_33'
p83
aS'.'
p84
aS'variable_34'
p85
ag19
aS'1'
p86
ag23
aS'variable_4'
p87
aS'->'
p88
aS'variable_33'
p89
ag84
aS'variable_35'
p90
ag19
aS'variable_36'
p91
aS'|'
p92
aS'variable_37'
p93
ag92
aS'variable_38'
p94
ag23
aS'if'
p95
ag6
aS'variable_5'
p96
aS'->'
p97
aS'func_1'
p98
ag6
aS'variable_5'
p99
ag10
aS'&'
p100
aS'variable_4'
p101
aS'->'
p102
aS'variable_33'
p103
ag16
aS'<'
p104
ag26
ag16
aS'variable_32'
p105
ag19
aS'variable_4'
p106
aS'->'
p107
aS'variable_33'
p108
ag84
aS'variable_0'
p109
aS'['
p110
ag26
aS']'
p111
ag23
aS'variable_12'
p112
ag19
aS'func_2'
p113
ag6
ag100
aS'variable_1'
p114
ag110
aS'variable_7'
p115
ag111
ag16
ag23
aS'variable_7'
p116
aS'+='
p117
aS'6'
p118
ag23
aS'variable_13'
p119
ag19
aS'func_3'
p120
ag6
ag100
aS'variable_1'
p121
ag110
aS'variable_7'
p122
ag111
ag16
ag23
aS'variable_7'
p123
aS'+='
p124
aS'10'
p125
ag23
aS'variable_12'
p126
aS'-='
p127
aS'16'
p128
ag23
aS'while'
p129
ag6
ag6
aS'variable_12'
p130
aS'>'
p131
ag26
ag16
aS'&&'
p132
ag6
aS'variable_13'
p133
ag131
ag26
ag16
ag16
aS'variable_14'
p134
ag19
aS'func_4'
p135
ag6
ag100
aS'variable_1'
p136
ag110
aS'variable_7'
p137
ag111
ag16
ag23
aS'variable_7'
p138
aS'+='
p139
aS'4'
p140
ag23
aS'variable_15'
p141
ag19
aS'func_5'
p142
ag6
ag100
aS'variable_1'
p143
ag110
aS'variable_7'
p144
ag111
ag16
ag23
aS'variable_7'
p145
aS'+='
p146
aS'2'
p147
ag23
aS'switch'
p148
ag6
aS'variable_15'
p149
ag16
aS'variable_8'
p150
ag19
aS'variable_7'
p151
aS'+'
p152
aS'variable_14'
p153
aS'-'
p154
ag118
ag23
aS'if'
p155
ag6
ag6
aS'variable_15'
p156
aS'=='
p157
aS'variable_39'
p158
ag16
aS'&&'
p159
ag6
aS'variable_4'
p160
aS'->'
p161
aS'variable_40'
p162
aS'!='
p163
aS'variable_41'
p164
ag16
ag16
aS'variable_20'
p165
ag19
ag26
ag23
aS'variable_20'
p166
ag19
ag147
ag23
aS'variable_18'
p167
ag19
aS'func_6'
p168
ag6
ag100
aS'variable_1'
p169
ag110
aS'variable_7'
p170
ag111
ag16
ag23
aS'variable_7'
p171
aS'+='
p172
ag147
ag23
aS'variable_9'
p173
ag19
ag26
ag23
aS'for'
p174
ag6
aS'variable_16'
p175
ag19
ag26
ag23
aS'variable_16'
p176
ag104
aS'variable_18'
p177
ag23
aS'variable_16'
p178
aS'++'
p179
ag16
aS'variable_9'
p180
aS'+='
p181
aS'variable_1'
p182
ag110
aS'variable_7'
p183
aS'++'
p184
ag111
ag23
aS'variable_19'
p185
ag19
aS'variable_1'
p186
ag110
aS'variable_7'
p187
aS'++'
p188
ag111
ag23
aS'if'
p189
ag6
aS'variable_19'
p190
aS'=='
p191
ag26
ag16
aS'variable_19'
p192
ag19
aS'256'
p193
ag23
aS'for'
p194
ag6
aS'variable_17'
p195
ag19
ag26
ag23
aS'variable_17'
p196
ag104
aS'variable_19'
p197
ag23
aS'variable_17'
p198
aS'++'
p199
ag16
aS'unsigned'
p200
aS'int'
p201
aS'variable_42'
p202
ag23
aS'if'
p203
ag6
ag6
aS'unsigned'
p204
ag16
aS'variable_9'
p205
ag131
ag19
aS'256'
p206
ag16
aS'variable_9'
p207
ag19
ag26
ag23
aS'variable_21'
p208
ag19
aS'variable_1'
p209
ag110
aS'variable_7'
p210
aS'++'
p211
ag111
aS'<<'
p212
aS'variable_20'
p213
ag23
aS'variable_22'
p214
ag19
aS'variable_1'
p215
ag110
aS'variable_7'
p216
aS'++'
p217
ag111
aS'<<'
p218
aS'variable_20'
p219
ag23
aS'variable_23'
p220
ag19
aS'variable_1'
p221
ag110
aS'variable_7'
p222
aS'++'
p223
ag111
aS'<<'
p224
aS'variable_20'
p225
ag23
aS'variable_42'
p226
ag19
ag6
aS'variable_21'
p227
aS'<<'
p228
aS'16'
p229
ag16
ag92
ag6
aS'variable_22'
p230
aS'<<'
p231
aS'8'
p232
ag16
ag92
aS'variable_23'
p233
ag23
aS'if'
p234
ag6
aS'variable_4'
p235
aS'->'
p236
aS'variable_43'
p237
ag110
aS'variable_9'
p238
ag111
aS'!='
p239
aS'variable_42'
p240
ag16
aS'variable_4'
p241
aS'->'
p242
aS'variable_44'
p243
ag19
ag86
ag23
aS'variable_4'
p244
aS'->'
p245
aS'variable_43'
p246
ag110
aS'variable_9'
p247
aS'++'
p248
ag111
ag19
aS'variable_42'
p249
ag23
aS'variable_7'
p250
ag19
aS'variable_8'
p251
ag23
aS'variable_28'
p252
ag19
ag26
ag23
aS'variable_25'
p253
ag19
aS'func_7'
p254
ag6
ag100
aS'variable_1'
p255
ag110
aS'variable_7'
p256
ag111
ag16
ag23
aS'variable_7'
p257
aS'+='
p258
ag147
ag23
aS'while'
p259
ag6
aS'variable_25'
p260
ag131
ag26
ag16
aS'variable_27'
p261
ag19
aS'func_8'
p262
ag6
ag100
aS'variable_1'
p263
ag110
aS'variable_7'
p264
ag111
ag16
ag23
aS'variable_7'
p265
aS'+='
p266
ag147
ag23
aS'if'
p267
ag6
ag6
aS'variable_27'
p268
ag100
aS'0xC000'
p269
ag16
aS'=='
p270
aS'0xC000'
p271
ag16
aS'variable_27'
p272
ag19
ag154
aS'variable_27'
p273
ag23
aS'variable_28'
p274
aS'+='
p275
aS'variable_27'
p276
ag8
aS'variable_4'
p277
aS'->'
p278
aS'variable_33'
p279
ag84
aS'variable_45'
p280
ag110
ag26
ag111
ag23
aS'if'
p281
ag6
ag6
aS'variable_27'
p282
ag100
aS'0xC000'
p283
ag16
aS'=='
p284
aS'0x4000'
p285
ag16
aS'func_9'
p286
ag6
aS'variable_5'
p287
ag10
aS'variable_46'
p288
ag10
aS'"'
p289
aS'Undefined'
p290
aS'opcode'
p291
ag6
aS'%'
p292
aS'x'
p293
ag16
aS'in'
p294
aS'DELTA_FLI'
p295
aS'\\'
p296
aS'n'
p297
ag289
ag10
aS'variable_27'
p298
ag16
ag23
aS'if'
p299
ag6
ag6
aS'variable_27'
p300
ag100
aS'0xC000'
p301
ag16
aS'=='
p302
aS'0x8000'
p303
ag16
aS'variable_32'
p304
ag110
aS'variable_28'
p305
ag152
aS'variable_4'
p306
aS'->'
p307
aS'variable_33'
p308
ag84
aS'variable_45'
p309
ag110
ag26
ag111
ag154
ag86
ag111
ag19
aS'variable_27'
p310
ag100
aS'0xff'
p311
ag23
aS'variable_25'
p312
aS'--'
p313
ag23
aS'variable_47'
p314
ag19
aS'variable_28'
p315
ag23
aS'variable_31'
p316
ag19
aS'variable_4'
p317
aS'->'
p318
aS'variable_5'
p319
aS'->'
p320
aS'variable_48'
p321
ag23
aS'for'
p322
ag6
aS'variable_16'
p323
ag19
ag26
ag23
aS'variable_16'
p324
ag104
aS'variable_27'
p325
ag23
aS'variable_16'
p326
aS'++'
p327
ag16
aS'variable_30'
p328
ag19
aS'variable_1'
p329
ag110
aS'variable_7'
p330
aS'++'
p331
ag111
ag23
aS'variable_47'
p332
aS'+='
p333
aS'variable_30'
p334
ag23
aS'variable_31'
p335
aS'-='
p336
aS'variable_30'
p337
ag23
aS'variable_29'
p338
ag19
ag6
aS'signed'
p339
aS'char'
p340
ag16
ag6
aS'variable_1'
p341
ag110
aS'variable_7'
p342
aS'++'
p343
ag111
ag16
ag23
aS'if'
p344
ag6
aS'variable_29'
p345
ag104
ag26
ag16
aS'variable_29'
p346
ag19
ag154
aS'variable_29'
p347
ag23
aS'variable_10'
p348
ag19
aS'variable_1'
p349
ag110
aS'variable_7'
p350
aS'++'
p351
ag111
ag23
aS'variable_11'
p352
ag19
aS'variable_1'
p353
ag110
aS'variable_7'
p354
aS'++'
p355
ag111
ag23
aS'func_10'
p356
ag6
aS'variable_29'
p357
ag16
ag23
aS'for'
p358
ag6
aS'variable_17'
p359
ag19
ag26
ag23
aS'variable_17'
p360
ag104
aS'variable_29'
p361
ag23
aS'variable_17'
p362
aS'++'
p363
ag10
aS'variable_31'
p364
aS'-='
p365
ag147
ag16
aS'variable_32'
p366
ag110
aS'variable_47'
p367
aS'++'
p368
ag111
ag19
aS'variable_10'
p369
ag23
aS'variable_32'
p370
ag110
aS'variable_47'
p371
aS'++'
p372
ag111
ag19
aS'variable_11'
p373
ag23
aS'func_11'
p374
ag6
aS'variable_29'
p375
ag8
ag147
ag16
ag23
aS'for'
p376
ag6
aS'variable_17'
p377
ag19
ag26
ag23
aS'variable_17'
p378
ag104
aS'variable_29'
p379
ag8
ag147
ag23
aS'variable_17'
p380
aS'++'
p381
ag10
aS'variable_31'
p382
aS'--'
p383
ag16
aS'variable_10'
p384
ag19
aS'variable_1'
p385
ag110
aS'variable_7'
p386
aS'++'
p387
ag111
ag23
aS'variable_32'
p388
ag110
aS'variable_47'
p389
aS'++'
p390
ag111
ag19
aS'variable_10'
p391
ag23
aS'variable_28'
p392
aS'+='
p393
aS'variable_4'
p394
aS'->'
p395
aS'variable_33'
p396
ag84
aS'variable_45'
p397
ag110
ag26
ag111
ag23
aS'variable_26'
p398
ag19
aS'func_12'
p399
ag6
ag100
aS'variable_1'
p400
ag110
aS'variable_7'
p401
ag111
ag16
ag23
aS'variable_7'
p402
aS'+='
p403
ag147
ag23
aS'variable_28'
p404
ag19
ag26
ag23
aS'variable_28'
p405
aS'+='
p406
aS'variable_26'
p407
ag8
aS'variable_4'
p408
aS'->'
p409
aS'variable_33'
p410
ag84
aS'variable_45'
p411
ag110
ag26
ag111
ag23
aS'variable_25'
p412
ag19
aS'func_13'
p413
ag6
ag100
aS'variable_1'
p414
ag110
aS'variable_7'
p415
ag111
ag16
ag23
aS'variable_7'
p416
aS'+='
p417
ag147
ag23
aS'while'
p418
ag6
aS'variable_25'
p419
ag131
ag26
ag16
aS'variable_47'
p420
ag19
aS'variable_28'
p421
ag23
aS'variable_31'
p422
ag19
aS'variable_4'
p423
aS'->'
p424
aS'variable_5'
p425
aS'->'
p426
aS'variable_48'
p427
ag23
aS'variable_27'
p428
ag19
aS'variable_1'
p429
ag110
aS'variable_7'
p430
aS'++'
p431
ag111
ag23
aS'if'
p432
ag6
aS'variable_27'
p433
ag131
ag26
ag16
aS'for'
p434
ag6
aS'variable_16'
p435
ag19
ag26
ag23
aS'variable_16'
p436
ag104
aS'variable_27'
p437
ag23
aS'variable_16'
p438
aS'++'
p439
ag16
aS'variable_30'
p440
ag19
aS'variable_1'
p441
ag110
aS'variable_7'
p442
aS'++'
p443
ag111
ag23
aS'variable_47'
p444
aS'+='
p445
aS'variable_30'
p446
ag23
aS'variable_31'
p447
aS'-='
p448
aS'variable_30'
p449
ag23
aS'variable_29'
p450
ag19
ag6
aS'signed'
p451
aS'char'
p452
ag16
ag6
aS'variable_1'
p453
ag110
aS'variable_7'
p454
aS'++'
p455
ag111
ag16
ag23
aS'if'
p456
ag6
aS'variable_29'
p457
ag131
ag26
ag16
aS'func_14'
p458
ag6
aS'variable_29'
p459
ag16
ag23
aS'for'
p460
ag6
aS'variable_17'
p461
ag19
ag26
ag23
aS'variable_17'
p462
ag104
aS'variable_29'
p463
ag23
aS'variable_17'
p464
aS'++'
p465
ag10
aS'variable_31'
p466
aS'--'
p467
ag16
aS'variable_10'
p468
ag19
aS'variable_1'
p469
ag110
aS'variable_7'
p470
aS'++'
p471
ag111
ag23
aS'variable_32'
p472
ag110
aS'variable_47'
p473
aS'++'
p474
ag111
ag19
aS'variable_10'
p475
ag23
aS'if'
p476
ag6
aS'variable_29'
p477
ag104
ag26
ag16
aS'variable_29'
p478
ag19
ag154
aS'variable_29'
p479
ag23
aS'variable_10'
p480
ag19
aS'variable_1'
p481
ag110
aS'variable_7'
p482
aS'++'
p483
ag111
ag23
aS'func_15'
p484
ag6
aS'variable_29'
p485
ag16
ag23
aS'for'
p486
ag6
aS'variable_17'
p487
ag19
ag26
ag23
aS'variable_17'
p488
ag104
aS'variable_29'
p489
ag23
aS'variable_17'
p490
aS'++'
p491
ag10
aS'variable_31'
p492
aS'--'
p493
ag16
aS'variable_32'
p494
ag110
aS'variable_47'
p495
aS'++'
p496
ag111
ag19
aS'variable_10'
p497
ag23
aS'variable_28'
p498
aS'+='
p499
aS'variable_4'
p500
aS'->'
p501
aS'variable_33'
p502
ag84
aS'variable_45'
p503
ag110
ag26
ag111
ag23
aS'variable_25'
p504
aS'--'
p505
ag23
aS'memset'
p506
ag6
aS'variable_32'
p507
ag10
ag26
ag10
aS'variable_4'
p508
aS'->'
p509
aS'variable_33'
p510
ag84
aS'variable_45'
p511
ag110
ag26
ag111
ag8
aS'variable_4'
p512
aS'->'
p513
aS'variable_5'
p514
aS'->'
p515
aS'variable_49'
p516
ag16
ag23
aS'variable_28'
p517
ag19
ag26
ag23
aS'for'
p518
ag6
aS'variable_24'
p519
ag19
ag26
ag23
aS'variable_24'
p520
ag104
aS'variable_4'
p521
aS'->'
p522
aS'variable_5'
p523
aS'->'
p524
aS'variable_49'
p525
ag23
aS'variable_24'
p526
aS'++'
p527
ag16
aS'variable_47'
p528
ag19
aS'variable_28'
p529
ag23
aS'variable_7'
p530
aS'++'
p531
ag23
aS'variable_31'
p532
ag19
aS'variable_4'
p533
aS'->'
p534
aS'variable_5'
p535
aS'->'
p536
aS'variable_48'
p537
ag23
aS'while'
p538
ag6
aS'variable_31'
p539
ag131
ag26
ag16
aS'variable_29'
p540
ag19
ag6
aS'signed'
p541
aS'char'
p542
ag16
ag6
aS'variable_1'
p543
ag110
aS'variable_7'
p544
aS'++'
p545
ag111
ag16
ag23
aS'if'
p546
ag6
aS'variable_29'
p547
ag131
ag26
ag16
aS'variable_10'
p548
ag19
aS'variable_1'
p549
ag110
aS'variable_7'
p550
aS'++'
p551
ag111
ag23
aS'func_16'
p552
ag6
aS'variable_29'
p553
ag16
ag23
aS'for'
p554
ag6
aS'variable_17'
p555
ag19
ag26
ag23
aS'variable_17'
p556
ag104
aS'variable_29'
p557
ag23
aS'variable_17'
p558
aS'++'
p559
ag16
aS'variable_32'
p560
ag110
aS'variable_47'
p561
aS'++'
p562
ag111
ag19
aS'variable_10'
p563
ag23
aS'variable_31'
p564
aS'--'
p565
ag23
aS'if'
p566
ag6
aS'variable_31'
p567
ag104
ag26
ag16
aS'func_17'
p568
ag6
aS'variable_5'
p569
ag10
aS'variable_46'
p570
ag10
ag289
aS'pixel_countdown'
p571
ag104
ag26
ag6
ag292
aS'd'
p572
ag16
aS'at'
p573
aS'line'
p574
ag292
ag572
ag296
ag297
ag289
ag10
aS'variable_31'
p575
ag10
aS'variable_24'
p576
ag16
ag23
aS'variable_29'
p577
ag19
ag154
aS'variable_29'
p578
ag23
aS'func_18'
p579
ag6
aS'variable_29'
p580
ag16
ag23
aS'for'
p581
ag6
aS'variable_17'
p582
ag19
ag26
ag23
aS'variable_17'
p583
ag104
aS'variable_29'
p584
ag23
aS'variable_17'
p585
aS'++'
p586
ag16
aS'variable_10'
p587
ag19
aS'variable_1'
p588
ag110
aS'variable_7'
p589
aS'++'
p590
ag111
ag23
aS'variable_32'
p591
ag110
aS'variable_47'
p592
aS'++'
p593
ag111
ag19
aS'variable_10'
p594
ag23
aS'variable_31'
p595
aS'--'
p596
ag23
aS'if'
p597
ag6
aS'variable_31'
p598
ag104
ag26
ag16
aS'func_19'
p599
ag6
aS'variable_5'
p600
ag10
aS'variable_46'
p601
ag10
ag289
aS'pixel_countdown'
p602
ag104
ag26
ag6
ag292
ag572
ag16
aS'at'
p603
aS'line'
p604
ag292
ag572
ag296
ag297
ag289
ag10
aS'variable_31'
p605
ag10
aS'variable_24'
p606
ag16
ag23
aS'variable_28'
p607
aS'+='
p608
aS'variable_4'
p609
aS'->'
p610
aS'variable_33'
p611
ag84
aS'variable_45'
p612
ag110
ag26
ag111
ag23
aS'if'
p613
ag6
aS'variable_14'
p614
ag154
ag118
ag131
aS'variable_4'
p615
aS'->'
p616
aS'variable_5'
p617
aS'->'
p618
aS'variable_48'
p619
ag8
aS'variable_4'
p620
aS'->'
p621
aS'variable_5'
p622
aS'->'
p623
aS'variable_49'
p624
ag16
aS'func_20'
p625
ag6
aS'variable_5'
p626
ag10
aS'variable_46'
p627
ag10
ag289
aS'bigger'
p628
aS'than'
p629
aS'image'
p630
ag10
aS'skipping'
p631
aS'chunk'
p632
ag296
ag297
ag289
ag10
aS'variable_14'
p633
ag154
ag118
ag16
aS'variable_7'
p634
aS'+='
p635
aS'variable_14'
p636
ag154
ag118
ag23
aS'for'
p637
ag6
aS'variable_28'
p638
ag19
ag26
ag23
aS'variable_28'
p639
ag104
aS'variable_4'
p640
aS'->'
p641
aS'variable_33'
p642
ag84
aS'variable_45'
p643
ag110
ag26
ag111
ag8
aS'variable_28'
p644
aS'+='
p645
aS'variable_4'
p646
aS'->'
p647
aS'variable_33'
p648
ag84
aS'variable_45'
p649
ag110
ag26
ag111
ag16
aS'memcpy'
p650
ag6
ag100
aS'variable_32'
p651
ag110
aS'variable_28'
p652
ag111
ag10
ag100
aS'variable_1'
p653
ag110
aS'variable_7'
p654
ag111
ag10
aS'variable_4'
p655
aS'->'
p656
aS'variable_5'
p657
aS'->'
p658
aS'variable_48'
p659
ag16
ag23
aS'variable_7'
p660
aS'+='
p661
aS'variable_4'
p662
aS'->'
p663
aS'variable_5'
p664
aS'->'
p665
aS'variable_48'
p666
ag23
aS'variable_7'
p667
aS'+='
p668
aS'variable_14'
p669
ag154
ag118
ag23
aS'func_21'
p670
ag6
aS'variable_5'
p671
ag10
aS'variable_46'
p672
ag10
ag289
aS'Unrecognized'
p673
aS'chunk'
p674
aS'type'
p675
aS':'
p676
ag292
ag572
ag296
ag297
ag289
ag10
aS'variable_15'
p677
ag16
ag23
aS'variable_12'
p678
aS'-='
p679
aS'variable_14'
p680
ag23
aS'variable_13'
p681
aS'--'
p682
ag23
aS'if'
p683
ag6
ag6
aS'variable_7'
p684
aS'!='
p685
aS'variable_2'
p686
ag16
aS'&&'
p687
ag6
aS'variable_7'
p688
aS'!='
p689
aS'variable_2'
p690
ag154
ag86
ag16
ag16
aS'memcpy'
p691
ag6
aS'variable_4'
p692
aS'->'
p693
aS'variable_33'
p694
ag84
aS'variable_0'
p695
ag110
ag86
ag111
ag10
aS'variable_4'
p696
aS'->'
p697
aS'variable_43'
p698
ag10
aS'variable_50'
p699
ag16
ag23
aS'if'
p700
ag6
aS'variable_4'
p701
aS'->'
p702
aS'variable_44'
p703
ag16
aS'variable_4'
p704
aS'->'
p705
aS'variable_33'
p706
ag84
aS'variable_51'
p707
ag19
ag86
ag23
aS'variable_4'
p708
aS'->'
p709
aS'variable_44'
p710
ag19
ag26
ag23
ag8
ag6
aS'AVFrame'
p711
ag8
ag16
aS'variable_0'
p712
ag19
aS'variable_4'
p713
aS'->'
p714
aS'variable_33'
p715
ag23
aaa(lp716
I0
aa(lp717
I244
aa(lp718
(lp719
S'main'
p720
aaa(lp721
S'149 /home/SySeVR/data/CVE_2010_3429_VULN_flic_decode_frame_8BPP.c stream_ptr_after_color_chunk = stream_ptr + chunk_size - 6 65'
p722
aa.