(lp0
(lp1
(lp2
S'func_0'
p3
aS'('
p4
aS'const'
p5
aS'FT_Vector'
p6
aS'*'
p7
aS'FT_Render_Mode'
p8
aS'variable_0'
p9
aS')'
p10
aS'FT_BBox'
p11
aS'variable_1'
p12
aS';'
p13
aS'FT_UInt'
p14
aS'variable_2'
p15
aS','
p16
aS'variable_3'
p17
ag16
aS'variable_4'
p18
ag16
aS'variable_5'
p19
ag16
aS'variable_6'
p20
ag13
aS'variable_7'
p21
ag7
aS'variable_8'
p22
ag13
aS'FT_Int'
p23
aS'variable_9'
p24
aS'='
p25
aS'variable_10'
p26
aS'=='
p27
aS'variable_11'
p28
ag13
aS'FT_Int'
p29
aS'variable_12'
p30
ag25
aS'variable_10'
p31
aS'=='
p32
aS'variable_13'
p33
ag13
aS'if'
p34
ag4
aS'variable_14'
p35
aS'->'
p36
aS'variable_15'
p37
aS'!='
p38
aS'variable_16'
p39
aS'->'
p40
aS'variable_17'
p41
ag10
aS'if'
p42
ag4
aS'variable_10'
p43
aS'!='
p44
aS'variable_0'
p45
ag10
aS'variable_18'
p46
ag25
aS'&'
p47
aS'variable_14'
p48
aS'->'
p49
aS'variable_18'
p50
ag13
aS'variable_1'
p51
aS'.'
p52
aS'variable_19'
p53
ag25
aS'func_1'
p54
ag4
aS'variable_1'
p55
ag52
aS'variable_19'
p56
ag10
ag13
aS'variable_1'
p57
ag52
aS'variable_20'
p58
ag25
aS'func_2'
p59
ag4
aS'variable_1'
p60
ag52
aS'variable_20'
p61
ag10
ag13
aS'variable_1'
p62
ag52
aS'variable_21'
p63
ag25
aS'func_3'
p64
ag4
aS'variable_1'
p65
ag52
aS'variable_21'
p66
ag10
ag13
aS'variable_1'
p67
ag52
aS'variable_22'
p68
ag25
aS'func_4'
p69
ag4
aS'variable_1'
p70
ag52
aS'variable_22'
p71
ag10
ag13
aS'variable_2'
p72
ag25
ag4
aS'variable_23'
p73
ag10
ag4
ag4
aS'variable_1'
p74
ag52
aS'variable_21'
p75
aS'-'
p76
aS'variable_1'
p77
ag52
aS'variable_19'
p78
ag10
aS'>>'
p79
aS'6'
p80
ag10
ag13
aS'variable_3'
p81
ag25
ag4
aS'variable_23'
p82
ag10
ag4
ag4
aS'variable_1'
p83
ag52
aS'variable_22'
p84
ag76
aS'variable_1'
p85
ag52
aS'variable_20'
p86
ag10
aS'>>'
p87
ag80
ag10
ag13
aS'variable_8'
p88
ag25
ag47
aS'variable_14'
p89
aS'->'
p90
aS'variable_8'
p91
ag13
aS'if'
p92
ag4
aS'variable_14'
p93
aS'->'
p94
aS'variable_24'
p95
aS'->'
p96
aS'variable_25'
p97
ag47
aS'variable_26'
p98
ag10
aS'variable_14'
p99
aS'->'
p100
aS'variable_24'
p101
aS'->'
p102
aS'variable_25'
p103
ag47
ag25
aS'~'
p104
aS'variable_26'
p105
ag13
aS'variable_6'
p106
ag25
aS'variable_2'
p107
ag13
aS'if'
p108
ag4
aS'variable_9'
p109
ag10
aS'variable_2'
p110
ag25
aS'variable_2'
p111
ag7
aS'3'
p112
ag13
aS'variable_6'
p113
ag25
aS'func_5'
p114
ag4
aS'variable_2'
p115
ag16
aS'4'
p116
ag10
ag13
aS'if'
p117
ag4
aS'variable_12'
p118
ag10
aS'variable_3'
p119
ag7
ag25
ag112
ag13
aS'if'
p120
ag4
aS'variable_14'
p121
aS'->'
p122
aS'variable_27'
p123
aS'->'
p124
aS'variable_28'
p125
ag10
aS'FT_Int'
p126
aS'variable_29'
p127
ag25
aS'variable_14'
p128
aS'->'
p129
aS'variable_27'
p130
aS'->'
p131
aS'variable_30'
p132
ag13
aS'if'
p133
ag4
aS'variable_9'
p134
ag10
aS'variable_2'
p135
aS'+='
p136
ag112
ag7
aS'variable_29'
p137
ag13
aS'variable_6'
p138
ag25
aS'func_6'
p139
ag4
aS'variable_2'
p140
ag16
ag116
ag10
ag13
aS'if'
p141
ag4
aS'variable_12'
p142
ag10
aS'variable_3'
p143
aS'+='
p144
ag112
ag7
aS'variable_29'
p145
ag13
aS'variable_8'
p146
aS'->'
p147
aS'variable_31'
p148
ag25
aS'variable_32'
p149
ag13
aS'variable_8'
p150
aS'->'
p151
aS'variable_33'
p152
ag25
aS'256'
p153
ag13
aS'variable_8'
p154
aS'->'
p155
aS'variable_2'
p156
ag25
aS'variable_2'
p157
ag13
aS'variable_8'
p158
aS'->'
p159
aS'variable_34'
p160
ag25
aS'variable_3'
p161
ag13
aS'variable_8'
p162
aS'->'
p163
aS'variable_6'
p164
ag25
aS'variable_6'
p165
ag13
aS'if'
p166
ag4
aS'func_7'
p167
ag4
aS'variable_8'
p168
aS'->'
p169
aS'variable_35'
p170
ag16
ag4
aS'variable_36'
p171
ag10
aS'variable_6'
p172
ag7
aS'variable_3'
p173
ag10
ag10
aS'variable_37'
p174
ag7
aS'variable_38'
p175
ag25
aS'variable_18'
p176
aS'->'
p177
aS'variable_38'
p178
ag13
aS'variable_37'
p179
ag7
aS'variable_39'
p180
ag25
aS'variable_38'
p181
aS'+'
p182
aS'variable_18'
p183
aS'->'
p184
aS'variable_40'
p185
ag13
aS'for'
p186
ag4
aS'variable_41'
p187
ag25
aS'variable_38'
p188
ag13
aS'variable_41'
p189
aS'<'
p190
aS'variable_39'
p191
ag13
aS'variable_41'
p192
aS'++'
p193
ag10
aS'for'
p194
ag4
aS'variable_41'
p195
ag25
aS'variable_38'
p196
ag13
aS'variable_41'
p197
ag190
aS'variable_39'
p198
ag13
aS'variable_41'
p199
aS'++'
p200
ag10
aaa(lp201
I0
aa(lp202
I311
aa(lp203
(lp204
S'main'
p205
aaa(lp206
S'745 /home/SySeVR/data/CVE_2009_0946_VULN_ft_smooth_render_generic.c FT_Vector * points_end = points + outline -> n_points ; 145'
p207
aa.