(lp0
(lp1
(lp2
S'static'
p3
aS'int'
p4
aS'func_0'
p5
aS'('
p6
aS'struct'
p7
aS'variable_0'
p8
aS'*'
p9
aS'variable_1'
p10
aS','
p11
aS'struct'
p12
aS'variable_2'
p13
ag9
aS'variable_3'
p14
ag11
aS'char'
p15
ag9
aS'variable_4'
p16
ag11
aS'unsigned'
p17
aS'long'
p18
aS'variable_5'
p19
aS')'
p20
aS'variable_6'
p21
aS'='
p22
aS'func_1'
p23
ag6
aS'variable_4'
p24
ag20
aS';'
p25
aS'if'
p26
ag6
aS'!'
p27
aS'variable_6'
p28
ag20
aS'variable_7'
p29
ag22
aS'func_2'
p30
ag6
aS'variable_3'
p31
ag20
ag25
aS'if'
p32
ag6
ag27
aS'variable_7'
p33
ag20
aS'if'
p34
ag6
ag27
aS'strcmp'
p35
ag6
aS'variable_4'
p36
ag11
aS'variable_8'
p37
ag20
ag20
aS'if'
p38
ag6
ag27
aS'strcmp'
p39
ag6
aS'variable_4'
p40
ag11
aS'variable_9'
p41
ag20
aS'||'
p42
ag27
aS'strcmp'
p43
ag6
aS'variable_4'
p44
ag11
aS'variable_10'
p45
ag20
aS'||'
p46
ag27
aS'strcmp'
p47
ag6
aS'variable_4'
p48
ag11
aS'variable_11'
p49
ag20
aS'||'
p50
ag27
aS'strcmp'
p51
ag6
aS'variable_4'
p52
ag11
aS'variable_12'
p53
ag20
ag20
aS'if'
p54
ag6
ag27
aS'strcmp'
p55
ag6
aS'variable_4'
p56
ag11
aS'variable_13'
p57
ag20
aS'||'
p58
ag27
aS'strcmp'
p59
ag6
aS'variable_4'
p60
ag11
aS'variable_14'
p61
ag20
ag20
aa(lp62
S'static'
p63
aS'int'
p64
aS'func_0'
p65
ag6
aS'struct'
p66
aS'variable_0'
p67
ag9
aS'variable_1'
p68
ag11
aS'struct'
p69
aS'variable_2'
p70
ag9
aS'variable_3'
p71
ag11
aS'char'
p72
ag9
aS'variable_4'
p73
ag11
aS'unsigned'
p74
aS'long'
p75
aS'variable_5'
p76
ag20
aS'variable_6'
p77
ag22
aS'func_1'
p78
ag6
aS'variable_4'
p79
ag20
ag25
aS'if'
p80
ag6
ag27
aS'variable_6'
p81
ag20
aS'variable_7'
p82
ag22
aS'func_2'
p83
ag6
aS'variable_3'
p84
ag20
ag25
aS'if'
p85
ag6
ag27
aS'variable_7'
p86
ag20
aS'if'
p87
ag6
ag27
aS'strcmp'
p88
ag6
aS'variable_4'
p89
ag11
aS'variable_8'
p90
ag20
ag20
aS'if'
p91
ag6
ag27
aS'strcmp'
p92
ag6
aS'variable_4'
p93
ag11
aS'variable_9'
p94
ag20
aS'||'
p95
ag27
aS'strcmp'
p96
ag6
aS'variable_4'
p97
ag11
aS'variable_10'
p98
ag20
aS'||'
p99
ag27
aS'strcmp'
p100
ag6
aS'variable_4'
p101
ag11
aS'variable_11'
p102
ag20
aS'||'
p103
ag27
aS'strcmp'
p104
ag6
aS'variable_4'
p105
ag11
aS'variable_12'
p106
ag20
ag20
aa(lp107
S'static'
p108
aS'int'
p109
aS'func_0'
p110
ag6
aS'struct'
p111
aS'variable_0'
p112
ag9
aS'variable_1'
p113
ag11
aS'struct'
p114
aS'variable_2'
p115
ag9
aS'variable_3'
p116
ag11
aS'char'
p117
ag9
aS'variable_4'
p118
ag11
aS'unsigned'
p119
aS'long'
p120
aS'variable_5'
p121
ag20
aS'variable_6'
p122
ag22
aS'func_1'
p123
ag6
aS'variable_4'
p124
ag20
ag25
aS'if'
p125
ag6
ag27
aS'variable_6'
p126
ag20
aS'variable_7'
p127
ag22
aS'func_2'
p128
ag6
aS'variable_3'
p129
ag20
ag25
aS'if'
p130
ag6
ag27
aS'variable_7'
p131
ag20
aS'if'
p132
ag6
ag27
aS'strcmp'
p133
ag6
aS'variable_4'
p134
ag11
aS'variable_8'
p135
ag20
ag20
aaa(lp136
I0
aI0
aI0
aa(lp137
I93
aI59
aI49
aa(lp138
(lp139
S'main'
p140
aa(lp141
g140
aa(lp142
g140
aaa(lp143
S'732 /home/SySeVR/data/CVE_2011_2518_PATCHED_tomoyo_mount_acl.c strcmp 39'
p144
aS'734 /home/SySeVR/data/CVE_2011_2518_PATCHED_tomoyo_mount_acl.c strcmp 34'
p145
aS'738 /home/SySeVR/data/CVE_2011_2518_PATCHED_tomoyo_mount_acl.c strcmp 32'
p146
aa.