(lp0
(lp1
(lp2
S'static'
p3
aS'int'
p4
aS'func_0'
p5
aS'('
p6
aS'const'
p7
aS'unsigned'
p8
aS'char'
p9
aS'*'
p10
aS'variable_0'
p11
aS','
p12
aS'int'
p13
aS'variable_1'
p14
ag12
aS'unsigned'
p15
aS'char'
p16
ag10
aS'variable_2'
p17
ag12
aS'int'
p18
aS'variable_3'
p19
aS')'
p20
aS'const'
p21
aS'unsigned'
p22
aS'char'
p23
ag10
aS'variable_4'
p24
aS';'
p25
aS'const'
p26
aS'unsigned'
p27
aS'char'
p28
ag10
aS'variable_5'
p29
ag25
aS'unsigned'
p30
aS'char'
p31
ag10
aS'variable_6'
p32
ag25
aS'int'
p33
aS'variable_7'
p34
ag12
aS'variable_8'
p35
ag25
aS'unsigned'
p36
aS'char'
p37
ag10
aS'variable_9'
p38
aS'='
p39
aS'variable_2'
p40
aS'+'
p41
aS'variable_3'
p42
ag25
aS'variable_4'
p43
ag39
aS'variable_0'
p44
ag25
aS'variable_5'
p45
ag39
aS'variable_0'
p46
ag41
aS'variable_1'
p47
ag25
aS'variable_6'
p48
ag39
aS'variable_2'
p49
ag25
aS'if'
p50
ag6
aS'variable_10'
p51
aS'&'
p52
aS'1'
p53
ag20
aS'if'
p54
ag6
aS'variable_5'
p55
aS'-'
p56
aS'variable_4'
p57
aS'<'
p58
ag53
ag20
ag10
aS'variable_6'
p59
aS'++'
p60
ag39
ag10
aS'variable_4'
p61
aS'++'
p62
ag25
aS'variable_10'
p63
aS'>>'
p64
ag39
ag53
ag25
aS'variable_7'
p65
ag39
aS'0'
p66
ag25
aS'if'
p67
ag6
aS'variable_5'
p68
ag56
aS'variable_4'
p69
ag58
ag53
ag20
aS'variable_8'
p70
ag39
ag10
aS'variable_4'
p71
aS'++'
p72
ag25
aS'if'
p73
ag6
aS'variable_8'
p74
ag52
aS'0x80'
p75
ag20
aS'variable_8'
p76
ag39
ag6
aS'variable_8'
p77
ag52
aS'0x7F'
p78
ag20
ag10
aS'2'
p79
ag25
aS'if'
p80
ag6
aS'variable_9'
p81
ag56
aS'variable_6'
p82
ag58
aS'variable_8'
p83
aS'||'
p84
aS'variable_5'
p85
ag56
aS'variable_4'
p86
ag58
aS'variable_8'
p87
ag20
aS'memcpy'
p88
ag6
aS'variable_6'
p89
ag12
aS'variable_4'
p90
ag12
aS'variable_8'
p91
ag20
ag25
aS'variable_4'
p92
aS'+='
p93
aS'variable_8'
p94
ag25
aS'variable_6'
p95
aS'+='
p96
aS'variable_8'
p97
ag25
aS'if'
p98
ag6
aS'variable_9'
p99
ag56
aS'variable_6'
p100
ag58
aS'variable_7'
p101
aS'||'
p102
aS'variable_5'
p103
ag56
aS'variable_4'
p104
ag58
ag79
ag20
aS'for'
p105
ag6
aS'variable_7'
p106
ag39
ag66
ag25
aS'variable_7'
p107
ag58
aS'variable_8'
p108
ag25
aS'variable_7'
p109
aS'++'
p110
ag20
ag10
aS'variable_6'
p111
aS'++'
p112
ag39
aS'variable_4'
p113
aS'['
p114
ag66
aS']'
p115
ag25
ag10
aS'variable_6'
p116
aS'++'
p117
ag39
aS'variable_4'
p118
ag114
ag53
ag115
ag25
aS'variable_4'
p119
aS'+='
p120
ag79
ag25
aS'variable_7'
p121
aS'+='
p122
aS'variable_8'
p123
ag25
aS'while'
p124
ag6
aS'variable_7'
p125
ag58
aS'variable_10'
p126
ag20
aaa(lp127
I0
aa(lp128
I140
aa(lp129
(lp130
S'main'
p131
aaa(lp132
S'538 /home/SySeVR/data/CVE_2013_3670_VULN_rle_unpack.c memcpy 29'
p133
aa.