(lp0
(lp1
(lp2
S'func_0'
p3
aS'('
p4
aS'variable_0'
p5
aS'*'
p6
aS'variable_1'
p7
aS','
p8
aS'variable_2'
p9
ag6
aS'variable_3'
p10
aS')'
p11
aS'guint64'
p12
aS'variable_4'
p13
aS';'
p14
aS'guint8'
p15
aS'variable_5'
p16
ag14
aS'int'
p17
aS'variable_6'
p18
ag14
aS'int'
p19
aS'variable_7'
p20
ag14
aS'int'
p21
aS'variable_8'
p22
ag14
aS'int'
p23
aS'variable_9'
p24
ag14
aS'int'
p25
aS'variable_10'
p26
ag8
aS'variable_11'
p27
ag8
aS'variable_12'
p28
ag8
aS'variable_13'
p29
ag14
aS'int'
p30
aS'variable_14'
p31
ag8
aS'variable_15'
p32
ag8
aS'variable_16'
p33
ag8
aS'variable_17'
p34
ag14
aS'int'
p35
aS'variable_18'
p36
ag14
aS'int'
p37
aS'variable_19'
p38
ag14
aS'int'
p39
aS'variable_20'
p40
ag14
aS'variable_8'
p41
aS'='
p42
aS'1'
p43
ag14
aS'variable_4'
p44
ag42
aS'func_1'
p45
ag4
aS'variable_3'
p46
ag8
aS'variable_8'
p47
ag8
aS'&'
p48
aS'variable_9'
p49
ag11
ag14
aS'if'
p50
ag4
aS'variable_9'
p51
aS'<'
p52
ag43
aS'||'
p53
aS'variable_9'
p54
aS'>'
p55
aS'8'
p56
ag11
aS'variable_5'
p57
ag42
ag4
aS'variable_21'
p58
ag11
ag4
ag4
aS'variable_4'
p59
aS'>>'
p60
aS'7'
p61
ag11
ag48
aS'0x7f'
p62
ag11
ag14
aS'if'
p63
ag4
ag4
aS'variable_5'
p64
ag48
aS'variable_22'
p65
ag11
aS'=='
p66
aS'variable_23'
p67
ag11
aS'if'
p68
ag4
ag4
aS'variable_5'
p69
ag48
aS'variable_22'
p70
ag11
aS'=='
p71
aS'variable_24'
p72
ag11
aS'if'
p73
ag4
ag4
aS'variable_5'
p74
ag48
aS'variable_22'
p75
ag11
aS'=='
p76
aS'variable_25'
p77
ag11
aS'variable_8'
p78
aS'+='
p79
aS'variable_9'
p80
ag14
aS'variable_6'
p81
ag42
aS'func_2'
p82
ag4
aS'variable_3'
p83
ag8
aS'variable_8'
p84
ag8
ag48
aS'variable_9'
p85
ag11
ag14
aS'if'
p86
ag4
aS'variable_6'
p87
ag52
aS'0'
p88
ag11
aS'variable_8'
p89
aS'+='
p90
aS'variable_9'
p91
ag14
aS'variable_10'
p92
ag42
aS'func_3'
p93
ag4
aS'variable_3'
p94
ag8
aS'variable_8'
p95
ag8
ag48
aS'variable_9'
p96
ag11
ag14
aS'if'
p97
ag4
ag4
aS'variable_10'
p98
ag52
ag88
ag11
aS'||'
p99
ag4
aS'variable_10'
p100
ag55
aS'variable_6'
p101
ag11
ag11
aS'variable_8'
p102
aS'+='
p103
aS'variable_9'
p104
ag14
aS'variable_11'
p105
ag42
aS'func_4'
p106
ag4
aS'variable_3'
p107
ag8
aS'variable_8'
p108
ag8
ag48
aS'variable_9'
p109
ag11
ag14
aS'if'
p110
ag4
ag4
aS'variable_11'
p111
ag52
ag88
ag11
aS'||'
p112
ag4
aS'variable_11'
p113
ag55
aS'variable_6'
p114
ag11
ag11
aS'variable_8'
p115
aS'+='
p116
aS'variable_9'
p117
ag14
aS'variable_12'
p118
ag42
aS'func_5'
p119
ag4
aS'variable_3'
p120
ag8
aS'variable_8'
p121
ag8
ag48
aS'variable_9'
p122
ag11
ag14
aS'if'
p123
ag4
ag4
aS'variable_12'
p124
ag52
ag88
ag11
aS'||'
p125
ag4
aS'variable_12'
p126
ag55
aS'variable_6'
p127
ag11
ag11
aS'variable_8'
p128
aS'+='
p129
aS'variable_9'
p130
ag14
aS'variable_13'
p131
ag42
aS'func_6'
p132
ag4
aS'variable_3'
p133
ag8
aS'variable_8'
p134
ag8
ag48
aS'variable_9'
p135
ag11
ag14
aS'if'
p136
ag4
ag4
aS'variable_13'
p137
ag52
ag88
ag11
aS'||'
p138
ag4
aS'variable_13'
p139
ag55
aS'variable_6'
p140
ag11
ag11
aS'variable_8'
p141
aS'+='
p142
aS'variable_9'
p143
ag14
aS'variable_14'
p144
ag42
aS'func_7'
p145
ag4
aS'variable_3'
p146
ag8
aS'variable_8'
p147
ag8
ag48
aS'variable_9'
p148
ag11
ag14
aS'if'
p149
ag4
ag4
aS'variable_14'
p150
ag52
ag88
ag11
aS'||'
p151
ag4
aS'variable_14'
p152
ag55
aS'variable_6'
p153
ag11
ag11
aS'variable_8'
p154
aS'+='
p155
aS'variable_9'
p156
ag14
aS'variable_15'
p157
ag42
aS'func_8'
p158
ag4
aS'variable_3'
p159
ag8
aS'variable_8'
p160
ag8
ag48
aS'variable_9'
p161
ag11
ag14
aS'if'
p162
ag4
ag4
aS'variable_15'
p163
ag52
ag88
ag11
aS'||'
p164
ag4
aS'variable_15'
p165
ag55
aS'variable_6'
p166
ag11
ag11
aS'variable_8'
p167
aS'+='
p168
aS'variable_9'
p169
ag14
aS'variable_16'
p170
ag42
aS'func_9'
p171
ag4
aS'variable_3'
p172
ag8
aS'variable_8'
p173
ag8
ag48
aS'variable_9'
p174
ag11
ag14
aS'if'
p175
ag4
ag4
aS'variable_16'
p176
ag52
ag88
ag11
aS'||'
p177
ag4
aS'variable_16'
p178
ag55
aS'variable_6'
p179
ag11
ag11
aS'variable_8'
p180
aS'+='
p181
aS'variable_9'
p182
ag14
aS'variable_17'
p183
ag42
aS'func_10'
p184
ag4
aS'variable_3'
p185
ag8
aS'variable_8'
p186
ag8
ag48
aS'variable_9'
p187
ag11
ag14
aS'if'
p188
ag4
ag4
aS'variable_17'
p189
ag52
ag88
ag11
aS'||'
p190
ag4
aS'variable_17'
p191
ag55
aS'variable_6'
p192
ag11
ag11
aS'variable_8'
p193
aS'+='
p194
aS'variable_9'
p195
ag14
aS'variable_18'
p196
ag42
aS'func_11'
p197
ag4
aS'variable_3'
p198
ag8
aS'variable_8'
p199
ag8
ag48
aS'variable_9'
p200
ag11
ag14
aS'if'
p201
ag4
aS'variable_18'
p202
ag52
ag88
ag11
aS'variable_8'
p203
aS'+='
p204
aS'variable_9'
p205
ag14
aS'variable_19'
p206
ag42
aS'func_12'
p207
ag4
aS'variable_3'
p208
ag8
aS'variable_8'
p209
ag8
ag48
aS'variable_9'
p210
ag11
ag14
aS'if'
p211
ag4
aS'variable_19'
p212
ag52
ag88
ag11
aS'gint64'
p213
aS'variable_26'
p214
ag14
aS'if'
p215
ag4
ag4
aS'variable_26'
p216
ag42
aS'func_13'
p217
ag4
aS'variable_3'
p218
ag8
aS'variable_8'
p219
ag8
ag48
aS'variable_9'
p220
ag11
ag11
ag52
ag88
ag11
aS'variable_8'
p221
aS'+='
p222
aS'variable_9'
p223
ag14
aS'variable_20'
p224
ag42
aS'func_14'
p225
ag4
aS'variable_3'
p226
ag8
aS'variable_8'
p227
ag8
ag48
aS'variable_9'
p228
ag11
ag14
aS'if'
p229
ag4
aS'variable_20'
p230
ag52
ag88
ag11
aS'variable_8'
p231
aS'+='
p232
aS'variable_9'
p233
ag14
aS'variable_7'
p234
ag42
aS'func_15'
p235
ag4
aS'variable_3'
p236
ag8
aS'variable_8'
p237
ag8
ag48
aS'variable_9'
p238
ag11
ag14
aS'if'
p239
ag4
aS'variable_7'
p240
ag52
ag88
ag11
aS'variable_8'
p241
aS'+='
p242
aS'variable_9'
p243
ag14
aS'if'
p244
ag4
aS'variable_7'
p245
aS'=='
p246
ag88
ag11
aS'variable_27'
p247
ag42
aS'func_16'
p248
ag4
aS'"'
p249
aS'%'
p250
aS's'
p251
aS':'
p252
ag250
ag251
ag249
ag8
aS'func_17'
p253
ag4
aS'variable_3'
p254
ag8
aS'variable_8'
p255
aS'+'
p256
aS'variable_16'
p257
ag8
aS'NULL'
p258
ag11
ag8
aS'func_18'
p259
ag4
aS'variable_3'
p260
ag8
aS'variable_8'
p261
ag256
aS'variable_17'
p262
ag8
aS'NULL'
p263
ag11
ag11
ag14
aaa(lp264
I0
aa(lp265
I528
aa(lp266
(lp267
S'main'
p268
aaa(lp269
S'460 /home/SySeVR/data/CVE_2013_1584_PATCHED_dissect_version_5_and_6_primary_header.c bundle_custodian = ep_strdup_printf ( "%s:%s" , tvb_get_ephemeral_stringz ( tvb , offset + cust_scheme_offset , NULL ) , tvb_get_ephemeral_stringz ( tvb , offset + cust_ssp_offset , NULL ) ) 456'
p270
aa.