(lp0
(lp1
(lp2
S'static'
p3
aS'void'
p4
aS'func_0'
p5
aS'('
p6
aS'variable_0'
p7
aS'*'
p8
aS'variable_1'
p9
aS','
p10
aS'variable_0'
p11
ag8
aS'variable_2'
p12
ag10
aS'int'
p13
aS'variable_3'
p14
aS')'
p15
aS'long'
p16
aS'variable_4'
p17
aS';'
p18
aS'for'
p19
ag6
aS'variable_4'
p20
aS'='
p21
aS'0'
p22
ag18
aS'variable_4'
p23
aS'<'
p24
ag21
aS'variable_3'
p25
aS'-'
p26
aS'sizeof'
p27
ag6
aS'long'
p28
ag15
ag18
aS'variable_4'
p29
aS'+='
p30
aS'sizeof'
p31
ag6
aS'long'
p32
ag15
ag15
aS'long'
p33
aS'variable_5'
p34
ag21
ag8
ag6
aS'long'
p35
ag8
ag15
ag6
aS'variable_2'
p36
aS'+'
p37
aS'variable_4'
p38
ag15
ag18
aS'long'
p39
aS'variable_6'
p40
ag21
ag8
ag6
aS'long'
p41
ag8
ag15
ag6
aS'variable_1'
p42
ag37
aS'variable_4'
p43
ag15
ag18
ag8
ag6
aS'long'
p44
ag8
ag15
ag6
aS'variable_1'
p45
ag37
aS'variable_4'
p46
ag15
ag21
ag6
ag6
aS'variable_5'
p47
aS'&'
p48
aS'variable_7'
p49
ag15
ag37
ag6
aS'variable_6'
p50
ag48
aS'variable_7'
p51
ag15
ag15
aS'^'
p52
ag6
ag6
aS'variable_5'
p53
ag52
aS'variable_6'
p54
ag15
ag48
aS'variable_8'
p55
ag15
ag18
aS'for'
p56
ag6
ag18
aS'variable_4'
p57
ag24
aS'variable_3'
p58
ag18
aS'variable_4'
p59
aS'++'
p60
ag15
aS'variable_1'
p61
aS'['
p62
aS'variable_4'
p63
ag37
ag22
aS']'
p64
aS'+='
p65
aS'variable_2'
p66
ag62
aS'variable_4'
p67
ag37
ag22
ag64
ag18
aaa(lp68
I0
aa(lp69
I67
aa(lp70
(lp71
S'main'
p72
aaa(lp73
S'848 /home/SySeVR/data/CVE_2013_7010_VULN_add_bytes_c.c long b = * ( long * ) ( dst + i ) ; 5'
p74
aa.