(lp0
(lp1
(lp2
S'func_0'
p3
aS'('
p4
aS'FT_Bool'
p5
aS'variable_0'
p6
aS')'
p7
aS'if'
p8
ag4
aS'variable_1'
p9
aS'>'
p10
aS'2'
p11
ag7
aS'variable_2'
p12
aS'->'
p13
aS'variable_1'
p14
aS'='
p15
aS'variable_3'
p16
aS'+'
p17
aS'variable_1'
p18
aS';'
p19
aS'if'
p20
ag4
aS'func_1'
p21
ag4
aS'variable_2'
p22
aS'->'
p23
aS'variable_1'
p24
ag7
aS'||'
p25
aS'func_2'
p26
ag4
aS'variable_2'
p27
aS'->'
p28
aS'variable_4'
p29
ag7
ag7
aS'if'
p30
ag4
aS'func_3'
p31
ag4
aS'variable_2'
p32
aS'->'
p33
aS'variable_5'
p34
aS','
p35
aS'variable_6'
p36
ag7
ag7
aS'variable_2'
p37
aS'->'
p38
aS'variable_5'
p39
aS'['
p40
aS'0'
p41
aS']'
p42
ag15
ag41
ag19
aS'switch'
p43
ag4
aS'variable_2'
p44
aS'->'
p45
aS'variable_4'
p46
ag7
aS'variable_2'
p47
aS'->'
p48
aS'variable_5'
p49
ag40
aS'variable_7'
p50
ag42
ag15
aS'func_4'
p51
ag4
ag7
ag19
aS'while'
p52
ag4
aS'variable_7'
p53
aS'<'
p54
aS'variable_6'
p55
ag7
aS'if'
p56
ag4
aS'func_5'
p57
ag4
aS'variable_8'
p58
ag7
ag7
aS'if'
p59
ag4
aS'variable_2'
p60
aS'->'
p61
aS'variable_4'
p62
aS'=='
p63
ag11
ag7
aS'for'
p64
ag4
aS'variable_9'
p65
ag15
ag41
ag19
aS'variable_7'
p66
ag54
aS'variable_6'
p67
aS'&&'
p68
aS'variable_9'
p69
ag54
ag15
aS'variable_10'
p70
ag19
aS'variable_9'
p71
aS'++'
p72
ag35
aS'variable_7'
p73
aS'++'
p74
ag35
aS'variable_8'
p75
aS'++'
p76
ag7
aS'variable_2'
p77
aS'->'
p78
aS'variable_5'
p79
ag40
aS'variable_7'
p80
ag42
ag15
aS'variable_8'
p81
ag19
aS'func_6'
p82
ag4
aS'variable_2'
p83
aS'->'
p84
aS'variable_5'
p85
ag7
ag19
aS'func_7'
p86
ag4
aS'variable_2'
p87
aS'->'
p88
aS'variable_11'
p89
ag7
ag19
aaa(lp90
I0
aa(lp91
I13
aa(lp92
(lp93
S'main'
p94
aaa(lp95
S'62 /home/SySeVR/data/CVE_2009_0946_VULN_cff_charset_load.c charset -> offset = base_offset + offset 21'
p96
aa.