(lp0
(lp1
(lp2
S'static'
p3
aS'void'
p4
aS'func_0'
p5
aS'('
p6
aS'struct'
p7
aS'variable_0'
p8
aS'*'
p9
aS'variable_1'
p10
aS')'
p11
aS'struct'
p12
aS'variable_2'
p13
ag9
aS'variable_3'
p14
aS'='
p15
ag6
aS'struct'
p16
aS'tok_info'
p17
ag9
ag11
aS'variable_1'
p18
aS'->'
p19
aS'variable_4'
p20
aS';'
p21
aS'__u32'
p22
aS'variable_5'
p23
ag21
aS'void'
p24
aS'variable_6'
p25
ag9
aS'variable_7'
p26
aS','
p27
ag9
aS'variable_8'
p28
ag27
ag9
aS'variable_9'
p29
ag21
aS'unsigned'
p30
aS'int'
p31
aS'variable_10'
p32
ag27
aS'variable_11'
p33
ag27
aS'variable_12'
p34
ag27
aS'variable_13'
p35
ag27
aS'variable_14'
p36
ag21
aS'struct'
p37
aS'variable_15'
p38
ag9
aS'variable_16'
p39
ag21
aS'struct'
p40
aS'arb_rec_req'
p41
aS'variable_17'
p42
ag21
aS'variable_5'
p43
ag15
aS'func_1'
p44
ag6
aS'variable_17'
p45
aS'.'
p46
aS'variable_18'
p47
ag11
ag21
aS'variable_7'
p48
ag15
aS'func_2'
p49
ag6
aS'variable_3'
p50
ag27
aS'variable_5'
p51
ag27
aS'&'
p52
aS'variable_19'
p53
ag11
ag21
aS'variable_11'
p54
ag15
aS'variable_17'
p55
ag46
aS'variable_11'
p56
ag21
aS'variable_14'
p57
ag15
aS'func_3'
p58
ag6
aS'variable_17'
p59
ag46
aS'variable_20'
p60
ag11
ag21
aS'variable_21'
p61
ag15
aS'variable_14'
p62
aS'-'
p63
aS'variable_11'
p64
aS'+'
p65
aS'sizeof'
p66
ag6
aS'struct'
p67
aS'variable_22'
p68
ag11
ag65
aS'sizeof'
p69
ag6
aS'struct'
p70
aS'variable_23'
p71
ag11
ag21
aS'if'
p72
ag6
aS'!'
p73
ag6
aS'variable_16'
p74
ag15
aS'func_4'
p75
ag6
aS'variable_21'
p76
ag11
ag11
ag11
aS'if'
p77
ag6
aS'variable_24'
p78
ag52
aS'variable_25'
p79
aS'&&'
p80
aS'variable_14'
p81
aS'<'
p82
aS'variable_10'
p83
ag11
aS'func_5'
p84
ag6
aS'"'
p85
aS'CURIOUS'
p86
ag27
aS'length'
p87
ag15
aS'%'
p88
aS'd'
p89
ag82
aS'rbuffer_len'
p90
ag15
ag88
ag89
aS'\\'
p91
aS'n'
p92
ag85
ag27
aS'variable_14'
p93
ag27
aS'variable_10'
p94
ag11
ag21
aS'variable_26'
p95
ag15
aS'func_6'
p96
ag6
ag6
aS'void'
p97
ag9
ag11
aS'variable_8'
p98
ag27
aS'variable_27'
p99
ag27
aS'variable_14'
p100
ag82
aS'variable_10'
p101
aS'?'
p102
aS'variable_14'
p103
aS':'
p104
aS'variable_10'
p105
ag27
aS'variable_26'
p106
ag11
ag21
aS'func_7'
p107
ag6
aS'variable_27'
p108
ag27
aS'variable_8'
p109
ag27
aS'variable_10'
p110
ag11
ag21
aS'variable_5'
p111
ag15
aS'func_8'
p112
ag6
aS'func_9'
p113
ag6
aS'variable_7'
p114
ag65
aS'variable_28'
p115
ag11
ag11
ag21
aS'if'
p116
ag6
ag73
aS'variable_5'
p117
ag11
aS'variable_5'
p118
aS'-='
p119
aS'2'
p120
ag21
aS'variable_14'
p121
aS'-='
p122
aS'variable_10'
p123
ag21
aS'variable_27'
p124
aS'+='
p125
aS'variable_10'
p126
ag21
aS'variable_7'
p127
ag15
aS'func_10'
p128
ag6
aS'variable_3'
p129
ag27
aS'variable_5'
p130
ag27
ag52
aS'variable_19'
p131
ag11
ag21
aS'variable_10'
p132
ag15
aS'func_11'
p133
ag6
aS'func_12'
p134
ag6
aS'variable_7'
p135
ag65
aS'variable_29'
p136
ag11
ag11
ag21
aS'variable_8'
p137
ag15
aS'variable_7'
p138
ag65
aS'offsetof'
p139
ag6
aS'struct'
p140
aS'variable_30'
p141
ag27
aS'variable_27'
p142
ag11
aS'variable_16'
p143
aS'->'
p144
aS'variable_31'
p145
ag15
aS'variable_26'
p146
ag21
aS'variable_16'
p147
aS'->'
p148
aS'variable_32'
p149
ag15
aS'variable_33'
p150
ag21
aS'func_13'
p151
ag6
aS'variable_16'
p152
ag11
ag21
aa(lp153
S'static'
p154
aS'void'
p155
aS'func_0'
p156
ag6
aS'struct'
p157
aS'variable_0'
p158
ag9
aS'variable_1'
p159
ag11
aS'struct'
p160
aS'variable_2'
p161
ag9
aS'variable_3'
p162
ag15
ag6
aS'struct'
p163
aS'tok_info'
p164
ag9
ag11
aS'variable_1'
p165
aS'->'
p166
aS'variable_4'
p167
ag21
aS'__u32'
p168
aS'variable_5'
p169
ag21
aS'void'
p170
aS'variable_6'
p171
ag9
aS'variable_7'
p172
ag27
ag9
aS'variable_8'
p173
ag27
ag9
aS'variable_9'
p174
ag21
aS'unsigned'
p175
aS'char'
p176
ag9
aS'variable_10'
p177
ag21
aS'unsigned'
p178
aS'int'
p179
aS'variable_11'
p180
ag27
aS'variable_12'
p181
ag27
aS'variable_13'
p182
ag27
aS'variable_14'
p183
ag27
aS'variable_15'
p184
ag21
aS'struct'
p185
aS'variable_16'
p186
ag9
aS'variable_17'
p187
ag21
aS'struct'
p188
aS'variable_18'
p189
ag9
aS'variable_19'
p190
ag21
aS'struct'
p191
aS'arb_rec_req'
p192
aS'variable_20'
p193
ag21
aS'variable_5'
p194
ag15
aS'func_1'
p195
ag6
aS'variable_20'
p196
ag46
aS'variable_21'
p197
ag11
ag21
aS'variable_7'
p198
ag15
aS'func_2'
p199
ag6
aS'variable_3'
p200
ag27
aS'variable_5'
p201
ag27
ag52
aS'variable_22'
p202
ag11
ag21
aS'variable_12'
p203
ag15
aS'variable_20'
p204
ag46
aS'variable_12'
p205
ag21
aS'if'
p206
ag6
aS'variable_12'
p207
aS'>'
p208
aS'sizeof'
p209
ag6
aS'struct'
p210
aS'variable_23'
p211
ag11
ag11
aS'variable_13'
p212
ag15
aS'variable_12'
p213
ag65
aS'sizeof'
p214
ag6
aS'struct'
p215
aS'variable_24'
p216
ag11
ag65
aS'sizeof'
p217
ag6
aS'struct'
p218
aS'variable_18'
p219
ag11
ag21
aS'variable_9'
p220
ag15
aS'variable_7'
p221
ag65
aS'offsetof'
p222
ag6
aS'struct'
p223
aS'variable_25'
p224
ag27
aS'variable_10'
p225
ag11
ag65
aS'variable_15'
p226
ag15
aS'func_3'
p227
ag6
aS'variable_20'
p228
ag46
aS'variable_26'
p229
ag11
ag21
aS'if'
p230
ag6
aS'func_4'
p231
ag6
aS'variable_9'
p232
ag65
aS'variable_27'
p233
ag11
aS'=='
p234
aS'variable_28'
p235
aS'&&'
p236
aS'func_5'
p237
ag6
aS'variable_9'
p238
ag65
aS'variable_29'
p239
ag11
aS'=='
p240
aS'variable_28'
p241
aS'&&'
p242
aS'variable_15'
p243
ag208
ag15
aS'variable_13'
p244
ag11
aS'variable_30'
p245
ag15
aS'1'
p246
ag21
aS'variable_31'
p247
ag15
aS'variable_15'
p248
ag63
aS'variable_12'
p249
ag65
aS'sizeof'
p250
ag6
aS'struct'
p251
aS'variable_23'
p252
ag11
ag65
aS'sizeof'
p253
ag6
aS'struct'
p254
aS'variable_24'
p255
ag11
ag21
aS'if'
p256
ag6
ag73
ag6
aS'variable_17'
p257
ag15
aS'func_6'
p258
ag6
aS'variable_31'
p259
ag11
ag11
ag11
aS'variable_17'
p260
aS'->'
p261
aS'variable_1'
p262
ag15
aS'variable_1'
p263
ag21
aS'variable_10'
p264
ag15
aS'variable_17'
p265
aS'->'
p266
aS'variable_10'
p267
ag21
aS'if'
p268
ag6
aS'variable_30'
p269
ag11
aS'variable_19'
p270
ag15
ag6
aS'struct'
p271
aS'iphdr'
p272
ag9
ag11
ag6
aS'variable_10'
p273
ag65
aS'variable_12'
p274
ag65
aS'sizeof'
p275
ag6
aS'struct'
p276
aS'variable_24'
p277
ag11
ag11
ag21
aS'variable_14'
p278
ag15
aS'func_7'
p279
ag6
aS'variable_19'
p280
aS'->'
p281
aS'variable_32'
p282
ag11
ag63
aS'sizeof'
p283
ag6
aS'struct'
p284
aS'variable_18'
p285
ag11
ag21
aS'if'
p286
ag6
ag6
aS'variable_14'
p287
ag82
ag15
aS'variable_15'
p288
ag11
aS'&&'
p289
ag6
aS'variable_14'
p290
ag208
aS'7'
p291
ag11
ag11
aS'variable_15'
p292
ag15
aS'variable_14'
p293
ag21
aS'if'
p294
ag6
aS'variable_33'
p295
ag52
aS'variable_34'
p296
aS'&&'
p297
aS'variable_15'
p298
ag82
aS'variable_11'
p299
ag11
aS'func_8'
p300
ag6
ag85
aS'CURIOUS'
p301
ag27
aS'length'
p302
ag15
ag88
ag89
ag82
aS'rbuffer_len'
p303
ag15
ag88
ag89
ag91
ag92
ag85
ag27
aS'variable_15'
p304
ag27
aS'variable_11'
p305
ag11
ag21
aS'variable_35'
p306
ag15
aS'func_9'
p307
ag6
ag6
aS'void'
p308
ag9
ag11
aS'variable_8'
p309
ag27
aS'variable_10'
p310
ag27
aS'variable_15'
p311
ag82
aS'variable_11'
p312
ag102
aS'variable_15'
p313
ag104
aS'variable_11'
p314
ag27
aS'variable_35'
p315
ag11
ag21
aS'variable_15'
p316
aS'-='
p317
aS'variable_11'
p318
ag21
aS'variable_17'
p319
aS'->'
p320
aS'variable_36'
p321
ag15
aS'variable_35'
p322
ag21
aS'variable_17'
p323
aS'->'
p324
aS'variable_37'
p325
ag15
aS'variable_38'
p326
ag21
aS'func_10'
p327
ag6
aS'variable_17'
p328
ag11
ag21
aa(lp329
S'static'
p330
aS'void'
p331
aS'func_0'
p332
ag6
aS'struct'
p333
aS'variable_0'
p334
ag9
aS'variable_1'
p335
ag11
aS'unsigned'
p336
aS'int'
p337
aS'variable_2'
p338
ag27
aS'variable_3'
p339
ag27
aS'variable_4'
p340
ag27
aS'variable_5'
p341
ag27
aS'variable_6'
p342
ag21
aS'struct'
p343
aS'arb_rec_req'
p344
aS'variable_7'
p345
ag21
aS'variable_3'
p346
ag15
aS'variable_7'
p347
ag46
aS'variable_3'
p348
ag21
aS'variable_6'
p349
ag15
aS'func_1'
p350
ag6
aS'variable_7'
p351
ag46
aS'variable_8'
p352
ag11
ag21
aS'variable_9'
p353
ag15
aS'variable_6'
p354
ag63
aS'variable_3'
p355
ag65
aS'sizeof'
p356
ag6
aS'struct'
p357
aS'variable_10'
p358
ag11
ag65
aS'sizeof'
p359
ag6
aS'struct'
p360
aS'variable_11'
p361
ag11
ag21
aS'if'
p362
ag6
ag73
ag6
aS'variable_12'
p363
ag15
aS'func_2'
p364
ag6
aS'variable_9'
p365
ag11
ag11
ag11
aS'func_3'
p366
ag6
aS'variable_12'
p367
ag27
aS'sizeof'
p368
ag6
aS'struct'
p369
aS'variable_10'
p370
ag11
ag63
aS'variable_3'
p371
ag11
ag21
aS'func_4'
p372
ag6
aS'variable_12'
p373
ag27
aS'variable_6'
p374
ag11
ag21
aS'variable_12'
p375
aS'->'
p376
aS'variable_1'
p377
ag15
aS'variable_1'
p378
ag21
aS'variable_13'
p379
ag15
aS'variable_12'
p380
aS'->'
p381
aS'variable_13'
p382
ag21
aS'func_5'
p383
ag6
aS'variable_13'
p384
ag27
aS'variable_14'
p385
ag27
aS'variable_4'
p386
ag11
ag21
aS'variable_15'
p387
ag15
ag6
aS'struct'
p388
aS'iphdr'
p389
ag9
ag11
ag6
aS'variable_13'
p390
ag65
aS'variable_3'
p391
ag65
aS'sizeof'
p392
ag6
aS'struct'
p393
aS'variable_11'
p394
ag11
ag11
ag21
aS'variable_5'
p395
ag15
aS'func_6'
p396
ag6
aS'variable_15'
p397
aS'->'
p398
aS'variable_16'
p399
ag11
ag63
aS'sizeof'
p400
ag6
aS'struct'
p401
aS'variable_17'
p402
ag11
ag21
aS'if'
p403
ag6
ag6
aS'variable_5'
p404
ag82
ag15
aS'variable_6'
p405
ag11
aS'&&'
p406
ag6
aS'variable_5'
p407
ag208
ag291
ag11
ag11
aS'variable_6'
p408
ag15
aS'variable_5'
p409
ag21
aS'variable_13'
p410
aS'+='
p411
aS'variable_4'
p412
ag21
aS'if'
p413
ag6
aS'variable_18'
p414
ag52
aS'variable_19'
p415
aS'&&'
p416
aS'variable_6'
p417
ag82
aS'variable_2'
p418
ag11
aS'func_7'
p419
ag6
ag85
aS'CURIOUS'
p420
ag27
aS'length'
p421
ag15
ag88
ag89
ag82
aS'rbuffer_len'
p422
ag15
ag88
ag89
ag91
ag92
ag85
ag27
aS'variable_6'
p423
ag27
aS'variable_2'
p424
ag11
ag21
aS'variable_20'
p425
ag15
aS'func_8'
p426
ag6
ag6
aS'void'
p427
ag9
ag11
aS'variable_14'
p428
ag27
aS'variable_13'
p429
ag27
aS'variable_6'
p430
ag82
aS'variable_2'
p431
ag102
aS'variable_6'
p432
ag104
aS'variable_2'
p433
ag27
aS'variable_20'
p434
ag11
ag21
aS'func_9'
p435
ag6
aS'variable_13'
p436
ag27
aS'variable_14'
p437
ag27
aS'variable_2'
p438
ag11
ag21
aS'variable_6'
p439
aS'-='
p440
aS'variable_2'
p441
ag21
aS'variable_13'
p442
aS'+='
p443
aS'variable_2'
p444
ag21
aS'variable_14'
p445
ag15
aS'variable_21'
p446
ag65
aS'offsetof'
p447
ag6
aS'struct'
p448
aS'variable_22'
p449
ag27
aS'variable_13'
p450
ag11
aS'variable_23'
p451
aS'->'
p452
aS'variable_24'
p453
ag46
aS'variable_25'
p454
aS'+='
p455
aS'variable_12'
p456
aS'->'
p457
aS'variable_26'
p458
ag21
aS'variable_23'
p459
aS'->'
p460
aS'variable_24'
p461
ag46
aS'variable_27'
p462
aS'++'
p463
ag21
aS'variable_12'
p464
aS'->'
p465
aS'variable_28'
p466
ag15
aS'func_10'
p467
ag6
aS'variable_12'
p468
ag27
aS'variable_1'
p469
ag11
ag21
aS'variable_12'
p470
aS'->'
p471
aS'variable_29'
p472
ag15
aS'variable_20'
p473
ag21
aS'variable_12'
p474
aS'->'
p475
aS'variable_30'
p476
ag15
aS'variable_31'
p477
ag21
aS'func_11'
p478
ag6
aS'variable_12'
p479
ag11
ag21
aa(lp480
S'static'
p481
aS'void'
p482
aS'func_0'
p483
ag6
aS'struct'
p484
aS'variable_0'
p485
ag9
aS'variable_1'
p486
ag11
aS'unsigned'
p487
aS'int'
p488
aS'variable_2'
p489
ag27
aS'variable_3'
p490
ag27
aS'variable_4'
p491
ag27
aS'variable_5'
p492
ag27
aS'variable_6'
p493
ag21
aS'struct'
p494
aS'arb_rec_req'
p495
aS'variable_7'
p496
ag21
aS'variable_3'
p497
ag15
aS'variable_7'
p498
ag46
aS'variable_3'
p499
ag21
aS'if'
p500
ag6
aS'variable_3'
p501
ag208
aS'sizeof'
p502
ag6
aS'struct'
p503
aS'variable_8'
p504
ag11
ag11
aS'variable_4'
p505
ag15
aS'variable_3'
p506
ag65
aS'sizeof'
p507
ag6
aS'struct'
p508
aS'variable_9'
p509
ag11
ag65
aS'sizeof'
p510
ag6
aS'struct'
p511
aS'variable_10'
p512
ag11
ag21
aS'if'
p513
ag6
aS'func_1'
p514
ag6
aS'variable_11'
p515
ag65
aS'variable_12'
p516
ag11
aS'=='
p517
aS'variable_13'
p518
aS'&&'
p519
aS'func_2'
p520
ag6
aS'variable_11'
p521
ag65
aS'variable_14'
p522
ag11
aS'=='
p523
aS'variable_13'
p524
aS'&&'
p525
aS'variable_6'
p526
ag208
ag15
aS'variable_4'
p527
ag11
aS'func_3'
p528
ag6
aS'variable_15'
p529
ag27
aS'variable_16'
p530
ag27
aS'variable_4'
p531
ag11
ag21
aS'variable_6'
p532
aS'-='
p533
aS'variable_4'
p534
ag21
aS'if'
p535
ag6
ag6
aS'variable_5'
p536
ag82
ag15
aS'variable_6'
p537
ag11
aS'&&'
p538
ag6
aS'variable_5'
p539
ag208
ag291
ag11
ag11
aS'variable_15'
p540
aS'+='
p541
aS'variable_4'
p542
ag21
aS'variable_2'
p543
aS'-='
p544
aS'variable_4'
p545
ag21
aS'variable_16'
p546
aS'+='
p547
aS'variable_4'
p548
ag21
aS'if'
p549
ag6
aS'variable_17'
p550
ag52
aS'variable_18'
p551
aS'&&'
p552
aS'variable_6'
p553
ag82
aS'variable_2'
p554
ag11
aS'func_4'
p555
ag6
ag85
aS'CURIOUS'
p556
ag27
aS'length'
p557
ag15
ag88
ag89
ag82
aS'rbuffer_len'
p558
ag15
ag88
ag89
ag91
ag92
ag85
ag27
aS'variable_6'
p559
ag27
aS'variable_2'
p560
ag11
ag21
aS'variable_19'
p561
ag15
aS'func_5'
p562
ag6
ag6
aS'void'
p563
ag9
ag11
aS'variable_16'
p564
ag27
aS'variable_15'
p565
ag27
aS'variable_6'
p566
ag82
aS'variable_2'
p567
ag102
aS'variable_6'
p568
ag104
aS'variable_2'
p569
ag27
aS'variable_19'
p570
ag11
ag21
aS'func_6'
p571
ag6
aS'variable_15'
p572
ag27
aS'variable_16'
p573
ag27
aS'variable_2'
p574
ag11
ag21
aS'variable_6'
p575
aS'-='
p576
aS'variable_2'
p577
ag21
aS'variable_15'
p578
aS'+='
p579
aS'variable_2'
p580
ag21
aS'variable_16'
p581
ag15
aS'variable_20'
p582
ag65
aS'offsetof'
p583
ag6
aS'struct'
p584
aS'variable_21'
p585
ag27
aS'variable_15'
p586
ag11
aS'variable_22'
p587
aS'->'
p588
aS'variable_23'
p589
ag15
aS'variable_19'
p590
ag21
aS'variable_22'
p591
aS'->'
p592
aS'variable_24'
p593
ag15
aS'variable_25'
p594
ag21
aS'func_7'
p595
ag6
aS'variable_22'
p596
ag11
ag21
aa(lp597
S'static'
p598
aS'void'
p599
aS'func_0'
p600
ag6
aS'struct'
p601
aS'variable_0'
p602
ag9
aS'variable_1'
p603
ag11
aS'struct'
p604
aS'variable_2'
p605
ag9
aS'variable_3'
p606
ag15
ag6
aS'struct'
p607
aS'tok_info'
p608
ag9
ag11
aS'variable_1'
p609
aS'->'
p610
aS'variable_4'
p611
ag21
aS'unsigned'
p612
aS'int'
p613
aS'variable_5'
p614
ag27
aS'variable_6'
p615
ag27
aS'variable_7'
p616
ag27
aS'variable_8'
p617
ag27
aS'variable_9'
p618
ag21
aS'unsigned'
p619
aS'char'
p620
aS'variable_10'
p621
ag21
aS'struct'
p622
aS'arb_rec_req'
p623
aS'variable_11'
p624
ag21
aS'variable_6'
p625
ag15
aS'variable_11'
p626
ag46
aS'variable_6'
p627
ag21
aS'if'
p628
ag6
aS'variable_6'
p629
ag208
aS'sizeof'
p630
ag6
aS'struct'
p631
aS'variable_12'
p632
ag11
ag11
aS'variable_10'
p633
ag15
aS'func_1'
p634
ag6
aS'variable_3'
p635
aS'->'
p636
aS'variable_13'
p637
ag65
aS'variable_14'
p638
ag11
ag21
aaa(lp639
I0
aI0
aI0
aI0
aI0
aa(lp640
I239
aI222
aI50
aI49
aI68
aa(lp641
(lp642
S'main'
p643
aa(lp644
g643
aa(lp645
g643
aa(lp646
g643
aa(lp647
g643
aaa(lp648
S'31 /home/SySeVR/data/CVE_2006_6333_PATCHED_tr_rx.c rbuffer_len = ntohs ( readw ( rbuf + BUFFER_LENGTH_OFST ) ) 139'
p649
aS'33 /home/SySeVR/data/CVE_2006_6333_PATCHED_tr_rx.c iph = ( struct iphdr * ) ( data + lan_hdr_len + sizeof ( struct trllc ) ) 110'
p650
aS'34 /home/SySeVR/data/CVE_2006_6333_PATCHED_tr_rx.c skb_size = length - lan_hdr_len + sizeof ( struct trh_hdr ) + sizeof ( struct trllc ) 87'
p651
aS'35 /home/SySeVR/data/CVE_2006_6333_PATCHED_tr_rx.c hdr_len = lan_hdr_len + sizeof ( struct trllc ) + sizeof ( struct iphdr ) 36'
p652
aS'36 /home/SySeVR/data/CVE_2006_6333_PATCHED_tr_rx.c dlc_hdr_len = readb ( ti -> arb + DLC_HDR_LENGTH_OFST ) 35'
p653
aa.