(dp0
S'/home/SySeVR/data/CVE_2013_1672_VULN_ProcessSoftwareUpdateCommand.c'
p1
(lp2
I77
aI92
asS'/home/SySeVR/data/CVE_2014_1510_VULN_nsGlobalWindow__BuildURIfromBase.c'
p3
(lp4
I3
aI10
aI51
aI54
aI55
aI56
aI57
aI58
asS'/home/SySeVR/data/CVE_2009_0946_VULN_ft_smooth_render_generic.c'
p5
(lp6
I61
asS'/home/SySeVR/data/CVE_2011_2371_VULN_array_extra.c'
p7
(lp8
I35
aI39
aI104
asS'/home/SySeVR/data/CVE_2013_0772_VULN_nsGIFDecoder2__OutputRow.c'
p9
(lp10
I46
aI47
aI48
aI50
aI51
aI52
aI53
aI54
aI87
asS'/home/SySeVR/data/CVE_2013_0756_VULN_MarkSharpObjects.c'
p11
(lp12
I1
aI4
aI6
aI8
aI9
aI10
aI11
aI12
aI13
aI14
aI16
aI17
aI18
aI20
aI21
aI22
aI23
aI24
aI25
aI26
aI27
aI28
aI29
aI30
aI31
aI32
aI33
aI34
aI35
aI36
aI37
aI38
aI39
aI40
aI41
aI42
aI44
aI45
aI46
aI47
aI49
aI50
aI52
aI53
aI54
aI55
aI56
aI58
aI59
aI61
aI62
aI66
aI67
aI68
aI69
aI70
aI71
aI72
aI74
aI75
aI77
aI78
aI79
aI80
aI81
asS'/home/SySeVR/data/CVE_2014_1522_VULN_ComputeCustom.c'
p13
(lp14
I22
aI23
asS'/home/SySeVR/data/CVE_2012_1967_VULN_xpc_EvalInSandbox.c'
p15
(lp16
I37
aI54
aI67
aI68
aI69
aI70
aI71
aI72
aI73
aI84
aI85
aI86
aI163
aI164
asS'/home/SySeVR/data/CVE_2011_2689_VULN_gfs2_fallocate.c'
p17
(lp18
I18
aI19
asS'/home/SySeVR/data/CVE_2013_5642_VULN_process_sdp.c'
p19
(lp20
I541
aI588
aI605
aI628
asS'/home/SySeVR/data/CVE_2013_1680_VULN_nsContainerFrame__ReflowOverflowContainerChildren.c'
p21
(lp22
I44
asS'/home/SySeVR/data/CVE_2015_2666_VULN_get_matching_model_microcode.c'
p23
(lp24
I17
asS'/home/SySeVR/data/CVE_2013_1693_VULN_nsSVGFEMorphologyElement__Filter.c'
p25
(lp26
I21
aI25
aI26
aI27
aI28
aI29
aI30
aI31
aI43
aI44
aI45
aI46
aI47
aI48
aI50
aI51
aI52
aI53
aI54
aI55
aI56
aI57
aI58
aI59
aI60
aI65
aI66
aI68
aI69
aI70
aI71
aI72
aI73
aI74
aI75
asS'/home/SySeVR/data/CVE_2012_4289_VULN_decode_kauth_acl.c'
p27
(lp28
I17
asS'/home/SySeVR/data/CVE_2013_1705_VULN_cryptojs_interpret_key_gen_type.c'
p29
(lp30
I4
aI5
aI6
aI8
aI9
aI10
aI11
aI12
aI14
aI15
aI16
aI17
aI18
aI19
aI20
aI21
aI23
aI25
aI27
aI29
aI31
aI33
aI35
aI37
aI39
aI41
aI43
aI46
asS'/home/SySeVR/data/CVE_2014_4654_VULN_snd_ctl_elem_add.c'
p31
(lp32
I11
aI12
aI21
aI22
aI23
aI24
aI25
aI26
aI27
aI28
aI29
aI30
aI31
aI33
aI34
aI35
aI41
aI84
aI93
aI101
aI107
aI108
aI110
aI112
asS'/home/SySeVR/data/CVE_2011_0521_VULN_dvb_ca_ioctl.c'
p33
(lp34
I30
asS'/home/SySeVR/data/CVE_2013_4932_VULN_elem_tlv_e.c'
p35
(lp36
I24
aI25
aI39
asS'/home/SySeVR/data/CVE_2006_2446_VULN_kfree_skb.c'
p37
(lp38
I3
aI4
asS'/home/SySeVR/data/CVE_2012_0477_VULN_nsISO2022KRToUnicode__Convert.c'
p39
(lp40
I31
aI32
aI36
aI37
aI46
aI47
aI59
aI60
aI75
aI76
aI93
aI94
aI103
aI104
aI105
aI109
aI110
aI141
aI143
aI144
aI155
aI156
aI163
aI164
aI168
aI171
asS'/home/SySeVR/data/CVE_2012_6053_VULN_dissect_usb_interface_descriptor.c'
p41
(lp42
I75
asS'/home/SySeVR/data/CVE_2010_3904_VULN_rds_page_copy_user.c'
p43
(lp44
I8
aI10
aI13
aI14
aI15
aI16
aI17
aI18
aI20
aI21
aI22
aI23
aI24
aI25
aI26
aI27
aI28
aI31
asS'/home/SySeVR/data/CVE_2013_0750_VULN_ReplaceRegExpCallback.c'
p45
(lp46
I15
aI16
asS'/home/SySeVR/data/CVE_2013_0756_VULN_js_TraceSharpMap.c'
p47
(lp48
I1
aI4
aI6
aI7
aI8
aI9
aI10
aI11
aI12
aI13
aI14
aI15
aI16
aI17
aI18
aI19
aI20
aI21
aI22
aI23
aI24
aI25
aI26
aI27
aI28
aI29
asS'/home/SySeVR/data/CVE_2011_0070_VULN_nsDirIndexParser__ParseFormat.c'
p49
(lp50
I6
asS'/home/SySeVR/data/CVE_2012_0478_VULN_nsIDOMWebGLRenderingContext_TexImage2D.c'
p51
(lp52
I58
asS'/home/SySeVR/data/CVE_2015_2191_VULN_dissect_tnef.c'
p53
(lp54
I119
asS'/home/SySeVR/data/CVE_2006_5751_VULN_get_fdb_entries.c'
p55
(lp56
I6
aI8
aI9
asS'/home/SySeVR/data/CVE_2012_2790_VULN_read_var_block_data.c'
p57
(lp58
I181
aI184
asS'/home/SySeVR/data/CVE_2015_3813_VULN_fragment_add_work.c'
p59
(lp60
I157
aI158
asS'/home/SySeVR/data/CVE-2014-0182_VULN_virtio_load.c'
p61
(lp62
I26
asS'/home/SySeVR/data/CVE_2015_1158_VULN_add_job.c'
p63
(lp64
I1
aI43
aI45
aI56
aI58
aI78
aI80
aI87
aI89
aI99
aI103
aI134
aI136
aI196
aI243
aI245
aI288
aI290
aI312
aI314
aI377
aI395
aI396
aI397
aI404
aI406
aI418
aI420
aI426
aI429
aI431
aI433
aI434
aI435
aI436
aI437
aI438
aI439
aI440
aI441
aI442
aI443
aI444
aI445
aI446
aI448
aI450
aI451
aI452
aI454
aI455
aI459
aI460
aI463
aI464
aI465
aI467
aI468
aI469
aI472
aI476
aI479
aI494
aI496
aI528
aI530
aI555
aI557
aI568
aI569
aI574
aI576
aI591
aI593
aI595
aI608
aI610
aI612
aI645
aI647
aI652
aI653
aI659
aI663
aI682
aI684
aI706
aI708
aI724
aI726
aI730
aI732
aI735
aI737
aI739
aI743
aI745
asS'/home/SySeVR/data/CVE_2012_1184_VULN_ast_parse_digest.c'
p65
(lp66
I3
aI4
aI9
aI19
aI24
aI26
aI27
aI28
aI30
aI31
aI32
aI33
aI34
aI35
aI36
aI37
aI38
aI39
aI40
aI42
aI44
aI45
aI46
aI47
aI50
aI53
aI54
aI56
aI57
aI60
aI61
aI62
aI63
aI64
aI65
aI66
aI67
aI68
aI69
aI70
aI71
aI72
aI73
aI74
aI75
aI77
aI78
aI79
aI80
aI81
aI82
aI83
aI84
aI85
aI86
aI87
aI89
aI97
aI103
aI107
asS'/home/SySeVR/data/CVE_2014_1684_VULN_ASF_ReadObject_file_properties.c'
p67
(lp68
I18
aI19
asS'/home/SySeVR/data/CVE_2013_1920_VULN_get_free_port.c'
p69
(lp70
I21
asS'/home/SySeVR/data/CVE_2012_2390_VULN_hugetlb_reserve_pages.c'
p71
(lp72
I37
aI38
aI41
aI42
aI51
asS'/home/SySeVR/data/CVE_2010_3848_VULN_econet_sendmsg.c'
p73
(lp74
I16
aI20
aI24
aI26
aI31
aI33
aI46
aI63
aI68
aI69
aI70
aI125
aI127
aI131
aI142
aI144
aI151
aI186
aI187
aI188
aI189
aI190
aI191
aI192
aI193
aI196
aI197
aI198
aI199
aI200
aI201
aI202
aI204
aI205
aI206
aI212
aI213
aI214
aI231
aI242
aI244
asS'/home/SySeVR/data/CVE_2012_1976_VULN_nsHTMLFormElement__WalkFormElements.c'
p75
(lp76
I11
asS'/home/SySeVR/data/CVE_2013_4932_VULN_elem_tv.c'
p77
(lp78
I22
aI23
aI24
aI25
aI34
asS'/home/SySeVR/data/CVE_2013_5717_VULN_wmem_block_alloc.c'
p79
(lp80
I17
aI18
aI25
aI26
aI27
aI30
asS'/home/SySeVR/data/CVE_2011_2536_VULN_register_verify.c'
p81
(lp82
I164
asS'/home/SySeVR/data/CVE_2009_1298_VULN_ip_frag_reasm.c'
p83
(lp84
I104
asS'/home/SySeVR/data/CVE_2013_0311_VULN_translate_desc.c'
p85
(lp86
I26
asS'/home/SySeVR/data/CVE_2008_3527_VULN_arch_setup_additional_pages.c'
p87
(lp88
I3
aI12
aI15
aI16
aI17
aI18
aI21
aI22
aI23
aI24
aI31
aI32
aI33
aI34
aI35
aI37
aI38
aI39
aI40
aI46
asS'/home/SySeVR/data/CVE_2009_4138_VULN_ohci_queue_iso_receive_packet_per_buffer.c'
p89
(lp90
I7
aI46
asS'/home/SySeVR/data/CVE_2013_7270_VULN_packet_recvmsg.c'
p91
(lp92
I7
aI25
aI32
aI36
aI40
aI69
aI90
aI91
aI92
aI93
aI95
aI96
aI97
aI98
aI99
aI101
aI102
aI103
aI104
aI118
aI142
aI145
asS'/home/SySeVR/data/CVE_2013_0845_VULN_read_block.c'
p93
(lp94
I11
asS'/home/SySeVR/data/CVE_2013_1726_VULN_mar_read_product_info_block.c'
p95
(lp96
I5
asS'/home/SySeVR/data/CVE_2008_3915_VULN_init_state.c'
p97
(lp98
I14
asS'/home/SySeVR/data/CVE_2014_3184_VULN_mr_report_fixup.c'
p99
(lp100
I4
asS'/home/SySeVR/data/CVE_2011_2534_VULN_clusterip_proc_write.c'
p101
(lp102
I9
asS'/home/SySeVR/data/CVE_2014_2283_VULN_rlc_frag_create.c'
p103
(lp104
I7
asS'/home/SySeVR/data/CVE_2008_3275_VULN___lookup_hash.c'
p105
(lp106
I23
asS'/home/SySeVR/data/CVE_2011_3002_VULN_GrowAtomTable.c'
p107
(lp108
I7
aI8
aI10
aI11
asS'/home/SySeVR/data/CVE_2012_1183_VULN_milliwatt_generate.c'
p109
(lp110
I4
asS'/home/SySeVR/data/CVE_2009_4141_VULN_fasync_helper.c'
p111
(lp112
I2
aI3
aI4
aI8
aI11
aI12
aI13
aI14
aI17
aI18
aI19
aI20
aI24
aI25
aI26
aI27
aI28
aI29
aI30
aI31
aI33
aI37
aI38
aI39
aI40
aI41
aI42
aI43
aI46
aI47
aI48
aI49
asS'/home/SySeVR/data/CVE_2013_7268_VULN_ipx_recvmsg.c'
p113
(lp114
I55
asS'/home/SySeVR/data/CVE_2013_3674_VULN_cdg_decode_frame.c'
p115
(lp116
I35
asS'/home/SySeVR/data/CVE_2012_3364_VULN_nci_extract_rf_params_nfca_passive_poll.c'
p117
(lp118
I8
asS'/home/SySeVR/data/CVE_2014_2286_VULN_ast_http_manid_from_vars.c'
p119
(lp120
I13
aI14
asS'/home/SySeVR/data/CVE_2010_4243_VULN_do_execve.c'
p121
(lp122
I86
aI87
asS'/home/SySeVR/data/CVE_2009_3547_VULN_pipe_rdwr_open.c'
p123
(lp124
I5
aI6
aI7
aI8
aI11
asS'/home/SySeVR/data/CVE_2014_3610_VULN_wrmsr_interception.c'
p125
(lp126
I13
asS'/home/SySeVR/data/CVE_2012_0042_VULN_bytes_to_str_punct.c'
p127
(lp128
I8
aI14
aI15
asS'/home/SySeVR/data/CVE_2005_3359_VULN___sock_create.c'
p129
(lp130
I76
asS'/home/SySeVR/data/CVE_2014_3640_VULN_udp_input.c'
p131
(lp132
I90
asS'/home/SySeVR/data/CVE_2012_1960_VULN_compute_curve_gamma_table_type_parametric.c'
p133
(lp134
I56
aI58
asS'/home/SySeVR/data/CVE_2010_4649_VULN_ib_uverbs_poll_cq.c'
p135
(lp136
I6
aI8
aI9
aI10
aI11
aI16
aI17
aI18
aI20
aI21
aI22
aI23
aI24
aI28
aI29
aI30
aI33
aI35
aI37
aI38
aI39
aI40
aI41
aI42
aI43
aI44
aI45
aI46
aI47
aI48
aI49
aI50
aI51
aI54
aI57
aI58
aI60
aI61
aI62
asS'/home/SySeVR/data/CVE_2012_4467_VULN_do_siocgstampns.c'
p137
(lp138
I12
asS'/home/SySeVR/data/CVE_2013_0850_VULN_decode_slice_header.c'
p139
(lp140
I570
asS'/home/SySeVR/data/CVE_2011_3000_VULN_nsHttpHeaderArray__ParseHeaderLine.c'
p141
(lp142
I55
asS'/home/SySeVR/data/CVE_2013_2850_VULN_iscsi_add_notunderstood_response.c'
p143
(lp144
I22
aI23
aI24
asS'/home/SySeVR/data/CVE_2010_2500_VULN_gray_render_span.c'
p145
(lp146
I14
asS'/home/SySeVR/data/CVE_2012_5237_VULN_dissect_hsrp.c'
p147
(lp148
I110
asS'/home/SySeVR/data/CVE_2013_2547_VULN_crypto_report_one.c'
p149
(lp150
I4
aI5
aI6
aI7
aI8
aI18
asS'/home/SySeVR/data/CVE_2007_1217_VULN_bufprint.c'
p151
(lp152
I5
aI7
asS'/home/SySeVR/data/CVE_2013_0859_VULN_add_doubles_metadata.c'
p153
(lp154
I9
asS'/home/SySeVR/data/CVE_2013_1681_VULN_nsContentUtils__RemoveScriptBlocker.c'
p155
(lp156
I19
asS'/home/SySeVR/data/CVE_2011_4598_VULN_handle_request_info.c'
p157
(lp158
I142
asS'/home/SySeVR/data/CVE_2011_2367_VULN_WebGLContext__BindBuffer.c'
p159
(lp160
I10
aI11
aI12
aI13
aI14
aI15
asS'/home/SySeVR/data/CVE_2012_3976_VULN_nsSecureBrowserUIImpl__OnStateChange.c'
p161
(lp162
I640
asS'/home/SySeVR/data/CVE_2005_4886_VULN_selinux_parse_skb_ipv6.c'
p163
(lp164
I18
aI19
asS'/home/SySeVR/data/CVE_2015_3008_VULN_handle_tcptls_connection.c'
p165
(lp166
I82
aI84
asS'/home/SySeVR/data/CVE_2012_4190_VULN_ft_module_get_service.c'
p167
(lp168
I29
asS'/home/SySeVR/data/CVE_2014_8709_VULN_ieee80211_fragment.c'
p169
(lp170
I56
asS'/home/SySeVR/data/CVE_2013_1736_VULN_nsINode__ReplaceOrInsertBefore.c'
p171
(lp172
I138
aI215
asS'/home/SySeVR/data/CVE-2015-4651_VULN_dissect_wccp2_command_extension.c'
p173
(lp174
I66
aI67
aI68
aI69
aI70
aI71
aI72
asS'/home/SySeVR/data/CVE_2014_4655_VULN_snd_ctl_elem_add.c'
p175
(lp176
I11
aI12
aI21
aI22
aI23
aI24
aI25
aI26
aI27
aI28
aI29
aI30
aI31
aI33
aI34
aI35
aI41
aI84
aI93
aI101
aI107
aI108
aI110
aI112
asS'/home/SySeVR/data/CVE_2009_0946_VULN_tt_cmap10_validate.c'
p177
(lp178
I15
asS'/home/SySeVR/data/CVE_2008_3686_VULN_rt6_fill_node.c'
p179
(lp180
I83
asS'/home/SySeVR/data/CVE_2012_2375_VULN___nfs4_get_acl_uncached.c'
p181
(lp182
I63
asS'/home/SySeVR/data/CVE_2011_1093_VULN_dccp_rcv_state_process.c'
p183
(lp184
I35
aI42
aI43
aI54
aI106
aI107
aI108
asS'/home/SySeVR/data/CVE_2010_4342_VULN_aun_incoming.c'
p185
(lp186
I7
asS'/home/SySeVR/data/CVE_2013_5596_VULN_RasterImage__DoError.c'
p187
(lp188
I14
asS'/home/SySeVR/data/CVE_2013_0313_VULN_evm_update_evmxattr.c'
p189
(lp190
I16
asS'/home/SySeVR/data/CVE_2010_2431_VULN_cupsFileOpen.c'
p191
(lp192
I33
aI41
asS'/home/SySeVR/data/CVE_2014_1498_VULN_nsConvertToActualKeyGenParams.c'
p193
(lp194
I102
asS'/home/SySeVR/data/CVE_2014_2241_VULN_cf2_initGlobalRegionBuffer.c'
p195
(lp196
I5
asS'/home/SySeVR/data/CVE_2014_6426_VULN_dissect_hip_tlv.c'
p197
(lp198
I67
asS'/home/SySeVR/data/CVE_2014_1487_VULN_ReportLoadError.c'
p199
(lp200
I26
aI27
asS'/home/SySeVR/data/CVE_2013_2276_VULN_avcodec_decode_audio4.c'
p201
(lp202
I55
asS'/home/SySeVR/data/CVE_2013_0772_VULN_nsGIFDecoder2__DoLzw.c'
p203
(lp204
I71
aI121
asS'/home/SySeVR/data/CVE_2012_5532_VULN_main.c'
p205
(lp206
I81
asS'/home/SySeVR/data/CVE_2013_0290_VULN___skb_recv_datagram.c'
p207
(lp208
I30
asS'/home/SySeVR/data/CVE_2015_1158_VULN_release_job.c'
p209
(lp210
I1
aI20
aI22
aI26
aI28
aI42
aI44
aI52
aI54
aI64
aI66
aI70
aI72
aI78
aI80
aI84
aI86
aI92
aI94
aI103
aI105
aI113
aI115
aI116
aI123
aI125
asS'/home/SySeVR/data/CVE_2012_4184_VULN_ChromeObjectWrapper__get.c'
p211
(lp212
I7
aI15
aI16
aI17
asS'/home/SySeVR/data/CVE_2009_0946_VULN_cff_charset_load.c'
p213
(lp214
I44
asS'/home/SySeVR/data/CVE_2015_2192_VULN_dissect_osd2_cdb_continuation.c'
p215
(lp216
I76
asS'/home/SySeVR/data/CVE_2014_3601_VULN_kvm_iommu_map_pages.c'
p217
(lp218
I68
asS'/home/SySeVR/data/CVE_2010_0727_VULN_gfs2_lock.c'
p219
(lp220
I9
asS'/home/SySeVR/data/CVE_2013_6457_VULN_libxlDomainGetNumaParameters.c'
p221
(lp222
I38
asS'/home/SySeVR/data/CVE_2014_2038_VULN_nfs_can_extend_write.c'
p223
(lp224
I7
aI8
aI10
asS'/home/SySeVR/data/CVE_2012_3962_VULN_nsTextFrame__IsFloatingFirstLetterChild.c'
p225
(lp226
I4
aI5
aI7
aI8
aI9
asS'/home/SySeVR/data/CVE_2010_0003_VULN_print_fatal_signal.c'
p227
(lp228
I13
asS'/home/SySeVR/data/CVE_2013_1722_VULN_nsAnimationManager__BuildAnimations.c'
p229
(lp230
I31
asS'/home/SySeVR/data/CVE_2010_1083_VULN_proc_reapurb.c'
p231
(lp232
I4
aI5
asS'/home/SySeVR/data/CVE_2012_0457_VULN_nsSMILTimedElement__NotifyNewInterval.c'
p233
(lp234
I13
asS'/home/SySeVR/data/CVE_2013_2596_VULN_fb_mmap.c'
p235
(lp236
I6
aI12
aI13
aI14
aI22
aI26
aI28
aI29
aI30
aI31
aI32
aI33
aI34
aI37
aI39
aI40
aI41
aI42
aI43
aI44
aI45
aI47
aI48
aI49
aI50
aI51
asS'/home/SySeVR/data/CVE_2015_4652_VULN_de_emerg_num_list.c'
p237
(lp238
I5
aI7
aI10
aI41
aI43
aI45
aI46
aI47
aI48
aI49
aI51
aI52
aI54
aI55
aI57
aI58
aI62
aI63
aI64
aI66
asS'/home/SySeVR/data/CVE_2010_4165_VULN_do_tcp_setsockopt.c'
p239
(lp240
I129
asS'/home/SySeVR/data/CVE_2014_3534_VULN___poke_user.c'
p241
(lp242
I14
asS'/home/SySeVR/data/CVE-2015-2712_VULN_CheckHeapLengthCondition.c'
p243
(lp244
I33
aI34
asS'/home/SySeVR/data/CVE_2013_6380_VULN_aac_send_raw_srb.c'
p245
(lp246
I49
asS'/home/SySeVR/data/CVE_2007_3642_VULN_decode_seq.c'
p247
(lp248
I39
asS'/home/SySeVR/data/CVE_2010_1188_VULN_tcp_rcv_state_process.c'
p249
(lp250
I12
aI19
aI39
aI41
aI43
aI62
aI71
aI77
aI188
aI197
aI205
aI210
asS'/home/SySeVR/data/CVE_2010_2962_VULN_i915_gem_gtt_pwrite_fast.c'
p251
(lp252
I16
aI17
asS'/home/SySeVR/data/CVE_2012_2783_VULN_ff_vp56_decode_frame.c'
p253
(lp254
I136
asS'/home/SySeVR/data/CVE_2013_0780_VULN_nsOverflowContinuationTracker__Insert.c'
p255
(lp256
I12
aI14
aI15
aI24
aI28
aI34
aI58
aI64
aI65
aI66
aI67
asS'/home/SySeVR/data/CVE_2012_4287_VULN_dissect_mongo_delete.c'
p257
(lp258
I17
asS'/home/SySeVR/data/CVE_2011_2928_VULN_befs_follow_link.c'
p259
(lp260
I12
aI14
aI15
aI16
aI17
aI18
aI19
aI22
asS'/home/SySeVR/data/CVE_2008_3792_VULN_sctp_setsockopt_auth_chunk.c'
p261
(lp262
I10
asS'/home/SySeVR/data/CVE_2011_1573_VULN_sctp_make_init_ack.c'
p263
(lp264
I68
aI74
aI83
asS'/home/SySeVR/data/CVE_2014_9316_VULN_mjpeg_decode_app.c'
p265
(lp266
I95
aI96
aI99
aI100
asS'/home/SySeVR/data/CVE_2011_0716_VULN_br_multicast_add_group.c'
p267
(lp268
I22
asS'/home/SySeVR/data/CVE_2013_7017_VULN_ff_jpeg2000_cleanup.c'
p269
(lp270
I12
aI13
aI14
aI15
asS'/home/SySeVR/data/CVE_2014_2286_VULN_parse_cookies.c'
p271
(lp272
I6
asS'/home/SySeVR/data/CVE_2010_3876_VULN_packet_getname_spkt.c'
p273
(lp274
I14
asS'/home/SySeVR/data/CVE_2012_4298_VULN_vwr_read_rec_data_ethernet.c'
p275
(lp276
I7
asS'/home/SySeVR/data/CVE-2015-1872_VULN_ff_mjpeg_decode_sof.c'
p277
(lp278
I320
aI322
asS'/home/SySeVR/data/CVE_2005_2800_VULN_dev_seq_next.c'
p279
(lp280
I3
asS'/home/SySeVR/data/CVE_2012_2669_VULN_main.c'
p281
(lp282
I59
aI72
aI74
aI75
aI224
asS'/home/SySeVR/data/CVE_2013_7010_VULN_diff_bytes_c.c'
p283
(lp284
I17
asS'/home/SySeVR/data/CVE_2012_4530_VULN_load_script.c'
p285
(lp286
I68
asS'/home/SySeVR/data/CVE-2015-7176_VULN_AnimationThread.c'
p287
(lp288
I74
aI75
asS'/home/SySeVR/data/CVE_2010_2960_VULN_keyctl_session_to_parent.c'
p289
(lp290
I58
asS'/home/SySeVR/data/CVE_2009_0747_VULN_ext4_isize.c'
p291
(lp292
I3
aI4
asS'/home/SySeVR/data/CVE_2012_0042_VULN_bytes_to_str.c'
p293
(lp294
I11
asS'/home/SySeVR/data/CVE_2011_3973_VULN_cavs_decode_frame.c'
p295
(lp296
I27
aI55
asS'/home/SySeVR/data/CVE_2013_4932_VULN_elem_v.c'
p297
(lp298
I16
aI20
aI31
aI33
aI34
asS'/home/SySeVR/data/CVE_2014_3184_VULN_pl_report_fixup.c'
p299
(lp300
I4
asS'/home/SySeVR/data/CVE_2012_3975_VULN_nsDOMParser__SetUpDocument.c'
p301
(lp302
I26
aI27
aI28
aI29
aI30
aI31
asS'/home/SySeVR/data/CVE-2016-7180_VULN_dissect_ipmi_trace.c'
p303
(lp304
I26
asS'/home/SySeVR/data/CVE_2014_0038_VULN_compat_sys_recvmmsg.c'
p305
(lp306
I11
aI12
aI13
aI14
aI17
aI20
aI25
asS'/home/SySeVR/data/CVE_2012_4565_VULN_tcp_illinois_info.c'
p307
(lp308
I12
aI14
aI15
asS'/home/SySeVR/data/CVE_2009_2691_VULN_mm_for_maps.c'
p309
(lp310
I5
aI7
aI8
aI9
aI10
aI11
aI12
aI13
aI15
aI16
aI17
aI18
aI19
asS'/home/SySeVR/data/CVE_2013_4163_VULN_ip6_append_data_mtu.c'
p311
(lp312
I5
aI17
asS'/home/SySeVR/data/CVE_2014_5472_VULN_parse_rock_ridge_inode_internal.c'
p313
(lp314
I3
aI18
aI115
aI121
aI127
aI133
aI198
aI199
aI200
aI201
aI202
aI203
asS'/home/SySeVR/data/CVE_2013_0868_VULN_read_huffman_tables.c'
p315
(lp316
I15
aI16
asS'/home/SySeVR/data/CVE_2013_1979_VULN_scm_set_cred.c'
p317
(lp318
I7
aI8
asS'/home/SySeVR/data/CVE_2010_2962_VULN_i915_gem_pread_ioctl.c'
p319
(lp320
I21
aI22
aI34
asS'/home/SySeVR/data/CVE_2013_0795_VULN_nsXPCComponents_Utils__LookupMethod.c'
p321
(lp322
I11
aI16
aI20
aI21
aI22
aI23
aI24
aI25
aI26
aI41
asS'/home/SySeVR/data/CVE_2014_8109_VULN_lua_authz_parse.c'
p323
(lp324
I18
aI20
aI24
asS'/home/SySeVR/data/CVE-2016-2327_VULN_apng_encode_frame.c'
p325
(lp326
I61
aI62
aI74
aI75
asS'/home/SySeVR/data/CVE_2009_2484_VULN_Win32AddConnection.c'
p327
(lp328
I41
asS'/home/SySeVR/data/CVE_2012_6542_VULN_llc_ui_getname.c'
p329
(lp330
I7
aI14
asS'/home/SySeVR/data/CVE_2009_4410_VULN_fuse_ioctl_copy_user.c'
p331
(lp332
I38
asS'/home/SySeVR/data/CVE_2013_4922_VULN_dissect_dcom_ActivationProperties.c'
p333
(lp334
I21
aI22
aI24
aI25
aI30
asS'/home/SySeVR/data/CVE_2005_4635_VULN_nl_fib_input.c'
p335
(lp336
I6
aI10
asS'/home/SySeVR/data/CVE_2013_5634_VULN_kvm_arch_vcpu_ioctl_run.c'
p337
(lp338
I6
aI7
asS'/home/SySeVR/data/CVE_2013_0761_VULN_EndTrack.c'
p339
(lp340
I3
aI4
asS'/home/SySeVR/data/CVE_2013_1798_VULN_ioapic_read_indirect.c'
p341
(lp342
I23
aI25
asS'/home/SySeVR/data/CVE_2013_2930_VULN_perf_trace_event_perm.c'
p343
(lp344
I6
asS'/home/SySeVR/data/CVE_2011_1771_VULN_cifs_close.c'
p345
(lp346
I3
aI4
asS'/home/SySeVR/data/CVE_2010_2492_VULN_ecryptfs_init_messaging.c'
p347
(lp348
I14
aI15
aI16
aI18
aI25
asS'/home/SySeVR/data/CVE_2013_6381_VULN_qeth_snmp_command.c'
p349
(lp350
I6
asS'/home/SySeVR/data/CVE_2011_1495_VULN__ctl_diag_read_buffer.c'
p351
(lp352
I12
aI61
asS'/home/SySeVR/data/CVE_2013_4928_VULN_dissect_headers.c'
p353
(lp354
I68
aI185
asS'/home/SySeVR/data/CVE_2012_3964_VULN_ClearTextRuns.c'
p355
(lp356
I3
asS'/home/SySeVR/data/CVE_2012_4204_VULN_str_unescape.c'
p357
(lp358
I12
aI24
asS'/home/SySeVR/data/CVE_2011_3945_VULN_decode_frame.c'
p359
(lp360
I6
aI36
asS'/home/SySeVR/data/CVE_2009_1439_VULN_CIFSTCon.c'
p361
(lp362
I130
asS'/home/SySeVR/data/CVE_2013_0753_VULN_nsDocumentEncoder__EncodeToStream.c'
p363
(lp364
I23
asS'/home/SySeVR/data/CVE_2011_1138_VULN_dissect_6lowpan_hc1.c'
p365
(lp366
I287
aI304
aI307
asS'/home/SySeVR/data/CVE_2013_0764_VULN_nsSOCKSSocketInfo__OnLookupComplete.c'
p367
(lp368
I11
aI12
asS'/home/SySeVR/data/CVE_2013_0799_VULN_GetInstallationDir.c'
p369
(lp370
I7
asS'/home/SySeVR/data/CVE_2010_0437_VULN_ip6_dst_lookup_tail.c'
p371
(lp372
I10
aI11
aI19
aI23
aI24
aI25
aI26
aI27
aI28
aI29
aI30
aI31
aI32
aI33
aI34
aI36
aI37
aI39
aI40
aI41
aI43
aI44
aI45
aI46
aI47
aI48
aI49
aI50
aI51
aI52
aI53
aI63
asS'/home/SySeVR/data/CVE_2012_2100_VULN_ext4_fill_flex_info.c'
p373
(lp374
I7
aI12
aI14
asS'/home/SySeVR/data/CVE_2013_4083_VULN_dissect_pft.c'
p375
(lp376
I83
asS'/home/SySeVR/data/CVE_2012_4287_VULN_dissect_mongo_reply.c'
p377
(lp378
I28
asS'/home/SySeVR/data/CVE-2016-5280_VULN_WalkDescendantsResetAutoDirection.c'
p379
(lp380
I14
asS'/home/SySeVR/data/CVE_2012_1963_VULN_CSPService__ShouldLoad.c'
p381
(lp382
I51
asS'/home/SySeVR/data/CVE_2012_1952_VULN_nsTableFrame__InsertFrames.c'
p383
(lp384
I24
aI27
aI28
aI29
aI87
aI88
aI115
aI125
asS'/home/SySeVR/data/CVE_2013_1707_VULN_NS_main.c'
p385
(lp386
I578
aI586
aI587
aI595
asS'/home/SySeVR/data/CVE_2014_8415_VULN_indicate.c'
p387
(lp388
I8
asS'/home/SySeVR/data/CVE_2013_1848_VULN_get_sb_block.c'
p389
(lp390
I12
asS'/home/SySeVR/data/CVE_2013_4470_VULN_ip6_ufo_append_data.c'
p391
(lp392
I15
aI17
aI38
aI41
aI42
aI43
aI44
aI45
aI46
aI47
aI48
asS'/home/SySeVR/data/CVE_2013_4162_VULN_udp_v6_push_pending_frames.c'
p393
(lp394
I7
asS'/home/SySeVR/data/CVE_2012_6538_VULN_copy_to_user_auth.c'
p395
(lp396
I12
asS'/home/SySeVR/data/CVE_2012_0041_VULN_dissect_packet.c'
p397
(lp398
I34
asS'/home/SySeVR/data/CVE_2014_8545_VULN_decode_frame.c'
p399
(lp400
I132
asS'/home/SySeVR/data/CVE_2011_3936_VULN_dv_extract_audio.c'
p401
(lp402
I26
aI35
aI36
aI37
aI78
aI79
aI80
aI81
asS'/home/SySeVR/data/CVE_2013_4265_VULN_av_reallocp_array.c'
p403
(lp404
I5
asS'/home/SySeVR/data/CVE_2013_0868_VULN_generate_joint_tables.c'
p405
(lp406
I12
aI16
aI40
aI45
aI50
asS'/home/SySeVR/data/CVE_2014_0221_VULN_dtls1_get_message_fragment.c'
p407
(lp408
I68
asS'/home/SySeVR/data/CVE_2014_7826_VULN_ftrace_syscall_exit.c'
p409
(lp410
I14
asS'/home/SySeVR/data/CVE_2013_7267_VULN_atalk_recvmsg.c'
p411
(lp412
I5
aI34
aI35
aI36
aI37
aI38
aI39
aI41
asS'/home/SySeVR/data/CVE_2013_6436_VULN_lxcDomainGetMemoryParameters.c'
p413
(lp414
I7
aI11
aI13
aI20
aI36
aI43
aI50
asS'/home/SySeVR/data/CVE_2013_1572_VULN_dissect_oampdu.c'
p415
(lp416
I147
asS'/home/SySeVR/data/CVE_2011_1044_VULN_ib_uverbs_poll_cq.c'
p417
(lp418
I6
aI8
aI9
aI10
aI11
aI16
aI17
aI18
aI20
aI21
aI22
aI23
aI24
aI28
aI29
aI30
aI33
aI35
aI37
aI38
aI39
aI40
aI41
aI42
aI43
aI44
aI45
aI46
aI47
aI48
aI49
aI50
aI51
aI54
aI57
aI58
aI60
aI61
aI62
asS'/home/SySeVR/data/CVE_2011_1592_VULN_dissect_nfs_clientaddr4.c'
p419
(lp420
I6
aI15
aI22
aI26
aI27
aI28
aI29
aI30
asS'/home/SySeVR/data/CVE_2011_2999_VULN_nsWindowSH__NewResolve.c'
p421
(lp422
I25
aI30
aI70
aI87
aI90
aI94
aI96
aI112
aI148
aI149
aI153
aI159
aI160
aI163
aI165
aI182
aI186
aI188
aI214
aI217
aI219
aI222
aI223
aI224
aI225
aI226
aI228
aI229
aI230
aI232
aI233
aI236
aI237
aI238
aI240
aI241
aI242
aI243
aI244
aI246
aI247
aI251
aI252
aI255
aI256
aI257
aI258
aI259
aI261
aI262
aI263
aI265
aI266
aI269
aI271
aI279
aI282
aI283
aI298
aI300
aI302
aI308
aI310
aI311
aI313
aI314
aI319
aI321
aI323
aI329
aI333
aI334
aI338
aI342
aI357
aI377
aI378
aI382
aI384
aI398
aI400
aI403
aI434
aI440
aI462
aI465
aI469
asS'/home/SySeVR/data/CVE_2013_0862_VULN_process_frame_obj.c'
p423
(lp424
I12
aI13
asS'/home/SySeVR/data/CVE_2013_1767_VULN_shmem_remount_fs.c'
p425
(lp426
I32
aI33
asS'/home/SySeVR/data/CVE_2012_0067_VULN_iptrace_read_1_0.c'
p427
(lp428
I30
asS'/home/SySeVR/data/CVE_2013_7022_VULN_g2m_init_buffers.c'
p429
(lp430
I6
aI7
asS'/home/SySeVR/data/CVE_2010_1083_VULN_processcompl_compat.c'
p431
(lp432
I30
asS'/home/SySeVR/data/CVE_2011_0710_VULN_proc_pid_status.c'
p433
(lp434
I17
aI18
aI19
asS'/home/SySeVR/data/CVE_2011_3934_VULN_vp3_update_thread_context.c'
p435
(lp436
I12
asS'/home/SySeVR/data/CVE_2005_2800_VULN_dev_seq_start.c'
p437
(lp438
I6
aI8
aI12
aI14
aI15
aI16
asS'/home/SySeVR/data/CVE_2012_2779_VULN_decode_frame.c'
p439
(lp440
I14
aI33
asS'/home/SySeVR/data/CVE_2013_1732_VULN_nsBlockFrame__Reflow.c'
p441
(lp442
I150
asS'/home/SySeVR/data/CVE_2009_1527_VULN_ptrace_attach.c'
p443
(lp444
I15
aI59
asS'/home/SySeVR/data/CVE_2013_7011_VULN_read_header.c'
p445
(lp446
I27
aI28
aI29
aI30
asS'/home/SySeVR/data/CVE_2013_5618_VULN_Element__UnbindFromTree.c'
p447
(lp448
I29
asS'/home/SySeVR/data/CVE_2011_0069_VULN_nsAccessControlLRUCache__GetEntry.c'
p449
(lp450
I10
aI20
aI26
aI34
aI37
aI38
aI39
aI41
aI42
aI45
aI47
aI51
aI58
aI65
asS'/home/SySeVR/data/CVE_2012_2652_VULN_bdrv_open.c'
p451
(lp452
I33
asS'/home/SySeVR/data/CVE_2011_3363_VULN_cifs_mount.c'
p453
(lp454
I132
asS'/home/SySeVR/data/CVE_2014_2282_VULN_dissect_protocol_data_parameter.c'
p455
(lp456
I7
asS'/home/SySeVR/data/CVE_2013_0756_VULN_js_EnterSharpObject.c'
p457
(lp458
I1
aI4
aI5
aI7
aI9
aI11
aI12
aI14
aI15
aI16
aI18
aI19
aI20
aI22
aI23
aI24
aI25
aI26
aI27
aI28
aI29
aI30
aI31
aI32
aI33
aI34
aI35
aI36
aI37
aI38
aI39
aI40
aI41
aI42
aI43
aI45
aI46
aI47
aI48
aI49
aI50
aI51
aI52
aI53
aI54
aI55
aI56
aI57
aI59
aI62
aI63
aI65
aI66
aI67
aI68
aI69
aI70
aI72
aI75
aI76
aI77
aI78
aI80
aI81
aI82
aI83
aI84
aI85
aI87
asS'/home/SySeVR/data/CVE_2012_6618_VULN_av_probe_input_buffer.c'
p459
(lp460
I7
aI47
asS'/home/SySeVR/data/CVE_2013_4511_VULN_au1100fb_fb_mmap.c'
p461
(lp462
I4
aI5
aI9
aI10
aI13
aI14
aI16
aI18
aI19
aI22
aI23
aI28
aI29
aI30
aI31
aI34
asS'/home/SySeVR/data/CVE_2013_4081_VULN_http_payload_subdissector.c'
p463
(lp464
I6
aI32
aI33
aI34
aI36
aI40
aI53
asS'/home/SySeVR/data/CVE_2012_4287_VULN_dissect_bson_document.c'
p465
(lp466
I17
aI18
aI20
asS'/home/SySeVR/data/CVE_2013_4933_VULN_netmon_open.c'
p467
(lp468
I167
asS'/home/SySeVR/data/CVE_2010_2492_VULN_ecryptfs_release_messaging.c'
p469
(lp470
I22
asS'/home/SySeVR/data/CVE_2014_9743_VULN_httpd_HtmlError.c'
p471
(lp472
I20
asS'/home/SySeVR/data/CVE_2010_1224_VULN_ast_append_ha.c'
p473
(lp474
I31
asS'/home/SySeVR/data/CVE_2010_1173_VULN_sctp_process_unk_param.c'
p475
(lp476
I22
aI23
aI26
aI28
asS'/home/SySeVR/data/CVE-2015-3209_VULN_pcnet_transmit.c'
p477
(lp478
I7
aI33
aI34
aI35
aI36
aI37
aI38
aI39
aI40
aI41
aI43
aI45
aI46
aI47
aI48
aI50
aI51
aI55
aI56
aI57
aI72
aI84
asS'/home/SySeVR/data/CVE_2012_3964_VULN_ClearAllTextRunReferences.c'
p479
(lp480
I25
asS'/home/SySeVR/data/CVE_2011_0021_VULN_DecodeTileBlock.c'
p481
(lp482
I18
asS'/home/SySeVR/data/CVE_2013_7264_VULN_l2tp_ip_recvmsg.c'
p483
(lp484
I13
aI14
asS'/home/SySeVR/data/CVE_2013_4514_VULN_wvlan_set_station_nickname.c'
p485
(lp486
I19
asS'/home/SySeVR/data/CVE_2011_3658_VULN_nsSVGValue__NotifyObservers.c'
p487
(lp488
I5
aI7
aI8
aI9
aI11
asS'/home/SySeVR/data/CVE_2012_0058_VULN_do_io_submit.c'
p489
(lp490
I53
asS'/home/SySeVR/data/CVE_2010_4263_VULN_igb_receive_skb.c'
p491
(lp492
I7
asS'/home/SySeVR/data/CVE_2011_2723_VULN_skb_gro_header_slow.c'
p493
(lp494
I6
asS'/home/SySeVR/data/CVE_2014_2889_VULN_bpf_jit_compile.c'
p495
(lp496
I451
aI452
aI454
asS'/home/SySeVR/data/CVE_2013_0844_VULN_adpcm_decode_frame.c'
p497
(lp498
I191
aI270
aI338
aI345
aI566
aI582
aI600
aI636
asS'/home/SySeVR/data/CVE_2015_4652_VULN_de_bcd_num.c'
p499
(lp500
I4
aI5
aI6
aI8
aI39
aI40
aI41
aI43
aI44
aI46
aI47
aI49
aI50
aI54
aI55
aI56
aI58
asS'/home/SySeVR/data/CVE_2011_1477_VULN_opl3_setup_voice.c'
p501
(lp502
I3
aI4
asS'/home/SySeVR/data/CVE_2014_8547_VULN_gif_read_image.c'
p503
(lp504
I145
aI146
aI147
aI148
aI154
aI155
aI156
aI157
asS'/home/SySeVR/data/CVE_2013_4220_VULN_bad_mode.c'
p505
(lp506
I8
aI9
aI10
asS'/home/SySeVR/data/CVE-2015-3906_VULN_logcat_log.c'
p507
(lp508
I2
aI27
aI32
aI37
asS'/home/SySeVR/data/CVE_2014_8713_VULN_build_expert_data.c'
p509
(lp510
I37
aI38
asS'/home/SySeVR/data/CVE-2016-2328_VULN_bayer_to_yv12_wrapper.c'
p511
(lp512
I33
aI47
asS'/home/SySeVR/data/CVE_2011_1748_VULN_raw_release.c'
p513
(lp514
I4
asS'/home/SySeVR/data/CVE_2012_1947_VULN_nsNativeCharsetConverter__UnicodeToNative.c'
p515
(lp516
I15
aI16
aI58
aI59
aI60
asS'/home/SySeVR/data/CVE_2013_0868_VULN_read_old_huffman_tables.c'
p517
(lp518
I28
aI29
asS'/home/SySeVR/data/CVE_2012_6055_VULN_dissect_3gpp2_radius_aut_flow_profile_ids.c'
p519
(lp520
I21
asS'/home/SySeVR/data/CVE-2016-5829_VULN_hiddev_ioctl_usage.c'
p521
(lp522
I29
aI32
aI36
aI49
aI54
aI59
aI62
aI68
aI70
aI72
aI73
aI74
aI75
asS'/home/SySeVR/data/CVE_2012_3377_VULN_Ogg_DecodePacket.c'
p523
(lp524
I90
asS'/home/SySeVR/data/CVE_2007_1000_VULN_do_ipv6_getsockopt.c'
p525
(lp526
I135
aI136
asS'/home/SySeVR/data/CVE_2014_9428_VULN_batadv_frag_merge_packets.c'
p527
(lp528
I24
asS'/home/SySeVR/data/CVE_2013_1576_VULN_dissect_sdp_media_attribute.c'
p529
(lp530
I357
aI358
aI359
aI432
aI434
aI435
aI436
aI437
asS'/home/SySeVR/data/CVE-2016-9373_VULN_cb_wstr_postprocess.c'
p531
(lp532
I58
asS'/home/SySeVR/data/CVE_2014_8541_VULN_ff_mjpeg_decode_sof.c'
p533
(lp534
I3
aI13
aI16
aI17
aI50
asS'/home/SySeVR/data/CVE_2010_2798_VULN_gfs2_dirent_find_space.c'
p535
(lp536
I10
asS'/home/SySeVR/data/CVE_2014_9683_VULN_ecryptfs_decode_from_filename.c'
p537
(lp538
I35
asS'/home/SySeVR/data/CVE_2010_3772_VULN_nsTreeContentView__ContentInserted.c'
p539
(lp540
I50
aI54
aI81
aI82
aI83
aI84
aI85
asS'/home/SySeVR/data/CVE_2011_4101_VULN_dissect_infiniband_common.c'
p541
(lp542
I42
aI43
aI44
asS'/home/SySeVR/data/CVE_2012_1946_VULN_nsGenericHTMLElement__SetOuterHTML.c'
p543
(lp544
I4
aI17
aI18
asS'/home/SySeVR/data/CVE_2009_2287_VULN_kvm_arch_vcpu_ioctl_set_sregs.c'
p545
(lp546
I19
asS'/home/SySeVR/data/CVE_2013_2850_VULN_iscsi_decode_text_input.c'
p547
(lp548
I35
aI36
asS'/home/SySeVR/data/CVE_2006_0039_VULN_do_add_counters.c'
p549
(lp550
I33
asS'/home/SySeVR/data/CVE_2011_3949_VULN_dirac_unpack_idwt_params.c'
p551
(lp552
I13
aI14
aI15
aI17
aI18
aI19
aI20
aI27
aI28
aI31
aI32
aI33
aI34
asS'/home/SySeVR/data/CVE_2013_2478_VULN_dissect_server_info.c'
p553
(lp554
I32
aI37
aI42
aI47
asS'/home/SySeVR/data/CVE_2012_3964_VULN_nsTextFrame__SetLength.c'
p555
(lp556
I67
asS'/home/SySeVR/data/CVE_2012_3969_VULN_nsSVGFEMorphologyElement__Filter.c'
p557
(lp558
I20
aI26
aI30
aI32
aI33
aI34
aI36
aI39
aI40
aI41
asS'/home/SySeVR/data/CVE_2007_0006_VULN_key_alloc_serial.c'
p559
(lp560
I17
aI27
aI30
aI37
aI38
aI40
aI41
aI42
aI43
aI44
aI45
aI49
aI53
aI56
aI57
aI58
aI59
aI61
asS'/home/SySeVR/data/CVE_2011_0726_VULN_do_task_stat.c'
p561
(lp562
I133
aI134
asS'/home/SySeVR/data/CVE_2011_2988_VULN_WebGLContext__ShaderSource.c'
p563
(lp564
I9
aI12
asS'/home/SySeVR/data/CVE_2011_1747_VULN_agp_allocate_memory.c'
p565
(lp566
I11
asS'/home/SySeVR/data/CVE_2014_2286_VULN_ast_http_get_cookies.c'
p567
(lp568
I4
aI8
aI9
aI10
aI13
asS'/home/SySeVR/data/CVE_2011_0085_VULN_nsXULCommandDispatcher__UpdateCommands.c'
p569
(lp570
I42
asS'/home/SySeVR/data/CVE_2005_3807_VULN_fcntl_setlease.c'
p571
(lp572
I13
aI18
aI24
asS'/home/SySeVR/data/CVE_2013_5601_VULN_nsEventListenerManager__CompileEventHandlerInternal.c'
p573
(lp574
I122
asS'/home/SySeVR/data/CVE_2013_1772_VULN_call_console_drivers.c'
p575
(lp576
I13
asS'/home/SySeVR/data/CVE_2010_3880_VULN_inet_diag_dump_reqs.c'
p577
(lp578
I8
aI28
aI29
aI62
aI63
asS'/home/SySeVR/data/CVE_2012_4287_VULN_dissect_mongo_insert.c'
p579
(lp580
I15
asS'/home/SySeVR/data/CVE_2013_0874_VULN_doubles2str.c'
p581
(lp582
I5
aI7
aI8
asS'/home/SySeVR/data/CVE_2014_2523_VULN_dccp_error.c'
p583
(lp584
I11
asS'/home/SySeVR/data/CVE_2015_6242_VULN_wmem_block_split_free_chunk.c'
p585
(lp586
I21
aI58
aI63
asS'/home/SySeVR/data/CVE_2009_1961_VULN_ocfs2_file_splice_write.c'
p587
(lp588
I15
aI35
asS'/home/SySeVR/data/CVE-2015-5156_VULN_virtnet_probe.c'
p589
(lp590
I44
aI46
asS'/home/SySeVR/data/CVE-2015-8961_VULN___ext4_journal_stop.c'
p591
(lp592
I13
aI14
aI18
asS'/home/SySeVR/data/CVE_2010_1083_VULN_processcompl.c'
p593
(lp594
I30
aI37
asS'/home/SySeVR/data/CVE_2010_4256_VULN_pipe_fcntl.c'
p595
(lp596
I6
asS'/home/SySeVR/data/CVE_2013_1572_VULN_dissect_oampdu_event_notification.c'
p597
(lp598
I49
aI50
aI97
aI98
aI146
aI147
aI195
aI196
aI244
aI245
aI249
asS'/home/SySeVR/data/CVE_2012_4293_VULN_proto_register_ecat_mailbox.c'
p599
(lp600
I125
aI129
aI133
asS'/home/SySeVR/data/CVE_2014_3601_VULN_kvm_unpin_pages.c'
p601
(lp602
I3
aI5
aI6
asS'/home/SySeVR/data/CVE_2012_1963_VULN_CSPService__AsyncOnChannelRedirect.c'
p603
(lp604
I51
asS'/home/SySeVR/data/CVE_2009_1360_VULN___inet6_check_established.c'
p605
(lp606
I56
aI60
asS'/home/SySeVR/data/CVE_2013_2230_VULN_qemuConnectDomainEventRegisterAny.c'
p607
(lp608
I13
aI19
aI21
asS'/home/SySeVR/data/CVE_2008_3792_VULN_sctp_getsockopt_local_auth_chunks.c'
p609
(lp610
I8
aI11
aI14
aI15
aI28
aI31
aI32
aI33
aI35
aI36
aI37
asS'/home/SySeVR/data/CVE_2012_4288_VULN_dissect_xtp_ecntl.c'
p611
(lp612
I9
aI10
aI18
aI21
aI29
aI34
aI44
aI45
aI46
aI47
aI49
aI50
aI51
aI52
aI53
aI54
aI55
aI56
aI57
aI67
aI75
aI79
aI88
aI89
aI91
aI92
aI93
aI94
aI95
aI96
aI97
aI98
aI101
asS'/home/SySeVR/data/CVE_2011_3003_VULN_CopyDataIfElementArray.c'
p613
(lp614
I2
aI4
asS'/home/SySeVR/data/CVE_2011_4324_VULN_encode_openhdr.c'
p615
(lp616
I11
asS'/home/SySeVR/data/CVE_2013_0799_VULN_ProcessSoftwareUpdateCommand.c'
p617
(lp618
I20
asS'/home/SySeVR/data/CVE_2011_1147_VULN_udptl_rx_packet.c'
p619
(lp620
I3
aI5
aI21
aI22
aI33
aI39
aI42
aI51
aI52
aI54
aI56
aI58
aI87
aI110
aI112
aI119
aI126
aI128
asS'/home/SySeVR/data/CVE_2013_1588_VULN_dissect_pft_fec_detailed.c'
p621
(lp622
I49
aI54
aI55
asS'/home/SySeVR/data/CVE_2012_6054_VULN_dissect_sflow_245_address_type.c'
p623
(lp624
I21
aI22
aI23
aI24
aI25
aI26
aI27
aI28
aI29
asS'/home/SySeVR/data/CVE_2014_4174_VULN_libpcap_read_header.c'
p625
(lp626
I39
aI45
aI46
aI49
aI50
aI51
aI52
aI53
aI54
aI55
aI58
aI61
aI62
aI63
aI64
aI65
aI66
aI67
aI68
aI69
aI70
aI71
aI72
aI73
aI75
asS'/home/SySeVR/data/CVE-2015-6526_VULN_perf_callchain_user_64.c'
p627
(lp628
I16
asS'/home/SySeVR/data/CVE_2010_3859_VULN_verify_iovec.c'
p629
(lp630
I3
aI4
aI10
aI26
aI27
aI28
aI29
aI30
aI31
aI32
aI33
asS'/home/SySeVR/data/CVE_2012_6547_VULN___tun_chr_ioctl.c'
p631
(lp632
I13
asS'/home/SySeVR/data/CVE_2013_0777_VULN_nsCSSRendering__PaintBoxShadowOuter.c'
p633
(lp634
I92
aI99
asS'/home/SySeVR/data/CVE_2010_2519_VULN_Mac_Read_POST_Resource.c'
p635
(lp636
I60
asS'/home/SySeVR/data/CVE_2010_3432_VULN_sctp_packet_config.c'
p637
(lp638
I9
asS'/home/SySeVR/data/CVE_2013_4516_VULN_mp_get_count.c'
p639
(lp640
I3
asS'/home/SySeVR/data/CVE_2012_1594_VULN_dissect_vendor_ie_wpawme.c'
p641
(lp642
I18
asS'/home/SySeVR/data/CVE_2011_2587_VULN_DemuxAudioSipr.c'
p643
(lp644
I6
asS'/home/SySeVR/data/CVE_2014_1509_VULN__cairo_dwrite_load_truetype_table.c'
p645
(lp646
I26
aI27
asS'/home/SySeVR/data/CVE_2013_3670_VULN_rle_unpack.c'
p647
(lp648
I7
aI33
aI35
asS'/home/SySeVR/data/CVE_2012_3957_VULN_nsBlockFrame__AddFrames.c'
p649
(lp650
I71
aI128
asS'/home/SySeVR/data/CVE_2015_3395_VULN_msrle_decode_pal4.c'
p651
(lp652
I8
aI9
aI10
aI13
aI16
aI17
aI26
aI36
aI42
aI53
aI59
aI69
aI79
aI81
asS'/home/SySeVR/data/CVE_2010_4251_VULN_sk_receive_skb.c'
p653
(lp654
I23
aI24
asS'/home/SySeVR/data/CVE_2009_0028_VULN_copy_process.c'
p655
(lp656
I244
asS'/home/SySeVR/data/CVE_2011_1712_VULN_GenerateIdFunctionCall__evaluate.c'
p657
(lp658
I38
asS'/home/SySeVR/data/CVE_2013_0853_VULN_wavpack_decode_frame.c'
p659
(lp660
I42
asS'/home/SySeVR/data/CVE_2011_3648_VULN_nsShiftJISToUnicode__Convert.c'
p661
(lp662
I86
aI113
aI136
asS'/home/SySeVR/data/CVE_2013_7010_VULN_add_bytes_c.c'
p663
(lp664
I3
asS'/home/SySeVR/data/CVE_2012_6053_VULN_dissect_usb_endpoint_descriptor.c'
p665
(lp666
I98
asS'/home/SySeVR/data/CVE_2013_1735_VULN_ImageDocument__ScrollImageTo.c'
p667
(lp668
I11
asS'/home/SySeVR/data/CVE_2012_1940_VULN_nsOverflowContinuationTracker__Finish.c'
p669
(lp670
I6
aI8
aI9
aI10
aI12
aI13
aI24
asS'/home/SySeVR/data/CVE_2013_7113_VULN_dissect_bssgp.c'
p671
(lp672
I14
aI15
asS'/home/SySeVR/data/CVE_2015_1158_VULN_cupsdProcessIPPRequest.c'
p673
(lp674
I1
aI20
aI22
aI33
aI35
aI40
aI42
aI57
aI59
aI79
aI82
aI89
aI91
aI100
aI107
aI113
aI132
aI134
aI177
aI179
aI199
aI203
aI251
aI254
aI259
aI261
aI267
aI269
aI271
aI272
aI282
aI284
aI298
aI302
aI306
aI310
aI314
aI318
aI322
aI326
aI330
aI334
aI338
aI342
aI346
aI350
aI356
aI360
aI364
aI368
aI372
aI376
aI380
aI384
aI388
aI392
aI396
aI400
aI404
aI409
aI414
aI418
aI422
aI426
aI430
aI434
aI438
aI442
aI447
aI451
aI455
aI459
aI463
aI467
aI469
aI480
aI488
aI490
aI506
aI512
aI546
aI548
aI557
aI559
aI566
aI569
asS'/home/SySeVR/data/CVE_2010_3066_VULN_io_submit_one.c'
p675
(lp676
I47
asS'/home/SySeVR/data/CVE_2011_1684_VULN_MP4_ReadBox_skcr.c'
p677
(lp678
I3
asS'/home/SySeVR/data/CVE_2004_1151_VULN_sys32_ni_syscall.c'
p679
(lp680
I4
aI5
aI6
aI7
aI8
asS'/home/SySeVR/data/CVE_2009_2844_VULN_cmp_ies.c'
p681
(lp682
I9
asS'/home/SySeVR/data/CVE_2010_4668_VULN_blk_rq_map_user_iov.c'
p683
(lp684
I10
aI19
aI20
aI41
asS'/home/SySeVR/data/CVE_2014_3184_VULN_sp_report_fixup.c'
p685
(lp686
I4
asS'/home/SySeVR/data/CVE_2012_4184_VULN_ChromeObjectWrapper__getPropertyDescriptor.c'
p687
(lp688
I12
aI21
aI22
aI23
asS'/home/SySeVR/data/CVE_2010_5313_VULN_handle_emulation_failure.c'
p689
(lp690
I5
aI6
aI7
aI9
asS'/home/SySeVR/data/CVE_2011_3192_VULN_ap_set_byterange.c'
p691
(lp692
I60
aI61
aI62
aI64
aI65
aI66
asS'/home/SySeVR/data/CVE_2008_3792_VULN_sctp_setsockopt_del_key.c'
p693
(lp694
I11
asS'/home/SySeVR/data/CVE_2010_3864_VULN_ssl_parse_clienthello_tlsext.c'
p695
(lp696
I64
aI71
aI84
aI90
aI92
aI93
aI96
aI104
aI110
aI124
aI139
aI141
aI142
aI143
aI145
aI146
aI148
aI149
aI168
aI170
aI171
aI172
aI174
aI175
aI177
aI178
aI197
aI203
aI214
aI215
aI224
aI225
aI231
aI241
aI256
aI265
aI272
aI281
aI287
aI295
aI302
aI312
aI324
aI351
asS'/home/SySeVR/data/CVE_2013_4534_VULN_openpic_load.c'
p697
(lp698
I4
aI16
asS'/home/SySeVR/data/CVE_2011_1023_VULN_rds_loop_xmit.c'
p699
(lp700
I8
aI25
asS'/home/SySeVR/data/CVE_2013_0851_VULN_decode_frame.c'
p701
(lp702
I13
asS'/home/SySeVR/data/CVE_2014_5163_VULN_decode_apn.c'
p703
(lp704
I8
asS'/home/SySeVR/data/CVE_2013_1726_VULN_mar_wopen.c'
p705
(lp706
I4
asS'/home/SySeVR/data/CVE-2017-5548_VULN_atusb_read_reg.c'
p707
(lp708
I10
aI11
asS'/home/SySeVR/data/CVE_2013_0755_VULN_Navigator__Vibrate.c'
p709
(lp710
I7
asS'/home/SySeVR/data/CVE_2011_2213_VULN_inet_diag_bc_audit.c'
p711
(lp712
I3
aI7
aI18
aI19
aI21
aI22
aI25
aI28
aI29
aI32
asS'/home/SySeVR/data/CVE_2009_1385_VULN_e1000_clean_rx_irq.c'
p713
(lp714
I51
asS'/home/SySeVR/data/CVE-2016-7912_VULN_ffs_user_copy_worker.c'
p715
(lp716
I18
aI19
aI24
asS'/home/SySeVR/data/CVE_2014_1508_VULN_nsDisplayNotation__Paint.c'
p717
(lp718
I67
asS'/home/SySeVR/data/CVE_2010_3429_VULN_flic_decode_frame_15_16BPP.c'
p719
(lp720
I30
aI91
aI97
aI135
aI145
aI188
aI199
asS'/home/SySeVR/data/CVE_2013_1828_VULN_sctp_getsockopt_assoc_stats.c'
p721
(lp722
I45
aI46
asS'/home/SySeVR/data/CVE_2005_3356_VULN_sys_mq_open.c'
p723
(lp724
I5
aI26
aI27
aI32
aI33
aI34
aI36
aI47
asS'/home/SySeVR/data/CVE_2014_8160_VULN_generic_new.c'
p725
(lp726
I4
asS'/home/SySeVR/data/CVE_2013_4533_VULN_pxa2xx_ssp_load.c'
p727
(lp728
I4
aI18
asS'/home/SySeVR/data/CVE_2011_0021_VULN_DecodeScroll.c'
p729
(lp730
I56
aI57
asS'/home/SySeVR/data/CVE_2013_1705_VULN_cryptojs_ReadArgsAndGenerateKey.c'
p731
(lp732
I9
aI35
aI36
aI37
aI41
aI56
asS'/home/SySeVR/data/CVE_2014_7145_VULN_SMB2_tcon.c'
p733
(lp734
I113
asS'/home/SySeVR/data/CVE_2011_2484_VULN_add_del_listener.c'
p735
(lp736
I4
aI12
aI13
asS'/home/SySeVR/data/CVE-2016-8658_VULN_brcmf_cfg80211_start_ap.c'
p737
(lp738
I44
asS'/home/SySeVR/data/CVE_2013_2015_VULN_ext4_orphan_del.c'
p739
(lp740
I13
asS'/home/SySeVR/data/CVE_2013_1676_VULN_nsBidiPresUtils__ResolveParagraph.c'
p741
(lp742
I175
aI177
aI178
asS'/home/SySeVR/data/CVE_2014_5045_VULN_mountpoint_last.c'
p743
(lp744
I56
asS'/home/SySeVR/data/CVE_2012_4467_VULN_do_siocgstamp.c'
p745
(lp746
I12
asS'/home/SySeVR/data/CVE_2014_2523_VULN_dccp_new.c'
p747
(lp748
I10
asS'/home/SySeVR/data/CVE_2013_4079_VULN_dissect_schedule_message.c'
p749
(lp750
I5
aI6
aI131
asS'/home/SySeVR/data/CVE_2012_5354_VULN_nsComboboxControlFrame__ShowDropDown.c'
p751
(lp752
I1
aI10
aI11
aI13
aI15
asS'/home/SySeVR/data/CVE_2014_3610_VULN_handle_wrmsr.c'
p753
(lp754
I11
asS'/home/SySeVR/data/CVE_2013_4512_VULN_exitcode_proc_write.c'
p755
(lp756
I7
asS'/home/SySeVR/data/CVE_2013_5593_VULN_nsComboboxControlFrame__AbsolutelyPositionDropDown.c'
p757
(lp758
I38
aI39
aI40
asS'/home/SySeVR/data/CVE_2014_9679_VULN_cupsRasterReadPixels.c'
p759
(lp760
I127
aI128
aI132
aI133
aI134
asS'/home/SySeVR/data/CVE_2015_3331_VULN___driver_rfc4106_decrypt.c'
p761
(lp762
I52
aI77
asS'/home/SySeVR/data/CVE_2011_1010_VULN_mac_partition.c'
p763
(lp764
I3
aI6
aI33
aI35
aI36
aI87
aI93
asS'/home/SySeVR/data/CVE_2013_4129_VULN_br_multicast_del_pg.c'
p765
(lp766
I26
asS'/home/SySeVR/data/CVE_2013_2548_VULN_crypto_report_one.c'
p767
(lp768
I4
aI5
aI6
aI7
aI8
aI18
asS'/home/SySeVR/data/CVE_2014_8643_VULN_XRE_InitChildProcess.c'
p769
(lp770
I150
aI151
aI152
asS'/home/SySeVR/data/CVE_2011_2980_VULN_ThinkPadSensor__Startup.c'
p771
(lp772
I4
asS'/home/SySeVR/data/CVE_2013_5600_VULN_nsFrameLoader__ReallyStartLoadingInternal.c'
p773
(lp774
I80
asS'/home/SySeVR/data/CVE_2014_6431_VULN_SnifferDecompress.c'
p775
(lp776
I21
aI29
aI30
aI31
aI32
aI34
aI53
aI55
aI79
aI91
aI93
aI106
aI118
aI120
aI142
aI171
aI175
aI176
aI177
asS'/home/SySeVR/data/CVE_2013_4932_VULN_elem_telv.c'
p777
(lp778
I32
aI34
aI35
aI51
asS'/home/SySeVR/data/CVE_2013_6336_VULN_ieee802154_addr_update.c'
p779
(lp780
I36
aI44
asS'/home/SySeVR/data/CVE_2013_7013_VULN_g2m_init_buffers.c'
p781
(lp782
I16
asS'/home/SySeVR/data/CVE_2013_0774_VULN_CreateDedicatedWorkerGlobalScope.c'
p783
(lp784
I15
aI22
aI34
aI40
aI46
aI50
aI56
aI59
aI60
aI61
aI62
aI65
aI66
aI76
aI87
aI91
asS'/home/SySeVR/data/CVE_2012_4289_VULN_proto_register_afp.c'
p785
(lp786
I1300
aI1305
aI1310
aI1405
asS'/home/SySeVR/data/CVE_2013_4129_VULN___br_mdb_del.c'
p787
(lp788
I46
asS'/home/SySeVR/data/CVE_2012_0471_VULN_nsGBKToUnicode__ConvertNoBuff.c'
p789
(lp790
I91
aI92
asS'/home/SySeVR/data/CVE_2006_6106_VULN_cmtp_recv_interopmsg.c'
p791
(lp792
I66
aI67
aI90
aI91
aI106
aI107
asS'/home/SySeVR/data/CVE_2013_0771_VULN_nsTextFrame__ReflowText.c'
p793
(lp794
I112
aI113
asS'/home/SySeVR/data/CVE_2013_4932_VULN_elem_lv.c'
p795
(lp796
I21
aI23
aI24
aI34
asS'/home/SySeVR/data/CVE_2009_1389_VULN_rtl_hw_start_8168.c'
p797
(lp798
I11
asS'/home/SySeVR/data/CVE_2009_1338_VULN_kill_something_info.c'
p799
(lp800
I21
asS'/home/SySeVR/data/CVE_2008_4989_VULN__gnutls_x509_verify_certificate.c'
p801
(lp802
I1
aI18
aI28
aI36
aI51
aI52
aI53
aI54
aI55
aI56
aI57
aI59
aI63
aI71
asS'/home/SySeVR/data/CVE_2006_2934_VULN_do_basic_checks.c'
p803
(lp804
I39
asS'/home/SySeVR/data/CVE_2014_6429_VULN_SnifferDecompress.c'
p805
(lp806
I21
aI29
aI30
aI31
aI32
aI34
aI53
aI55
aI79
aI91
aI93
aI106
aI118
aI120
aI142
aI171
aI175
aI176
aI177
asS'/home/SySeVR/data/CVE_2010_4805_VULN_sock_init_data.c'
p807
(lp808
I17
asS'/home/SySeVR/data/CVE_2012_6617_VULN_prepare_sdp_description.c'
p809
(lp810
I9
asS'/home/SySeVR/data/CVE_2010_3859_VULN_tipc_msg_build.c'
p811
(lp812
I18
aI37
asS'/home/SySeVR/data/CVE_2013_7017_VULN_ff_jpeg2000_init_component.c'
p813
(lp814
I83
aI179
aI188
asS'/home/SySeVR/data/CVE_2013_7009_VULN_rpza_decode_stream.c'
p815
(lp816
I17
aI64
aI81
aI130
aI151
asS'/home/SySeVR/data/CVE_2014_8546_VULN_cinepak_decode_vectors.c'
p817
(lp818
I7
asS'/home/SySeVR/data/CVE_2011_2998_VULN_ExecuteREBytecode.c'
p819
(lp820
I9
aI131
aI147
aI224
aI236
aI312
aI400
aI407
aI461
asS'/home/SySeVR/data/CVE_2014_0160_VULN_tls1_process_heartbeat.c'
p821
(lp822
I9
aI10
aI11
aI12
aI28
aI43
asS'/home/SySeVR/data/CVE_2014_3183_VULN_logi_dj_ll_raw_request.c'
p823
(lp824
I18
asS'/home/SySeVR/data/CVE_2013_7339_VULN_rds_ib_laddr_check.c'
p825
(lp826
I22
asS'/home/SySeVR/data/CVE_2014_7283_VULN_xfs_da3_fixhashpath.c'
p827
(lp828
I41
asS'/home/SySeVR/data/CVE_2013_4297_VULN_virFileNBDDeviceAssociate.c'
p829
(lp830
I7
asS'/home/SySeVR/data/CVE_2014_9657_VULN_tt_face_load_hdmx.c'
p831
(lp832
I28
aI29
aI30
aI43
asS'/home/SySeVR/data/CVE_2014_3184_VULN_kye_report_fixup.c'
p833
(lp834
I13
asS'/home/SySeVR/data/CVE-2016-4998_VULN_check_entry_size_and_hooks.c'
p835
(lp836
I12
asS'/home/SySeVR/data/CVE_2013_1679_VULN__geturlnotify.c'
p837
(lp838
I17
aI18
asS'/home/SySeVR/data/CVE_2012_6616_VULN_mov_text_decode_frame.c'
p839
(lp840
I28
asS'/home/SySeVR/data/CVE_2012_5354_VULN_nsComboboxControlFrame__SetFocus.c'
p841
(lp842
I1
asS'/home/SySeVR/data/CVE_2012_0042_VULN_bytes_to_hexstr_punct.c'
p843
(lp844
I3
aI5
aI6
aI7
aI8
aI10
asS'/home/SySeVR/data/CVE_2010_3429_VULN_flic_decode_frame_8BPP.c'
p845
(lp846
I36
aI130
aI145
aI185
aI193
aI226
aI236
asS'/home/SySeVR/data/CVE_2014_2283_VULN_rlc_sdu_create.c'
p847
(lp848
I6
asS'/home/SySeVR/data/CVE_2013_1708_VULN_WaveReader__LoadListChunk.c'
p849
(lp850
I52
asS'/home/SySeVR/data/CVE_2008_5134_VULN_lbs_process_bss.c'
p851
(lp852
I94
aI95
asS'/home/SySeVR/data/CVE_2005_3181_VULN_open_namei.c'
p853
(lp854
I144
aI149
aI156
asS'/home/SySeVR/data/CVE_2011_3362_VULN_decode_residual_block.c'
p855
(lp856
I4
asS'/home/SySeVR/data/CVE_2011_3003_VULN_ZeroDataIfElementArray.c'
p857
(lp858
I2
aI4
asS'/home/SySeVR/data/CVE_2011_0014_VULN_ssl_parse_clienthello_tlsext.c'
p859
(lp860
I309
asS'/home/SySeVR/data/CVE_2013_4296_VULN_remoteDispatchDomainMemoryStats.c'
p861
(lp862
I10
asS'/home/SySeVR/data/CVE_2012_1945_VULN_nsLocalFile__IsSymlink.c'
p863
(lp864
I10
aI18
aI21
aI22
asS'/home/SySeVR/data/CVE_2011_0055_VULN_JO.c'
p865
(lp866
I9
aI10
asS'/home/SySeVR/data/CVE_2006_5462_VULN_RSA_CheckSign.c'
p867
(lp868
I36
aI37
asS'/home/SySeVR/data/CVE_2011_1759_VULN_sys_oabi_semtimedop.c'
p869
(lp870
I11
asS'/home/SySeVR/data/CVE_2006_2935_VULN_dvd_read_bca.c'
p871
(lp872
I11
asS'/home/SySeVR/data/CVE_2011_1175_VULN_handle_tcptls_connection.c'
p873
(lp874
I14
aI15
asS'/home/SySeVR/data/CVE_2012_1961_VULN_nsDSURIContentListener__CheckFrameOptions.c'
p875
(lp876
I3
aI4
aI5
aI8
aI12
aI15
aI16
aI18
aI19
aI20
aI21
aI31
aI38
aI52
aI53
aI67
aI68
aI76
aI80
aI87
aI88
aI91
aI92
aI93
aI94
aI95
aI98
aI99
aI100
aI101
aI102
aI103
aI105
aI108
asS'/home/SySeVR/data/CVE_2013_3560_VULN_dissect_dsmcc_un_download.c'
p877
(lp878
I13
asS'/home/SySeVR/data/CVE_2009_1337_VULN_exit_notify.c'
p879
(lp880
I37
aI38
asS'/home/SySeVR/data/CVE_2014_2851_VULN_ping_init_sock.c'
p881
(lp882
I5
aI6
aI11
aI18
aI24
asS'/home/SySeVR/data/CVE_2013_0878_VULN_advance_line.c'
p883
(lp884
I10
asS'/home/SySeVR/data/CVE_2005_3848_VULN_icmp_push_reply.c'
p885
(lp886
I6
aI7
aI8
aI9
aI11
asS'/home/SySeVR/data/CVE_2014_0160_VULN_dtls1_process_heartbeat.c'
p887
(lp888
I9
aI10
aI11
aI12
aI28
aI39
aI43
asS'/home/SySeVR/data/CVE_2014_4608_VULN_lzo1x_decompress_safe.c'
p889
(lp890
I34
aI41
aI57
aI58
aI71
aI95
aI98
aI113
aI116
aI130
aI140
aI148
aI157
aI170
aI177
aI178
asS'/home/SySeVR/data/CVE_2013_4924_VULN_dissect_dcom_Property_Guid.c'
p891
(lp892
I11
aI12
aI13
asS'/home/SySeVR/data/CVE_2013_6378_VULN_lbs_debugfs_write.c'
p893
(lp894
I12
asS'/home/SySeVR/data/CVE_2008_2826_VULN_sctp_getsockopt_local_addrs_old.c'
p895
(lp896
I25
asS'/home/SySeVR/data/CVE_2010_3880_VULN_inet_twsk_diag_dump.c'
p897
(lp898
I7
aI9
aI28
asS'/home/SySeVR/data/CVE_2009_0787_VULN_ecryptfs_write_metadata_to_xattr.c'
p899
(lp900
I3
asS'/home/SySeVR/data/CVE_2010_0006_VULN_ipv6_hop_jumbo.c'
p901
(lp902
I5
asS'/home/SySeVR/data/CVE_2013_7023_VULN_ff_combine_frame.c'
p903
(lp904
I25
aI40
asS'/home/SySeVR/data/CVE_2014_5163_VULN_de_sm_apn.c'
p905
(lp906
I11
asS'/home/SySeVR/data/CVE_2009_3726_VULN_nfs4_proc_lock.c'
p907
(lp908
I16
aI17
aI22
aI23
asS'/home/SySeVR/data/CVE_2010_3849_VULN_econet_sendmsg.c'
p909
(lp910
I29
aI37
aI38
aI40
aI41
aI42
aI43
aI44
aI45
aI46
aI47
aI49
aI50
aI51
aI52
aI63
aI69
aI91
aI131
aI142
aI151
aI201
aI213
aI242
asS'/home/SySeVR/data/CVE_2013_7271_VULN_x25_recvmsg.c'
p911
(lp912
I93
asS'/home/SySeVR/data/CVE-2014-5388_VULN_pci_read.c'
p913
(lp914
I7
asS'/home/SySeVR/data/CVE_2015_3808_VULN_dissect_lbmr_pser.c'
p915
(lp916
I52
aI58
asS'/home/SySeVR/data/CVE_2014_6432_VULN_SnifferDecompress.c'
p917
(lp918
I21
aI29
aI30
aI31
aI32
aI34
aI53
aI55
aI79
aI91
aI93
aI106
aI118
aI120
aI142
aI171
aI175
aI176
aI177
asS'/home/SySeVR/data/CVE_2014_5471_VULN_parse_rock_ridge_inode.c'
p919
(lp920
I3
aI11
asS'/home/SySeVR/data/CVE_2012_1583_VULN_xfrm6_tunnel_rcv.c'
p921
(lp922
I7
asS'/home/SySeVR/data/CVE_2008_1390_VULN_generic_http_callback.c'
p923
(lp924
I33
asS'/home/SySeVR/data/CVE_2009_2692_VULN_sock_sendpage.c'
p925
(lp926
I13
asS'/home/SySeVR/data/CVE_2014_1497_VULN_WaveReader__LoadFormatChunk.c'
p927
(lp928
I78
asS'/home/SySeVR/data/CVE_2012_1594_VULN_dissect_rsn_ie.c'
p929
(lp930
I8
asS'/home/SySeVR/data/CVE_2013_5719_VULN_dissect_r3_upstreammfgfield_checksumresults.c'
p931
(lp932
I4
aI24
aI30
asS'/home/SySeVR/data/CVE_2008_3792_VULN_sctp_setsockopt_active_key.c'
p933
(lp934
I11
asS'/home/SySeVR/data/CVE_2013_0778_VULN_nsFrame__SelectByTypeAtPoint.c'
p935
(lp936
I18
aI22
aI30
aI31
asS'/home/SySeVR/data/CVE_2013_3559_VULN_dissect_pft_fec_detailed.c'
p937
(lp938
I14
aI95
aI99
asS'/home/SySeVR/data/CVE_2014_2672_VULN_ath_tx_aggr_sleep.c'
p939
(lp940
I13
aI14
asS'/home/SySeVR/data/CVE_2015_0820_VULN_js__NewReshapedObject.c'
p941
(lp942
I28
asS'/home/SySeVR/data/CVE_2010_2495_VULN_pppol2tp_sendmsg.c'
p943
(lp944
I81
asS'/home/SySeVR/data/CVE_2011_2588_VULN_AVI_ChunkRead_strf.c'
p945
(lp946
I69
aI85
asS'/home/SySeVR/data/CVE_2005_3356_VULN_do_open.c'
p947
(lp948
I5
aI7
aI8
aI10
aI13
aI15
aI16
aI18
asS'/home/SySeVR/data/CVE_2015_1158_VULN_authenticate_job.c'
p949
(lp950
I1
aI25
aI27
aI31
aI33
aI37
aI39
aI53
aI55
aI63
aI65
aI75
aI77
aI81
aI83
aI89
aI91
aI95
aI97
aI105
aI107
aI115
aI118
aI131
aI133
aI142
aI144
aI148
aI150
aI158
aI159
aI162
aI164
asS'/home/SySeVR/data/CVE-2016-2213_VULN_jpeg2000_decode_tile.c'
p951
(lp952
I71
aI72
aI73
aI74
aI75
asS'/home/SySeVR/data/CVE_2015_3811_VULN_wcp_uncompress.c'
p953
(lp954
I112
asS'/home/SySeVR/data/CVE_2014_1642_VULN_pirq_guest_bind.c'
p955
(lp956
I16
aI43
aI44
asS'/home/SySeVR/data/CVE_2013_6449_VULN_ssl_get_algorithm2.c'
p957
(lp958
I6
asS'/home/SySeVR/data/CVE_2013_0792_VULN_qcms_transform_create.c'
p959
(lp960
I25
asS'/home/SySeVR/data/CVE_2014_9658_VULN_tt_face_load_kern.c'
p961
(lp962
I59
asS'/home/SySeVR/data/CVE_2012_0464_VULN_array_toString_sub.c'
p963
(lp964
I34
aI35
aI36
aI37
aI41
aI42
as.