(lp0
(lp1
(lp2
S'static'
p3
aS'int'
p4
aS'func_0'
p5
aS'('
p6
aS'struct'
p7
aS'variable_0'
p8
aS'*'
p9
aS'variable_1'
p10
aS','
p11
aS'struct'
p12
aS'variable_2'
p13
ag9
aS'variable_3'
p14
ag11
aS'int'
p15
aS'variable_4'
p16
aS')'
p17
aS'int'
p18
aS'variable_5'
p19
aS'='
p20
aS'variable_3'
p21
aS'->'
p22
aS'variable_6'
p23
aS';'
p24
aS'int'
p25
aS'variable_7'
p26
ag20
aS'variable_5'
p27
ag24
aS'const'
p28
aS'char'
p29
ag9
aS'variable_8'
p30
ag20
aS'NULL'
p31
ag24
aS'struct'
p32
aS'variable_9'
p33
ag9
aS'variable_10'
p34
ag20
aS'func_1'
p35
ag6
ag17
ag24
aS'struct'
p36
aS'variable_9'
p37
ag9
aS'variable_11'
p38
ag20
aS'func_2'
p39
ag6
ag17
ag24
aS'struct'
p40
aS'variable_9'
p41
ag9
aS'variable_12'
p42
ag20
aS'func_3'
p43
ag6
ag17
ag24
aS'struct'
p44
aS'ast_rtp_codecs'
p45
aS'variable_13'
p46
ag11
aS'variable_14'
p47
ag11
aS'variable_15'
p48
ag24
aS'struct'
p49
aS'variable_9'
p50
ag9
aS'variable_16'
p51
ag20
aS'func_4'
p52
ag6
ag17
ag24
aS'struct'
p53
aS'variable_9'
p54
ag9
aS'variable_17'
p55
ag20
aS'func_5'
p56
ag6
ag17
ag24
aS'const'
p57
aS'char'
p58
ag9
aS'variable_18'
p59
ag24
aS'int'
p60
aS'variable_19'
p61
ag24
aS'int'
p62
aS'variable_20'
p63
ag20
aS'variable_21'
p64
ag24
aS'int'
p65
aS'variable_22'
p66
ag20
aS'variable_21'
p67
ag24
aS'int'
p68
aS'variable_23'
p69
ag24
aS'int'
p70
aS'variable_24'
p71
ag20
aS'0'
p72
ag24
aS'int'
p73
aS'variable_25'
p74
aS'['
p75
aS'10'
p76
aS']'
p77
ag24
aS'char'
p78
aS'variable_26'
p79
ag75
aS'100'
p80
ag77
ag20
aS'"'
p81
aS'empty'
p82
ag81
ag24
aS'if'
p83
ag6
aS'!'
p84
aS'variable_1'
p85
aS'->'
p86
aS'variable_27'
p87
ag17
aS'if'
p88
ag6
ag84
aS'variable_10'
p89
aS'||'
p90
ag84
aS'variable_11'
p91
aS'||'
p92
ag84
aS'variable_12'
p93
aS'||'
p94
ag84
aS'variable_17'
p95
aS'||'
p96
ag84
aS'variable_16'
p97
ag17
aS'variable_1'
p98
aS'->'
p99
aS'variable_28'
p100
ag20
aS'variable_1'
p101
aS'->'
p102
aS'variable_29'
p103
ag20
aS'time'
p104
ag6
aS'NULL'
p105
ag17
ag24
aS'memset'
p106
ag6
aS'variable_1'
p107
aS'->'
p108
aS'variable_30'
p109
ag11
ag72
ag11
aS'sizeof'
p110
ag6
aS'variable_1'
p111
aS'->'
p112
aS'variable_30'
p113
ag17
ag17
ag24
aS'variable_31'
p114
ag20
aS'func_6'
p115
ag6
aS'&'
p116
aS'variable_7'
p117
ag11
aS'variable_3'
p118
ag11
ag81
aS'm'
p119
ag81
ag17
ag24
aS'if'
p120
ag6
aS'func_7'
p121
ag6
aS'variable_31'
p122
ag17
ag17
aS'while'
p123
ag6
ag6
aS'variable_32'
p124
ag20
aS'func_8'
p125
ag6
ag116
aS'variable_33'
p126
ag11
aS'variable_7'
p127
aS'-'
p128
aS'1'
p129
ag11
aS'variable_3'
p130
ag11
ag116
aS'variable_8'
p131
ag17
ag17
aS'!='
p132
aS"'"
p133
aS'\\'
p134
ag72
ag133
ag17
aS'switch'
p135
ag6
aS'variable_32'
p136
ag17
aS'if'
p137
ag6
ag84
aS'func_9'
p138
ag6
aS'variable_8'
p139
ag11
aS'variable_1'
p140
ag17
ag17
aS'variable_1'
p141
aS'->'
p142
aS'variable_34'
p143
ag20
aS'variable_35'
p144
ag24
aS'variable_1'
p145
aS'->'
p146
aS'variable_36'
p147
ag20
aS'variable_35'
p148
ag24
aS'while'
p149
ag6
ag84
aS'func_10'
p150
ag6
aS'variable_31'
p151
ag17
ag17
aS'int'
p152
aS'variable_37'
p153
ag20
aS'variable_21'
p154
ag24
aS'int'
p155
aS'variable_38'
p156
ag20
aS'variable_21'
p157
ag24
aS'int'
p158
aS'variable_39'
p159
ag20
aS'variable_21'
p160
ag24
aS'int'
p161
aS'variable_40'
p162
ag20
aS'variable_21'
p163
ag24
aS'char'
p164
aS'variable_41'
p165
ag75
aS'5'
p166
ag77
ag20
ag72
ag11
aS'int'
p167
aS'variable_42'
p168
ag24
aS'variable_23'
p169
ag20
ag72
ag24
aS'variable_43'
p170
ag20
ag128
ag129
ag24
aS'variable_44'
p171
ag20
aS'variable_31'
p172
ag24
aS'variable_33'
p173
ag20
aS'variable_7'
p174
ag24
aS'variable_31'
p175
ag20
aS'func_11'
p176
ag6
ag116
aS'variable_7'
p177
ag11
aS'variable_3'
p178
ag11
ag81
ag119
ag81
ag17
ag24
aS'if'
p179
ag6
aS'strncmp'
p180
ag6
aS'variable_44'
p181
ag11
ag81
aS'audio'
p182
ag81
ag11
aS'6'
p183
ag17
aS'=='
p184
ag72
ag17
aS'if'
p185
ag6
ag6
aS'sscanf'
p186
ag6
aS'variable_44'
p187
ag11
ag81
aS'audio'
p188
aS'%'
p189
aS'30u'
p190
aS'/'
p191
ag189
aS'30u'
p192
aS'RTP'
p193
ag191
ag189
aS'4s'
p194
ag189
aS'n'
p195
ag81
ag11
ag116
aS'variable_42'
p196
ag11
ag116
aS'variable_23'
p197
ag11
aS'variable_41'
p198
ag11
ag116
aS'variable_43'
p199
ag17
aS'=='
p200
aS'3'
p201
aS'&&'
p202
aS'variable_43'
p203
aS'>'
p204
ag72
ag17
aS'||'
p205
ag6
aS'sscanf'
p206
ag6
aS'variable_44'
p207
ag11
ag81
aS'audio'
p208
ag189
aS'30u'
p209
aS'RTP'
p210
ag191
ag189
aS'4s'
p211
ag189
ag195
ag81
ag11
ag116
aS'variable_42'
p212
ag11
aS'variable_41'
p213
ag11
ag116
aS'variable_43'
p214
ag17
aS'=='
p215
aS'2'
p216
aS'&&'
p217
aS'variable_43'
p218
ag204
ag72
ag17
ag17
aS'if'
p219
ag6
aS'variable_42'
p220
aS'=='
p221
ag72
ag17
aS'if'
p222
ag6
ag84
aS'strcmp'
p223
ag6
aS'variable_41'
p224
ag11
ag81
aS'SAVP'
p225
ag81
ag17
ag17
aS'variable_20'
p226
ag20
ag129
ag24
aS'if'
p227
ag6
aS'strcmp'
p228
ag6
aS'variable_41'
p229
ag11
ag81
aS'AVP'
p230
ag81
ag17
ag17
aS'if'
p231
ag6
aS'variable_1'
p232
aS'->'
p233
aS'variable_30'
p234
ag75
aS'variable_45'
p235
ag77
aS'.'
p236
aS'variable_46'
p237
ag17
aS'variable_37'
p238
ag20
aS'variable_35'
p239
ag24
aS'variable_1'
p240
aS'->'
p241
aS'variable_30'
p242
ag75
aS'variable_45'
p243
ag77
ag236
aS'variable_46'
p244
ag20
aS'++'
p245
aS'variable_24'
p246
ag24
aS'variable_18'
p247
ag20
aS'variable_44'
p248
aS'+'
p249
aS'variable_43'
p250
ag24
aS'for'
p251
ag6
ag24
ag84
aS'func_12'
p252
ag6
aS'variable_18'
p253
ag17
ag24
aS'variable_18'
p254
ag20
aS'func_13'
p255
ag6
aS'variable_18'
p256
ag249
aS'variable_43'
p257
ag17
ag17
aS'if'
p258
ag6
aS'sscanf'
p259
ag6
aS'variable_18'
p260
ag11
ag81
ag189
aS'30u'
p261
ag189
ag195
ag81
ag11
ag116
aS'variable_19'
p262
ag11
ag116
aS'variable_43'
p263
ag17
aS'!='
p264
ag129
ag17
aS'if'
p265
ag6
aS'strncmp'
p266
ag6
aS'variable_44'
p267
ag11
ag81
aS'video'
p268
ag81
ag11
ag183
ag17
aS'=='
p269
ag72
ag17
aS'if'
p270
ag6
ag6
aS'sscanf'
p271
ag6
aS'variable_44'
p272
ag11
ag81
aS'video'
p273
ag189
aS'30u'
p274
ag191
ag189
aS'30u'
p275
aS'RTP'
p276
ag191
ag189
aS'4s'
p277
ag189
ag195
ag81
ag11
ag116
aS'variable_42'
p278
ag11
ag116
aS'variable_23'
p279
ag11
aS'variable_41'
p280
ag11
ag116
aS'variable_43'
p281
ag17
aS'=='
p282
ag201
aS'&&'
p283
aS'variable_43'
p284
ag204
ag72
ag17
aS'||'
p285
ag6
aS'sscanf'
p286
ag6
aS'variable_44'
p287
ag11
ag81
aS'video'
p288
ag189
aS'30u'
p289
aS'RTP'
p290
ag191
ag189
aS'4s'
p291
ag189
ag195
ag81
ag11
ag116
aS'variable_42'
p292
ag11
aS'variable_41'
p293
ag11
ag116
aS'variable_43'
p294
ag17
aS'=='
p295
ag216
aS'&&'
p296
aS'variable_43'
p297
ag204
ag72
ag17
ag17
aS'if'
p298
ag6
aS'variable_42'
p299
aS'=='
p300
ag72
ag17
aS'if'
p301
ag6
ag84
aS'strcmp'
p302
ag6
aS'variable_41'
p303
ag11
ag81
aS'SAVP'
p304
ag81
ag17
ag17
aS'variable_22'
p305
ag20
ag129
ag24
aS'if'
p306
ag6
aS'strcmp'
p307
ag6
aS'variable_41'
p308
ag11
ag81
aS'AVP'
p309
ag81
ag17
ag17
aS'if'
p310
ag6
aS'variable_1'
p311
aS'->'
p312
aS'variable_30'
p313
ag75
aS'variable_47'
p314
ag77
ag236
aS'variable_46'
p315
ag17
aS'variable_38'
p316
ag20
aS'variable_35'
p317
ag24
aS'variable_1'
p318
aS'->'
p319
aS'variable_34'
p320
ag20
aS'variable_21'
p321
ag24
aS'variable_1'
p322
aS'->'
p323
aS'variable_30'
p324
ag75
aS'variable_47'
p325
ag77
ag236
aS'variable_46'
p326
ag20
aS'++'
p327
aS'variable_24'
p328
ag24
aS'variable_18'
p329
ag20
aS'variable_44'
p330
ag249
aS'variable_43'
p331
ag24
aS'for'
p332
ag6
ag24
ag84
aS'func_14'
p333
ag6
aS'variable_18'
p334
ag17
ag24
aS'variable_18'
p335
ag20
aS'func_15'
p336
ag6
aS'variable_18'
p337
ag249
aS'variable_43'
p338
ag17
ag17
aS'if'
p339
ag6
aS'sscanf'
p340
ag6
aS'variable_18'
p341
ag11
ag81
ag189
aS'30u'
p342
ag189
ag195
ag81
ag11
ag116
aS'variable_19'
p343
ag11
ag116
aS'variable_43'
p344
ag17
aS'!='
p345
ag129
ag17
aS'if'
p346
ag6
aS'strncmp'
p347
ag6
aS'variable_44'
p348
ag11
ag81
aS'text'
p349
ag81
ag11
ag166
ag17
aS'=='
p350
ag72
ag17
aS'if'
p351
ag6
ag6
aS'sscanf'
p352
ag6
aS'variable_44'
p353
ag11
ag81
aS'text'
p354
ag189
aS'30u'
p355
ag191
ag189
aS'30u'
p356
aS'RTP'
p357
ag191
aS'AVP'
p358
ag189
ag195
ag81
ag11
ag116
aS'variable_42'
p359
ag11
ag116
aS'variable_23'
p360
ag11
ag116
aS'variable_43'
p361
ag17
aS'=='
p362
ag216
aS'&&'
p363
aS'variable_43'
p364
ag204
ag72
ag17
aS'||'
p365
ag6
aS'sscanf'
p366
ag6
aS'variable_44'
p367
ag11
ag81
aS'text'
p368
ag189
aS'30u'
p369
aS'RTP'
p370
ag191
aS'AVP'
p371
ag189
ag195
ag81
ag11
ag116
aS'variable_42'
p372
ag11
ag116
aS'variable_43'
p373
ag17
aS'=='
p374
ag129
aS'&&'
p375
aS'variable_43'
p376
ag204
ag72
ag17
ag17
aS'if'
p377
ag6
aS'variable_42'
p378
aS'=='
p379
ag72
ag17
aS'if'
p380
ag6
aS'variable_1'
p381
aS'->'
p382
aS'variable_30'
p383
ag75
aS'variable_48'
p384
ag77
ag236
aS'variable_46'
p385
ag17
aS'variable_39'
p386
ag20
aS'variable_35'
p387
ag24
aS'variable_1'
p388
aS'->'
p389
aS'variable_36'
p390
ag20
aS'variable_21'
p391
ag24
aS'variable_1'
p392
aS'->'
p393
aS'variable_30'
p394
ag75
aS'variable_48'
p395
ag77
ag236
aS'variable_46'
p396
ag20
aS'++'
p397
aS'variable_24'
p398
ag24
aS'variable_18'
p399
ag20
aS'variable_44'
p400
ag249
aS'variable_43'
p401
ag24
aS'for'
p402
ag6
ag24
ag84
aS'func_16'
p403
ag6
aS'variable_18'
p404
ag17
ag24
aS'variable_18'
p405
ag20
aS'func_17'
p406
ag6
aS'variable_18'
p407
ag249
aS'variable_43'
p408
ag17
ag17
aS'if'
p409
ag6
aS'sscanf'
p410
ag6
aS'variable_18'
p411
ag11
ag81
ag189
aS'30u'
p412
ag189
ag195
ag81
ag11
ag116
aS'variable_19'
p413
ag11
ag116
aS'variable_43'
p414
ag17
aS'!='
p415
ag129
ag17
aS'func_18'
p416
ag6
ag81
aS'Found'
p417
aS'RTP'
p418
aS'text'
p419
aS'format'
p420
ag189
aS'd'
p421
ag134
ag195
ag81
ag11
aS'variable_19'
p422
ag17
ag24
aS'func_19'
p423
ag6
ag116
aS'variable_15'
p424
ag11
aS'NULL'
p425
ag11
aS'variable_19'
p426
ag17
ag24
aS'if'
p427
ag6
aS'strncmp'
p428
ag6
aS'variable_44'
p429
ag11
ag81
aS'image'
p430
ag81
ag11
ag183
ag17
aS'=='
p431
ag72
ag17
aS'if'
p432
ag6
ag6
aS'sscanf'
p433
ag6
aS'variable_44'
p434
ag11
ag81
aS'image'
p435
ag189
aS'30u'
p436
aS'udptl'
p437
aS't38'
p438
ag189
ag195
ag81
ag11
ag116
aS'variable_42'
p439
ag11
ag116
aS'variable_43'
p440
ag17
aS'=='
p441
ag129
aS'&&'
p442
aS'variable_43'
p443
ag204
ag72
ag17
aS'||'
p444
ag6
aS'sscanf'
p445
ag6
aS'variable_44'
p446
ag11
ag81
aS'image'
p447
ag189
aS'30u'
p448
aS'UDPTL'
p449
aS't38'
p450
ag189
ag195
ag81
ag11
ag116
aS'variable_42'
p451
ag11
ag116
aS'variable_43'
p452
ag17
aS'=='
p453
ag129
aS'&&'
p454
aS'variable_43'
p455
ag204
ag72
ag17
ag17
aS'if'
p456
ag6
aS'variable_42'
p457
aS'=='
p458
ag72
ag17
aS'if'
p459
ag6
aS'func_20'
p460
ag6
aS'variable_1'
p461
ag17
ag17
aS'if'
p462
ag6
aS'variable_1'
p463
aS'->'
p464
aS'variable_30'
p465
ag75
aS'variable_49'
p466
ag77
ag236
aS'variable_46'
p467
ag17
aS'variable_1'
p468
aS'->'
p469
aS'variable_30'
p470
ag75
aS'variable_49'
p471
ag77
ag236
aS'variable_46'
p472
ag20
aS'++'
p473
aS'variable_24'
p474
ag24
aS'while'
p475
ag6
ag6
aS'variable_32'
p476
ag20
aS'func_21'
p477
ag6
ag116
aS'variable_33'
p478
ag11
aS'variable_7'
p479
ag128
ag129
ag11
aS'variable_3'
p480
ag11
ag116
aS'variable_8'
p481
ag17
ag17
aS'!='
p482
ag133
ag134
ag72
ag133
ag17
aS'switch'
p483
ag6
aS'variable_32'
p484
ag17
aS'if'
p485
ag6
aS'variable_37'
p486
ag17
aS'if'
p487
ag6
aS'func_22'
p488
ag6
aS'variable_8'
p489
ag11
ag116
aS'variable_50'
p490
ag17
ag17
aS'if'
p491
ag6
ag84
aS'variable_40'
p492
aS'&&'
p493
aS'func_23'
p494
ag6
aS'variable_1'
p495
ag11
aS'variable_1'
p496
aS'->'
p497
aS'variable_27'
p498
ag11
ag116
aS'variable_1'
p499
aS'->'
p500
aS'variable_51'
p501
ag11
aS'variable_8'
p502
ag17
ag17
aS'variable_40'
p503
ag20
aS'variable_35'
p504
ag24
aS'if'
p505
ag6
aS'variable_38'
p506
ag17
aS'if'
p507
ag6
ag84
aS'variable_40'
p508
aS'&&'
p509
aS'func_24'
p510
ag6
aS'variable_1'
p511
ag11
aS'variable_1'
p512
aS'->'
p513
aS'variable_52'
p514
ag11
ag116
aS'variable_1'
p515
aS'->'
p516
aS'variable_53'
p517
ag11
aS'variable_8'
p518
ag17
ag17
aS'variable_40'
p519
ag20
aS'variable_35'
p520
ag24
aS'if'
p521
ag6
aS'variable_39'
p522
ag17
aS'if'
p523
ag6
aS'func_25'
p524
ag6
aS'variable_8'
p525
ag11
aS'variable_1'
p526
ag11
ag116
aS'variable_15'
p527
ag11
aS'variable_26'
p528
ag11
ag116
aS'variable_54'
p529
ag11
aS'variable_25'
p530
ag11
ag116
aS'variable_55'
p531
ag17
ag17
aS'if'
p532
ag6
ag84
aS'variable_40'
p533
aS'&&'
p534
aS'func_26'
p535
ag6
aS'variable_1'
p536
ag11
aS'variable_1'
p537
aS'->'
p538
aS'variable_56'
p539
ag11
ag116
aS'variable_1'
p540
aS'->'
p541
aS'variable_57'
p542
ag11
aS'variable_8'
p543
ag17
ag17
aS'variable_40'
p544
ag20
aS'variable_35'
p545
ag24
aS'if'
p546
ag6
aS'variable_37'
p547
aS'&&'
p548
aS'variable_20'
p549
aS'&&'
p550
ag84
aS'variable_40'
p551
ag17
aS'if'
p552
ag6
aS'variable_38'
p553
aS'&&'
p554
aS'variable_22'
p555
aS'&&'
p556
ag84
aS'variable_40'
p557
ag17
aa(lp558
S'static'
p559
aS'int'
p560
aS'func_0'
p561
ag6
aS'struct'
p562
aS'variable_0'
p563
ag9
aS'variable_1'
p564
ag11
aS'struct'
p565
aS'variable_2'
p566
ag9
aS'variable_3'
p567
ag11
aS'int'
p568
aS'variable_4'
p569
ag17
aS'int'
p570
aS'variable_5'
p571
ag20
aS'variable_3'
p572
aS'->'
p573
aS'variable_6'
p574
ag24
aS'int'
p575
aS'variable_7'
p576
ag20
aS'variable_5'
p577
ag24
aS'const'
p578
aS'char'
p579
ag9
aS'variable_8'
p580
ag20
aS'NULL'
p581
ag24
aS'struct'
p582
aS'variable_9'
p583
ag9
aS'variable_10'
p584
ag20
aS'func_1'
p585
ag6
ag17
ag24
aS'struct'
p586
aS'variable_9'
p587
ag9
aS'variable_11'
p588
ag20
aS'func_2'
p589
ag6
ag17
ag24
aS'struct'
p590
aS'variable_9'
p591
ag9
aS'variable_12'
p592
ag20
aS'func_3'
p593
ag6
ag17
ag24
aS'struct'
p594
aS'ast_rtp_codecs'
p595
aS'variable_13'
p596
ag11
aS'variable_14'
p597
ag11
aS'variable_15'
p598
ag24
aS'struct'
p599
aS'variable_9'
p600
ag9
aS'variable_16'
p601
ag20
aS'func_4'
p602
ag6
ag17
ag24
aS'struct'
p603
aS'variable_9'
p604
ag9
aS'variable_17'
p605
ag20
aS'func_5'
p606
ag6
ag17
ag24
aS'const'
p607
aS'char'
p608
ag9
aS'variable_18'
p609
ag24
aS'int'
p610
aS'variable_19'
p611
ag24
aS'int'
p612
aS'variable_20'
p613
ag20
aS'variable_21'
p614
ag24
aS'int'
p615
aS'variable_22'
p616
ag20
aS'variable_21'
p617
ag24
aS'int'
p618
aS'variable_23'
p619
ag24
aS'int'
p620
aS'variable_24'
p621
ag20
ag72
ag24
aS'int'
p622
aS'variable_25'
p623
ag75
aS'10'
p624
ag77
ag24
aS'char'
p625
aS'variable_26'
p626
ag75
aS'100'
p627
ag77
ag20
ag81
aS'empty'
p628
ag81
ag24
aS'if'
p629
ag6
ag84
aS'variable_1'
p630
aS'->'
p631
aS'variable_27'
p632
ag17
aS'if'
p633
ag6
ag84
aS'variable_10'
p634
aS'||'
p635
ag84
aS'variable_11'
p636
aS'||'
p637
ag84
aS'variable_12'
p638
aS'||'
p639
ag84
aS'variable_17'
p640
aS'||'
p641
ag84
aS'variable_16'
p642
ag17
aS'variable_1'
p643
aS'->'
p644
aS'variable_28'
p645
ag20
aS'variable_1'
p646
aS'->'
p647
aS'variable_29'
p648
ag20
aS'time'
p649
ag6
aS'NULL'
p650
ag17
ag24
aS'memset'
p651
ag6
aS'variable_1'
p652
aS'->'
p653
aS'variable_30'
p654
ag11
ag72
ag11
aS'sizeof'
p655
ag6
aS'variable_1'
p656
aS'->'
p657
aS'variable_30'
p658
ag17
ag17
ag24
aS'variable_31'
p659
ag20
aS'func_6'
p660
ag6
ag116
aS'variable_7'
p661
ag11
aS'variable_3'
p662
ag11
ag81
ag119
ag81
ag17
ag24
aS'if'
p663
ag6
aS'func_7'
p664
ag6
aS'variable_31'
p665
ag17
ag17
aS'while'
p666
ag6
ag6
aS'variable_32'
p667
ag20
aS'func_8'
p668
ag6
ag116
aS'variable_33'
p669
ag11
aS'variable_7'
p670
ag128
ag129
ag11
aS'variable_3'
p671
ag11
ag116
aS'variable_8'
p672
ag17
ag17
aS'!='
p673
ag133
ag134
ag72
ag133
ag17
aS'switch'
p674
ag6
aS'variable_32'
p675
ag17
aS'if'
p676
ag6
ag84
aS'func_9'
p677
ag6
aS'variable_8'
p678
ag11
aS'variable_1'
p679
ag17
ag17
aS'variable_1'
p680
aS'->'
p681
aS'variable_34'
p682
ag20
aS'variable_35'
p683
ag24
aS'variable_1'
p684
aS'->'
p685
aS'variable_36'
p686
ag20
aS'variable_35'
p687
ag24
aS'while'
p688
ag6
ag84
aS'func_10'
p689
ag6
aS'variable_31'
p690
ag17
ag17
aS'int'
p691
aS'variable_37'
p692
ag20
aS'variable_21'
p693
ag24
aS'int'
p694
aS'variable_38'
p695
ag20
aS'variable_21'
p696
ag24
aS'int'
p697
aS'variable_39'
p698
ag20
aS'variable_21'
p699
ag24
aS'int'
p700
aS'variable_40'
p701
ag20
aS'variable_21'
p702
ag24
aS'char'
p703
aS'variable_41'
p704
ag75
ag166
ag77
ag20
ag72
ag11
aS'int'
p705
aS'variable_42'
p706
ag24
aS'variable_23'
p707
ag20
ag72
ag24
aS'variable_43'
p708
ag20
ag128
ag129
ag24
aS'variable_44'
p709
ag20
aS'variable_31'
p710
ag24
aS'variable_33'
p711
ag20
aS'variable_7'
p712
ag24
aS'variable_31'
p713
ag20
aS'func_11'
p714
ag6
ag116
aS'variable_7'
p715
ag11
aS'variable_3'
p716
ag11
ag81
ag119
ag81
ag17
ag24
aS'if'
p717
ag6
aS'strncmp'
p718
ag6
aS'variable_44'
p719
ag11
ag81
aS'audio'
p720
ag81
ag11
ag183
ag17
aS'=='
p721
ag72
ag17
aS'if'
p722
ag6
ag6
aS'sscanf'
p723
ag6
aS'variable_44'
p724
ag11
ag81
aS'audio'
p725
ag189
aS'30u'
p726
ag191
ag189
aS'30u'
p727
aS'RTP'
p728
ag191
ag189
aS'4s'
p729
ag189
ag195
ag81
ag11
ag116
aS'variable_42'
p730
ag11
ag116
aS'variable_23'
p731
ag11
aS'variable_41'
p732
ag11
ag116
aS'variable_43'
p733
ag17
aS'=='
p734
ag201
aS'&&'
p735
aS'variable_43'
p736
ag204
ag72
ag17
aS'||'
p737
ag6
aS'sscanf'
p738
ag6
aS'variable_44'
p739
ag11
ag81
aS'audio'
p740
ag189
aS'30u'
p741
aS'RTP'
p742
ag191
ag189
aS'4s'
p743
ag189
ag195
ag81
ag11
ag116
aS'variable_42'
p744
ag11
aS'variable_41'
p745
ag11
ag116
aS'variable_43'
p746
ag17
aS'=='
p747
ag216
aS'&&'
p748
aS'variable_43'
p749
ag204
ag72
ag17
ag17
aS'if'
p750
ag6
aS'variable_42'
p751
aS'=='
p752
ag72
ag17
aS'if'
p753
ag6
ag84
aS'strcmp'
p754
ag6
aS'variable_41'
p755
ag11
ag81
aS'SAVP'
p756
ag81
ag17
ag17
aS'variable_20'
p757
ag20
ag129
ag24
aS'if'
p758
ag6
aS'strcmp'
p759
ag6
aS'variable_41'
p760
ag11
ag81
aS'AVP'
p761
ag81
ag17
ag17
aS'if'
p762
ag6
aS'variable_1'
p763
aS'->'
p764
aS'variable_30'
p765
ag75
aS'variable_45'
p766
ag77
ag236
aS'variable_46'
p767
ag17
aS'variable_37'
p768
ag20
aS'variable_35'
p769
ag24
aS'variable_1'
p770
aS'->'
p771
aS'variable_30'
p772
ag75
aS'variable_45'
p773
ag77
ag236
aS'variable_46'
p774
ag20
aS'++'
p775
aS'variable_24'
p776
ag24
aS'variable_18'
p777
ag20
aS'variable_44'
p778
ag249
aS'variable_43'
p779
ag24
aS'for'
p780
ag6
ag24
ag84
aS'func_12'
p781
ag6
aS'variable_18'
p782
ag17
ag24
aS'variable_18'
p783
ag20
aS'func_13'
p784
ag6
aS'variable_18'
p785
ag249
aS'variable_43'
p786
ag17
ag17
aS'if'
p787
ag6
aS'sscanf'
p788
ag6
aS'variable_18'
p789
ag11
ag81
ag189
aS'30u'
p790
ag189
ag195
ag81
ag11
ag116
aS'variable_19'
p791
ag11
ag116
aS'variable_43'
p792
ag17
aS'!='
p793
ag129
ag17
aS'if'
p794
ag6
aS'strncmp'
p795
ag6
aS'variable_44'
p796
ag11
ag81
aS'video'
p797
ag81
ag11
ag183
ag17
aS'=='
p798
ag72
ag17
aS'if'
p799
ag6
ag6
aS'sscanf'
p800
ag6
aS'variable_44'
p801
ag11
ag81
aS'video'
p802
ag189
aS'30u'
p803
ag191
ag189
aS'30u'
p804
aS'RTP'
p805
ag191
ag189
aS'4s'
p806
ag189
ag195
ag81
ag11
ag116
aS'variable_42'
p807
ag11
ag116
aS'variable_23'
p808
ag11
aS'variable_41'
p809
ag11
ag116
aS'variable_43'
p810
ag17
aS'=='
p811
ag201
aS'&&'
p812
aS'variable_43'
p813
ag204
ag72
ag17
aS'||'
p814
ag6
aS'sscanf'
p815
ag6
aS'variable_44'
p816
ag11
ag81
aS'video'
p817
ag189
aS'30u'
p818
aS'RTP'
p819
ag191
ag189
aS'4s'
p820
ag189
ag195
ag81
ag11
ag116
aS'variable_42'
p821
ag11
aS'variable_41'
p822
ag11
ag116
aS'variable_43'
p823
ag17
aS'=='
p824
ag216
aS'&&'
p825
aS'variable_43'
p826
ag204
ag72
ag17
ag17
aS'if'
p827
ag6
aS'variable_42'
p828
aS'=='
p829
ag72
ag17
aS'if'
p830
ag6
ag84
aS'strcmp'
p831
ag6
aS'variable_41'
p832
ag11
ag81
aS'SAVP'
p833
ag81
ag17
ag17
aS'variable_22'
p834
ag20
ag129
ag24
aS'if'
p835
ag6
aS'strcmp'
p836
ag6
aS'variable_41'
p837
ag11
ag81
aS'AVP'
p838
ag81
ag17
ag17
aS'if'
p839
ag6
aS'variable_1'
p840
aS'->'
p841
aS'variable_30'
p842
ag75
aS'variable_47'
p843
ag77
ag236
aS'variable_46'
p844
ag17
aS'variable_38'
p845
ag20
aS'variable_35'
p846
ag24
aS'variable_1'
p847
aS'->'
p848
aS'variable_34'
p849
ag20
aS'variable_21'
p850
ag24
aS'variable_1'
p851
aS'->'
p852
aS'variable_30'
p853
ag75
aS'variable_47'
p854
ag77
ag236
aS'variable_46'
p855
ag20
aS'++'
p856
aS'variable_24'
p857
ag24
aS'variable_18'
p858
ag20
aS'variable_44'
p859
ag249
aS'variable_43'
p860
ag24
aS'for'
p861
ag6
ag24
ag84
aS'func_14'
p862
ag6
aS'variable_18'
p863
ag17
ag24
aS'variable_18'
p864
ag20
aS'func_15'
p865
ag6
aS'variable_18'
p866
ag249
aS'variable_43'
p867
ag17
ag17
aS'if'
p868
ag6
aS'sscanf'
p869
ag6
aS'variable_18'
p870
ag11
ag81
ag189
aS'30u'
p871
ag189
ag195
ag81
ag11
ag116
aS'variable_19'
p872
ag11
ag116
aS'variable_43'
p873
ag17
aS'!='
p874
ag129
ag17
aS'func_16'
p875
ag6
ag81
aS'Found'
p876
aS'RTP'
p877
aS'video'
p878
aS'format'
p879
ag189
ag421
ag134
ag195
ag81
ag11
aS'variable_19'
p880
ag17
ag24
aS'func_17'
p881
ag6
ag116
aS'variable_14'
p882
ag11
aS'NULL'
p883
ag11
aS'variable_19'
p884
ag17
ag24
aS'if'
p885
ag6
aS'strncmp'
p886
ag6
aS'variable_44'
p887
ag11
ag81
aS'text'
p888
ag81
ag11
ag166
ag17
aS'=='
p889
ag72
ag17
aS'if'
p890
ag6
ag6
aS'sscanf'
p891
ag6
aS'variable_44'
p892
ag11
ag81
aS'text'
p893
ag189
aS'30u'
p894
ag191
ag189
aS'30u'
p895
aS'RTP'
p896
ag191
aS'AVP'
p897
ag189
ag195
ag81
ag11
ag116
aS'variable_42'
p898
ag11
ag116
aS'variable_23'
p899
ag11
ag116
aS'variable_43'
p900
ag17
aS'=='
p901
ag216
aS'&&'
p902
aS'variable_43'
p903
ag204
ag72
ag17
aS'||'
p904
ag6
aS'sscanf'
p905
ag6
aS'variable_44'
p906
ag11
ag81
aS'text'
p907
ag189
aS'30u'
p908
aS'RTP'
p909
ag191
aS'AVP'
p910
ag189
ag195
ag81
ag11
ag116
aS'variable_42'
p911
ag11
ag116
aS'variable_43'
p912
ag17
aS'=='
p913
ag129
aS'&&'
p914
aS'variable_43'
p915
ag204
ag72
ag17
ag17
aS'if'
p916
ag6
aS'variable_42'
p917
aS'=='
p918
ag72
ag17
aS'if'
p919
ag6
aS'variable_1'
p920
aS'->'
p921
aS'variable_30'
p922
ag75
aS'variable_48'
p923
ag77
ag236
aS'variable_46'
p924
ag17
aS'variable_39'
p925
ag20
aS'variable_35'
p926
ag24
aS'variable_1'
p927
aS'->'
p928
aS'variable_36'
p929
ag20
aS'variable_21'
p930
ag24
aS'variable_1'
p931
aS'->'
p932
aS'variable_30'
p933
ag75
aS'variable_48'
p934
ag77
ag236
aS'variable_46'
p935
ag20
aS'++'
p936
aS'variable_24'
p937
ag24
aS'variable_18'
p938
ag20
aS'variable_44'
p939
ag249
aS'variable_43'
p940
ag24
aS'for'
p941
ag6
ag24
ag84
aS'func_18'
p942
ag6
aS'variable_18'
p943
ag17
ag24
aS'variable_18'
p944
ag20
aS'func_19'
p945
ag6
aS'variable_18'
p946
ag249
aS'variable_43'
p947
ag17
ag17
aS'if'
p948
ag6
aS'sscanf'
p949
ag6
aS'variable_18'
p950
ag11
ag81
ag189
aS'30u'
p951
ag189
ag195
ag81
ag11
ag116
aS'variable_19'
p952
ag11
ag116
aS'variable_43'
p953
ag17
aS'!='
p954
ag129
ag17
aS'if'
p955
ag6
aS'strncmp'
p956
ag6
aS'variable_44'
p957
ag11
ag81
aS'image'
p958
ag81
ag11
ag183
ag17
aS'=='
p959
ag72
ag17
aS'if'
p960
ag6
ag6
aS'sscanf'
p961
ag6
aS'variable_44'
p962
ag11
ag81
aS'image'
p963
ag189
aS'30u'
p964
aS'udptl'
p965
aS't38'
p966
ag189
ag195
ag81
ag11
ag116
aS'variable_42'
p967
ag11
ag116
aS'variable_43'
p968
ag17
aS'=='
p969
ag129
aS'&&'
p970
aS'variable_43'
p971
ag204
ag72
ag17
aS'||'
p972
ag6
aS'sscanf'
p973
ag6
aS'variable_44'
p974
ag11
ag81
aS'image'
p975
ag189
aS'30u'
p976
aS'UDPTL'
p977
aS't38'
p978
ag189
ag195
ag81
ag11
ag116
aS'variable_42'
p979
ag11
ag116
aS'variable_43'
p980
ag17
aS'=='
p981
ag129
aS'&&'
p982
aS'variable_43'
p983
ag204
ag72
ag17
ag17
aS'if'
p984
ag6
aS'variable_42'
p985
aS'=='
p986
ag72
ag17
aS'if'
p987
ag6
aS'func_20'
p988
ag6
aS'variable_1'
p989
ag17
ag17
aS'if'
p990
ag6
aS'variable_1'
p991
aS'->'
p992
aS'variable_30'
p993
ag75
aS'variable_49'
p994
ag77
ag236
aS'variable_46'
p995
ag17
aS'variable_1'
p996
aS'->'
p997
aS'variable_30'
p998
ag75
aS'variable_49'
p999
ag77
ag236
aS'variable_46'
p1000
ag20
aS'++'
p1001
aS'variable_24'
p1002
ag24
aS'while'
p1003
ag6
ag6
aS'variable_32'
p1004
ag20
aS'func_21'
p1005
ag6
ag116
aS'variable_33'
p1006
ag11
aS'variable_7'
p1007
ag128
ag129
ag11
aS'variable_3'
p1008
ag11
ag116
aS'variable_8'
p1009
ag17
ag17
aS'!='
p1010
ag133
ag134
ag72
ag133
ag17
aS'switch'
p1011
ag6
aS'variable_32'
p1012
ag17
aS'if'
p1013
ag6
aS'variable_37'
p1014
ag17
aS'if'
p1015
ag6
aS'func_22'
p1016
ag6
aS'variable_8'
p1017
ag11
ag116
aS'variable_50'
p1018
ag17
ag17
aS'if'
p1019
ag6
ag84
aS'variable_40'
p1020
aS'&&'
p1021
aS'func_23'
p1022
ag6
aS'variable_1'
p1023
ag11
aS'variable_1'
p1024
aS'->'
p1025
aS'variable_27'
p1026
ag11
ag116
aS'variable_1'
p1027
aS'->'
p1028
aS'variable_51'
p1029
ag11
aS'variable_8'
p1030
ag17
ag17
aS'variable_40'
p1031
ag20
aS'variable_35'
p1032
ag24
aS'if'
p1033
ag6
aS'variable_38'
p1034
ag17
aS'if'
p1035
ag6
ag84
aS'variable_40'
p1036
aS'&&'
p1037
aS'func_24'
p1038
ag6
aS'variable_1'
p1039
ag11
aS'variable_1'
p1040
aS'->'
p1041
aS'variable_52'
p1042
ag11
ag116
aS'variable_1'
p1043
aS'->'
p1044
aS'variable_53'
p1045
ag11
aS'variable_8'
p1046
ag17
ag17
aS'variable_40'
p1047
ag20
aS'variable_35'
p1048
ag24
aS'if'
p1049
ag6
aS'variable_39'
p1050
ag17
aS'if'
p1051
ag6
aS'func_25'
p1052
ag6
aS'variable_8'
p1053
ag11
aS'variable_1'
p1054
ag11
ag116
aS'variable_15'
p1055
ag11
aS'variable_26'
p1056
ag11
ag116
aS'variable_54'
p1057
ag11
aS'variable_25'
p1058
ag11
ag116
aS'variable_55'
p1059
ag17
ag17
aS'if'
p1060
ag6
ag84
aS'variable_40'
p1061
aS'&&'
p1062
aS'func_26'
p1063
ag6
aS'variable_1'
p1064
ag11
aS'variable_1'
p1065
aS'->'
p1066
aS'variable_56'
p1067
ag11
ag116
aS'variable_1'
p1068
aS'->'
p1069
aS'variable_57'
p1070
ag11
aS'variable_8'
p1071
ag17
ag17
aS'variable_40'
p1072
ag20
aS'variable_35'
p1073
ag24
aS'if'
p1074
ag6
aS'variable_37'
p1075
aS'&&'
p1076
aS'variable_20'
p1077
aS'&&'
p1078
ag84
aS'variable_40'
p1079
ag17
aS'if'
p1080
ag6
aS'variable_38'
p1081
aS'&&'
p1082
aS'variable_22'
p1083
aS'&&'
p1084
ag84
aS'variable_40'
p1085
ag17
aa(lp1086
S'static'
p1087
aS'int'
p1088
aS'func_0'
p1089
ag6
aS'struct'
p1090
aS'variable_0'
p1091
ag9
aS'variable_1'
p1092
ag11
aS'struct'
p1093
aS'variable_2'
p1094
ag9
aS'variable_3'
p1095
ag11
aS'int'
p1096
aS'variable_4'
p1097
ag17
aS'int'
p1098
aS'variable_5'
p1099
ag20
aS'variable_3'
p1100
aS'->'
p1101
aS'variable_6'
p1102
ag24
aS'int'
p1103
aS'variable_7'
p1104
ag20
aS'variable_5'
p1105
ag24
aS'const'
p1106
aS'char'
p1107
ag9
aS'variable_8'
p1108
ag20
aS'NULL'
p1109
ag24
aS'struct'
p1110
aS'variable_9'
p1111
ag9
aS'variable_10'
p1112
ag20
aS'func_1'
p1113
ag6
ag17
ag24
aS'struct'
p1114
aS'variable_9'
p1115
ag9
aS'variable_11'
p1116
ag20
aS'func_2'
p1117
ag6
ag17
ag24
aS'struct'
p1118
aS'variable_9'
p1119
ag9
aS'variable_12'
p1120
ag20
aS'func_3'
p1121
ag6
ag17
ag24
aS'struct'
p1122
aS'ast_rtp_codecs'
p1123
aS'variable_13'
p1124
ag11
aS'variable_14'
p1125
ag11
aS'variable_15'
p1126
ag24
aS'struct'
p1127
aS'variable_9'
p1128
ag9
aS'variable_16'
p1129
ag20
aS'func_4'
p1130
ag6
ag17
ag24
aS'struct'
p1131
aS'variable_9'
p1132
ag9
aS'variable_17'
p1133
ag20
aS'func_5'
p1134
ag6
ag17
ag24
aS'const'
p1135
aS'char'
p1136
ag9
aS'variable_18'
p1137
ag24
aS'int'
p1138
aS'variable_19'
p1139
ag24
aS'int'
p1140
aS'variable_20'
p1141
ag20
aS'variable_21'
p1142
ag24
aS'int'
p1143
aS'variable_22'
p1144
ag20
aS'variable_21'
p1145
ag24
aS'int'
p1146
aS'variable_23'
p1147
ag24
aS'int'
p1148
aS'variable_24'
p1149
ag20
ag72
ag24
aS'int'
p1150
aS'variable_25'
p1151
ag75
aS'10'
p1152
ag77
ag24
aS'char'
p1153
aS'variable_26'
p1154
ag75
aS'100'
p1155
ag77
ag20
ag81
aS'empty'
p1156
ag81
ag24
aS'if'
p1157
ag6
ag84
aS'variable_1'
p1158
aS'->'
p1159
aS'variable_27'
p1160
ag17
aS'if'
p1161
ag6
ag84
aS'variable_10'
p1162
aS'||'
p1163
ag84
aS'variable_11'
p1164
aS'||'
p1165
ag84
aS'variable_12'
p1166
aS'||'
p1167
ag84
aS'variable_17'
p1168
aS'||'
p1169
ag84
aS'variable_16'
p1170
ag17
aS'variable_1'
p1171
aS'->'
p1172
aS'variable_28'
p1173
ag20
aS'variable_1'
p1174
aS'->'
p1175
aS'variable_29'
p1176
ag20
aS'time'
p1177
ag6
aS'NULL'
p1178
ag17
ag24
aS'memset'
p1179
ag6
aS'variable_1'
p1180
aS'->'
p1181
aS'variable_30'
p1182
ag11
ag72
ag11
aS'sizeof'
p1183
ag6
aS'variable_1'
p1184
aS'->'
p1185
aS'variable_30'
p1186
ag17
ag17
ag24
aS'variable_31'
p1187
ag20
aS'func_6'
p1188
ag6
ag116
aS'variable_7'
p1189
ag11
aS'variable_3'
p1190
ag11
ag81
ag119
ag81
ag17
ag24
aS'if'
p1191
ag6
aS'func_7'
p1192
ag6
aS'variable_31'
p1193
ag17
ag17
aS'while'
p1194
ag6
ag6
aS'variable_32'
p1195
ag20
aS'func_8'
p1196
ag6
ag116
aS'variable_33'
p1197
ag11
aS'variable_7'
p1198
ag128
ag129
ag11
aS'variable_3'
p1199
ag11
ag116
aS'variable_8'
p1200
ag17
ag17
aS'!='
p1201
ag133
ag134
ag72
ag133
ag17
aS'switch'
p1202
ag6
aS'variable_32'
p1203
ag17
aS'if'
p1204
ag6
ag84
aS'func_9'
p1205
ag6
aS'variable_8'
p1206
ag11
aS'variable_1'
p1207
ag17
ag17
aS'variable_1'
p1208
aS'->'
p1209
aS'variable_34'
p1210
ag20
aS'variable_35'
p1211
ag24
aS'variable_1'
p1212
aS'->'
p1213
aS'variable_36'
p1214
ag20
aS'variable_35'
p1215
ag24
aS'while'
p1216
ag6
ag84
aS'func_10'
p1217
ag6
aS'variable_31'
p1218
ag17
ag17
aS'int'
p1219
aS'variable_37'
p1220
ag20
aS'variable_21'
p1221
ag24
aS'int'
p1222
aS'variable_38'
p1223
ag20
aS'variable_21'
p1224
ag24
aS'int'
p1225
aS'variable_39'
p1226
ag20
aS'variable_21'
p1227
ag24
aS'int'
p1228
aS'variable_40'
p1229
ag20
aS'variable_21'
p1230
ag24
aS'char'
p1231
aS'variable_41'
p1232
ag75
ag166
ag77
ag20
ag72
ag11
aS'int'
p1233
aS'variable_42'
p1234
ag24
aS'variable_23'
p1235
ag20
ag72
ag24
aS'variable_43'
p1236
ag20
ag128
ag129
ag24
aS'variable_44'
p1237
ag20
aS'variable_31'
p1238
ag24
aS'variable_33'
p1239
ag20
aS'variable_7'
p1240
ag24
aS'variable_31'
p1241
ag20
aS'func_11'
p1242
ag6
ag116
aS'variable_7'
p1243
ag11
aS'variable_3'
p1244
ag11
ag81
ag119
ag81
ag17
ag24
aS'if'
p1245
ag6
aS'strncmp'
p1246
ag6
aS'variable_44'
p1247
ag11
ag81
aS'audio'
p1248
ag81
ag11
ag183
ag17
aS'=='
p1249
ag72
ag17
aS'if'
p1250
ag6
ag6
aS'sscanf'
p1251
ag6
aS'variable_44'
p1252
ag11
ag81
aS'audio'
p1253
ag189
aS'30u'
p1254
ag191
ag189
aS'30u'
p1255
aS'RTP'
p1256
ag191
ag189
aS'4s'
p1257
ag189
ag195
ag81
ag11
ag116
aS'variable_42'
p1258
ag11
ag116
aS'variable_23'
p1259
ag11
aS'variable_41'
p1260
ag11
ag116
aS'variable_43'
p1261
ag17
aS'=='
p1262
ag201
aS'&&'
p1263
aS'variable_43'
p1264
ag204
ag72
ag17
aS'||'
p1265
ag6
aS'sscanf'
p1266
ag6
aS'variable_44'
p1267
ag11
ag81
aS'audio'
p1268
ag189
aS'30u'
p1269
aS'RTP'
p1270
ag191
ag189
aS'4s'
p1271
ag189
ag195
ag81
ag11
ag116
aS'variable_42'
p1272
ag11
aS'variable_41'
p1273
ag11
ag116
aS'variable_43'
p1274
ag17
aS'=='
p1275
ag216
aS'&&'
p1276
aS'variable_43'
p1277
ag204
ag72
ag17
ag17
aS'if'
p1278
ag6
aS'variable_42'
p1279
aS'=='
p1280
ag72
ag17
aS'if'
p1281
ag6
ag84
aS'strcmp'
p1282
ag6
aS'variable_41'
p1283
ag11
ag81
aS'SAVP'
p1284
ag81
ag17
ag17
aS'variable_20'
p1285
ag20
ag129
ag24
aS'if'
p1286
ag6
aS'strcmp'
p1287
ag6
aS'variable_41'
p1288
ag11
ag81
aS'AVP'
p1289
ag81
ag17
ag17
aS'if'
p1290
ag6
aS'variable_1'
p1291
aS'->'
p1292
aS'variable_30'
p1293
ag75
aS'variable_45'
p1294
ag77
ag236
aS'variable_46'
p1295
ag17
aS'variable_37'
p1296
ag20
aS'variable_35'
p1297
ag24
aS'variable_1'
p1298
aS'->'
p1299
aS'variable_30'
p1300
ag75
aS'variable_45'
p1301
ag77
ag236
aS'variable_46'
p1302
ag20
aS'++'
p1303
aS'variable_24'
p1304
ag24
aS'variable_18'
p1305
ag20
aS'variable_44'
p1306
ag249
aS'variable_43'
p1307
ag24
aS'for'
p1308
ag6
ag24
ag84
aS'func_12'
p1309
ag6
aS'variable_18'
p1310
ag17
ag24
aS'variable_18'
p1311
ag20
aS'func_13'
p1312
ag6
aS'variable_18'
p1313
ag249
aS'variable_43'
p1314
ag17
ag17
aS'if'
p1315
ag6
aS'sscanf'
p1316
ag6
aS'variable_18'
p1317
ag11
ag81
ag189
aS'30u'
p1318
ag189
ag195
ag81
ag11
ag116
aS'variable_19'
p1319
ag11
ag116
aS'variable_43'
p1320
ag17
aS'!='
p1321
ag129
ag17
aS'func_14'
p1322
ag6
ag81
aS'Found'
p1323
aS'RTP'
p1324
aS'audio'
p1325
aS'format'
p1326
ag189
ag421
ag134
ag195
ag81
ag11
aS'variable_19'
p1327
ag17
ag24
aS'func_15'
p1328
ag6
ag116
aS'variable_13'
p1329
ag11
aS'NULL'
p1330
ag11
aS'variable_19'
p1331
ag17
ag24
aS'if'
p1332
ag6
aS'strncmp'
p1333
ag6
aS'variable_44'
p1334
ag11
ag81
aS'video'
p1335
ag81
ag11
ag183
ag17
aS'=='
p1336
ag72
ag17
aS'if'
p1337
ag6
ag6
aS'sscanf'
p1338
ag6
aS'variable_44'
p1339
ag11
ag81
aS'video'
p1340
ag189
aS'30u'
p1341
ag191
ag189
aS'30u'
p1342
aS'RTP'
p1343
ag191
ag189
aS'4s'
p1344
ag189
ag195
ag81
ag11
ag116
aS'variable_42'
p1345
ag11
ag116
aS'variable_23'
p1346
ag11
aS'variable_41'
p1347
ag11
ag116
aS'variable_43'
p1348
ag17
aS'=='
p1349
ag201
aS'&&'
p1350
aS'variable_43'
p1351
ag204
ag72
ag17
aS'||'
p1352
ag6
aS'sscanf'
p1353
ag6
aS'variable_44'
p1354
ag11
ag81
aS'video'
p1355
ag189
aS'30u'
p1356
aS'RTP'
p1357
ag191
ag189
aS'4s'
p1358
ag189
ag195
ag81
ag11
ag116
aS'variable_42'
p1359
ag11
aS'variable_41'
p1360
ag11
ag116
aS'variable_43'
p1361
ag17
aS'=='
p1362
ag216
aS'&&'
p1363
aS'variable_43'
p1364
ag204
ag72
ag17
ag17
aS'if'
p1365
ag6
aS'variable_42'
p1366
aS'=='
p1367
ag72
ag17
aS'if'
p1368
ag6
ag84
aS'strcmp'
p1369
ag6
aS'variable_41'
p1370
ag11
ag81
aS'SAVP'
p1371
ag81
ag17
ag17
aS'variable_22'
p1372
ag20
ag129
ag24
aS'if'
p1373
ag6
aS'strcmp'
p1374
ag6
aS'variable_41'
p1375
ag11
ag81
aS'AVP'
p1376
ag81
ag17
ag17
aS'if'
p1377
ag6
aS'variable_1'
p1378
aS'->'
p1379
aS'variable_30'
p1380
ag75
aS'variable_47'
p1381
ag77
ag236
aS'variable_46'
p1382
ag17
aS'variable_38'
p1383
ag20
aS'variable_35'
p1384
ag24
aS'variable_1'
p1385
aS'->'
p1386
aS'variable_34'
p1387
ag20
aS'variable_21'
p1388
ag24
aS'variable_1'
p1389
aS'->'
p1390
aS'variable_30'
p1391
ag75
aS'variable_47'
p1392
ag77
ag236
aS'variable_46'
p1393
ag20
aS'++'
p1394
aS'variable_24'
p1395
ag24
aS'variable_18'
p1396
ag20
aS'variable_44'
p1397
ag249
aS'variable_43'
p1398
ag24
aS'for'
p1399
ag6
ag24
ag84
aS'func_16'
p1400
ag6
aS'variable_18'
p1401
ag17
ag24
aS'variable_18'
p1402
ag20
aS'func_17'
p1403
ag6
aS'variable_18'
p1404
ag249
aS'variable_43'
p1405
ag17
ag17
aS'if'
p1406
ag6
aS'sscanf'
p1407
ag6
aS'variable_18'
p1408
ag11
ag81
ag189
aS'30u'
p1409
ag189
ag195
ag81
ag11
ag116
aS'variable_19'
p1410
ag11
ag116
aS'variable_43'
p1411
ag17
aS'!='
p1412
ag129
ag17
aS'if'
p1413
ag6
aS'strncmp'
p1414
ag6
aS'variable_44'
p1415
ag11
ag81
aS'text'
p1416
ag81
ag11
ag166
ag17
aS'=='
p1417
ag72
ag17
aS'if'
p1418
ag6
ag6
aS'sscanf'
p1419
ag6
aS'variable_44'
p1420
ag11
ag81
aS'text'
p1421
ag189
aS'30u'
p1422
ag191
ag189
aS'30u'
p1423
aS'RTP'
p1424
ag191
aS'AVP'
p1425
ag189
ag195
ag81
ag11
ag116
aS'variable_42'
p1426
ag11
ag116
aS'variable_23'
p1427
ag11
ag116
aS'variable_43'
p1428
ag17
aS'=='
p1429
ag216
aS'&&'
p1430
aS'variable_43'
p1431
ag204
ag72
ag17
aS'||'
p1432
ag6
aS'sscanf'
p1433
ag6
aS'variable_44'
p1434
ag11
ag81
aS'text'
p1435
ag189
aS'30u'
p1436
aS'RTP'
p1437
ag191
aS'AVP'
p1438
ag189
ag195
ag81
ag11
ag116
aS'variable_42'
p1439
ag11
ag116
aS'variable_43'
p1440
ag17
aS'=='
p1441
ag129
aS'&&'
p1442
aS'variable_43'
p1443
ag204
ag72
ag17
ag17
aS'if'
p1444
ag6
aS'variable_42'
p1445
aS'=='
p1446
ag72
ag17
aS'if'
p1447
ag6
aS'variable_1'
p1448
aS'->'
p1449
aS'variable_30'
p1450
ag75
aS'variable_48'
p1451
ag77
ag236
aS'variable_46'
p1452
ag17
aS'variable_39'
p1453
ag20
aS'variable_35'
p1454
ag24
aS'variable_1'
p1455
aS'->'
p1456
aS'variable_36'
p1457
ag20
aS'variable_21'
p1458
ag24
aS'variable_1'
p1459
aS'->'
p1460
aS'variable_30'
p1461
ag75
aS'variable_48'
p1462
ag77
ag236
aS'variable_46'
p1463
ag20
aS'++'
p1464
aS'variable_24'
p1465
ag24
aS'variable_18'
p1466
ag20
aS'variable_44'
p1467
ag249
aS'variable_43'
p1468
ag24
aS'for'
p1469
ag6
ag24
ag84
aS'func_18'
p1470
ag6
aS'variable_18'
p1471
ag17
ag24
aS'variable_18'
p1472
ag20
aS'func_19'
p1473
ag6
aS'variable_18'
p1474
ag249
aS'variable_43'
p1475
ag17
ag17
aS'if'
p1476
ag6
aS'sscanf'
p1477
ag6
aS'variable_18'
p1478
ag11
ag81
ag189
aS'30u'
p1479
ag189
ag195
ag81
ag11
ag116
aS'variable_19'
p1480
ag11
ag116
aS'variable_43'
p1481
ag17
aS'!='
p1482
ag129
ag17
aS'if'
p1483
ag6
aS'strncmp'
p1484
ag6
aS'variable_44'
p1485
ag11
ag81
aS'image'
p1486
ag81
ag11
ag183
ag17
aS'=='
p1487
ag72
ag17
aS'if'
p1488
ag6
ag6
aS'sscanf'
p1489
ag6
aS'variable_44'
p1490
ag11
ag81
aS'image'
p1491
ag189
aS'30u'
p1492
aS'udptl'
p1493
aS't38'
p1494
ag189
ag195
ag81
ag11
ag116
aS'variable_42'
p1495
ag11
ag116
aS'variable_43'
p1496
ag17
aS'=='
p1497
ag129
aS'&&'
p1498
aS'variable_43'
p1499
ag204
ag72
ag17
aS'||'
p1500
ag6
aS'sscanf'
p1501
ag6
aS'variable_44'
p1502
ag11
ag81
aS'image'
p1503
ag189
aS'30u'
p1504
aS'UDPTL'
p1505
aS't38'
p1506
ag189
ag195
ag81
ag11
ag116
aS'variable_42'
p1507
ag11
ag116
aS'variable_43'
p1508
ag17
aS'=='
p1509
ag129
aS'&&'
p1510
aS'variable_43'
p1511
ag204
ag72
ag17
ag17
aS'if'
p1512
ag6
aS'variable_42'
p1513
aS'=='
p1514
ag72
ag17
aS'if'
p1515
ag6
aS'func_20'
p1516
ag6
aS'variable_1'
p1517
ag17
ag17
aS'if'
p1518
ag6
aS'variable_1'
p1519
aS'->'
p1520
aS'variable_30'
p1521
ag75
aS'variable_49'
p1522
ag77
ag236
aS'variable_46'
p1523
ag17
aS'variable_1'
p1524
aS'->'
p1525
aS'variable_30'
p1526
ag75
aS'variable_49'
p1527
ag77
ag236
aS'variable_46'
p1528
ag20
aS'++'
p1529
aS'variable_24'
p1530
ag24
aS'while'
p1531
ag6
ag6
aS'variable_32'
p1532
ag20
aS'func_21'
p1533
ag6
ag116
aS'variable_33'
p1534
ag11
aS'variable_7'
p1535
ag128
ag129
ag11
aS'variable_3'
p1536
ag11
ag116
aS'variable_8'
p1537
ag17
ag17
aS'!='
p1538
ag133
ag134
ag72
ag133
ag17
aS'switch'
p1539
ag6
aS'variable_32'
p1540
ag17
aS'if'
p1541
ag6
aS'variable_37'
p1542
ag17
aS'if'
p1543
ag6
aS'func_22'
p1544
ag6
aS'variable_8'
p1545
ag11
ag116
aS'variable_50'
p1546
ag17
ag17
aS'if'
p1547
ag6
ag84
aS'variable_40'
p1548
aS'&&'
p1549
aS'func_23'
p1550
ag6
aS'variable_1'
p1551
ag11
aS'variable_1'
p1552
aS'->'
p1553
aS'variable_27'
p1554
ag11
ag116
aS'variable_1'
p1555
aS'->'
p1556
aS'variable_51'
p1557
ag11
aS'variable_8'
p1558
ag17
ag17
aS'variable_40'
p1559
ag20
aS'variable_35'
p1560
ag24
aS'if'
p1561
ag6
aS'variable_38'
p1562
ag17
aS'if'
p1563
ag6
ag84
aS'variable_40'
p1564
aS'&&'
p1565
aS'func_24'
p1566
ag6
aS'variable_1'
p1567
ag11
aS'variable_1'
p1568
aS'->'
p1569
aS'variable_52'
p1570
ag11
ag116
aS'variable_1'
p1571
aS'->'
p1572
aS'variable_53'
p1573
ag11
aS'variable_8'
p1574
ag17
ag17
aS'variable_40'
p1575
ag20
aS'variable_35'
p1576
ag24
aS'if'
p1577
ag6
aS'variable_39'
p1578
ag17
aS'if'
p1579
ag6
aS'func_25'
p1580
ag6
aS'variable_8'
p1581
ag11
aS'variable_1'
p1582
ag11
ag116
aS'variable_15'
p1583
ag11
aS'variable_26'
p1584
ag11
ag116
aS'variable_54'
p1585
ag11
aS'variable_25'
p1586
ag11
ag116
aS'variable_55'
p1587
ag17
ag17
aS'if'
p1588
ag6
ag84
aS'variable_40'
p1589
aS'&&'
p1590
aS'func_26'
p1591
ag6
aS'variable_1'
p1592
ag11
aS'variable_1'
p1593
aS'->'
p1594
aS'variable_56'
p1595
ag11
ag116
aS'variable_1'
p1596
aS'->'
p1597
aS'variable_57'
p1598
ag11
aS'variable_8'
p1599
ag17
ag17
aS'variable_40'
p1600
ag20
aS'variable_35'
p1601
ag24
aS'if'
p1602
ag6
aS'variable_37'
p1603
aS'&&'
p1604
aS'variable_20'
p1605
aS'&&'
p1606
ag84
aS'variable_40'
p1607
ag17
aS'if'
p1608
ag6
aS'variable_38'
p1609
aS'&&'
p1610
aS'variable_22'
p1611
aS'&&'
p1612
ag84
aS'variable_40'
p1613
ag17
aaa(lp1614
I0
aI0
aI0
aa(lp1615
I871
aI703
aI502
aa(lp1616
(lp1617
S'main'
p1618
aa(lp1619
g1618
aa(lp1620
g1618
aaa(lp1621
S'884 /home/SySeVR/data/CVE_2013_5642_VULN_process_sdp.c sscanf 290'
p1622
aS'887 /home/SySeVR/data/CVE_2013_5642_VULN_process_sdp.c sscanf 245'
p1623
aS'890 /home/SySeVR/data/CVE_2013_5642_VULN_process_sdp.c sscanf 192'
p1624
aa.