(lp0
(lp1
(lp2
S'static'
p3
aS'int'
p4
aS'func_0'
p5
aS'('
p6
aS'struct'
p7
aS'variable_0'
p8
aS'*'
p9
aS'variable_1'
p10
aS','
p11
aS'struct'
p12
aS'variable_2'
p13
ag9
aS'variable_3'
p14
ag11
aS'int'
p15
aS'variable_4'
p16
aS')'
p17
aS'int'
p18
aS'variable_5'
p19
aS'='
p20
aS'variable_3'
p21
aS'->'
p22
aS'variable_6'
p23
aS';'
p24
aS'int'
p25
aS'variable_7'
p26
ag20
aS'variable_5'
p27
ag24
aS'const'
p28
aS'char'
p29
ag9
aS'variable_8'
p30
ag20
aS'NULL'
p31
ag24
aS'struct'
p32
aS'variable_9'
p33
ag9
aS'variable_10'
p34
ag20
aS'func_1'
p35
ag6
ag17
ag24
aS'struct'
p36
aS'variable_9'
p37
ag9
aS'variable_11'
p38
ag20
aS'func_2'
p39
ag6
ag17
ag24
aS'struct'
p40
aS'variable_9'
p41
ag9
aS'variable_12'
p42
ag20
aS'func_3'
p43
ag6
ag17
ag24
aS'struct'
p44
aS'ast_rtp_codecs'
p45
aS'variable_13'
p46
ag11
aS'variable_14'
p47
ag11
aS'variable_15'
p48
ag24
aS'struct'
p49
aS'variable_9'
p50
ag9
aS'variable_16'
p51
ag20
aS'func_4'
p52
ag6
ag17
ag24
aS'struct'
p53
aS'variable_9'
p54
ag9
aS'variable_17'
p55
ag20
aS'func_5'
p56
ag6
ag17
ag24
aS'const'
p57
aS'char'
p58
ag9
aS'variable_18'
p59
ag24
aS'int'
p60
aS'variable_19'
p61
ag24
aS'int'
p62
aS'variable_20'
p63
ag20
aS'variable_21'
p64
ag24
aS'int'
p65
aS'variable_22'
p66
ag20
aS'variable_21'
p67
ag24
aS'int'
p68
aS'variable_23'
p69
ag24
aS'int'
p70
aS'variable_24'
p71
ag20
aS'0'
p72
ag24
aS'int'
p73
aS'variable_25'
p74
aS'['
p75
aS'10'
p76
aS']'
p77
ag24
aS'char'
p78
aS'variable_26'
p79
ag75
aS'100'
p80
ag77
ag20
aS'"'
p81
aS'empty'
p82
ag81
ag24
aS'if'
p83
ag6
aS'!'
p84
aS'variable_1'
p85
aS'->'
p86
aS'variable_27'
p87
ag17
aS'if'
p88
ag6
ag84
aS'variable_10'
p89
aS'||'
p90
ag84
aS'variable_11'
p91
aS'||'
p92
ag84
aS'variable_12'
p93
aS'||'
p94
ag84
aS'variable_17'
p95
aS'||'
p96
ag84
aS'variable_16'
p97
ag17
aS'variable_1'
p98
aS'->'
p99
aS'variable_28'
p100
ag20
aS'variable_1'
p101
aS'->'
p102
aS'variable_29'
p103
ag20
aS'time'
p104
ag6
aS'NULL'
p105
ag17
ag24
aS'memset'
p106
ag6
aS'variable_1'
p107
aS'->'
p108
aS'variable_30'
p109
ag11
ag72
ag11
aS'sizeof'
p110
ag6
aS'variable_1'
p111
aS'->'
p112
aS'variable_30'
p113
ag17
ag17
ag24
aS'variable_31'
p114
ag20
aS'func_6'
p115
ag6
aS'&'
p116
aS'variable_7'
p117
ag11
aS'variable_3'
p118
ag11
ag81
aS'm'
p119
ag81
ag17
ag24
aS'if'
p120
ag6
aS'func_7'
p121
ag6
aS'variable_31'
p122
ag17
ag17
aS'while'
p123
ag6
ag6
aS'variable_32'
p124
ag20
aS'func_8'
p125
ag6
ag116
aS'variable_33'
p126
ag11
aS'variable_7'
p127
aS'-'
p128
aS'1'
p129
ag11
aS'variable_3'
p130
ag11
ag116
aS'variable_8'
p131
ag17
ag17
aS'!='
p132
aS"'"
p133
aS'\\'
p134
ag72
ag133
ag17
aS'switch'
p135
ag6
aS'variable_32'
p136
ag17
aS'if'
p137
ag6
ag84
aS'func_9'
p138
ag6
aS'variable_8'
p139
ag11
aS'variable_1'
p140
ag17
ag17
aS'variable_1'
p141
aS'->'
p142
aS'variable_34'
p143
ag20
aS'variable_35'
p144
ag24
aS'variable_1'
p145
aS'->'
p146
aS'variable_36'
p147
ag20
aS'variable_35'
p148
ag24
aS'while'
p149
ag6
ag84
aS'func_10'
p150
ag6
aS'variable_31'
p151
ag17
ag17
aS'int'
p152
aS'variable_37'
p153
ag20
aS'variable_21'
p154
ag24
aS'int'
p155
aS'variable_38'
p156
ag20
aS'variable_21'
p157
ag24
aS'int'
p158
aS'variable_39'
p159
ag20
aS'variable_21'
p160
ag24
aS'int'
p161
aS'variable_40'
p162
ag20
aS'variable_21'
p163
ag24
aS'char'
p164
aS'variable_41'
p165
ag75
aS'5'
p166
ag77
ag20
ag72
ag11
aS'int'
p167
aS'variable_42'
p168
ag24
aS'variable_23'
p169
ag20
ag72
ag24
aS'variable_43'
p170
ag20
ag128
ag129
ag24
aS'variable_44'
p171
ag20
aS'variable_31'
p172
ag24
aS'variable_33'
p173
ag20
aS'variable_7'
p174
ag24
aS'variable_31'
p175
ag20
aS'func_11'
p176
ag6
ag116
aS'variable_7'
p177
ag11
aS'variable_3'
p178
ag11
ag81
ag119
ag81
ag17
ag24
aS'if'
p179
ag6
aS'strncmp'
p180
ag6
aS'variable_44'
p181
ag11
ag81
aS'audio'
p182
ag81
ag11
aS'6'
p183
ag17
aS'=='
p184
ag72
ag17
aS'if'
p185
ag6
ag6
aS'sscanf'
p186
ag6
aS'variable_44'
p187
ag11
ag81
aS'audio'
p188
aS'%'
p189
aS'30u'
p190
aS'/'
p191
ag189
aS'30u'
p192
aS'RTP'
p193
ag191
ag189
aS'4s'
p194
ag189
aS'n'
p195
ag81
ag11
ag116
aS'variable_42'
p196
ag11
ag116
aS'variable_23'
p197
ag11
aS'variable_41'
p198
ag11
ag116
aS'variable_43'
p199
ag17
aS'=='
p200
aS'3'
p201
aS'&&'
p202
aS'variable_43'
p203
aS'>'
p204
ag72
ag17
aS'||'
p205
ag6
aS'sscanf'
p206
ag6
aS'variable_44'
p207
ag11
ag81
aS'audio'
p208
ag189
aS'30u'
p209
aS'RTP'
p210
ag191
ag189
aS'4s'
p211
ag189
ag195
ag81
ag11
ag116
aS'variable_42'
p212
ag11
aS'variable_41'
p213
ag11
ag116
aS'variable_43'
p214
ag17
aS'=='
p215
aS'2'
p216
aS'&&'
p217
aS'variable_43'
p218
ag204
ag72
ag17
ag17
aS'if'
p219
ag6
aS'variable_42'
p220
aS'=='
p221
ag72
ag17
aS'if'
p222
ag6
ag84
aS'strcmp'
p223
ag6
aS'variable_41'
p224
ag11
ag81
aS'SAVP'
p225
ag81
ag17
ag17
aS'variable_20'
p226
ag20
ag129
ag24
aS'if'
p227
ag6
aS'strcmp'
p228
ag6
aS'variable_41'
p229
ag11
ag81
aS'AVP'
p230
ag81
ag17
ag17
aS'if'
p231
ag6
aS'variable_1'
p232
aS'->'
p233
aS'variable_30'
p234
ag75
aS'variable_45'
p235
ag77
aS'.'
p236
aS'variable_46'
p237
ag17
aS'variable_37'
p238
ag20
aS'variable_35'
p239
ag24
aS'variable_1'
p240
aS'->'
p241
aS'variable_30'
p242
ag75
aS'variable_45'
p243
ag77
ag236
aS'variable_46'
p244
ag20
aS'++'
p245
aS'variable_24'
p246
ag24
aS'variable_18'
p247
ag20
aS'variable_44'
p248
aS'+'
p249
aS'variable_43'
p250
ag24
aS'for'
p251
ag6
ag24
ag84
aS'func_12'
p252
ag6
aS'variable_18'
p253
ag17
ag24
aS'variable_18'
p254
ag20
aS'func_13'
p255
ag6
aS'variable_18'
p256
ag249
aS'variable_43'
p257
ag17
ag17
aS'if'
p258
ag6
aS'sscanf'
p259
ag6
aS'variable_18'
p260
ag11
ag81
ag189
aS'30u'
p261
ag189
ag195
ag81
ag11
ag116
aS'variable_19'
p262
ag11
ag116
aS'variable_43'
p263
ag17
aS'!='
p264
ag129
ag17
aS'if'
p265
ag6
aS'strncmp'
p266
ag6
aS'variable_44'
p267
ag11
ag81
aS'video'
p268
ag81
ag11
ag183
ag17
aS'=='
p269
ag72
ag17
aS'if'
p270
ag6
ag6
aS'sscanf'
p271
ag6
aS'variable_44'
p272
ag11
ag81
aS'video'
p273
ag189
aS'30u'
p274
ag191
ag189
aS'30u'
p275
aS'RTP'
p276
ag191
ag189
aS'4s'
p277
ag189
ag195
ag81
ag11
ag116
aS'variable_42'
p278
ag11
ag116
aS'variable_23'
p279
ag11
aS'variable_41'
p280
ag11
ag116
aS'variable_43'
p281
ag17
aS'=='
p282
ag201
aS'&&'
p283
aS'variable_43'
p284
ag204
ag72
ag17
aS'||'
p285
ag6
aS'sscanf'
p286
ag6
aS'variable_44'
p287
ag11
ag81
aS'video'
p288
ag189
aS'30u'
p289
aS'RTP'
p290
ag191
ag189
aS'4s'
p291
ag189
ag195
ag81
ag11
ag116
aS'variable_42'
p292
ag11
aS'variable_41'
p293
ag11
ag116
aS'variable_43'
p294
ag17
aS'=='
p295
ag216
aS'&&'
p296
aS'variable_43'
p297
ag204
ag72
ag17
ag17
aS'if'
p298
ag6
aS'variable_42'
p299
aS'=='
p300
ag72
ag17
aS'if'
p301
ag6
ag84
aS'strcmp'
p302
ag6
aS'variable_41'
p303
ag11
ag81
aS'SAVP'
p304
ag81
ag17
ag17
aS'variable_22'
p305
ag20
ag129
ag24
aS'if'
p306
ag6
aS'strcmp'
p307
ag6
aS'variable_41'
p308
ag11
ag81
aS'AVP'
p309
ag81
ag17
ag17
aS'if'
p310
ag6
aS'variable_1'
p311
aS'->'
p312
aS'variable_30'
p313
ag75
aS'variable_47'
p314
ag77
ag236
aS'variable_46'
p315
ag17
aS'variable_38'
p316
ag20
aS'variable_35'
p317
ag24
aS'variable_1'
p318
aS'->'
p319
aS'variable_34'
p320
ag20
aS'variable_21'
p321
ag24
aS'variable_1'
p322
aS'->'
p323
aS'variable_30'
p324
ag75
aS'variable_47'
p325
ag77
ag236
aS'variable_46'
p326
ag20
aS'++'
p327
aS'variable_24'
p328
ag24
aS'variable_18'
p329
ag20
aS'variable_44'
p330
ag249
aS'variable_43'
p331
ag24
aS'for'
p332
ag6
ag24
ag84
aS'func_14'
p333
ag6
aS'variable_18'
p334
ag17
ag24
aS'variable_18'
p335
ag20
aS'func_15'
p336
ag6
aS'variable_18'
p337
ag249
aS'variable_43'
p338
ag17
ag17
aS'if'
p339
ag6
aS'sscanf'
p340
ag6
aS'variable_18'
p341
ag11
ag81
ag189
aS'30u'
p342
ag189
ag195
ag81
ag11
ag116
aS'variable_19'
p343
ag11
ag116
aS'variable_43'
p344
ag17
aS'!='
p345
ag129
ag17
aS'if'
p346
ag6
aS'strncmp'
p347
ag6
aS'variable_44'
p348
ag11
ag81
aS'text'
p349
ag81
ag11
ag166
ag17
aS'=='
p350
ag72
ag17
aS'if'
p351
ag6
ag6
aS'sscanf'
p352
ag6
aS'variable_44'
p353
ag11
ag81
aS'text'
p354
ag189
aS'30u'
p355
ag191
ag189
aS'30u'
p356
aS'RTP'
p357
ag191
aS'AVP'
p358
ag189
ag195
ag81
ag11
ag116
aS'variable_42'
p359
ag11
ag116
aS'variable_23'
p360
ag11
ag116
aS'variable_43'
p361
ag17
aS'=='
p362
ag216
aS'&&'
p363
aS'variable_43'
p364
ag204
ag72
ag17
aS'||'
p365
ag6
aS'sscanf'
p366
ag6
aS'variable_44'
p367
ag11
ag81
aS'text'
p368
ag189
aS'30u'
p369
aS'RTP'
p370
ag191
aS'AVP'
p371
ag189
ag195
ag81
ag11
ag116
aS'variable_42'
p372
ag11
ag116
aS'variable_43'
p373
ag17
aS'=='
p374
ag129
aS'&&'
p375
aS'variable_43'
p376
ag204
ag72
ag17
ag17
aS'if'
p377
ag6
aS'variable_42'
p378
aS'=='
p379
ag72
ag17
aS'if'
p380
ag6
aS'variable_1'
p381
aS'->'
p382
aS'variable_30'
p383
ag75
aS'variable_48'
p384
ag77
ag236
aS'variable_46'
p385
ag17
aS'variable_39'
p386
ag20
aS'variable_35'
p387
ag24
aS'variable_1'
p388
aS'->'
p389
aS'variable_36'
p390
ag20
aS'variable_21'
p391
ag24
aS'variable_1'
p392
aS'->'
p393
aS'variable_30'
p394
ag75
aS'variable_48'
p395
ag77
ag236
aS'variable_46'
p396
ag20
aS'++'
p397
aS'variable_24'
p398
ag24
aS'variable_18'
p399
ag20
aS'variable_44'
p400
ag249
aS'variable_43'
p401
ag24
aS'func_16'
p402
ag6
aS'variable_1'
p403
aS'->'
p404
aS'variable_30'
p405
ag75
aS'variable_48'
p406
ag77
ag236
aS'variable_18'
p407
ag11
aS'variable_18'
p408
ag11
aS'sizeof'
p409
ag6
aS'variable_1'
p410
aS'->'
p411
aS'variable_30'
p412
ag75
aS'variable_48'
p413
ag77
ag236
aS'variable_18'
p414
ag17
ag17
ag24
aS'for'
p415
ag6
ag24
ag84
aS'func_17'
p416
ag6
aS'variable_18'
p417
ag17
ag24
aS'variable_18'
p418
ag20
aS'func_18'
p419
ag6
aS'variable_18'
p420
ag249
aS'variable_43'
p421
ag17
ag17
aS'if'
p422
ag6
aS'sscanf'
p423
ag6
aS'variable_18'
p424
ag11
ag81
ag189
aS'30u'
p425
ag189
ag195
ag81
ag11
ag116
aS'variable_19'
p426
ag11
ag116
aS'variable_43'
p427
ag17
aS'!='
p428
ag129
ag17
aS'func_19'
p429
ag6
aS'variable_49'
p430
ag11
ag81
aS'Invalid'
p431
aS'syntax'
p432
aS'in'
p433
aS'RTP'
p434
aS'video'
p435
aS'format'
p436
aS'list'
p437
aS':'
p438
ag189
aS's'
p439
ag134
ag195
ag81
ag11
aS'variable_18'
p440
ag17
ag24
aS'func_20'
p441
ag6
ag81
aS'Found'
p442
aS'RTP'
p443
aS'text'
p444
aS'format'
p445
ag189
aS'd'
p446
ag134
ag195
ag81
ag11
aS'variable_19'
p447
ag17
ag24
aS'func_21'
p448
ag6
ag116
aS'variable_15'
p449
ag11
aS'NULL'
p450
ag11
aS'variable_19'
p451
ag17
ag24
aS'if'
p452
ag6
aS'strncmp'
p453
ag6
aS'variable_44'
p454
ag11
ag81
aS'image'
p455
ag81
ag11
ag183
ag17
aS'=='
p456
ag72
ag17
aS'if'
p457
ag6
ag6
aS'sscanf'
p458
ag6
aS'variable_44'
p459
ag11
ag81
aS'image'
p460
ag189
aS'30u'
p461
aS'udptl'
p462
aS't38'
p463
ag189
ag195
ag81
ag11
ag116
aS'variable_42'
p464
ag11
ag116
aS'variable_43'
p465
ag17
aS'=='
p466
ag129
aS'&&'
p467
aS'variable_43'
p468
ag204
ag72
ag17
aS'||'
p469
ag6
aS'sscanf'
p470
ag6
aS'variable_44'
p471
ag11
ag81
aS'image'
p472
ag189
aS'30u'
p473
aS'UDPTL'
p474
aS't38'
p475
ag189
ag195
ag81
ag11
ag116
aS'variable_42'
p476
ag11
ag116
aS'variable_43'
p477
ag17
aS'=='
p478
ag129
aS'&&'
p479
aS'variable_43'
p480
ag204
ag72
ag17
ag17
aS'if'
p481
ag6
aS'variable_42'
p482
aS'=='
p483
ag72
ag17
aS'if'
p484
ag6
aS'func_22'
p485
ag6
aS'variable_1'
p486
ag17
ag17
aS'if'
p487
ag6
aS'variable_1'
p488
aS'->'
p489
aS'variable_30'
p490
ag75
aS'variable_50'
p491
ag77
ag236
aS'variable_46'
p492
ag17
aS'variable_1'
p493
aS'->'
p494
aS'variable_30'
p495
ag75
aS'variable_50'
p496
ag77
ag236
aS'variable_46'
p497
ag20
aS'++'
p498
aS'variable_24'
p499
ag24
aS'while'
p500
ag6
ag6
aS'variable_32'
p501
ag20
aS'func_23'
p502
ag6
ag116
aS'variable_33'
p503
ag11
aS'variable_7'
p504
ag128
ag129
ag11
aS'variable_3'
p505
ag11
ag116
aS'variable_8'
p506
ag17
ag17
aS'!='
p507
ag133
ag134
ag72
ag133
ag17
aS'switch'
p508
ag6
aS'variable_32'
p509
ag17
aS'if'
p510
ag6
aS'variable_37'
p511
ag17
aS'if'
p512
ag6
aS'func_24'
p513
ag6
aS'variable_8'
p514
ag11
ag116
aS'variable_51'
p515
ag17
ag17
aS'if'
p516
ag6
ag84
aS'variable_40'
p517
aS'&&'
p518
aS'func_25'
p519
ag6
aS'variable_1'
p520
ag11
aS'variable_1'
p521
aS'->'
p522
aS'variable_27'
p523
ag11
ag116
aS'variable_1'
p524
aS'->'
p525
aS'variable_52'
p526
ag11
aS'variable_8'
p527
ag17
ag17
aS'variable_40'
p528
ag20
aS'variable_35'
p529
ag24
aS'if'
p530
ag6
aS'variable_38'
p531
ag17
aS'if'
p532
ag6
ag84
aS'variable_40'
p533
aS'&&'
p534
aS'func_26'
p535
ag6
aS'variable_1'
p536
ag11
aS'variable_1'
p537
aS'->'
p538
aS'variable_53'
p539
ag11
ag116
aS'variable_1'
p540
aS'->'
p541
aS'variable_54'
p542
ag11
aS'variable_8'
p543
ag17
ag17
aS'variable_40'
p544
ag20
aS'variable_35'
p545
ag24
aS'if'
p546
ag6
aS'variable_39'
p547
ag17
aS'if'
p548
ag6
aS'func_27'
p549
ag6
aS'variable_8'
p550
ag11
aS'variable_1'
p551
ag11
ag116
aS'variable_15'
p552
ag11
aS'variable_26'
p553
ag11
ag116
aS'variable_55'
p554
ag11
aS'variable_25'
p555
ag11
ag116
aS'variable_56'
p556
ag17
ag17
aS'if'
p557
ag6
ag84
aS'variable_40'
p558
aS'&&'
p559
aS'func_28'
p560
ag6
aS'variable_1'
p561
ag11
aS'variable_1'
p562
aS'->'
p563
aS'variable_57'
p564
ag11
ag116
aS'variable_1'
p565
aS'->'
p566
aS'variable_58'
p567
ag11
aS'variable_8'
p568
ag17
ag17
aS'variable_40'
p569
ag20
aS'variable_35'
p570
ag24
aS'if'
p571
ag6
aS'variable_37'
p572
aS'&&'
p573
aS'variable_20'
p574
aS'&&'
p575
ag84
aS'variable_40'
p576
ag17
aS'if'
p577
ag6
aS'variable_38'
p578
aS'&&'
p579
aS'variable_22'
p580
aS'&&'
p581
ag84
aS'variable_40'
p582
ag17
aa(lp583
S'static'
p584
aS'int'
p585
aS'func_0'
p586
ag6
aS'struct'
p587
aS'variable_0'
p588
ag9
aS'variable_1'
p589
ag11
aS'struct'
p590
aS'variable_2'
p591
ag9
aS'variable_3'
p592
ag11
aS'int'
p593
aS'variable_4'
p594
ag17
aS'int'
p595
aS'variable_5'
p596
ag20
aS'variable_3'
p597
aS'->'
p598
aS'variable_6'
p599
ag24
aS'int'
p600
aS'variable_7'
p601
ag20
aS'variable_5'
p602
ag24
aS'const'
p603
aS'char'
p604
ag9
aS'variable_8'
p605
ag20
aS'NULL'
p606
ag24
aS'struct'
p607
aS'variable_9'
p608
ag9
aS'variable_10'
p609
ag20
aS'func_1'
p610
ag6
ag17
ag24
aS'struct'
p611
aS'variable_9'
p612
ag9
aS'variable_11'
p613
ag20
aS'func_2'
p614
ag6
ag17
ag24
aS'struct'
p615
aS'variable_9'
p616
ag9
aS'variable_12'
p617
ag20
aS'func_3'
p618
ag6
ag17
ag24
aS'struct'
p619
aS'ast_rtp_codecs'
p620
aS'variable_13'
p621
ag11
aS'variable_14'
p622
ag11
aS'variable_15'
p623
ag24
aS'struct'
p624
aS'variable_9'
p625
ag9
aS'variable_16'
p626
ag20
aS'func_4'
p627
ag6
ag17
ag24
aS'struct'
p628
aS'variable_9'
p629
ag9
aS'variable_17'
p630
ag20
aS'func_5'
p631
ag6
ag17
ag24
aS'const'
p632
aS'char'
p633
ag9
aS'variable_18'
p634
ag24
aS'int'
p635
aS'variable_19'
p636
ag24
aS'int'
p637
aS'variable_20'
p638
ag20
aS'variable_21'
p639
ag24
aS'int'
p640
aS'variable_22'
p641
ag20
aS'variable_21'
p642
ag24
aS'int'
p643
aS'variable_23'
p644
ag24
aS'int'
p645
aS'variable_24'
p646
ag20
ag72
ag24
aS'int'
p647
aS'variable_25'
p648
ag75
aS'10'
p649
ag77
ag24
aS'char'
p650
aS'variable_26'
p651
ag75
aS'100'
p652
ag77
ag20
ag81
aS'empty'
p653
ag81
ag24
aS'if'
p654
ag6
ag84
aS'variable_1'
p655
aS'->'
p656
aS'variable_27'
p657
ag17
aS'if'
p658
ag6
ag84
aS'variable_10'
p659
aS'||'
p660
ag84
aS'variable_11'
p661
aS'||'
p662
ag84
aS'variable_12'
p663
aS'||'
p664
ag84
aS'variable_17'
p665
aS'||'
p666
ag84
aS'variable_16'
p667
ag17
aS'variable_1'
p668
aS'->'
p669
aS'variable_28'
p670
ag20
aS'variable_1'
p671
aS'->'
p672
aS'variable_29'
p673
ag20
aS'time'
p674
ag6
aS'NULL'
p675
ag17
ag24
aS'memset'
p676
ag6
aS'variable_1'
p677
aS'->'
p678
aS'variable_30'
p679
ag11
ag72
ag11
aS'sizeof'
p680
ag6
aS'variable_1'
p681
aS'->'
p682
aS'variable_30'
p683
ag17
ag17
ag24
aS'variable_31'
p684
ag20
aS'func_6'
p685
ag6
ag116
aS'variable_7'
p686
ag11
aS'variable_3'
p687
ag11
ag81
ag119
ag81
ag17
ag24
aS'if'
p688
ag6
aS'func_7'
p689
ag6
aS'variable_31'
p690
ag17
ag17
aS'while'
p691
ag6
ag6
aS'variable_32'
p692
ag20
aS'func_8'
p693
ag6
ag116
aS'variable_33'
p694
ag11
aS'variable_7'
p695
ag128
ag129
ag11
aS'variable_3'
p696
ag11
ag116
aS'variable_8'
p697
ag17
ag17
aS'!='
p698
ag133
ag134
ag72
ag133
ag17
aS'switch'
p699
ag6
aS'variable_32'
p700
ag17
aS'if'
p701
ag6
ag84
aS'func_9'
p702
ag6
aS'variable_8'
p703
ag11
aS'variable_1'
p704
ag17
ag17
aS'variable_1'
p705
aS'->'
p706
aS'variable_34'
p707
ag20
aS'variable_35'
p708
ag24
aS'variable_1'
p709
aS'->'
p710
aS'variable_36'
p711
ag20
aS'variable_35'
p712
ag24
aS'while'
p713
ag6
ag84
aS'func_10'
p714
ag6
aS'variable_31'
p715
ag17
ag17
aS'int'
p716
aS'variable_37'
p717
ag20
aS'variable_21'
p718
ag24
aS'int'
p719
aS'variable_38'
p720
ag20
aS'variable_21'
p721
ag24
aS'int'
p722
aS'variable_39'
p723
ag20
aS'variable_21'
p724
ag24
aS'int'
p725
aS'variable_40'
p726
ag20
aS'variable_21'
p727
ag24
aS'char'
p728
aS'variable_41'
p729
ag75
ag166
ag77
ag20
ag72
ag11
aS'int'
p730
aS'variable_42'
p731
ag24
aS'variable_23'
p732
ag20
ag72
ag24
aS'variable_43'
p733
ag20
ag128
ag129
ag24
aS'variable_44'
p734
ag20
aS'variable_31'
p735
ag24
aS'variable_33'
p736
ag20
aS'variable_7'
p737
ag24
aS'variable_31'
p738
ag20
aS'func_11'
p739
ag6
ag116
aS'variable_7'
p740
ag11
aS'variable_3'
p741
ag11
ag81
ag119
ag81
ag17
ag24
aS'if'
p742
ag6
aS'strncmp'
p743
ag6
aS'variable_44'
p744
ag11
ag81
aS'audio'
p745
ag81
ag11
ag183
ag17
aS'=='
p746
ag72
ag17
aS'if'
p747
ag6
ag6
aS'sscanf'
p748
ag6
aS'variable_44'
p749
ag11
ag81
aS'audio'
p750
ag189
aS'30u'
p751
ag191
ag189
aS'30u'
p752
aS'RTP'
p753
ag191
ag189
aS'4s'
p754
ag189
ag195
ag81
ag11
ag116
aS'variable_42'
p755
ag11
ag116
aS'variable_23'
p756
ag11
aS'variable_41'
p757
ag11
ag116
aS'variable_43'
p758
ag17
aS'=='
p759
ag201
aS'&&'
p760
aS'variable_43'
p761
ag204
ag72
ag17
aS'||'
p762
ag6
aS'sscanf'
p763
ag6
aS'variable_44'
p764
ag11
ag81
aS'audio'
p765
ag189
aS'30u'
p766
aS'RTP'
p767
ag191
ag189
aS'4s'
p768
ag189
ag195
ag81
ag11
ag116
aS'variable_42'
p769
ag11
aS'variable_41'
p770
ag11
ag116
aS'variable_43'
p771
ag17
aS'=='
p772
ag216
aS'&&'
p773
aS'variable_43'
p774
ag204
ag72
ag17
ag17
aS'if'
p775
ag6
aS'variable_42'
p776
aS'=='
p777
ag72
ag17
aS'if'
p778
ag6
ag84
aS'strcmp'
p779
ag6
aS'variable_41'
p780
ag11
ag81
aS'SAVP'
p781
ag81
ag17
ag17
aS'variable_20'
p782
ag20
ag129
ag24
aS'if'
p783
ag6
aS'strcmp'
p784
ag6
aS'variable_41'
p785
ag11
ag81
aS'AVP'
p786
ag81
ag17
ag17
aS'if'
p787
ag6
aS'variable_1'
p788
aS'->'
p789
aS'variable_30'
p790
ag75
aS'variable_45'
p791
ag77
ag236
aS'variable_46'
p792
ag17
aS'variable_37'
p793
ag20
aS'variable_35'
p794
ag24
aS'variable_1'
p795
aS'->'
p796
aS'variable_30'
p797
ag75
aS'variable_45'
p798
ag77
ag236
aS'variable_46'
p799
ag20
aS'++'
p800
aS'variable_24'
p801
ag24
aS'variable_18'
p802
ag20
aS'variable_44'
p803
ag249
aS'variable_43'
p804
ag24
aS'for'
p805
ag6
ag24
ag84
aS'func_12'
p806
ag6
aS'variable_18'
p807
ag17
ag24
aS'variable_18'
p808
ag20
aS'func_13'
p809
ag6
aS'variable_18'
p810
ag249
aS'variable_43'
p811
ag17
ag17
aS'if'
p812
ag6
aS'sscanf'
p813
ag6
aS'variable_18'
p814
ag11
ag81
ag189
aS'30u'
p815
ag189
ag195
ag81
ag11
ag116
aS'variable_19'
p816
ag11
ag116
aS'variable_43'
p817
ag17
aS'!='
p818
ag129
ag17
aS'if'
p819
ag6
aS'strncmp'
p820
ag6
aS'variable_44'
p821
ag11
ag81
aS'video'
p822
ag81
ag11
ag183
ag17
aS'=='
p823
ag72
ag17
aS'if'
p824
ag6
ag6
aS'sscanf'
p825
ag6
aS'variable_44'
p826
ag11
ag81
aS'video'
p827
ag189
aS'30u'
p828
ag191
ag189
aS'30u'
p829
aS'RTP'
p830
ag191
ag189
aS'4s'
p831
ag189
ag195
ag81
ag11
ag116
aS'variable_42'
p832
ag11
ag116
aS'variable_23'
p833
ag11
aS'variable_41'
p834
ag11
ag116
aS'variable_43'
p835
ag17
aS'=='
p836
ag201
aS'&&'
p837
aS'variable_43'
p838
ag204
ag72
ag17
aS'||'
p839
ag6
aS'sscanf'
p840
ag6
aS'variable_44'
p841
ag11
ag81
aS'video'
p842
ag189
aS'30u'
p843
aS'RTP'
p844
ag191
ag189
aS'4s'
p845
ag189
ag195
ag81
ag11
ag116
aS'variable_42'
p846
ag11
aS'variable_41'
p847
ag11
ag116
aS'variable_43'
p848
ag17
aS'=='
p849
ag216
aS'&&'
p850
aS'variable_43'
p851
ag204
ag72
ag17
ag17
aS'if'
p852
ag6
aS'variable_42'
p853
aS'=='
p854
ag72
ag17
aS'if'
p855
ag6
ag84
aS'strcmp'
p856
ag6
aS'variable_41'
p857
ag11
ag81
aS'SAVP'
p858
ag81
ag17
ag17
aS'variable_22'
p859
ag20
ag129
ag24
aS'if'
p860
ag6
aS'strcmp'
p861
ag6
aS'variable_41'
p862
ag11
ag81
aS'AVP'
p863
ag81
ag17
ag17
aS'if'
p864
ag6
aS'variable_1'
p865
aS'->'
p866
aS'variable_30'
p867
ag75
aS'variable_47'
p868
ag77
ag236
aS'variable_46'
p869
ag17
aS'variable_38'
p870
ag20
aS'variable_35'
p871
ag24
aS'variable_1'
p872
aS'->'
p873
aS'variable_34'
p874
ag20
aS'variable_21'
p875
ag24
aS'variable_1'
p876
aS'->'
p877
aS'variable_30'
p878
ag75
aS'variable_47'
p879
ag77
ag236
aS'variable_46'
p880
ag20
aS'++'
p881
aS'variable_24'
p882
ag24
aS'variable_18'
p883
ag20
aS'variable_44'
p884
ag249
aS'variable_43'
p885
ag24
aS'func_14'
p886
ag6
aS'variable_1'
p887
aS'->'
p888
aS'variable_30'
p889
ag75
aS'variable_47'
p890
ag77
ag236
aS'variable_18'
p891
ag11
aS'variable_18'
p892
ag11
aS'sizeof'
p893
ag6
aS'variable_1'
p894
aS'->'
p895
aS'variable_30'
p896
ag75
aS'variable_47'
p897
ag77
ag236
aS'variable_18'
p898
ag17
ag17
ag24
aS'for'
p899
ag6
ag24
ag84
aS'func_15'
p900
ag6
aS'variable_18'
p901
ag17
ag24
aS'variable_18'
p902
ag20
aS'func_16'
p903
ag6
aS'variable_18'
p904
ag249
aS'variable_43'
p905
ag17
ag17
aS'if'
p906
ag6
aS'sscanf'
p907
ag6
aS'variable_18'
p908
ag11
ag81
ag189
aS'30u'
p909
ag189
ag195
ag81
ag11
ag116
aS'variable_19'
p910
ag11
ag116
aS'variable_43'
p911
ag17
aS'!='
p912
ag129
ag17
aS'func_17'
p913
ag6
aS'variable_48'
p914
ag11
ag81
aS'Invalid'
p915
aS'syntax'
p916
aS'in'
p917
aS'RTP'
p918
aS'video'
p919
aS'format'
p920
aS'list'
p921
ag438
ag189
ag439
ag134
ag195
ag81
ag11
aS'variable_18'
p922
ag17
ag24
aS'func_18'
p923
ag6
ag81
aS'Found'
p924
aS'RTP'
p925
aS'video'
p926
aS'format'
p927
ag189
ag446
ag134
ag195
ag81
ag11
aS'variable_19'
p928
ag17
ag24
aS'func_19'
p929
ag6
ag116
aS'variable_14'
p930
ag11
aS'NULL'
p931
ag11
aS'variable_19'
p932
ag17
ag24
aS'if'
p933
ag6
aS'strncmp'
p934
ag6
aS'variable_44'
p935
ag11
ag81
aS'text'
p936
ag81
ag11
ag166
ag17
aS'=='
p937
ag72
ag17
aS'if'
p938
ag6
ag6
aS'sscanf'
p939
ag6
aS'variable_44'
p940
ag11
ag81
aS'text'
p941
ag189
aS'30u'
p942
ag191
ag189
aS'30u'
p943
aS'RTP'
p944
ag191
aS'AVP'
p945
ag189
ag195
ag81
ag11
ag116
aS'variable_42'
p946
ag11
ag116
aS'variable_23'
p947
ag11
ag116
aS'variable_43'
p948
ag17
aS'=='
p949
ag216
aS'&&'
p950
aS'variable_43'
p951
ag204
ag72
ag17
aS'||'
p952
ag6
aS'sscanf'
p953
ag6
aS'variable_44'
p954
ag11
ag81
aS'text'
p955
ag189
aS'30u'
p956
aS'RTP'
p957
ag191
aS'AVP'
p958
ag189
ag195
ag81
ag11
ag116
aS'variable_42'
p959
ag11
ag116
aS'variable_43'
p960
ag17
aS'=='
p961
ag129
aS'&&'
p962
aS'variable_43'
p963
ag204
ag72
ag17
ag17
aS'if'
p964
ag6
aS'variable_42'
p965
aS'=='
p966
ag72
ag17
aS'if'
p967
ag6
aS'variable_1'
p968
aS'->'
p969
aS'variable_30'
p970
ag75
aS'variable_49'
p971
ag77
ag236
aS'variable_46'
p972
ag17
aS'variable_39'
p973
ag20
aS'variable_35'
p974
ag24
aS'variable_1'
p975
aS'->'
p976
aS'variable_36'
p977
ag20
aS'variable_21'
p978
ag24
aS'variable_1'
p979
aS'->'
p980
aS'variable_30'
p981
ag75
aS'variable_49'
p982
ag77
ag236
aS'variable_46'
p983
ag20
aS'++'
p984
aS'variable_24'
p985
ag24
aS'variable_18'
p986
ag20
aS'variable_44'
p987
ag249
aS'variable_43'
p988
ag24
aS'for'
p989
ag6
ag24
ag84
aS'func_20'
p990
ag6
aS'variable_18'
p991
ag17
ag24
aS'variable_18'
p992
ag20
aS'func_21'
p993
ag6
aS'variable_18'
p994
ag249
aS'variable_43'
p995
ag17
ag17
aS'if'
p996
ag6
aS'sscanf'
p997
ag6
aS'variable_18'
p998
ag11
ag81
ag189
aS'30u'
p999
ag189
ag195
ag81
ag11
ag116
aS'variable_19'
p1000
ag11
ag116
aS'variable_43'
p1001
ag17
aS'!='
p1002
ag129
ag17
aS'if'
p1003
ag6
aS'strncmp'
p1004
ag6
aS'variable_44'
p1005
ag11
ag81
aS'image'
p1006
ag81
ag11
ag183
ag17
aS'=='
p1007
ag72
ag17
aS'if'
p1008
ag6
ag6
aS'sscanf'
p1009
ag6
aS'variable_44'
p1010
ag11
ag81
aS'image'
p1011
ag189
aS'30u'
p1012
aS'udptl'
p1013
aS't38'
p1014
ag189
ag195
ag81
ag11
ag116
aS'variable_42'
p1015
ag11
ag116
aS'variable_43'
p1016
ag17
aS'=='
p1017
ag129
aS'&&'
p1018
aS'variable_43'
p1019
ag204
ag72
ag17
aS'||'
p1020
ag6
aS'sscanf'
p1021
ag6
aS'variable_44'
p1022
ag11
ag81
aS'image'
p1023
ag189
aS'30u'
p1024
aS'UDPTL'
p1025
aS't38'
p1026
ag189
ag195
ag81
ag11
ag116
aS'variable_42'
p1027
ag11
ag116
aS'variable_43'
p1028
ag17
aS'=='
p1029
ag129
aS'&&'
p1030
aS'variable_43'
p1031
ag204
ag72
ag17
ag17
aS'if'
p1032
ag6
aS'variable_42'
p1033
aS'=='
p1034
ag72
ag17
aS'if'
p1035
ag6
aS'func_22'
p1036
ag6
aS'variable_1'
p1037
ag17
ag17
aS'if'
p1038
ag6
aS'variable_1'
p1039
aS'->'
p1040
aS'variable_30'
p1041
ag75
aS'variable_50'
p1042
ag77
ag236
aS'variable_46'
p1043
ag17
aS'variable_1'
p1044
aS'->'
p1045
aS'variable_30'
p1046
ag75
aS'variable_50'
p1047
ag77
ag236
aS'variable_46'
p1048
ag20
aS'++'
p1049
aS'variable_24'
p1050
ag24
aS'while'
p1051
ag6
ag6
aS'variable_32'
p1052
ag20
aS'func_23'
p1053
ag6
ag116
aS'variable_33'
p1054
ag11
aS'variable_7'
p1055
ag128
ag129
ag11
aS'variable_3'
p1056
ag11
ag116
aS'variable_8'
p1057
ag17
ag17
aS'!='
p1058
ag133
ag134
ag72
ag133
ag17
aS'switch'
p1059
ag6
aS'variable_32'
p1060
ag17
aS'if'
p1061
ag6
aS'variable_37'
p1062
ag17
aS'if'
p1063
ag6
aS'func_24'
p1064
ag6
aS'variable_8'
p1065
ag11
ag116
aS'variable_51'
p1066
ag17
ag17
aS'if'
p1067
ag6
ag84
aS'variable_40'
p1068
aS'&&'
p1069
aS'func_25'
p1070
ag6
aS'variable_1'
p1071
ag11
aS'variable_1'
p1072
aS'->'
p1073
aS'variable_27'
p1074
ag11
ag116
aS'variable_1'
p1075
aS'->'
p1076
aS'variable_52'
p1077
ag11
aS'variable_8'
p1078
ag17
ag17
aS'variable_40'
p1079
ag20
aS'variable_35'
p1080
ag24
aS'if'
p1081
ag6
aS'variable_38'
p1082
ag17
aS'if'
p1083
ag6
ag84
aS'variable_40'
p1084
aS'&&'
p1085
aS'func_26'
p1086
ag6
aS'variable_1'
p1087
ag11
aS'variable_1'
p1088
aS'->'
p1089
aS'variable_53'
p1090
ag11
ag116
aS'variable_1'
p1091
aS'->'
p1092
aS'variable_54'
p1093
ag11
aS'variable_8'
p1094
ag17
ag17
aS'variable_40'
p1095
ag20
aS'variable_35'
p1096
ag24
aS'if'
p1097
ag6
aS'variable_39'
p1098
ag17
aS'if'
p1099
ag6
aS'func_27'
p1100
ag6
aS'variable_8'
p1101
ag11
aS'variable_1'
p1102
ag11
ag116
aS'variable_15'
p1103
ag11
aS'variable_26'
p1104
ag11
ag116
aS'variable_55'
p1105
ag11
aS'variable_25'
p1106
ag11
ag116
aS'variable_56'
p1107
ag17
ag17
aS'if'
p1108
ag6
ag84
aS'variable_40'
p1109
aS'&&'
p1110
aS'func_28'
p1111
ag6
aS'variable_1'
p1112
ag11
aS'variable_1'
p1113
aS'->'
p1114
aS'variable_57'
p1115
ag11
ag116
aS'variable_1'
p1116
aS'->'
p1117
aS'variable_58'
p1118
ag11
aS'variable_8'
p1119
ag17
ag17
aS'variable_40'
p1120
ag20
aS'variable_35'
p1121
ag24
aS'if'
p1122
ag6
aS'variable_37'
p1123
aS'&&'
p1124
aS'variable_20'
p1125
aS'&&'
p1126
ag84
aS'variable_40'
p1127
ag17
aS'if'
p1128
ag6
aS'variable_38'
p1129
aS'&&'
p1130
aS'variable_22'
p1131
aS'&&'
p1132
ag84
aS'variable_40'
p1133
ag17
aa(lp1134
S'static'
p1135
aS'int'
p1136
aS'func_0'
p1137
ag6
aS'struct'
p1138
aS'variable_0'
p1139
ag9
aS'variable_1'
p1140
ag11
aS'struct'
p1141
aS'variable_2'
p1142
ag9
aS'variable_3'
p1143
ag11
aS'int'
p1144
aS'variable_4'
p1145
ag17
aS'int'
p1146
aS'variable_5'
p1147
ag20
aS'variable_3'
p1148
aS'->'
p1149
aS'variable_6'
p1150
ag24
aS'int'
p1151
aS'variable_7'
p1152
ag20
aS'variable_5'
p1153
ag24
aS'const'
p1154
aS'char'
p1155
ag9
aS'variable_8'
p1156
ag20
aS'NULL'
p1157
ag24
aS'struct'
p1158
aS'variable_9'
p1159
ag9
aS'variable_10'
p1160
ag20
aS'func_1'
p1161
ag6
ag17
ag24
aS'struct'
p1162
aS'variable_9'
p1163
ag9
aS'variable_11'
p1164
ag20
aS'func_2'
p1165
ag6
ag17
ag24
aS'struct'
p1166
aS'variable_9'
p1167
ag9
aS'variable_12'
p1168
ag20
aS'func_3'
p1169
ag6
ag17
ag24
aS'struct'
p1170
aS'ast_rtp_codecs'
p1171
aS'variable_13'
p1172
ag11
aS'variable_14'
p1173
ag11
aS'variable_15'
p1174
ag24
aS'struct'
p1175
aS'variable_9'
p1176
ag9
aS'variable_16'
p1177
ag20
aS'func_4'
p1178
ag6
ag17
ag24
aS'struct'
p1179
aS'variable_9'
p1180
ag9
aS'variable_17'
p1181
ag20
aS'func_5'
p1182
ag6
ag17
ag24
aS'const'
p1183
aS'char'
p1184
ag9
aS'variable_18'
p1185
ag24
aS'int'
p1186
aS'variable_19'
p1187
ag24
aS'int'
p1188
aS'variable_20'
p1189
ag20
aS'variable_21'
p1190
ag24
aS'int'
p1191
aS'variable_22'
p1192
ag20
aS'variable_21'
p1193
ag24
aS'int'
p1194
aS'variable_23'
p1195
ag24
aS'int'
p1196
aS'variable_24'
p1197
ag20
ag72
ag24
aS'int'
p1198
aS'variable_25'
p1199
ag75
aS'10'
p1200
ag77
ag24
aS'char'
p1201
aS'variable_26'
p1202
ag75
aS'100'
p1203
ag77
ag20
ag81
aS'empty'
p1204
ag81
ag24
aS'if'
p1205
ag6
ag84
aS'variable_1'
p1206
aS'->'
p1207
aS'variable_27'
p1208
ag17
aS'if'
p1209
ag6
ag84
aS'variable_10'
p1210
aS'||'
p1211
ag84
aS'variable_11'
p1212
aS'||'
p1213
ag84
aS'variable_12'
p1214
aS'||'
p1215
ag84
aS'variable_17'
p1216
aS'||'
p1217
ag84
aS'variable_16'
p1218
ag17
aS'variable_1'
p1219
aS'->'
p1220
aS'variable_28'
p1221
ag20
aS'variable_1'
p1222
aS'->'
p1223
aS'variable_29'
p1224
ag20
aS'time'
p1225
ag6
aS'NULL'
p1226
ag17
ag24
aS'memset'
p1227
ag6
aS'variable_1'
p1228
aS'->'
p1229
aS'variable_30'
p1230
ag11
ag72
ag11
aS'sizeof'
p1231
ag6
aS'variable_1'
p1232
aS'->'
p1233
aS'variable_30'
p1234
ag17
ag17
ag24
aS'variable_31'
p1235
ag20
aS'func_6'
p1236
ag6
ag116
aS'variable_7'
p1237
ag11
aS'variable_3'
p1238
ag11
ag81
ag119
ag81
ag17
ag24
aS'if'
p1239
ag6
aS'func_7'
p1240
ag6
aS'variable_31'
p1241
ag17
ag17
aS'while'
p1242
ag6
ag6
aS'variable_32'
p1243
ag20
aS'func_8'
p1244
ag6
ag116
aS'variable_33'
p1245
ag11
aS'variable_7'
p1246
ag128
ag129
ag11
aS'variable_3'
p1247
ag11
ag116
aS'variable_8'
p1248
ag17
ag17
aS'!='
p1249
ag133
ag134
ag72
ag133
ag17
aS'switch'
p1250
ag6
aS'variable_32'
p1251
ag17
aS'if'
p1252
ag6
ag84
aS'func_9'
p1253
ag6
aS'variable_8'
p1254
ag11
aS'variable_1'
p1255
ag17
ag17
aS'variable_1'
p1256
aS'->'
p1257
aS'variable_34'
p1258
ag20
aS'variable_35'
p1259
ag24
aS'variable_1'
p1260
aS'->'
p1261
aS'variable_36'
p1262
ag20
aS'variable_35'
p1263
ag24
aS'while'
p1264
ag6
ag84
aS'func_10'
p1265
ag6
aS'variable_31'
p1266
ag17
ag17
aS'int'
p1267
aS'variable_37'
p1268
ag20
aS'variable_21'
p1269
ag24
aS'int'
p1270
aS'variable_38'
p1271
ag20
aS'variable_21'
p1272
ag24
aS'int'
p1273
aS'variable_39'
p1274
ag20
aS'variable_21'
p1275
ag24
aS'int'
p1276
aS'variable_40'
p1277
ag20
aS'variable_21'
p1278
ag24
aS'char'
p1279
aS'variable_41'
p1280
ag75
ag166
ag77
ag20
ag72
ag11
aS'int'
p1281
aS'variable_42'
p1282
ag24
aS'variable_23'
p1283
ag20
ag72
ag24
aS'variable_43'
p1284
ag20
ag128
ag129
ag24
aS'variable_44'
p1285
ag20
aS'variable_31'
p1286
ag24
aS'variable_33'
p1287
ag20
aS'variable_7'
p1288
ag24
aS'variable_31'
p1289
ag20
aS'func_11'
p1290
ag6
ag116
aS'variable_7'
p1291
ag11
aS'variable_3'
p1292
ag11
ag81
ag119
ag81
ag17
ag24
aS'if'
p1293
ag6
aS'strncmp'
p1294
ag6
aS'variable_44'
p1295
ag11
ag81
aS'audio'
p1296
ag81
ag11
ag183
ag17
aS'=='
p1297
ag72
ag17
aS'if'
p1298
ag6
ag6
aS'sscanf'
p1299
ag6
aS'variable_44'
p1300
ag11
ag81
aS'audio'
p1301
ag189
aS'30u'
p1302
ag191
ag189
aS'30u'
p1303
aS'RTP'
p1304
ag191
ag189
aS'4s'
p1305
ag189
ag195
ag81
ag11
ag116
aS'variable_42'
p1306
ag11
ag116
aS'variable_23'
p1307
ag11
aS'variable_41'
p1308
ag11
ag116
aS'variable_43'
p1309
ag17
aS'=='
p1310
ag201
aS'&&'
p1311
aS'variable_43'
p1312
ag204
ag72
ag17
aS'||'
p1313
ag6
aS'sscanf'
p1314
ag6
aS'variable_44'
p1315
ag11
ag81
aS'audio'
p1316
ag189
aS'30u'
p1317
aS'RTP'
p1318
ag191
ag189
aS'4s'
p1319
ag189
ag195
ag81
ag11
ag116
aS'variable_42'
p1320
ag11
aS'variable_41'
p1321
ag11
ag116
aS'variable_43'
p1322
ag17
aS'=='
p1323
ag216
aS'&&'
p1324
aS'variable_43'
p1325
ag204
ag72
ag17
ag17
aS'if'
p1326
ag6
aS'variable_42'
p1327
aS'=='
p1328
ag72
ag17
aS'if'
p1329
ag6
ag84
aS'strcmp'
p1330
ag6
aS'variable_41'
p1331
ag11
ag81
aS'SAVP'
p1332
ag81
ag17
ag17
aS'variable_20'
p1333
ag20
ag129
ag24
aS'if'
p1334
ag6
aS'strcmp'
p1335
ag6
aS'variable_41'
p1336
ag11
ag81
aS'AVP'
p1337
ag81
ag17
ag17
aS'if'
p1338
ag6
aS'variable_1'
p1339
aS'->'
p1340
aS'variable_30'
p1341
ag75
aS'variable_45'
p1342
ag77
ag236
aS'variable_46'
p1343
ag17
aS'variable_37'
p1344
ag20
aS'variable_35'
p1345
ag24
aS'variable_1'
p1346
aS'->'
p1347
aS'variable_30'
p1348
ag75
aS'variable_45'
p1349
ag77
ag236
aS'variable_46'
p1350
ag20
aS'++'
p1351
aS'variable_24'
p1352
ag24
aS'variable_18'
p1353
ag20
aS'variable_44'
p1354
ag249
aS'variable_43'
p1355
ag24
aS'func_12'
p1356
ag6
aS'variable_1'
p1357
aS'->'
p1358
aS'variable_30'
p1359
ag75
aS'variable_45'
p1360
ag77
ag236
aS'variable_18'
p1361
ag11
aS'variable_18'
p1362
ag11
aS'sizeof'
p1363
ag6
aS'variable_1'
p1364
aS'->'
p1365
aS'variable_30'
p1366
ag75
aS'variable_45'
p1367
ag77
ag236
aS'variable_18'
p1368
ag17
ag17
ag24
aS'for'
p1369
ag6
ag24
ag84
aS'func_13'
p1370
ag6
aS'variable_18'
p1371
ag17
ag24
aS'variable_18'
p1372
ag20
aS'func_14'
p1373
ag6
aS'variable_18'
p1374
ag249
aS'variable_43'
p1375
ag17
ag17
aS'if'
p1376
ag6
aS'sscanf'
p1377
ag6
aS'variable_18'
p1378
ag11
ag81
ag189
aS'30u'
p1379
ag189
ag195
ag81
ag11
ag116
aS'variable_19'
p1380
ag11
ag116
aS'variable_43'
p1381
ag17
aS'!='
p1382
ag129
ag17
aS'func_15'
p1383
ag6
aS'variable_47'
p1384
ag11
ag81
aS'Invalid'
p1385
aS'syntax'
p1386
aS'in'
p1387
aS'RTP'
p1388
aS'audio'
p1389
aS'format'
p1390
aS'list'
p1391
ag438
ag189
ag439
ag134
ag195
ag81
ag11
aS'variable_18'
p1392
ag17
ag24
aS'func_16'
p1393
ag6
ag81
aS'Found'
p1394
aS'RTP'
p1395
aS'audio'
p1396
aS'format'
p1397
ag189
ag446
ag134
ag195
ag81
ag11
aS'variable_19'
p1398
ag17
ag24
aS'func_17'
p1399
ag6
ag116
aS'variable_13'
p1400
ag11
aS'NULL'
p1401
ag11
aS'variable_19'
p1402
ag17
ag24
aS'if'
p1403
ag6
aS'strncmp'
p1404
ag6
aS'variable_44'
p1405
ag11
ag81
aS'video'
p1406
ag81
ag11
ag183
ag17
aS'=='
p1407
ag72
ag17
aS'if'
p1408
ag6
ag6
aS'sscanf'
p1409
ag6
aS'variable_44'
p1410
ag11
ag81
aS'video'
p1411
ag189
aS'30u'
p1412
ag191
ag189
aS'30u'
p1413
aS'RTP'
p1414
ag191
ag189
aS'4s'
p1415
ag189
ag195
ag81
ag11
ag116
aS'variable_42'
p1416
ag11
ag116
aS'variable_23'
p1417
ag11
aS'variable_41'
p1418
ag11
ag116
aS'variable_43'
p1419
ag17
aS'=='
p1420
ag201
aS'&&'
p1421
aS'variable_43'
p1422
ag204
ag72
ag17
aS'||'
p1423
ag6
aS'sscanf'
p1424
ag6
aS'variable_44'
p1425
ag11
ag81
aS'video'
p1426
ag189
aS'30u'
p1427
aS'RTP'
p1428
ag191
ag189
aS'4s'
p1429
ag189
ag195
ag81
ag11
ag116
aS'variable_42'
p1430
ag11
aS'variable_41'
p1431
ag11
ag116
aS'variable_43'
p1432
ag17
aS'=='
p1433
ag216
aS'&&'
p1434
aS'variable_43'
p1435
ag204
ag72
ag17
ag17
aS'if'
p1436
ag6
aS'variable_42'
p1437
aS'=='
p1438
ag72
ag17
aS'if'
p1439
ag6
ag84
aS'strcmp'
p1440
ag6
aS'variable_41'
p1441
ag11
ag81
aS'SAVP'
p1442
ag81
ag17
ag17
aS'variable_22'
p1443
ag20
ag129
ag24
aS'if'
p1444
ag6
aS'strcmp'
p1445
ag6
aS'variable_41'
p1446
ag11
ag81
aS'AVP'
p1447
ag81
ag17
ag17
aS'if'
p1448
ag6
aS'variable_1'
p1449
aS'->'
p1450
aS'variable_30'
p1451
ag75
aS'variable_48'
p1452
ag77
ag236
aS'variable_46'
p1453
ag17
aS'variable_38'
p1454
ag20
aS'variable_35'
p1455
ag24
aS'variable_1'
p1456
aS'->'
p1457
aS'variable_34'
p1458
ag20
aS'variable_21'
p1459
ag24
aS'variable_1'
p1460
aS'->'
p1461
aS'variable_30'
p1462
ag75
aS'variable_48'
p1463
ag77
ag236
aS'variable_46'
p1464
ag20
aS'++'
p1465
aS'variable_24'
p1466
ag24
aS'variable_18'
p1467
ag20
aS'variable_44'
p1468
ag249
aS'variable_43'
p1469
ag24
aS'for'
p1470
ag6
ag24
ag84
aS'func_18'
p1471
ag6
aS'variable_18'
p1472
ag17
ag24
aS'variable_18'
p1473
ag20
aS'func_19'
p1474
ag6
aS'variable_18'
p1475
ag249
aS'variable_43'
p1476
ag17
ag17
aS'if'
p1477
ag6
aS'sscanf'
p1478
ag6
aS'variable_18'
p1479
ag11
ag81
ag189
aS'30u'
p1480
ag189
ag195
ag81
ag11
ag116
aS'variable_19'
p1481
ag11
ag116
aS'variable_43'
p1482
ag17
aS'!='
p1483
ag129
ag17
aS'if'
p1484
ag6
aS'strncmp'
p1485
ag6
aS'variable_44'
p1486
ag11
ag81
aS'text'
p1487
ag81
ag11
ag166
ag17
aS'=='
p1488
ag72
ag17
aS'if'
p1489
ag6
ag6
aS'sscanf'
p1490
ag6
aS'variable_44'
p1491
ag11
ag81
aS'text'
p1492
ag189
aS'30u'
p1493
ag191
ag189
aS'30u'
p1494
aS'RTP'
p1495
ag191
aS'AVP'
p1496
ag189
ag195
ag81
ag11
ag116
aS'variable_42'
p1497
ag11
ag116
aS'variable_23'
p1498
ag11
ag116
aS'variable_43'
p1499
ag17
aS'=='
p1500
ag216
aS'&&'
p1501
aS'variable_43'
p1502
ag204
ag72
ag17
aS'||'
p1503
ag6
aS'sscanf'
p1504
ag6
aS'variable_44'
p1505
ag11
ag81
aS'text'
p1506
ag189
aS'30u'
p1507
aS'RTP'
p1508
ag191
aS'AVP'
p1509
ag189
ag195
ag81
ag11
ag116
aS'variable_42'
p1510
ag11
ag116
aS'variable_43'
p1511
ag17
aS'=='
p1512
ag129
aS'&&'
p1513
aS'variable_43'
p1514
ag204
ag72
ag17
ag17
aS'if'
p1515
ag6
aS'variable_42'
p1516
aS'=='
p1517
ag72
ag17
aS'if'
p1518
ag6
aS'variable_1'
p1519
aS'->'
p1520
aS'variable_30'
p1521
ag75
aS'variable_49'
p1522
ag77
ag236
aS'variable_46'
p1523
ag17
aS'variable_39'
p1524
ag20
aS'variable_35'
p1525
ag24
aS'variable_1'
p1526
aS'->'
p1527
aS'variable_36'
p1528
ag20
aS'variable_21'
p1529
ag24
aS'variable_1'
p1530
aS'->'
p1531
aS'variable_30'
p1532
ag75
aS'variable_49'
p1533
ag77
ag236
aS'variable_46'
p1534
ag20
aS'++'
p1535
aS'variable_24'
p1536
ag24
aS'variable_18'
p1537
ag20
aS'variable_44'
p1538
ag249
aS'variable_43'
p1539
ag24
aS'for'
p1540
ag6
ag24
ag84
aS'func_20'
p1541
ag6
aS'variable_18'
p1542
ag17
ag24
aS'variable_18'
p1543
ag20
aS'func_21'
p1544
ag6
aS'variable_18'
p1545
ag249
aS'variable_43'
p1546
ag17
ag17
aS'if'
p1547
ag6
aS'sscanf'
p1548
ag6
aS'variable_18'
p1549
ag11
ag81
ag189
aS'30u'
p1550
ag189
ag195
ag81
ag11
ag116
aS'variable_19'
p1551
ag11
ag116
aS'variable_43'
p1552
ag17
aS'!='
p1553
ag129
ag17
aS'if'
p1554
ag6
aS'strncmp'
p1555
ag6
aS'variable_44'
p1556
ag11
ag81
aS'image'
p1557
ag81
ag11
ag183
ag17
aS'=='
p1558
ag72
ag17
aS'if'
p1559
ag6
ag6
aS'sscanf'
p1560
ag6
aS'variable_44'
p1561
ag11
ag81
aS'image'
p1562
ag189
aS'30u'
p1563
aS'udptl'
p1564
aS't38'
p1565
ag189
ag195
ag81
ag11
ag116
aS'variable_42'
p1566
ag11
ag116
aS'variable_43'
p1567
ag17
aS'=='
p1568
ag129
aS'&&'
p1569
aS'variable_43'
p1570
ag204
ag72
ag17
aS'||'
p1571
ag6
aS'sscanf'
p1572
ag6
aS'variable_44'
p1573
ag11
ag81
aS'image'
p1574
ag189
aS'30u'
p1575
aS'UDPTL'
p1576
aS't38'
p1577
ag189
ag195
ag81
ag11
ag116
aS'variable_42'
p1578
ag11
ag116
aS'variable_43'
p1579
ag17
aS'=='
p1580
ag129
aS'&&'
p1581
aS'variable_43'
p1582
ag204
ag72
ag17
ag17
aS'if'
p1583
ag6
aS'variable_42'
p1584
aS'=='
p1585
ag72
ag17
aS'if'
p1586
ag6
aS'func_22'
p1587
ag6
aS'variable_1'
p1588
ag17
ag17
aS'if'
p1589
ag6
aS'variable_1'
p1590
aS'->'
p1591
aS'variable_30'
p1592
ag75
aS'variable_50'
p1593
ag77
ag236
aS'variable_46'
p1594
ag17
aS'variable_1'
p1595
aS'->'
p1596
aS'variable_30'
p1597
ag75
aS'variable_50'
p1598
ag77
ag236
aS'variable_46'
p1599
ag20
aS'++'
p1600
aS'variable_24'
p1601
ag24
aS'while'
p1602
ag6
ag6
aS'variable_32'
p1603
ag20
aS'func_23'
p1604
ag6
ag116
aS'variable_33'
p1605
ag11
aS'variable_7'
p1606
ag128
ag129
ag11
aS'variable_3'
p1607
ag11
ag116
aS'variable_8'
p1608
ag17
ag17
aS'!='
p1609
ag133
ag134
ag72
ag133
ag17
aS'switch'
p1610
ag6
aS'variable_32'
p1611
ag17
aS'if'
p1612
ag6
aS'variable_37'
p1613
ag17
aS'if'
p1614
ag6
aS'func_24'
p1615
ag6
aS'variable_8'
p1616
ag11
ag116
aS'variable_51'
p1617
ag17
ag17
aS'if'
p1618
ag6
ag84
aS'variable_40'
p1619
aS'&&'
p1620
aS'func_25'
p1621
ag6
aS'variable_1'
p1622
ag11
aS'variable_1'
p1623
aS'->'
p1624
aS'variable_27'
p1625
ag11
ag116
aS'variable_1'
p1626
aS'->'
p1627
aS'variable_52'
p1628
ag11
aS'variable_8'
p1629
ag17
ag17
aS'variable_40'
p1630
ag20
aS'variable_35'
p1631
ag24
aS'if'
p1632
ag6
aS'variable_38'
p1633
ag17
aS'if'
p1634
ag6
ag84
aS'variable_40'
p1635
aS'&&'
p1636
aS'func_26'
p1637
ag6
aS'variable_1'
p1638
ag11
aS'variable_1'
p1639
aS'->'
p1640
aS'variable_53'
p1641
ag11
ag116
aS'variable_1'
p1642
aS'->'
p1643
aS'variable_54'
p1644
ag11
aS'variable_8'
p1645
ag17
ag17
aS'variable_40'
p1646
ag20
aS'variable_35'
p1647
ag24
aS'if'
p1648
ag6
aS'variable_39'
p1649
ag17
aS'if'
p1650
ag6
aS'func_27'
p1651
ag6
aS'variable_8'
p1652
ag11
aS'variable_1'
p1653
ag11
ag116
aS'variable_15'
p1654
ag11
aS'variable_26'
p1655
ag11
ag116
aS'variable_55'
p1656
ag11
aS'variable_25'
p1657
ag11
ag116
aS'variable_56'
p1658
ag17
ag17
aS'if'
p1659
ag6
ag84
aS'variable_40'
p1660
aS'&&'
p1661
aS'func_28'
p1662
ag6
aS'variable_1'
p1663
ag11
aS'variable_1'
p1664
aS'->'
p1665
aS'variable_57'
p1666
ag11
ag116
aS'variable_1'
p1667
aS'->'
p1668
aS'variable_58'
p1669
ag11
aS'variable_8'
p1670
ag17
ag17
aS'variable_40'
p1671
ag20
aS'variable_35'
p1672
ag24
aS'if'
p1673
ag6
aS'variable_37'
p1674
aS'&&'
p1675
aS'variable_20'
p1676
aS'&&'
p1677
ag84
aS'variable_40'
p1678
ag17
aS'if'
p1679
ag6
aS'variable_38'
p1680
aS'&&'
p1681
aS'variable_22'
p1682
aS'&&'
p1683
ag84
aS'variable_40'
p1684
ag17
aaa(lp1685
I0
aI0
aI0
aa(lp1686
I849
aI681
aI480
aa(lp1687
(lp1688
S'main'
p1689
aa(lp1690
g1689
aa(lp1691
g1689
aaa(lp1692
S'535 /home/SySeVR/data/CVE_2013_5642_VULN_process_sdp.c codecs = m + len 287'
p1693
aS'536 /home/SySeVR/data/CVE_2013_5642_VULN_process_sdp.c codecs = m + len 242'
p1694
aS'537 /home/SySeVR/data/CVE_2013_5642_VULN_process_sdp.c codecs = m + len 189'
p1695
aa.