(lp0
(lp1
(lp2
S'static'
p3
aS'int'
p4
aS'func_0'
p5
aS'('
p6
aS'struct'
p7
aS'variable_0'
p8
aS'*'
p9
aS'variable_1'
p10
aS')'
p11
aS'struct'
p12
aS'variable_2'
p13
ag9
aS'variable_3'
p14
aS'='
p15
aS'func_1'
p16
ag6
aS'variable_1'
p17
ag11
aS';'
p18
aS'ext4_group_t'
p19
aS'variable_4'
p20
ag18
aS'size_t'
p21
aS'variable_5'
p22
ag18
aS'variable_3'
p23
aS'->'
p24
aS'variable_6'
p25
ag15
aS'variable_3'
p26
aS'->'
p27
aS'variable_7'
p28
aS'->'
p29
aS'variable_6'
p30
ag18
aS'variable_8'
p31
ag15
aS'1'
p32
aS'<<'
p33
aS'variable_3'
p34
aS'->'
p35
aS'variable_6'
p36
ag18
aS'if'
p37
ag6
aS'variable_8'
p38
aS'<'
p39
aS'2'
p40
ag11
aS'variable_4'
p41
ag15
ag6
ag6
aS'variable_3'
p42
aS'->'
p43
aS'variable_9'
p44
aS'+'
p45
aS'variable_8'
p46
aS'-'
p47
ag32
ag11
ag45
ag6
ag6
aS'func_2'
p48
ag6
aS'variable_3'
p49
aS'->'
p50
aS'variable_7'
p51
aS'->'
p52
aS'variable_10'
p53
ag11
ag45
ag32
ag11
aS'<<'
p54
aS'func_3'
p55
ag6
aS'variable_1'
p56
ag11
ag11
ag11
aS'/'
p57
aS'variable_8'
p58
ag18
aS'variable_5'
p59
ag15
aS'variable_4'
p60
ag9
aS'sizeof'
p61
ag6
aS'struct'
p62
aS'variable_11'
p63
ag11
ag18
aS'variable_3'
p64
aS'->'
p65
aS'variable_12'
p66
ag15
aS'func_4'
p67
ag6
aS'variable_5'
p68
aS','
p69
aS'variable_13'
p70
ag11
ag18
aS'if'
p71
ag6
aS'variable_3'
p72
aS'->'
p73
aS'variable_12'
p74
aS'=='
p75
aS'NULL'
p76
ag11
aS'variable_3'
p77
aS'->'
p78
aS'variable_12'
p79
ag15
aS'vmalloc'
p80
ag6
aS'variable_5'
p81
ag11
ag18
aS'if'
p82
ag6
aS'variable_3'
p83
aS'->'
p84
aS'variable_12'
p85
ag11
aS'memset'
p86
ag6
aS'variable_3'
p87
aS'->'
p88
aS'variable_12'
p89
ag69
aS'0'
p90
ag69
aS'variable_5'
p91
ag11
ag18
aS'if'
p92
ag6
aS'variable_3'
p93
aS'->'
p94
aS'variable_12'
p95
aS'=='
p96
aS'NULL'
p97
ag11
aS'for'
p98
ag6
aS'variable_14'
p99
ag15
ag90
ag18
aS'variable_14'
p100
ag39
aS'variable_3'
p101
aS'->'
p102
aS'variable_9'
p103
ag18
aS'variable_14'
p104
aS'++'
p105
ag11
aS'variable_15'
p106
ag15
aS'func_5'
p107
ag6
aS'variable_3'
p108
ag69
aS'variable_14'
p109
ag11
ag18
aS'func_6'
p110
ag6
aS'func_7'
p111
ag6
aS'variable_1'
p112
ag69
aS'variable_16'
p113
ag11
ag69
aS'&'
p114
aS'variable_3'
p115
aS'->'
p116
aS'variable_12'
p117
aS'['
p118
aS'variable_15'
p119
aS']'
p120
aS'.'
p121
aS'variable_17'
p122
ag11
ag18
aS'func_8'
p123
ag6
aS'func_9'
p124
ag6
aS'variable_1'
p125
ag69
aS'variable_16'
p126
ag11
ag69
ag114
aS'variable_3'
p127
aS'->'
p128
aS'variable_12'
p129
ag118
aS'variable_15'
p130
ag120
ag121
aS'variable_18'
p131
ag11
ag18
aS'func_10'
p132
ag6
aS'func_11'
p133
ag6
aS'variable_1'
p134
ag69
aS'variable_16'
p135
ag11
ag69
ag114
aS'variable_3'
p136
aS'->'
p137
aS'variable_12'
p138
ag118
aS'variable_15'
p139
ag120
ag121
aS'variable_19'
p140
ag11
ag18
aa(lp141
S'static'
p142
aS'int'
p143
aS'func_0'
p144
ag6
aS'struct'
p145
aS'variable_0'
p146
ag9
aS'variable_1'
p147
ag11
aS'struct'
p148
aS'variable_2'
p149
ag9
aS'variable_3'
p150
ag15
aS'func_1'
p151
ag6
aS'variable_1'
p152
ag11
ag18
aS'ext4_group_t'
p153
aS'variable_4'
p154
ag18
aS'variable_3'
p155
aS'->'
p156
aS'variable_5'
p157
ag15
aS'variable_3'
p158
aS'->'
p159
aS'variable_6'
p160
aS'->'
p161
aS'variable_5'
p162
ag18
aS'variable_7'
p163
ag15
ag32
aS'<<'
p164
aS'variable_3'
p165
aS'->'
p166
aS'variable_5'
p167
ag18
aS'if'
p168
ag6
aS'variable_7'
p169
ag39
ag40
ag11
aS'variable_4'
p170
ag15
ag6
ag6
aS'variable_3'
p171
aS'->'
p172
aS'variable_8'
p173
ag45
aS'variable_7'
p174
ag47
ag32
ag11
ag45
ag6
ag6
aS'func_2'
p175
ag6
aS'variable_3'
p176
aS'->'
p177
aS'variable_6'
p178
aS'->'
p179
aS'variable_9'
p180
ag11
ag45
ag32
ag11
aS'<<'
p181
aS'func_3'
p182
ag6
aS'variable_1'
p183
ag11
ag11
ag11
ag57
aS'variable_7'
p184
ag18
aS'variable_10'
p185
ag15
aS'variable_4'
p186
ag9
aS'sizeof'
p187
ag6
aS'struct'
p188
aS'variable_11'
p189
ag11
ag18
aS'variable_3'
p190
aS'->'
p191
aS'variable_12'
p192
ag15
aS'func_4'
p193
ag6
aS'variable_10'
p194
ag69
aS'variable_13'
p195
ag11
ag18
aS'if'
p196
ag6
aS'variable_3'
p197
aS'->'
p198
aS'variable_12'
p199
aS'=='
p200
aS'NULL'
p201
ag11
aS'variable_3'
p202
aS'->'
p203
aS'variable_12'
p204
ag15
aS'vmalloc'
p205
ag6
aS'variable_10'
p206
ag11
ag18
aS'if'
p207
ag6
aS'variable_3'
p208
aS'->'
p209
aS'variable_12'
p210
ag11
aS'memset'
p211
ag6
aS'variable_3'
p212
aS'->'
p213
aS'variable_12'
p214
ag69
ag90
ag69
aS'variable_10'
p215
ag11
ag18
aS'if'
p216
ag6
aS'variable_3'
p217
aS'->'
p218
aS'variable_12'
p219
aS'=='
p220
aS'NULL'
p221
ag11
aS'func_5'
p222
ag6
aS'variable_1'
p223
ag69
aS'variable_14'
p224
ag69
aS'"'
p225
aS'%'
p226
aS'u'
p227
aS'flex'
p228
aS'groups'
p229
ag225
ag69
aS'variable_4'
p230
ag11
aS'for'
p231
ag6
aS'variable_15'
p232
ag15
ag90
ag18
aS'variable_15'
p233
ag39
aS'variable_3'
p234
aS'->'
p235
aS'variable_8'
p236
ag18
aS'variable_15'
p237
aS'++'
p238
ag11
aS'variable_16'
p239
ag15
aS'func_6'
p240
ag6
aS'variable_3'
p241
ag69
aS'variable_15'
p242
ag11
ag18
aS'func_7'
p243
ag6
aS'func_8'
p244
ag6
aS'variable_1'
p245
ag69
aS'variable_17'
p246
ag11
ag69
ag114
aS'variable_3'
p247
aS'->'
p248
aS'variable_12'
p249
ag118
aS'variable_16'
p250
ag120
ag121
aS'variable_18'
p251
ag11
ag18
aS'func_9'
p252
ag6
aS'func_10'
p253
ag6
aS'variable_1'
p254
ag69
aS'variable_17'
p255
ag11
ag69
ag114
aS'variable_3'
p256
aS'->'
p257
aS'variable_12'
p258
ag118
aS'variable_16'
p259
ag120
ag121
aS'variable_19'
p260
ag11
ag18
aS'func_11'
p261
ag6
aS'func_12'
p262
ag6
aS'variable_1'
p263
ag69
aS'variable_17'
p264
ag11
ag69
ag114
aS'variable_3'
p265
aS'->'
p266
aS'variable_12'
p267
ag118
aS'variable_16'
p268
ag120
ag121
aS'variable_20'
p269
ag11
ag18
aaa(lp270
I1
aI1
aa(lp271
I93
aI54
aa(lp272
(lp273
S'main'
p274
aa(lp275
g274
aaa(lp276
S'297 /home/SySeVR/data/CVE_2012_2100_VULN_ext4_fill_flex_info.c size = flex_group_count * sizeof ( struct flex_groups ) 23'
p277
aS'298 /home/SySeVR/data/CVE_2012_2100_VULN_ext4_fill_flex_info.c flex_group_count = ( ( sbi -> s_groups_count + groups_per_flex - 1 ) + ( ( le16_to_cpu ( sbi -> s_es -> s_reserved_gdt_blocks ) + 1 ) << EXT4_DESC_PER_BLOCK_BITS ( sb ) ) ) / groups_per_flex 20'
p278
aa.