(lp0
(lp1
(lp2
S'func_0'
p3
aS'('
p4
aS'char'
p5
aS'*'
p6
aS'variable_0'
p7
aS'['
p8
aS']'
p9
aS')'
p10
aS'if'
p11
ag4
aS'variable_1'
p12
aS'<'
p13
aS'1'
p14
ag10
aS'const'
p15
aS'int'
p16
aS'variable_2'
p17
aS'='
p18
aS'1000'
p19
aS';'
p20
aS'MachSendMessage'
p21
aS'func_1'
p22
ag4
aS'0'
p23
ag10
ag20
aS'if'
p24
ag4
aS'!'
p25
aS'variable_3'
p26
aS'.'
p27
aS'func_2'
p28
ag4
aS'func_3'
p29
ag4
aS'func_4'
p30
ag4
ag10
ag10
ag10
ag10
aS'ReceivePort'
p31
aS'variable_4'
p32
ag20
aS'mach_port_t'
p33
aS'variable_5'
p34
ag18
aS'variable_4'
p35
ag27
aS'func_5'
p36
ag4
ag10
ag20
aS'if'
p37
ag4
ag25
aS'variable_3'
p38
ag27
aS'func_6'
p39
ag4
aS'func_7'
p40
ag4
aS'variable_5'
p41
ag10
ag10
ag10
aS'MachPortSender'
p42
aS'func_8'
p43
ag4
aS'variable_6'
p44
ag10
ag20
aS'kern_return_t'
p45
aS'variable_7'
p46
ag18
aS'variable_8'
p47
ag27
aS'SendMessage'
p48
ag4
aS'variable_3'
p49
aS','
p50
aS'variable_2'
p51
ag10
ag20
aS'if'
p52
ag4
aS'variable_7'
p53
aS'!='
p54
aS'variable_9'
p55
ag10
aS'MachReceiveMessage'
p56
aS'variable_10'
p57
ag20
aS'variable_7'
p58
ag18
aS'variable_4'
p59
ag27
aS'func_9'
p60
ag4
aS'&'
p61
aS'variable_10'
p62
ag50
aS'variable_2'
p63
ag10
ag20
aS'if'
p64
ag4
aS'variable_7'
p65
aS'!='
p66
aS'variable_9'
p67
ag10
aS'if'
p68
ag4
aS'variable_10'
p69
ag27
aS'func_10'
p70
ag4
ag23
ag10
aS'=='
p71
aS'variable_11'
p72
ag10
aS'variable_7'
p73
ag18
aS'func_11'
p74
ag4
aS'func_12'
p75
ag4
ag10
ag50
aS'variable_10'
p76
ag27
aS'func_13'
p77
ag4
ag23
ag10
ag10
ag20
aS'if'
p78
ag4
aS'variable_7'
p79
aS'!='
p80
aS'variable_9'
p81
ag10
aS'if'
p82
ag4
aS'variable_1'
p83
ag13
ag14
ag10
aS'nsresult'
p84
aS'variable_12'
p85
ag18
aS'func_14'
p86
ag4
aS'variable_1'
p87
ag50
aS'variable_0'
p88
ag10
ag20
aS'if'
p89
ag4
aS'func_15'
p90
ag4
aS'variable_12'
p91
ag10
ag10
aS'switch'
p92
ag4
aS'func_16'
p93
ag4
ag10
ag10
aS'for'
p94
ag4
aS'int'
p95
aS'variable_13'
p96
ag18
aS'variable_1'
p97
ag20
aS'variable_13'
p98
aS'>'
p99
ag23
ag20
aS'variable_13'
p100
aS'--'
p101
ag10
aS'if'
p102
ag4
aS'variable_0'
p103
ag8
aS'variable_13'
p104
ag9
aS'&&'
p105
ag25
aS'strcmp'
p106
ag4
aS'variable_0'
p107
ag8
aS'variable_13'
p108
ag9
ag50
aS'"'
p109
aS'-'
p110
aS'appdir'
p111
ag109
ag10
ag10
aa(lp112
S'func_0'
p113
ag4
aS'char'
p114
ag6
aS'variable_0'
p115
ag8
ag9
ag10
aS'if'
p116
ag4
aS'variable_1'
p117
ag13
ag14
ag10
aS'const'
p118
aS'int'
p119
aS'variable_2'
p120
ag18
aS'1000'
p121
ag20
aS'MachSendMessage'
p122
aS'func_1'
p123
ag4
ag23
ag10
ag20
aS'if'
p124
ag4
ag25
aS'variable_3'
p125
ag27
aS'func_2'
p126
ag4
aS'func_3'
p127
ag4
aS'func_4'
p128
ag4
ag10
ag10
ag10
ag10
aS'ReceivePort'
p129
aS'variable_4'
p130
ag20
aS'mach_port_t'
p131
aS'variable_5'
p132
ag18
aS'variable_4'
p133
ag27
aS'func_5'
p134
ag4
ag10
ag20
aS'if'
p135
ag4
ag25
aS'variable_3'
p136
ag27
aS'func_6'
p137
ag4
aS'func_7'
p138
ag4
aS'variable_5'
p139
ag10
ag10
ag10
aS'MachPortSender'
p140
aS'func_8'
p141
ag4
aS'variable_6'
p142
ag10
ag20
aS'kern_return_t'
p143
aS'variable_7'
p144
ag18
aS'variable_8'
p145
ag27
aS'SendMessage'
p146
ag4
aS'variable_3'
p147
ag50
aS'variable_2'
p148
ag10
ag20
aS'if'
p149
ag4
aS'variable_7'
p150
aS'!='
p151
aS'variable_9'
p152
ag10
aS'MachReceiveMessage'
p153
aS'variable_10'
p154
ag20
aS'variable_7'
p155
ag18
aS'variable_4'
p156
ag27
aS'func_9'
p157
ag4
ag61
aS'variable_10'
p158
ag50
aS'variable_2'
p159
ag10
ag20
aS'if'
p160
ag4
aS'variable_7'
p161
aS'!='
p162
aS'variable_9'
p163
ag10
aS'if'
p164
ag4
aS'variable_10'
p165
ag27
aS'func_10'
p166
ag4
ag23
ag10
aS'=='
p167
aS'variable_11'
p168
ag10
aS'variable_7'
p169
ag18
aS'func_11'
p170
ag4
aS'func_12'
p171
ag4
ag10
ag50
aS'variable_10'
p172
ag27
aS'func_13'
p173
ag4
ag23
ag10
ag10
ag20
aS'if'
p174
ag4
aS'variable_7'
p175
aS'!='
p176
aS'variable_9'
p177
ag10
aS'if'
p178
ag4
aS'variable_1'
p179
ag13
ag14
ag10
aS'const'
p180
aS'char'
p181
ag6
aS'const'
p182
aS'variable_12'
p183
ag18
aS'variable_0'
p184
ag8
aS'--'
p185
aS'variable_1'
p186
ag9
aS'if'
p187
ag4
ag23
aS'!='
p188
aS'strcmp'
p189
ag4
ag109
aS'false'
p190
ag109
ag50
aS'variable_12'
p191
ag10
aS'&&'
p192
ag25
aS'func_14'
p193
ag4
aS'variable_13'
p194
ag10
ag10
aa(lp195
S'func_0'
p196
ag4
aS'char'
p197
ag6
aS'variable_0'
p198
ag8
ag9
ag10
aS'if'
p199
ag4
aS'variable_1'
p200
ag13
ag14
ag10
aS'const'
p201
aS'int'
p202
aS'variable_2'
p203
ag18
aS'1000'
p204
ag20
aS'MachSendMessage'
p205
aS'func_1'
p206
ag4
ag23
ag10
ag20
aS'if'
p207
ag4
ag25
aS'variable_3'
p208
ag27
aS'func_2'
p209
ag4
aS'func_3'
p210
ag4
aS'func_4'
p211
ag4
ag10
ag10
ag10
ag10
aS'ReceivePort'
p212
aS'variable_4'
p213
ag20
aS'mach_port_t'
p214
aS'variable_5'
p215
ag18
aS'variable_4'
p216
ag27
aS'func_5'
p217
ag4
ag10
ag20
aS'if'
p218
ag4
ag25
aS'variable_3'
p219
ag27
aS'func_6'
p220
ag4
aS'func_7'
p221
ag4
aS'variable_5'
p222
ag10
ag10
ag10
aS'MachPortSender'
p223
aS'func_8'
p224
ag4
aS'variable_6'
p225
ag10
ag20
aS'kern_return_t'
p226
aS'variable_7'
p227
ag18
aS'variable_8'
p228
ag27
aS'SendMessage'
p229
ag4
aS'variable_3'
p230
ag50
aS'variable_2'
p231
ag10
ag20
aS'if'
p232
ag4
aS'variable_7'
p233
aS'!='
p234
aS'variable_9'
p235
ag10
aS'MachReceiveMessage'
p236
aS'variable_10'
p237
ag20
aS'variable_7'
p238
ag18
aS'variable_4'
p239
ag27
aS'func_9'
p240
ag4
ag61
aS'variable_10'
p241
ag50
aS'variable_2'
p242
ag10
ag20
aS'if'
p243
ag4
aS'variable_7'
p244
aS'!='
p245
aS'variable_9'
p246
ag10
aS'if'
p247
ag4
aS'variable_10'
p248
ag27
aS'func_10'
p249
ag4
ag23
ag10
aS'=='
p250
aS'variable_11'
p251
ag10
aS'variable_7'
p252
ag18
aS'func_11'
p253
ag4
aS'func_12'
p254
ag4
ag10
ag50
aS'variable_10'
p255
ag27
aS'func_13'
p256
ag4
ag23
ag10
ag10
ag20
aS'if'
p257
ag4
aS'variable_7'
p258
aS'!='
p259
aS'variable_9'
p260
ag10
aS'if'
p261
ag4
aS'variable_1'
p262
ag13
ag14
ag10
aS'const'
p263
aS'char'
p264
ag6
aS'const'
p265
aS'variable_12'
p266
ag18
aS'variable_0'
p267
ag8
aS'--'
p268
aS'variable_1'
p269
ag9
aS'if'
p270
ag4
ag23
aS'!='
p271
aS'strcmp'
p272
ag4
ag109
ag110
ag109
ag50
aS'variable_12'
p273
ag10
aS'&&'
p274
ag25
aS'func_14'
p275
ag4
aS'variable_12'
p276
ag10
ag10
aaa(lp277
I0
aI0
aI0
aa(lp278
I195
aI165
aI165
aa(lp279
(lp280
S'main'
p281
aa(lp282
g281
aa(lp283
g281
aaa(lp284
S'770 /home/SySeVR/data/CVE_2014_8643_VULN_XRE_InitChildProcess.c strcmp 224'
p285
aS'771 /home/SySeVR/data/CVE_2014_8643_VULN_XRE_InitChildProcess.c strcmp 106'
p286
aS'772 /home/SySeVR/data/CVE_2014_8643_VULN_XRE_InitChildProcess.c strcmp 98'
p287
aa.