(lp0
(lp1
(lp2
S'static'
p3
aS'int'
p4
aS'func_0'
p5
aS'('
p6
aS'variable_0'
p7
aS'*'
p8
aS'variable_1'
p9
aS','
p10
aS'variable_0'
p11
ag8
aS'const'
p12
aS'DVprofile'
p13
ag8
aS'variable_2'
p14
aS')'
p15
aS'int'
p16
aS'variable_3'
p17
ag10
aS'variable_4'
p18
ag10
aS'variable_5'
p19
ag10
aS'variable_6'
p20
ag10
aS'variable_7'
p21
ag10
aS'variable_8'
p22
ag10
aS'variable_9'
p23
ag10
aS'variable_10'
p24
ag10
aS'variable_11'
p25
ag10
aS'variable_12'
p26
aS';'
p27
aS'const'
p28
aS'uint8_t'
p29
ag8
aS'variable_13'
p30
ag27
aS'variable_0'
p31
ag8
aS'variable_14'
p32
ag10
aS'variable_15'
p33
ag27
aS'variable_13'
p34
aS'='
p35
aS'func_1'
p36
ag6
aS'variable_1'
p37
ag10
aS'variable_16'
p38
ag15
ag27
aS'if'
p39
ag6
aS'!'
p40
aS'variable_13'
p41
ag15
aS'variable_9'
p42
ag35
aS'variable_13'
p43
aS'['
p44
aS'1'
p45
aS']'
p46
aS'&'
p47
aS'0x3f'
p48
ag27
aS'variable_10'
p49
ag35
ag6
aS'variable_13'
p50
ag44
aS'4'
p51
ag46
aS'>>'
p52
aS'3'
p53
ag15
ag47
aS'0x07'
p54
ag27
aS'variable_11'
p55
ag35
aS'variable_13'
p56
ag44
ag51
ag46
ag47
aS'0x07'
p57
ag27
aS'if'
p58
ag6
aS'variable_11'
p59
aS'>'
p60
ag45
ag15
aS'variable_3'
p61
ag35
ag6
aS'variable_2'
p62
aS'->'
p63
aS'variable_17'
p64
ag44
aS'variable_10'
p65
ag46
aS'+'
p66
aS'variable_9'
p67
ag15
ag8
ag51
ag27
aS'variable_12'
p68
ag35
aS'variable_2'
p69
aS'->'
p70
aS'variable_18'
p71
aS'/'
p72
aS'2'
p73
ag27
aS'variable_15'
p74
ag35
ag6
aS'variable_2'
p75
aS'->'
p76
aS'variable_19'
p77
aS'=='
p78
aS'720'
p79
aS'&&'
p80
ag40
ag6
aS'variable_1'
p81
ag44
ag45
ag46
ag47
aS'0x0C'
p82
ag15
ag15
aS'?'
p83
ag73
aS':'
p84
aS'0'
p85
ag27
aS'for'
p86
ag6
aS'variable_4'
p87
ag35
ag85
ag27
aS'variable_4'
p88
aS'<'
p89
aS'variable_2'
p90
aS'->'
p91
aS'variable_20'
p92
ag27
aS'variable_4'
p93
aS'++'
p94
ag15
aS'variable_14'
p95
ag35
aS'variable_21'
p96
ag44
aS'variable_15'
p97
aS'++'
p98
ag46
ag27
aS'if'
p99
ag6
ag40
aS'variable_14'
p100
ag15
aS'for'
p101
ag6
aS'variable_5'
p102
ag35
ag85
ag27
aS'variable_5'
p103
ag89
aS'variable_2'
p104
aS'->'
p105
aS'variable_18'
p106
ag27
aS'variable_5'
p107
aS'++'
p108
ag15
aS'if'
p109
ag6
aS'variable_11'
p110
aS'=='
p111
ag45
aS'&&'
p112
aS'variable_5'
p113
aS'=='
p114
aS'variable_12'
p115
ag15
aS'variable_14'
p116
ag35
aS'variable_21'
p117
ag44
aS'variable_15'
p118
aS'++'
p119
ag46
ag27
aS'if'
p120
ag6
ag40
aS'variable_14'
p121
ag15
aS'for'
p122
ag6
aS'variable_6'
p123
ag35
ag85
ag27
aS'variable_6'
p124
ag89
aS'9'
p125
ag27
aS'variable_6'
p126
aS'++'
p127
ag15
aS'for'
p128
ag6
aS'variable_7'
p129
ag35
aS'8'
p130
ag27
aS'variable_7'
p131
ag89
aS'80'
p132
ag27
aS'variable_7'
p133
aS'+='
p134
ag73
ag15
aS'if'
p135
ag6
aS'variable_11'
p136
aS'=='
p137
ag85
ag15
aS'variable_8'
p138
ag35
aS'variable_2'
p139
aS'->'
p140
aS'variable_22'
p141
ag44
aS'variable_5'
p142
ag46
ag44
aS'variable_6'
p143
ag46
ag66
ag6
aS'variable_7'
p144
aS'-'
p145
ag130
ag15
ag72
ag73
ag8
aS'variable_2'
p146
aS'->'
p147
aS'variable_23'
p148
ag27
aS'if'
p149
ag6
aS'variable_8'
p150
ag8
ag73
ag60
ag35
aS'variable_3'
p151
ag15
aS'variable_8'
p152
ag35
aS'variable_2'
p153
aS'->'
p154
aS'variable_22'
p155
ag44
aS'variable_5'
p156
aS'%'
p157
aS'variable_12'
p158
ag46
ag44
aS'variable_6'
p159
ag46
ag66
ag6
aS'variable_7'
p160
ag145
ag130
ag15
ag72
ag53
ag8
aS'variable_2'
p161
aS'->'
p162
aS'variable_23'
p163
ag27
aS'if'
p164
ag6
aS'variable_8'
p165
ag8
ag73
ag60
ag35
aS'variable_3'
p166
ag15
aS'variable_8'
p167
ag35
aS'variable_2'
p168
aS'->'
p169
aS'variable_22'
p170
ag44
aS'variable_5'
p171
ag157
aS'variable_12'
p172
ag66
aS'variable_12'
p173
ag46
ag44
aS'variable_6'
p174
ag46
ag66
ag6
aS'variable_7'
p175
ag145
ag130
ag15
ag72
ag53
ag8
aS'variable_2'
p176
aS'->'
p177
aS'variable_23'
p178
ag27
aS'variable_14'
p179
ag44
aS'variable_8'
p180
ag8
ag73
ag46
ag35
aS'variable_24'
p181
ag47
aS'0xff'
p182
ag27
aS'variable_14'
p183
ag44
aS'variable_8'
p184
ag8
ag73
ag66
ag45
ag46
ag35
aS'variable_24'
p185
aS'>>'
p186
ag130
ag27
aaa(lp187
I0
aa(lp188
I336
aa(lp189
(lp190
S'main'
p191
aaa(lp192
S'257 /home/SySeVR/data/CVE_2011_3936_PATCHED_dv_extract_audio.c of = sys -> audio_shuffle [ i % half_ch + half_ch ] [ j ] + ( d - 8 ) / 3 * sys -> audio_stride 70'
p193
aa.