(lp0
(lp1
(lp2
S'static'
p3
aS'int'
p4
aS'func_0'
p5
aS'('
p6
aS'struct'
p7
aS'variable_0'
p8
aS'*'
p9
aS'variable_1'
p10
aS','
p11
aS'int'
p12
aS'variable_2'
p13
aS')'
p14
aS'const'
p15
aS'unsigned'
p16
aS'char'
p17
ag9
aS'variable_3'
p18
aS'='
p19
aS'func_1'
p20
ag6
aS'variable_1'
p21
ag14
aS';'
p22
aS'u32'
p23
aS'variable_4'
p24
ag22
aS'if'
p25
ag6
aS'variable_3'
p26
aS'['
p27
aS'variable_2'
p28
aS'+'
p29
aS'1'
p30
aS']'
p31
aS'!='
p32
aS'4'
p33
aS'||'
p34
ag6
aS'variable_2'
p35
aS'&'
p36
aS'3'
p37
ag14
aS'!='
p38
aS'2'
p39
ag14
aS'variable_4'
p40
ag19
aS'func_2'
p41
ag6
ag9
ag6
aS'__be32'
p42
ag9
ag14
ag6
aS'variable_3'
p43
ag29
aS'variable_2'
p44
ag29
ag39
ag14
ag14
ag22
aS'if'
p45
ag6
aS'variable_4'
p46
aS'<'
p47
ag19
aS'variable_5'
p48
ag14
aS'if'
p49
ag6
aS'variable_4'
p50
aS'>'
p51
aS'variable_1'
p52
aS'->'
p53
aS'variable_6'
p54
aS'-'
p55
aS'sizeof'
p56
ag6
aS'struct'
p57
aS'variable_7'
p58
ag14
ag14
aS'if'
p59
ag6
aS'func_3'
p60
ag6
aS'variable_1'
p61
ag11
aS'variable_4'
p62
ag29
aS'sizeof'
p63
ag6
aS'struct'
p64
aS'variable_7'
p65
ag14
ag14
ag14
aaa(lp66
I0
aa(lp67
I53
aa(lp68
(lp69
S'main'
p70
aaa(lp71
S'110 /home/SySeVR/data/CVE_2010_0006_VULN_ipv6_hop_jumbo.c pkt_len = ntohl ( * ( __be32 * ) ( nh + optoff + 2 ) ) 15'
p72
aa.