(lp0
(lp1
(lp2
S'func_0'
p3
aS'('
p4
aS'variable_0'
p5
aS'*'
p6
aS'variable_1'
p7
aS')'
p8
aS'int'
p9
aS'variable_2'
p10
aS';'
p11
aS'virJSONValuePtr'
p12
aS'variable_3'
p13
ag11
aS'virJSONValuePtr'
p14
aS'variable_4'
p15
aS'='
p16
aS'NULL'
p17
ag11
aS'int'
p18
aS'variable_5'
p19
ag11
aS'if'
p20
ag4
aS'!'
p21
ag4
aS'variable_3'
p22
ag16
aS'func_1'
p23
ag4
aS'"'
p24
aS'guest'
p25
aS'-'
p26
aS'get'
p27
ag26
aS'vcpus'
p28
ag24
aS','
p29
aS'NULL'
p30
ag8
ag8
ag8
aS'if'
p31
ag4
aS'func_2'
p32
ag4
aS'variable_6'
p33
ag29
aS'variable_3'
p34
ag29
aS'&'
p35
aS'variable_4'
p36
ag29
aS'variable_7'
p37
ag8
aS'<'
p38
aS'0'
p39
aS'||'
p40
aS'func_3'
p41
ag4
aS'variable_3'
p42
ag29
aS'variable_4'
p43
ag8
ag38
ag39
ag8
aS'if'
p44
ag4
ag21
ag4
aS'variable_8'
p45
ag16
aS'func_4'
p46
ag4
aS'variable_4'
p47
ag29
ag24
aS'return'
p48
ag24
ag8
ag8
ag8
aS'if'
p49
ag4
aS'variable_8'
p50
aS'->'
p51
aS'variable_9'
p52
aS'!='
p53
aS'variable_10'
p54
ag8
aS'variable_5'
p55
ag16
aS'func_5'
p56
ag4
aS'variable_8'
p57
ag8
ag11
aS'if'
p58
ag4
aS'func_6'
p59
ag4
ag6
aS'variable_1'
p60
ag29
aS'variable_5'
p61
ag8
ag38
ag39
ag8
aS'for'
p62
ag4
aS'variable_2'
p63
ag16
ag39
ag11
aS'variable_2'
p64
ag38
aS'variable_5'
p65
ag11
aS'variable_2'
p66
aS'++'
p67
ag8
aS'virJSONValuePtr'
p68
aS'variable_11'
p69
ag16
aS'func_7'
p70
ag4
aS'variable_8'
p71
ag29
aS'variable_2'
p72
ag8
ag11
aS'qemuAgentCPUInfoPtr'
p73
aS'variable_12'
p74
ag16
ag6
aS'variable_1'
p75
aS'+'
p76
aS'variable_2'
p77
ag11
aS'if'
p78
ag4
ag21
aS'variable_11'
p79
ag8
aS'if'
p80
ag4
aS'func_8'
p81
ag4
aS'variable_11'
p82
ag29
ag24
aS'logical'
p83
ag26
aS'id'
p84
ag24
ag29
ag35
aS'variable_12'
p85
aS'->'
p86
aS'variable_13'
p87
ag8
ag38
ag39
ag8
aS'if'
p88
ag4
aS'func_9'
p89
ag4
aS'variable_11'
p90
ag29
ag24
aS'online'
p91
ag24
ag29
ag35
aS'variable_12'
p92
aS'->'
p93
aS'variable_14'
p94
ag8
ag38
ag39
ag8
aS'if'
p95
ag4
aS'func_10'
p96
ag4
aS'variable_11'
p97
ag29
ag24
aS'can'
p98
ag26
aS'offline'
p99
ag24
ag29
ag35
aS'variable_12'
p100
aS'->'
p101
aS'variable_15'
p102
ag8
ag38
ag39
ag8
aaa(lp103
I0
aa(lp104
I138
aa(lp105
(lp106
S'main'
p107
aaa(lp108
S'840 /home/SySeVR/data/CVE_2013_4153_PATCHED_qemuAgentGetVCPUs.c qemuAgentCPUInfoPtr in = * info + i ; 41'
p109
aa.