(lp0
(lp1
(lp2
S'func_0'
p3
aS'('
p4
aS'struct'
p5
aS'variable_0'
p6
aS'*'
p7
aS'variable_1'
p8
aS')'
p9
aS'int'
p10
aS'variable_2'
p11
aS','
p12
aS'variable_3'
p13
ag12
aS'variable_4'
p14
ag12
aS'variable_5'
p15
ag12
aS'variable_6'
p16
ag12
aS'variable_7'
p17
aS';'
p18
aS'char'
p19
aS'variable_8'
p20
aS'['
p21
aS'97'
p22
aS']'
p23
aS'='
p24
aS'{'
p25
aS"'"
p26
aS'\\'
p27
aS'0'
p28
ag26
aS'}'
p29
ag18
aS'for'
p30
ag4
aS'variable_2'
p31
ag24
ag28
ag18
aS'variable_2'
p32
aS'<'
p33
aS'variable_5'
p34
ag18
aS'++'
p35
aS'variable_2'
p36
ag9
aS'if'
p37
ag4
aS'fread'
p38
ag4
aS'&'
p39
aS'variable_6'
p40
ag12
aS'sizeof'
p41
ag4
aS'variable_6'
p42
ag9
ag12
aS'1'
p43
ag12
aS'variable_9'
p44
aS'->'
p45
aS'variable_10'
p46
ag9
aS'!='
p47
ag43
ag9
aS'variable_6'
p48
ag24
aS'func_1'
p49
ag4
aS'variable_6'
p50
ag9
aS'-'
p51
aS'sizeof'
p52
ag4
aS'variable_6'
p53
ag9
ag51
aS'sizeof'
p54
ag4
aS'variable_7'
p55
ag9
ag18
aS'if'
p56
ag4
aS'fread'
p57
ag4
ag39
aS'variable_7'
p58
ag12
aS'sizeof'
p59
ag4
aS'variable_7'
p60
ag9
ag12
ag43
ag12
aS'variable_9'
p61
aS'->'
p62
aS'variable_10'
p63
ag9
aS'!='
p64
ag43
ag9
aS'variable_7'
p65
ag24
aS'func_2'
p66
ag4
aS'variable_7'
p67
ag9
ag18
aS'if'
p68
ag4
aS'variable_11'
p69
aS'=='
p70
aS'variable_7'
p71
ag9
aS'if'
p72
ag4
aS'variable_6'
p73
aS'>'
p74
aS'96'
p75
ag9
aS'if'
p76
ag4
aS'fread'
p77
ag4
aS'variable_8'
p78
ag12
aS'variable_6'
p79
ag12
ag43
ag12
aS'variable_9'
p80
aS'->'
p81
aS'variable_10'
p82
ag9
aS'!='
p83
ag43
ag9
aS'if'
p84
ag4
aS'fseek'
p85
ag4
aS'variable_9'
p86
aS'->'
p87
aS'variable_10'
p88
ag12
aS'variable_6'
p89
ag12
aS'variable_12'
p90
ag9
ag9
aa(lp91
S'func_0'
p92
ag4
aS'struct'
p93
aS'variable_0'
p94
ag7
aS'variable_1'
p95
ag9
aS'int'
p96
aS'variable_2'
p97
ag12
aS'variable_3'
p98
ag12
aS'variable_4'
p99
ag12
aS'variable_5'
p100
ag12
aS'variable_6'
p101
ag12
aS'variable_7'
p102
ag18
aS'for'
p103
ag4
aS'variable_2'
p104
ag24
ag28
ag18
aS'variable_2'
p105
ag33
aS'variable_5'
p106
ag18
aS'++'
p107
aS'variable_2'
p108
ag9
aS'if'
p109
ag4
aS'fread'
p110
ag4
ag39
aS'variable_6'
p111
ag12
aS'sizeof'
p112
ag4
aS'variable_6'
p113
ag9
ag12
ag43
ag12
aS'variable_8'
p114
aS'->'
p115
aS'variable_9'
p116
ag9
aS'!='
p117
ag43
ag9
aS'variable_6'
p118
ag24
aS'func_1'
p119
ag4
aS'variable_6'
p120
ag9
ag51
aS'sizeof'
p121
ag4
aS'variable_6'
p122
ag9
ag51
aS'sizeof'
p123
ag4
aS'variable_7'
p124
ag9
ag18
aS'if'
p125
ag4
aS'fread'
p126
ag4
ag39
aS'variable_7'
p127
ag12
aS'sizeof'
p128
ag4
aS'variable_7'
p129
ag9
ag12
ag43
ag12
aS'variable_8'
p130
aS'->'
p131
aS'variable_9'
p132
ag9
aS'!='
p133
ag43
ag9
aS'variable_7'
p134
ag24
aS'func_2'
p135
ag4
aS'variable_7'
p136
ag9
ag18
aS'if'
p137
ag4
aS'variable_10'
p138
aS'=='
p139
aS'variable_7'
p140
ag9
aS'if'
p141
ag4
aS'fseek'
p142
ag4
aS'variable_8'
p143
aS'->'
p144
aS'variable_9'
p145
ag12
aS'variable_6'
p146
ag12
aS'variable_11'
p147
ag9
ag9
aaa(lp148
I0
aI0
aa(lp149
I126
aI73
aa(lp150
(lp151
S'main'
p152
aa(lp153
g152
aaa(lp154
S'912 /home/SySeVR/data/CVE_2013_1726_PATCHED_mar_read_product_info_block.c fread 47'
p155
aS'913 /home/SySeVR/data/CVE_2013_1726_PATCHED_mar_read_product_info_block.c fread 27'
p156
aa.