(lp0
(lp1
(lp2
S'static'
p3
aS'void'
p4
aS'func_0'
p5
aS'('
p6
aS'variable_0'
p7
aS'*'
p8
aS'variable_1'
p9
aS')'
p10
aS'int'
p11
aS'variable_2'
p12
aS'='
p13
aS'0'
p14
aS';'
p15
aS'int'
p16
aS'variable_3'
p17
ag15
aS'unsigned'
p18
aS'char'
p19
aS'variable_4'
p20
ag15
aS'int'
p21
aS'variable_5'
p22
ag15
aS'unsigned'
p23
aS'char'
p24
aS'variable_6'
p25
aS','
p26
aS'variable_7'
p27
ag15
aS'int'
p28
aS'variable_8'
p29
ag13
ag14
ag15
aS'int'
p30
aS'variable_9'
p31
ag13
ag14
ag15
aS'int'
p32
aS'variable_10'
p33
ag15
aS'int'
p34
aS'variable_11'
p35
ag26
aS'variable_12'
p36
ag15
aS'variable_3'
p37
ag13
aS'func_1'
p38
ag6
aS'&'
p39
aS'variable_1'
p40
aS'->'
p41
aS'variable_13'
p42
aS'['
p43
aS'variable_2'
p44
aS']'
p45
ag10
ag39
aS'0x00FFFFFF'
p46
ag15
aS'variable_2'
p47
aS'+='
p48
aS'4'
p49
ag15
aS'variable_3'
p50
ag13
aS'variable_1'
p51
aS'->'
p52
aS'variable_14'
p53
ag15
aS'while'
p54
ag6
aS'variable_2'
p55
aS'<'
p56
aS'variable_3'
p57
ag10
aS'variable_4'
p58
ag13
aS'variable_1'
p59
aS'->'
p60
aS'variable_13'
p61
ag43
aS'variable_2'
p62
aS'++'
p63
ag45
ag15
aS'variable_5'
p64
ag13
ag6
aS'variable_4'
p65
ag39
aS'0x1f'
p66
ag10
aS'+'
p67
aS'1'
p68
ag15
aS'if'
p69
ag6
ag6
aS'variable_4'
p70
ag39
aS'0x80'
p71
ag10
aS'=='
p72
ag14
ag10
aS'variable_15'
p73
ag13
ag6
aS'variable_4'
p74
aS'<<'
p75
aS'8'
p76
ag10
aS'|'
p77
ag6
aS'variable_1'
p78
aS'->'
p79
aS'variable_13'
p80
ag43
aS'variable_2'
p81
aS'++'
p82
ag45
ag10
ag15
aS'variable_4'
p83
ag13
ag14
ag15
aS'if'
p84
ag6
ag6
aS'variable_1'
p85
aS'->'
p86
aS'variable_13'
p87
ag43
aS'variable_2'
p88
ag45
ag39
aS'0x80'
p89
ag10
aS'!='
p90
ag14
ag10
aS'variable_4'
p91
ag13
aS'0x20'
p92
ag15
aS'variable_5'
p93
ag13
ag68
ag15
aS'switch'
p94
ag6
aS'variable_4'
p95
ag39
aS'0xe0'
p96
ag10
aS'while'
p97
ag6
aS'variable_5'
p98
aS'--'
p99
ag10
aS'variable_2'
p100
aS'+='
p101
aS'2'
p102
ag15
aS'while'
p103
ag6
aS'variable_5'
p104
aS'--'
p105
ag10
aS'for'
p106
ag6
aS'variable_12'
p107
ag13
ag14
ag15
aS'variable_12'
p108
ag56
ag49
ag15
aS'variable_12'
p109
aS'++'
p110
ag10
aS'for'
p111
ag6
aS'variable_11'
p112
ag13
ag14
ag15
aS'variable_11'
p113
ag56
ag49
ag15
aS'variable_11'
p114
aS'++'
p115
ag10
aS'variable_2'
p116
aS'+='
p117
ag102
ag15
aS'variable_2'
p118
aS'+='
p119
ag102
ag15
aS'if'
p120
ag6
aS'variable_1'
p121
aS'->'
p122
aS'variable_14'
p123
aS'-'
p124
aS'variable_2'
p125
ag56
aS'variable_5'
p126
ag8
ag49
ag10
aS'while'
p127
ag6
aS'variable_5'
p128
aS'--'
p129
ag10
aS'for'
p130
ag6
aS'variable_12'
p131
ag13
ag14
ag15
aS'variable_12'
p132
ag56
ag49
ag15
aS'variable_12'
p133
aS'++'
p134
ag10
aS'variable_6'
p135
ag13
aS'variable_1'
p136
aS'->'
p137
aS'variable_13'
p138
ag43
aS'variable_2'
p139
aS'++'
p140
ag45
ag15
aS'for'
p141
ag6
aS'variable_11'
p142
ag13
ag14
ag15
aS'variable_11'
p143
ag56
ag49
ag15
aS'variable_11'
p144
aS'++'
p145
ag10
aS'if'
p146
ag6
aS'variable_1'
p147
aS'->'
p148
aS'variable_14'
p149
ag124
aS'variable_2'
p150
ag56
aS'16'
p151
ag10
aS'variable_10'
p152
ag13
aS'variable_8'
p153
ag67
aS'variable_9'
p154
ag15
aS'for'
p155
ag6
aS'variable_12'
p156
ag13
ag14
ag15
aS'variable_12'
p157
ag56
ag49
ag15
aS'variable_12'
p158
aS'++'
p159
ag10
aS'for'
p160
ag6
aS'variable_11'
p161
ag13
ag14
ag15
aS'variable_11'
p162
ag56
ag49
ag15
aS'variable_11'
p163
aS'++'
p164
ag10
aS'if'
p165
ag6
ag6
aS'variable_12'
p166
aS'!='
p167
ag14
ag10
aS'||'
p168
ag6
aS'variable_11'
p169
aS'!='
p170
ag14
ag10
ag10
aS'variable_2'
p171
aS'+='
p172
ag102
ag15
aS'variable_16'
p173
ag43
aS'variable_10'
p174
ag45
ag13
aS'variable_15'
p175
ag15
aS'variable_10'
p176
aS'++'
p177
ag15
aS'variable_10'
p178
aS'+='
p179
aS'variable_17'
p180
ag15
aa(lp181
S'static'
p182
aS'void'
p183
aS'func_0'
p184
ag6
aS'variable_0'
p185
ag8
aS'variable_1'
p186
ag10
aS'int'
p187
aS'variable_2'
p188
ag13
ag14
ag15
aS'int'
p189
aS'variable_3'
p190
ag15
aS'unsigned'
p191
aS'char'
p192
aS'variable_4'
p193
ag15
aS'int'
p194
aS'variable_5'
p195
ag15
aS'unsigned'
p196
aS'char'
p197
aS'variable_6'
p198
ag26
aS'variable_7'
p199
ag15
aS'int'
p200
aS'variable_8'
p201
ag13
ag14
ag15
aS'int'
p202
aS'variable_9'
p203
ag13
ag14
ag15
aS'int'
p204
aS'variable_10'
p205
ag15
aS'int'
p206
aS'variable_11'
p207
ag26
aS'variable_12'
p208
ag15
aS'variable_3'
p209
ag13
aS'func_1'
p210
ag6
ag39
aS'variable_1'
p211
aS'->'
p212
aS'variable_13'
p213
ag43
aS'variable_2'
p214
ag45
ag10
ag39
aS'0x00FFFFFF'
p215
ag15
aS'variable_2'
p216
aS'+='
p217
ag49
ag15
aS'variable_3'
p218
ag13
aS'variable_1'
p219
aS'->'
p220
aS'variable_14'
p221
ag15
aS'while'
p222
ag6
aS'variable_2'
p223
ag56
aS'variable_3'
p224
ag10
aS'variable_4'
p225
ag13
aS'variable_1'
p226
aS'->'
p227
aS'variable_13'
p228
ag43
aS'variable_2'
p229
aS'++'
p230
ag45
ag15
aS'variable_5'
p231
ag13
ag6
aS'variable_4'
p232
ag39
aS'0x1f'
p233
ag10
ag67
ag68
ag15
aS'if'
p234
ag6
ag6
aS'variable_4'
p235
ag39
aS'0x80'
p236
ag10
aS'=='
p237
ag14
ag10
aS'variable_15'
p238
ag13
ag6
aS'variable_4'
p239
aS'<<'
p240
ag76
ag10
ag77
ag6
aS'variable_1'
p241
aS'->'
p242
aS'variable_13'
p243
ag43
aS'variable_2'
p244
aS'++'
p245
ag45
ag10
ag15
aS'variable_4'
p246
ag13
ag14
ag15
aS'if'
p247
ag6
ag6
aS'variable_1'
p248
aS'->'
p249
aS'variable_13'
p250
ag43
aS'variable_2'
p251
ag45
ag39
aS'0x80'
p252
ag10
aS'!='
p253
ag14
ag10
aS'variable_4'
p254
ag13
aS'0x20'
p255
ag15
aS'variable_5'
p256
ag13
ag68
ag15
aS'switch'
p257
ag6
aS'variable_4'
p258
ag39
aS'0xe0'
p259
ag10
aS'while'
p260
ag6
aS'variable_5'
p261
aS'--'
p262
ag10
aS'variable_2'
p263
aS'+='
p264
ag102
ag15
aS'while'
p265
ag6
aS'variable_5'
p266
aS'--'
p267
ag10
aS'for'
p268
ag6
aS'variable_12'
p269
ag13
ag14
ag15
aS'variable_12'
p270
ag56
ag49
ag15
aS'variable_12'
p271
aS'++'
p272
ag10
aS'for'
p273
ag6
aS'variable_11'
p274
ag13
ag14
ag15
aS'variable_11'
p275
ag56
ag49
ag15
aS'variable_11'
p276
aS'++'
p277
ag10
aS'variable_2'
p278
aS'+='
p279
ag102
ag15
aS'variable_2'
p280
aS'+='
p281
ag102
ag15
aS'if'
p282
ag6
aS'variable_1'
p283
aS'->'
p284
aS'variable_14'
p285
ag124
aS'variable_2'
p286
ag56
aS'variable_5'
p287
ag8
ag49
ag10
aS'while'
p288
ag6
aS'variable_5'
p289
aS'--'
p290
ag10
aS'variable_10'
p291
ag13
aS'variable_8'
p292
ag67
aS'variable_9'
p293
ag15
aS'for'
p294
ag6
aS'variable_12'
p295
ag13
ag14
ag15
aS'variable_12'
p296
ag56
ag49
ag15
aS'variable_12'
p297
aS'++'
p298
ag10
aS'variable_6'
p299
ag13
aS'variable_1'
p300
aS'->'
p301
aS'variable_13'
p302
ag43
aS'variable_2'
p303
aS'++'
p304
ag45
ag15
aS'for'
p305
ag6
aS'variable_11'
p306
ag13
ag14
ag15
aS'variable_11'
p307
ag56
ag49
ag15
aS'variable_11'
p308
aS'++'
p309
ag10
aS'variable_16'
p310
ag43
aS'variable_10'
p311
ag45
ag13
aS'variable_17'
p312
ag43
aS'variable_7'
p313
ag45
ag15
aS'variable_10'
p314
aS'++'
p315
ag15
aS'variable_10'
p316
aS'+='
p317
aS'variable_18'
p318
ag15
aS'if'
p319
ag6
aS'variable_1'
p320
aS'->'
p321
aS'variable_14'
p322
ag124
aS'variable_2'
p323
ag56
aS'16'
p324
ag10
aS'for'
p325
ag6
aS'variable_12'
p326
ag13
ag14
ag15
aS'variable_12'
p327
ag56
ag49
ag15
aS'variable_12'
p328
aS'++'
p329
ag10
aS'for'
p330
ag6
aS'variable_11'
p331
ag13
ag14
ag15
aS'variable_11'
p332
ag56
ag49
ag15
aS'variable_11'
p333
aS'++'
p334
ag10
aS'if'
p335
ag6
ag6
aS'variable_12'
p336
aS'!='
p337
ag14
ag10
aS'||'
p338
ag6
aS'variable_11'
p339
aS'!='
p340
ag14
ag10
ag10
aS'variable_2'
p341
aS'+='
p342
ag102
ag15
aS'variable_16'
p343
ag43
aS'variable_10'
p344
ag45
ag13
aS'variable_15'
p345
ag15
aS'variable_10'
p346
aS'++'
p347
ag15
aS'variable_10'
p348
aS'+='
p349
aS'variable_18'
p350
ag15
aa(lp351
S'static'
p352
aS'void'
p353
aS'func_0'
p354
ag6
aS'variable_0'
p355
ag8
aS'variable_1'
p356
ag10
aS'int'
p357
aS'variable_2'
p358
ag13
ag14
ag15
aS'int'
p359
aS'variable_3'
p360
ag15
aS'unsigned'
p361
aS'char'
p362
aS'variable_4'
p363
ag15
aS'int'
p364
aS'variable_5'
p365
ag15
aS'unsigned'
p366
aS'char'
p367
aS'variable_6'
p368
ag26
aS'variable_7'
p369
ag15
aS'int'
p370
aS'variable_8'
p371
ag13
ag14
ag15
aS'int'
p372
aS'variable_9'
p373
ag13
ag14
ag15
aS'int'
p374
aS'variable_10'
p375
ag15
aS'int'
p376
aS'variable_11'
p377
ag26
aS'variable_12'
p378
ag15
aS'variable_3'
p379
ag13
aS'func_1'
p380
ag6
ag39
aS'variable_1'
p381
aS'->'
p382
aS'variable_13'
p383
ag43
aS'variable_2'
p384
ag45
ag10
ag39
aS'0x00FFFFFF'
p385
ag15
aS'variable_2'
p386
aS'+='
p387
ag49
ag15
aS'variable_3'
p388
ag13
aS'variable_1'
p389
aS'->'
p390
aS'variable_14'
p391
ag15
aS'while'
p392
ag6
aS'variable_2'
p393
ag56
aS'variable_3'
p394
ag10
aS'variable_4'
p395
ag13
aS'variable_1'
p396
aS'->'
p397
aS'variable_13'
p398
ag43
aS'variable_2'
p399
aS'++'
p400
ag45
ag15
aS'variable_5'
p401
ag13
ag6
aS'variable_4'
p402
ag39
aS'0x1f'
p403
ag10
ag67
ag68
ag15
aS'if'
p404
ag6
ag6
aS'variable_4'
p405
ag39
aS'0x80'
p406
ag10
aS'=='
p407
ag14
ag10
aS'variable_15'
p408
ag13
ag6
aS'variable_4'
p409
aS'<<'
p410
ag76
ag10
ag77
ag6
aS'variable_1'
p411
aS'->'
p412
aS'variable_13'
p413
ag43
aS'variable_2'
p414
aS'++'
p415
ag45
ag10
ag15
aS'variable_4'
p416
ag13
ag14
ag15
aS'if'
p417
ag6
ag6
aS'variable_1'
p418
aS'->'
p419
aS'variable_13'
p420
ag43
aS'variable_2'
p421
ag45
ag39
aS'0x80'
p422
ag10
aS'!='
p423
ag14
ag10
aS'variable_4'
p424
ag13
aS'0x20'
p425
ag15
aS'variable_5'
p426
ag13
ag68
ag15
aS'switch'
p427
ag6
aS'variable_4'
p428
ag39
aS'0xe0'
p429
ag10
aS'while'
p430
ag6
aS'variable_5'
p431
aS'--'
p432
ag10
aS'variable_2'
p433
aS'+='
p434
ag102
ag15
aS'while'
p435
ag6
aS'variable_5'
p436
aS'--'
p437
ag10
aS'variable_10'
p438
ag13
aS'variable_8'
p439
ag67
aS'variable_9'
p440
ag15
aS'for'
p441
ag6
aS'variable_12'
p442
ag13
ag14
ag15
aS'variable_12'
p443
ag56
ag49
ag15
aS'variable_12'
p444
aS'++'
p445
ag10
aS'for'
p446
ag6
aS'variable_11'
p447
ag13
ag14
ag15
aS'variable_11'
p448
ag56
ag49
ag15
aS'variable_11'
p449
aS'++'
p450
ag10
aS'variable_16'
p451
ag43
aS'variable_10'
p452
ag45
ag13
aS'variable_15'
p453
ag15
aS'variable_10'
p454
aS'++'
p455
ag15
aS'variable_10'
p456
aS'+='
p457
aS'variable_17'
p458
ag15
aS'variable_2'
p459
aS'+='
p460
ag102
ag15
aS'variable_2'
p461
aS'+='
p462
ag102
ag15
aS'if'
p463
ag6
aS'variable_1'
p464
aS'->'
p465
aS'variable_14'
p466
ag124
aS'variable_2'
p467
ag56
aS'variable_5'
p468
ag8
ag49
ag10
aS'while'
p469
ag6
aS'variable_5'
p470
aS'--'
p471
ag10
aS'for'
p472
ag6
aS'variable_12'
p473
ag13
ag14
ag15
aS'variable_12'
p474
ag56
ag49
ag15
aS'variable_12'
p475
aS'++'
p476
ag10
aS'variable_6'
p477
ag13
aS'variable_1'
p478
aS'->'
p479
aS'variable_13'
p480
ag43
aS'variable_2'
p481
aS'++'
p482
ag45
ag15
aS'for'
p483
ag6
aS'variable_11'
p484
ag13
ag14
ag15
aS'variable_11'
p485
ag56
ag49
ag15
aS'variable_11'
p486
aS'++'
p487
ag10
aS'variable_16'
p488
ag43
aS'variable_10'
p489
ag45
ag13
aS'variable_18'
p490
ag43
aS'variable_7'
p491
ag45
ag15
aS'variable_10'
p492
aS'++'
p493
ag15
aS'variable_10'
p494
aS'+='
p495
aS'variable_17'
p496
ag15
aS'if'
p497
ag6
aS'variable_1'
p498
aS'->'
p499
aS'variable_14'
p500
ag124
aS'variable_2'
p501
ag56
aS'16'
p502
ag10
aS'for'
p503
ag6
aS'variable_12'
p504
ag13
ag14
ag15
aS'variable_12'
p505
ag56
ag49
ag15
aS'variable_12'
p506
aS'++'
p507
ag10
aS'for'
p508
ag6
aS'variable_11'
p509
ag13
ag14
ag15
aS'variable_11'
p510
ag56
ag49
ag15
aS'variable_11'
p511
aS'++'
p512
ag10
aS'if'
p513
ag6
ag6
aS'variable_12'
p514
aS'!='
p515
ag14
ag10
aS'||'
p516
ag6
aS'variable_11'
p517
aS'!='
p518
ag14
ag10
ag10
aS'variable_2'
p519
aS'+='
p520
ag102
ag15
aS'variable_16'
p521
ag43
aS'variable_10'
p522
ag45
ag13
aS'variable_15'
p523
ag15
aS'variable_10'
p524
aS'++'
p525
ag15
aS'variable_10'
p526
aS'+='
p527
aS'variable_17'
p528
ag15
aaa(lp529
I0
aI0
aI0
aa(lp530
I274
aI228
aI177
aa(lp531
(lp532
S'main'
p533
aa(lp534
g533
aa(lp535
g533
aaa(lp536
S'551 /home/SySeVR/data/CVE_2013_7009_VULN_rpza_decode_stream.c block_ptr = row_ptr + pixel_ptr 138'
p537
aS'552 /home/SySeVR/data/CVE_2013_7009_VULN_rpza_decode_stream.c block_ptr = row_ptr + pixel_ptr 120'
p538
aS'553 /home/SySeVR/data/CVE_2013_7009_VULN_rpza_decode_stream.c block_ptr = row_ptr + pixel_ptr 73'
p539
aa.