(lp0
(lp1
(lp2
S'const'
p3
aS'char'
p4
aS'*'
p5
aS'variable_0'
p6
aS','
p7
aS'variable_1'
p8
ag5
aS'variable_2'
p9
ag5
aS'variable_3'
p10
ag7
aS'variable_1'
p11
ag5
aS'variable_4'
p12
aS')'
p13
aS'const'
p14
aS'unsigned'
p15
aS'char'
p16
ag5
aS'variable_5'
p17
aS'='
p18
aS'('
p19
aS'unsigned'
p20
aS'char'
p21
ag5
ag13
aS'variable_0'
p22
aS'+'
p23
ag5
aS'variable_6'
p24
aS';'
p25
aS'const'
p26
aS'unsigned'
p27
aS'char'
p28
ag5
aS'variable_7'
p29
ag18
ag19
aS'unsigned'
p30
aS'char'
p31
ag5
ag13
aS'variable_0'
p32
ag25
aS'variable_2'
p33
ag5
aS'variable_8'
p34
ag18
aS'variable_3'
p35
ag23
ag5
aS'variable_4'
p36
ag25
aS'variable_2'
p37
ag5
aS'variable_9'
p38
ag18
aS'variable_3'
p39
ag25
aS'while'
p40
ag19
aS'variable_7'
p41
aS'<'
p42
aS'variable_5'
p43
ag13
aS'switch'
p44
ag19
aS'variable_10'
p45
ag13
aS'if'
p46
ag19
ag5
aS'variable_7'
p47
aS'&'
p48
aS'0x80'
p49
ag13
aS'variable_11'
p50
ag18
aS'variable_12'
p51
aS'['
p52
ag5
aS'variable_7'
p53
ag48
aS'0x7F'
p54
aS']'
p55
ag25
aS'if'
p56
ag19
aS'variable_11'
p57
ag42
aS'0xE000'
p58
ag13
aS'variable_10'
p59
ag18
aS'1'
p60
ag25
aS'if'
p61
ag19
aS'variable_11'
p62
aS'>'
p63
aS'0xFF00'
p64
ag13
aS'if'
p65
ag19
aS'0xFFFD'
p66
aS'=='
p67
aS'variable_11'
p68
ag13
aS'switch'
p69
ag19
ag5
aS'variable_7'
p70
ag13
ag5
aS'variable_9'
p71
aS'++'
p72
ag18
ag19
aS'variable_2'
p73
ag13
ag5
aS'variable_7'
p74
ag25
ag5
aS'variable_9'
p75
aS'++'
p76
ag18
ag19
aS'variable_2'
p77
ag13
aS'0xf8f0'
p78
ag25
ag5
aS'variable_9'
p79
aS'++'
p80
ag18
ag19
aS'variable_2'
p81
ag13
aS'0xf8f1'
p82
ag23
ag19
ag5
aS'variable_7'
p83
aS'-'
p84
ag19
aS'unsigned'
p85
aS'char'
p86
ag13
ag19
aS'0xfd'
p87
ag13
ag13
ag25
aS'if'
p88
ag19
aS'variable_13'
p89
aS'=='
p90
aS'variable_14'
p91
ag13
ag5
aS'variable_9'
p92
aS'++'
p93
ag18
aS'variable_15'
p94
ag25
aS'if'
p95
ag19
aS'variable_9'
p96
ag63
ag18
aS'variable_8'
p97
ag13
ag5
aS'variable_9'
p98
aS'++'
p99
ag18
aS'variable_11'
p100
ag25
aS'if'
p101
ag19
aS'variable_9'
p102
ag63
ag18
aS'variable_8'
p103
ag13
aS'variable_10'
p104
ag18
aS'2'
p105
ag25
ag5
aS'variable_9'
p106
aS'++'
p107
ag18
ag19
aS'variable_2'
p108
ag13
ag5
aS'variable_7'
p109
ag25
aS'if'
p110
ag19
aS'variable_9'
p111
ag63
ag18
aS'variable_8'
p112
ag13
aS'PRUint8'
p113
aS'variable_16'
p114
ag18
aS'variable_17'
p115
ag52
ag5
aS'variable_7'
p116
ag55
ag25
aS'if'
p117
ag19
aS'0xFF'
p118
aS'=='
p119
aS'variable_16'
p120
ag13
aS'if'
p121
ag19
aS'variable_13'
p122
aS'=='
p123
aS'variable_14'
p124
ag13
ag5
aS'variable_9'
p125
aS'++'
p126
ag18
aS'variable_15'
p127
ag25
aS'PRUnichar'
p128
aS'variable_18'
p129
ag18
aS'variable_19'
p130
ag52
aS'variable_11'
p131
ag23
aS'variable_16'
p132
ag55
ag25
aS'if'
p133
ag19
aS'variable_18'
p134
aS'=='
p135
aS'0xfffd'
p136
ag13
aS'if'
p137
ag19
aS'variable_13'
p138
aS'=='
p139
aS'variable_14'
p140
ag13
aS'variable_18'
p141
ag18
aS'variable_15'
p142
ag25
ag5
aS'variable_9'
p143
aS'++'
p144
ag18
aS'variable_18'
p145
ag25
aS'variable_10'
p146
ag18
aS'0'
p147
ag25
aS'if'
p148
ag19
aS'variable_9'
p149
ag63
ag18
aS'variable_8'
p150
ag13
aS'PRUint8'
p151
aS'variable_16'
p152
ag18
aS'variable_17'
p153
ag52
ag5
aS'variable_7'
p154
ag55
ag25
aS'if'
p155
ag19
aS'0xFF'
p156
aS'=='
p157
aS'variable_16'
p158
ag13
aS'if'
p159
ag19
aS'variable_13'
p160
aS'=='
p161
aS'variable_14'
p162
ag13
ag5
aS'variable_9'
p163
aS'++'
p164
ag18
aS'variable_15'
p165
ag25
ag5
aS'variable_9'
p166
aS'++'
p167
ag18
aS'variable_11'
p168
ag23
aS'variable_16'
p169
ag25
aS'variable_10'
p170
ag18
ag147
ag25
aS'if'
p171
ag19
aS'variable_9'
p172
ag63
ag18
aS'variable_8'
p173
ag13
aS'variable_7'
p174
aS'++'
p175
ag25
ag5
aS'variable_4'
p176
ag18
aS'variable_9'
p177
ag84
aS'variable_3'
p178
ag25
ag5
aS'variable_4'
p179
ag18
aS'variable_9'
p180
ag84
aS'variable_3'
p181
ag25
ag5
aS'variable_4'
p182
ag18
aS'variable_9'
p183
ag84
aS'variable_3'
p184
ag25
aaa(lp185
I0
aa(lp186
I340
aa(lp187
(lp188
S'main'
p189
aaa(lp190
S'253 /home/SySeVR/data/CVE_2011_3648_VULN_nsShiftJISToUnicode__Convert.c * aDestLen = dest - aDest 156'
p191
aa.