(lp0
(lp1
(lp2
S'static'
p3
aS'int'
p4
aS'func_0'
p5
aS'('
p6
aS'variable_0'
p7
aS'*'
p8
aS'variable_1'
p9
aS','
p10
aS'variable_2'
p11
ag8
aS'variable_3'
p12
aS')'
p13
aS'int'
p14
aS'variable_4'
p15
ag10
aS'variable_5'
p16
ag10
aS'variable_6'
p17
ag10
aS'variable_7'
p18
ag10
aS'variable_8'
p19
ag10
aS'variable_9'
p20
ag10
aS'variable_10'
p21
ag10
aS'variable_11'
p22
aS';'
p23
aS'int'
p24
aS'variable_12'
p25
ag10
aS'variable_13'
p26
ag10
aS'variable_14'
p27
ag10
aS'variable_15'
p28
ag10
aS'variable_16'
p29
ag10
aS'variable_17'
p30
ag10
aS'variable_18'
p31
ag23
aS'variable_19'
p32
ag8
aS'variable_20'
p33
ag10
ag8
aS'variable_21'
p34
ag10
ag8
aS'variable_22'
p35
ag10
ag8
aS'variable_23'
p36
ag10
ag8
aS'variable_24'
p37
ag23
aS'int'
p38
aS'variable_25'
p39
ag23
aS'if'
p40
ag6
aS'func_1'
p41
ag6
aS'&'
p42
aS'variable_1'
p43
aS'->'
p44
aS'variable_26'
p45
ag13
aS'<'
p46
aS'9'
p47
ag13
aS'variable_4'
p48
aS'='
p49
aS'func_2'
p50
ag6
ag42
aS'variable_1'
p51
aS'->'
p52
aS'variable_26'
p53
ag13
ag23
aS'variable_5'
p54
ag49
aS'func_3'
p55
ag6
ag42
aS'variable_1'
p56
aS'->'
p57
aS'variable_26'
p58
ag13
ag23
aS'variable_6'
p59
ag49
aS'func_4'
p60
ag6
ag42
aS'variable_1'
p61
aS'->'
p62
aS'variable_26'
p63
ag13
ag23
aS'variable_7'
p64
ag49
aS'func_5'
p65
ag6
ag42
aS'variable_1'
p66
aS'->'
p67
aS'variable_26'
p68
ag13
ag23
aS'variable_10'
p69
ag49
aS'func_6'
p70
ag6
ag42
aS'variable_1'
p71
aS'->'
p72
aS'variable_26'
p73
ag13
ag23
aS'variable_12'
p74
ag49
aS'variable_10'
p75
ag42
aS'0x40'
p76
ag23
aS'variable_13'
p77
ag49
aS'variable_10'
p78
ag42
aS'0x80'
p79
ag23
aS'variable_8'
p80
ag49
ag6
aS'variable_10'
p81
ag42
aS'0x07'
p82
ag13
aS'+'
p83
aS'1'
p84
ag23
aS'if'
p85
ag6
aS'variable_13'
p86
ag13
aS'variable_18'
p87
ag49
ag84
aS'<<'
p88
aS'variable_8'
p89
ag23
aS'if'
p90
ag6
aS'func_7'
p91
ag6
ag42
aS'variable_1'
p92
aS'->'
p93
aS'variable_26'
p94
ag13
ag46
aS'variable_18'
p95
ag8
aS'3'
p96
ag13
aS'if'
p97
ag6
aS'!'
p98
aS'variable_1'
p99
aS'->'
p100
aS'variable_27'
p101
ag13
aS'if'
p102
ag6
ag98
aS'variable_6'
p103
aS'||'
p104
aS'variable_6'
p105
aS'>'
p106
aS'variable_1'
p107
aS'->'
p108
aS'variable_28'
p109
aS'||'
p110
aS'variable_4'
p111
ag106
ag49
aS'variable_1'
p112
aS'->'
p113
aS'variable_28'
p114
ag13
aS'if'
p115
ag6
ag98
aS'variable_7'
p116
aS'||'
p117
aS'variable_7'
p118
ag106
aS'variable_1'
p119
aS'->'
p120
aS'variable_29'
p121
aS'||'
p122
aS'variable_5'
p123
ag106
ag49
aS'variable_1'
p124
aS'->'
p125
aS'variable_29'
p126
ag13
aS'if'
p127
ag6
aS'variable_4'
p128
ag83
aS'variable_6'
p129
ag106
aS'variable_1'
p130
aS'->'
p131
aS'variable_28'
p132
ag13
aS'variable_11'
p133
ag49
aS'variable_1'
p134
aS'->'
p135
aS'variable_28'
p136
aS'-'
p137
aS'variable_4'
p138
ag23
aS'variable_11'
p139
ag49
aS'variable_6'
p140
ag23
aS'if'
p141
ag6
aS'variable_5'
p142
ag83
aS'variable_7'
p143
ag106
aS'variable_1'
p144
aS'->'
p145
aS'variable_29'
p146
ag13
aS'variable_7'
p147
ag49
aS'variable_1'
p148
aS'->'
p149
aS'variable_29'
p150
ag137
aS'variable_5'
p151
ag23
aS'variable_1'
p152
aS'->'
p153
aS'variable_30'
p154
ag49
aS'variable_1'
p155
aS'->'
p156
aS'variable_31'
p157
ag23
aS'if'
p158
ag6
aS'variable_1'
p159
aS'->'
p160
aS'variable_31'
p161
aS'!='
p162
aS'variable_32'
p163
ag13
aS'variable_1'
p164
aS'->'
p165
aS'variable_33'
p166
ag49
aS'variable_4'
p167
ag23
aS'variable_1'
p168
aS'->'
p169
aS'variable_34'
p170
ag49
aS'variable_5'
p171
ag23
aS'variable_1'
p172
aS'->'
p173
aS'variable_35'
p174
ag49
aS'variable_11'
p175
ag23
aS'variable_1'
p176
aS'->'
p177
aS'variable_36'
p178
ag49
aS'variable_7'
p179
ag23
aS'if'
p180
ag6
aS'variable_1'
p181
aS'->'
p182
aS'variable_31'
p183
aS'=='
p184
aS'variable_37'
p185
ag13
aS'if'
p186
ag6
aS'variable_1'
p187
aS'->'
p188
aS'variable_38'
p189
ag106
ag49
aS'0'
p190
ag13
aS'variable_1'
p191
aS'->'
p192
aS'variable_39'
p193
ag49
aS'variable_1'
p194
aS'->'
p195
aS'variable_40'
p196
ag23
aS'variable_1'
p197
aS'->'
p198
aS'variable_39'
p199
ag49
aS'variable_1'
p200
aS'->'
p201
aS'variable_41'
p202
ag23
aS'if'
p203
ag6
aS'variable_1'
p204
aS'->'
p205
aS'variable_31'
p206
aS'=='
p207
aS'variable_42'
p208
ag13
aS'if'
p209
ag6
ag98
aS'variable_1'
p210
aS'->'
p211
aS'variable_43'
p212
ag13
aS'if'
p213
ag6
aS'func_8'
p214
ag6
ag42
aS'variable_1'
p215
aS'->'
p216
aS'variable_26'
p217
ag13
ag46
aS'2'
p218
ag13
aS'variable_9'
p219
ag49
aS'func_9'
p220
ag6
ag42
aS'variable_1'
p221
aS'->'
p222
aS'variable_26'
p223
ag13
ag23
aS'if'
p224
ag6
ag6
aS'variable_25'
p225
ag49
aS'func_10'
p226
ag6
aS'variable_1'
p227
aS'->'
p228
aS'variable_44'
p229
ag10
aS'variable_9'
p230
ag10
aS'variable_1'
p231
aS'->'
p232
aS'variable_26'
p233
aS'.'
p234
aS'variable_45'
p235
ag10
aS'func_11'
p236
ag6
ag42
aS'variable_1'
p237
aS'->'
p238
aS'variable_26'
p239
ag13
ag10
aS'variable_46'
p240
ag13
ag13
ag46
ag190
ag13
aS'variable_17'
p241
ag49
aS'variable_3'
p242
aS'->'
p243
aS'variable_17'
p244
aS'['
p245
ag190
aS']'
p246
aS'/'
p247
aS'sizeof'
p248
ag6
aS'variable_19'
p249
ag13
ag23
aS'variable_24'
p250
ag49
ag6
aS'uint32_t'
p251
ag8
ag13
aS'variable_3'
p252
aS'->'
p253
aS'variable_47'
p254
ag245
ag190
ag246
ag83
aS'variable_5'
p255
ag8
aS'variable_17'
p256
ag83
aS'variable_4'
p257
ag23
aS'variable_15'
p258
ag49
ag190
ag23
aS'variable_16'
p259
ag49
ag190
ag23
aS'for'
p260
ag6
aS'variable_14'
p261
ag49
ag190
ag23
aS'variable_14'
p262
ag46
aS'variable_7'
p263
ag23
aS'variable_14'
p264
aS'++'
p265
ag13
aS'int'
p266
aS'variable_48'
p267
ag49
aS'func_12'
p268
ag6
aS'variable_1'
p269
aS'->'
p270
aS'variable_44'
p271
ag10
aS'variable_1'
p272
aS'->'
p273
aS'variable_49'
p274
ag10
aS'variable_6'
p275
ag13
ag23
aS'if'
p276
ag6
aS'variable_48'
p277
aS'!='
p278
aS'variable_6'
p279
ag13
aS'variable_23'
p280
ag49
aS'variable_20'
p281
ag83
aS'variable_11'
p282
ag23
aS'for'
p283
ag6
aS'variable_22'
p284
ag49
aS'variable_20'
p285
ag10
aS'variable_50'
p286
ag49
aS'variable_1'
p287
aS'->'
p288
aS'variable_49'
p289
ag23
aS'variable_22'
p290
ag46
aS'variable_23'
p291
ag23
aS'variable_22'
p292
aS'++'
p293
ag10
aS'variable_50'
p294
aS'++'
p295
ag13
aS'if'
p296
ag6
ag8
aS'variable_50'
p297
aS'!='
p298
aS'variable_1'
p299
aS'->'
p300
aS'variable_38'
p301
ag13
ag8
aS'variable_22'
p302
ag49
aS'variable_21'
p303
ag245
ag8
aS'variable_50'
p304
ag246
ag23
aS'if'
p305
ag6
aS'variable_12'
p306
ag13
aS'switch'
p307
ag6
aS'variable_15'
p308
ag13
aS'variable_16'
p309
aS'+='
p310
aS'8'
p311
ag23
aS'variable_20'
p312
aS'+='
p313
aS'variable_17'
p314
ag8
ag311
ag23
aS'if'
p315
ag6
aS'variable_16'
p316
ag106
ag49
aS'variable_7'
p317
ag13
aS'variable_16'
p318
ag49
aS'variable_15'
p319
aS'?'
p320
ag218
aS':'
p321
aS'4'
p322
ag23
aS'variable_15'
p323
aS'++'
p324
ag23
aS'variable_16'
p325
aS'+='
p326
ag322
ag23
aS'variable_20'
p327
aS'+='
p328
aS'variable_17'
p329
ag8
ag322
ag23
aS'if'
p330
ag6
aS'variable_16'
p331
ag106
ag49
aS'variable_7'
p332
ag13
aS'variable_16'
p333
ag49
ag84
ag23
aS'variable_20'
p334
ag49
aS'variable_24'
p335
ag83
aS'variable_17'
p336
ag23
aS'variable_15'
p337
aS'++'
p338
ag23
aS'variable_16'
p339
aS'+='
p340
ag218
ag23
aS'variable_20'
p341
aS'+='
p342
aS'variable_17'
p343
ag8
ag218
ag23
aS'variable_20'
p344
aS'+='
p345
aS'variable_17'
p346
ag23
aa(lp347
S'static'
p348
aS'int'
p349
aS'func_0'
p350
ag6
aS'variable_0'
p351
ag8
aS'variable_1'
p352
ag10
aS'variable_2'
p353
ag8
aS'variable_3'
p354
ag13
aS'int'
p355
aS'variable_4'
p356
ag10
aS'variable_5'
p357
ag10
aS'variable_6'
p358
ag10
aS'variable_7'
p359
ag10
aS'variable_8'
p360
ag10
aS'variable_9'
p361
ag10
aS'variable_10'
p362
ag10
aS'variable_11'
p363
ag23
aS'int'
p364
aS'variable_12'
p365
ag10
aS'variable_13'
p366
ag10
aS'variable_14'
p367
ag10
aS'variable_15'
p368
ag10
aS'variable_16'
p369
ag10
aS'variable_17'
p370
ag10
aS'variable_18'
p371
ag23
aS'variable_19'
p372
ag8
aS'variable_20'
p373
ag10
ag8
aS'variable_21'
p374
ag10
ag8
aS'variable_22'
p375
ag10
ag8
aS'variable_23'
p376
ag10
ag8
aS'variable_24'
p377
ag23
aS'int'
p378
aS'variable_25'
p379
ag23
aS'if'
p380
ag6
aS'func_1'
p381
ag6
ag42
aS'variable_1'
p382
aS'->'
p383
aS'variable_26'
p384
ag13
ag46
ag47
ag13
aS'variable_4'
p385
ag49
aS'func_2'
p386
ag6
ag42
aS'variable_1'
p387
aS'->'
p388
aS'variable_26'
p389
ag13
ag23
aS'variable_5'
p390
ag49
aS'func_3'
p391
ag6
ag42
aS'variable_1'
p392
aS'->'
p393
aS'variable_26'
p394
ag13
ag23
aS'variable_6'
p395
ag49
aS'func_4'
p396
ag6
ag42
aS'variable_1'
p397
aS'->'
p398
aS'variable_26'
p399
ag13
ag23
aS'variable_7'
p400
ag49
aS'func_5'
p401
ag6
ag42
aS'variable_1'
p402
aS'->'
p403
aS'variable_26'
p404
ag13
ag23
aS'variable_10'
p405
ag49
aS'func_6'
p406
ag6
ag42
aS'variable_1'
p407
aS'->'
p408
aS'variable_26'
p409
ag13
ag23
aS'variable_12'
p410
ag49
aS'variable_10'
p411
ag42
aS'0x40'
p412
ag23
aS'variable_13'
p413
ag49
aS'variable_10'
p414
ag42
aS'0x80'
p415
ag23
aS'variable_8'
p416
ag49
ag6
aS'variable_10'
p417
ag42
aS'0x07'
p418
ag13
ag83
ag84
ag23
aS'if'
p419
ag6
aS'variable_13'
p420
ag13
aS'variable_18'
p421
ag49
ag84
aS'<<'
p422
aS'variable_8'
p423
ag23
aS'if'
p424
ag6
aS'func_7'
p425
ag6
ag42
aS'variable_1'
p426
aS'->'
p427
aS'variable_26'
p428
ag13
ag46
aS'variable_18'
p429
ag8
ag96
ag13
aS'if'
p430
ag6
ag98
aS'variable_1'
p431
aS'->'
p432
aS'variable_27'
p433
ag13
aS'if'
p434
ag6
ag98
aS'variable_6'
p435
aS'||'
p436
aS'variable_6'
p437
ag106
aS'variable_1'
p438
aS'->'
p439
aS'variable_28'
p440
aS'||'
p441
aS'variable_4'
p442
ag106
ag49
aS'variable_1'
p443
aS'->'
p444
aS'variable_28'
p445
ag13
aS'if'
p446
ag6
ag98
aS'variable_7'
p447
aS'||'
p448
aS'variable_7'
p449
ag106
aS'variable_1'
p450
aS'->'
p451
aS'variable_29'
p452
aS'||'
p453
aS'variable_5'
p454
ag106
ag49
aS'variable_1'
p455
aS'->'
p456
aS'variable_29'
p457
ag13
aS'if'
p458
ag6
aS'variable_4'
p459
ag83
aS'variable_6'
p460
ag106
aS'variable_1'
p461
aS'->'
p462
aS'variable_28'
p463
ag13
aS'variable_11'
p464
ag49
aS'variable_1'
p465
aS'->'
p466
aS'variable_28'
p467
ag137
aS'variable_4'
p468
ag23
aS'variable_11'
p469
ag49
aS'variable_6'
p470
ag23
aS'if'
p471
ag6
aS'variable_5'
p472
ag83
aS'variable_7'
p473
ag106
aS'variable_1'
p474
aS'->'
p475
aS'variable_29'
p476
ag13
aS'variable_7'
p477
ag49
aS'variable_1'
p478
aS'->'
p479
aS'variable_29'
p480
ag137
aS'variable_5'
p481
ag23
aS'variable_1'
p482
aS'->'
p483
aS'variable_30'
p484
ag49
aS'variable_1'
p485
aS'->'
p486
aS'variable_31'
p487
ag23
aS'if'
p488
ag6
aS'variable_1'
p489
aS'->'
p490
aS'variable_31'
p491
aS'!='
p492
aS'variable_32'
p493
ag13
aS'variable_1'
p494
aS'->'
p495
aS'variable_33'
p496
ag49
aS'variable_4'
p497
ag23
aS'variable_1'
p498
aS'->'
p499
aS'variable_34'
p500
ag49
aS'variable_5'
p501
ag23
aS'variable_1'
p502
aS'->'
p503
aS'variable_35'
p504
ag49
aS'variable_11'
p505
ag23
aS'variable_1'
p506
aS'->'
p507
aS'variable_36'
p508
ag49
aS'variable_7'
p509
ag23
aS'if'
p510
ag6
aS'variable_1'
p511
aS'->'
p512
aS'variable_31'
p513
aS'=='
p514
aS'variable_37'
p515
ag13
aS'if'
p516
ag6
aS'variable_1'
p517
aS'->'
p518
aS'variable_38'
p519
ag106
ag49
ag190
ag13
aS'variable_1'
p520
aS'->'
p521
aS'variable_39'
p522
ag49
aS'variable_1'
p523
aS'->'
p524
aS'variable_40'
p525
ag23
aS'variable_1'
p526
aS'->'
p527
aS'variable_39'
p528
ag49
aS'variable_1'
p529
aS'->'
p530
aS'variable_41'
p531
ag23
aS'if'
p532
ag6
aS'variable_1'
p533
aS'->'
p534
aS'variable_31'
p535
aS'=='
p536
aS'variable_42'
p537
ag13
aS'if'
p538
ag6
ag98
aS'variable_1'
p539
aS'->'
p540
aS'variable_43'
p541
ag13
aS'if'
p542
ag6
aS'func_8'
p543
ag6
ag42
aS'variable_1'
p544
aS'->'
p545
aS'variable_26'
p546
ag13
ag46
ag218
ag13
aS'variable_9'
p547
ag49
aS'func_9'
p548
ag6
ag42
aS'variable_1'
p549
aS'->'
p550
aS'variable_26'
p551
ag13
ag23
aS'if'
p552
ag6
ag6
aS'variable_25'
p553
ag49
aS'func_10'
p554
ag6
aS'variable_1'
p555
aS'->'
p556
aS'variable_44'
p557
ag10
aS'variable_9'
p558
ag10
aS'variable_1'
p559
aS'->'
p560
aS'variable_26'
p561
ag234
aS'variable_45'
p562
ag10
aS'func_11'
p563
ag6
ag42
aS'variable_1'
p564
aS'->'
p565
aS'variable_26'
p566
ag13
ag10
aS'variable_46'
p567
ag13
ag13
ag46
ag190
ag13
aS'variable_17'
p568
ag49
aS'variable_3'
p569
aS'->'
p570
aS'variable_17'
p571
ag245
ag190
ag246
ag247
aS'sizeof'
p572
ag6
aS'variable_19'
p573
ag13
ag23
aS'variable_24'
p574
ag49
ag6
aS'uint32_t'
p575
ag8
ag13
aS'variable_3'
p576
aS'->'
p577
aS'variable_47'
p578
ag245
ag190
ag246
ag83
aS'variable_5'
p579
ag8
aS'variable_17'
p580
ag83
aS'variable_4'
p581
ag23
aS'variable_15'
p582
ag49
ag190
ag23
aS'variable_16'
p583
ag49
ag190
ag23
aS'for'
p584
ag6
aS'variable_14'
p585
ag49
ag190
ag23
aS'variable_14'
p586
ag46
aS'variable_7'
p587
ag23
aS'variable_14'
p588
aS'++'
p589
ag13
aS'int'
p590
aS'variable_48'
p591
ag49
aS'func_12'
p592
ag6
aS'variable_1'
p593
aS'->'
p594
aS'variable_44'
p595
ag10
aS'variable_1'
p596
aS'->'
p597
aS'variable_49'
p598
ag10
aS'variable_6'
p599
ag13
ag23
aS'if'
p600
ag6
aS'variable_48'
p601
aS'!='
p602
aS'variable_6'
p603
ag13
aS'variable_23'
p604
ag49
aS'variable_20'
p605
ag83
aS'variable_11'
p606
ag23
aS'for'
p607
ag6
aS'variable_22'
p608
ag49
aS'variable_20'
p609
ag10
aS'variable_50'
p610
ag49
aS'variable_1'
p611
aS'->'
p612
aS'variable_49'
p613
ag23
aS'variable_22'
p614
ag46
aS'variable_23'
p615
ag23
aS'variable_22'
p616
aS'++'
p617
ag10
aS'variable_50'
p618
aS'++'
p619
ag13
aS'if'
p620
ag6
ag8
aS'variable_50'
p621
aS'!='
p622
aS'variable_1'
p623
aS'->'
p624
aS'variable_38'
p625
ag13
ag8
aS'variable_22'
p626
ag49
aS'variable_21'
p627
ag245
ag8
aS'variable_50'
p628
ag246
ag23
aS'if'
p629
ag6
aS'variable_12'
p630
ag13
aS'switch'
p631
ag6
aS'variable_15'
p632
ag13
aS'variable_16'
p633
aS'+='
p634
ag311
ag23
aS'variable_20'
p635
aS'+='
p636
aS'variable_17'
p637
ag8
ag311
ag23
aS'if'
p638
ag6
aS'variable_16'
p639
ag106
ag49
aS'variable_7'
p640
ag13
aS'variable_16'
p641
ag49
aS'variable_15'
p642
ag320
ag218
ag321
ag322
ag23
aS'variable_20'
p643
ag49
aS'variable_24'
p644
ag83
aS'variable_17'
p645
ag8
aS'variable_16'
p646
ag23
aS'variable_15'
p647
aS'++'
p648
ag23
aS'variable_16'
p649
aS'+='
p650
ag322
ag23
aS'variable_20'
p651
aS'+='
p652
aS'variable_17'
p653
ag8
ag322
ag23
aS'if'
p654
ag6
aS'variable_16'
p655
ag106
ag49
aS'variable_7'
p656
ag13
aS'variable_16'
p657
ag49
ag84
ag23
aS'variable_15'
p658
aS'++'
p659
ag23
aS'variable_16'
p660
aS'+='
p661
ag218
ag23
aS'variable_20'
p662
aS'+='
p663
aS'variable_17'
p664
ag8
ag218
ag23
aS'variable_20'
p665
aS'+='
p666
aS'variable_17'
p667
ag23
aa(lp668
S'static'
p669
aS'int'
p670
aS'func_0'
p671
ag6
aS'variable_0'
p672
ag8
aS'variable_1'
p673
ag10
aS'variable_2'
p674
ag8
aS'variable_3'
p675
ag13
aS'int'
p676
aS'variable_4'
p677
ag10
aS'variable_5'
p678
ag10
aS'variable_6'
p679
ag10
aS'variable_7'
p680
ag10
aS'variable_8'
p681
ag10
aS'variable_9'
p682
ag10
aS'variable_10'
p683
ag10
aS'variable_11'
p684
ag23
aS'int'
p685
aS'variable_12'
p686
ag10
aS'variable_13'
p687
ag10
aS'variable_14'
p688
ag10
aS'variable_15'
p689
ag10
aS'variable_16'
p690
ag10
aS'variable_17'
p691
ag10
aS'variable_18'
p692
ag23
aS'variable_19'
p693
ag8
aS'variable_20'
p694
ag10
ag8
aS'variable_21'
p695
ag10
ag8
aS'variable_22'
p696
ag10
ag8
aS'variable_23'
p697
ag10
ag8
aS'variable_24'
p698
ag23
aS'int'
p699
aS'variable_25'
p700
ag23
aS'if'
p701
ag6
aS'func_1'
p702
ag6
ag42
aS'variable_1'
p703
aS'->'
p704
aS'variable_26'
p705
ag13
ag46
ag47
ag13
aS'variable_4'
p706
ag49
aS'func_2'
p707
ag6
ag42
aS'variable_1'
p708
aS'->'
p709
aS'variable_26'
p710
ag13
ag23
aS'variable_5'
p711
ag49
aS'func_3'
p712
ag6
ag42
aS'variable_1'
p713
aS'->'
p714
aS'variable_26'
p715
ag13
ag23
aS'variable_6'
p716
ag49
aS'func_4'
p717
ag6
ag42
aS'variable_1'
p718
aS'->'
p719
aS'variable_26'
p720
ag13
ag23
aS'variable_7'
p721
ag49
aS'func_5'
p722
ag6
ag42
aS'variable_1'
p723
aS'->'
p724
aS'variable_26'
p725
ag13
ag23
aS'variable_10'
p726
ag49
aS'func_6'
p727
ag6
ag42
aS'variable_1'
p728
aS'->'
p729
aS'variable_26'
p730
ag13
ag23
aS'variable_12'
p731
ag49
aS'variable_10'
p732
ag42
aS'0x40'
p733
ag23
aS'variable_13'
p734
ag49
aS'variable_10'
p735
ag42
aS'0x80'
p736
ag23
aS'variable_8'
p737
ag49
ag6
aS'variable_10'
p738
ag42
aS'0x07'
p739
ag13
ag83
ag84
ag23
aS'if'
p740
ag6
aS'variable_13'
p741
ag13
aS'variable_18'
p742
ag49
ag84
aS'<<'
p743
aS'variable_8'
p744
ag23
aS'if'
p745
ag6
aS'func_7'
p746
ag6
ag42
aS'variable_1'
p747
aS'->'
p748
aS'variable_26'
p749
ag13
ag46
aS'variable_18'
p750
ag8
ag96
ag13
aS'if'
p751
ag6
ag98
aS'variable_1'
p752
aS'->'
p753
aS'variable_27'
p754
ag13
aS'if'
p755
ag6
ag98
aS'variable_6'
p756
aS'||'
p757
aS'variable_6'
p758
ag106
aS'variable_1'
p759
aS'->'
p760
aS'variable_28'
p761
aS'||'
p762
aS'variable_4'
p763
ag106
ag49
aS'variable_1'
p764
aS'->'
p765
aS'variable_28'
p766
ag13
aS'if'
p767
ag6
ag98
aS'variable_7'
p768
aS'||'
p769
aS'variable_7'
p770
ag106
aS'variable_1'
p771
aS'->'
p772
aS'variable_29'
p773
aS'||'
p774
aS'variable_5'
p775
ag106
ag49
aS'variable_1'
p776
aS'->'
p777
aS'variable_29'
p778
ag13
aS'if'
p779
ag6
aS'variable_4'
p780
ag83
aS'variable_6'
p781
ag106
aS'variable_1'
p782
aS'->'
p783
aS'variable_28'
p784
ag13
aS'variable_11'
p785
ag49
aS'variable_1'
p786
aS'->'
p787
aS'variable_28'
p788
ag137
aS'variable_4'
p789
ag23
aS'variable_11'
p790
ag49
aS'variable_6'
p791
ag23
aS'if'
p792
ag6
aS'variable_5'
p793
ag83
aS'variable_7'
p794
ag106
aS'variable_1'
p795
aS'->'
p796
aS'variable_29'
p797
ag13
aS'variable_7'
p798
ag49
aS'variable_1'
p799
aS'->'
p800
aS'variable_29'
p801
ag137
aS'variable_5'
p802
ag23
aS'variable_1'
p803
aS'->'
p804
aS'variable_30'
p805
ag49
aS'variable_1'
p806
aS'->'
p807
aS'variable_31'
p808
ag23
aS'if'
p809
ag6
aS'variable_1'
p810
aS'->'
p811
aS'variable_31'
p812
aS'!='
p813
aS'variable_32'
p814
ag13
aS'variable_1'
p815
aS'->'
p816
aS'variable_33'
p817
ag49
aS'variable_4'
p818
ag23
aS'variable_1'
p819
aS'->'
p820
aS'variable_34'
p821
ag49
aS'variable_5'
p822
ag23
aS'variable_1'
p823
aS'->'
p824
aS'variable_35'
p825
ag49
aS'variable_11'
p826
ag23
aS'variable_1'
p827
aS'->'
p828
aS'variable_36'
p829
ag49
aS'variable_7'
p830
ag23
aS'if'
p831
ag6
aS'variable_1'
p832
aS'->'
p833
aS'variable_31'
p834
aS'=='
p835
aS'variable_37'
p836
ag13
aS'if'
p837
ag6
aS'variable_1'
p838
aS'->'
p839
aS'variable_38'
p840
ag106
ag49
ag190
ag13
aS'variable_1'
p841
aS'->'
p842
aS'variable_39'
p843
ag49
aS'variable_1'
p844
aS'->'
p845
aS'variable_40'
p846
ag23
aS'variable_1'
p847
aS'->'
p848
aS'variable_39'
p849
ag49
aS'variable_1'
p850
aS'->'
p851
aS'variable_41'
p852
ag23
aS'if'
p853
ag6
aS'variable_1'
p854
aS'->'
p855
aS'variable_31'
p856
aS'=='
p857
aS'variable_42'
p858
ag13
aS'if'
p859
ag6
ag98
aS'variable_1'
p860
aS'->'
p861
aS'variable_43'
p862
ag13
aS'if'
p863
ag6
aS'func_8'
p864
ag6
ag42
aS'variable_1'
p865
aS'->'
p866
aS'variable_26'
p867
ag13
ag46
ag218
ag13
aS'variable_9'
p868
ag49
aS'func_9'
p869
ag6
ag42
aS'variable_1'
p870
aS'->'
p871
aS'variable_26'
p872
ag13
ag23
aS'if'
p873
ag6
ag6
aS'variable_25'
p874
ag49
aS'func_10'
p875
ag6
aS'variable_1'
p876
aS'->'
p877
aS'variable_44'
p878
ag10
aS'variable_9'
p879
ag10
aS'variable_1'
p880
aS'->'
p881
aS'variable_26'
p882
ag234
aS'variable_45'
p883
ag10
aS'func_11'
p884
ag6
ag42
aS'variable_1'
p885
aS'->'
p886
aS'variable_26'
p887
ag13
ag10
aS'variable_46'
p888
ag13
ag13
ag46
ag190
ag13
aS'variable_17'
p889
ag49
aS'variable_3'
p890
aS'->'
p891
aS'variable_17'
p892
ag245
ag190
ag246
ag247
aS'sizeof'
p893
ag6
aS'variable_19'
p894
ag13
ag23
aS'variable_24'
p895
ag49
ag6
aS'uint32_t'
p896
ag8
ag13
aS'variable_3'
p897
aS'->'
p898
aS'variable_47'
p899
ag245
ag190
ag246
ag83
aS'variable_5'
p900
ag8
aS'variable_17'
p901
ag83
aS'variable_4'
p902
ag23
aS'variable_20'
p903
ag49
aS'variable_24'
p904
ag23
aS'variable_15'
p905
ag49
ag190
ag23
aS'variable_16'
p906
ag49
ag190
ag23
aS'for'
p907
ag6
aS'variable_14'
p908
ag49
ag190
ag23
aS'variable_14'
p909
ag46
aS'variable_7'
p910
ag23
aS'variable_14'
p911
aS'++'
p912
ag13
aS'int'
p913
aS'variable_48'
p914
ag49
aS'func_12'
p915
ag6
aS'variable_1'
p916
aS'->'
p917
aS'variable_44'
p918
ag10
aS'variable_1'
p919
aS'->'
p920
aS'variable_49'
p921
ag10
aS'variable_6'
p922
ag13
ag23
aS'if'
p923
ag6
aS'variable_48'
p924
aS'!='
p925
aS'variable_6'
p926
ag13
aS'variable_23'
p927
ag49
aS'variable_20'
p928
ag83
aS'variable_11'
p929
ag23
aS'for'
p930
ag6
aS'variable_22'
p931
ag49
aS'variable_20'
p932
ag10
aS'variable_50'
p933
ag49
aS'variable_1'
p934
aS'->'
p935
aS'variable_49'
p936
ag23
aS'variable_22'
p937
ag46
aS'variable_23'
p938
ag23
aS'variable_22'
p939
aS'++'
p940
ag10
aS'variable_50'
p941
aS'++'
p942
ag13
aS'if'
p943
ag6
aS'variable_12'
p944
ag13
aS'switch'
p945
ag6
aS'variable_15'
p946
ag13
aS'variable_16'
p947
aS'+='
p948
ag311
ag23
aS'variable_20'
p949
aS'+='
p950
aS'variable_17'
p951
ag8
ag311
ag23
aS'if'
p952
ag6
aS'variable_16'
p953
ag106
ag49
aS'variable_7'
p954
ag13
aS'variable_16'
p955
ag49
aS'variable_15'
p956
ag320
ag218
ag321
ag322
ag23
aS'variable_20'
p957
ag49
aS'variable_24'
p958
ag83
aS'variable_17'
p959
ag8
aS'variable_16'
p960
ag23
aS'variable_15'
p961
aS'++'
p962
ag23
aS'variable_16'
p963
aS'+='
p964
ag322
ag23
aS'variable_20'
p965
aS'+='
p966
aS'variable_17'
p967
ag8
ag322
ag23
aS'if'
p968
ag6
aS'variable_16'
p969
ag106
ag49
aS'variable_7'
p970
ag13
aS'variable_16'
p971
ag49
ag84
ag23
aS'variable_20'
p972
ag49
aS'variable_24'
p973
ag83
aS'variable_17'
p974
ag23
aS'variable_15'
p975
aS'++'
p976
ag23
aS'variable_16'
p977
aS'+='
p978
ag218
ag23
aS'variable_20'
p979
aS'+='
p980
aS'variable_17'
p981
ag8
ag218
ag23
aS'variable_20'
p982
aS'+='
p983
aS'variable_17'
p984
ag23
aa(lp985
S'static'
p986
aS'int'
p987
aS'func_0'
p988
ag6
aS'variable_0'
p989
ag8
aS'variable_1'
p990
ag10
aS'variable_2'
p991
ag8
aS'variable_3'
p992
ag13
aS'int'
p993
aS'variable_4'
p994
ag10
aS'variable_5'
p995
ag10
aS'variable_6'
p996
ag10
aS'variable_7'
p997
ag10
aS'variable_8'
p998
ag10
aS'variable_9'
p999
ag10
aS'variable_10'
p1000
ag10
aS'variable_11'
p1001
ag23
aS'int'
p1002
aS'variable_12'
p1003
ag10
aS'variable_13'
p1004
ag10
aS'variable_14'
p1005
ag10
aS'variable_15'
p1006
ag10
aS'variable_16'
p1007
ag10
aS'variable_17'
p1008
ag10
aS'variable_18'
p1009
ag23
aS'variable_19'
p1010
ag8
aS'variable_20'
p1011
ag10
ag8
aS'variable_21'
p1012
ag10
ag8
aS'variable_22'
p1013
ag10
ag8
aS'variable_23'
p1014
ag10
ag8
aS'variable_24'
p1015
ag23
aS'int'
p1016
aS'variable_25'
p1017
ag23
aS'if'
p1018
ag6
aS'func_1'
p1019
ag6
ag42
aS'variable_1'
p1020
aS'->'
p1021
aS'variable_26'
p1022
ag13
ag46
ag47
ag13
aS'variable_4'
p1023
ag49
aS'func_2'
p1024
ag6
ag42
aS'variable_1'
p1025
aS'->'
p1026
aS'variable_26'
p1027
ag13
ag23
aS'variable_5'
p1028
ag49
aS'func_3'
p1029
ag6
ag42
aS'variable_1'
p1030
aS'->'
p1031
aS'variable_26'
p1032
ag13
ag23
aS'variable_6'
p1033
ag49
aS'func_4'
p1034
ag6
ag42
aS'variable_1'
p1035
aS'->'
p1036
aS'variable_26'
p1037
ag13
ag23
aS'variable_7'
p1038
ag49
aS'func_5'
p1039
ag6
ag42
aS'variable_1'
p1040
aS'->'
p1041
aS'variable_26'
p1042
ag13
ag23
aS'variable_10'
p1043
ag49
aS'func_6'
p1044
ag6
ag42
aS'variable_1'
p1045
aS'->'
p1046
aS'variable_26'
p1047
ag13
ag23
aS'variable_13'
p1048
ag49
aS'variable_10'
p1049
ag42
aS'0x80'
p1050
ag23
aS'variable_8'
p1051
ag49
ag6
aS'variable_10'
p1052
ag42
aS'0x07'
p1053
ag13
ag83
ag84
ag23
aS'if'
p1054
ag6
aS'variable_13'
p1055
ag13
aS'variable_18'
p1056
ag49
ag84
aS'<<'
p1057
aS'variable_8'
p1058
ag23
aS'if'
p1059
ag6
aS'func_7'
p1060
ag6
ag42
aS'variable_1'
p1061
aS'->'
p1062
aS'variable_26'
p1063
ag13
ag46
aS'variable_18'
p1064
ag8
ag96
ag13
aS'if'
p1065
ag6
ag98
aS'variable_1'
p1066
aS'->'
p1067
aS'variable_27'
p1068
ag13
aS'if'
p1069
ag6
ag98
aS'variable_6'
p1070
aS'||'
p1071
aS'variable_6'
p1072
ag106
aS'variable_1'
p1073
aS'->'
p1074
aS'variable_28'
p1075
aS'||'
p1076
aS'variable_4'
p1077
ag106
ag49
aS'variable_1'
p1078
aS'->'
p1079
aS'variable_28'
p1080
ag13
aS'if'
p1081
ag6
ag98
aS'variable_7'
p1082
aS'||'
p1083
aS'variable_7'
p1084
ag106
aS'variable_1'
p1085
aS'->'
p1086
aS'variable_29'
p1087
aS'||'
p1088
aS'variable_5'
p1089
ag106
ag49
aS'variable_1'
p1090
aS'->'
p1091
aS'variable_29'
p1092
ag13
aS'if'
p1093
ag6
aS'variable_4'
p1094
ag83
aS'variable_6'
p1095
ag106
aS'variable_1'
p1096
aS'->'
p1097
aS'variable_28'
p1098
ag13
aS'variable_11'
p1099
ag49
aS'variable_1'
p1100
aS'->'
p1101
aS'variable_28'
p1102
ag137
aS'variable_4'
p1103
ag23
aS'variable_11'
p1104
ag49
aS'variable_6'
p1105
ag23
aS'if'
p1106
ag6
aS'variable_5'
p1107
ag83
aS'variable_7'
p1108
ag106
aS'variable_1'
p1109
aS'->'
p1110
aS'variable_29'
p1111
ag13
aS'variable_7'
p1112
ag49
aS'variable_1'
p1113
aS'->'
p1114
aS'variable_29'
p1115
ag137
aS'variable_5'
p1116
ag23
aS'variable_1'
p1117
aS'->'
p1118
aS'variable_30'
p1119
ag49
aS'variable_1'
p1120
aS'->'
p1121
aS'variable_31'
p1122
ag23
aS'if'
p1123
ag6
aS'variable_1'
p1124
aS'->'
p1125
aS'variable_31'
p1126
aS'!='
p1127
aS'variable_32'
p1128
ag13
aS'variable_1'
p1129
aS'->'
p1130
aS'variable_33'
p1131
ag49
aS'variable_4'
p1132
ag23
aS'variable_1'
p1133
aS'->'
p1134
aS'variable_34'
p1135
ag49
aS'variable_5'
p1136
ag23
aS'variable_1'
p1137
aS'->'
p1138
aS'variable_35'
p1139
ag49
aS'variable_11'
p1140
ag23
aS'variable_1'
p1141
aS'->'
p1142
aS'variable_36'
p1143
ag49
aS'variable_7'
p1144
ag23
aS'if'
p1145
ag6
aS'variable_1'
p1146
aS'->'
p1147
aS'variable_31'
p1148
aS'=='
p1149
aS'variable_37'
p1150
ag13
aS'if'
p1151
ag6
aS'variable_1'
p1152
aS'->'
p1153
aS'variable_38'
p1154
ag106
ag49
ag190
ag13
aS'variable_1'
p1155
aS'->'
p1156
aS'variable_39'
p1157
ag49
aS'variable_1'
p1158
aS'->'
p1159
aS'variable_40'
p1160
ag23
aS'variable_1'
p1161
aS'->'
p1162
aS'variable_39'
p1163
ag49
aS'variable_1'
p1164
aS'->'
p1165
aS'variable_41'
p1166
ag23
aS'if'
p1167
ag6
aS'variable_1'
p1168
aS'->'
p1169
aS'variable_31'
p1170
aS'=='
p1171
aS'variable_42'
p1172
ag13
aS'if'
p1173
ag6
ag98
aS'variable_1'
p1174
aS'->'
p1175
aS'variable_43'
p1176
ag13
aS'if'
p1177
ag6
aS'func_8'
p1178
ag6
ag42
aS'variable_1'
p1179
aS'->'
p1180
aS'variable_26'
p1181
ag13
ag46
ag218
ag13
aS'variable_9'
p1182
ag49
aS'func_9'
p1183
ag6
ag42
aS'variable_1'
p1184
aS'->'
p1185
aS'variable_26'
p1186
ag13
ag23
aS'if'
p1187
ag6
ag6
aS'variable_25'
p1188
ag49
aS'func_10'
p1189
ag6
aS'variable_1'
p1190
aS'->'
p1191
aS'variable_44'
p1192
ag10
aS'variable_9'
p1193
ag10
aS'variable_1'
p1194
aS'->'
p1195
aS'variable_26'
p1196
ag234
aS'variable_45'
p1197
ag10
aS'func_11'
p1198
ag6
ag42
aS'variable_1'
p1199
aS'->'
p1200
aS'variable_26'
p1201
ag13
ag10
aS'variable_46'
p1202
ag13
ag13
ag46
ag190
ag13
aS'variable_17'
p1203
ag49
aS'variable_3'
p1204
aS'->'
p1205
aS'variable_17'
p1206
ag245
ag190
ag246
ag247
aS'sizeof'
p1207
ag6
aS'variable_19'
p1208
ag13
ag23
aS'variable_24'
p1209
ag49
ag6
aS'uint32_t'
p1210
ag8
ag13
aS'variable_3'
p1211
aS'->'
p1212
aS'variable_47'
p1213
ag245
ag190
ag246
ag83
aS'variable_5'
p1214
ag8
aS'variable_17'
p1215
ag83
aS'variable_4'
p1216
ag23
aS'variable_20'
p1217
ag49
aS'variable_24'
p1218
ag23
aS'variable_23'
p1219
ag49
aS'variable_20'
p1220
ag83
aS'variable_11'
p1221
ag23
aS'for'
p1222
ag6
aS'variable_22'
p1223
ag49
aS'variable_20'
p1224
ag10
aS'variable_48'
p1225
ag49
aS'variable_1'
p1226
aS'->'
p1227
aS'variable_49'
p1228
ag23
aS'variable_22'
p1229
ag46
aS'variable_23'
p1230
ag23
aS'variable_22'
p1231
aS'++'
p1232
ag10
aS'variable_48'
p1233
aS'++'
p1234
ag13
aS'if'
p1235
ag6
ag8
aS'variable_48'
p1236
aS'!='
p1237
aS'variable_1'
p1238
aS'->'
p1239
aS'variable_38'
p1240
ag13
ag8
aS'variable_22'
p1241
ag49
aS'variable_21'
p1242
ag245
ag8
aS'variable_48'
p1243
ag246
ag23
aS'variable_20'
p1244
aS'+='
p1245
aS'variable_17'
p1246
ag8
ag311
ag23
aS'variable_20'
p1247
ag49
aS'variable_24'
p1248
ag83
aS'variable_17'
p1249
ag8
aS'variable_16'
p1250
ag23
aS'variable_20'
p1251
aS'+='
p1252
aS'variable_17'
p1253
ag8
ag322
ag23
aS'variable_20'
p1254
ag49
aS'variable_24'
p1255
ag83
aS'variable_17'
p1256
ag23
aS'variable_20'
p1257
aS'+='
p1258
aS'variable_17'
p1259
ag8
ag218
ag23
aS'variable_20'
p1260
aS'+='
p1261
aS'variable_17'
p1262
ag23
aa(lp1263
S'static'
p1264
aS'int'
p1265
aS'func_0'
p1266
ag6
aS'variable_0'
p1267
ag8
aS'variable_1'
p1268
ag10
aS'variable_2'
p1269
ag8
aS'variable_3'
p1270
ag13
aS'int'
p1271
aS'variable_4'
p1272
ag10
aS'variable_5'
p1273
ag10
aS'variable_6'
p1274
ag10
aS'variable_7'
p1275
ag10
aS'variable_8'
p1276
ag10
aS'variable_9'
p1277
ag10
aS'variable_10'
p1278
ag10
aS'variable_11'
p1279
ag23
aS'int'
p1280
aS'variable_12'
p1281
ag10
aS'variable_13'
p1282
ag10
aS'variable_14'
p1283
ag10
aS'variable_15'
p1284
ag10
aS'variable_16'
p1285
ag10
aS'variable_17'
p1286
ag10
aS'variable_18'
p1287
ag23
aS'if'
p1288
ag6
aS'func_1'
p1289
ag6
ag42
aS'variable_1'
p1290
aS'->'
p1291
aS'variable_19'
p1292
ag13
ag46
ag47
ag13
aS'variable_4'
p1293
ag49
aS'func_2'
p1294
ag6
ag42
aS'variable_1'
p1295
aS'->'
p1296
aS'variable_19'
p1297
ag13
ag23
aS'variable_5'
p1298
ag49
aS'func_3'
p1299
ag6
ag42
aS'variable_1'
p1300
aS'->'
p1301
aS'variable_19'
p1302
ag13
ag23
aS'variable_6'
p1303
ag49
aS'func_4'
p1304
ag6
ag42
aS'variable_1'
p1305
aS'->'
p1306
aS'variable_19'
p1307
ag13
ag23
aS'variable_7'
p1308
ag49
aS'func_5'
p1309
ag6
ag42
aS'variable_1'
p1310
aS'->'
p1311
aS'variable_19'
p1312
ag13
ag23
aS'variable_10'
p1313
ag49
aS'func_6'
p1314
ag6
ag42
aS'variable_1'
p1315
aS'->'
p1316
aS'variable_19'
p1317
ag13
ag23
aS'variable_13'
p1318
ag49
aS'variable_10'
p1319
ag42
aS'0x80'
p1320
ag23
aS'variable_8'
p1321
ag49
ag6
aS'variable_10'
p1322
ag42
aS'0x07'
p1323
ag13
ag83
ag84
ag23
aS'if'
p1324
ag6
aS'variable_13'
p1325
ag13
aS'variable_18'
p1326
ag49
ag84
aS'<<'
p1327
aS'variable_8'
p1328
ag23
aS'if'
p1329
ag6
aS'func_7'
p1330
ag6
ag42
aS'variable_1'
p1331
aS'->'
p1332
aS'variable_19'
p1333
ag13
ag46
aS'variable_18'
p1334
ag8
ag96
ag13
aS'if'
p1335
ag6
ag98
aS'variable_1'
p1336
aS'->'
p1337
aS'variable_20'
p1338
ag13
aS'if'
p1339
ag6
ag98
aS'variable_6'
p1340
aS'||'
p1341
aS'variable_6'
p1342
ag106
aS'variable_1'
p1343
aS'->'
p1344
aS'variable_21'
p1345
aS'||'
p1346
aS'variable_4'
p1347
ag106
ag49
aS'variable_1'
p1348
aS'->'
p1349
aS'variable_21'
p1350
ag13
aS'if'
p1351
ag6
ag98
aS'variable_7'
p1352
aS'||'
p1353
aS'variable_7'
p1354
ag106
aS'variable_1'
p1355
aS'->'
p1356
aS'variable_22'
p1357
aS'||'
p1358
aS'variable_5'
p1359
ag106
ag49
aS'variable_1'
p1360
aS'->'
p1361
aS'variable_22'
p1362
ag13
aS'if'
p1363
ag6
aS'variable_4'
p1364
ag83
aS'variable_6'
p1365
ag106
aS'variable_1'
p1366
aS'->'
p1367
aS'variable_21'
p1368
ag13
aS'variable_11'
p1369
ag49
aS'variable_1'
p1370
aS'->'
p1371
aS'variable_21'
p1372
ag137
aS'variable_4'
p1373
ag23
aS'variable_11'
p1374
ag49
aS'variable_6'
p1375
ag23
aS'if'
p1376
ag6
aS'variable_5'
p1377
ag83
aS'variable_7'
p1378
ag106
aS'variable_1'
p1379
aS'->'
p1380
aS'variable_22'
p1381
ag13
aS'variable_7'
p1382
ag49
aS'variable_1'
p1383
aS'->'
p1384
aS'variable_22'
p1385
ag137
aS'variable_5'
p1386
ag23
aS'variable_1'
p1387
aS'->'
p1388
aS'variable_23'
p1389
ag49
aS'variable_1'
p1390
aS'->'
p1391
aS'variable_24'
p1392
ag23
aS'if'
p1393
ag6
aS'variable_1'
p1394
aS'->'
p1395
aS'variable_24'
p1396
aS'!='
p1397
aS'variable_25'
p1398
ag13
aS'variable_1'
p1399
aS'->'
p1400
aS'variable_26'
p1401
ag49
aS'variable_4'
p1402
ag23
aS'variable_1'
p1403
aS'->'
p1404
aS'variable_27'
p1405
ag49
aS'variable_5'
p1406
ag23
aS'variable_1'
p1407
aS'->'
p1408
aS'variable_28'
p1409
ag49
aS'variable_11'
p1410
ag23
aS'variable_1'
p1411
aS'->'
p1412
aS'variable_29'
p1413
ag49
aS'variable_7'
p1414
ag23
aS'if'
p1415
ag6
aS'variable_1'
p1416
aS'->'
p1417
aS'variable_24'
p1418
aS'=='
p1419
aS'variable_30'
p1420
ag13
aS'if'
p1421
ag6
aS'variable_1'
p1422
aS'->'
p1423
aS'variable_24'
p1424
aS'=='
p1425
aS'variable_31'
p1426
ag13
aS'if'
p1427
ag6
ag98
aS'variable_1'
p1428
aS'->'
p1429
aS'variable_32'
p1430
ag13
aS'func_8'
p1431
ag6
ag6
aS'uint32_t'
p1432
ag8
ag13
aS'variable_3'
p1433
aS'->'
p1434
aS'variable_33'
p1435
ag245
ag190
ag246
ag10
aS'variable_1'
p1436
aS'->'
p1437
aS'variable_32'
p1438
ag10
aS'variable_3'
p1439
aS'->'
p1440
aS'variable_17'
p1441
ag245
ag190
ag246
ag247
aS'sizeof'
p1442
ag6
aS'variable_34'
p1443
ag13
ag10
aS'variable_4'
p1444
ag10
aS'variable_5'
p1445
ag10
aS'variable_11'
p1446
ag10
aS'variable_7'
p1447
ag13
ag23
aa(lp1448
S'static'
p1449
aS'int'
p1450
aS'func_0'
p1451
ag6
aS'variable_0'
p1452
ag8
aS'variable_1'
p1453
ag10
aS'variable_2'
p1454
ag8
aS'variable_3'
p1455
ag13
aS'int'
p1456
aS'variable_4'
p1457
ag10
aS'variable_5'
p1458
ag10
aS'variable_6'
p1459
ag10
aS'variable_7'
p1460
ag10
aS'variable_8'
p1461
ag10
aS'variable_9'
p1462
ag10
aS'variable_10'
p1463
ag10
aS'variable_11'
p1464
ag23
aS'int'
p1465
aS'variable_12'
p1466
ag10
aS'variable_13'
p1467
ag10
aS'variable_14'
p1468
ag10
aS'variable_15'
p1469
ag10
aS'variable_16'
p1470
ag10
aS'variable_17'
p1471
ag10
aS'variable_18'
p1472
ag23
aS'if'
p1473
ag6
aS'func_1'
p1474
ag6
ag42
aS'variable_1'
p1475
aS'->'
p1476
aS'variable_19'
p1477
ag13
ag46
ag47
ag13
aS'variable_4'
p1478
ag49
aS'func_2'
p1479
ag6
ag42
aS'variable_1'
p1480
aS'->'
p1481
aS'variable_19'
p1482
ag13
ag23
aS'variable_5'
p1483
ag49
aS'func_3'
p1484
ag6
ag42
aS'variable_1'
p1485
aS'->'
p1486
aS'variable_19'
p1487
ag13
ag23
aS'variable_6'
p1488
ag49
aS'func_4'
p1489
ag6
ag42
aS'variable_1'
p1490
aS'->'
p1491
aS'variable_19'
p1492
ag13
ag23
aS'variable_7'
p1493
ag49
aS'func_5'
p1494
ag6
ag42
aS'variable_1'
p1495
aS'->'
p1496
aS'variable_19'
p1497
ag13
ag23
aS'variable_10'
p1498
ag49
aS'func_6'
p1499
ag6
ag42
aS'variable_1'
p1500
aS'->'
p1501
aS'variable_19'
p1502
ag13
ag23
aS'variable_13'
p1503
ag49
aS'variable_10'
p1504
ag42
aS'0x80'
p1505
ag23
aS'variable_8'
p1506
ag49
ag6
aS'variable_10'
p1507
ag42
aS'0x07'
p1508
ag13
ag83
ag84
ag23
aS'if'
p1509
ag6
aS'variable_13'
p1510
ag13
aS'variable_18'
p1511
ag49
ag84
aS'<<'
p1512
aS'variable_8'
p1513
ag23
aS'if'
p1514
ag6
aS'func_7'
p1515
ag6
ag42
aS'variable_1'
p1516
aS'->'
p1517
aS'variable_19'
p1518
ag13
ag46
aS'variable_18'
p1519
ag8
ag96
ag13
aS'if'
p1520
ag6
ag98
aS'variable_1'
p1521
aS'->'
p1522
aS'variable_20'
p1523
ag13
aS'if'
p1524
ag6
ag98
aS'variable_6'
p1525
aS'||'
p1526
aS'variable_6'
p1527
ag106
aS'variable_1'
p1528
aS'->'
p1529
aS'variable_21'
p1530
aS'||'
p1531
aS'variable_4'
p1532
ag106
ag49
aS'variable_1'
p1533
aS'->'
p1534
aS'variable_21'
p1535
ag13
aS'if'
p1536
ag6
ag98
aS'variable_7'
p1537
aS'||'
p1538
aS'variable_7'
p1539
ag106
aS'variable_1'
p1540
aS'->'
p1541
aS'variable_22'
p1542
aS'||'
p1543
aS'variable_5'
p1544
ag106
ag49
aS'variable_1'
p1545
aS'->'
p1546
aS'variable_22'
p1547
ag13
aS'if'
p1548
ag6
aS'variable_1'
p1549
aS'->'
p1550
aS'variable_23'
p1551
aS'=='
p1552
aS'variable_24'
p1553
ag13
aS'if'
p1554
ag6
aS'variable_1'
p1555
aS'->'
p1556
aS'variable_23'
p1557
aS'=='
p1558
aS'variable_25'
p1559
ag13
aS'func_8'
p1560
ag6
aS'variable_1'
p1561
aS'->'
p1562
aS'variable_26'
p1563
ag10
ag6
aS'uint32_t'
p1564
ag8
ag13
aS'variable_3'
p1565
aS'->'
p1566
aS'variable_27'
p1567
ag245
ag190
ag246
ag10
aS'variable_3'
p1568
aS'->'
p1569
aS'variable_17'
p1570
ag245
ag190
ag246
ag247
aS'sizeof'
p1571
ag6
aS'variable_28'
p1572
ag13
ag10
aS'variable_1'
p1573
aS'->'
p1574
aS'variable_29'
p1575
ag10
aS'variable_1'
p1576
aS'->'
p1577
aS'variable_30'
p1578
ag10
aS'variable_1'
p1579
aS'->'
p1580
aS'variable_31'
p1581
ag10
aS'variable_1'
p1582
aS'->'
p1583
aS'variable_32'
p1584
ag13
ag23
aa(lp1585
S'static'
p1586
aS'int'
p1587
aS'func_0'
p1588
ag6
aS'variable_0'
p1589
ag8
aS'variable_1'
p1590
ag10
aS'variable_2'
p1591
ag8
aS'variable_3'
p1592
ag13
aS'int'
p1593
aS'variable_4'
p1594
ag10
aS'variable_5'
p1595
ag10
aS'variable_6'
p1596
ag10
aS'variable_7'
p1597
ag10
aS'variable_8'
p1598
ag10
aS'variable_9'
p1599
ag10
aS'variable_10'
p1600
ag10
aS'variable_11'
p1601
ag23
aS'int'
p1602
aS'variable_12'
p1603
ag10
aS'variable_13'
p1604
ag10
aS'variable_14'
p1605
ag10
aS'variable_15'
p1606
ag10
aS'variable_16'
p1607
ag10
aS'variable_17'
p1608
ag10
aS'variable_18'
p1609
ag23
aS'if'
p1610
ag6
aS'func_1'
p1611
ag6
ag42
aS'variable_1'
p1612
aS'->'
p1613
aS'variable_19'
p1614
ag13
ag46
ag47
ag13
aS'variable_4'
p1615
ag49
aS'func_2'
p1616
ag6
ag42
aS'variable_1'
p1617
aS'->'
p1618
aS'variable_19'
p1619
ag13
ag23
aS'variable_5'
p1620
ag49
aS'func_3'
p1621
ag6
ag42
aS'variable_1'
p1622
aS'->'
p1623
aS'variable_19'
p1624
ag13
ag23
aS'variable_6'
p1625
ag49
aS'func_4'
p1626
ag6
ag42
aS'variable_1'
p1627
aS'->'
p1628
aS'variable_19'
p1629
ag13
ag23
aS'variable_7'
p1630
ag49
aS'func_5'
p1631
ag6
ag42
aS'variable_1'
p1632
aS'->'
p1633
aS'variable_19'
p1634
ag13
ag23
aS'variable_10'
p1635
ag49
aS'func_6'
p1636
ag6
ag42
aS'variable_1'
p1637
aS'->'
p1638
aS'variable_19'
p1639
ag13
ag23
aS'variable_13'
p1640
ag49
aS'variable_10'
p1641
ag42
aS'0x80'
p1642
ag23
aS'variable_8'
p1643
ag49
ag6
aS'variable_10'
p1644
ag42
aS'0x07'
p1645
ag13
ag83
ag84
ag23
aS'if'
p1646
ag6
aS'variable_13'
p1647
ag13
aS'variable_18'
p1648
ag49
ag84
aS'<<'
p1649
aS'variable_8'
p1650
ag23
aS'if'
p1651
ag6
aS'func_7'
p1652
ag6
ag42
aS'variable_1'
p1653
aS'->'
p1654
aS'variable_19'
p1655
ag13
ag46
aS'variable_18'
p1656
ag8
ag96
ag13
aS'if'
p1657
ag6
ag98
aS'variable_1'
p1658
aS'->'
p1659
aS'variable_20'
p1660
ag13
aS'if'
p1661
ag6
ag98
aS'variable_6'
p1662
aS'||'
p1663
aS'variable_6'
p1664
ag106
aS'variable_1'
p1665
aS'->'
p1666
aS'variable_21'
p1667
aS'||'
p1668
aS'variable_4'
p1669
ag106
ag49
aS'variable_1'
p1670
aS'->'
p1671
aS'variable_21'
p1672
ag13
aS'if'
p1673
ag6
ag98
aS'variable_7'
p1674
aS'||'
p1675
aS'variable_7'
p1676
ag106
aS'variable_1'
p1677
aS'->'
p1678
aS'variable_22'
p1679
aS'||'
p1680
aS'variable_5'
p1681
ag106
ag49
aS'variable_1'
p1682
aS'->'
p1683
aS'variable_22'
p1684
ag13
aS'if'
p1685
ag6
aS'variable_5'
p1686
ag83
aS'variable_7'
p1687
ag106
aS'variable_1'
p1688
aS'->'
p1689
aS'variable_22'
p1690
ag13
aS'variable_7'
p1691
ag49
aS'variable_1'
p1692
aS'->'
p1693
aS'variable_22'
p1694
ag137
aS'variable_5'
p1695
ag23
aS'variable_1'
p1696
aS'->'
p1697
aS'variable_23'
p1698
ag49
aS'variable_7'
p1699
ag23
aS'if'
p1700
ag6
aS'variable_1'
p1701
aS'->'
p1702
aS'variable_24'
p1703
aS'=='
p1704
aS'variable_25'
p1705
ag13
aS'if'
p1706
ag6
aS'variable_1'
p1707
aS'->'
p1708
aS'variable_26'
p1709
ag106
ag49
ag190
ag13
aS'variable_1'
p1710
aS'->'
p1711
aS'variable_27'
p1712
ag49
aS'variable_1'
p1713
aS'->'
p1714
aS'variable_28'
p1715
ag23
aS'variable_1'
p1716
aS'->'
p1717
aS'variable_27'
p1718
ag49
aS'variable_1'
p1719
aS'->'
p1720
aS'variable_29'
p1721
ag23
aS'if'
p1722
ag6
aS'variable_1'
p1723
aS'->'
p1724
aS'variable_24'
p1725
aS'=='
p1726
aS'variable_30'
p1727
ag13
aS'if'
p1728
ag6
ag98
aS'variable_1'
p1729
aS'->'
p1730
aS'variable_31'
p1731
ag13
aS'func_8'
p1732
ag6
ag6
aS'uint32_t'
p1733
ag8
ag13
aS'variable_3'
p1734
aS'->'
p1735
aS'variable_32'
p1736
ag245
ag190
ag246
ag10
aS'variable_1'
p1737
aS'->'
p1738
aS'variable_31'
p1739
ag10
aS'variable_3'
p1740
aS'->'
p1741
aS'variable_17'
p1742
ag245
ag190
ag246
ag247
aS'sizeof'
p1743
ag6
aS'variable_33'
p1744
ag13
ag10
aS'variable_4'
p1745
ag10
aS'variable_5'
p1746
ag10
aS'variable_11'
p1747
ag10
aS'variable_7'
p1748
ag13
ag23
aS'if'
p1749
ag6
aS'func_9'
p1750
ag6
ag42
aS'variable_1'
p1751
aS'->'
p1752
aS'variable_19'
p1753
ag13
ag46
ag218
ag13
aS'variable_9'
p1754
ag49
aS'func_10'
p1755
ag6
ag42
aS'variable_1'
p1756
aS'->'
p1757
aS'variable_19'
p1758
ag13
ag23
aS'if'
p1759
ag6
ag6
aS'variable_34'
p1760
ag49
aS'func_11'
p1761
ag6
aS'variable_1'
p1762
aS'->'
p1763
aS'variable_35'
p1764
ag10
aS'variable_9'
p1765
ag10
aS'variable_1'
p1766
aS'->'
p1767
aS'variable_19'
p1768
ag234
aS'variable_36'
p1769
ag10
aS'func_12'
p1770
ag6
ag42
aS'variable_1'
p1771
aS'->'
p1772
aS'variable_19'
p1773
ag13
ag10
aS'variable_37'
p1774
ag13
ag13
ag46
ag190
ag13
aS'func_13'
p1775
ag6
aS'variable_1'
p1776
aS'->'
p1777
aS'variable_38'
p1778
ag10
aS'variable_39'
p1779
ag10
aS'"'
p1780
aS'LZW'
p1781
aS'init'
p1782
aS'failed'
p1783
aS'\\'
p1784
aS'n'
p1785
ag1780
ag13
ag23
aS'return'
p1786
aS'variable_34'
p1787
ag23
aS'for'
p1788
ag6
aS'variable_14'
p1789
ag49
ag190
ag23
aS'variable_14'
p1790
ag46
aS'variable_7'
p1791
ag23
aS'variable_14'
p1792
aS'++'
p1793
ag13
aS'int'
p1794
aS'variable_40'
p1795
ag49
aS'func_14'
p1796
ag6
aS'variable_1'
p1797
aS'->'
p1798
aS'variable_35'
p1799
ag10
aS'variable_1'
p1800
aS'->'
p1801
aS'variable_41'
p1802
ag10
aS'variable_6'
p1803
ag13
ag23
aS'if'
p1804
ag6
aS'variable_40'
p1805
aS'!='
p1806
aS'variable_6'
p1807
ag13
aS'if'
p1808
ag6
aS'variable_40'
p1809
ag13
aS'func_15'
p1810
ag6
aS'variable_1'
p1811
aS'->'
p1812
aS'variable_38'
p1813
ag10
aS'variable_39'
p1814
ag10
ag1780
aS'LZW'
p1815
aS'decode'
p1816
aS'failed'
p1817
ag1784
ag1785
ag1780
ag13
ag23
aS'for'
p1818
ag6
aS'variable_42'
p1819
ag49
aS'variable_43'
p1820
ag10
aS'variable_44'
p1821
ag49
aS'variable_1'
p1822
aS'->'
p1823
aS'variable_41'
p1824
ag23
aS'variable_42'
p1825
ag46
aS'variable_45'
p1826
ag23
aS'variable_42'
p1827
aS'++'
p1828
ag10
aS'variable_44'
p1829
aS'++'
p1830
ag13
aS'if'
p1831
ag6
ag8
aS'variable_44'
p1832
aS'!='
p1833
aS'variable_1'
p1834
aS'->'
p1835
aS'variable_26'
p1836
ag13
ag8
aS'variable_42'
p1837
ag49
aS'variable_46'
p1838
ag245
ag8
aS'variable_44'
p1839
ag246
ag23
aS'if'
p1840
ag6
aS'variable_16'
p1841
ag106
ag49
aS'variable_7'
p1842
ag13
aS'if'
p1843
ag6
aS'variable_16'
p1844
ag106
ag49
aS'variable_7'
p1845
ag13
aS'func_16'
p1846
ag6
aS'variable_1'
p1847
aS'->'
p1848
aS'variable_35'
p1849
ag13
ag23
aS'variable_1'
p1850
aS'->'
p1851
aS'variable_26'
p1852
ag49
ag137
ag84
ag23
aS'variable_1'
p1853
aS'->'
p1854
aS'variable_24'
p1855
ag49
aS'variable_47'
p1856
ag23
aa(lp1857
S'static'
p1858
aS'int'
p1859
aS'func_0'
p1860
ag6
aS'variable_0'
p1861
ag8
aS'variable_1'
p1862
ag10
aS'variable_2'
p1863
ag8
aS'variable_3'
p1864
ag13
aS'int'
p1865
aS'variable_4'
p1866
ag10
aS'variable_5'
p1867
ag10
aS'variable_6'
p1868
ag10
aS'variable_7'
p1869
ag10
aS'variable_8'
p1870
ag10
aS'variable_9'
p1871
ag10
aS'variable_10'
p1872
ag10
aS'variable_11'
p1873
ag23
aS'int'
p1874
aS'variable_12'
p1875
ag10
aS'variable_13'
p1876
ag10
aS'variable_14'
p1877
ag10
aS'variable_15'
p1878
ag10
aS'variable_16'
p1879
ag10
aS'variable_17'
p1880
ag10
aS'variable_18'
p1881
ag23
aS'if'
p1882
ag6
aS'func_1'
p1883
ag6
ag42
aS'variable_1'
p1884
aS'->'
p1885
aS'variable_19'
p1886
ag13
ag46
ag47
ag13
aS'variable_4'
p1887
ag49
aS'func_2'
p1888
ag6
ag42
aS'variable_1'
p1889
aS'->'
p1890
aS'variable_19'
p1891
ag13
ag23
aS'variable_5'
p1892
ag49
aS'func_3'
p1893
ag6
ag42
aS'variable_1'
p1894
aS'->'
p1895
aS'variable_19'
p1896
ag13
ag23
aS'variable_6'
p1897
ag49
aS'func_4'
p1898
ag6
ag42
aS'variable_1'
p1899
aS'->'
p1900
aS'variable_19'
p1901
ag13
ag23
aS'variable_7'
p1902
ag49
aS'func_5'
p1903
ag6
ag42
aS'variable_1'
p1904
aS'->'
p1905
aS'variable_19'
p1906
ag13
ag23
aS'variable_10'
p1907
ag49
aS'func_6'
p1908
ag6
ag42
aS'variable_1'
p1909
aS'->'
p1910
aS'variable_19'
p1911
ag13
ag23
aS'variable_13'
p1912
ag49
aS'variable_10'
p1913
ag42
aS'0x80'
p1914
ag23
aS'variable_8'
p1915
ag49
ag6
aS'variable_10'
p1916
ag42
aS'0x07'
p1917
ag13
ag83
ag84
ag23
aS'if'
p1918
ag6
aS'variable_13'
p1919
ag13
aS'variable_18'
p1920
ag49
ag84
aS'<<'
p1921
aS'variable_8'
p1922
ag23
aS'if'
p1923
ag6
aS'func_7'
p1924
ag6
ag42
aS'variable_1'
p1925
aS'->'
p1926
aS'variable_19'
p1927
ag13
ag46
aS'variable_18'
p1928
ag8
ag96
ag13
aS'if'
p1929
ag6
ag98
aS'variable_1'
p1930
aS'->'
p1931
aS'variable_20'
p1932
ag13
aS'if'
p1933
ag6
ag98
aS'variable_6'
p1934
aS'||'
p1935
aS'variable_6'
p1936
ag106
aS'variable_1'
p1937
aS'->'
p1938
aS'variable_21'
p1939
aS'||'
p1940
aS'variable_4'
p1941
ag106
ag49
aS'variable_1'
p1942
aS'->'
p1943
aS'variable_21'
p1944
ag13
aS'if'
p1945
ag6
ag98
aS'variable_7'
p1946
aS'||'
p1947
aS'variable_7'
p1948
ag106
aS'variable_1'
p1949
aS'->'
p1950
aS'variable_22'
p1951
aS'||'
p1952
aS'variable_5'
p1953
ag106
ag49
aS'variable_1'
p1954
aS'->'
p1955
aS'variable_22'
p1956
ag13
aS'if'
p1957
ag6
aS'variable_4'
p1958
ag83
aS'variable_6'
p1959
ag106
aS'variable_1'
p1960
aS'->'
p1961
aS'variable_21'
p1962
ag13
aS'variable_11'
p1963
ag49
aS'variable_1'
p1964
aS'->'
p1965
aS'variable_21'
p1966
ag137
aS'variable_4'
p1967
ag23
aS'variable_1'
p1968
aS'->'
p1969
aS'variable_23'
p1970
ag49
aS'variable_11'
p1971
ag23
aS'variable_1'
p1972
aS'->'
p1973
aS'variable_24'
p1974
ag49
aS'variable_7'
p1975
ag23
aS'if'
p1976
ag6
aS'variable_1'
p1977
aS'->'
p1978
aS'variable_25'
p1979
aS'=='
p1980
aS'variable_26'
p1981
ag13
aS'if'
p1982
ag6
aS'variable_1'
p1983
aS'->'
p1984
aS'variable_27'
p1985
ag106
ag49
ag190
ag13
aS'variable_1'
p1986
aS'->'
p1987
aS'variable_28'
p1988
ag49
aS'variable_1'
p1989
aS'->'
p1990
aS'variable_29'
p1991
ag23
aS'variable_1'
p1992
aS'->'
p1993
aS'variable_28'
p1994
ag49
aS'variable_1'
p1995
aS'->'
p1996
aS'variable_30'
p1997
ag23
aS'if'
p1998
ag6
aS'variable_1'
p1999
aS'->'
p2000
aS'variable_25'
p2001
aS'=='
p2002
aS'variable_31'
p2003
ag13
aS'if'
p2004
ag6
ag98
aS'variable_1'
p2005
aS'->'
p2006
aS'variable_32'
p2007
ag13
aS'func_8'
p2008
ag6
ag6
aS'uint32_t'
p2009
ag8
ag13
aS'variable_3'
p2010
aS'->'
p2011
aS'variable_33'
p2012
ag245
ag190
ag246
ag10
aS'variable_1'
p2013
aS'->'
p2014
aS'variable_32'
p2015
ag10
aS'variable_3'
p2016
aS'->'
p2017
aS'variable_17'
p2018
ag245
ag190
ag246
ag247
aS'sizeof'
p2019
ag6
aS'variable_34'
p2020
ag13
ag10
aS'variable_4'
p2021
ag10
aS'variable_5'
p2022
ag10
aS'variable_11'
p2023
ag10
aS'variable_7'
p2024
ag13
ag23
aS'if'
p2025
ag6
aS'func_9'
p2026
ag6
ag42
aS'variable_1'
p2027
aS'->'
p2028
aS'variable_19'
p2029
ag13
ag46
ag218
ag13
aS'variable_9'
p2030
ag49
aS'func_10'
p2031
ag6
ag42
aS'variable_1'
p2032
aS'->'
p2033
aS'variable_19'
p2034
ag13
ag23
aS'if'
p2035
ag6
ag6
aS'variable_35'
p2036
ag49
aS'func_11'
p2037
ag6
aS'variable_1'
p2038
aS'->'
p2039
aS'variable_36'
p2040
ag10
aS'variable_9'
p2041
ag10
aS'variable_1'
p2042
aS'->'
p2043
aS'variable_19'
p2044
ag234
aS'variable_37'
p2045
ag10
aS'func_12'
p2046
ag6
ag42
aS'variable_1'
p2047
aS'->'
p2048
aS'variable_19'
p2049
ag13
ag10
aS'variable_38'
p2050
ag13
ag13
ag46
ag190
ag13
aS'func_13'
p2051
ag6
aS'variable_1'
p2052
aS'->'
p2053
aS'variable_39'
p2054
ag10
aS'variable_40'
p2055
ag10
ag1780
aS'LZW'
p2056
aS'init'
p2057
aS'failed'
p2058
ag1784
ag1785
ag1780
ag13
ag23
aS'return'
p2059
aS'variable_35'
p2060
ag23
aS'int'
p2061
aS'variable_41'
p2062
ag49
aS'func_14'
p2063
ag6
aS'variable_1'
p2064
aS'->'
p2065
aS'variable_36'
p2066
ag10
aS'variable_1'
p2067
aS'->'
p2068
aS'variable_42'
p2069
ag10
aS'variable_6'
p2070
ag13
ag23
aS'if'
p2071
ag6
aS'variable_41'
p2072
aS'!='
p2073
aS'variable_6'
p2074
ag13
aS'if'
p2075
ag6
aS'variable_41'
p2076
ag13
aS'func_15'
p2077
ag6
aS'variable_1'
p2078
aS'->'
p2079
aS'variable_39'
p2080
ag10
aS'variable_40'
p2081
ag10
ag1780
aS'LZW'
p2082
aS'decode'
p2083
aS'failed'
p2084
ag1784
ag1785
ag1780
ag13
ag23
aS'variable_43'
p2085
ag49
aS'variable_44'
p2086
ag83
aS'variable_11'
p2087
ag23
aS'for'
p2088
ag6
aS'variable_45'
p2089
ag49
aS'variable_44'
p2090
ag10
aS'variable_46'
p2091
ag49
aS'variable_1'
p2092
aS'->'
p2093
aS'variable_42'
p2094
ag23
aS'variable_45'
p2095
ag46
aS'variable_43'
p2096
ag23
aS'variable_45'
p2097
aS'++'
p2098
ag10
aS'variable_46'
p2099
aS'++'
p2100
ag13
aS'if'
p2101
ag6
ag8
aS'variable_46'
p2102
aS'!='
p2103
aS'variable_1'
p2104
aS'->'
p2105
aS'variable_27'
p2106
ag13
ag8
aS'variable_45'
p2107
ag49
aS'variable_47'
p2108
ag245
ag8
aS'variable_46'
p2109
ag246
ag23
aS'func_16'
p2110
ag6
aS'variable_1'
p2111
aS'->'
p2112
aS'variable_36'
p2113
ag13
ag23
aS'variable_1'
p2114
aS'->'
p2115
aS'variable_27'
p2116
ag49
ag137
ag84
ag23
aS'variable_1'
p2117
aS'->'
p2118
aS'variable_25'
p2119
ag49
aS'variable_48'
p2120
ag23
aaa(lp2121
I0
aI0
aI0
aI0
aI0
aI0
aI0
aI0
aa(lp2122
I575
aI554
aI478
aI419
aI295
aI212
aI203
aI203
aa(lp2123
(lp2124
S'main'
p2125
aa(lp2126
g2125
aa(lp2127
g2125
aa(lp2128
g2125
aa(lp2129
g2125
aa(lp2130
g2125
aa(lp2131
g2125
aa(lp2132
g2125
aaa(lp2133
S'643 /home/SySeVR/data/CVE_2014_8547_VULN_gif_read_image.c ptr = ptr1 + linesize 156'
p2134
aS'644 /home/SySeVR/data/CVE_2014_8547_VULN_gif_read_image.c ptr = ptr1 + linesize * y1 147'
p2135
aS'645 /home/SySeVR/data/CVE_2014_8547_VULN_gif_read_image.c pr = ptr + pw 131'
p2136
aS'646 /home/SySeVR/data/CVE_2014_8547_VULN_gif_read_image.c ptr1 = ( uint32_t * ) frame -> data [ 0 ] + top * linesize + left 119'
p2137
aS'647 /home/SySeVR/data/CVE_2014_8547_VULN_gif_read_image.c gif_copy_img_rect ( ( uint32_t * ) frame -> data [ 0 ] , s -> stored_img , frame -> linesize [ 0 ] / sizeof ( uint32_t ) , left , top , pw , height ) 100'
p2138
aS'648 /home/SySeVR/data/CVE_2014_8547_VULN_gif_read_image.c gif_copy_img_rect ( s -> stored_img , ( uint32_t * ) frame -> data [ 0 ] , frame -> linesize [ 0 ] / sizeof ( uint32_t ) , s -> gce_l , s -> gce_t , s -> gce_w , s -> gce_h ) 80'
p2139
aS'649 /home/SySeVR/data/CVE_2014_8547_VULN_gif_read_image.c height = s -> screen_height - top 73'
p2140
aS'650 /home/SySeVR/data/CVE_2014_8547_VULN_gif_read_image.c pw = s -> screen_width - left 63'
p2141
aa.