(lp0
(lp1
(lp2
S'func_0'
p3
aS'('
p4
aS'variable_0'
p5
aS'*'
p6
aS'variable_1'
p7
aS','
p8
aS'const'
p9
aS'guchar'
p10
ag6
aS'variable_2'
p11
ag8
aS'variable_3'
p12
ag6
aS'variable_4'
p13
ag8
aS'variable_5'
p14
ag6
aS'variable_6'
p15
aS')'
p16
aS'memset'
p17
ag4
aS'&'
p18
aS'variable_1'
p19
aS'->'
p20
aS'variable_7'
p21
ag8
aS'0'
p22
ag8
aS'sizeof'
p23
ag4
aS'variable_1'
p24
aS'->'
p25
aS'variable_7'
p26
ag16
ag16
aS';'
p27
aS'variable_1'
p28
aS'->'
p29
aS'variable_7'
p30
aS'.'
p31
aS'variable_8'
p32
aS'='
p33
aS'"'
p34
aS'<'
p35
aS'Missing'
p36
aS'Protocol'
p37
aS'Name'
p38
aS'>'
p39
ag34
ag27
aS'variable_1'
p40
aS'->'
p41
aS'variable_7'
p42
ag31
aS'variable_6'
p43
ag33
aS'variable_6'
p44
ag27
aS'variable_1'
p45
aS'->'
p46
aS'variable_7'
p47
ag31
aS'variable_4'
p48
ag33
aS'variable_4'
p49
ag27
aS'variable_1'
p50
aS'->'
p51
aS'variable_7'
p52
ag31
aS'variable_9'
p53
ag33
aS'variable_9'
p54
ag27
aS'variable_1'
p55
aS'->'
p56
aS'variable_7'
p57
ag31
aS'variable_10'
p58
ag31
aS'variable_11'
p59
ag33
aS'variable_12'
p60
ag27
aS'variable_1'
p61
aS'->'
p62
aS'variable_7'
p63
ag31
aS'variable_13'
p64
ag31
aS'variable_11'
p65
ag33
aS'variable_12'
p66
ag27
aS'variable_1'
p67
aS'->'
p68
aS'variable_7'
p69
ag31
aS'variable_14'
p70
ag31
aS'variable_11'
p71
ag33
aS'variable_12'
p72
ag27
aS'variable_1'
p73
aS'->'
p74
aS'variable_7'
p75
ag31
aS'variable_15'
p76
ag31
aS'variable_11'
p77
ag33
aS'variable_12'
p78
ag27
aS'variable_1'
p79
aS'->'
p80
aS'variable_7'
p81
ag31
aS'variable_16'
p82
ag31
aS'variable_11'
p83
ag33
aS'variable_12'
p84
ag27
aS'variable_1'
p85
aS'->'
p86
aS'variable_7'
p87
ag31
aS'variable_17'
p88
ag31
aS'variable_11'
p89
ag33
aS'variable_12'
p90
ag27
aS'variable_1'
p91
aS'->'
p92
aS'variable_7'
p93
ag31
aS'variable_18'
p94
ag33
aS'variable_19'
p95
ag27
aS'variable_1'
p96
aS'->'
p97
aS'variable_7'
p98
ag31
aS'variable_20'
p99
ag33
ag34
ag34
ag27
aS'variable_1'
p100
aS'->'
p101
aS'variable_7'
p102
ag31
aS'variable_21'
p103
ag33
aS'variable_22'
p104
ag27
aS'variable_1'
p105
aS'->'
p106
aS'variable_7'
p107
ag31
aS'variable_23'
p108
ag33
aS'variable_24'
p109
ag27
aS'variable_1'
p110
aS'->'
p111
aS'variable_7'
p112
ag31
aS'variable_25'
p113
ag33
aS'-'
p114
aS'1'
p115
ag27
aS'variable_1'
p116
aS'->'
p117
aS'variable_7'
p118
ag31
aS'variable_26'
p119
ag33
aS'variable_27'
p120
ag27
aS'variable_1'
p121
aS'->'
p122
aS'variable_7'
p123
ag31
aS'variable_28'
p124
ag33
ag34
ag34
ag27
aS'variable_1'
p125
aS'->'
p126
aS'variable_7'
p127
ag31
aS'variable_29'
p128
ag33
aS'variable_30'
p129
ag27
aS'variable_1'
p130
aS'->'
p131
aS'variable_31'
p132
ag33
aS'NULL'
p133
ag27
aS'variable_1'
p134
aS'->'
p135
aS'variable_7'
p136
ag31
aS'variable_32'
p137
ag33
aS'variable_33'
p138
ag27
aS'variable_1'
p139
aS'->'
p140
aS'variable_31'
p141
ag33
aS'func_1'
p142
ag4
aS'variable_2'
p143
ag8
aS'variable_4'
p144
aS'->'
p145
aS'variable_34'
p146
ag8
aS'variable_4'
p147
aS'->'
p148
aS'variable_35'
p149
ag16
ag27
aS'func_2'
p150
ag4
ag18
aS'variable_1'
p151
aS'->'
p152
aS'variable_7'
p153
ag8
aS'variable_1'
p154
aS'->'
p155
aS'variable_31'
p156
ag8
ag34
aS'Frame'
p157
ag34
ag16
ag27
aS'func_3'
p158
ag4
aS'variable_36'
p159
ag8
aS'variable_1'
p160
aS'->'
p161
aS'variable_31'
p162
ag8
ag18
aS'variable_1'
p163
aS'->'
p164
aS'variable_7'
p165
ag8
aS'variable_1'
p166
aS'->'
p167
aS'variable_37'
p168
ag16
ag27
aS'func_4'
p169
ag4
aS'variable_1'
p170
aS'->'
p171
aS'variable_37'
p172
ag8
aS'variable_38'
p173
ag8
aS'variable_1'
p174
aS'->'
p175
aS'variable_31'
p176
ag8
ag22
ag8
ag22
ag8
ag34
aS'['
p177
aS'Malformed'
p178
aS'Frame'
p179
aS':'
p180
aS'Packet'
p181
aS'Length'
p182
aS']'
p183
ag34
ag16
ag27
aaa(lp184
I1
aa(lp185
I20
aa(lp186
(lp187
S'main'
p188
aaa(lp189
S'73 /home/SySeVR/data/CVE_2012_0041_VULN_dissect_packet.c memset 7'
p190
aa.