(lp0
(lp1
(lp2
S'func_0'
p3
aS'('
p4
aS'FT_ULong'
p5
aS'variable_0'
p6
aS')'
p7
aS'if'
p8
ag4
aS'variable_1'
p9
aS'->'
p10
aS'variable_2'
p11
ag7
aS'if'
p12
ag4
aS'variable_1'
p13
aS'->'
p14
aS'variable_3'
p15
aS'>'
p16
aS'='
p17
aS'variable_1'
p18
aS'->'
p19
aS'variable_4'
p20
aS'||'
p21
aS'variable_1'
p22
aS'->'
p23
aS'variable_4'
p24
aS'-'
p25
aS'variable_1'
p26
aS'->'
p27
aS'variable_3'
p28
aS'<'
p29
aS'variable_0'
p30
ag7
aS'variable_1'
p31
aS'->'
p32
aS'variable_5'
p33
ag17
aS'variable_1'
p34
aS'->'
p35
aS'variable_6'
p36
aS'+'
p37
aS'variable_1'
p38
aS'->'
p39
aS'variable_3'
p40
aS';'
p41
aS'variable_1'
p42
aS'->'
p43
aS'variable_7'
p44
ag17
aS'variable_1'
p45
aS'->'
p46
aS'variable_5'
p47
ag37
aS'variable_0'
p48
ag41
aS'variable_1'
p49
aS'->'
p50
aS'variable_3'
p51
aS'+='
p52
aS'variable_0'
p53
ag41
aa(lp54
S'func_0'
p55
ag4
aS'FT_ULong'
p56
aS'variable_0'
p57
ag7
aS'FT_Error'
p58
aS'variable_1'
p59
ag17
aS'variable_2'
p60
ag41
aS'if'
p61
ag4
aS'variable_3'
p62
aS'->'
p63
aS'variable_4'
p64
ag7
aS'FT_Memory'
p65
aS'variable_5'
p66
ag17
aS'variable_3'
p67
aS'->'
p68
aS'variable_5'
p69
ag41
aS'if'
p70
ag4
aS'variable_0'
p71
ag16
aS'variable_3'
p72
aS'->'
p73
aS'variable_6'
p74
ag7
aS'variable_3'
p75
aS'->'
p76
aS'variable_7'
p77
ag17
ag4
aS'unsigned'
p78
aS'char'
p79
aS'*'
p80
ag7
aS'func_1'
p81
ag4
aS'variable_5'
p82
aS','
p83
aS'variable_0'
p84
ag83
aS'&'
p85
aS'variable_1'
p86
ag7
ag41
aS'if'
p87
ag4
aS'variable_1'
p88
ag7
aS'variable_3'
p89
aS'->'
p90
aS'variable_8'
p91
ag17
aS'variable_3'
p92
aS'->'
p93
aS'variable_7'
p94
ag41
aS'variable_3'
p95
aS'->'
p96
aS'variable_9'
p97
ag17
aS'variable_3'
p98
aS'->'
p99
aS'variable_8'
p100
ag37
aS'variable_0'
p101
ag41
aS'variable_3'
p102
aS'->'
p103
aS'variable_10'
p104
aS'+='
p105
aS'variable_11'
p106
ag41
aaa(lp107
I0
aI0
aa(lp108
I51
aI70
aa(lp109
(lp110
S'main'
p111
aa(lp112
g111
aaa(lp113
S'127 /home/SySeVR/data/CVE_2010_2805_PATCHED_FT_Stream_EnterFrame.c stream -> limit = stream -> cursor + count 69'
p114
aS'129 /home/SySeVR/data/CVE_2010_2805_PATCHED_FT_Stream_EnterFrame.c stream -> limit = stream -> cursor + count 50'
p115
aa.