(lp0
(lp1
(lp2
S'static'
p3
aS'int'
p4
aS'func_0'
p5
aS'('
p6
aS'struct'
p7
aS'variable_0'
p8
aS'*'
p9
aS'variable_1'
p10
aS','
p11
aS'struct'
p12
aS'variable_2'
p13
ag9
aS'variable_3'
p14
ag11
aS'size_t'
p15
aS'variable_4'
p16
aS')'
p17
aS'struct'
p18
aS'variable_3'
p19
ag9
aS'variable_5'
p20
aS'='
p21
aS'variable_3'
p22
aS'->'
p23
aS'variable_5'
p24
aS';'
p25
aS'struct'
p26
aS'variable_6'
p27
ag9
aS'variable_7'
p28
ag25
aS'int'
p29
aS'variable_8'
p30
ag25
aS'struct'
p31
aS'variable_9'
p32
ag9
aS'variable_10'
p33
ag25
aS'struct'
p34
aS'variable_11'
p35
ag9
aS'variable_12'
p36
ag25
aS'struct'
p37
aS'variable_3'
p38
ag9
aS'variable_13'
p39
ag25
aS'u16'
p40
aS'variable_14'
p41
ag25
aS'if'
p42
ag6
aS'func_1'
p43
ag6
aS'variable_5'
p44
ag11
aS'variable_15'
p45
ag17
aS'||'
p46
aS'!'
p47
ag6
aS'variable_5'
p48
aS'->'
p49
aS'variable_16'
p50
aS'&'
p51
aS'variable_17'
p52
ag17
ag17
aS'variable_10'
p53
ag21
aS'func_2'
p54
ag6
aS'variable_5'
p55
ag17
ag25
aS'if'
p56
ag6
aS'variable_10'
p57
aS'=='
p58
aS'NULL'
p59
ag17
aS'variable_13'
p60
ag21
aS'variable_10'
p61
aS'->'
p62
aS'variable_18'
p63
ag25
aS'variable_12'
p64
ag21
aS'func_3'
p65
ag6
aS'variable_13'
p66
ag17
ag25
aS'if'
p67
ag6
aS'variable_12'
p68
aS'=='
p69
aS'NULL'
p70
ag17
aS'variable_8'
p71
ag21
aS'func_4'
p72
ag6
aS'variable_10'
p73
ag17
ag25
aS'variable_7'
p74
ag21
aS'func_5'
p75
ag6
aS'variable_5'
p76
ag11
aS'variable_19'
p77
aS'+'
p78
aS'sizeof'
p79
ag6
aS'struct'
p80
aS'variable_20'
p81
ag17
ag78
aS'sizeof'
p82
ag6
aS'struct'
p83
aS'variable_21'
p84
ag17
ag78
aS'variable_8'
p85
ag78
aS'sizeof'
p86
ag6
aS'variable_22'
p87
ag17
ag78
aS'variable_4'
p88
ag11
aS'0'
p89
ag11
aS'variable_23'
p90
ag17
ag25
aS'if'
p91
ag6
ag47
aS'variable_7'
p92
ag17
aS'variable_14'
p93
ag21
aS'variable_8'
p94
ag78
aS'sizeof'
p95
ag6
aS'variable_22'
p96
ag17
ag78
aS'variable_4'
p97
ag25
aS'variable_24'
p98
aS'->'
p99
aS'variable_25'
p100
ag21
aS'func_6'
p101
ag6
aS'variable_14'
p102
ag17
ag25
aS'variable_24'
p103
aS'->'
p104
aS'variable_26'
p105
ag21
ag89
ag25
aS'variable_27'
p106
ag21
aS'func_7'
p107
ag6
aS'variable_7'
p108
ag11
ag89
ag11
aS'variable_14'
p109
ag11
ag89
ag17
ag25
aS'variable_24'
p110
aS'->'
p111
aS'variable_26'
p112
ag21
aS'func_8'
p113
ag6
aS'variable_28'
p114
aS'->'
p115
aS'variable_29'
p116
ag11
aS'variable_28'
p117
aS'->'
p118
aS'variable_30'
p119
ag11
aS'variable_14'
p120
ag11
aS'variable_31'
p121
ag11
aS'variable_27'
p122
ag17
ag25
aS'if'
p123
ag6
aS'variable_24'
p124
aS'->'
p125
aS'variable_26'
p126
aS'=='
p127
ag89
ag17
aS'variable_24'
p128
aS'->'
p129
aS'variable_26'
p130
ag21
aS'variable_32'
p131
ag25
aS'variable_24'
p132
aS'->'
p133
aS'variable_26'
p134
ag21
aS'~'
p135
aS'func_9'
p136
ag6
aS'variable_28'
p137
aS'->'
p138
aS'variable_29'
p139
ag11
aS'variable_28'
p140
aS'->'
p141
aS'variable_30'
p142
ag11
aS'variable_14'
p143
ag11
aS'variable_31'
p144
ag11
ag89
ag17
ag25
aa(lp145
S'static'
p146
aS'int'
p147
aS'func_0'
p148
ag6
aS'struct'
p149
aS'variable_0'
p150
ag9
aS'variable_1'
p151
ag11
aS'struct'
p152
aS'variable_2'
p153
ag9
aS'variable_3'
p154
ag11
aS'size_t'
p155
aS'variable_4'
p156
ag17
aS'struct'
p157
aS'variable_3'
p158
ag9
aS'variable_5'
p159
ag21
aS'variable_3'
p160
aS'->'
p161
aS'variable_5'
p162
ag25
aS'struct'
p163
aS'variable_6'
p164
ag9
aS'variable_7'
p165
ag25
aS'int'
p166
aS'variable_8'
p167
ag25
aS'struct'
p168
aS'variable_9'
p169
ag9
aS'variable_10'
p170
ag25
aS'struct'
p171
aS'variable_11'
p172
ag9
aS'variable_12'
p173
ag25
aS'struct'
p174
aS'variable_3'
p175
ag9
aS'variable_13'
p176
ag25
aS'if'
p177
ag6
aS'func_1'
p178
ag6
aS'variable_5'
p179
ag11
aS'variable_14'
p180
ag17
aS'||'
p181
ag47
ag6
aS'variable_5'
p182
aS'->'
p183
aS'variable_15'
p184
ag51
aS'variable_16'
p185
ag17
ag17
aS'variable_10'
p186
ag21
aS'func_2'
p187
ag6
aS'variable_5'
p188
ag17
ag25
aS'if'
p189
ag6
aS'variable_10'
p190
aS'=='
p191
aS'NULL'
p192
ag17
aS'variable_13'
p193
ag21
aS'variable_10'
p194
aS'->'
p195
aS'variable_17'
p196
ag25
aS'variable_12'
p197
ag21
aS'func_3'
p198
ag6
aS'variable_13'
p199
ag17
ag25
aS'if'
p200
ag6
aS'variable_12'
p201
aS'=='
p202
aS'NULL'
p203
ag17
aS'variable_8'
p204
ag21
aS'func_4'
p205
ag6
aS'variable_10'
p206
ag17
ag25
aS'variable_7'
p207
ag21
aS'func_5'
p208
ag6
aS'variable_5'
p209
ag11
aS'variable_18'
p210
ag78
aS'sizeof'
p211
ag6
aS'struct'
p212
aS'variable_19'
p213
ag17
ag78
aS'sizeof'
p214
ag6
aS'struct'
p215
aS'variable_20'
p216
ag17
ag78
aS'variable_8'
p217
ag78
aS'sizeof'
p218
ag6
aS'variable_21'
p219
ag17
ag78
aS'variable_4'
p220
ag11
ag89
ag11
aS'variable_22'
p221
ag17
ag25
aS'if'
p222
ag6
ag47
aS'variable_7'
p223
ag17
aS'func_6'
p224
ag6
aS'variable_7'
p225
ag11
aS'variable_18'
p226
ag17
ag25
aS'func_7'
p227
ag6
aS'variable_7'
p228
ag17
ag25
aS'func_8'
p229
ag6
aS'variable_7'
p230
ag11
aS'sizeof'
p231
ag6
aS'struct'
p232
aS'variable_19'
p233
ag17
ag17
ag25
aS'func_9'
p234
ag6
aS'variable_7'
p235
ag17
ag25
aS'variable_23'
p236
ag21
ag6
aS'struct'
p237
aS'udphdr'
p238
ag9
ag17
aS'variable_7'
p239
aS'->'
p240
aS'variable_24'
p241
ag25
aS'variable_23'
p242
aS'->'
p243
aS'variable_25'
p244
ag21
aS'variable_26'
p245
aS'->'
p246
aS'variable_27'
p247
ag25
aS'variable_23'
p248
aS'->'
p249
aS'variable_28'
p250
ag21
aS'variable_26'
p251
aS'->'
p252
aS'variable_29'
p253
ag25
aS'variable_23'
p254
aS'->'
p255
aS'variable_30'
p256
ag21
aS'func_10'
p257
ag6
aS'variable_31'
p258
ag17
ag25
aS'variable_23'
p259
aS'->'
p260
aS'variable_32'
p261
ag21
ag89
ag25
aS'func_11'
p262
ag6
aS'variable_7'
p263
ag11
aS'sizeof'
p264
ag6
aS'struct'
p265
aS'variable_20'
p266
ag17
ag17
ag25
aS'func_12'
p267
ag6
aS'variable_10'
p268
ag11
aS'variable_7'
p269
aS'->'
p270
aS'variable_24'
p271
ag17
ag25
aS'func_13'
p272
ag6
aS'variable_7'
p273
ag11
aS'variable_8'
p274
ag17
ag25
aS'variable_7'
p275
aS'->'
p276
aS'variable_24'
p277
aS'['
p278
ag89
aS']'
p279
ag21
aS'variable_21'
p280
ag278
ag89
ag279
ag25
aS'variable_7'
p281
aS'->'
p282
aS'variable_24'
p283
ag278
aS'1'
p284
ag279
ag21
aS'variable_21'
p285
ag278
ag284
ag279
ag25
aS'func_14'
p286
ag6
aS'variable_7'
p287
ag11
aS'2'
p288
ag17
ag25
aS'variable_33'
p289
ag21
aS'func_15'
p290
ag6
aS'variable_7'
p291
aS'->'
p292
aS'variable_24'
p293
ag11
aS'variable_34'
p294
aS'->'
p295
aS'variable_35'
p296
ag11
aS'variable_4'
p297
ag17
ag25
aS'if'
p298
ag6
aS'variable_33'
p299
aS'<'
p300
ag89
ag17
aS'func_16'
p301
ag6
aS'variable_7'
p302
ag17
ag25
aS'func_17'
p303
ag6
aS'variable_7'
p304
ag11
aS'variable_4'
p305
ag17
ag25
aS'variable_7'
p306
aS'->'
p307
aS'variable_36'
p308
ag21
aS'variable_37'
p309
ag25
aS'if'
p310
ag6
ag47
ag6
aS'func_18'
p311
ag6
aS'variable_7'
p312
ag17
aS'->'
p313
aS'variable_38'
p314
aS'->'
p315
aS'variable_39'
p316
ag51
aS'variable_40'
p317
ag17
ag17
aS'variable_7'
p318
aS'->'
p319
aS'variable_36'
p320
ag21
aS'variable_41'
p321
ag25
aS'variable_42'
p322
ag21
aS'func_19'
p323
ag6
aS'variable_7'
p324
ag11
ag89
ag11
aS'variable_31'
p325
ag11
ag89
ag17
ag25
aS'variable_23'
p326
aS'->'
p327
aS'variable_32'
p328
ag21
aS'func_20'
p329
ag6
aS'variable_26'
p330
aS'->'
p331
aS'variable_43'
p332
ag11
aS'variable_26'
p333
aS'->'
p334
aS'variable_44'
p335
ag11
aS'variable_31'
p336
ag11
aS'variable_45'
p337
ag11
aS'variable_42'
p338
ag17
ag25
aS'if'
p339
ag6
aS'variable_23'
p340
aS'->'
p341
aS'variable_32'
p342
aS'=='
p343
ag89
ag17
aS'variable_23'
p344
aS'->'
p345
aS'variable_32'
p346
ag21
aS'variable_46'
p347
ag25
aS'variable_7'
p348
aS'->'
p349
aS'variable_36'
p350
ag21
aS'variable_47'
p351
ag25
aS'variable_7'
p352
aS'->'
p353
aS'variable_48'
p354
ag21
aS'func_21'
p355
ag6
aS'variable_7'
p356
ag17
aS'-'
p357
aS'variable_7'
p358
aS'->'
p359
aS'variable_49'
p360
ag25
aS'variable_23'
p361
aS'->'
p362
aS'variable_32'
p363
ag21
ag135
aS'func_22'
p364
ag6
aS'variable_26'
p365
aS'->'
p366
aS'variable_43'
p367
ag11
aS'variable_26'
p368
aS'->'
p369
aS'variable_44'
p370
ag11
aS'variable_31'
p371
ag11
aS'variable_45'
p372
ag11
ag89
ag17
ag25
aS'unsigned'
p373
aS'char'
p374
ag9
aS'variable_50'
p375
ag21
aS'variable_7'
p376
aS'->'
p377
aS'variable_24'
p378
ag25
aS'func_23'
p379
ag6
aS'"'
p380
aS'%'
p381
aS'02X'
p382
ag380
ag11
ag9
aS'variable_50'
p383
aS'++'
p384
ag17
ag25
aS'variable_30'
p385
ag21
aS'variable_7'
p386
aS'->'
p387
aS'variable_30'
p388
ag25
aS'variable_33'
p389
ag21
aS'func_24'
p390
ag6
aS'variable_7'
p391
ag11
ag284
ag17
ag25
aS'if'
p392
ag6
aS'variable_33'
p393
aS'>'
p394
ag21
ag89
ag17
aS'variable_12'
p395
aS'->'
p396
aS'variable_51'
p397
aS'.'
p398
aS'variable_52'
p399
aS'+='
p400
aS'variable_30'
p401
ag25
aS'variable_10'
p402
aS'->'
p403
aS'variable_51'
p404
ag398
aS'variable_52'
p405
aS'+='
p406
aS'variable_30'
p407
ag25
aS'return'
p408
aS'variable_33'
p409
ag25
aS'return'
p410
aS'variable_33'
p411
ag25
aaa(lp412
I0
aI1
aa(lp413
I158
aI119
aa(lp414
(lp415
S'main'
p416
aa(lp417
g416
aaa(lp418
S'119 /home/SySeVR/data/CVE_2010_2495_VULN_pppol2tp_sendmsg.c udp_len = hdr_len + sizeof ( ppph ) + total_len 53'
p419
aS'120 /home/SySeVR/data/CVE_2010_2495_VULN_pppol2tp_sendmsg.c skb = sock_wmalloc ( sk , NET_SKB_PAD + sizeof ( struct iphdr ) + sizeof ( struct udphdr ) + hdr_len + sizeof ( ppph ) + total_len , 0 , GFP_KERNEL ) 38'
p420
aa.