(lp0
(lp1
(lp2
S'static'
p3
aS'void'
p4
aS'func_0'
p5
aS'('
p6
aS'variable_0'
p7
aS'*'
p8
aS'variable_1'
p9
aS','
p10
aS'char'
p11
ag8
aS'variable_2'
p12
ag10
aS'char'
p13
ag8
aS'variable_3'
p14
aS')'
p15
aS'HINSTANCE'
p16
aS'variable_4'
p17
aS'='
p18
aS'LoadLibrary'
p19
ag6
aS'func_1'
p20
ag6
aS'"'
p21
aS'MPR'
p22
aS'.'
p23
aS'DLL'
p24
ag21
ag15
ag15
aS';'
p25
aS'if'
p26
ag6
aS'!'
p27
aS'variable_4'
p28
ag15
aS'variable_5'
p29
ag18
ag6
aS'void'
p30
ag8
ag15
aS'func_2'
p31
ag6
aS'variable_4'
p32
ag10
aS'func_3'
p33
ag6
ag21
aS'WNetAddConnection2A'
p34
ag21
ag15
ag15
ag25
aS'if'
p35
ag6
ag27
aS'variable_5'
p36
ag15
aS'variable_6'
p37
ag18
aS'func_4'
p38
ag6
aS'&'
p39
aS'variable_7'
p40
ag10
aS'variable_8'
p41
ag10
aS'variable_2'
p42
ag10
aS'0'
p43
ag15
ag25
aS'if'
p44
ag6
aS'variable_6'
p45
aS'!='
p46
aS'variable_9'
p47
ag15
aS'if'
p48
ag6
aS'variable_6'
p49
aS'!='
p50
aS'variable_10'
p51
aS'&&'
p52
aS'variable_6'
p53
aS'!='
p54
aS'variable_11'
p55
ag15
aS'FreeLibrary'
p56
ag6
aS'variable_4'
p57
ag15
ag25
aaa(lp58
I0
aa(lp59
I19
aa(lp60
(lp61
S'main'
p62
aaa(lp63
S'867 /home/SySeVR/data/CVE_2009_2484_VULN_Win32AddConnection.c LoadLibrary 12'
p64
aa.