(lp0
(lp1
(lp2
S'float'
p3
aS'*'
p4
aS'func_0'
p5
aS'('
p6
aS'struct'
p7
aS'variable_0'
p8
ag4
aS'variable_1'
p9
aS')'
p10
aS'float'
p11
ag4
aS'variable_2'
p12
aS';'
p13
aS'if'
p14
ag6
aS'!'
p15
aS'variable_1'
p16
ag10
aS'variable_2'
p17
aS'='
p18
aS'malloc'
p19
ag6
aS'sizeof'
p20
ag6
aS'float'
p21
ag10
ag4
aS'256'
p22
ag10
ag13
aS'if'
p23
ag6
aS'variable_2'
p24
ag10
aS'func_1'
p25
ag6
aS'variable_2'
p26
aS','
p27
aS'variable_1'
p28
aS'->'
p29
aS'variable_3'
p30
ag27
aS'variable_1'
p31
aS'->'
p32
aS'variable_4'
p33
ag10
ag13
aS'func_2'
p34
ag6
aS'variable_2'
p35
ag10
ag13
aS'func_3'
p36
ag6
aS'variable_2'
p37
ag27
aS'variable_1'
p38
aS'->'
p39
aS'variable_5'
p40
aS'['
p41
aS'0'
p42
aS']'
p43
ag10
ag13
aS'func_4'
p44
ag6
aS'variable_2'
p45
ag27
aS'variable_1'
p46
aS'->'
p47
aS'variable_5'
p48
ag27
aS'variable_1'
p49
aS'->'
p50
aS'variable_4'
p51
ag10
ag13
aS'return'
p52
aS'variable_2'
p53
ag13
aaa(lp54
I0
aa(lp55
I20
aa(lp56
(lp57
S'main'
p58
aaa(lp59
S'709 /home/SySeVR/data/CVE_2012_1960_PATCHED_build_input_gamma_table.c malloc 6'
p60
aa.