(lp0
(lp1
(lp2
S'variable_0'
p3
aS':'
p4
ag4
aS'func_0'
p5
aS'('
p6
aS')'
p7
aS'if'
p8
ag6
aS'variable_1'
p9
ag7
aS'uint32_t'
p10
aS'variable_2'
p11
aS'='
p12
aS'variable_3'
p13
aS';'
p14
aS'uint32_t'
p15
aS'variable_4'
p16
ag12
aS'variable_5'
p17
aS'->'
p18
aS'func_1'
p19
ag6
ag7
ag14
aS'uint32_t'
p20
aS'variable_6'
p21
ag12
aS'variable_4'
p22
aS'-'
p23
aS'variable_2'
p24
ag14
aS'variable_5'
p25
aS'->'
p26
aS'func_2'
p27
ag6
aS'variable_7'
p28
aS','
p29
aS'variable_6'
p30
ag7
ag14
aaa(lp31
I0
aa(lp32
I30
aa(lp33
(lp34
S'main'
p35
aaa(lp36
S'827 /home/SySeVR/data/CVE_2013_1681_VULN_nsContentUtils__RemoveScriptBlocker.c uint32_t blockersCount = lastBlocker - firstBlocker ; 13'
p37
aa.