(lp0
(lp1
(lp2
S'static'
p3
aS'int'
p4
aS'func_0'
p5
aS'('
p6
aS'struct'
p7
aS'variable_0'
p8
aS'*'
p9
aS'variable_0'
p10
aS','
p11
aS'unsigned'
p12
aS'int'
p13
aS'variable_1'
p14
ag11
aS'void'
p15
ag9
aS'variable_2'
p16
aS')'
p17
aS'struct'
p18
aS'variable_3'
p19
ag9
aS'variable_4'
p20
aS'='
p21
aS'variable_0'
p22
aS'->'
p23
aS'variable_5'
p24
aS';'
p25
aS'struct'
p26
aS'variable_6'
p27
ag9
aS'variable_6'
p28
ag21
aS'variable_4'
p29
aS'->'
p30
aS'variable_7'
p31
ag25
aS'switch'
p32
ag6
aS'variable_1'
p33
ag17
aS'ca_caps_t'
p34
aS'variable_8'
p35
ag25
aS'variable_8'
p36
aS'.'
p37
aS'variable_9'
p38
ag21
aS'2'
p39
ag25
aS'variable_8'
p40
ag37
aS'variable_10'
p41
ag21
ag6
aS'func_1'
p42
ag6
aS'variable_6'
p43
aS'->'
p44
aS'variable_11'
p45
ag17
aS'?'
p46
aS'variable_12'
p47
aS':'
p48
aS'variable_13'
p49
ag17
aS'|'
p50
aS'variable_14'
p51
ag25
aS'variable_8'
p52
ag37
aS'variable_15'
p53
ag21
aS'16'
p54
ag25
aS'variable_8'
p55
ag37
aS'variable_16'
p56
ag21
aS'variable_17'
p57
ag25
aS'memcpy'
p58
ag6
aS'variable_2'
p59
ag11
aS'&'
p60
aS'variable_8'
p61
ag11
aS'sizeof'
p62
ag6
aS'variable_8'
p63
ag17
ag17
ag25
aS'variable_18'
p64
ag9
aS'variable_19'
p65
ag21
ag6
aS'ca_slot_info_t'
p66
ag9
ag17
aS'variable_2'
p67
ag25
aS'if'
p68
ag6
aS'variable_19'
p69
aS'->'
p70
aS'variable_20'
p71
aS'>'
p72
aS'1'
p73
ag17
aS'variable_6'
p74
aS'->'
p75
aS'variable_21'
p76
aS'['
p77
aS'variable_19'
p78
aS'->'
p79
aS'variable_20'
p80
aS']'
p81
ag37
aS'variable_20'
p82
ag21
aS'variable_19'
p83
aS'->'
p84
aS'variable_20'
p85
ag25
aS'variable_6'
p86
aS'->'
p87
aS'variable_21'
p88
ag77
aS'variable_19'
p89
aS'->'
p90
aS'variable_20'
p91
ag81
ag37
aS'variable_22'
p92
ag21
aS'func_2'
p93
ag6
aS'variable_6'
p94
aS'->'
p95
aS'variable_11'
p96
ag17
ag46
aS'variable_12'
p97
ag48
aS'variable_13'
p98
ag25
aS'memcpy'
p99
ag6
aS'variable_19'
p100
ag11
ag60
aS'variable_6'
p101
aS'->'
p102
aS'variable_21'
p103
ag77
aS'variable_19'
p104
aS'->'
p105
aS'variable_20'
p106
ag81
ag11
aS'sizeof'
p107
ag6
aS'variable_18'
p108
ag17
ag17
ag25
aS'ca_descr_info_t'
p109
aS'variable_19'
p110
ag25
aS'variable_19'
p111
ag37
aS'variable_20'
p112
ag21
aS'16'
p113
ag25
aS'variable_19'
p114
ag37
aS'variable_22'
p115
ag21
aS'variable_17'
p116
ag25
aS'memcpy'
p117
ag6
aS'variable_2'
p118
ag11
ag60
aS'variable_19'
p119
ag11
aS'sizeof'
p120
ag6
aS'variable_19'
p121
ag17
ag17
ag25
aS'variable_23'
p122
ag9
aS'variable_24'
p123
ag21
ag6
aS'ca_descr_t'
p124
ag9
ag17
aS'variable_2'
p125
ag25
aS'if'
p126
ag6
aS'variable_24'
p127
aS'->'
p128
aS'variable_25'
p129
ag72
ag21
aS'16'
p130
ag17
aS'if'
p131
ag6
aS'variable_24'
p132
aS'->'
p133
aS'variable_26'
p134
ag72
ag73
ag17
aS'func_3'
p135
ag6
aS'variable_6'
p136
ag11
aS'variable_27'
p137
ag11
aS'variable_28'
p138
ag11
aS'5'
p139
ag11
ag6
aS'variable_24'
p140
aS'->'
p141
aS'variable_25'
p142
aS'<<'
p143
aS'8'
p144
ag17
ag50
aS'variable_24'
p145
aS'->'
p146
aS'variable_26'
p147
ag11
ag6
aS'variable_24'
p148
aS'->'
p149
aS'variable_29'
p150
ag77
aS'0'
p151
ag81
aS'<<'
p152
ag144
ag17
ag50
aS'variable_24'
p153
aS'->'
p154
aS'variable_29'
p155
ag77
ag73
ag81
ag11
ag6
aS'variable_24'
p156
aS'->'
p157
aS'variable_29'
p158
ag77
ag39
ag81
aS'<<'
p159
ag144
ag17
ag50
aS'variable_24'
p160
aS'->'
p161
aS'variable_29'
p162
ag77
aS'3'
p163
ag81
ag11
ag6
aS'variable_24'
p164
aS'->'
p165
aS'variable_29'
p166
ag77
aS'4'
p167
ag81
aS'<<'
p168
ag144
ag17
ag50
aS'variable_24'
p169
aS'->'
p170
aS'variable_29'
p171
ag77
ag139
ag81
ag11
ag6
aS'variable_24'
p172
aS'->'
p173
aS'variable_29'
p174
ag77
aS'6'
p175
ag81
aS'<<'
p176
ag144
ag17
ag50
aS'variable_24'
p177
aS'->'
p178
aS'variable_29'
p179
ag77
aS'7'
p180
ag81
ag17
ag25
aa(lp181
S'static'
p182
aS'int'
p183
aS'func_0'
p184
ag6
aS'struct'
p185
aS'variable_0'
p186
ag9
aS'variable_0'
p187
ag11
aS'unsigned'
p188
aS'int'
p189
aS'variable_1'
p190
ag11
aS'void'
p191
ag9
aS'variable_2'
p192
ag17
aS'struct'
p193
aS'variable_3'
p194
ag9
aS'variable_4'
p195
ag21
aS'variable_0'
p196
aS'->'
p197
aS'variable_5'
p198
ag25
aS'struct'
p199
aS'variable_6'
p200
ag9
aS'variable_6'
p201
ag21
aS'variable_4'
p202
aS'->'
p203
aS'variable_7'
p204
ag25
aS'switch'
p205
ag6
aS'variable_1'
p206
ag17
aS'ca_caps_t'
p207
aS'variable_8'
p208
ag25
aS'variable_8'
p209
ag37
aS'variable_9'
p210
ag21
ag39
ag25
aS'variable_8'
p211
ag37
aS'variable_10'
p212
ag21
ag6
aS'func_1'
p213
ag6
aS'variable_6'
p214
aS'->'
p215
aS'variable_11'
p216
ag17
ag46
aS'variable_12'
p217
ag48
aS'variable_13'
p218
ag17
ag50
aS'variable_14'
p219
ag25
aS'variable_8'
p220
ag37
aS'variable_15'
p221
ag21
aS'16'
p222
ag25
aS'variable_8'
p223
ag37
aS'variable_16'
p224
ag21
aS'variable_17'
p225
ag25
aS'memcpy'
p226
ag6
aS'variable_2'
p227
ag11
ag60
aS'variable_8'
p228
ag11
aS'sizeof'
p229
ag6
aS'variable_8'
p230
ag17
ag17
ag25
aS'variable_18'
p231
ag9
aS'variable_19'
p232
ag21
ag6
aS'ca_slot_info_t'
p233
ag9
ag17
aS'variable_2'
p234
ag25
aS'if'
p235
ag6
aS'variable_19'
p236
aS'->'
p237
aS'variable_20'
p238
ag72
ag73
ag17
aS'variable_6'
p239
aS'->'
p240
aS'variable_21'
p241
ag77
aS'variable_19'
p242
aS'->'
p243
aS'variable_20'
p244
ag81
ag37
aS'variable_20'
p245
ag21
aS'variable_19'
p246
aS'->'
p247
aS'variable_20'
p248
ag25
aS'variable_6'
p249
aS'->'
p250
aS'variable_21'
p251
ag77
aS'variable_19'
p252
aS'->'
p253
aS'variable_20'
p254
ag81
ag37
aS'variable_22'
p255
ag21
aS'func_2'
p256
ag6
aS'variable_6'
p257
aS'->'
p258
aS'variable_11'
p259
ag17
ag46
aS'variable_12'
p260
ag48
aS'variable_13'
p261
ag25
aS'memcpy'
p262
ag6
aS'variable_19'
p263
ag11
ag60
aS'variable_6'
p264
aS'->'
p265
aS'variable_21'
p266
ag77
aS'variable_19'
p267
aS'->'
p268
aS'variable_20'
p269
ag81
ag11
aS'sizeof'
p270
ag6
aS'variable_18'
p271
ag17
ag17
ag25
aS'variable_19'
p272
ag37
aS'variable_20'
p273
ag21
aS'16'
p274
ag25
aS'variable_19'
p275
ag37
aS'variable_22'
p276
ag21
aS'variable_17'
p277
ag25
aS'memcpy'
p278
ag6
aS'variable_2'
p279
ag11
ag60
aS'variable_19'
p280
ag11
aS'sizeof'
p281
ag6
aS'variable_19'
p282
ag17
ag17
ag25
aS'variable_23'
p283
ag9
aS'variable_24'
p284
ag21
ag6
aS'ca_descr_t'
p285
ag9
ag17
aS'variable_2'
p286
ag25
aS'if'
p287
ag6
aS'variable_24'
p288
aS'->'
p289
aS'variable_25'
p290
ag72
ag21
aS'16'
p291
ag17
aS'if'
p292
ag6
aS'variable_24'
p293
aS'->'
p294
aS'variable_26'
p295
ag72
ag73
ag17
aS'func_3'
p296
ag6
aS'variable_6'
p297
ag11
aS'variable_27'
p298
ag11
aS'variable_28'
p299
ag11
ag139
ag11
ag6
aS'variable_24'
p300
aS'->'
p301
aS'variable_25'
p302
aS'<<'
p303
ag144
ag17
ag50
aS'variable_24'
p304
aS'->'
p305
aS'variable_26'
p306
ag11
ag6
aS'variable_24'
p307
aS'->'
p308
aS'variable_29'
p309
ag77
ag151
ag81
aS'<<'
p310
ag144
ag17
ag50
aS'variable_24'
p311
aS'->'
p312
aS'variable_29'
p313
ag77
ag73
ag81
ag11
ag6
aS'variable_24'
p314
aS'->'
p315
aS'variable_29'
p316
ag77
ag39
ag81
aS'<<'
p317
ag144
ag17
ag50
aS'variable_24'
p318
aS'->'
p319
aS'variable_29'
p320
ag77
ag163
ag81
ag11
ag6
aS'variable_24'
p321
aS'->'
p322
aS'variable_29'
p323
ag77
ag167
ag81
aS'<<'
p324
ag144
ag17
ag50
aS'variable_24'
p325
aS'->'
p326
aS'variable_29'
p327
ag77
ag139
ag81
ag11
ag6
aS'variable_24'
p328
aS'->'
p329
aS'variable_29'
p330
ag77
ag175
ag81
aS'<<'
p331
ag144
ag17
ag50
aS'variable_24'
p332
aS'->'
p333
aS'variable_29'
p334
ag77
ag180
ag81
ag17
ag25
aaa(lp335
I1
aI1
aa(lp336
I182
aI147
aa(lp337
(lp338
S'main'
p339
aa(lp340
g339
aaa(lp341
S'460 /home/SySeVR/data/CVE_2011_0521_VULN_dvb_ca_ioctl.c memcpy 51'
p342
aS'461 /home/SySeVR/data/CVE_2011_0521_VULN_dvb_ca_ioctl.c memcpy 35'
p343
aa.