(lp0
(lp1
(lp2
S'ssize_t'
p3
aS'func_0'
p4
aS'('
p5
aS'const'
p6
aS'char'
p7
aS'variable_0'
p8
aS'*'
p9
aS'variable_1'
p10
aS','
p11
aS'int'
p12
aS'variable_2'
p13
aS')'
p14
aS'struct'
p15
aS'CVE_2010_4649_VULN_ib_uverbs_poll_cq'
p16
aS'variable_3'
p17
aS';'
p18
aS'struct'
p19
aS'variable_4'
p20
ag9
aS'variable_5'
p21
ag18
aS'struct'
p22
aS'variable_6'
p23
ag9
aS'variable_7'
p24
ag18
aS'int'
p25
aS'variable_8'
p26
ag18
aS'if'
p27
ag5
aS'func_1'
p28
ag5
aS'&'
p29
aS'variable_3'
p30
ag11
aS'variable_1'
p31
ag11
aS'sizeof'
p32
aS'variable_3'
p33
ag14
ag14
aS'variable_7'
p34
aS'='
p35
aS'kmalloc'
p36
ag5
aS'variable_3'
p37
aS'.'
p38
aS'variable_9'
p39
ag9
aS'variable_10'
p40
ag9
aS'variable_7'
p41
ag11
aS'variable_11'
p42
ag14
ag18
aS'if'
p43
ag5
aS'!'
p44
aS'variable_7'
p45
ag14
aS'variable_8'
p46
ag35
aS'variable_10'
p47
ag9
aS'variable_5'
p48
aS'+'
p49
aS'variable_3'
p50
ag38
aS'variable_9'
p51
ag9
aS'sizeof'
p52
ag5
aS'struct'
p53
aS'variable_12'
p54
ag14
ag18
aS'variable_5'
p55
ag35
aS'kmalloc'
p56
ag5
aS'variable_8'
p57
ag11
aS'variable_11'
p58
ag14
ag18
aS'if'
p59
ag5
ag44
aS'variable_5'
p60
ag14
aS'variable_5'
p61
aS'->'
p62
aS'variable_13'
p63
ag35
aS'func_2'
p64
ag5
aS'variable_14'
p65
ag11
aS'variable_3'
p66
ag38
aS'variable_9'
p67
ag11
aS'variable_7'
p68
ag14
ag18
aS'for'
p69
ag5
aS'variable_15'
p70
ag35
aS'0'
p71
ag18
aS'variable_15'
p72
aS'<'
p73
aS'variable_5'
p74
aS'->'
p75
aS'variable_13'
p76
ag18
aS'variable_15'
p77
aS'++'
p78
ag14
aS'variable_5'
p79
aS'->'
p80
aS'variable_7'
p81
aS'['
p82
aS'variable_15'
p83
aS']'
p84
ag38
aS'variable_16'
p85
ag35
aS'variable_7'
p86
ag82
aS'variable_15'
p87
ag84
ag38
aS'variable_16'
p88
ag18
aS'variable_5'
p89
aS'->'
p90
aS'variable_7'
p91
ag82
aS'variable_15'
p92
ag84
ag38
aS'variable_17'
p93
ag35
aS'variable_7'
p94
ag82
aS'variable_15'
p95
ag84
ag38
aS'variable_17'
p96
ag18
aS'variable_5'
p97
aS'->'
p98
aS'variable_7'
p99
ag82
aS'variable_15'
p100
ag84
ag38
aS'variable_18'
p101
ag35
aS'variable_7'
p102
ag82
aS'variable_15'
p103
ag84
ag38
aS'variable_18'
p104
ag18
aS'variable_5'
p105
aS'->'
p106
aS'variable_7'
p107
ag82
aS'variable_15'
p108
ag84
ag38
aS'variable_19'
p109
ag35
aS'variable_7'
p110
ag82
aS'variable_15'
p111
ag84
ag38
aS'variable_19'
p112
ag18
aS'variable_5'
p113
aS'->'
p114
aS'variable_7'
p115
ag82
aS'variable_15'
p116
ag84
ag38
aS'variable_20'
p117
ag35
aS'variable_7'
p118
ag82
aS'variable_15'
p119
ag84
ag38
aS'variable_20'
p120
ag18
aS'variable_5'
p121
aS'->'
p122
aS'variable_7'
p123
ag82
aS'variable_15'
p124
ag84
ag38
aS'variable_21'
p125
ag38
aS'variable_22'
p126
ag35
ag5
aS'__u32'
p127
aS'variable_23'
p128
ag14
aS'variable_7'
p129
ag82
aS'variable_15'
p130
ag84
ag38
aS'variable_21'
p131
ag38
aS'variable_22'
p132
ag18
aS'variable_5'
p133
aS'->'
p134
aS'variable_7'
p135
ag82
aS'variable_15'
p136
ag84
ag38
aS'variable_24'
p137
ag35
aS'variable_7'
p138
ag82
aS'variable_15'
p139
ag84
ag38
aS'variable_25'
p140
aS'->'
p141
aS'variable_24'
p142
ag18
aS'variable_5'
p143
aS'->'
p144
aS'variable_7'
p145
ag82
aS'variable_15'
p146
ag84
ag38
aS'variable_26'
p147
ag35
aS'variable_7'
p148
ag82
aS'variable_15'
p149
ag84
ag38
aS'variable_26'
p150
ag18
aS'variable_5'
p151
aS'->'
p152
aS'variable_7'
p153
ag82
aS'variable_15'
p154
ag84
ag38
aS'variable_27'
p155
ag35
aS'variable_7'
p156
ag82
aS'variable_15'
p157
ag84
ag38
aS'variable_27'
p158
ag18
aS'variable_5'
p159
aS'->'
p160
aS'variable_7'
p161
ag82
aS'variable_15'
p162
ag84
ag38
aS'variable_28'
p163
ag35
aS'variable_7'
p164
ag82
aS'variable_15'
p165
ag84
ag38
aS'variable_28'
p166
ag18
aS'variable_5'
p167
aS'->'
p168
aS'variable_7'
p169
ag82
aS'variable_15'
p170
ag84
ag38
aS'variable_29'
p171
ag35
aS'variable_7'
p172
ag82
aS'variable_15'
p173
ag84
ag38
aS'variable_29'
p174
ag18
aS'variable_5'
p175
aS'->'
p176
aS'variable_7'
p177
ag82
aS'variable_15'
p178
ag84
ag38
aS'variable_30'
p179
ag35
aS'variable_7'
p180
ag82
aS'variable_15'
p181
ag84
ag38
aS'variable_30'
p182
ag18
aS'variable_5'
p183
aS'->'
p184
aS'variable_7'
p185
ag82
aS'variable_15'
p186
ag84
ag38
aS'variable_31'
p187
ag35
aS'variable_7'
p188
ag82
aS'variable_15'
p189
ag84
ag38
aS'variable_31'
p190
ag18
aS'variable_5'
p191
aS'->'
p192
aS'variable_7'
p193
ag82
aS'variable_15'
p194
ag84
ag38
aS'variable_32'
p195
ag35
aS'variable_7'
p196
ag82
aS'variable_15'
p197
ag84
ag38
aS'variable_32'
p198
ag18
aS'if'
p199
ag5
aS'func_3'
p200
ag5
ag5
aS'void'
p201
aS'__user'
p202
ag9
ag14
ag5
aS'unsigned'
p203
aS'long'
p204
ag14
aS'variable_3'
p205
ag38
aS'variable_33'
p206
ag11
aS'variable_5'
p207
ag11
aS'variable_8'
p208
ag14
ag14
aS'kfree'
p209
ag5
aS'variable_5'
p210
ag14
ag18
aa(lp211
S'ssize_t'
p212
aS'func_0'
p213
ag5
aS'const'
p214
aS'char'
p215
aS'variable_0'
p216
ag9
aS'variable_1'
p217
ag11
aS'int'
p218
aS'variable_2'
p219
ag14
aS'struct'
p220
aS'CVE_2010_4649_VULN_ib_uverbs_poll_cq'
p221
aS'variable_3'
p222
ag18
aS'struct'
p223
aS'variable_4'
p224
ag9
aS'variable_5'
p225
ag18
aS'if'
p226
ag5
aS'func_1'
p227
ag5
ag29
aS'variable_3'
p228
ag11
aS'variable_1'
p229
ag11
aS'sizeof'
p230
aS'variable_3'
p231
ag14
ag14
aS'variable_5'
p232
ag35
aS'kmalloc'
p233
ag5
aS'variable_3'
p234
ag38
aS'variable_6'
p235
ag9
aS'variable_7'
p236
ag9
aS'variable_5'
p237
ag11
aS'variable_8'
p238
ag14
ag18
aS'if'
p239
ag5
ag44
aS'variable_5'
p240
ag14
aS'variable_9'
p241
aS'->'
p242
aS'variable_10'
p243
ag35
aS'func_2'
p244
ag5
aS'variable_11'
p245
ag11
aS'variable_3'
p246
ag38
aS'variable_6'
p247
ag11
aS'variable_5'
p248
ag14
ag18
aS'for'
p249
ag5
aS'variable_12'
p250
ag35
ag71
ag18
aS'variable_12'
p251
ag73
aS'variable_9'
p252
aS'->'
p253
aS'variable_10'
p254
ag18
aS'variable_12'
p255
aS'++'
p256
ag14
aS'variable_9'
p257
aS'->'
p258
aS'variable_5'
p259
ag82
aS'variable_12'
p260
ag84
ag38
aS'variable_13'
p261
ag35
aS'variable_5'
p262
ag82
aS'variable_12'
p263
ag84
ag38
aS'variable_13'
p264
ag18
aS'variable_9'
p265
aS'->'
p266
aS'variable_5'
p267
ag82
aS'variable_12'
p268
ag84
ag38
aS'variable_14'
p269
ag35
aS'variable_5'
p270
ag82
aS'variable_12'
p271
ag84
ag38
aS'variable_14'
p272
ag18
aS'variable_9'
p273
aS'->'
p274
aS'variable_5'
p275
ag82
aS'variable_12'
p276
ag84
ag38
aS'variable_15'
p277
ag35
aS'variable_5'
p278
ag82
aS'variable_12'
p279
ag84
ag38
aS'variable_15'
p280
ag18
aS'variable_9'
p281
aS'->'
p282
aS'variable_5'
p283
ag82
aS'variable_12'
p284
ag84
ag38
aS'variable_16'
p285
ag35
aS'variable_5'
p286
ag82
aS'variable_12'
p287
ag84
ag38
aS'variable_16'
p288
ag18
aS'variable_9'
p289
aS'->'
p290
aS'variable_5'
p291
ag82
aS'variable_12'
p292
ag84
ag38
aS'variable_17'
p293
ag35
aS'variable_5'
p294
ag82
aS'variable_12'
p295
ag84
ag38
aS'variable_17'
p296
ag18
aS'variable_9'
p297
aS'->'
p298
aS'variable_5'
p299
ag82
aS'variable_12'
p300
ag84
ag38
aS'variable_18'
p301
ag38
aS'variable_19'
p302
ag35
ag5
aS'__u32'
p303
aS'variable_20'
p304
ag14
aS'variable_5'
p305
ag82
aS'variable_12'
p306
ag84
ag38
aS'variable_18'
p307
ag38
aS'variable_19'
p308
ag18
aS'variable_9'
p309
aS'->'
p310
aS'variable_5'
p311
ag82
aS'variable_12'
p312
ag84
ag38
aS'variable_21'
p313
ag35
aS'variable_5'
p314
ag82
aS'variable_12'
p315
ag84
ag38
aS'variable_22'
p316
aS'->'
p317
aS'variable_21'
p318
ag18
aS'variable_9'
p319
aS'->'
p320
aS'variable_5'
p321
ag82
aS'variable_12'
p322
ag84
ag38
aS'variable_23'
p323
ag35
aS'variable_5'
p324
ag82
aS'variable_12'
p325
ag84
ag38
aS'variable_23'
p326
ag18
aS'variable_9'
p327
aS'->'
p328
aS'variable_5'
p329
ag82
aS'variable_12'
p330
ag84
ag38
aS'variable_24'
p331
ag35
aS'variable_5'
p332
ag82
aS'variable_12'
p333
ag84
ag38
aS'variable_24'
p334
ag18
aS'variable_9'
p335
aS'->'
p336
aS'variable_5'
p337
ag82
aS'variable_12'
p338
ag84
ag38
aS'variable_25'
p339
ag35
aS'variable_5'
p340
ag82
aS'variable_12'
p341
ag84
ag38
aS'variable_25'
p342
ag18
aS'variable_9'
p343
aS'->'
p344
aS'variable_5'
p345
ag82
aS'variable_12'
p346
ag84
ag38
aS'variable_26'
p347
ag35
aS'variable_5'
p348
ag82
aS'variable_12'
p349
ag84
ag38
aS'variable_26'
p350
ag18
aS'variable_9'
p351
aS'->'
p352
aS'variable_5'
p353
ag82
aS'variable_12'
p354
ag84
ag38
aS'variable_27'
p355
ag35
aS'variable_5'
p356
ag82
aS'variable_12'
p357
ag84
ag38
aS'variable_27'
p358
ag18
aS'variable_9'
p359
aS'->'
p360
aS'variable_5'
p361
ag82
aS'variable_12'
p362
ag84
ag38
aS'variable_28'
p363
ag35
aS'variable_5'
p364
ag82
aS'variable_12'
p365
ag84
ag38
aS'variable_28'
p366
ag18
aS'variable_9'
p367
aS'->'
p368
aS'variable_5'
p369
ag82
aS'variable_12'
p370
ag84
ag38
aS'variable_29'
p371
ag35
aS'variable_5'
p372
ag82
aS'variable_12'
p373
ag84
ag38
aS'variable_29'
p374
ag18
aS'if'
p375
ag5
aS'func_3'
p376
ag5
ag5
aS'void'
p377
aS'__user'
p378
ag9
ag14
ag5
aS'unsigned'
p379
aS'long'
p380
ag14
aS'variable_3'
p381
ag38
aS'variable_30'
p382
ag11
aS'variable_9'
p383
ag11
aS'variable_31'
p384
ag14
ag14
aS'kfree'
p385
ag5
aS'variable_9'
p386
ag14
ag18
aS'kfree'
p387
ag5
aS'variable_5'
p388
ag14
ag18
aaa(lp389
I0
aI0
aa(lp390
I77
aI48
aa(lp391
(lp392
S'main'
p393
aa(lp394
g393
aaa(lp395
S'175 /home/SySeVR/data/CVE_2010_4649_VULN_ib_uverbs_poll_cq.c rsize = sizeof * resp + cmd . ne * sizeof ( struct ib_uverbs_wc ) 20'
p396
aS'176 /home/SySeVR/data/CVE_2010_4649_VULN_ib_uverbs_poll_cq.c wc = kmalloc ( cmd . ne * sizeof * wc , GFP_KERNEL ) 16'
p397
aa.