(lp0
(lp1
(lp2
S'int'
p3
aS'func_0'
p4
aS'('
p5
aS'const'
p6
aS'bool'
p7
ag5
aS'*'
p8
aS'variable_0'
p9
aS')'
p10
ag5
aS'void'
p11
ag8
aS'variable_1'
p12
aS','
p13
aS'void'
p14
ag8
aS'variable_2'
p15
ag10
aS'struct'
p16
aS'variable_3'
p17
ag8
aS'variable_4'
p18
ag13
ag8
aS'variable_5'
p19
aS';'
p20
aS'struct'
p21
aS'variable_6'
p22
ag8
aS'variable_7'
p23
ag13
ag8
aS'variable_8'
p24
ag20
aS'struct'
p25
aS'variable_9'
p26
ag8
aS'variable_10'
p27
ag20
aS'struct'
p28
aS'variable_11'
p29
ag8
aS'variable_12'
p30
ag13
ag8
aS'variable_13'
p31
ag20
aS'struct'
p32
aS'variable_11'
p33
ag8
aS'variable_14'
p34
ag13
ag8
aS'variable_15'
p35
ag13
ag8
ag8
aS'variable_16'
p36
ag20
aS'int'
p37
aS'variable_17'
p38
ag13
aS'variable_18'
p39
ag13
aS'variable_19'
p40
ag13
aS'variable_20'
p41
ag13
aS'variable_21'
p42
ag20
aS'if'
p43
ag5
aS'!'
p44
aS'variable_22'
p45
aS'->'
p46
aS'variable_23'
p47
ag10
aS'variable_10'
p48
aS'='
p49
aS'func_1'
p50
ag5
aS'sizeof'
p51
ag5
aS'struct'
p52
aS'variable_9'
p53
ag10
ag13
aS'variable_24'
p54
ag10
ag20
aS'if'
p55
ag5
ag44
aS'variable_10'
p56
ag10
aS'variable_14'
p57
ag49
aS'variable_15'
p58
ag49
aS'NULL'
p59
ag20
aS'variable_16'
p60
ag49
aS'&'
p61
aS'variable_14'
p62
ag20
aS'variable_12'
p63
ag49
aS'variable_22'
p64
aS'->'
p65
aS'variable_23'
p66
ag20
aS'if'
p67
ag5
aS'func_2'
p68
ag5
aS'variable_12'
p69
ag10
ag10
aS'variable_4'
p70
ag49
aS'func_3'
p71
ag5
aS'variable_12'
p72
ag10
ag20
aS'variable_17'
p73
ag49
aS'func_4'
p74
ag5
aS'variable_4'
p75
aS'->'
p76
aS'variable_25'
p77
ag13
aS'variable_26'
p78
ag10
ag20
aS'variable_17'
p79
aS'>>'
p80
ag49
aS'variable_27'
p81
ag20
aS'variable_5'
p82
ag49
aS'kmalloc'
p83
ag5
aS'sizeof'
p84
ag5
aS'struct'
p85
aS'variable_3'
p86
ag10
aS'+'
p87
aS'variable_17'
p88
ag8
aS'sizeof'
p89
ag5
aS'unsigned'
p90
aS'long'
p91
ag10
ag13
aS'variable_24'
p92
ag10
ag20
aS'if'
p93
ag5
ag44
aS'variable_5'
p94
ag10
aS'func_5'
p95
ag5
aS'"'
p96
aS'dup'
p97
aS'shortcut'
p98
aS'%'
p99
aS'p'
p100
aS'->'
p101
ag99
ag100
aS'\\'
p102
aS'n'
p103
ag96
ag13
aS'variable_4'
p104
ag13
aS'variable_5'
p105
ag10
ag20
aS'memcpy'
p106
ag5
aS'variable_5'
p107
ag13
aS'variable_4'
p108
ag13
ag5
aS'sizeof'
p109
ag5
aS'struct'
p110
aS'variable_3'
p111
ag10
ag87
aS'variable_17'
p112
ag8
aS'sizeof'
p113
ag5
aS'unsigned'
p114
aS'long'
p115
ag10
ag10
ag10
ag20
aS'variable_5'
p116
aS'->'
p117
aS'variable_28'
p118
ag49
aS'variable_15'
p119
ag20
aS'variable_5'
p120
aS'->'
p121
aS'variable_29'
p122
ag49
aS'variable_4'
p123
aS'->'
p124
aS'variable_29'
p125
ag20
ag8
aS'variable_16'
p126
ag49
aS'variable_15'
p127
ag49
aS'func_6'
p128
ag5
aS'variable_5'
p129
ag10
ag20
aS'variable_16'
p130
ag49
ag61
aS'variable_5'
p131
aS'->'
p132
aS'variable_30'
p133
ag20
aS'variable_12'
p134
ag49
aS'variable_4'
p135
aS'->'
p136
aS'variable_30'
p137
ag20
aS'variable_7'
p138
ag49
aS'func_7'
p139
ag5
aS'variable_12'
p140
ag10
ag20
aS'variable_8'
p141
ag49
aS'func_8'
p142
ag5
aS'sizeof'
p143
ag5
aS'struct'
p144
aS'variable_6'
p145
ag10
ag13
aS'variable_24'
p146
ag10
ag20
aS'if'
p147
ag5
ag44
aS'variable_8'
p148
ag10
aS'func_9'
p149
ag5
ag96
aS'dup'
p150
aS'node'
p151
ag99
ag100
aS'->'
p152
ag99
ag100
ag102
ag103
ag96
ag13
aS'variable_7'
p153
ag13
aS'variable_8'
p154
ag10
ag20
aS'variable_8'
p155
aS'->'
p156
aS'variable_28'
p157
ag49
aS'variable_15'
p158
ag20
aS'variable_8'
p159
aS'->'
p160
aS'variable_29'
p161
ag49
aS'variable_7'
p162
aS'->'
p163
aS'variable_29'
p164
ag20
ag8
aS'variable_16'
p165
ag49
aS'variable_15'
p166
ag49
aS'func_10'
p167
ag5
aS'variable_8'
p168
ag10
ag20
aS'variable_18'
p169
ag49
aS'0'
p170
ag20
aS'for'
p171
ag5
ag20
aS'variable_18'
p172
aS'<'
p173
aS'variable_31'
p174
ag20
aS'variable_18'
p175
aS'++'
p176
ag10
aS'variable_13'
p177
ag49
aS'variable_7'
p178
aS'->'
p179
aS'variable_32'
p180
aS'['
p181
aS'variable_18'
p182
aS']'
p183
ag20
aS'if'
p184
ag5
ag44
aS'variable_13'
p185
ag10
aS'if'
p186
ag5
aS'func_11'
p187
ag5
aS'variable_13'
p188
ag10
ag10
aS'if'
p189
ag5
aS'func_12'
p190
ag5
aS'func_13'
p191
ag5
aS'variable_13'
p192
ag10
ag13
aS'variable_2'
p193
ag10
ag10
aS'variable_8'
p194
aS'->'
p195
aS'variable_32'
p196
ag181
aS'variable_18'
p197
ag183
ag49
aS'variable_13'
p198
ag20
aS'variable_16'
p199
ag49
ag61
aS'variable_8'
p200
aS'->'
p201
aS'variable_32'
p202
ag181
aS'variable_18'
p203
ag183
ag20
aS'variable_12'
p204
ag49
aS'variable_13'
p205
ag20
aS'func_14'
p206
ag5
ag96
aS'-'
p207
ag207
aS'compress'
p208
aS'node'
p209
ag99
ag100
aS'--'
p210
ag102
ag103
ag96
ag13
aS'variable_8'
p211
ag10
ag20
aS'variable_8'
p212
aS'->'
p213
aS'variable_33'
p214
ag49
ag170
ag20
aS'variable_19'
p215
ag49
ag170
ag20
aS'for'
p216
ag5
aS'variable_18'
p217
ag49
ag170
ag20
aS'variable_18'
p218
ag173
aS'variable_31'
p219
ag20
aS'variable_18'
p220
aS'++'
p221
ag10
aS'variable_13'
p222
ag49
aS'variable_8'
p223
aS'->'
p224
aS'variable_32'
p225
ag181
aS'variable_18'
p226
ag183
ag20
aS'if'
p227
ag5
ag44
aS'variable_13'
p228
ag10
aS'variable_19'
p229
aS'++'
p230
ag20
aS'if'
p231
ag5
aS'func_15'
p232
ag5
aS'variable_13'
p233
ag10
ag10
aS'variable_8'
p234
aS'->'
p235
aS'variable_33'
p236
aS'++'
p237
ag20
aS'func_16'
p238
ag5
ag96
aS'free'
p239
ag49
ag99
aS'd'
p240
ag13
aS'leaves'
p241
ag49
ag99
aS'lu'
p242
ag102
ag103
ag96
ag13
aS'variable_19'
p243
ag13
aS'variable_8'
p244
aS'->'
p245
aS'variable_33'
p246
ag10
ag20
aS'variable_20'
p247
ag49
ag170
ag20
aS'for'
p248
ag5
aS'variable_18'
p249
ag49
ag170
ag20
aS'variable_18'
p250
ag173
aS'variable_31'
p251
ag20
aS'variable_18'
p252
aS'++'
p253
ag10
aS'struct'
p254
aS'variable_3'
p255
ag8
aS'variable_34'
p256
ag20
aS'struct'
p257
aS'variable_6'
p258
ag8
aS'variable_35'
p259
ag20
aS'variable_13'
p260
ag49
aS'variable_8'
p261
aS'->'
p262
aS'variable_32'
p263
ag181
aS'variable_18'
p264
ag183
ag20
aS'if'
p265
ag5
ag44
aS'variable_13'
p266
aS'||'
p267
aS'func_17'
p268
ag5
aS'variable_13'
p269
ag10
ag10
aS'variable_34'
p270
ag49
aS'NULL'
p271
ag20
aS'if'
p272
ag5
aS'func_18'
p273
ag5
aS'variable_13'
p274
ag10
ag10
aS'variable_34'
p275
ag49
aS'func_19'
p276
ag5
aS'variable_13'
p277
ag10
ag20
aS'variable_13'
p278
ag49
aS'variable_34'
p279
aS'->'
p280
aS'variable_30'
p281
ag20
aS'variable_35'
p282
ag49
aS'func_20'
p283
ag5
aS'variable_13'
p284
ag10
ag20
aS'variable_8'
p285
aS'->'
p286
aS'variable_33'
p287
aS'+='
p288
aS'variable_35'
p289
aS'->'
p290
aS'variable_33'
p291
ag20
aS'if'
p292
ag5
aS'variable_35'
p293
aS'->'
p294
aS'variable_33'
p295
ag173
ag49
aS'variable_19'
p296
ag87
aS'1'
p297
ag10
aS'func_21'
p298
ag5
ag96
ag181
ag99
ag240
ag183
aS'fold'
p299
aS'node'
p300
ag99
aS'lu'
p301
aS'/'
p302
ag99
ag240
ag181
aS'nx'
p303
ag99
ag240
ag183
ag102
ag103
ag96
ag13
aS'variable_18'
p304
ag13
aS'variable_35'
p305
aS'->'
p306
aS'variable_33'
p307
ag13
aS'variable_19'
p308
ag87
ag297
ag13
aS'variable_20'
p309
ag10
ag20
aS'func_22'
p310
ag5
aS'variable_34'
p311
ag10
ag20
aS'variable_8'
p312
aS'->'
p313
aS'variable_32'
p314
ag181
aS'variable_18'
p315
ag183
ag49
aS'NULL'
p316
ag20
aS'variable_19'
p317
aS'++'
p318
ag20
aS'if'
p319
ag5
aS'variable_18'
p320
ag173
aS'variable_20'
p321
ag10
aS'variable_20'
p322
ag49
aS'variable_18'
p323
ag20
aS'for'
p324
ag5
aS'variable_21'
p325
ag49
ag170
ag20
aS'variable_21'
p326
ag173
aS'variable_31'
p327
ag20
aS'variable_21'
p328
aS'++'
p329
ag10
aS'struct'
p330
aS'variable_11'
p331
ag8
aS'variable_36'
p332
ag49
aS'variable_35'
p333
aS'->'
p334
aS'variable_32'
p335
ag181
aS'variable_21'
p336
ag183
ag20
aS'if'
p337
ag5
ag44
aS'variable_36'
p338
ag10
aS'func_23'
p339
ag5
aS'func_24'
p340
ag5
aS'variable_36'
p341
ag10
ag10
ag20
aS'while'
p342
ag5
aS'variable_8'
p343
aS'->'
p344
aS'variable_32'
p345
ag181
aS'variable_20'
p346
ag183
ag10
aS'variable_20'
p347
aS'++'
p348
ag20
aS'func_25'
p349
ag5
aS'variable_20'
p350
aS'>'
p351
ag49
aS'variable_31'
p352
ag10
ag20
aS'variable_8'
p353
aS'->'
p354
aS'variable_32'
p355
ag181
aS'variable_20'
p356
aS'++'
p357
ag183
ag49
aS'variable_36'
p358
ag20
aS'variable_19'
p359
aS'--'
p360
ag20
aS'kfree'
p361
ag5
aS'variable_35'
p362
ag10
ag20
aS'func_26'
p363
ag5
ag96
ag181
ag99
ag240
ag183
aS'retain'
p364
aS'node'
p365
ag99
aS'lu'
p366
ag302
ag99
ag240
ag181
aS'nx'
p367
ag99
ag240
ag183
ag102
ag103
ag96
ag13
aS'variable_18'
p368
ag13
aS'variable_35'
p369
aS'->'
p370
aS'variable_33'
p371
ag13
aS'variable_19'
p372
ag87
ag297
ag13
aS'variable_20'
p373
ag10
ag20
aS'func_27'
p374
ag5
ag96
aS'after'
p375
aS':'
p376
ag99
aS'lu'
p377
ag102
ag103
ag96
ag13
aS'variable_8'
p378
aS'->'
p379
aS'variable_33'
p380
ag10
ag20
aS'variable_37'
p381
ag49
aS'variable_8'
p382
aS'->'
p383
aS'variable_33'
p384
ag20
aS'if'
p385
ag5
aS'variable_19'
p386
aS'=='
p387
aS'variable_31'
p388
ag207
ag297
ag10
aS'for'
p389
ag5
aS'variable_18'
p390
ag49
ag170
ag20
aS'variable_18'
p391
ag173
aS'variable_31'
p392
ag20
aS'variable_18'
p393
aS'++'
p394
ag10
aS'if'
p395
ag5
aS'variable_13'
p396
ag49
aS'variable_8'
p397
aS'->'
p398
aS'variable_32'
p399
ag181
aS'variable_18'
p400
ag183
ag10
aS'if'
p401
ag5
aS'func_28'
p402
ag5
aS'variable_13'
p403
ag10
aS'&&'
p404
aS'func_29'
p405
ag5
aS'variable_13'
p406
ag10
ag10
aS'func_30'
p407
ag5
ag96
aS'excise'
p408
aS'node'
p409
ag99
ag100
aS'with'
p410
ag297
aS'shortcut'
p411
ag102
ag103
ag96
ag13
aS'variable_8'
p412
ag10
ag20
aS'variable_5'
p413
ag49
aS'func_31'
p414
ag5
aS'variable_13'
p415
ag10
ag20
aS'variable_15'
p416
ag49
aS'variable_8'
p417
aS'->'
p418
aS'variable_28'
p419
ag20
aS'variable_18'
p420
ag49
aS'variable_8'
p421
aS'->'
p422
aS'variable_29'
p423
ag20
aS'kfree'
p424
ag5
aS'variable_8'
p425
ag10
ag20
aS'if'
p426
ag5
ag44
aS'variable_15'
p427
ag10
aS'variable_5'
p428
aS'->'
p429
aS'variable_28'
p430
ag49
aS'NULL'
p431
ag20
aS'variable_5'
p432
aS'->'
p433
aS'variable_29'
p434
ag49
ag170
ag20
aS'variable_14'
p435
ag49
aS'variable_13'
p436
ag20
aS'if'
p437
ag5
aS'func_32'
p438
ag5
aS'variable_15'
p439
ag10
ag10
aS'struct'
p440
aS'variable_3'
p441
ag8
aS'variable_34'
p442
ag49
aS'func_33'
p443
ag5
aS'variable_15'
p444
ag10
ag20
aS'variable_15'
p445
ag49
aS'variable_5'
p446
aS'->'
p447
aS'variable_28'
p448
ag49
aS'variable_34'
p449
aS'->'
p450
aS'variable_28'
p451
ag20
aS'variable_18'
p452
ag49
aS'variable_5'
p453
aS'->'
p454
aS'variable_29'
p455
ag49
aS'variable_34'
p456
aS'->'
p457
aS'variable_29'
p458
ag20
aS'kfree'
p459
ag5
aS'variable_34'
p460
ag10
ag20
aS'if'
p461
ag5
ag44
aS'variable_15'
p462
ag10
aS'variable_5'
p463
aS'->'
p464
aS'variable_28'
p465
ag49
aS'NULL'
p466
ag20
aS'variable_5'
p467
aS'->'
p468
aS'variable_29'
p469
ag49
ag170
ag20
aS'variable_14'
p470
ag49
aS'variable_13'
p471
ag20
aS'variable_5'
p472
aS'->'
p473
aS'variable_28'
p474
ag49
aS'variable_15'
p475
ag20
aS'variable_5'
p476
aS'->'
p477
aS'variable_29'
p478
ag49
aS'variable_18'
p479
ag20
aS'variable_8'
p480
ag49
aS'func_34'
p481
ag5
aS'variable_15'
p482
ag10
ag20
aS'variable_8'
p483
aS'->'
p484
aS'variable_32'
p485
ag181
aS'variable_18'
p486
ag183
ag49
aS'variable_13'
p487
ag20
aS'variable_13'
p488
ag49
aS'variable_8'
p489
aS'->'
p490
aS'variable_28'
p491
ag20
aS'if'
p492
ag5
ag44
aS'variable_13'
p493
ag10
aS'if'
p494
ag5
aS'func_35'
p495
ag5
aS'variable_13'
p496
ag10
ag10
aS'variable_5'
p497
ag49
aS'func_36'
p498
ag5
aS'variable_13'
p499
ag10
ag20
aS'variable_15'
p500
ag49
aS'variable_5'
p501
aS'->'
p502
aS'variable_28'
p503
ag20
aS'variable_18'
p504
ag49
aS'variable_5'
p505
aS'->'
p506
aS'variable_29'
p507
ag20
aS'if'
p508
ag5
aS'variable_8'
p509
aS'->'
p510
aS'variable_33'
p511
ag173
ag49
aS'variable_31'
p512
ag10
aS'struct'
p513
aS'variable_6'
p514
ag8
aS'variable_38'
p515
ag20
aS'variable_8'
p516
aS'->'
p517
aS'variable_28'
p518
ag49
aS'variable_15'
p519
ag20
aS'variable_8'
p520
aS'->'
p521
aS'variable_29'
p522
ag49
aS'variable_18'
p523
ag20
aS'kfree'
p524
ag5
aS'variable_5'
p525
ag10
ag20
aS'if'
p526
ag5
ag44
aS'variable_15'
p527
ag10
aS'variable_14'
p528
ag49
aS'func_37'
p529
ag5
aS'variable_8'
p530
ag10
ag20
aS'variable_38'
p531
ag49
aS'func_38'
p532
ag5
aS'variable_15'
p533
ag10
ag20
aS'variable_38'
p534
aS'->'
p535
aS'variable_32'
p536
ag181
aS'variable_18'
p537
ag183
ag49
aS'func_39'
p538
ag5
aS'variable_8'
p539
ag10
ag20
aS'variable_15'
p540
ag49
aS'variable_13'
p541
ag20
aS'variable_8'
p542
ag49
aS'func_40'
p543
ag5
aS'variable_15'
p544
ag10
ag20
aS'variable_13'
p545
ag49
aS'variable_7'
p546
aS'->'
p547
aS'variable_28'
p548
ag20
aS'if'
p549
ag5
aS'func_41'
p550
ag5
aS'variable_13'
p551
ag10
ag10
aS'variable_4'
p552
ag49
aS'func_42'
p553
ag5
aS'variable_13'
p554
ag10
ag20
aS'variable_18'
p555
ag49
aS'variable_4'
p556
aS'->'
p557
aS'variable_29'
p558
ag20
aS'variable_12'
p559
ag49
aS'variable_4'
p560
aS'->'
p561
aS'variable_28'
p562
ag20
aS'if'
p563
ag5
ag44
aS'variable_12'
p564
ag10
aS'variable_18'
p565
ag49
aS'variable_7'
p566
aS'->'
p567
aS'variable_29'
p568
ag20
aS'variable_12'
p569
ag49
aS'variable_13'
p570
ag20
aS'func_43'
p571
ag5
ag44
aS'variable_12'
p572
ag10
ag20
aS'variable_7'
p573
ag49
aS'func_44'
p574
ag5
aS'variable_12'
p575
ag10
ag20
aS'variable_18'
p576
aS'++'
p577
ag20
aS'variable_10'
p578
aS'->'
p579
aS'variable_39'
p580
ag181
ag170
ag183
aS'.'
p581
aS'variable_40'
p582
ag49
aS'variable_14'
p583
ag20
aS'func_45'
p584
ag5
aS'variable_10'
p585
ag10
ag20
aS'variable_10'
p586
aS'->'
p587
aS'variable_22'
p588
aS'->'
p589
aS'variable_37'
p590
ag49
aS'variable_37'
p591
ag20
aaa(lp592
I0
aa(lp593
I151
aa(lp594
(lp595
S'main'
p596
aaa(lp597
S'619 /home/SySeVR/data/CVE_2014_3631_PATCHED_assoc_array_gc.c new_s = kmalloc ( sizeof ( struct assoc_array_shortcut ) + keylen * sizeof ( unsigned long ) , GFP_KERNEL ) 40'
p598
aa.