(lp0
(lp1
(lp2
S'static'
p3
aS'inline'
p4
aS'int'
p5
aS'func_0'
p6
aS'('
p7
aS'int'
p8
aS'func_1'
p9
ag7
aS'void'
p10
aS'*'
p11
aS'variable_0'
p12
aS','
p13
aS'char'
p14
ag11
aS'variable_1'
p15
ag13
aS'int'
p16
aS'variable_2'
p17
ag13
aS'int'
p18
aS'variable_3'
p19
ag13
aS'void'
p20
ag11
aS'variable_0'
p21
ag13
aS'int'
p22
aS'variable_4'
p23
ag13
aS'int'
p24
aS'variable_5'
p25
ag13
aS'int'
p26
aS'variable_6'
p27
ag13
aS'int'
p28
aS'variable_7'
p29
ag13
aS'struct'
p30
aS'variable_8'
p31
ag11
aS'variable_9'
p32
aS')'
p33
aS'struct'
p34
aS'variable_10'
p35
ag11
aS'variable_11'
p36
aS';'
p37
aS'if'
p38
ag7
ag7
aS'variable_11'
p39
aS'='
p40
aS'func_2'
p41
ag7
aS'&'
p42
aS'variable_12'
p43
aS'->'
p44
aS'variable_13'
p45
ag33
ag33
aS'=='
p46
aS'NULL'
p47
ag33
aS'variable_11'
p48
ag40
aS'func_3'
p49
ag7
aS'variable_12'
p50
ag13
aS'variable_5'
p51
aS'+'
p52
aS'variable_14'
p53
ag52
aS'variable_6'
p54
ag52
aS'20'
p55
ag13
ag7
aS'variable_15'
p56
ag42
aS'variable_16'
p57
ag33
ag13
ag42
aS'variable_17'
p58
ag33
ag37
aS'if'
p59
ag7
aS'variable_11'
p60
aS'=='
p61
aS'NULL'
p62
ag33
aS'variable_11'
p63
aS'->'
p64
aS'variable_18'
p65
ag40
aS'variable_11'
p66
aS'->'
p67
aS'variable_19'
p68
ag52
aS'variable_14'
p69
ag37
aS'variable_11'
p70
aS'->'
p71
aS'variable_20'
p72
ag40
aS'func_4'
p73
ag7
aS'variable_21'
p74
ag33
ag37
aS'variable_11'
p75
aS'->'
p76
aS'variable_22'
p77
ag40
aS'0'
p78
ag37
aS'func_5'
p79
ag7
ag42
aS'variable_12'
p80
aS'->'
p81
aS'variable_13'
p82
ag13
aS'variable_11'
p83
ag33
ag37
aS'variable_11'
p84
aS'->'
p85
aS'variable_23'
p86
ag40
aS'variable_24'
p87
ag37
aS'func_6'
p88
ag7
aS'variable_11'
p89
ag33
aS'->'
p90
aS'variable_25'
p91
ag40
ag7
aS'variable_7'
p92
aS'-'
p93
aS'variable_14'
p94
ag93
aS'sizeof'
p95
ag7
aS'struct'
p96
aS'variable_26'
p97
ag33
ag33
ag42
aS'~'
p98
aS'7'
p99
ag37
aS'func_7'
p100
ag7
aS'variable_11'
p101
ag33
aS'->'
p102
aS'variable_27'
p103
ag40
aS'variable_28'
p104
ag37
aS'func_8'
p105
ag7
aS'variable_11'
p106
ag33
aS'->'
p107
aS'variable_29'
p108
ag40
aS'variable_30'
p109
aS'.'
p110
aS'variable_31'
p111
ag37
aS'return'
p112
aS'func_9'
p113
ag7
aS'variable_12'
p114
ag13
aS'variable_11'
p115
ag13
aS'variable_32'
p116
ag13
aS'variable_0'
p117
ag13
ag7
aS'variable_4'
p118
ag93
aS'variable_6'
p119
ag33
ag33
ag37
aa(lp120
S'static'
p121
aS'inline'
p122
aS'int'
p123
aS'func_0'
p124
ag7
aS'int'
p125
aS'func_1'
p126
ag7
aS'void'
p127
ag11
aS'variable_0'
p128
ag13
aS'char'
p129
ag11
aS'variable_1'
p130
ag13
aS'int'
p131
aS'variable_2'
p132
ag13
aS'int'
p133
aS'variable_3'
p134
ag13
aS'void'
p135
ag11
aS'variable_0'
p136
ag13
aS'int'
p137
aS'variable_4'
p138
ag13
aS'int'
p139
aS'variable_5'
p140
ag13
aS'int'
p141
aS'variable_6'
p142
ag13
aS'int'
p143
aS'variable_7'
p144
ag13
aS'struct'
p145
aS'variable_8'
p146
ag11
aS'variable_9'
p147
ag33
aS'struct'
p148
aS'variable_10'
p149
ag11
aS'variable_11'
p150
ag37
aS'if'
p151
ag7
ag7
aS'variable_11'
p152
ag40
aS'func_2'
p153
ag7
ag42
aS'variable_12'
p154
aS'->'
p155
aS'variable_13'
p156
ag33
ag33
aS'=='
p157
aS'NULL'
p158
ag33
aS'variable_11'
p159
ag40
aS'func_3'
p160
ag7
aS'variable_12'
p161
ag13
aS'variable_5'
p162
ag52
aS'variable_14'
p163
ag52
aS'variable_6'
p164
ag52
aS'20'
p165
ag13
ag7
aS'variable_15'
p166
ag42
aS'variable_16'
p167
ag33
ag13
ag42
aS'variable_17'
p168
ag33
ag37
aS'if'
p169
ag7
aS'variable_11'
p170
aS'=='
p171
aS'NULL'
p172
ag33
aS'func_4'
p173
ag7
aS'variable_11'
p174
ag13
aS'variable_5'
p175
ag33
ag37
aS'func_5'
p176
ag7
aS'variable_11'
p177
ag13
aS'variable_14'
p178
ag52
aS'variable_6'
p179
ag33
ag37
aS'func_6'
p180
ag7
aS'variable_11'
p181
ag33
ag37
aS'variable_11'
p182
aS'->'
p183
aS'variable_18'
p184
ag40
aS'variable_11'
p185
aS'->'
p186
aS'variable_19'
p187
ag52
aS'variable_14'
p188
ag37
aS'variable_11'
p189
aS'->'
p190
aS'variable_20'
p191
ag40
aS'func_7'
p192
ag7
aS'variable_21'
p193
ag33
ag37
aS'variable_11'
p194
aS'->'
p195
aS'variable_22'
p196
ag40
ag78
ag37
aS'func_8'
p197
ag7
ag42
aS'variable_12'
p198
aS'->'
p199
aS'variable_13'
p200
ag13
aS'variable_11'
p201
ag33
ag37
aS'variable_11'
p202
aS'->'
p203
aS'variable_23'
p204
ag40
aS'variable_24'
p205
ag37
aS'func_9'
p206
ag7
aS'variable_11'
p207
ag33
aS'->'
p208
aS'variable_25'
p209
ag40
ag7
aS'variable_7'
p210
ag93
aS'variable_14'
p211
ag93
aS'sizeof'
p212
ag7
aS'struct'
p213
aS'variable_26'
p214
ag33
ag33
ag42
ag98
ag99
ag37
aS'func_10'
p215
ag7
aS'variable_11'
p216
ag33
aS'->'
p217
aS'variable_27'
p218
ag40
aS'variable_28'
p219
ag37
aS'func_11'
p220
ag7
aS'variable_11'
p221
ag33
aS'->'
p222
aS'variable_29'
p223
ag40
aS'variable_30'
p224
ag110
aS'variable_31'
p225
ag37
aS'return'
p226
aS'func_12'
p227
ag7
aS'variable_12'
p228
ag13
aS'variable_11'
p229
ag13
aS'variable_32'
p230
ag13
aS'variable_0'
p231
ag13
ag7
aS'variable_4'
p232
ag93
aS'variable_6'
p233
ag33
ag33
ag37
aaa(lp234
I0
aI0
aa(lp235
I105
aI85
aa(lp236
(lp237
S'main'
p238
aa(lp239
g238
aaa(lp240
S'519 /home/SySeVR/data/CVE_2013_4470_PATCHED_ip6_ufo_append_data.c skb -> transport_header = skb -> network_header + fragheaderlen 34'
p241
aS'520 /home/SySeVR/data/CVE_2013_4470_PATCHED_ip6_ufo_append_data.c skb = sock_alloc_send_skb ( sk , hh_len + fragheaderlen + transhdrlen + 20 , ( flags & MSG_DONTWAIT ) , & err ) 18'
p242
aa.