(lp0
(lp1
(lp2
S'struct'
p3
aS'variable_0'
p4
aS'*'
p5
aS'variable_1'
p6
aS')'
p7
aS'struct'
p8
aS'variable_2'
p9
ag5
aS'variable_3'
p10
aS'='
p11
aS'variable_1'
p12
aS'->'
p13
aS'variable_3'
p14
aS';'
p15
aS'variable_4'
p16
ag11
aS'func_0'
p17
aS'('
p18
aS'variable_5'
p19
aS'+'
p20
aS'1'
p21
aS','
p22
aS'variable_6'
p23
ag7
ag15
aS'if'
p24
ag18
aS'!'
p25
aS'variable_4'
p26
ag7
aS'memcpy'
p27
ag18
aS'variable_4'
p28
ag22
aS'variable_7'
p29
ag22
aS'variable_5'
p30
ag7
ag15
aS'variable_4'
p31
aS'['
p32
aS'variable_5'
p33
aS']'
p34
ag11
aS"'"
p35
aS'\\'
p36
aS'0'
p37
ag35
ag15
aS'variable_8'
p38
ag11
aS'variable_4'
p39
ag15
aS'variable_9'
p40
ag11
ag18
aS'variable_8'
p41
ag20
aS'variable_5'
p42
ag7
ag15
aS'while'
p43
ag18
aS'variable_8'
p44
aS'<'
p45
aS'variable_9'
p46
ag7
aS'char'
p47
ag5
aS'variable_10'
p48
ag22
ag5
aS'variable_11'
p49
ag15
aS'struct'
p50
aS'variable_12'
p51
ag5
aS'variable_13'
p52
ag15
aS'if'
p53
ag18
aS'func_1'
p54
ag18
aS'variable_8'
p55
ag22
aS'&'
p56
aS'variable_10'
p57
ag22
ag56
aS'variable_11'
p58
ag7
ag45
ag37
ag7
aS'if'
p59
ag18
aS'variable_14'
p60
ag56
aS'variable_15'
p61
ag7
aS'if'
p62
ag18
aS'func_2'
p63
ag18
aS'variable_10'
p64
ag7
aS'>'
p65
ag37
ag7
aS'char'
p66
ag5
aS'variable_16'
p67
ag11
aS'variable_10'
p68
ag20
aS'strlen'
p69
ag18
aS'variable_10'
p70
ag7
ag15
ag5
aS'variable_16'
p71
ag11
ag35
ag11
ag35
ag15
aS'variable_13'
p72
ag11
aS'func_3'
p73
ag18
aS'variable_10'
p74
ag22
aS'variable_14'
p75
ag22
aS'variable_17'
p76
ag22
aS'variable_3'
p77
ag7
ag15
aS'if'
p78
ag18
ag25
aS'variable_13'
p79
ag7
aS'if'
p80
ag18
aS'func_4'
p81
ag18
aS'variable_10'
p82
ag22
aS'variable_11'
p83
ag22
aS'variable_3'
p84
ag7
ag45
ag37
ag7
aS'variable_8'
p85
aS'+='
p86
aS'strlen'
p87
ag18
aS'variable_10'
p88
ag7
ag20
aS'strlen'
p89
ag18
aS'variable_11'
p90
ag7
ag20
aS'2'
p91
ag15
aS'if'
p92
ag18
aS'func_5'
p93
ag18
aS'variable_13'
p94
ag22
aS'variable_11'
p95
ag7
ag45
ag37
ag7
aS'variable_8'
p96
aS'+='
p97
aS'strlen'
p98
ag18
aS'variable_10'
p99
ag7
ag20
aS'strlen'
p100
ag18
aS'variable_11'
p101
ag7
ag20
ag91
ag15
aS'if'
p102
ag18
aS'func_6'
p103
ag18
aS'variable_13'
p104
ag7
ag7
aS'if'
p105
ag18
aS'func_7'
p106
ag18
aS'variable_13'
p107
ag22
aS'variable_11'
p108
ag7
ag45
ag37
ag7
aS'if'
p109
ag18
aS'func_8'
p110
ag18
aS'variable_13'
p111
ag22
aS'variable_11'
p112
ag22
aS'variable_1'
p113
ag7
ag45
ag37
ag7
aaa(lp114
I0
aa(lp115
I119
aa(lp116
(lp117
S'main'
p118
aaa(lp119
S'837 /home/SySeVR/data/CVE_2013_2850_VULN_iscsi_decode_text_input.c char * tmpptr = key + strlen ( key ) ; 35'
p120
aa.