(lp0
(lp1
(lp2
S'func_0'
p3
aS'('
p4
aS'variable_0'
p5
aS'*'
p6
aS'variable_1'
p7
aS','
p8
aS'unsigned'
p9
aS'char'
p10
ag6
aS'variable_2'
p11
ag8
aS'unsigned'
p12
aS'variable_3'
p13
aS')'
p14
aS'int'
p15
aS'variable_4'
p16
aS';'
p17
aS'unsigned'
p18
aS'variable_5'
p19
ag17
aS'unsigned'
p20
aS'variable_6'
p21
ag17
aS'unsigned'
p22
aS'char'
p23
ag6
aS'variable_7'
p24
ag8
aS'variable_8'
p25
ag8
ag6
aS'variable_9'
p26
ag17
aS'int'
p27
aS'variable_10'
p28
ag17
aS'if'
p29
ag4
aS'variable_1'
p30
aS'=='
p31
aS'NULL'
p32
aS'||'
p33
aS'variable_1'
p34
aS'->'
p35
aS'variable_11'
p36
aS'!='
p37
aS'variable_12'
p38
aS'||'
p39
aS'variable_1'
p40
aS'->'
p41
aS'variable_6'
p42
aS'=='
p43
aS'0'
p44
ag14
aS'if'
p45
ag4
aS'!'
p46
aS'variable_1'
p47
aS'->'
p48
aS'variable_13'
p49
ag14
aS'variable_6'
p50
aS'='
p51
aS'variable_3'
p52
ag17
aS'variable_5'
p53
ag51
aS'variable_1'
p54
aS'->'
p55
aS'variable_14'
p56
aS'.'
p57
aS'variable_5'
p58
ag17
aS'while'
p59
ag4
aS'variable_6'
p60
aS'>'
p61
ag44
aS'&&'
p62
aS'variable_1'
p63
aS'->'
p64
aS'variable_6'
p65
ag61
ag44
ag14
aS'if'
p66
ag4
aS'variable_1'
p67
aS'->'
p68
aS'variable_10'
p69
aS'=='
p70
ag44
ag14
aS'if'
p71
ag4
aS'variable_6'
p72
aS'=='
p73
aS'variable_5'
p74
ag14
aS'variable_7'
p75
ag51
aS'variable_2'
p76
ag17
aS'variable_7'
p77
ag51
aS'variable_1'
p78
aS'->'
p79
aS'variable_15'
p80
ag17
aS'if'
p81
ag4
ag46
aS'func_1'
p82
ag4
aS'variable_1'
p83
ag8
aS'&'
p84
aS'variable_8'
p85
ag8
aS'1'
p86
ag14
ag14
aS'variable_1'
p87
aS'->'
p88
aS'variable_10'
p89
ag51
aS'variable_8'
p90
aS'+'
p91
ag86
ag17
aS'if'
p92
ag4
aS'variable_1'
p93
aS'->'
p94
aS'variable_10'
p95
ag61
ag86
ag14
aS'variable_7'
p96
ag51
aS'variable_1'
p97
aS'->'
p98
aS'variable_15'
p99
ag17
aS'variable_9'
p100
ag51
aS'variable_7'
p101
ag17
aS'variable_4'
p102
ag51
aS'variable_5'
p103
ag17
aS'while'
p104
ag4
aS'variable_4'
p105
ag61
ag44
ag14
aS'if'
p106
ag4
ag46
aS'func_2'
p107
ag4
aS'variable_1'
p108
ag8
ag84
aS'variable_8'
p109
ag8
ag86
ag14
ag14
aS'if'
p110
ag4
aS'variable_8'
p111
ag84
aS'128'
p112
ag14
aS'variable_10'
p113
ag51
ag4
aS'257'
p114
aS'-'
p115
aS'variable_8'
p116
ag14
ag6
aS'variable_1'
p117
aS'->'
p118
aS'variable_16'
p119
ag17
aS'if'
p120
ag4
aS'variable_10'
p121
ag61
aS'variable_4'
p122
ag14
aS'variable_10'
p123
ag51
aS'variable_4'
p124
ag17
aS'if'
p125
ag4
ag46
aS'func_3'
p126
ag4
aS'variable_1'
p127
ag8
aS'variable_9'
p128
ag8
aS'variable_10'
p129
ag14
ag14
aS'variable_9'
p130
aS'+='
p131
aS'variable_10'
p132
ag17
aS'variable_4'
p133
aS'-='
p134
aS'variable_10'
p135
ag17
aS'variable_10'
p136
ag51
ag4
aS'variable_8'
p137
ag91
ag86
ag14
ag6
aS'variable_1'
p138
aS'->'
p139
aS'variable_16'
p140
ag17
aS'if'
p141
ag4
aS'variable_10'
p142
ag61
aS'variable_4'
p143
ag14
aS'variable_10'
p144
ag51
aS'variable_4'
p145
ag17
aS'if'
p146
ag4
aS'variable_10'
p147
aS'<'
p148
aS'variable_1'
p149
aS'->'
p150
aS'variable_16'
p151
ag14
aS'variable_4'
p152
aS'-='
p153
aS'variable_10'
p154
ag17
aS'if'
p155
ag4
ag46
aS'func_4'
p156
ag4
aS'variable_1'
p157
ag8
aS'variable_9'
p158
ag8
aS'variable_1'
p159
aS'->'
p160
aS'variable_16'
p161
ag14
ag14
aS'variable_9'
p162
aS'+='
p163
aS'variable_1'
p164
aS'->'
p165
aS'variable_16'
p166
ag17
aS'variable_10'
p167
aS'-='
p168
aS'variable_1'
p169
aS'->'
p170
aS'variable_16'
p171
ag17
aS'while'
p172
ag4
aS'variable_10'
p173
ag61
ag44
ag14
aS'memcpy'
p174
ag4
aS'variable_9'
p175
ag8
aS'variable_9'
p176
ag115
aS'variable_1'
p177
aS'->'
p178
aS'variable_16'
p179
ag8
aS'variable_1'
p180
aS'->'
p181
aS'variable_16'
p182
ag14
ag17
aS'variable_9'
p183
aS'+='
p184
aS'variable_1'
p185
aS'->'
p186
aS'variable_16'
p187
ag17
aS'variable_10'
p188
aS'-='
p189
aS'variable_1'
p190
aS'->'
p191
aS'variable_16'
p192
ag17
aS'func_5'
p193
ag4
aS'variable_7'
p194
ag8
aS'variable_4'
p195
ag14
ag17
aS'if'
p196
ag4
aS'variable_6'
p197
ag61
ag51
aS'variable_5'
p198
ag14
aS'variable_4'
p199
ag51
aS'variable_5'
p200
ag17
aS'variable_1'
p201
aS'->'
p202
aS'variable_17'
p203
ag51
aS'variable_1'
p204
aS'->'
p205
aS'variable_15'
p206
ag17
aS'variable_1'
p207
aS'->'
p208
aS'variable_10'
p209
aS'--'
p210
ag17
aS'variable_1'
p211
aS'->'
p212
aS'variable_6'
p213
aS'--'
p214
ag17
aS'variable_4'
p215
ag51
aS'variable_6'
p216
ag17
aS'variable_1'
p217
aS'->'
p218
aS'variable_17'
p219
ag51
aS'variable_1'
p220
aS'->'
p221
aS'variable_15'
p222
ag91
aS'variable_4'
p223
ag17
aS'if'
p224
ag4
aS'variable_7'
p225
aS'!='
p226
aS'variable_2'
p227
ag14
aS'memcpy'
p228
ag4
aS'variable_2'
p229
ag8
aS'variable_7'
p230
ag8
aS'variable_4'
p231
ag14
ag17
aS'if'
p232
ag4
ag4
aS'variable_4'
p233
ag51
aS'variable_1'
p234
aS'->'
p235
aS'variable_18'
p236
ag115
aS'variable_1'
p237
aS'->'
p238
aS'variable_17'
p239
ag14
ag61
aS'variable_6'
p240
ag14
aS'variable_4'
p241
ag51
aS'variable_6'
p242
ag17
aS'memcpy'
p243
ag4
aS'variable_2'
p244
ag8
aS'variable_1'
p245
aS'->'
p246
aS'variable_17'
p247
ag8
aS'variable_4'
p248
ag14
ag17
aS'variable_1'
p249
aS'->'
p250
aS'variable_17'
p251
aS'+='
p252
aS'variable_4'
p253
ag17
aS'if'
p254
ag4
aS'variable_1'
p255
aS'->'
p256
aS'variable_17'
p257
ag61
ag51
aS'variable_1'
p258
aS'->'
p259
aS'variable_18'
p260
ag14
aS'variable_1'
p261
aS'->'
p262
aS'variable_17'
p263
ag51
aS'variable_1'
p264
aS'->'
p265
aS'variable_15'
p266
ag17
aS'variable_1'
p267
aS'->'
p268
aS'variable_10'
p269
aS'--'
p270
ag17
aS'variable_1'
p271
aS'->'
p272
aS'variable_6'
p273
aS'--'
p274
ag17
aS'variable_6'
p275
aS'-='
p276
aS'variable_4'
p277
ag17
aS'variable_2'
p278
aS'+='
p279
aS'variable_4'
p280
ag17
aa(lp281
S'func_0'
p282
ag4
aS'variable_0'
p283
ag6
aS'variable_1'
p284
ag8
aS'unsigned'
p285
aS'char'
p286
ag6
aS'variable_2'
p287
ag8
aS'unsigned'
p288
aS'variable_3'
p289
ag14
aS'int'
p290
aS'variable_4'
p291
ag17
aS'unsigned'
p292
aS'variable_5'
p293
ag17
aS'unsigned'
p294
aS'variable_6'
p295
ag17
aS'unsigned'
p296
aS'char'
p297
ag6
aS'variable_7'
p298
ag8
aS'variable_8'
p299
ag8
ag6
aS'variable_9'
p300
ag17
aS'int'
p301
aS'variable_10'
p302
ag17
aS'if'
p303
ag4
aS'variable_1'
p304
aS'=='
p305
aS'NULL'
p306
aS'||'
p307
aS'variable_1'
p308
aS'->'
p309
aS'variable_11'
p310
aS'!='
p311
aS'variable_12'
p312
aS'||'
p313
aS'variable_1'
p314
aS'->'
p315
aS'variable_6'
p316
aS'=='
p317
ag44
ag14
aS'if'
p318
ag4
ag46
aS'variable_1'
p319
aS'->'
p320
aS'variable_13'
p321
ag14
aS'variable_6'
p322
ag51
aS'variable_3'
p323
ag17
aS'variable_5'
p324
ag51
aS'variable_1'
p325
aS'->'
p326
aS'variable_14'
p327
ag57
aS'variable_5'
p328
ag17
aS'while'
p329
ag4
aS'variable_6'
p330
ag61
ag44
aS'&&'
p331
aS'variable_1'
p332
aS'->'
p333
aS'variable_6'
p334
ag61
ag44
ag14
aS'if'
p335
ag4
aS'variable_1'
p336
aS'->'
p337
aS'variable_10'
p338
aS'=='
p339
ag44
ag14
aS'if'
p340
ag4
aS'variable_6'
p341
aS'=='
p342
aS'variable_5'
p343
ag14
aS'variable_7'
p344
ag51
aS'variable_2'
p345
ag17
aS'variable_7'
p346
ag51
aS'variable_1'
p347
aS'->'
p348
aS'variable_15'
p349
ag17
aS'if'
p350
ag4
ag46
aS'func_1'
p351
ag4
aS'variable_1'
p352
ag8
ag84
aS'variable_8'
p353
ag8
ag86
ag14
ag14
aS'variable_1'
p354
aS'->'
p355
aS'variable_10'
p356
ag51
aS'variable_8'
p357
ag91
ag86
ag17
aS'if'
p358
ag4
aS'variable_1'
p359
aS'->'
p360
aS'variable_10'
p361
ag61
ag86
ag14
aS'variable_7'
p362
ag51
aS'variable_1'
p363
aS'->'
p364
aS'variable_15'
p365
ag17
aS'variable_9'
p366
ag51
aS'variable_7'
p367
ag17
aS'variable_4'
p368
ag51
aS'variable_5'
p369
ag17
aS'while'
p370
ag4
aS'variable_4'
p371
ag61
ag44
ag14
aS'if'
p372
ag4
ag46
aS'func_2'
p373
ag4
aS'variable_1'
p374
ag8
ag84
aS'variable_8'
p375
ag8
ag86
ag14
ag14
aS'if'
p376
ag4
aS'variable_8'
p377
ag84
aS'128'
p378
ag14
aS'variable_10'
p379
ag51
ag4
aS'257'
p380
ag115
aS'variable_8'
p381
ag14
ag6
aS'variable_1'
p382
aS'->'
p383
aS'variable_16'
p384
ag17
aS'if'
p385
ag4
aS'variable_10'
p386
ag61
aS'variable_4'
p387
ag14
aS'variable_10'
p388
ag51
aS'variable_4'
p389
ag17
aS'if'
p390
ag4
ag46
aS'func_3'
p391
ag4
aS'variable_1'
p392
ag8
aS'variable_9'
p393
ag8
aS'variable_10'
p394
ag14
ag14
aS'variable_9'
p395
aS'+='
p396
aS'variable_10'
p397
ag17
aS'variable_4'
p398
aS'-='
p399
aS'variable_10'
p400
ag17
aS'variable_10'
p401
ag51
ag4
aS'variable_8'
p402
ag91
ag86
ag14
ag6
aS'variable_1'
p403
aS'->'
p404
aS'variable_16'
p405
ag17
aS'if'
p406
ag4
aS'variable_10'
p407
ag61
aS'variable_4'
p408
ag14
aS'variable_10'
p409
ag51
aS'variable_4'
p410
ag17
aS'if'
p411
ag4
aS'variable_10'
p412
ag148
aS'variable_1'
p413
aS'->'
p414
aS'variable_16'
p415
ag14
aS'variable_4'
p416
aS'-='
p417
aS'variable_10'
p418
ag17
aS'if'
p419
ag4
ag46
aS'func_4'
p420
ag4
aS'variable_1'
p421
ag8
aS'variable_9'
p422
ag8
aS'variable_1'
p423
aS'->'
p424
aS'variable_16'
p425
ag14
ag14
aS'variable_9'
p426
aS'+='
p427
aS'variable_1'
p428
aS'->'
p429
aS'variable_16'
p430
ag17
aS'variable_10'
p431
aS'-='
p432
aS'variable_1'
p433
aS'->'
p434
aS'variable_16'
p435
ag17
aS'while'
p436
ag4
aS'variable_10'
p437
ag61
ag44
ag14
aS'memcpy'
p438
ag4
aS'variable_9'
p439
ag8
aS'variable_9'
p440
ag115
aS'variable_1'
p441
aS'->'
p442
aS'variable_16'
p443
ag8
aS'variable_1'
p444
aS'->'
p445
aS'variable_16'
p446
ag14
ag17
aS'variable_9'
p447
aS'+='
p448
aS'variable_1'
p449
aS'->'
p450
aS'variable_16'
p451
ag17
aS'variable_10'
p452
aS'-='
p453
aS'variable_1'
p454
aS'->'
p455
aS'variable_16'
p456
ag17
aS'if'
p457
ag4
aS'variable_6'
p458
ag61
ag51
aS'variable_5'
p459
ag14
aS'variable_4'
p460
ag51
aS'variable_5'
p461
ag17
aS'variable_1'
p462
aS'->'
p463
aS'variable_17'
p464
ag51
aS'variable_1'
p465
aS'->'
p466
aS'variable_15'
p467
ag17
aS'variable_1'
p468
aS'->'
p469
aS'variable_10'
p470
aS'--'
p471
ag17
aS'variable_1'
p472
aS'->'
p473
aS'variable_6'
p474
aS'--'
p475
ag17
aS'variable_4'
p476
ag51
aS'variable_6'
p477
ag17
aS'variable_1'
p478
aS'->'
p479
aS'variable_17'
p480
ag51
aS'variable_1'
p481
aS'->'
p482
aS'variable_15'
p483
ag91
aS'variable_4'
p484
ag17
aS'if'
p485
ag4
aS'variable_7'
p486
aS'!='
p487
aS'variable_2'
p488
ag14
aS'memcpy'
p489
ag4
aS'variable_2'
p490
ag8
aS'variable_7'
p491
ag8
aS'variable_4'
p492
ag14
ag17
aS'if'
p493
ag4
ag4
aS'variable_4'
p494
ag51
aS'variable_1'
p495
aS'->'
p496
aS'variable_18'
p497
ag115
aS'variable_1'
p498
aS'->'
p499
aS'variable_17'
p500
ag14
ag61
aS'variable_6'
p501
ag14
aS'variable_4'
p502
ag51
aS'variable_6'
p503
ag17
aS'memcpy'
p504
ag4
aS'variable_2'
p505
ag8
aS'variable_1'
p506
aS'->'
p507
aS'variable_17'
p508
ag8
aS'variable_4'
p509
ag14
ag17
aS'variable_1'
p510
aS'->'
p511
aS'variable_17'
p512
aS'+='
p513
aS'variable_4'
p514
ag17
aS'if'
p515
ag4
aS'variable_1'
p516
aS'->'
p517
aS'variable_17'
p518
ag61
ag51
aS'variable_1'
p519
aS'->'
p520
aS'variable_18'
p521
ag14
aS'variable_1'
p522
aS'->'
p523
aS'variable_17'
p524
ag51
aS'variable_1'
p525
aS'->'
p526
aS'variable_15'
p527
ag17
aS'variable_1'
p528
aS'->'
p529
aS'variable_10'
p530
aS'--'
p531
ag17
aS'variable_1'
p532
aS'->'
p533
aS'variable_6'
p534
aS'--'
p535
ag17
aS'variable_6'
p536
aS'-='
p537
aS'variable_4'
p538
ag17
aS'variable_2'
p539
aS'+='
p540
aS'variable_4'
p541
ag17
aa(lp542
S'func_0'
p543
ag4
aS'variable_0'
p544
ag6
aS'variable_1'
p545
ag8
aS'unsigned'
p546
aS'char'
p547
ag6
aS'variable_2'
p548
ag8
aS'unsigned'
p549
aS'variable_3'
p550
ag14
aS'int'
p551
aS'variable_4'
p552
ag17
aS'unsigned'
p553
aS'variable_5'
p554
ag17
aS'unsigned'
p555
aS'variable_6'
p556
ag17
aS'unsigned'
p557
aS'char'
p558
ag6
aS'variable_7'
p559
ag8
aS'variable_8'
p560
ag8
ag6
aS'variable_9'
p561
ag17
aS'int'
p562
aS'variable_10'
p563
ag17
aS'if'
p564
ag4
aS'variable_1'
p565
aS'=='
p566
aS'NULL'
p567
aS'||'
p568
aS'variable_1'
p569
aS'->'
p570
aS'variable_11'
p571
aS'!='
p572
aS'variable_12'
p573
aS'||'
p574
aS'variable_1'
p575
aS'->'
p576
aS'variable_6'
p577
aS'=='
p578
ag44
ag14
aS'if'
p579
ag4
ag46
aS'variable_1'
p580
aS'->'
p581
aS'variable_13'
p582
ag14
aS'variable_6'
p583
ag51
aS'variable_3'
p584
ag17
aS'variable_5'
p585
ag51
aS'variable_1'
p586
aS'->'
p587
aS'variable_14'
p588
ag57
aS'variable_5'
p589
ag17
aS'while'
p590
ag4
aS'variable_6'
p591
ag61
ag44
aS'&&'
p592
aS'variable_1'
p593
aS'->'
p594
aS'variable_6'
p595
ag61
ag44
ag14
aS'if'
p596
ag4
aS'variable_1'
p597
aS'->'
p598
aS'variable_10'
p599
aS'=='
p600
ag44
ag14
aS'if'
p601
ag4
aS'variable_6'
p602
aS'=='
p603
aS'variable_5'
p604
ag14
aS'variable_7'
p605
ag51
aS'variable_2'
p606
ag17
aS'variable_7'
p607
ag51
aS'variable_1'
p608
aS'->'
p609
aS'variable_15'
p610
ag17
aS'if'
p611
ag4
ag46
aS'func_1'
p612
ag4
aS'variable_1'
p613
ag8
ag84
aS'variable_8'
p614
ag8
ag86
ag14
ag14
aS'variable_1'
p615
aS'->'
p616
aS'variable_10'
p617
ag51
aS'variable_8'
p618
ag91
ag86
ag17
aS'if'
p619
ag4
aS'variable_1'
p620
aS'->'
p621
aS'variable_10'
p622
ag61
ag86
ag14
aS'variable_7'
p623
ag51
aS'variable_1'
p624
aS'->'
p625
aS'variable_15'
p626
ag17
aS'variable_9'
p627
ag51
aS'variable_7'
p628
ag17
aS'variable_4'
p629
ag51
aS'variable_5'
p630
ag17
aS'while'
p631
ag4
aS'variable_4'
p632
ag61
ag44
ag14
aS'if'
p633
ag4
ag46
aS'func_2'
p634
ag4
aS'variable_1'
p635
ag8
ag84
aS'variable_8'
p636
ag8
ag86
ag14
ag14
aS'if'
p637
ag4
aS'variable_8'
p638
ag84
aS'128'
p639
ag14
aS'variable_10'
p640
ag51
ag4
aS'257'
p641
ag115
aS'variable_8'
p642
ag14
ag6
aS'variable_1'
p643
aS'->'
p644
aS'variable_16'
p645
ag17
aS'if'
p646
ag4
aS'variable_10'
p647
ag61
aS'variable_4'
p648
ag14
aS'variable_10'
p649
ag51
aS'variable_4'
p650
ag17
aS'if'
p651
ag4
ag46
aS'func_3'
p652
ag4
aS'variable_1'
p653
ag8
aS'variable_9'
p654
ag8
aS'variable_10'
p655
ag14
ag14
aS'variable_9'
p656
aS'+='
p657
aS'variable_10'
p658
ag17
aS'variable_4'
p659
aS'-='
p660
aS'variable_10'
p661
ag17
aS'variable_10'
p662
ag51
ag4
aS'variable_8'
p663
ag91
ag86
ag14
ag6
aS'variable_1'
p664
aS'->'
p665
aS'variable_16'
p666
ag17
aS'if'
p667
ag4
aS'variable_10'
p668
ag61
aS'variable_4'
p669
ag14
aS'variable_10'
p670
ag51
aS'variable_4'
p671
ag17
aS'if'
p672
ag4
aS'variable_10'
p673
ag148
aS'variable_1'
p674
aS'->'
p675
aS'variable_16'
p676
ag14
aS'variable_4'
p677
aS'-='
p678
aS'variable_10'
p679
ag17
aS'if'
p680
ag4
ag46
aS'func_4'
p681
ag4
aS'variable_1'
p682
ag8
aS'variable_9'
p683
ag8
aS'variable_1'
p684
aS'->'
p685
aS'variable_16'
p686
ag14
ag14
aS'variable_9'
p687
aS'+='
p688
aS'variable_1'
p689
aS'->'
p690
aS'variable_16'
p691
ag17
aS'variable_10'
p692
aS'-='
p693
aS'variable_1'
p694
aS'->'
p695
aS'variable_16'
p696
ag17
aS'while'
p697
ag4
aS'variable_10'
p698
ag61
ag44
ag14
aS'memcpy'
p699
ag4
aS'variable_9'
p700
ag8
aS'variable_9'
p701
ag115
aS'variable_1'
p702
aS'->'
p703
aS'variable_16'
p704
ag8
aS'variable_1'
p705
aS'->'
p706
aS'variable_16'
p707
ag14
ag17
aS'variable_9'
p708
aS'+='
p709
aS'variable_1'
p710
aS'->'
p711
aS'variable_16'
p712
ag17
aS'variable_10'
p713
aS'-='
p714
aS'variable_1'
p715
aS'->'
p716
aS'variable_16'
p717
ag17
aS'if'
p718
ag4
aS'variable_6'
p719
ag61
ag51
aS'variable_5'
p720
ag14
aS'variable_4'
p721
ag51
aS'variable_5'
p722
ag17
aS'variable_1'
p723
aS'->'
p724
aS'variable_17'
p725
ag51
aS'variable_1'
p726
aS'->'
p727
aS'variable_15'
p728
ag17
aS'variable_1'
p729
aS'->'
p730
aS'variable_10'
p731
aS'--'
p732
ag17
aS'variable_1'
p733
aS'->'
p734
aS'variable_6'
p735
aS'--'
p736
ag17
aS'variable_4'
p737
ag51
aS'variable_6'
p738
ag17
aS'variable_1'
p739
aS'->'
p740
aS'variable_17'
p741
ag51
aS'variable_1'
p742
aS'->'
p743
aS'variable_15'
p744
ag91
aS'variable_4'
p745
ag17
aS'if'
p746
ag4
ag4
aS'variable_4'
p747
ag51
aS'variable_1'
p748
aS'->'
p749
aS'variable_18'
p750
ag115
aS'variable_1'
p751
aS'->'
p752
aS'variable_17'
p753
ag14
ag61
aS'variable_6'
p754
ag14
aS'variable_4'
p755
ag51
aS'variable_6'
p756
ag17
aS'memcpy'
p757
ag4
aS'variable_2'
p758
ag8
aS'variable_1'
p759
aS'->'
p760
aS'variable_17'
p761
ag8
aS'variable_4'
p762
ag14
ag17
aS'variable_1'
p763
aS'->'
p764
aS'variable_17'
p765
aS'+='
p766
aS'variable_4'
p767
ag17
aS'if'
p768
ag4
aS'variable_1'
p769
aS'->'
p770
aS'variable_17'
p771
ag61
ag51
aS'variable_1'
p772
aS'->'
p773
aS'variable_18'
p774
ag14
aS'variable_1'
p775
aS'->'
p776
aS'variable_17'
p777
ag51
aS'variable_1'
p778
aS'->'
p779
aS'variable_15'
p780
ag17
aS'variable_1'
p781
aS'->'
p782
aS'variable_10'
p783
aS'--'
p784
ag17
aS'variable_1'
p785
aS'->'
p786
aS'variable_6'
p787
aS'--'
p788
ag17
aS'variable_6'
p789
aS'-='
p790
aS'variable_4'
p791
ag17
aS'variable_2'
p792
aS'+='
p793
aS'variable_4'
p794
ag17
aaa(lp795
I1
aI1
aI1
aa(lp796
I396
aI360
aI285
aa(lp797
(lp798
S'main'
p799
aa(lp800
g799
aa(lp801
g799
aaa(lp802
S'622 /home/SySeVR/data/CVE_2014_9679_VULN_cupsRasterReadPixels.c memcpy 182'
p803
aS'623 /home/SySeVR/data/CVE_2014_9679_VULN_cupsRasterReadPixels.c memcpy 171'
p804
aS'624 /home/SySeVR/data/CVE_2014_9679_VULN_cupsRasterReadPixels.c memcpy 132'
p805
aa.