(lp0
(lp1
(lp2
S'func_0'
p3
aS'('
p4
aS'variable_0'
p5
aS'*'
p6
aS'variable_1'
p7
aS','
p8
aS'unsigned'
p9
aS'char'
p10
ag6
aS'variable_2'
p11
ag8
aS'unsigned'
p12
aS'variable_3'
p13
aS')'
p14
aS'int'
p15
aS'variable_4'
p16
aS';'
p17
aS'unsigned'
p18
aS'variable_5'
p19
ag17
aS'unsigned'
p20
aS'variable_6'
p21
ag17
aS'unsigned'
p22
aS'char'
p23
ag6
aS'variable_7'
p24
ag8
aS'variable_8'
p25
ag8
ag6
aS'variable_9'
p26
ag17
aS'int'
p27
aS'variable_10'
p28
ag17
aS'if'
p29
ag4
aS'variable_1'
p30
aS'=='
p31
aS'NULL'
p32
aS'||'
p33
aS'variable_1'
p34
aS'->'
p35
aS'variable_11'
p36
aS'!='
p37
aS'variable_12'
p38
aS'||'
p39
aS'variable_1'
p40
aS'->'
p41
aS'variable_6'
p42
aS'=='
p43
aS'0'
p44
ag14
aS'if'
p45
ag4
aS'!'
p46
aS'variable_1'
p47
aS'->'
p48
aS'variable_13'
p49
ag14
aS'variable_6'
p50
aS'='
p51
aS'variable_3'
p52
ag17
aS'variable_5'
p53
ag51
aS'variable_1'
p54
aS'->'
p55
aS'variable_14'
p56
aS'.'
p57
aS'variable_5'
p58
ag17
aS'while'
p59
ag4
aS'variable_6'
p60
aS'>'
p61
ag44
aS'&&'
p62
aS'variable_1'
p63
aS'->'
p64
aS'variable_6'
p65
ag61
ag44
ag14
aS'if'
p66
ag4
aS'variable_1'
p67
aS'->'
p68
aS'variable_10'
p69
aS'=='
p70
ag44
ag14
aS'if'
p71
ag4
aS'variable_6'
p72
aS'=='
p73
aS'variable_5'
p74
ag14
aS'variable_7'
p75
ag51
aS'variable_2'
p76
ag17
aS'variable_7'
p77
ag51
aS'variable_1'
p78
aS'->'
p79
aS'variable_15'
p80
ag17
aS'if'
p81
ag4
ag46
aS'func_1'
p82
ag4
aS'variable_1'
p83
ag8
aS'&'
p84
aS'variable_8'
p85
ag8
aS'1'
p86
ag14
ag14
aS'variable_1'
p87
aS'->'
p88
aS'variable_10'
p89
ag51
aS'variable_8'
p90
aS'+'
p91
ag86
ag17
aS'if'
p92
ag4
aS'variable_1'
p93
aS'->'
p94
aS'variable_10'
p95
ag61
ag86
ag14
aS'variable_7'
p96
ag51
aS'variable_1'
p97
aS'->'
p98
aS'variable_15'
p99
ag17
aS'variable_9'
p100
ag51
aS'variable_7'
p101
ag17
aS'variable_4'
p102
ag51
aS'variable_5'
p103
ag17
aS'while'
p104
ag4
aS'variable_4'
p105
ag61
ag44
ag14
aS'if'
p106
ag4
ag46
aS'func_2'
p107
ag4
aS'variable_1'
p108
ag8
ag84
aS'variable_8'
p109
ag8
ag86
ag14
ag14
aS'if'
p110
ag4
aS'variable_8'
p111
ag84
aS'128'
p112
ag14
aS'variable_10'
p113
ag51
ag4
aS'257'
p114
aS'-'
p115
aS'variable_8'
p116
ag14
ag6
aS'variable_1'
p117
aS'->'
p118
aS'variable_16'
p119
ag17
aS'if'
p120
ag4
aS'variable_10'
p121
ag61
aS'variable_4'
p122
ag14
aS'variable_10'
p123
ag51
aS'variable_4'
p124
ag17
aS'if'
p125
ag4
ag46
aS'func_3'
p126
ag4
aS'variable_1'
p127
ag8
aS'variable_9'
p128
ag8
aS'variable_10'
p129
ag14
ag14
aS'variable_9'
p130
aS'+='
p131
aS'variable_10'
p132
ag17
aS'variable_4'
p133
aS'-='
p134
aS'variable_10'
p135
ag17
aS'variable_10'
p136
ag51
ag4
aS'variable_8'
p137
ag91
ag86
ag14
ag6
aS'variable_1'
p138
aS'->'
p139
aS'variable_16'
p140
ag17
aS'if'
p141
ag4
aS'variable_10'
p142
ag61
aS'variable_4'
p143
ag14
aS'variable_10'
p144
ag51
aS'variable_4'
p145
ag17
aS'if'
p146
ag4
aS'variable_10'
p147
aS'<'
p148
aS'variable_1'
p149
aS'->'
p150
aS'variable_16'
p151
ag14
aS'variable_4'
p152
aS'-='
p153
aS'variable_10'
p154
ag17
aS'if'
p155
ag4
ag46
aS'func_4'
p156
ag4
aS'variable_1'
p157
ag8
aS'variable_9'
p158
ag8
aS'variable_1'
p159
aS'->'
p160
aS'variable_16'
p161
ag14
ag14
aS'variable_9'
p162
aS'+='
p163
aS'variable_1'
p164
aS'->'
p165
aS'variable_16'
p166
ag17
aS'variable_10'
p167
aS'-='
p168
aS'variable_1'
p169
aS'->'
p170
aS'variable_16'
p171
ag17
aS'while'
p172
ag4
aS'variable_10'
p173
ag61
ag44
ag14
aS'memcpy'
p174
ag4
aS'variable_9'
p175
ag8
aS'variable_9'
p176
ag115
aS'variable_1'
p177
aS'->'
p178
aS'variable_16'
p179
ag8
aS'variable_1'
p180
aS'->'
p181
aS'variable_16'
p182
ag14
ag17
aS'variable_9'
p183
aS'+='
p184
aS'variable_1'
p185
aS'->'
p186
aS'variable_16'
p187
ag17
aS'variable_10'
p188
aS'-='
p189
aS'variable_1'
p190
aS'->'
p191
aS'variable_16'
p192
ag17
aS'func_5'
p193
ag4
aS'variable_7'
p194
ag8
aS'variable_4'
p195
ag14
ag17
aS'if'
p196
ag4
aS'variable_6'
p197
ag61
ag51
aS'variable_5'
p198
ag14
aS'variable_4'
p199
ag51
aS'variable_5'
p200
ag17
aS'variable_1'
p201
aS'->'
p202
aS'variable_17'
p203
ag51
aS'variable_1'
p204
aS'->'
p205
aS'variable_15'
p206
ag17
aS'variable_1'
p207
aS'->'
p208
aS'variable_10'
p209
aS'--'
p210
ag17
aS'variable_1'
p211
aS'->'
p212
aS'variable_6'
p213
aS'--'
p214
ag17
aS'variable_4'
p215
ag51
aS'variable_6'
p216
ag17
aS'variable_1'
p217
aS'->'
p218
aS'variable_17'
p219
ag51
aS'variable_1'
p220
aS'->'
p221
aS'variable_15'
p222
ag91
aS'variable_4'
p223
ag17
aS'if'
p224
ag4
aS'variable_7'
p225
aS'!='
p226
aS'variable_2'
p227
ag14
aS'memcpy'
p228
ag4
aS'variable_2'
p229
ag8
aS'variable_7'
p230
ag8
aS'variable_4'
p231
ag14
ag17
aS'if'
p232
ag4
ag4
aS'variable_4'
p233
ag51
aS'variable_1'
p234
aS'->'
p235
aS'variable_18'
p236
ag115
aS'variable_1'
p237
aS'->'
p238
aS'variable_17'
p239
ag14
ag61
aS'variable_6'
p240
ag14
aS'variable_4'
p241
ag51
aS'variable_6'
p242
ag17
aS'memcpy'
p243
ag4
aS'variable_2'
p244
ag8
aS'variable_1'
p245
aS'->'
p246
aS'variable_17'
p247
ag8
aS'variable_4'
p248
ag14
ag17
aS'variable_1'
p249
aS'->'
p250
aS'variable_17'
p251
aS'+='
p252
aS'variable_4'
p253
ag17
aS'if'
p254
ag4
aS'variable_1'
p255
aS'->'
p256
aS'variable_17'
p257
ag61
ag51
aS'variable_1'
p258
aS'->'
p259
aS'variable_18'
p260
ag14
aS'variable_1'
p261
aS'->'
p262
aS'variable_17'
p263
ag51
aS'variable_1'
p264
aS'->'
p265
aS'variable_15'
p266
ag17
aS'variable_1'
p267
aS'->'
p268
aS'variable_10'
p269
aS'--'
p270
ag17
aS'variable_1'
p271
aS'->'
p272
aS'variable_6'
p273
aS'--'
p274
ag17
aS'variable_6'
p275
aS'-='
p276
aS'variable_4'
p277
ag17
aS'variable_2'
p278
aS'+='
p279
aS'variable_4'
p280
ag17
aaa(lp281
I0
aa(lp282
I359
aa(lp283
(lp284
S'main'
p285
aaa(lp286
S'664 /home/SySeVR/data/CVE_2014_9679_VULN_cupsRasterReadPixels.c r -> pcurrent = r -> pixels + bytes 163'
p287
aa.