(lp0
(lp1
(lp2
S'static'
p3
aS'void'
p4
aS'func_0'
p5
aS'('
p6
aS'struct'
p7
aS'variable_0'
p8
aS'*'
p9
aS'variable_1'
p10
aS','
p11
aS'struct'
p12
aS'variable_2'
p13
ag9
aS'variable_3'
p14
aS')'
p15
aS'const'
p16
aS'char'
p17
ag9
aS'variable_4'
p18
aS'='
p19
aS'func_1'
p20
ag6
aS'variable_3'
p21
ag11
aS'"'
p22
aS'Content'
p23
aS'-'
p24
aS'Type'
p25
ag22
ag15
aS';'
p26
aS'if'
p27
ag6
aS'!'
p28
aS'func_2'
p29
ag6
aS'variable_4'
p30
ag11
ag22
aS'application'
p31
aS'/'
p32
aS'dtmf'
p33
ag24
aS'relay'
p34
ag22
ag15
aS'||'
p35
ag28
aS'func_3'
p36
ag6
aS'variable_4'
p37
ag11
ag22
aS'application'
p38
ag32
aS'vnd'
p39
aS'.'
p40
aS'nortelnetworks'
p41
ag40
aS'digits'
p42
ag22
ag15
ag15
aS'if'
p43
ag6
ag28
aS'func_4'
p44
ag6
aS'variable_4'
p45
ag11
ag22
aS'application'
p46
ag32
aS'dtmf'
p47
ag22
ag15
ag15
aS'if'
p48
ag6
ag28
aS'func_5'
p49
ag6
aS'variable_4'
p50
ag11
ag22
aS'application'
p51
ag32
aS'media_control'
p52
aS'+'
p53
aS'xml'
p54
ag22
ag15
ag15
aS'if'
p55
ag6
ag28
aS'func_6'
p56
ag6
aS'variable_4'
p57
ag19
aS'func_7'
p58
ag6
aS'variable_3'
p59
ag11
ag22
aS'X'
p60
ag24
aS'ClientCode'
p61
ag22
ag15
ag15
ag15
aS'if'
p62
ag6
ag28
aS'func_8'
p63
ag6
aS'variable_4'
p64
ag19
aS'func_9'
p65
ag6
aS'variable_3'
p66
ag11
ag22
aS'Record'
p67
ag22
ag15
ag15
ag15
aS'struct'
p68
aS'variable_5'
p69
ag9
aS'variable_6'
p70
ag26
aS'int'
p71
aS'variable_7'
p72
ag26
aS'if'
p73
ag6
ag28
aS'variable_1'
p74
aS'->'
p75
aS'variable_8'
p76
ag15
aS'variable_6'
p77
ag19
aS'func_10'
p78
ag6
ag22
aS'automon'
p79
ag22
ag15
ag26
aS'if'
p80
ag6
ag28
aS'variable_6'
p81
aS'||'
p82
aS'func_11'
p83
ag6
aS'variable_6'
p84
aS'->'
p85
aS'variable_9'
p86
ag15
ag15
aS'for'
p87
ag6
aS'variable_7'
p88
ag19
aS'0'
p89
ag26
aS'variable_7'
p90
aS'<'
p91
aS'strlen'
p92
ag6
aS'variable_6'
p93
aS'->'
p94
aS'variable_9'
p95
ag15
ag26
aS'variable_7'
p96
aS'++'
p97
ag15
aaa(lp98
I0
aa(lp99
I172
aa(lp100
(lp101
S'main'
p102
aaa(lp103
S'254 /home/SySeVR/data/CVE_2011_4598_PATCHED_handle_request_info.c strlen 165'
p104
aa.