(lp0
(lp1
(lp2
S'int'
p3
aS'func_0'
p4
aS'('
p5
aS'variable_0'
p6
aS'*'
p7
aS'variable_1'
p8
aS','
p9
aS'unsigned'
p10
aS'char'
p11
ag7
ag7
aS'variable_2'
p12
ag9
aS'unsigned'
p13
aS'char'
p14
ag7
aS'variable_3'
p15
ag9
aS'int'
p16
aS'variable_4'
p17
ag9
aS'int'
p18
ag7
aS'variable_5'
p19
aS')'
p20
aS'unsigned'
p21
aS'short'
p22
aS'variable_6'
p23
aS';'
p24
aS'unsigned'
p25
aS'short'
p26
aS'variable_7'
p27
ag24
aS'unsigned'
p28
aS'short'
p29
aS'variable_8'
p30
ag24
aS'unsigned'
p31
aS'char'
p32
ag7
aS'variable_9'
p33
aS'='
p34
ag7
aS'variable_2'
p35
ag24
aS'variable_1'
p36
aS'->'
p37
aS'variable_10'
p38
aS'->'
p39
aS'variable_11'
p40
ag34
aS'0'
p41
ag24
aS'variable_1'
p42
aS'->'
p43
aS'variable_12'
p44
aS'&'
p45
ag34
aS'~'
p46
ag5
aS'variable_13'
p47
aS'|'
p48
aS'variable_14'
p49
ag20
ag24
aS'if'
p50
ag5
aS'variable_9'
p51
aS'>'
p52
ag34
ag5
aS'variable_3'
p53
aS'+'
p54
aS'variable_4'
p55
aS'-'
p56
aS'2'
p57
ag20
ag20
aS'if'
p58
ag5
aS'variable_9'
p59
ag54
aS'variable_6'
p60
aS'!='
p61
aS'variable_3'
p62
ag54
aS'variable_4'
p63
ag20
aS'while'
p64
ag5
aS'variable_9'
p65
aS'<'
p66
ag34
ag5
aS'variable_3'
p67
ag54
aS'variable_4'
p68
ag56
aS'4'
p69
ag20
ag20
aS'if'
p70
ag5
aS'variable_9'
p71
ag54
aS'variable_8'
p72
ag52
ag5
aS'variable_3'
p73
ag54
aS'variable_4'
p74
ag20
ag20
aS'if'
p75
ag5
aS'variable_1'
p76
aS'->'
p77
aS'variable_15'
p78
ag20
aS'variable_1'
p79
aS'->'
p80
aS'func_1'
p81
ag5
aS'variable_1'
p82
ag9
aS'1'
p83
ag9
aS'variable_7'
p84
ag9
aS'variable_9'
p85
ag9
aS'variable_8'
p86
ag9
aS'variable_1'
p87
aS'->'
p88
aS'variable_16'
p89
ag20
ag24
aS'if'
p90
ag5
aS'variable_7'
p91
aS'=='
p92
aS'variable_17'
p93
ag20
aS'if'
p94
ag5
aS'variable_1'
p95
aS'->'
p96
aS'variable_18'
p97
aS'=='
p98
aS'NULL'
p99
aS'||'
p100
aS'variable_8'
p101
ag52
ag41
ag20
aS'if'
p102
ag5
aS'variable_7'
p103
aS'=='
p104
aS'variable_19'
p105
aS'&&'
p106
aS'variable_1'
p107
aS'->'
p108
aS'variable_20'
p109
aS'!='
p110
aS'variable_21'
p111
ag20
aS'unsigned'
p112
aS'char'
p113
ag7
aS'variable_22'
p114
ag34
aS'variable_9'
p115
ag24
aS'int'
p116
aS'variable_23'
p117
ag34
ag7
ag5
aS'variable_22'
p118
aS'++'
p119
ag20
ag24
aS'if'
p120
ag5
aS'variable_23'
p121
aS'!='
p122
aS'variable_8'
p123
ag56
ag83
ag20
aS'if'
p124
ag5
aS'!'
p125
aS'variable_1'
p126
aS'->'
p127
aS'variable_24'
p128
ag20
aS'variable_1'
p129
aS'->'
p130
aS'variable_25'
p131
aS'->'
p132
aS'variable_26'
p133
ag34
ag41
ag24
aS'if'
p134
ag5
aS'variable_1'
p135
aS'->'
p136
aS'variable_25'
p137
aS'->'
p138
aS'variable_27'
p139
aS'!='
p140
aS'NULL'
p141
ag20
aS'func_2'
p142
ag5
aS'variable_1'
p143
aS'->'
p144
aS'variable_25'
p145
aS'->'
p146
aS'variable_27'
p147
ag20
ag24
aS'if'
p148
ag5
ag5
aS'variable_1'
p149
aS'->'
p150
aS'variable_25'
p151
aS'->'
p152
aS'variable_27'
p153
ag34
aS'func_3'
p154
ag5
aS'variable_23'
p155
ag20
ag20
aS'=='
p156
aS'NULL'
p157
ag20
aS'variable_1'
p158
aS'->'
p159
aS'variable_25'
p160
aS'->'
p161
aS'variable_26'
p162
ag34
aS'variable_23'
p163
ag24
aS'memcpy'
p164
ag5
aS'variable_1'
p165
aS'->'
p166
aS'variable_25'
p167
aS'->'
p168
aS'variable_27'
p169
ag9
aS'variable_22'
p170
ag9
aS'variable_23'
p171
ag20
ag24
aS'variable_22'
p172
ag34
aS'variable_1'
p173
aS'->'
p174
aS'variable_25'
p175
aS'->'
p176
aS'variable_27'
p177
ag24
aS'for'
p178
ag5
aS'variable_28'
p179
ag34
ag41
ag24
aS'variable_28'
p180
ag66
aS'variable_1'
p181
aS'->'
p182
aS'variable_25'
p183
aS'->'
p184
aS'variable_26'
p185
ag24
aS'variable_28'
p186
aS'++'
p187
ag20
aS'fprintf'
p188
ag5
aS'variable_29'
p189
ag9
aS'"'
p190
aS'%'
p191
aS'i'
p192
ag190
ag9
ag7
ag5
aS'variable_22'
p193
aS'++'
p194
ag20
ag20
ag24
aS'if'
p195
ag5
aS'variable_7'
p196
aS'=='
p197
aS'variable_30'
p198
ag20
aS'if'
p199
ag5
aS'variable_1'
p200
aS'->'
p201
aS'variable_31'
p202
aS'&&'
p203
ag125
aS'variable_1'
p204
aS'->'
p205
aS'func_4'
p206
ag5
aS'variable_1'
p207
ag9
aS'variable_9'
p208
ag9
aS'variable_8'
p209
ag9
aS'variable_1'
p210
aS'->'
p211
aS'variable_32'
p212
ag20
ag20
aS'if'
p213
ag5
ag5
aS'func_5'
p214
ag5
aS'variable_1'
p215
ag20
ag45
aS'variable_33'
p216
ag20
aS'||'
p217
ag5
aS'variable_8'
p218
ag52
ag41
ag20
ag20
aS'variable_1'
p219
aS'->'
p220
aS'variable_34'
p221
ag34
ag83
ag24
aS'if'
p222
ag5
aS'variable_7'
p223
aS'=='
p224
aS'variable_35'
p225
aS'&&'
p226
aS'variable_1'
p227
aS'->'
p228
aS'variable_20'
p229
aS'!='
p230
aS'variable_21'
p231
ag20
aS'unsigned'
p232
aS'char'
p233
ag7
aS'variable_22'
p234
ag34
aS'variable_9'
p235
ag24
aS'if'
p236
ag5
aS'variable_8'
p237
ag66
ag57
ag20
aS'func_6'
p238
ag5
aS'variable_22'
p239
ag9
aS'variable_1'
p240
aS'->'
p241
aS'variable_10'
p242
aS'->'
p243
aS'variable_36'
p244
ag20
ag24
aS'if'
p245
ag5
aS'variable_1'
p246
aS'->'
p247
aS'variable_10'
p248
aS'->'
p249
aS'variable_36'
p250
aS'!='
p251
aS'variable_8'
p252
ag56
ag57
ag20
aS'if'
p253
ag5
aS'variable_1'
p254
aS'->'
p255
aS'variable_10'
p256
aS'->'
p257
aS'variable_37'
p258
aS'!='
p259
aS'NULL'
p260
ag20
aS'func_7'
p261
ag5
aS'variable_1'
p262
aS'->'
p263
aS'variable_10'
p264
aS'->'
p265
aS'variable_37'
p266
ag20
ag24
aS'if'
p267
ag5
aS'variable_1'
p268
aS'->'
p269
aS'variable_10'
p270
aS'->'
p271
aS'variable_36'
p272
aS'=='
p273
ag41
ag20
aS'variable_1'
p274
aS'->'
p275
aS'variable_10'
p276
aS'->'
p277
aS'variable_37'
p278
ag34
aS'func_8'
p279
ag5
ag83
ag20
ag24
aS'variable_1'
p280
aS'->'
p281
aS'variable_10'
p282
aS'->'
p283
aS'variable_37'
p284
ag34
aS'func_9'
p285
ag5
aS'variable_22'
p286
ag9
aS'variable_1'
p287
aS'->'
p288
aS'variable_10'
p289
aS'->'
p290
aS'variable_36'
p291
ag20
ag24
aS'if'
p292
ag5
aS'variable_1'
p293
aS'->'
p294
aS'variable_10'
p295
aS'->'
p296
aS'variable_37'
p297
aS'=='
p298
aS'NULL'
p299
ag20
aS'if'
p300
ag5
aS'variable_7'
p301
aS'=='
p302
aS'variable_38'
p303
aS'&&'
p304
aS'variable_1'
p305
aS'->'
p306
aS'variable_20'
p307
aS'!='
p308
aS'variable_21'
p309
ag20
aS'if'
p310
ag5
ag5
aS'variable_1'
p311
aS'->'
p312
aS'variable_39'
p313
aS'=='
p314
ag56
ag83
ag20
aS'||'
p315
ag5
aS'variable_8'
p316
ag52
ag41
ag20
ag20
aS'variable_1'
p317
aS'->'
p318
aS'variable_40'
p319
ag34
ag83
ag24
aS'if'
p320
ag5
aS'variable_7'
p321
aS'=='
p322
aS'variable_41'
p323
aS'&&'
p324
aS'variable_1'
p325
aS'->'
p326
aS'variable_10'
p327
aS'->'
p328
aS'variable_42'
p329
aS'.'
p330
aS'variable_43'
p331
aS'=='
p332
ag41
ag20
aS'unsigned'
p333
aS'char'
p334
ag7
aS'variable_44'
p335
ag24
aS'unsigned'
p336
aS'char'
p337
aS'variable_45'
p338
ag24
aS'if'
p339
ag5
aS'variable_1'
p340
aS'->'
p341
aS'variable_46'
p342
aS'->'
p343
aS'variable_47'
p344
aS'=='
p345
aS'NULL'
p346
ag20
aS'if'
p347
ag5
ag125
aS'func_10'
p348
ag5
aS'variable_9'
p349
ag9
aS'variable_8'
p350
ag20
ag20
aS'if'
p351
ag5
aS'variable_1'
p352
aS'->'
p353
aS'variable_46'
p354
aS'->'
p355
aS'func_11'
p356
ag5
aS'variable_1'
p357
ag9
ag45
aS'variable_44'
p358
ag9
ag45
aS'variable_45'
p359
ag9
aS'variable_9'
p360
ag9
aS'variable_8'
p361
ag9
aS'variable_1'
p362
aS'->'
p363
aS'variable_46'
p364
aS'->'
p365
aS'variable_48'
p366
ag20
aS'!='
p367
aS'variable_49'
p368
ag20
aS'variable_1'
p369
aS'->'
p370
aS'variable_50'
p371
ag34
aS'func_12'
p372
ag5
aS'variable_45'
p373
ag20
ag24
aS'if'
p374
ag5
ag125
aS'variable_1'
p375
aS'->'
p376
aS'variable_50'
p377
ag20
aS'memcpy'
p378
ag5
aS'variable_1'
p379
aS'->'
p380
aS'variable_50'
p381
ag9
aS'variable_44'
p382
ag9
aS'variable_45'
p383
ag20
ag24
aS'variable_1'
p384
aS'->'
p385
aS'variable_51'
p386
ag34
aS'variable_45'
p387
ag24
aS'variable_1'
p388
aS'->'
p389
aS'variable_10'
p390
aS'->'
p391
aS'variable_11'
p392
ag34
ag83
ag24
aS'if'
p393
ag5
aS'variable_7'
p394
aS'=='
p395
aS'variable_52'
p396
ag20
aS'if'
p397
ag5
ag125
aS'func_13'
p398
ag5
aS'variable_1'
p399
ag9
aS'variable_9'
p400
ag9
aS'variable_8'
p401
ag9
aS'variable_5'
p402
ag20
ag20
aS'if'
p403
ag5
aS'variable_7'
p404
aS'=='
p405
aS'variable_53'
p406
ag20
aS'switch'
p407
ag5
aS'variable_9'
p408
aS'['
p409
ag41
aS']'
p410
ag20
aS'variable_1'
p411
aS'->'
p412
aS'variable_12'
p413
ag48
ag34
aS'variable_13'
p414
ag24
aS'variable_1'
p415
aS'->'
p416
aS'variable_12'
p417
ag48
ag34
aS'variable_13'
p418
ag24
aS'variable_1'
p419
aS'->'
p420
aS'variable_12'
p421
ag48
ag34
aS'variable_14'
p422
ag24
aS'if'
p423
ag5
aS'variable_7'
p424
aS'=='
p425
aS'variable_54'
p426
ag20
aS'if'
p427
ag5
aS'func_14'
p428
ag5
aS'variable_1'
p429
ag9
aS'variable_9'
p430
ag9
aS'variable_8'
p431
ag9
aS'variable_5'
p432
ag20
ag20
aS'variable_9'
p433
aS'+='
p434
aS'variable_8'
p435
ag24
aS'if'
p436
ag5
ag125
aS'variable_1'
p437
aS'->'
p438
aS'variable_24'
p439
aS'&&'
p440
aS'variable_55'
p441
aS'=='
p442
ag83
ag20
aS'if'
p443
ag5
aS'variable_1'
p444
aS'->'
p445
aS'variable_18'
p446
ag20
aS'if'
p447
ag5
aS'variable_1'
p448
aS'->'
p449
aS'variable_25'
p450
aS'->'
p451
aS'variable_18'
p452
aS'=='
p453
aS'NULL'
p454
ag20
aS'variable_1'
p455
aS'->'
p456
aS'variable_25'
p457
aS'->'
p458
aS'variable_18'
p459
ag34
aS'func_15'
p460
ag5
aS'variable_1'
p461
aS'->'
p462
aS'variable_18'
p463
ag20
ag24
aS'if'
p464
ag5
ag125
aS'variable_1'
p465
aS'->'
p466
aS'variable_25'
p467
aS'->'
p468
aS'variable_18'
p469
ag20
aS'if'
p470
ag5
ag125
aS'variable_56'
p471
aS'&&'
p472
ag125
ag5
aS'variable_1'
p473
aS'->'
p474
aS'variable_57'
p475
ag45
aS'variable_58'
p476
ag20
aS'&&'
p477
ag125
ag5
aS'variable_1'
p478
aS'->'
p479
aS'variable_57'
p480
ag45
aS'variable_59'
p481
ag20
ag20
aa(lp482
S'int'
p483
aS'func_0'
p484
ag5
aS'variable_0'
p485
ag7
aS'variable_1'
p486
ag9
aS'unsigned'
p487
aS'char'
p488
ag7
ag7
aS'variable_2'
p489
ag9
aS'unsigned'
p490
aS'char'
p491
ag7
aS'variable_3'
p492
ag9
aS'int'
p493
aS'variable_4'
p494
ag9
aS'int'
p495
ag7
aS'variable_5'
p496
ag20
aS'unsigned'
p497
aS'short'
p498
aS'variable_6'
p499
ag24
aS'unsigned'
p500
aS'short'
p501
aS'variable_7'
p502
ag24
aS'unsigned'
p503
aS'short'
p504
aS'variable_8'
p505
ag24
aS'unsigned'
p506
aS'char'
p507
ag7
aS'variable_9'
p508
ag34
ag7
aS'variable_2'
p509
ag24
aS'variable_1'
p510
aS'->'
p511
aS'variable_10'
p512
aS'->'
p513
aS'variable_11'
p514
ag34
ag41
ag24
aS'variable_1'
p515
aS'->'
p516
aS'variable_12'
p517
ag45
ag34
ag46
ag5
aS'variable_13'
p518
ag48
aS'variable_14'
p519
ag20
ag24
aS'if'
p520
ag5
aS'variable_9'
p521
ag52
ag34
ag5
aS'variable_3'
p522
ag54
aS'variable_4'
p523
ag56
ag57
ag20
ag20
aS'if'
p524
ag5
aS'variable_9'
p525
ag54
aS'variable_6'
p526
aS'!='
p527
aS'variable_3'
p528
ag54
aS'variable_4'
p529
ag20
aS'while'
p530
ag5
aS'variable_9'
p531
ag66
ag34
ag5
aS'variable_3'
p532
ag54
aS'variable_4'
p533
ag56
ag69
ag20
ag20
aS'if'
p534
ag5
aS'variable_9'
p535
ag54
aS'variable_8'
p536
ag52
ag5
aS'variable_3'
p537
ag54
aS'variable_4'
p538
ag20
ag20
aS'if'
p539
ag5
aS'variable_7'
p540
aS'=='
p541
aS'variable_15'
p542
ag20
aS'if'
p543
ag5
aS'variable_1'
p544
aS'->'
p545
aS'variable_16'
p546
aS'=='
p547
aS'NULL'
p548
aS'||'
p549
aS'variable_8'
p550
ag52
ag41
ag20
aS'if'
p551
ag5
aS'variable_7'
p552
aS'=='
p553
aS'variable_17'
p554
aS'&&'
p555
aS'variable_1'
p556
aS'->'
p557
aS'variable_18'
p558
aS'!='
p559
aS'variable_19'
p560
ag20
aS'unsigned'
p561
aS'char'
p562
ag7
aS'variable_20'
p563
ag34
aS'variable_9'
p564
ag24
aS'int'
p565
aS'variable_21'
p566
ag34
ag7
ag5
aS'variable_20'
p567
aS'++'
p568
ag20
ag24
aS'if'
p569
ag5
aS'variable_21'
p570
aS'!='
p571
aS'variable_8'
p572
ag56
ag83
ag20
aS'if'
p573
ag5
ag125
aS'variable_1'
p574
aS'->'
p575
aS'variable_22'
p576
ag20
aS'variable_1'
p577
aS'->'
p578
aS'variable_23'
p579
aS'->'
p580
aS'variable_24'
p581
ag34
ag41
ag24
aS'if'
p582
ag5
ag5
aS'variable_1'
p583
aS'->'
p584
aS'variable_23'
p585
aS'->'
p586
aS'variable_25'
p587
ag34
aS'func_1'
p588
ag5
aS'variable_21'
p589
ag20
ag20
aS'=='
p590
aS'NULL'
p591
ag20
aS'variable_1'
p592
aS'->'
p593
aS'variable_23'
p594
aS'->'
p595
aS'variable_24'
p596
ag34
aS'variable_21'
p597
ag24
aS'memcpy'
p598
ag5
aS'variable_1'
p599
aS'->'
p600
aS'variable_23'
p601
aS'->'
p602
aS'variable_25'
p603
ag9
aS'variable_20'
p604
ag9
aS'variable_21'
p605
ag20
ag24
aS'variable_20'
p606
ag34
aS'variable_1'
p607
aS'->'
p608
aS'variable_23'
p609
aS'->'
p610
aS'variable_25'
p611
ag24
aS'for'
p612
ag5
aS'variable_26'
p613
ag34
ag41
ag24
aS'variable_26'
p614
ag66
aS'variable_1'
p615
aS'->'
p616
aS'variable_23'
p617
aS'->'
p618
aS'variable_24'
p619
ag24
aS'variable_26'
p620
aS'++'
p621
ag20
aS'fprintf'
p622
ag5
aS'variable_27'
p623
ag9
ag190
ag191
ag192
ag190
ag9
ag7
ag5
aS'variable_20'
p624
aS'++'
p625
ag20
ag20
ag24
aS'if'
p626
ag5
aS'variable_7'
p627
aS'=='
p628
aS'variable_28'
p629
ag20
aS'if'
p630
ag5
aS'variable_1'
p631
aS'->'
p632
aS'variable_29'
p633
aS'&&'
p634
ag125
aS'variable_1'
p635
aS'->'
p636
aS'func_2'
p637
ag5
aS'variable_1'
p638
ag9
aS'variable_9'
p639
ag9
aS'variable_8'
p640
ag9
aS'variable_1'
p641
aS'->'
p642
aS'variable_30'
p643
ag20
ag20
aS'if'
p644
ag5
ag5
aS'func_3'
p645
ag5
aS'variable_1'
p646
ag20
ag45
aS'variable_31'
p647
ag20
aS'||'
p648
ag5
aS'variable_8'
p649
ag52
ag41
ag20
ag20
aS'variable_1'
p650
aS'->'
p651
aS'variable_32'
p652
ag34
ag83
ag24
aS'if'
p653
ag5
aS'variable_7'
p654
aS'=='
p655
aS'variable_33'
p656
aS'&&'
p657
aS'variable_1'
p658
aS'->'
p659
aS'variable_18'
p660
aS'!='
p661
aS'variable_19'
p662
ag20
aS'unsigned'
p663
aS'char'
p664
ag7
aS'variable_20'
p665
ag34
aS'variable_9'
p666
ag24
aS'if'
p667
ag5
aS'variable_8'
p668
ag66
ag57
ag20
aS'if'
p669
ag5
aS'variable_1'
p670
aS'->'
p671
aS'variable_10'
p672
aS'->'
p673
aS'variable_34'
p674
aS'!='
p675
aS'variable_8'
p676
ag56
ag57
ag20
aS'if'
p677
ag5
aS'variable_1'
p678
aS'->'
p679
aS'variable_10'
p680
aS'->'
p681
aS'variable_34'
p682
aS'=='
p683
ag41
ag20
aS'variable_1'
p684
aS'->'
p685
aS'variable_10'
p686
aS'->'
p687
aS'variable_35'
p688
ag34
aS'func_4'
p689
ag5
ag83
ag20
ag24
aS'variable_1'
p690
aS'->'
p691
aS'variable_10'
p692
aS'->'
p693
aS'variable_35'
p694
ag34
aS'func_5'
p695
ag5
aS'variable_20'
p696
ag9
aS'variable_1'
p697
aS'->'
p698
aS'variable_10'
p699
aS'->'
p700
aS'variable_34'
p701
ag20
ag24
aS'if'
p702
ag5
aS'variable_1'
p703
aS'->'
p704
aS'variable_10'
p705
aS'->'
p706
aS'variable_35'
p707
aS'=='
p708
aS'NULL'
p709
ag20
aS'if'
p710
ag5
aS'variable_7'
p711
aS'=='
p712
aS'variable_36'
p713
aS'&&'
p714
aS'variable_1'
p715
aS'->'
p716
aS'variable_18'
p717
aS'!='
p718
aS'variable_19'
p719
ag20
aS'if'
p720
ag5
ag5
aS'variable_1'
p721
aS'->'
p722
aS'variable_37'
p723
aS'=='
p724
ag56
ag83
ag20
aS'||'
p725
ag5
aS'variable_8'
p726
ag52
ag41
ag20
ag20
aS'variable_1'
p727
aS'->'
p728
aS'variable_38'
p729
ag34
ag83
ag24
aS'if'
p730
ag5
aS'variable_7'
p731
aS'=='
p732
aS'variable_39'
p733
aS'&&'
p734
aS'variable_1'
p735
aS'->'
p736
aS'variable_10'
p737
aS'->'
p738
aS'variable_40'
p739
ag330
aS'variable_41'
p740
aS'=='
p741
ag41
ag20
aS'unsigned'
p742
aS'char'
p743
ag7
aS'variable_42'
p744
ag24
aS'unsigned'
p745
aS'char'
p746
aS'variable_43'
p747
ag24
aS'if'
p748
ag5
aS'variable_1'
p749
aS'->'
p750
aS'variable_44'
p751
aS'->'
p752
aS'variable_45'
p753
aS'=='
p754
aS'NULL'
p755
ag20
aS'if'
p756
ag5
ag125
aS'func_6'
p757
ag5
aS'variable_9'
p758
ag9
aS'variable_8'
p759
ag20
ag20
aS'if'
p760
ag5
aS'variable_1'
p761
aS'->'
p762
aS'variable_44'
p763
aS'->'
p764
aS'func_7'
p765
ag5
aS'variable_1'
p766
ag9
ag45
aS'variable_42'
p767
ag9
ag45
aS'variable_43'
p768
ag9
aS'variable_9'
p769
ag9
aS'variable_8'
p770
ag9
aS'variable_1'
p771
aS'->'
p772
aS'variable_44'
p773
aS'->'
p774
aS'variable_46'
p775
ag20
aS'!='
p776
aS'variable_47'
p777
ag20
aS'variable_1'
p778
aS'->'
p779
aS'variable_48'
p780
ag34
aS'func_8'
p781
ag5
aS'variable_43'
p782
ag20
ag24
aS'if'
p783
ag5
ag125
aS'variable_1'
p784
aS'->'
p785
aS'variable_48'
p786
ag20
aS'memcpy'
p787
ag5
aS'variable_1'
p788
aS'->'
p789
aS'variable_48'
p790
ag9
aS'variable_42'
p791
ag9
aS'variable_43'
p792
ag20
ag24
aS'variable_1'
p793
aS'->'
p794
aS'variable_49'
p795
ag34
aS'variable_43'
p796
ag24
aS'variable_1'
p797
aS'->'
p798
aS'variable_10'
p799
aS'->'
p800
aS'variable_11'
p801
ag34
ag83
ag24
aS'if'
p802
ag5
aS'variable_7'
p803
aS'=='
p804
aS'variable_50'
p805
ag20
aS'if'
p806
ag5
ag125
aS'func_9'
p807
ag5
aS'variable_1'
p808
ag9
aS'variable_9'
p809
ag9
aS'variable_8'
p810
ag9
aS'variable_5'
p811
ag20
ag20
aS'if'
p812
ag5
aS'variable_7'
p813
aS'=='
p814
aS'variable_51'
p815
ag20
aS'switch'
p816
ag5
aS'variable_9'
p817
ag409
ag41
ag410
ag20
aS'variable_1'
p818
aS'->'
p819
aS'variable_12'
p820
ag48
ag34
aS'variable_13'
p821
ag24
aS'variable_1'
p822
aS'->'
p823
aS'variable_12'
p824
ag48
ag34
aS'variable_13'
p825
ag24
aS'variable_1'
p826
aS'->'
p827
aS'variable_12'
p828
ag48
ag34
aS'variable_14'
p829
ag24
aS'if'
p830
ag5
aS'variable_7'
p831
aS'=='
p832
aS'variable_52'
p833
ag20
aS'if'
p834
ag5
aS'func_10'
p835
ag5
aS'variable_1'
p836
ag9
aS'variable_9'
p837
ag9
aS'variable_8'
p838
ag9
aS'variable_5'
p839
ag20
ag20
aS'variable_9'
p840
aS'+='
p841
aS'variable_8'
p842
ag24
aS'if'
p843
ag5
aS'variable_1'
p844
aS'->'
p845
aS'variable_23'
p846
aS'->'
p847
aS'variable_16'
p848
aS'=='
p849
aS'NULL'
p850
ag20
aS'variable_1'
p851
aS'->'
p852
aS'variable_23'
p853
aS'->'
p854
aS'variable_16'
p855
ag34
aS'func_11'
p856
ag5
aS'variable_1'
p857
aS'->'
p858
aS'variable_16'
p859
ag20
ag24
aS'if'
p860
ag5
ag125
aS'variable_1'
p861
aS'->'
p862
aS'variable_23'
p863
aS'->'
p864
aS'variable_16'
p865
ag20
aaa(lp866
I0
aI0
aa(lp867
I593
aI204
aa(lp868
(lp869
S'main'
p870
aa(lp871
g870
aaa(lp872
S'564 /home/SySeVR/data/CVE_2014_3509_PATCHED_ssl_parse_serverhello_tlsext.c memcpy 177'
p873
aS'565 /home/SySeVR/data/CVE_2014_3509_PATCHED_ssl_parse_serverhello_tlsext.c memcpy 73'
p874
aa.