(lp0
(lp1
(lp2
S'static'
p3
aS'int'
p4
aS'func_0'
p5
aS'('
p6
aS'variable_0'
p7
aS'*'
p8
aS'variable_1'
p9
aS','
p10
aS'variable_2'
p11
ag8
aS'variable_3'
p12
aS')'
p13
aS'variable_4'
p14
ag8
aS'variable_5'
p15
aS'='
p16
aS'variable_1'
p17
aS'->'
p18
aS'variable_6'
p19
aS';'
p20
aS'variable_7'
p21
ag8
aS'variable_8'
p22
ag16
aS'variable_1'
p23
aS'->'
p24
aS'variable_9'
p25
aS'['
p26
aS'variable_3'
p27
aS'->'
p28
aS'variable_10'
p29
aS']'
p30
ag20
aS'int64_t'
p31
aS'variable_11'
p32
ag16
aS'variable_12'
p33
ag10
aS'variable_13'
p34
ag20
aS'int'
p35
aS'variable_14'
p36
ag16
aS'variable_15'
p37
ag20
aS'if'
p38
ag6
aS'variable_5'
p39
aS'->'
p40
aS'variable_16'
p41
ag13
aS'variable_11'
p42
ag16
aS'variable_5'
p43
aS'->'
p44
aS'variable_17'
p45
aS'<'
p46
aS'variable_5'
p47
aS'->'
p48
aS'variable_18'
p49
aS'?'
p50
aS'variable_5'
p51
aS'->'
p52
aS'variable_16'
p53
ag26
aS'variable_5'
p54
aS'->'
p55
aS'variable_17'
p56
ag30
aS':'
p57
aS'variable_12'
p58
ag20
aS'if'
p59
ag6
aS'variable_5'
p60
aS'->'
p61
aS'variable_19'
p62
ag13
aS'variable_14'
p63
ag16
aS'variable_5'
p64
aS'->'
p65
aS'variable_17'
p66
ag46
ag16
aS'variable_5'
p67
aS'->'
p68
aS'variable_20'
p69
ag50
aS'variable_5'
p70
aS'->'
p71
aS'variable_19'
p72
ag26
aS'variable_5'
p73
aS'->'
p74
aS'variable_17'
p75
ag30
ag57
aS'variable_15'
p76
ag20
aS'variable_11'
p77
ag16
aS'variable_5'
p78
aS'->'
p79
aS'variable_21'
p80
ag8
ag6
aS'variable_5'
p81
aS'->'
p82
aS'variable_17'
p83
aS'+'
p84
aS'1'
p85
ag13
ag20
aS'if'
p86
ag6
aS'variable_3'
p87
aS'->'
p88
aS'variable_10'
p89
aS'=='
p90
aS'variable_5'
p91
aS'->'
p92
aS'variable_22'
p93
aS'&&'
p94
aS'variable_3'
p95
aS'->'
p96
aS'variable_23'
p97
aS'&'
p98
aS'variable_24'
p99
aS'&&'
p100
ag6
aS'variable_5'
p101
aS'->'
p102
aS'variable_25'
p103
aS'>'
p104
ag16
aS'variable_14'
p105
aS'||'
p106
ag6
aS'variable_3'
p107
aS'->'
p108
aS'variable_26'
p109
aS'!='
p110
aS'variable_27'
p111
aS'&&'
p112
aS'func_1'
p113
ag6
aS'variable_3'
p114
aS'->'
p115
aS'variable_26'
p116
ag10
aS'variable_8'
p117
aS'->'
p118
aS'variable_28'
p119
ag10
aS'variable_11'
p120
aS'-'
p121
aS'variable_5'
p122
aS'->'
p123
aS'variable_29'
p124
ag10
aS'variable_30'
p125
ag13
ag104
ag16
aS'0'
p126
ag13
ag13
ag13
aS'if'
p127
ag6
aS'variable_3'
p128
aS'->'
p129
aS'variable_26'
p130
aS'!='
p131
aS'variable_27'
p132
ag13
aS'variable_5'
p133
aS'->'
p134
aS'variable_31'
p135
aS'.'
p136
aS'variable_32'
p137
ag16
aS'func_2'
p138
ag6
aS'variable_5'
p139
aS'->'
p140
aS'variable_31'
p141
ag136
aS'variable_32'
p142
ag10
ag6
aS'variable_33'
p143
ag13
ag6
aS'variable_3'
p144
aS'->'
p145
aS'variable_26'
p146
ag84
aS'variable_3'
p147
aS'->'
p148
aS'variable_34'
p149
ag13
ag8
aS'func_3'
p150
ag6
aS'variable_8'
p151
aS'->'
p152
aS'variable_28'
p153
ag13
ag13
ag20
aS'if'
p154
ag6
aS'variable_5'
p155
aS'->'
p156
aS'variable_35'
p157
ag13
aS'func_4'
p158
ag6
aS'variable_1'
p159
ag10
aS'variable_36'
p160
ag10
aS'"'
p161
aS'segment'
p162
ag57
aS"'"
p163
aS'%'
p164
aS's'
p165
ag163
aS'starts'
p166
aS'with'
p167
aS'packet'
p168
aS'stream'
p169
ag57
ag164
aS'd'
p170
aS'pts'
p171
ag57
ag164
ag165
aS'pts_time'
p172
ag57
ag164
ag165
aS'frame'
p173
ag57
ag164
ag170
aS'\\'
p174
aS'n'
p175
ag161
ag10
aS'variable_5'
p176
aS'->'
p177
aS'variable_37'
p178
aS'->'
p179
aS'variable_38'
p180
ag10
aS'variable_3'
p181
aS'->'
p182
aS'variable_10'
p183
ag10
aS'func_5'
p184
ag6
aS'variable_3'
p185
aS'->'
p186
aS'variable_26'
p187
ag13
ag10
aS'func_6'
p188
ag6
aS'variable_3'
p189
aS'->'
p190
aS'variable_26'
p191
ag10
ag98
aS'variable_8'
p192
aS'->'
p193
aS'variable_28'
p194
ag13
ag10
aS'variable_5'
p195
aS'->'
p196
aS'variable_25'
p197
ag13
ag20
aS'variable_5'
p198
aS'->'
p199
aS'variable_35'
p200
ag16
ag126
ag20
aS'func_7'
p201
ag6
aS'variable_1'
p202
ag10
aS'variable_36'
p203
ag10
ag161
aS'stream'
p204
ag57
ag164
ag170
aS'start_pts_time'
p205
ag57
ag164
ag165
aS'pts'
p206
ag57
ag164
ag165
aS'pts_time'
p207
ag57
ag164
ag165
aS'dts'
p208
ag57
ag164
ag165
aS'dts_time'
p209
ag57
ag164
ag165
ag161
ag10
aS'variable_3'
p210
aS'->'
p211
aS'variable_10'
p212
ag10
aS'func_8'
p213
ag6
aS'variable_5'
p214
aS'->'
p215
aS'variable_31'
p216
ag136
aS'variable_39'
p217
ag10
ag98
aS'variable_30'
p218
ag13
ag10
aS'func_9'
p219
ag6
aS'variable_3'
p220
aS'->'
p221
aS'variable_26'
p222
ag13
ag10
aS'func_10'
p223
ag6
aS'variable_3'
p224
aS'->'
p225
aS'variable_26'
p226
ag10
ag98
aS'variable_8'
p227
aS'->'
p228
aS'variable_28'
p229
ag13
ag10
aS'func_11'
p230
ag6
aS'variable_3'
p231
aS'->'
p232
aS'variable_40'
p233
ag13
ag10
aS'func_12'
p234
ag6
aS'variable_3'
p235
aS'->'
p236
aS'variable_40'
p237
ag10
ag98
aS'variable_8'
p238
aS'->'
p239
aS'variable_28'
p240
ag13
ag13
ag20
aS'variable_13'
p241
ag16
aS'func_13'
p242
ag6
aS'variable_5'
p243
aS'->'
p244
aS'variable_41'
p245
ag121
ag6
aS'variable_5'
p246
aS'->'
p247
aS'variable_42'
p248
ag50
aS'variable_5'
p249
aS'->'
p250
aS'variable_31'
p251
ag136
aS'variable_39'
p252
ag57
ag126
ag13
ag10
aS'variable_30'
p253
ag10
aS'variable_8'
p254
aS'->'
p255
aS'variable_28'
p256
ag13
ag20
aS'variable_3'
p257
aS'->'
p258
aS'variable_26'
p259
aS'+='
p260
aS'variable_13'
p261
ag20
aS'if'
p262
ag6
aS'variable_3'
p263
aS'->'
p264
aS'variable_40'
p265
aS'!='
p266
aS'variable_27'
p267
ag13
aS'variable_3'
p268
aS'->'
p269
aS'variable_40'
p270
aS'+='
p271
aS'variable_13'
p272
ag20
aS'func_14'
p273
ag6
aS'variable_1'
p274
ag10
aS'variable_36'
p275
ag10
ag161
aS'->'
p276
aS'pts'
p277
ag57
ag164
ag165
aS'pts_time'
p278
ag57
ag164
ag165
aS'dts'
p279
ag57
ag164
ag165
aS'dts_time'
p280
ag57
ag164
ag165
ag174
ag175
ag161
ag10
aS'func_15'
p281
ag6
aS'variable_3'
p282
aS'->'
p283
aS'variable_26'
p284
ag13
ag10
aS'func_16'
p285
ag6
aS'variable_3'
p286
aS'->'
p287
aS'variable_26'
p288
ag10
ag98
aS'variable_8'
p289
aS'->'
p290
aS'variable_28'
p291
ag13
ag10
aS'func_17'
p292
ag6
aS'variable_3'
p293
aS'->'
p294
aS'variable_40'
p295
ag13
ag10
aS'func_18'
p296
ag6
aS'variable_3'
p297
aS'->'
p298
aS'variable_40'
p299
ag10
ag98
aS'variable_8'
p300
aS'->'
p301
aS'variable_28'
p302
ag13
ag13
ag20
aS'variable_43'
p303
ag16
aS'func_19'
p304
ag6
aS'variable_44'
p305
ag10
aS'variable_3'
p306
aS'->'
p307
aS'variable_10'
p308
ag10
aS'variable_3'
p309
ag10
aS'variable_1'
p310
ag13
ag20
aS'if'
p311
ag6
aS'variable_3'
p312
aS'->'
p313
aS'variable_10'
p314
aS'=='
p315
aS'variable_5'
p316
aS'->'
p317
aS'variable_22'
p318
ag13
aS'variable_5'
p319
aS'->'
p320
aS'variable_25'
p321
aS'++'
p322
ag20
aS'if'
p323
ag6
aS'variable_43'
p324
ag46
ag126
ag13
aS'if'
p325
ag6
aS'variable_5'
p326
aS'->'
p327
aS'variable_45'
p328
ag13
aS'func_20'
p329
ag6
aS'variable_5'
p330
aS'->'
p331
aS'variable_46'
p332
ag13
ag20
aS'func_21'
p333
ag6
aS'variable_5'
p334
aS'->'
p335
aS'variable_37'
p336
ag13
ag20
aS'return'
p337
aS'variable_43'
p338
ag20
aa(lp339
S'static'
p340
aS'int'
p341
aS'func_0'
p342
ag6
aS'variable_0'
p343
ag8
aS'variable_1'
p344
ag10
aS'variable_2'
p345
ag8
aS'variable_3'
p346
ag13
aS'variable_4'
p347
ag8
aS'variable_5'
p348
ag16
aS'variable_1'
p349
aS'->'
p350
aS'variable_6'
p351
ag20
aS'variable_7'
p352
ag8
aS'variable_8'
p353
ag16
aS'variable_1'
p354
aS'->'
p355
aS'variable_9'
p356
ag26
aS'variable_3'
p357
aS'->'
p358
aS'variable_10'
p359
ag30
ag20
aS'int64_t'
p360
aS'variable_11'
p361
ag16
aS'variable_12'
p362
ag10
aS'variable_13'
p363
ag20
aS'int'
p364
aS'variable_14'
p365
ag16
aS'variable_15'
p366
ag20
aS'int'
p367
aS'variable_16'
p368
ag20
aS'if'
p369
ag6
aS'variable_5'
p370
aS'->'
p371
aS'variable_17'
p372
ag13
aS'variable_11'
p373
ag16
aS'variable_5'
p374
aS'->'
p375
aS'variable_18'
p376
ag46
aS'variable_5'
p377
aS'->'
p378
aS'variable_19'
p379
ag50
aS'variable_5'
p380
aS'->'
p381
aS'variable_17'
p382
ag26
aS'variable_5'
p383
aS'->'
p384
aS'variable_18'
p385
ag30
ag57
aS'variable_12'
p386
ag20
aS'if'
p387
ag6
aS'variable_5'
p388
aS'->'
p389
aS'variable_20'
p390
ag13
aS'variable_14'
p391
ag16
aS'variable_5'
p392
aS'->'
p393
aS'variable_18'
p394
ag46
ag16
aS'variable_5'
p395
aS'->'
p396
aS'variable_21'
p397
ag50
aS'variable_5'
p398
aS'->'
p399
aS'variable_20'
p400
ag26
aS'variable_5'
p401
aS'->'
p402
aS'variable_18'
p403
ag30
ag57
aS'variable_15'
p404
ag20
aS'variable_11'
p405
ag16
aS'variable_5'
p406
aS'->'
p407
aS'variable_22'
p408
ag8
ag6
aS'variable_5'
p409
aS'->'
p410
aS'variable_18'
p411
ag84
ag85
ag13
ag20
aS'if'
p412
ag6
aS'variable_3'
p413
aS'->'
p414
aS'variable_10'
p415
aS'=='
p416
aS'variable_5'
p417
aS'->'
p418
aS'variable_23'
p419
aS'&&'
p420
aS'variable_3'
p421
aS'->'
p422
aS'variable_24'
p423
ag98
aS'variable_25'
p424
aS'&&'
p425
ag6
aS'variable_5'
p426
aS'->'
p427
aS'variable_26'
p428
ag104
ag16
aS'variable_14'
p429
aS'||'
p430
ag6
aS'variable_3'
p431
aS'->'
p432
aS'variable_27'
p433
aS'!='
p434
aS'variable_28'
p435
aS'&&'
p436
aS'func_1'
p437
ag6
aS'variable_3'
p438
aS'->'
p439
aS'variable_27'
p440
ag10
aS'variable_8'
p441
aS'->'
p442
aS'variable_29'
p443
ag10
aS'variable_11'
p444
ag121
aS'variable_5'
p445
aS'->'
p446
aS'variable_30'
p447
ag10
aS'variable_31'
p448
ag13
ag104
ag16
ag126
ag13
ag13
ag13
aS'if'
p449
ag6
ag6
aS'variable_16'
p450
ag16
aS'func_2'
p451
ag6
aS'variable_1'
p452
ag10
aS'variable_5'
p453
aS'->'
p454
aS'variable_32'
p455
ag10
ag126
ag13
ag13
ag46
ag126
ag13
aS'if'
p456
ag6
ag6
aS'variable_16'
p457
ag16
aS'func_3'
p458
ag6
aS'variable_1'
p459
ag10
aS'variable_5'
p460
aS'->'
p461
aS'variable_32'
p462
ag13
ag13
ag46
ag126
ag13
aS'variable_5'
p463
aS'->'
p464
aS'variable_33'
p465
ag136
aS'variable_34'
p466
ag16
aS'variable_5'
p467
aS'->'
p468
aS'variable_35'
p469
ag20
aS'variable_5'
p470
aS'->'
p471
aS'variable_33'
p472
ag136
aS'variable_36'
p473
ag16
ag6
aS'variable_37'
p474
ag13
aS'variable_3'
p475
aS'->'
p476
aS'variable_27'
p477
ag8
aS'func_4'
p478
ag6
aS'variable_8'
p479
aS'->'
p480
aS'variable_29'
p481
ag13
ag20
aS'variable_5'
p482
aS'->'
p483
aS'variable_33'
p484
ag136
aS'variable_38'
p485
ag16
aS'func_5'
p486
ag6
aS'variable_3'
p487
aS'->'
p488
aS'variable_27'
p489
ag10
aS'variable_8'
p490
aS'->'
p491
aS'variable_29'
p492
ag10
aS'variable_31'
p493
ag13
ag20
aS'if'
p494
ag6
aS'variable_5'
p495
aS'->'
p496
aS'variable_39'
p497
ag13
aS'func_6'
p498
ag6
aS'variable_1'
p499
ag10
aS'variable_40'
p500
ag10
ag161
aS'segment'
p501
ag57
ag163
ag164
ag165
ag163
aS'starts'
p502
aS'with'
p503
aS'packet'
p504
aS'stream'
p505
ag57
ag164
ag170
aS'pts'
p506
ag57
ag164
ag165
aS'pts_time'
p507
ag57
ag164
ag165
aS'frame'
p508
ag57
ag164
ag170
ag174
ag175
ag161
ag10
aS'variable_5'
p509
aS'->'
p510
aS'variable_41'
p511
aS'->'
p512
aS'variable_42'
p513
ag10
aS'variable_3'
p514
aS'->'
p515
aS'variable_10'
p516
ag10
aS'func_7'
p517
ag6
aS'variable_3'
p518
aS'->'
p519
aS'variable_27'
p520
ag13
ag10
aS'func_8'
p521
ag6
aS'variable_3'
p522
aS'->'
p523
aS'variable_27'
p524
ag10
ag98
aS'variable_8'
p525
aS'->'
p526
aS'variable_29'
p527
ag13
ag10
aS'variable_5'
p528
aS'->'
p529
aS'variable_26'
p530
ag13
ag20
aS'func_9'
p531
ag6
aS'variable_1'
p532
ag10
aS'variable_40'
p533
ag10
ag161
aS'stream'
p534
ag57
ag164
ag170
aS'start_pts_time'
p535
ag57
ag164
ag165
aS'pts'
p536
ag57
ag164
ag165
aS'pts_time'
p537
ag57
ag164
ag165
aS'dts'
p538
ag57
ag164
ag165
aS'dts_time'
p539
ag57
ag164
ag165
ag161
ag10
aS'variable_3'
p540
aS'->'
p541
aS'variable_10'
p542
ag10
aS'func_10'
p543
ag6
aS'variable_5'
p544
aS'->'
p545
aS'variable_33'
p546
ag136
aS'variable_38'
p547
ag10
ag98
aS'variable_31'
p548
ag13
ag10
aS'func_11'
p549
ag6
aS'variable_3'
p550
aS'->'
p551
aS'variable_27'
p552
ag13
ag10
aS'func_12'
p553
ag6
aS'variable_3'
p554
aS'->'
p555
aS'variable_27'
p556
ag10
ag98
aS'variable_8'
p557
aS'->'
p558
aS'variable_29'
p559
ag13
ag10
aS'func_13'
p560
ag6
aS'variable_3'
p561
aS'->'
p562
aS'variable_43'
p563
ag13
ag10
aS'func_14'
p564
ag6
aS'variable_3'
p565
aS'->'
p566
aS'variable_43'
p567
ag10
ag98
aS'variable_8'
p568
aS'->'
p569
aS'variable_29'
p570
ag13
ag13
ag20
aS'variable_13'
p571
ag16
aS'func_15'
p572
ag6
aS'variable_5'
p573
aS'->'
p574
aS'variable_44'
p575
ag121
ag6
aS'variable_5'
p576
aS'->'
p577
aS'variable_45'
p578
ag50
aS'variable_5'
p579
aS'->'
p580
aS'variable_33'
p581
ag136
aS'variable_38'
p582
ag57
ag126
ag13
ag10
aS'variable_31'
p583
ag10
aS'variable_8'
p584
aS'->'
p585
aS'variable_29'
p586
ag13
ag20
aS'variable_3'
p587
aS'->'
p588
aS'variable_27'
p589
aS'+='
p590
aS'variable_13'
p591
ag20
aS'if'
p592
ag6
aS'variable_3'
p593
aS'->'
p594
aS'variable_43'
p595
aS'!='
p596
aS'variable_28'
p597
ag13
aS'variable_3'
p598
aS'->'
p599
aS'variable_43'
p600
aS'+='
p601
aS'variable_13'
p602
ag20
aS'func_16'
p603
ag6
aS'variable_1'
p604
ag10
aS'variable_40'
p605
ag10
ag161
aS'->'
p606
aS'pts'
p607
ag57
ag164
ag165
aS'pts_time'
p608
ag57
ag164
ag165
aS'dts'
p609
ag57
ag164
ag165
aS'dts_time'
p610
ag57
ag164
ag165
ag174
ag175
ag161
ag10
aS'func_17'
p611
ag6
aS'variable_3'
p612
aS'->'
p613
aS'variable_27'
p614
ag13
ag10
aS'func_18'
p615
ag6
aS'variable_3'
p616
aS'->'
p617
aS'variable_27'
p618
ag10
ag98
aS'variable_8'
p619
aS'->'
p620
aS'variable_29'
p621
ag13
ag10
aS'func_19'
p622
ag6
aS'variable_3'
p623
aS'->'
p624
aS'variable_43'
p625
ag13
ag10
aS'func_20'
p626
ag6
aS'variable_3'
p627
aS'->'
p628
aS'variable_43'
p629
ag10
ag98
aS'variable_8'
p630
aS'->'
p631
aS'variable_29'
p632
ag13
ag13
ag20
aS'variable_16'
p633
ag16
aS'func_21'
p634
ag6
aS'variable_46'
p635
ag10
aS'variable_3'
p636
aS'->'
p637
aS'variable_10'
p638
ag10
aS'variable_3'
p639
ag10
aS'variable_1'
p640
ag13
ag20
aS'if'
p641
ag6
aS'variable_3'
p642
aS'->'
p643
aS'variable_10'
p644
aS'=='
p645
aS'variable_5'
p646
aS'->'
p647
aS'variable_23'
p648
ag13
aS'variable_5'
p649
aS'->'
p650
aS'variable_26'
p651
aS'++'
p652
ag20
aS'if'
p653
ag6
aS'variable_16'
p654
ag46
ag126
ag13
aS'if'
p655
ag6
aS'variable_5'
p656
aS'->'
p657
aS'variable_47'
p658
ag13
aS'func_22'
p659
ag6
aS'variable_5'
p660
aS'->'
p661
aS'variable_48'
p662
ag13
ag20
aS'func_23'
p663
ag6
aS'variable_5'
p664
aS'->'
p665
aS'variable_41'
p666
ag13
ag20
aS'return'
p667
aS'variable_16'
p668
ag20
aaa(lp669
I0
aI0
aa(lp670
I190
aI223
aa(lp671
(lp672
S'main'
p673
aa(lp674
g673
aaa(lp675
S'659 /home/SySeVR/data/CVE_2014_9676_PATCHED_seg_write_packet.c seg -> cur_entry . end_time = FFMAX ( seg -> cur_entry . end_time , ( double ) ( pkt -> pts + pkt -> duration ) * av_q2d ( st -> time_base ) ) 43'
p676
aS'660 /home/SySeVR/data/CVE_2014_9676_PATCHED_seg_write_packet.c seg -> cur_entry . start_time = ( double ) pkt -> pts * av_q2d ( st -> time_base ) 40'
p677
aa.