(lp0
(lp1
(lp2
S'static'
p3
aS'int'
p4
aS'func_0'
p5
aS'('
p6
aS'struct'
p7
aS'variable_0'
p8
aS'*'
p9
aS'variable_1'
p10
aS','
p11
aS'int'
p12
ag9
aS'variable_2'
p13
ag11
aS'char'
p14
ag9
aS'variable_3'
p15
aS')'
p16
aS'struct'
p17
aS'variable_4'
p18
ag9
aS'variable_5'
p19
aS'='
p20
aS'func_1'
p21
ag6
aS'variable_1'
p22
ag16
aS';'
p23
aS'struct'
p24
aS'shmem_sb_info'
p25
aS'variable_6'
p26
ag20
ag9
aS'variable_5'
p27
ag23
aS'unsigned'
p28
aS'long'
p29
aS'variable_7'
p30
ag23
aS'if'
p31
ag6
aS'func_2'
p32
ag6
aS'variable_3'
p33
ag11
aS'&'
p34
aS'variable_6'
p35
ag11
aS'true'
p36
ag16
ag16
aS'variable_7'
p37
ag20
aS'variable_5'
p38
aS'->'
p39
aS'variable_8'
p40
aS'-'
p41
aS'variable_5'
p42
aS'->'
p43
aS'variable_9'
p44
ag23
aS'if'
p45
ag6
aS'func_3'
p46
ag6
ag34
aS'variable_5'
p47
aS'->'
p48
aS'variable_10'
p49
ag11
aS'variable_6'
p50
aS'.'
p51
aS'variable_11'
p52
ag16
aS'>'
p53
aS'0'
p54
ag16
aS'if'
p55
ag6
aS'variable_6'
p56
ag51
aS'variable_8'
p57
aS'<'
p58
aS'variable_7'
p59
ag16
aS'if'
p60
ag6
aS'variable_6'
p61
ag51
aS'variable_11'
p62
aS'&&'
p63
aS'!'
p64
aS'variable_5'
p65
aS'->'
p66
aS'variable_11'
p67
ag16
aS'if'
p68
ag6
aS'variable_6'
p69
ag51
aS'variable_8'
p70
aS'&&'
p71
ag64
aS'variable_5'
p72
aS'->'
p73
aS'variable_8'
p74
ag16
aS'variable_5'
p75
aS'->'
p76
aS'variable_11'
p77
ag20
aS'variable_6'
p78
ag51
aS'variable_11'
p79
ag23
aS'variable_5'
p80
aS'->'
p81
aS'variable_8'
p82
ag20
aS'variable_6'
p83
ag51
aS'variable_8'
p84
ag23
aS'variable_5'
p85
aS'->'
p86
aS'variable_9'
p87
ag20
aS'variable_6'
p88
ag51
aS'variable_8'
p89
ag41
aS'variable_7'
p90
ag23
aS'func_4'
p91
ag6
aS'variable_5'
p92
aS'->'
p93
aS'variable_12'
p94
ag16
ag23
aS'variable_5'
p95
aS'->'
p96
aS'variable_12'
p97
ag20
aS'variable_6'
p98
ag51
aS'variable_12'
p99
ag23
aS'func_5'
p100
ag6
ag34
aS'variable_5'
p101
aS'->'
p102
aS'variable_13'
p103
ag16
ag23
aa(lp104
S'static'
p105
aS'int'
p106
aS'func_0'
p107
ag6
aS'struct'
p108
aS'variable_0'
p109
ag9
aS'variable_1'
p110
ag11
aS'int'
p111
ag9
aS'variable_2'
p112
ag11
aS'char'
p113
ag9
aS'variable_3'
p114
ag16
aS'struct'
p115
aS'variable_4'
p116
ag9
aS'variable_5'
p117
ag20
aS'func_1'
p118
ag6
aS'variable_1'
p119
ag16
ag23
aS'unsigned'
p120
aS'long'
p121
aS'variable_6'
p122
ag23
aS'if'
p123
ag6
aS'func_2'
p124
ag6
aS'variable_3'
p125
ag11
ag34
aS'variable_7'
p126
ag11
aS'true'
p127
ag16
ag16
aS'variable_6'
p128
ag20
aS'variable_5'
p129
aS'->'
p130
aS'variable_8'
p131
ag41
aS'variable_5'
p132
aS'->'
p133
aS'variable_9'
p134
ag23
aS'if'
p135
ag6
aS'variable_7'
p136
ag51
aS'variable_8'
p137
ag58
aS'variable_6'
p138
ag16
aS'variable_5'
p139
aS'->'
p140
aS'variable_9'
p141
ag20
aS'variable_7'
p142
ag51
aS'variable_8'
p143
ag41
aS'variable_6'
p144
ag23
aS'func_3'
p145
ag6
aS'variable_5'
p146
aS'->'
p147
aS'variable_10'
p148
ag16
ag23
aS'variable_5'
p149
aS'->'
p150
aS'variable_10'
p151
ag20
aS'variable_7'
p152
ag51
aS'variable_10'
p153
ag23
aS'func_4'
p154
ag6
ag34
aS'variable_5'
p155
aS'->'
p156
aS'variable_11'
p157
ag16
ag23
aaa(lp158
I1
aI1
aa(lp159
I130
aI51
aa(lp160
(lp161
S'main'
p162
aa(lp163
g162
aaa(lp164
S'489 /home/SySeVR/data/CVE_2013_1767_VULN_shmem_remount_fs.c sbinfo -> free_inodes = config . max_inodes - inodes 30'
p165
aS'490 /home/SySeVR/data/CVE_2013_1767_VULN_shmem_remount_fs.c inodes = sbinfo -> max_inodes - sbinfo -> free_inodes 12'
p166
aa.