(lp0
(lp1
(lp2
S'static'
p3
aS'int'
p4
aS'func_0'
p5
aS'('
p6
aS'struct'
p7
aS'variable_0'
p8
aS'*'
p9
aS'variable_1'
p10
aS','
p11
aS'struct'
p12
aS'variable_2'
p13
ag9
aS'variable_3'
p14
ag11
aS'size_t'
p15
aS'variable_4'
p16
ag11
aS'int'
p17
aS'variable_5'
p18
aS')'
p19
aS'struct'
p20
aS'variable_6'
p21
ag9
aS'variable_7'
p22
aS'='
p23
aS'variable_6'
p24
aS'->'
p25
aS'variable_7'
p26
aS';'
p27
aS'struct'
p28
aS'variable_8'
p29
ag9
aS'variable_9'
p30
ag27
aS'int'
p31
aS'variable_10'
p32
ag11
aS'variable_11'
p33
ag27
aS'struct'
p34
aS'variable_12'
p35
ag9
aS'variable_13'
p36
ag27
aS'variable_11'
p37
ag23
aS'-'
p38
aS'variable_14'
p39
ag27
aS'if'
p40
ag6
aS'variable_5'
p41
aS'&'
p42
aS'~'
p43
ag6
aS'variable_15'
p44
aS'|'
p45
aS'variable_16'
p46
ag45
aS'variable_17'
p47
ag45
aS'variable_18'
p48
ag45
aS'variable_19'
p49
ag19
ag19
aS'if'
p50
ag6
aS'func_1'
p51
ag6
aS'variable_7'
p52
ag19
aS'->'
p53
aS'variable_20'
p54
aS'<'
p55
aS'0'
p56
ag19
aS'if'
p57
ag6
aS'variable_5'
p58
ag42
aS'variable_19'
p59
ag19
aS'variable_9'
p60
ag23
aS'func_2'
p61
ag6
aS'variable_7'
p62
ag11
aS'variable_5'
p63
ag11
aS'variable_5'
p64
ag42
aS'variable_16'
p65
ag11
ag42
aS'variable_11'
p66
ag19
ag27
aS'if'
p67
ag6
aS'variable_9'
p68
aS'=='
p69
aS'NULL'
p70
ag19
aS'if'
p71
ag6
aS'func_3'
p72
ag6
aS'variable_7'
p73
ag19
aS'->'
p74
aS'variable_21'
p75
ag19
aS'struct'
p76
aS'virtio_net_hdr'
p77
aS'variable_22'
p78
ag23
aS'{'
p79
ag56
aS'}'
p80
ag27
aS'variable_11'
p81
ag23
ag38
aS'variable_14'
p82
ag27
aS'variable_23'
p83
ag23
aS'sizeof'
p84
ag6
aS'variable_22'
p85
ag19
ag27
aS'if'
p86
ag6
aS'variable_4'
p87
ag55
aS'variable_23'
p88
ag19
aS'variable_4'
p89
aS'-='
p90
aS'variable_23'
p91
ag27
aS'if'
p92
ag6
aS'func_4'
p93
ag6
aS'variable_9'
p94
ag19
ag19
aS'struct'
p95
aS'variable_24'
p96
ag9
aS'variable_25'
p97
ag23
aS'func_5'
p98
ag6
aS'variable_9'
p99
ag19
ag27
aS'variable_22'
p100
aS'.'
p101
aS'variable_26'
p102
ag23
aS'func_6'
p103
ag6
aS'variable_9'
p104
ag19
ag27
aS'variable_22'
p105
ag101
aS'variable_27'
p106
ag23
aS'variable_25'
p107
aS'->'
p108
aS'variable_27'
p109
ag27
aS'if'
p110
ag6
aS'variable_25'
p111
aS'->'
p112
aS'variable_28'
p113
ag42
aS'variable_29'
p114
ag19
aS'variable_22'
p115
ag101
aS'variable_28'
p116
ag23
aS'variable_30'
p117
ag27
aS'if'
p118
ag6
aS'variable_25'
p119
aS'->'
p120
aS'variable_28'
p121
ag42
aS'variable_31'
p122
ag19
aS'variable_22'
p123
ag101
aS'variable_28'
p124
ag23
aS'variable_32'
p125
ag27
aS'if'
p126
ag6
aS'variable_25'
p127
aS'->'
p128
aS'variable_28'
p129
ag42
aS'variable_33'
p130
ag19
aS'variable_22'
p131
ag101
aS'variable_28'
p132
ag23
aS'variable_34'
p133
ag27
aS'if'
p134
ag6
aS'variable_25'
p135
aS'->'
p136
aS'variable_28'
p137
ag42
aS'variable_35'
p138
ag19
aS'if'
p139
ag6
aS'variable_25'
p140
aS'->'
p141
aS'variable_28'
p142
ag42
aS'variable_36'
p143
ag19
aS'variable_22'
p144
ag101
aS'variable_28'
p145
ag45
ag23
aS'variable_37'
p146
ag27
aS'variable_22'
p147
ag101
aS'variable_28'
p148
ag23
aS'variable_38'
p149
ag27
aS'if'
p150
ag6
aS'variable_9'
p151
aS'->'
p152
aS'variable_39'
p153
aS'=='
p154
aS'variable_40'
p155
ag19
aS'if'
p156
ag6
aS'variable_9'
p157
aS'->'
p158
aS'variable_39'
p159
aS'=='
p160
aS'variable_41'
p161
ag19
aS'variable_22'
p162
ag101
aS'variable_5'
p163
ag23
aS'variable_42'
p164
ag27
aS'variable_11'
p165
ag23
aS'func_7'
p166
ag6
aS'variable_3'
p167
aS'->'
p168
aS'variable_43'
p169
ag11
ag6
aS'void'
p170
ag9
ag19
ag42
aS'variable_22'
p171
ag11
aS'variable_23'
p172
ag19
ag27
aS'if'
p173
ag6
aS'variable_11'
p174
ag55
ag56
ag19
aS'variable_13'
p175
ag23
ag42
aS'func_8'
p176
ag6
aS'variable_9'
p177
ag19
aS'->'
p178
aS'variable_44'
p179
ag101
aS'variable_45'
p180
ag27
aS'if'
p181
ag6
aS'variable_6'
p182
aS'->'
p183
aS'variable_46'
p184
aS'=='
p185
aS'variable_47'
p186
ag19
aS'variable_3'
p187
aS'->'
p188
aS'variable_48'
p189
ag23
aS'sizeof'
p190
ag6
aS'struct'
p191
aS'variable_49'
p192
ag19
ag27
aS'variable_3'
p193
aS'->'
p194
aS'variable_48'
p195
ag23
aS'variable_13'
p196
aS'->'
p197
aS'variable_50'
p198
aS'+'
p199
aS'offsetof'
p200
ag6
aS'struct'
p201
aS'variable_12'
p202
ag11
aS'variable_51'
p203
ag19
aS'variable_10'
p204
ag23
aS'variable_9'
p205
aS'->'
p206
aS'variable_4'
p207
ag27
aS'if'
p208
ag6
aS'variable_10'
p209
aS'>'
p210
aS'variable_4'
p211
ag19
aS'variable_10'
p212
ag23
aS'variable_4'
p213
ag27
aS'variable_3'
p214
aS'->'
p215
aS'variable_52'
p216
ag45
ag23
aS'variable_17'
p217
ag27
aS'variable_11'
p218
ag23
aS'func_9'
p219
ag6
aS'variable_9'
p220
ag11
ag56
ag11
aS'variable_3'
p221
aS'->'
p222
aS'variable_43'
p223
ag11
aS'variable_10'
p224
ag19
ag27
aS'if'
p225
ag6
aS'variable_11'
p226
ag19
aS'if'
p227
ag6
aS'variable_3'
p228
aS'->'
p229
aS'variable_53'
p230
ag19
aS'memcpy'
p231
ag6
aS'variable_3'
p232
aS'->'
p233
aS'variable_53'
p234
ag11
ag42
aS'func_10'
p235
ag6
aS'variable_9'
p236
ag19
aS'->'
p237
aS'variable_44'
p238
ag11
aS'variable_3'
p239
aS'->'
p240
aS'variable_48'
p241
ag19
ag27
aS'func_11'
p242
ag6
aS'variable_3'
p243
ag11
aS'variable_54'
p244
ag11
aS'variable_55'
p245
ag11
aS'sizeof'
p246
ag6
aS'variable_56'
p247
ag19
ag11
ag42
aS'variable_56'
p248
ag19
ag27
aaa(lp249
I0
aa(lp250
I389
aa(lp251
(lp252
S'main'
p253
aaa(lp254
S'557 /home/SySeVR/data/CVE_2013_7270_VULN_packet_recvmsg.c memcpy 119'
p255
aa.