(lp0
(lp1
(lp2
S'func_0'
p3
aS'('
p4
aS'variable_0'
p5
aS'*'
p6
aS'variable_1'
p7
aS')'
p8
aS'unsigned'
p9
aS'char'
p10
ag6
aS'variable_2'
p11
aS'='
p12
aS'&'
p13
aS'variable_1'
p14
aS'->'
p15
aS'variable_3'
p16
aS'->'
p17
aS'variable_4'
p18
aS'.'
p19
aS'variable_5'
p20
aS'['
p21
aS'0'
p22
aS']'
p23
aS','
p24
ag6
aS'variable_6'
p25
aS';'
p26
aS'unsigned'
p27
aS'short'
p28
aS'variable_7'
p29
ag26
aS'unsigned'
p30
aS'int'
p31
aS'variable_8'
p32
ag26
aS'unsigned'
p33
aS'int'
p34
aS'variable_9'
p35
ag12
aS'16'
p36
ag26
aS'variable_7'
p37
ag12
ag6
aS'variable_2'
p38
aS'++'
p39
ag26
aS'variable_6'
p40
ag12
aS'variable_2'
p41
ag26
aS'if'
p42
ag4
aS'variable_7'
p43
aS'=='
p44
aS'variable_10'
p45
ag8
aS'unsigned'
p46
aS'char'
p47
ag6
aS'variable_11'
p48
ag24
ag6
aS'variable_12'
p49
ag26
aS'variable_11'
p50
ag12
aS'func_1'
p51
ag4
aS'1'
p52
aS'+'
p53
aS'2'
p54
ag53
aS'variable_8'
p55
ag53
aS'variable_9'
p56
ag8
ag26
aS'variable_12'
p57
ag12
aS'variable_11'
p58
ag26
ag6
aS'variable_12'
p59
aS'++'
p60
ag12
aS'variable_13'
p61
ag26
aS'memcpy'
p62
ag4
aS'variable_12'
p63
ag24
aS'variable_6'
p64
ag24
aS'variable_8'
p65
ag8
ag26
aS'variable_12'
p66
aS'+='
p67
aS'variable_8'
p68
ag26
aS'func_2'
p69
ag4
aS'variable_12'
p70
ag24
aS'variable_9'
p71
ag8
ag26
aaa(lp72
I0
aa(lp73
I87
aa(lp74
(lp75
S'main'
p76
aaa(lp77
S'559 /home/SySeVR/data/CVE_2014_0160_VULN_dtls1_process_heartbeat.c memcpy 34'
p78
aa.