(lp0
(lp1
(lp2
S'func_0'
p3
aS'('
p4
aS'variable_0'
p5
aS'*'
p6
aS'variable_1'
p7
aS')'
p8
aS'unsigned'
p9
aS'char'
p10
ag6
aS'variable_2'
p11
aS'='
p12
aS'&'
p13
aS'variable_1'
p14
aS'->'
p15
aS'variable_3'
p16
aS'->'
p17
aS'variable_4'
p18
aS'.'
p19
aS'variable_5'
p20
aS'['
p21
aS'0'
p22
aS']'
p23
aS','
p24
ag6
aS'variable_6'
p25
aS';'
p26
aS'unsigned'
p27
aS'short'
p28
aS'variable_7'
p29
ag26
aS'unsigned'
p30
aS'int'
p31
aS'variable_8'
p32
ag26
aS'unsigned'
p33
aS'int'
p34
aS'variable_9'
p35
ag12
aS'16'
p36
ag26
aS'variable_7'
p37
ag12
ag6
aS'variable_2'
p38
aS'++'
p39
ag26
aS'if'
p40
ag4
aS'variable_7'
p41
aS'=='
p42
aS'variable_10'
p43
ag8
aS'unsigned'
p44
aS'char'
p45
ag6
aS'variable_11'
p46
ag24
ag6
aS'variable_12'
p47
ag26
aS'int'
p48
aS'variable_13'
p49
ag26
aS'variable_11'
p50
ag12
aS'func_1'
p51
ag4
aS'1'
p52
aS'+'
p53
aS'2'
p54
ag53
aS'variable_8'
p55
ag53
aS'variable_9'
p56
ag8
ag26
aS'variable_13'
p57
ag12
aS'func_2'
p58
ag4
aS'variable_1'
p59
ag24
aS'variable_14'
p60
ag24
aS'variable_11'
p61
ag24
aS'3'
p62
ag53
aS'variable_8'
p63
ag53
aS'variable_9'
p64
ag8
ag26
aS'if'
p65
ag4
aS'variable_13'
p66
aS'>'
p67
ag12
ag22
aS'&&'
p68
aS'variable_1'
p69
aS'->'
p70
aS'variable_15'
p71
ag8
aS'if'
p72
ag4
aS'variable_13'
p73
aS'<'
p74
ag22
ag8
aS'return'
p75
aS'variable_13'
p76
ag26
aa(lp77
S'func_0'
p78
ag4
aS'variable_0'
p79
ag6
aS'variable_1'
p80
ag8
aS'unsigned'
p81
aS'char'
p82
ag6
aS'variable_2'
p83
ag12
ag13
aS'variable_1'
p84
aS'->'
p85
aS'variable_3'
p86
aS'->'
p87
aS'variable_4'
p88
ag19
aS'variable_5'
p89
ag21
ag22
ag23
ag24
ag6
aS'variable_6'
p90
ag26
aS'unsigned'
p91
aS'short'
p92
aS'variable_7'
p93
ag26
aS'unsigned'
p94
aS'int'
p95
aS'variable_8'
p96
ag26
aS'unsigned'
p97
aS'int'
p98
aS'variable_9'
p99
ag12
aS'16'
p100
ag26
aS'variable_7'
p101
ag12
ag6
aS'variable_2'
p102
aS'++'
p103
ag26
aS'if'
p104
ag4
aS'variable_7'
p105
aS'=='
p106
aS'variable_10'
p107
ag8
aS'unsigned'
p108
aS'char'
p109
ag6
aS'variable_11'
p110
ag24
ag6
aS'variable_12'
p111
ag26
aS'variable_11'
p112
ag12
aS'func_1'
p113
ag4
ag52
ag53
ag54
ag53
aS'variable_8'
p114
ag53
aS'variable_9'
p115
ag8
ag26
aS'variable_12'
p116
ag12
aS'variable_11'
p117
ag26
ag6
aS'variable_12'
p118
aS'++'
p119
ag12
aS'variable_13'
p120
ag26
aS'func_2'
p121
ag4
aS'variable_8'
p122
ag24
aS'variable_12'
p123
ag8
ag26
aS'memcpy'
p124
ag4
aS'variable_12'
p125
ag24
aS'variable_6'
p126
ag24
aS'variable_8'
p127
ag8
ag26
aS'variable_12'
p128
aS'+='
p129
aS'variable_8'
p130
ag26
aS'func_3'
p131
ag4
aS'variable_12'
p132
ag24
aS'variable_9'
p133
ag8
ag26
aS'variable_14'
p134
ag12
aS'func_4'
p135
ag4
aS'variable_1'
p136
ag24
aS'variable_15'
p137
ag24
aS'variable_11'
p138
ag24
ag62
ag53
aS'variable_8'
p139
ag53
aS'variable_9'
p140
ag8
ag26
aS'if'
p141
ag4
aS'variable_14'
p142
ag67
ag12
ag22
aS'&&'
p143
aS'variable_1'
p144
aS'->'
p145
aS'variable_16'
p146
ag8
aS'variable_1'
p147
aS'->'
p148
aS'func_5'
p149
ag4
ag52
ag24
aS'variable_1'
p150
aS'->'
p151
aS'variable_17'
p152
ag24
aS'variable_15'
p153
ag24
aS'variable_11'
p154
ag24
ag62
ag53
aS'variable_8'
p155
ag53
aS'variable_9'
p156
ag24
aS'variable_1'
p157
ag24
aS'variable_1'
p158
aS'->'
p159
aS'variable_18'
p160
ag8
ag26
aS'func_6'
p161
ag4
aS'variable_11'
p162
ag8
ag26
aS'if'
p163
ag4
aS'variable_14'
p164
ag74
ag22
ag8
aS'return'
p165
aS'variable_14'
p166
ag26
aaa(lp167
I0
aI0
aa(lp168
I91
aI71
aa(lp169
(lp170
S'main'
p171
aa(lp172
g171
aaa(lp173
S'604 /home/SySeVR/data/CVE_2014_0160_VULN_dtls1_process_heartbeat.c r = dtls1_write_bytes ( s , TLS1_RT_HEARTBEAT , buffer , 3 + payload + padding ) 39'
p174
aS'605 /home/SySeVR/data/CVE_2014_0160_VULN_dtls1_process_heartbeat.c buffer = OPENSSL_malloc ( 1 + 2 + payload + padding ) 28'
p175
aa.