(lp0
(lp1
(lp2
S'int'
p3
aS'func_0'
p4
aS'('
p5
aS'struct'
p6
aS'variable_0'
p7
aS'*'
p8
aS'variable_1'
p9
aS','
p10
aS'int'
p11
aS'variable_2'
p12
aS')'
p13
aS'struct'
p14
aS'variable_3'
p15
ag8
aS'variable_4'
p16
aS';'
p17
aS'unsigned'
p18
aS'long'
p19
aS'variable_5'
p20
ag17
aS'variable_5'
p21
aS'='
p22
aS'func_1'
p23
ag5
aS'NULL'
p24
ag10
aS'0'
p25
ag10
aS'variable_6'
p26
ag10
ag25
ag10
ag25
ag13
ag17
aS'if'
p27
ag5
aS'func_2'
p28
ag5
aS'variable_5'
p29
ag13
ag13
aS'variable_4'
p30
ag22
aS'func_3'
p31
ag5
aS'variable_7'
p32
ag10
aS'variable_8'
p33
ag13
ag17
aS'if'
p34
ag5
aS'!'
p35
aS'variable_4'
p36
ag13
aS'variable_4'
p37
aS'->'
p38
aS'variable_9'
p39
ag22
aS'variable_5'
p40
ag17
aS'variable_4'
p41
aS'->'
p42
aS'variable_10'
p43
ag22
aS'variable_5'
p44
aS'+'
p45
aS'variable_6'
p46
ag17
aS'variable_4'
p47
aS'->'
p48
aS'variable_11'
p49
ag22
aS'variable_12'
p50
aS'|'
p51
aS'variable_13'
p52
ag51
aS'variable_14'
p53
ag51
aS'variable_15'
p54
ag51
aS'variable_16'
p55
ag17
aS'variable_4'
p56
aS'->'
p57
aS'variable_11'
p58
ag51
ag22
aS'variable_17'
p59
ag17
aS'variable_4'
p60
aS'->'
p61
aS'variable_11'
p62
ag51
ag22
aS'variable_18'
p63
aS'->'
p64
aS'variable_19'
p65
ag17
aS'variable_4'
p66
aS'->'
p67
aS'variable_20'
p68
ag22
aS'variable_21'
p69
aS'['
p70
aS'variable_4'
p71
aS'->'
p72
aS'variable_11'
p73
aS'&'
p74
aS'7'
p75
aS']'
p76
ag17
aS'variable_4'
p77
aS'->'
p78
aS'variable_22'
p79
ag22
ag74
aS'variable_23'
p80
ag17
aS'variable_4'
p81
aS'->'
p82
aS'variable_24'
p83
ag22
aS'variable_18'
p84
ag17
aS'variable_25'
p85
ag22
aS'func_4'
p86
ag5
aS'variable_18'
p87
ag10
aS'variable_4'
p88
ag13
ag17
aS'if'
p89
ag5
aS'func_5'
p90
ag5
aS'variable_25'
p91
ag13
ag13
aS'func_6'
p92
ag5
aS'variable_7'
p93
ag10
aS'variable_4'
p94
ag13
ag17
aS'return'
p95
aS'variable_25'
p96
ag17
aaa(lp97
I0
aa(lp98
I68
aa(lp99
(lp100
S'main'
p101
aaa(lp102
S'48 /home/SySeVR/data/CVE_2008_3527_VULN_arch_setup_additional_pages.c vma -> vm_end = addr + PAGE_SIZE 22'
p103
aa.