(lp0
(lp1
(lp2
S'func_0'
p3
aS'('
p4
aS'unsigned'
p5
aS'char'
p6
aS'*'
p7
aS'variable_0'
p8
aS','
p9
aS'size_t'
p10
aS'variable_1'
p11
ag9
aS'size_t'
p12
aS'variable_2'
p13
ag9
aS'int'
p14
ag7
aS'variable_3'
p15
aS')'
p16
aS'unsigned'
p17
aS'char'
p18
ag7
aS'variable_4'
p19
aS'='
p20
aS'variable_0'
p21
aS';'
p22
aS'unsigned'
p23
aS'char'
p24
ag7
aS'variable_5'
p25
ag20
aS'variable_6'
p26
ag22
aS'unsigned'
p27
aS'char'
p28
ag7
aS'variable_7'
p29
ag20
aS'variable_4'
p30
aS'+'
p31
aS'variable_1'
p32
ag22
aS'unsigned'
p33
aS'char'
p34
ag7
aS'variable_8'
p35
ag20
aS'variable_5'
p36
ag31
aS'variable_2'
p37
ag22
aS'unsigned'
p38
aS'int'
p39
aS'variable_9'
p40
ag22
aS'unsigned'
p41
aS'int'
p42
aS'variable_10'
p43
ag20
aS'0'
p44
ag22
aS'unsigned'
p45
aS'int'
p46
aS'variable_11'
p47
ag22
aS'unsigned'
p48
aS'int'
p49
aS'variable_12'
p50
ag22
aS'int'
p51
aS'variable_13'
p52
ag22
aS'int'
p53
aS'variable_14'
p54
ag22
aS'if'
p55
ag4
aS'variable_1'
p56
aS'>'
p57
aS'variable_15'
p58
ag16
aS'variable_9'
p59
ag20
ag44
ag22
aS'while'
p60
ag4
aS'variable_4'
p61
aS'<'
p62
aS'variable_7'
p63
ag16
aS'variable_9'
p64
ag20
aS'variable_9'
p65
aS'>>'
p66
aS'1'
p67
ag22
aS'if'
p68
ag4
ag44
aS'=='
p69
aS'variable_9'
p70
ag16
aS'if'
p71
ag4
aS'variable_4'
p72
ag31
aS'2'
p73
ag57
ag20
aS'variable_7'
p74
ag16
aS'variable_9'
p75
ag20
aS'0x8000'
p76
ag22
aS'variable_10'
p77
ag20
aS'func_1'
p78
ag4
aS'variable_4'
p79
ag16
ag22
aS'variable_4'
p80
aS'+='
p81
ag73
ag22
aS'if'
p82
ag4
aS'!'
p83
ag4
aS'variable_9'
p84
aS'&'
p85
aS'variable_10'
p86
ag16
ag16
aS'if'
p87
ag4
aS'variable_5'
p88
ag31
ag67
ag57
aS'variable_8'
p89
ag16
ag7
ag4
aS'variable_5'
p90
aS'++'
p91
ag16
ag20
ag7
ag4
aS'variable_4'
p92
aS'++'
p93
ag16
ag22
aS'variable_11'
p94
ag20
ag4
aS'unsigned'
p95
aS'int'
p96
ag16
ag4
ag4
ag7
aS'variable_4'
p97
ag16
aS'>>'
p98
aS'4'
p99
ag16
ag85
aS'0xF'
p100
ag22
aS'variable_12'
p101
ag20
ag4
aS'unsigned'
p102
aS'int'
p103
ag16
ag4
ag4
ag7
aS'variable_4'
p104
ag16
ag85
aS'0xF'
p105
ag16
ag22
aS'variable_4'
p106
aS'++'
p107
ag22
aS'if'
p108
ag4
aS'variable_4'
p109
ag57
ag20
aS'variable_7'
p110
ag16
aS'switch'
p111
ag4
aS'variable_11'
p112
ag16
aS'variable_13'
p113
ag20
aS'variable_12'
p114
ag31
aS'3'
p115
ag22
aS'if'
p116
ag4
aS'variable_5'
p117
ag31
aS'variable_13'
p118
ag57
aS'variable_8'
p119
ag16
aS'memset'
p120
ag4
aS'variable_5'
p121
ag9
ag7
aS'variable_4'
p122
aS'++'
p123
ag9
aS'variable_13'
p124
ag16
ag22
aS'variable_5'
p125
aS'+='
p126
aS'variable_13'
p127
ag22
aS'variable_13'
p128
ag20
aS'variable_12'
p129
ag31
ag4
ag4
aS'unsigned'
p130
aS'int'
p131
ag16
ag4
ag7
aS'variable_4'
p132
aS'++'
p133
ag16
aS'<<'
p134
ag99
ag16
ag31
aS'19'
p135
ag22
aS'if'
p136
ag4
aS'variable_4'
p137
ag57
ag20
aS'variable_7'
p138
ag16
aS'if'
p139
ag4
aS'variable_5'
p140
ag31
aS'variable_13'
p141
ag57
aS'variable_8'
p142
ag16
aS'memset'
p143
ag4
aS'variable_5'
p144
ag9
ag7
aS'variable_4'
p145
aS'++'
p146
ag9
aS'variable_13'
p147
ag16
ag22
aS'variable_5'
p148
aS'+='
p149
aS'variable_13'
p150
ag22
aS'variable_14'
p151
ag20
aS'variable_12'
p152
ag31
ag4
ag4
aS'unsigned'
p153
aS'int'
p154
ag16
ag4
ag7
aS'variable_4'
p155
aS'++'
p156
ag16
aS'<<'
p157
ag99
ag16
ag31
ag115
ag22
aS'if'
p158
ag4
aS'variable_4'
p159
ag57
ag20
aS'variable_7'
p160
ag16
aS'if'
p161
ag4
aS'variable_5'
p162
aS'-'
p163
aS'variable_14'
p164
ag62
aS'variable_6'
p165
ag16
aS'variable_13'
p166
ag20
ag4
aS'unsigned'
p167
aS'int'
p168
ag16
ag4
ag7
aS'variable_4'
p169
aS'++'
p170
ag16
ag31
aS'16'
p171
ag22
aS'if'
p172
ag4
aS'variable_5'
p173
ag31
aS'variable_13'
p174
ag57
aS'variable_8'
p175
ag16
aS'if'
p176
ag4
aS'variable_5'
p177
ag163
aS'variable_14'
p178
ag31
aS'variable_13'
p179
ag57
aS'variable_5'
p180
ag16
aS'memcpy'
p181
ag4
aS'variable_5'
p182
ag9
aS'variable_5'
p183
ag163
aS'variable_14'
p184
ag9
aS'variable_13'
p185
ag16
ag22
aS'variable_5'
p186
aS'+='
p187
aS'variable_13'
p188
ag22
aS'variable_14'
p189
ag20
aS'variable_12'
p190
ag31
ag4
ag4
aS'unsigned'
p191
aS'int'
p192
ag16
ag4
ag7
aS'variable_4'
p193
aS'++'
p194
ag16
aS'<<'
p195
ag99
ag16
ag31
ag115
ag22
aS'if'
p196
ag4
aS'variable_5'
p197
ag163
aS'variable_14'
p198
ag62
aS'variable_6'
p199
ag16
aS'variable_13'
p200
ag20
aS'variable_11'
p201
ag22
aS'if'
p202
ag4
aS'variable_5'
p203
ag31
aS'variable_13'
p204
ag57
aS'variable_8'
p205
ag16
aS'if'
p206
ag4
aS'variable_5'
p207
ag163
aS'variable_14'
p208
ag31
aS'variable_13'
p209
ag57
aS'variable_5'
p210
ag16
aS'memcpy'
p211
ag4
aS'variable_5'
p212
ag9
aS'variable_5'
p213
ag163
aS'variable_14'
p214
ag9
aS'variable_13'
p215
ag16
ag22
aS'variable_5'
p216
aS'+='
p217
aS'variable_13'
p218
ag22
aS'return'
p219
ag4
aS'int'
p220
ag16
ag4
aS'variable_5'
p221
ag163
aS'variable_6'
p222
ag16
ag22
aaa(lp223
I0
aa(lp224
I262
aa(lp225
(lp226
S'main'
p227
aaa(lp228
S'140 /home/SySeVR/data/CVE_2014_6432_PATCHED_SnifferDecompress.c memset 115'
p229
aa.