(lp0
(lp1
(lp2
S'func_0'
p3
aS'('
p4
aS'unsigned'
p5
aS'char'
p6
aS'*'
p7
aS'variable_0'
p8
aS','
p9
aS'size_t'
p10
aS'variable_1'
p11
ag9
aS'size_t'
p12
aS'variable_2'
p13
ag9
aS'int'
p14
ag7
aS'variable_3'
p15
aS')'
p16
aS'unsigned'
p17
aS'char'
p18
ag7
aS'variable_4'
p19
aS'='
p20
aS'variable_5'
p21
aS';'
p22
aS'unsigned'
p23
aS'char'
p24
ag7
aS'variable_6'
p25
ag20
aS'variable_4'
p26
aS'+'
p27
aS'variable_2'
p28
ag22
aS'if'
p29
ag4
aS'variable_4'
p30
ag27
aS'1'
p31
aS'>'
p32
aS'variable_6'
p33
ag16
aS'if'
p34
ag4
aS'variable_4'
p35
ag27
aS'variable_7'
p36
ag32
aS'variable_6'
p37
ag16
aS'if'
p38
ag4
aS'variable_4'
p39
ag27
aS'variable_7'
p40
ag32
aS'variable_6'
p41
ag16
aS'if'
p42
ag4
aS'variable_4'
p43
ag27
aS'variable_7'
p44
ag32
aS'variable_6'
p45
ag16
aS'if'
p46
ag4
aS'variable_4'
p47
ag27
aS'variable_7'
p48
ag32
aS'variable_6'
p49
ag16
aa(lp50
S'func_0'
p51
ag4
aS'unsigned'
p52
aS'char'
p53
ag7
aS'variable_0'
p54
ag9
aS'size_t'
p55
aS'variable_1'
p56
ag9
aS'size_t'
p57
aS'variable_2'
p58
ag9
aS'int'
p59
ag7
aS'variable_3'
p60
ag16
aS'unsigned'
p61
aS'char'
p62
ag7
aS'variable_4'
p63
ag20
aS'variable_0'
p64
ag22
aS'unsigned'
p65
aS'char'
p66
ag7
aS'variable_5'
p67
ag20
aS'variable_4'
p68
ag27
aS'variable_1'
p69
ag22
aS'while'
p70
ag4
aS'variable_4'
p71
aS'<'
p72
aS'variable_5'
p73
ag16
aS'if'
p74
ag4
aS'variable_4'
p75
ag27
aS'2'
p76
ag32
ag20
aS'variable_5'
p77
ag16
aS'if'
p78
ag4
aS'variable_4'
p79
ag32
ag20
aS'variable_5'
p80
ag16
aS'if'
p81
ag4
aS'variable_4'
p82
ag32
ag20
aS'variable_5'
p83
ag16
aS'if'
p84
ag4
aS'variable_4'
p85
ag32
ag20
aS'variable_5'
p86
ag16
aaa(lp87
I0
aI0
aa(lp88
I33
aI33
aa(lp89
(lp90
S'main'
p91
aa(lp92
g91
aaa(lp93
S'921 /home/SySeVR/data/CVE_2014_6432_PATCHED_SnifferDecompress.c unsigned char * pout_end = pout + outlen ; 8'
p94
aS'922 /home/SySeVR/data/CVE_2014_6432_PATCHED_SnifferDecompress.c unsigned char * pin_end = pin + inlen ; 7'
p95
aa.