(lp0
(lp1
(lp2
S'static'
p3
aS'int'
p4
aS'func_0'
p5
aS'('
p6
aS'variable_0'
p7
aS'*'
p8
aS'variable_1'
p9
aS')'
p10
aS'GetBitContext'
p11
aS'variable_2'
p12
aS';'
p13
aS'int'
p14
aS'variable_3'
p15
ag13
aS'if'
p16
ag6
aS'func_1'
p17
ag6
aS'variable_1'
p18
aS'->'
p19
aS'variable_4'
p20
aS'['
p21
aS'0'
p22
aS']'
p23
aS','
p24
aS'&'
p25
aS'variable_2'
p26
ag10
aS'<'
p27
ag22
ag10
aS'if'
p28
ag6
aS'func_2'
p29
ag6
aS'variable_1'
p30
aS'->'
p31
aS'variable_4'
p32
ag21
aS'1'
p33
ag23
ag24
ag25
aS'variable_2'
p34
ag10
ag27
ag22
ag10
aS'for'
p35
ag6
aS'variable_3'
p36
aS'='
p37
ag22
ag13
aS'variable_3'
p38
ag27
aS'256'
p39
ag13
aS'variable_3'
p40
aS'++'
p41
ag10
aS'variable_1'
p42
aS'->'
p43
aS'variable_5'
p44
ag21
ag22
ag23
ag21
aS'variable_3'
p45
ag23
ag37
aS'variable_6'
p46
ag21
aS'variable_3'
p47
ag23
ag13
aS'for'
p48
ag6
aS'variable_3'
p49
ag37
ag22
ag13
aS'variable_3'
p50
ag27
aS'256'
p51
ag13
aS'variable_3'
p52
aS'++'
p53
ag10
aS'variable_1'
p54
aS'->'
p55
aS'variable_5'
p56
ag21
ag33
ag23
ag21
aS'variable_3'
p57
ag23
ag37
aS'variable_7'
p58
ag21
aS'variable_3'
p59
ag23
ag13
aS'if'
p60
ag6
aS'variable_1'
p61
aS'->'
p62
aS'variable_8'
p63
aS'>'
p64
ag37
aS'24'
p65
ag10
aS'memcpy'
p66
ag6
aS'variable_1'
p67
aS'->'
p68
aS'variable_5'
p69
ag21
ag33
ag23
ag24
aS'variable_1'
p70
aS'->'
p71
aS'variable_5'
p72
ag21
ag22
ag23
ag24
aS'256'
p73
ag8
aS'sizeof'
p74
ag6
aS'variable_9'
p75
ag10
ag10
ag13
aS'memcpy'
p76
ag6
aS'variable_1'
p77
aS'->'
p78
aS'variable_4'
p79
ag21
ag33
ag23
ag24
aS'variable_1'
p80
aS'->'
p81
aS'variable_4'
p82
ag21
ag22
ag23
ag24
aS'256'
p83
ag8
aS'sizeof'
p84
ag6
aS'variable_10'
p85
ag10
ag10
ag13
aS'memcpy'
p86
ag6
aS'variable_1'
p87
aS'->'
p88
aS'variable_5'
p89
ag21
aS'2'
p90
ag23
ag24
aS'variable_1'
p91
aS'->'
p92
aS'variable_5'
p93
ag21
ag33
ag23
ag24
aS'256'
p94
ag8
aS'sizeof'
p95
ag6
aS'variable_9'
p96
ag10
ag10
ag13
aS'memcpy'
p97
ag6
aS'variable_1'
p98
aS'->'
p99
aS'variable_4'
p100
ag21
ag90
ag23
ag24
aS'variable_1'
p101
aS'->'
p102
aS'variable_4'
p103
ag21
ag33
ag23
ag24
aS'256'
p104
ag8
aS'sizeof'
p105
ag6
aS'variable_10'
p106
ag10
ag10
ag13
aS'func_3'
p107
ag6
ag25
aS'variable_1'
p108
aS'->'
p109
aS'variable_11'
p110
ag21
aS'variable_3'
p111
ag23
ag10
ag13
aS'if'
p112
ag6
ag6
aS'variable_12'
p113
ag37
aS'func_4'
p114
ag6
ag25
aS'variable_1'
p115
aS'->'
p116
aS'variable_11'
p117
ag21
aS'variable_3'
p118
ag23
ag24
aS'variable_13'
p119
ag24
aS'256'
p120
ag24
aS'variable_1'
p121
aS'->'
p122
aS'variable_4'
p123
ag21
aS'variable_3'
p124
ag23
ag24
ag33
ag24
ag33
ag24
aS'variable_1'
p125
aS'->'
p126
aS'variable_5'
p127
ag21
aS'variable_3'
p128
ag23
ag24
aS'4'
p129
ag24
ag129
ag24
ag22
ag10
ag10
ag27
ag22
ag10
aS'return'
p130
aS'variable_12'
p131
ag13
aS'func_5'
p132
ag6
aS'variable_1'
p133
ag10
ag13
aaa(lp134
I0
aa(lp135
I184
aa(lp136
(lp137
S'main'
p138
aaa(lp139
S'520 /home/SySeVR/data/CVE_2013_0868_PATCHED_read_old_huffman_tables.c memcpy 25'
p140
aa.