(lp0
(lp1
(lp2
S'static'
p3
aS'int'
p4
aS'func_0'
p5
aS'('
p6
aS'struct'
p7
aS'variable_0'
p8
aS'*'
p9
aS'variable_1'
p10
aS')'
p11
aS'struct'
p12
aS'variable_2'
p13
ag9
aS'variable_3'
p14
aS'='
p15
aS'func_1'
p16
ag6
aS'variable_1'
p17
ag11
aS';'
p18
aS'ext4_group_t'
p19
aS'variable_4'
p20
ag18
aS'size_t'
p21
aS'variable_5'
p22
ag18
aS'variable_3'
p23
aS'->'
p24
aS'variable_6'
p25
ag15
aS'variable_3'
p26
aS'->'
p27
aS'variable_7'
p28
aS'->'
p29
aS'variable_6'
p30
ag18
aS'variable_8'
p31
ag15
aS'1'
p32
aS'<<'
p33
aS'variable_3'
p34
aS'->'
p35
aS'variable_6'
p36
ag18
aS'if'
p37
ag6
aS'variable_8'
p38
aS'<'
p39
aS'2'
p40
ag11
aS'variable_4'
p41
ag15
ag6
ag6
aS'variable_3'
p42
aS'->'
p43
aS'variable_9'
p44
aS'+'
p45
aS'variable_8'
p46
aS'-'
p47
ag32
ag11
ag45
ag6
ag6
aS'func_2'
p48
ag6
aS'variable_3'
p49
aS'->'
p50
aS'variable_7'
p51
aS'->'
p52
aS'variable_10'
p53
ag11
ag45
ag32
ag11
aS'<<'
p54
aS'func_3'
p55
ag6
aS'variable_1'
p56
ag11
ag11
ag11
aS'/'
p57
aS'variable_8'
p58
ag18
aS'variable_5'
p59
ag15
aS'variable_4'
p60
ag9
aS'sizeof'
p61
ag6
aS'struct'
p62
aS'variable_11'
p63
ag11
ag18
aS'variable_3'
p64
aS'->'
p65
aS'variable_12'
p66
ag15
aS'func_4'
p67
ag6
aS'variable_5'
p68
aS','
p69
aS'variable_13'
p70
ag11
ag18
aS'if'
p71
ag6
aS'variable_3'
p72
aS'->'
p73
aS'variable_12'
p74
aS'=='
p75
aS'NULL'
p76
ag11
aS'variable_3'
p77
aS'->'
p78
aS'variable_12'
p79
ag15
aS'vmalloc'
p80
ag6
aS'variable_5'
p81
ag11
ag18
aS'if'
p82
ag6
aS'variable_3'
p83
aS'->'
p84
aS'variable_12'
p85
ag11
aS'memset'
p86
ag6
aS'variable_3'
p87
aS'->'
p88
aS'variable_12'
p89
ag69
aS'0'
p90
ag69
aS'variable_5'
p91
ag11
ag18
aS'if'
p92
ag6
aS'variable_3'
p93
aS'->'
p94
aS'variable_12'
p95
aS'=='
p96
aS'NULL'
p97
ag11
aS'for'
p98
ag6
aS'variable_14'
p99
ag15
ag90
ag18
aS'variable_14'
p100
ag39
aS'variable_3'
p101
aS'->'
p102
aS'variable_9'
p103
ag18
aS'variable_14'
p104
aS'++'
p105
ag11
aS'variable_15'
p106
ag15
aS'func_5'
p107
ag6
aS'variable_3'
p108
ag69
aS'variable_14'
p109
ag11
ag18
aS'func_6'
p110
ag6
aS'&'
p111
aS'variable_3'
p112
aS'->'
p113
aS'variable_12'
p114
aS'['
p115
aS'variable_15'
p116
aS']'
p117
aS'.'
p118
aS'variable_16'
p119
ag69
aS'func_7'
p120
ag6
aS'variable_1'
p121
ag69
aS'variable_17'
p122
ag11
ag11
ag18
aS'func_8'
p123
ag6
ag111
aS'variable_3'
p124
aS'->'
p125
aS'variable_12'
p126
ag115
aS'variable_15'
p127
ag117
ag118
aS'variable_18'
p128
ag69
aS'func_9'
p129
ag6
aS'variable_1'
p130
ag69
aS'variable_17'
p131
ag11
ag11
ag18
aS'func_10'
p132
ag6
ag111
aS'variable_3'
p133
aS'->'
p134
aS'variable_12'
p135
ag115
aS'variable_15'
p136
ag117
ag118
aS'variable_19'
p137
ag69
aS'func_11'
p138
ag6
aS'variable_1'
p139
ag69
aS'variable_17'
p140
ag11
ag11
ag18
aaa(lp141
I0
aa(lp142
I129
aa(lp143
(lp144
S'main'
p145
aaa(lp146
S'46 /home/SySeVR/data/CVE_2009_4307_PATCHED_ext4_fill_flex_info.c memset 28'
p147
aa.