(lp0
(lp1
(lp2
S'int'
p3
aS'func_0'
p4
aS'('
p5
aS'long'
p6
aS'variable_0'
p7
aS','
p8
aS'vm_flags_t'
p9
aS'variable_1'
p10
aS')'
p11
aS'long'
p12
aS'variable_2'
p13
ag8
aS'variable_3'
p14
aS';'
p15
aS'if'
p16
ag5
aS'variable_1'
p17
aS'&'
p18
aS'variable_4'
p19
ag11
aS'if'
p20
ag5
aS'!'
p21
aS'variable_5'
p22
aS'||'
p23
aS'variable_5'
p24
aS'->'
p25
aS'variable_1'
p26
ag18
aS'variable_6'
p27
ag11
aS'struct'
p28
aS'variable_7'
p29
aS'*'
p30
aS'variable_7'
p31
aS'='
p32
aS'func_1'
p33
ag5
ag11
ag15
aS'if'
p34
ag5
ag21
aS'variable_7'
p35
ag11
aS'variable_3'
p36
ag32
aS'variable_8'
p37
aS'-'
p38
aS'variable_0'
p39
ag15
aS'if'
p40
ag5
aS'variable_3'
p41
aS'<'
p42
aS'0'
p43
ag11
aS'return'
p44
aS'variable_3'
p45
ag15
aS'if'
p46
ag5
aS'func_2'
p47
ag5
aS'variable_9'
p48
ag8
aS'variable_3'
p49
ag11
ag11
aS'variable_2'
p50
ag32
aS'func_3'
p51
ag5
aS'variable_10'
p52
ag8
aS'variable_3'
p53
ag11
ag15
aS'if'
p54
ag5
aS'variable_2'
p55
ag42
ag43
ag11
aS'func_4'
p56
ag5
aS'variable_9'
p57
ag8
aS'variable_3'
p58
ag11
ag15
aS'return'
p59
aS'variable_2'
p60
ag15
aaa(lp61
I1
aa(lp62
I51
aa(lp63
(lp64
S'main'
p65
aaa(lp66
S'304 /home/SySeVR/data/CVE_2012_2390_VULN_hugetlb_reserve_pages.c chg = to - from 31'
p67
aa.