(lp0
(lp1
(lp2
S'func_0'
p3
aS'('
p4
aS'variable_0'
p5
aS'*'
p6
aS'variable_1'
p7
aS','
p8
aS'variable_2'
p9
ag6
aS'variable_3'
p10
ag8
aS'int'
p11
aS'variable_4'
p12
ag8
aS'guint16'
p13
aS'variable_5'
p14
ag8
aS'gboolean'
p15
aS'variable_6'
p16
ag8
aS'variable_7'
p17
ag6
aS'variable_8'
p18
aS')'
p19
aS'guint8'
p20
aS'variable_9'
p21
ag8
aS'variable_10'
p22
ag8
aS'variable_11'
p23
aS';'
p24
aS'variable_4'
p25
aS'++'
p26
ag24
aS'if'
p27
ag4
aS'variable_8'
p28
aS'->'
p29
aS'variable_12'
p30
aS'=='
p31
aS'variable_13'
p32
ag19
aS'variable_4'
p33
aS'='
p34
aS'variable_4'
p35
aS'+'
p36
aS'variable_11'
p37
ag24
aS'variable_10'
p38
ag34
aS'func_1'
p39
ag4
aS'variable_1'
p40
ag8
aS'variable_4'
p41
ag19
ag24
aS'if'
p42
ag4
aS'variable_10'
p43
aS'=='
p44
aS'variable_14'
p45
ag19
aS'func_2'
p46
ag4
aS'variable_15'
p47
ag8
aS'variable_16'
p48
ag8
aS'variable_1'
p49
ag8
aS'variable_4'
p50
ag8
aS'1'
p51
ag8
aS'variable_17'
p52
ag19
ag24
aS'variable_4'
p53
aS'++'
p54
ag24
aS'func_3'
p55
ag4
aS'variable_15'
p56
ag8
aS'variable_18'
p57
ag8
aS'variable_1'
p58
ag8
aS'variable_4'
p59
ag8
ag51
ag8
aS'variable_17'
p60
ag19
ag24
aS'variable_4'
p61
aS'++'
p62
ag24
aS'variable_19'
p63
aS'->'
p64
aS'variable_10'
p65
ag34
aS'variable_10'
p66
ag24
aS'variable_19'
p67
aS'->'
p68
aS'variable_20'
p69
ag34
aS'variable_21'
p70
ag24
aS'variable_19'
p71
aS'->'
p72
aS'variable_22'
p73
ag34
aS'variable_23'
p74
aS'->'
p75
aS'variable_24'
p76
aS'->'
p77
aS'variable_25'
p78
ag24
aS'variable_19'
p79
aS'->'
p80
aS'variable_26'
p81
ag34
aS'variable_27'
p82
ag24
aS'variable_19'
p83
aS'->'
p84
aS'variable_28'
p85
ag34
aS'variable_29'
p86
ag24
aS'func_4'
p87
ag4
aS'variable_30'
p88
ag8
aS'func_5'
p89
ag4
aS'variable_31'
p90
ag19
ag8
aS'variable_19'
p91
ag19
ag24
aS'func_6'
p92
ag4
aS'variable_23'
p93
aS'->'
p94
aS'variable_24'
p95
ag8
aS'variable_32'
p96
ag8
aS'variable_19'
p97
ag19
ag24
aS'variable_19'
p98
aS'->'
p99
aS'variable_10'
p100
ag34
aS'variable_10'
p101
ag24
aS'variable_19'
p102
aS'->'
p103
aS'variable_20'
p104
ag34
aS'-'
p105
ag51
ag24
aS'variable_19'
p106
aS'->'
p107
aS'variable_22'
p108
ag34
aS'variable_23'
p109
aS'->'
p110
aS'variable_24'
p111
aS'->'
p112
aS'variable_25'
p113
ag24
aS'variable_19'
p114
aS'->'
p115
aS'variable_26'
p116
ag34
aS'variable_8'
p117
aS'->'
p118
aS'variable_26'
p119
ag24
aS'variable_19'
p120
aS'->'
p121
aS'variable_28'
p122
ag34
aS'variable_8'
p123
aS'->'
p124
aS'variable_28'
p125
ag24
aS'func_7'
p126
ag4
aS'variable_30'
p127
ag8
aS'func_8'
p128
ag4
aS'variable_31'
p129
ag19
ag8
aS'variable_19'
p130
ag19
ag24
aS'func_9'
p131
ag4
aS'variable_23'
p132
aS'->'
p133
aS'variable_24'
p134
ag8
aS'variable_32'
p135
ag8
aS'variable_19'
p136
ag19
ag24
aS'switch'
p137
ag4
aS'variable_10'
p138
ag19
aS'variable_33'
p139
ag34
aS'func_10'
p140
ag4
aS'variable_1'
p141
ag8
aS'variable_4'
p142
ag19
ag24
aS'func_11'
p143
ag4
aS'variable_34'
p144
ag8
aS'variable_33'
p145
ag8
aS'variable_23'
p146
ag8
aS'variable_3'
p147
ag19
ag24
aS'func_12'
p148
ag4
aS'variable_35'
p149
ag8
aS'variable_33'
p150
ag8
aS'variable_23'
p151
ag8
aS'variable_3'
p152
ag19
ag24
aS'variable_4'
p153
ag34
aS'func_13'
p154
ag4
aS'variable_1'
p155
ag8
aS'variable_15'
p156
ag8
aS'variable_23'
p157
ag8
aS'variable_4'
p158
ag8
aS'variable_36'
p159
ag8
aS'variable_10'
p160
ag8
aS'variable_19'
p161
ag19
ag24
aS'variable_4'
p162
ag34
aS'func_14'
p163
ag4
aS'variable_1'
p164
ag8
aS'variable_15'
p165
ag8
aS'variable_23'
p166
ag8
aS'variable_4'
p167
ag8
aS'variable_36'
p168
ag8
aS'variable_10'
p169
ag8
aS'variable_19'
p170
ag19
ag24
aS'func_15'
p171
ag4
aS'variable_15'
p172
ag8
aS'variable_1'
p173
ag8
aS'variable_4'
p174
ag8
aS'variable_37'
p175
ag8
aS'"'
p176
aS'profile'
p177
ag105
aS'specific'
p178
aS'information'
p179
aS'['
p180
aS'Not'
p181
aS'dissected'
p182
aS'yet'
p183
aS']'
p184
ag176
ag19
ag24
aS'if'
p185
ag4
aS'variable_4'
p186
aS'!='
p187
ag105
ag51
ag19
aS'func_16'
p188
ag4
aS'variable_38'
p189
ag8
aS'variable_4'
p190
ag105
aS'variable_39'
p191
ag19
ag24
aS'return'
p192
aS'variable_4'
p193
ag24
aaa(lp194
I0
aa(lp195
I45
aa(lp196
(lp197
S'main'
p198
aaa(lp199
S'461 /home/SySeVR/data/CVE_2013_1587_PATCHED_dissect_rohc_ir_packet.c offset = offset + val_len 65'
p200
aa.