(lp0
(lp1
(lp2
S'static'
p3
aS'void'
p4
aS'func_0'
p5
aS'('
p6
aS'variable_0'
p7
aS'*'
p8
aS'variable_1'
p9
aS','
p10
aS'variable_0'
p11
ag8
aS'variable_2'
p12
ag10
aS'variable_0'
p13
ag8
aS'variable_3'
p14
ag10
aS'int'
p15
aS'variable_4'
p16
aS')'
p17
aS'long'
p18
aS'variable_5'
p19
aS';'
p20
aS'for'
p21
ag6
aS'variable_5'
p22
aS'='
p23
aS'0'
p24
ag20
aS'variable_5'
p25
aS'<'
p26
ag23
aS'variable_4'
p27
aS'-'
p28
ag6
aS'int'
p29
ag17
aS'sizeof'
p30
ag6
aS'long'
p31
ag17
ag20
aS'variable_5'
p32
aS'+='
p33
aS'sizeof'
p34
ag6
aS'long'
p35
ag17
ag17
aS'long'
p36
aS'variable_6'
p37
ag23
ag8
ag6
aS'long'
p38
ag8
ag17
ag6
aS'variable_2'
p39
aS'+'
p40
aS'variable_5'
p41
ag17
ag20
aS'long'
p42
aS'variable_7'
p43
ag23
ag8
ag6
aS'long'
p44
ag8
ag17
ag6
aS'variable_3'
p45
ag40
aS'variable_5'
p46
ag17
ag20
ag8
ag6
aS'long'
p47
ag8
ag17
ag6
aS'variable_1'
p48
ag40
aS'variable_5'
p49
ag17
ag23
ag6
ag6
aS'variable_6'
p50
aS'&'
p51
aS'variable_8'
p52
ag17
ag40
ag6
aS'variable_7'
p53
ag51
aS'variable_8'
p54
ag17
ag17
aS'^'
p55
ag6
ag6
aS'variable_6'
p56
ag55
aS'variable_7'
p57
ag17
ag51
aS'variable_9'
p58
ag17
ag20
aS'for'
p59
ag6
ag20
aS'variable_5'
p60
ag26
aS'variable_4'
p61
ag20
aS'variable_5'
p62
aS'++'
p63
ag17
aS'variable_1'
p64
aS'['
p65
aS'variable_5'
p66
aS']'
p67
ag23
aS'variable_2'
p68
ag65
aS'variable_5'
p69
ag67
ag40
aS'variable_3'
p70
ag65
aS'variable_5'
p71
ag67
ag20
aaa(lp72
I0
aa(lp73
I74
aa(lp74
(lp75
S'main'
p76
aaa(lp77
S'853 /home/SySeVR/data/CVE_2013_7014_PATCHED_add_bytes_l2_c.c long b = * ( long * ) ( src2 + i ) ; 6'
p78
aa.