(lp0
(lp1
(lp2
S'static'
p3
aS'int'
p4
aS'func_0'
p5
aS'('
p6
aS'int'
p7
aS'variable_0'
p8
aS','
p9
aS'variable_1'
p10
aS'*'
p11
aS'variable_2'
p12
ag9
aS'variable_3'
p13
ag11
aS'variable_4'
p14
ag9
aS'variable_5'
p15
ag11
aS'variable_6'
p16
ag9
aS'guint16'
p17
aS'variable_7'
p18
ag9
aS'guint16'
p19
aS'variable_8'
p20
aS')'
p21
aS'variable_9'
p22
ag11
aS'variable_10'
p23
aS';'
p24
aS'variable_5'
p25
ag11
aS'variable_11'
p26
ag24
aS'guint16'
p27
aS'variable_12'
p28
aS'='
p29
aS'0'
p30
ag24
aS'int'
p31
aS'variable_13'
p32
ag29
aS'variable_14'
p33
ag24
aS'if'
p34
ag6
aS'variable_0'
p35
aS'>'
p36
ag29
ag30
ag21
aS'variable_13'
p37
ag29
aS'variable_0'
p38
ag24
aS'variable_10'
p39
ag29
aS'func_1'
p40
ag6
aS'variable_6'
p41
ag9
aS'variable_13'
p42
ag9
aS'variable_2'
p43
ag9
aS'variable_7'
p44
ag9
aS'variable_8'
p45
ag9
aS'variable_15'
p46
ag21
ag24
aS'variable_11'
p47
ag29
aS'func_2'
p48
ag6
aS'variable_10'
p49
ag9
aS'variable_16'
p50
ag21
ag24
aS'variable_12'
p51
aS'+='
p52
aS'8'
p53
ag24
aS'variable_12'
p54
aS'+='
p55
ag53
ag24
aS'variable_17'
p56
ag29
aS'func_3'
p57
ag6
aS'variable_2'
p58
ag9
aS'variable_7'
p59
aS'+'
p60
aS'variable_12'
p61
ag21
ag24
aS'variable_12'
p62
aS'+='
p63
aS'4'
p64
ag24
aS'variable_12'
p65
aS'+='
p66
aS'func_4'
p67
ag6
aS'variable_2'
p68
ag9
aS'variable_11'
p69
ag9
aS'variable_7'
p70
ag60
aS'variable_12'
p71
ag21
ag24
aS'if'
p72
ag6
aS'variable_12'
p73
ag60
aS'variable_17'
p74
ag36
aS'variable_8'
p75
ag21
aS'variable_17'
p76
ag29
aS'variable_8'
p77
aS'-'
p78
aS'variable_12'
p79
ag24
aS'if'
p80
ag6
aS'variable_17'
p81
ag36
ag30
ag21
aS'variable_9'
p82
ag11
aS'variable_18'
p83
ag24
aS'variable_5'
p84
ag11
aS'variable_19'
p85
ag24
aS'guint32'
p86
aS'variable_20'
p87
ag29
ag30
ag24
aS'variable_18'
p88
ag29
aS'func_5'
p89
ag6
aS'variable_11'
p90
ag9
aS'variable_21'
p91
ag9
aS'variable_2'
p92
ag9
aS'variable_7'
p93
ag60
aS'variable_12'
p94
ag9
aS'variable_17'
p95
ag9
aS'variable_15'
p96
ag21
ag24
aS'variable_19'
p97
ag29
aS'func_6'
p98
ag6
aS'variable_18'
p99
ag9
aS'variable_22'
p100
ag21
ag24
aS'variable_23'
p101
ag29
aS'func_7'
p102
ag6
aS'variable_2'
p103
ag9
aS'variable_7'
p104
ag60
aS'variable_12'
p105
ag21
ag24
aS'if'
p106
ag6
aS'variable_23'
p107
ag60
ag64
ag36
aS'variable_17'
p108
ag21
aS'variable_23'
p109
ag29
aS'variable_17'
p110
ag78
ag64
ag24
aS'while'
p111
ag6
aS'variable_20'
p112
aS'<'
p113
aS'variable_23'
p114
ag21
aS'int'
p115
aS'variable_24'
p116
ag29
aS'func_8'
p117
ag6
aS'variable_2'
p118
ag9
aS'variable_4'
p119
ag9
aS'variable_19'
p120
ag9
aS'variable_7'
p121
ag60
ag64
ag60
aS'variable_12'
p122
ag60
aS'variable_20'
p123
ag9
aS'variable_23'
p124
ag78
aS'variable_20'
p125
ag21
ag24
aS'if'
p126
ag6
aS'variable_24'
p127
ag113
ag29
ag30
ag21
aS'variable_20'
p128
aS'+='
p129
aS'variable_24'
p130
ag24
aaa(lp131
I0
aa(lp132
I230
aa(lp133
(lp134
S'main'
p135
aaa(lp136
S'836 /home/SySeVR/data/CVE_2013_2486_PATCHED_dissect_diagnosticrequest.c int local_increment = dissect_diagnosticextension ( tvb , pinfo , extensions_tree , offset + 4 + local_offset + extensions_offset , extensions_length - extensions_offset ) ; 46'
p137
aa.