(lp0
(lp1
(lp2
S'static'
p3
aS'int'
p4
aS'func_0'
p5
aS'('
p6
aS'struct'
p7
aS'variable_0'
p8
aS'*'
p9
aS'variable_1'
p10
aS','
p11
aS'char'
p12
aS'variable_2'
p13
ag9
aS'variable_3'
p14
ag11
aS'int'
p15
aS'variable_2'
p16
ag9
aS'variable_4'
p17
aS')'
p18
aS'struct'
p19
aS'variable_5'
p20
ag9
aS'variable_6'
p21
aS';'
p22
aS'struct'
p23
aS'variable_7'
p24
ag9
aS'variable_8'
p25
ag22
aS'struct'
p26
aS'sctp_getaddrs_old'
p27
aS'variable_9'
p28
ag22
aS'struct'
p29
aS'variable_10'
p30
ag9
aS'variable_11'
p31
ag22
aS'union'
p32
aS'sctp_addr'
p33
aS'variable_12'
p34
ag22
aS'int'
p35
aS'variable_13'
p36
ag22
aS'void'
p37
ag9
aS'variable_14'
p38
ag22
aS'void'
p39
ag9
aS'variable_15'
p40
ag22
aS'if'
p41
ag6
aS'variable_16'
p42
aS'<'
p43
aS'sizeof'
p44
ag6
aS'struct'
p45
aS'variable_17'
p46
ag18
ag18
aS'variable_16'
p47
aS'='
p48
aS'sizeof'
p49
ag6
aS'struct'
p50
aS'variable_17'
p51
ag18
ag22
aS'if'
p52
ag6
aS'func_1'
p53
ag6
aS'&'
p54
aS'variable_9'
p55
ag11
aS'variable_3'
p56
ag11
aS'variable_16'
p57
ag18
ag18
aS'if'
p58
ag6
aS'variable_9'
p59
aS'.'
p60
aS'variable_18'
p61
ag43
ag48
aS'0'
p62
ag18
aS'if'
p63
ag6
ag62
aS'=='
p64
aS'variable_9'
p65
ag60
aS'variable_19'
p66
ag18
aS'variable_6'
p67
ag48
ag54
aS'func_2'
p68
ag6
aS'variable_1'
p69
ag18
aS'->'
p70
aS'variable_20'
p71
aS'->'
p72
aS'variable_21'
p73
ag60
aS'variable_22'
p74
ag22
aS'variable_8'
p75
ag48
aS'func_3'
p76
ag6
aS'variable_1'
p77
ag11
aS'variable_9'
p78
ag60
aS'variable_19'
p79
ag18
ag22
aS'if'
p80
ag6
aS'!'
p81
aS'variable_8'
p82
ag18
aS'variable_6'
p83
ag48
ag54
aS'variable_8'
p84
aS'->'
p85
aS'variable_21'
p86
ag60
aS'variable_22'
p87
ag22
aS'variable_14'
p88
ag48
aS'kmalloc'
p89
ag6
aS'sizeof'
p90
ag6
aS'union'
p91
aS'variable_23'
p92
ag18
ag9
aS'variable_9'
p93
ag60
aS'variable_18'
p94
ag11
aS'variable_24'
p95
ag18
ag22
aS'if'
p96
ag6
ag81
aS'variable_14'
p97
ag18
aS'if'
p98
ag6
aS'func_4'
p99
ag6
ag54
aS'variable_6'
p100
aS'->'
p101
aS'variable_25'
p102
ag18
ag18
aS'variable_11'
p103
ag48
aS'func_5'
p104
ag6
aS'variable_6'
p105
aS'->'
p106
aS'variable_25'
p107
ag60
aS'struct'
p108
aS'variable_10'
p109
ag11
aS'variable_26'
p110
ag18
aS'if'
p111
ag6
aS'func_6'
p112
ag6
ag54
aS'variable_11'
p113
aS'->'
p114
aS'variable_27'
p115
ag18
ag18
aS'variable_15'
p116
ag48
aS'variable_14'
p117
ag22
aS'memcpy'
p118
ag6
ag54
aS'variable_12'
p119
ag11
ag54
aS'variable_11'
p120
aS'->'
p121
aS'variable_27'
p122
ag11
aS'sizeof'
p123
ag6
aS'variable_12'
p124
ag18
ag18
ag22
aS'variable_13'
p125
ag48
aS'func_7'
p126
ag6
aS'variable_12'
p127
ag60
aS'variable_28'
p128
ag60
aS'variable_29'
p129
ag18
aS'->'
p130
aS'variable_30'
p131
ag22
aS'memcpy'
p132
ag6
aS'variable_15'
p133
ag11
ag54
aS'variable_12'
p134
ag11
aS'variable_13'
p135
ag18
ag22
aS'variable_15'
p136
aS'+='
p137
aS'variable_13'
p138
ag22
aa(lp139
S'static'
p140
aS'int'
p141
aS'func_0'
p142
ag6
aS'struct'
p143
aS'variable_0'
p144
ag9
aS'variable_1'
p145
ag11
aS'char'
p146
aS'variable_2'
p147
ag9
aS'variable_3'
p148
ag11
aS'int'
p149
aS'variable_2'
p150
ag9
aS'variable_4'
p151
ag18
aS'struct'
p152
aS'variable_5'
p153
ag9
aS'variable_6'
p154
ag22
aS'struct'
p155
aS'variable_7'
p156
ag9
aS'variable_8'
p157
ag22
aS'struct'
p158
aS'sctp_getaddrs_old'
p159
aS'variable_9'
p160
ag22
aS'struct'
p161
aS'variable_10'
p162
ag9
aS'variable_11'
p163
ag22
aS'union'
p164
aS'sctp_addr'
p165
aS'variable_12'
p166
ag22
aS'void'
p167
ag9
aS'variable_13'
p168
ag22
aS'if'
p169
ag6
aS'variable_14'
p170
ag43
aS'sizeof'
p171
ag6
aS'struct'
p172
aS'variable_15'
p173
ag18
ag18
aS'variable_14'
p174
ag48
aS'sizeof'
p175
ag6
aS'struct'
p176
aS'variable_15'
p177
ag18
ag22
aS'if'
p178
ag6
aS'func_1'
p179
ag6
ag54
aS'variable_9'
p180
ag11
aS'variable_3'
p181
ag11
aS'variable_14'
p182
ag18
ag18
aS'if'
p183
ag6
aS'variable_9'
p184
ag60
aS'variable_16'
p185
ag43
ag48
ag62
ag18
aS'if'
p186
ag6
ag62
aS'=='
p187
aS'variable_9'
p188
ag60
aS'variable_17'
p189
ag18
aS'variable_6'
p190
ag48
ag54
aS'func_2'
p191
ag6
aS'variable_1'
p192
ag18
aS'->'
p193
aS'variable_18'
p194
aS'->'
p195
aS'variable_19'
p196
ag60
aS'variable_20'
p197
ag22
aS'variable_8'
p198
ag48
aS'func_3'
p199
ag6
aS'variable_1'
p200
ag11
aS'variable_9'
p201
ag60
aS'variable_17'
p202
ag18
ag22
aS'if'
p203
ag6
ag81
aS'variable_8'
p204
ag18
aS'variable_6'
p205
ag48
ag54
aS'variable_8'
p206
aS'->'
p207
aS'variable_19'
p208
ag60
aS'variable_20'
p209
ag22
aS'variable_13'
p210
ag48
aS'kmalloc'
p211
ag6
aS'sizeof'
p212
ag6
aS'union'
p213
aS'variable_21'
p214
ag18
ag9
aS'variable_9'
p215
ag60
aS'variable_16'
p216
ag11
aS'variable_22'
p217
ag18
ag22
aS'if'
p218
ag6
ag81
aS'variable_13'
p219
ag18
aS'if'
p220
ag6
aS'func_4'
p221
ag6
ag54
aS'variable_6'
p222
aS'->'
p223
aS'variable_23'
p224
ag18
ag18
aS'variable_11'
p225
ag48
aS'func_5'
p226
ag6
aS'variable_6'
p227
aS'->'
p228
aS'variable_23'
p229
ag60
aS'struct'
p230
aS'variable_10'
p231
ag11
aS'variable_24'
p232
ag18
aS'if'
p233
ag6
aS'func_6'
p234
ag6
ag54
aS'variable_11'
p235
aS'->'
p236
aS'variable_25'
p237
ag18
ag18
aS'memcpy'
p238
ag6
ag54
aS'variable_12'
p239
ag11
ag54
aS'variable_11'
p240
aS'->'
p241
aS'variable_25'
p242
ag11
aS'sizeof'
p243
ag6
aS'variable_12'
p244
ag18
ag18
ag22
aS'func_7'
p245
ag6
aS'variable_1'
p246
aS'->'
p247
aS'variable_26'
p248
ag18
aS'->'
p249
aS'func_8'
p250
ag6
aS'variable_27'
p251
ag11
ag54
aS'variable_12'
p252
ag18
ag22
aS'variable_28'
p253
ag48
aS'func_9'
p254
ag6
aS'variable_12'
p255
ag60
aS'variable_29'
p256
ag60
aS'variable_30'
p257
ag18
aS'->'
p258
aS'variable_31'
p259
ag22
aS'memcpy'
p260
ag6
aS'variable_32'
p261
ag11
ag54
aS'variable_12'
p262
ag11
aS'variable_28'
p263
ag18
ag22
aS'variable_32'
p264
aS'+='
p265
aS'variable_28'
p266
ag22
aS'variable_33'
p267
aS'+='
p268
aS'variable_28'
p269
ag22
aS'if'
p270
ag6
aS'func_10'
p271
ag6
aS'variable_34'
p272
ag11
aS'variable_13'
p273
ag11
aS'variable_33'
p274
ag18
ag18
aaa(lp275
I0
aI0
aa(lp276
I226
aI186
aa(lp277
(lp278
S'main'
p279
aa(lp280
g279
aaa(lp281
S'411 /home/SySeVR/data/CVE_2008_2826_VULN_sctp_getsockopt_local_addrs_old.c memcpy 75'
p282
aS'412 /home/SySeVR/data/CVE_2008_2826_VULN_sctp_getsockopt_local_addrs_old.c memcpy 72'
p283
aa.