(lp0
(lp1
(lp2
S'func_0'
p3
aS'('
p4
aS'FT_Stream'
p5
aS'variable_0'
p6
aS')'
p7
aS'FT_Error'
p8
aS'variable_1'
p9
aS';'
p10
aS'FT_ULong'
p11
aS'variable_2'
p12
aS','
p13
aS'variable_3'
p14
ag10
aS'variable_4'
p15
aS'*'
p16
aS'variable_5'
p17
ag10
aS'variable_4'
p18
ag16
aS'variable_6'
p19
ag10
aS'variable_1'
p20
aS'='
p21
aS'variable_7'
p22
aS'->'
p23
aS'func_1'
p24
ag4
aS'variable_7'
p25
ag13
aS'variable_8'
p26
ag13
aS'variable_0'
p27
ag13
aS'&'
p28
aS'variable_2'
p29
ag7
ag10
aS'if'
p30
ag4
aS'variable_1'
p31
aS'||'
p32
aS'variable_2'
p33
aS'<'
p34
aS'8'
p35
ag7
aS'if'
p36
ag4
aS'func_2'
p37
ag4
aS'variable_2'
p38
ag13
aS'variable_7'
p39
aS'->'
p40
aS'variable_9'
p41
ag7
ag7
aS'variable_5'
p42
ag21
aS'variable_7'
p43
aS'->'
p44
aS'variable_9'
p45
ag10
aS'variable_6'
p46
ag21
aS'variable_5'
p47
aS'+'
p48
aS'variable_2'
p49
ag10
aS'if'
p50
ag4
aS'variable_5'
p51
ag48
aS'variable_3'
p52
aS'>'
p53
aS'variable_6'
p54
ag7
aaa(lp55
I0
aa(lp56
I66
aa(lp57
(lp58
S'main'
p59
aaa(lp60
S'655 /home/SySeVR/data/CVE_2014_9657_PATCHED_tt_face_load_hdmx.c limit = p + table_size 21'
p61
aa.