(lp0
(lp1
(lp2
S'static'
p3
aS'int'
p4
aS'func_0'
p5
aS'('
p6
aS'struct'
p7
aS'variable_0'
p8
aS'*'
p9
aS'variable_1'
p10
aS')'
p11
aS'variable_2'
p12
ag9
aS'variable_3'
p13
aS','
p14
ag9
aS'variable_4'
p15
ag14
ag9
aS'variable_5'
p16
aS';'
p17
aS'struct'
p18
aS'variable_6'
p19
ag9
aS'variable_7'
p20
aS'='
p21
aS'func_1'
p22
ag6
aS'variable_1'
p23
ag11
ag17
aS'unsigned'
p24
aS'long'
p25
aS'variable_8'
p26
ag21
aS'func_2'
p27
ag6
aS'variable_7'
p28
ag11
ag17
aS'u8'
p29
aS'variable_9'
p30
aS'['
p31
aS'32'
p32
aS'+'
p33
aS'variable_10'
p34
aS']'
p35
ag17
aS'variable_2'
p36
ag9
aS'variable_11'
p37
ag21
ag6
aS'u8'
p38
ag9
ag11
aS'func_3'
p39
ag6
ag6
aS'u8'
p40
ag9
ag11
aS'variable_9'
p41
ag14
aS'variable_10'
p42
ag11
ag17
aS'variable_2'
p43
ag9
aS'variable_12'
p44
ag21
aS'variable_11'
p45
ag33
aS'16'
p46
ag17
aS'if'
p47
ag6
aS'func_4'
p48
ag6
ag6
aS'variable_1'
p49
aS'->'
p50
aS'variable_13'
p51
aS'<'
p52
aS'variable_8'
p53
ag11
aS'||'
p54
ag6
aS'variable_1'
p55
aS'->'
p56
aS'variable_14'
p57
aS'!='
p58
aS'8'
p59
aS'&&'
p60
aS'variable_1'
p61
aS'->'
p62
aS'variable_14'
p63
aS'!='
p64
aS'12'
p65
ag11
ag11
ag11
aS'variable_15'
p66
ag21
ag6
aS'unsigned'
p67
aS'long'
p68
ag11
ag6
aS'variable_1'
p69
aS'->'
p70
aS'variable_13'
p71
aS'-'
p72
aS'variable_8'
p73
ag11
ag17
aS'if'
p74
ag6
ag6
aS'func_5'
p75
ag6
aS'variable_1'
p76
aS'->'
p77
aS'variable_3'
p78
ag11
ag11
aS'&&'
p79
ag6
aS'func_6'
p80
ag6
aS'variable_1'
p81
aS'->'
p82
aS'variable_5'
p83
ag11
ag11
ag11
aS'variable_3'
p84
ag21
aS'func_7'
p85
ag6
aS'&'
p86
aS'variable_16'
p87
ag11
ag17
aS'variable_3'
p88
ag21
aS'kmalloc'
p89
ag6
aS'variable_1'
p90
aS'->'
p91
aS'variable_13'
p92
ag33
aS'variable_1'
p93
aS'->'
p94
aS'variable_14'
p95
ag14
aS'variable_17'
p96
ag11
ag17
aS'if'
p97
ag6
aS'!'
p98
aS'variable_3'
p99
ag11
aS'variable_18'
p100
ag21
aS'memcmp'
p101
ag6
aS'variable_3'
p102
ag33
aS'variable_15'
p103
ag14
aS'variable_12'
p104
ag14
aS'variable_8'
p105
ag11
aS'?'
p106
ag72
aS'variable_19'
p107
aS':'
p108
aS'0'
p109
ag17
aS'return'
p110
aS'variable_18'
p111
ag17
aaa(lp112
I0
aa(lp113
I164
aa(lp114
(lp115
S'main'
p116
aaa(lp117
S'384 /home/SySeVR/data/CVE_2015_3331_VULN___driver_rfc4106_decrypt.c memcmp 64'
p118
aa.