(lp0
(lp1
(lp2
S'static'
p3
aS'int'
p4
aS'func_0'
p5
aS'('
p6
aS'struct'
p7
aS'variable_0'
p8
aS'*'
p9
aS'variable_1'
p10
aS')'
p11
aS'variable_2'
p12
ag9
aS'variable_3'
p13
aS','
p14
ag9
aS'variable_4'
p15
ag14
ag9
aS'variable_5'
p16
aS';'
p17
aS'struct'
p18
aS'variable_6'
p19
ag9
aS'variable_7'
p20
aS'='
p21
aS'func_1'
p22
ag6
aS'variable_1'
p23
ag11
ag17
aS'unsigned'
p24
aS'long'
p25
aS'variable_8'
p26
ag21
aS'func_2'
p27
ag6
aS'variable_7'
p28
ag11
ag17
aS'u8'
p29
aS'variable_9'
p30
aS'['
p31
aS'32'
p32
aS'+'
p33
aS'variable_10'
p34
aS']'
p35
ag17
aS'variable_2'
p36
ag9
aS'variable_11'
p37
ag21
ag6
aS'u8'
p38
ag9
ag11
aS'func_3'
p39
ag6
ag6
aS'u8'
p40
ag9
ag11
aS'variable_9'
p41
ag14
aS'variable_10'
p42
ag11
ag17
aS'variable_2'
p43
ag9
aS'variable_12'
p44
ag21
aS'variable_11'
p45
ag33
aS'16'
p46
ag17
aS'if'
p47
ag6
aS'func_4'
p48
ag6
ag6
aS'variable_1'
p49
aS'->'
p50
aS'variable_13'
p51
aS'<'
p52
aS'variable_8'
p53
ag11
aS'||'
p54
ag6
aS'variable_1'
p55
aS'->'
p56
aS'variable_14'
p57
aS'!='
p58
aS'8'
p59
aS'&&'
p60
aS'variable_1'
p61
aS'->'
p62
aS'variable_14'
p63
aS'!='
p64
aS'12'
p65
ag11
ag11
ag11
aS'variable_15'
p66
ag21
ag6
aS'unsigned'
p67
aS'long'
p68
ag11
ag6
aS'variable_1'
p69
aS'->'
p70
aS'variable_13'
p71
aS'-'
p72
aS'variable_8'
p73
ag11
ag17
aS'if'
p74
ag6
ag6
aS'func_5'
p75
ag6
aS'variable_1'
p76
aS'->'
p77
aS'variable_3'
p78
ag11
ag11
aS'&&'
p79
ag6
aS'func_6'
p80
ag6
aS'variable_1'
p81
aS'->'
p82
aS'variable_5'
p83
ag11
ag11
ag11
aS'variable_3'
p84
ag21
aS'func_7'
p85
ag6
aS'&'
p86
aS'variable_16'
p87
ag11
ag17
aS'variable_3'
p88
ag21
aS'kmalloc'
p89
ag6
aS'variable_1'
p90
aS'->'
p91
aS'variable_13'
p92
ag33
aS'variable_1'
p93
aS'->'
p94
aS'variable_14'
p95
ag14
aS'variable_17'
p96
ag11
ag17
aS'if'
p97
ag6
aS'!'
p98
aS'variable_3'
p99
ag11
aS'variable_18'
p100
ag21
aS'memcmp'
p101
ag6
aS'variable_3'
p102
ag33
aS'variable_15'
p103
ag14
aS'variable_12'
p104
ag14
aS'variable_8'
p105
ag11
aS'?'
p106
ag72
aS'variable_19'
p107
aS':'
p108
aS'0'
p109
ag17
aS'return'
p110
aS'variable_18'
p111
ag17
aa(lp112
S'static'
p113
aS'int'
p114
aS'func_0'
p115
ag6
aS'struct'
p116
aS'variable_0'
p117
ag9
aS'variable_1'
p118
ag11
aS'variable_2'
p119
ag9
aS'variable_3'
p120
ag14
ag9
aS'variable_4'
p121
ag14
ag9
aS'variable_5'
p122
ag17
aS'struct'
p123
aS'variable_6'
p124
ag9
aS'variable_7'
p125
ag21
aS'func_1'
p126
ag6
aS'variable_1'
p127
ag11
ag17
aS'unsigned'
p128
aS'long'
p129
aS'variable_8'
p130
ag21
aS'func_2'
p131
ag6
aS'variable_7'
p132
ag11
ag17
aS'if'
p133
ag6
aS'func_3'
p134
ag6
ag6
aS'variable_1'
p135
aS'->'
p136
aS'variable_9'
p137
ag52
aS'variable_8'
p138
ag11
aS'||'
p139
ag6
aS'variable_1'
p140
aS'->'
p141
aS'variable_10'
p142
aS'!='
p143
ag59
aS'&&'
p144
aS'variable_1'
p145
aS'->'
p146
aS'variable_10'
p147
aS'!='
p148
aS'12'
p149
ag11
ag11
ag11
aS'if'
p150
ag6
ag6
aS'func_4'
p151
ag6
aS'variable_1'
p152
aS'->'
p153
aS'variable_3'
p154
ag11
ag11
aS'&&'
p155
ag6
aS'func_5'
p156
ag6
aS'variable_1'
p157
aS'->'
p158
aS'variable_5'
p159
ag11
ag11
ag11
aS'variable_3'
p160
ag21
aS'kmalloc'
p161
ag6
aS'variable_1'
p162
aS'->'
p163
aS'variable_9'
p164
ag33
aS'variable_1'
p165
aS'->'
p166
aS'variable_10'
p167
ag14
aS'variable_11'
p168
ag11
ag17
aS'if'
p169
ag6
ag98
aS'variable_3'
p170
ag11
aS'variable_5'
p171
ag21
ag6
aS'variable_3'
p172
ag33
aS'variable_1'
p173
aS'->'
p174
aS'variable_9'
p175
ag33
aS'variable_8'
p176
ag11
ag17
aS'func_6'
p177
ag6
aS'variable_5'
p178
ag14
aS'variable_1'
p179
aS'->'
p180
aS'variable_5'
p181
ag14
ag109
ag14
aS'variable_1'
p182
aS'->'
p183
aS'variable_10'
p184
ag14
ag109
ag11
ag17
aS'func_7'
p185
ag6
aS'variable_12'
p186
ag14
aS'variable_4'
p187
ag14
aS'variable_3'
p188
ag14
aS'variable_13'
p189
ag14
aS'variable_14'
p190
ag14
aS'variable_15'
p191
aS'->'
p192
aS'variable_16'
p193
ag14
aS'variable_5'
p194
ag14
ag6
aS'unsigned'
p195
aS'long'
p196
ag11
aS'variable_1'
p197
aS'->'
p198
aS'variable_10'
p199
ag14
aS'variable_17'
p200
ag14
aS'variable_8'
p201
ag11
ag17
aS'func_8'
p202
ag6
aS'variable_5'
p203
ag11
ag17
aa(lp204
S'static'
p205
aS'int'
p206
aS'func_0'
p207
ag6
aS'struct'
p208
aS'variable_0'
p209
ag9
aS'variable_1'
p210
ag11
aS'variable_2'
p211
ag9
aS'variable_3'
p212
ag14
ag9
aS'variable_4'
p213
ag14
ag9
aS'variable_5'
p214
ag17
aS'struct'
p215
aS'variable_6'
p216
ag9
aS'variable_7'
p217
ag21
aS'func_1'
p218
ag6
aS'variable_1'
p219
ag11
ag17
aS'unsigned'
p220
aS'long'
p221
aS'variable_8'
p222
ag21
aS'func_2'
p223
ag6
aS'variable_7'
p224
ag11
ag17
aS'if'
p225
ag6
aS'func_3'
p226
ag6
ag6
aS'variable_1'
p227
aS'->'
p228
aS'variable_9'
p229
ag52
aS'variable_8'
p230
ag11
aS'||'
p231
ag6
aS'variable_1'
p232
aS'->'
p233
aS'variable_10'
p234
aS'!='
p235
ag59
aS'&&'
p236
aS'variable_1'
p237
aS'->'
p238
aS'variable_10'
p239
aS'!='
p240
aS'12'
p241
ag11
ag11
ag11
aS'if'
p242
ag6
ag6
aS'func_4'
p243
ag6
aS'variable_1'
p244
aS'->'
p245
aS'variable_3'
p246
ag11
ag11
aS'&&'
p247
ag6
aS'func_5'
p248
ag6
aS'variable_1'
p249
aS'->'
p250
aS'variable_5'
p251
ag11
ag11
ag11
aS'variable_3'
p252
ag21
aS'kmalloc'
p253
ag6
aS'variable_1'
p254
aS'->'
p255
aS'variable_9'
p256
ag33
aS'variable_1'
p257
aS'->'
p258
aS'variable_10'
p259
ag14
aS'variable_11'
p260
ag11
ag17
aS'if'
p261
ag6
ag98
aS'variable_3'
p262
ag11
aS'variable_5'
p263
ag21
ag6
aS'variable_3'
p264
ag33
aS'variable_1'
p265
aS'->'
p266
aS'variable_9'
p267
ag33
aS'variable_8'
p268
ag11
ag17
aS'func_6'
p269
ag6
aS'variable_3'
p270
ag14
aS'variable_1'
p271
aS'->'
p272
aS'variable_3'
p273
ag14
ag109
ag14
aS'variable_1'
p274
aS'->'
p275
aS'variable_9'
p276
ag14
ag109
ag11
ag17
aS'func_7'
p277
ag6
aS'variable_5'
p278
ag14
aS'variable_1'
p279
aS'->'
p280
aS'variable_5'
p281
ag14
ag109
ag14
aS'variable_1'
p282
aS'->'
p283
aS'variable_10'
p284
ag14
ag109
ag11
ag17
aS'variable_4'
p285
ag21
aS'variable_3'
p286
ag17
aS'func_8'
p287
ag6
aS'variable_12'
p288
ag14
aS'variable_4'
p289
ag14
aS'variable_3'
p290
ag14
aS'variable_13'
p291
ag14
aS'variable_14'
p292
ag14
aS'variable_15'
p293
aS'->'
p294
aS'variable_16'
p295
ag14
aS'variable_5'
p296
ag14
ag6
aS'unsigned'
p297
aS'long'
p298
ag11
aS'variable_1'
p299
aS'->'
p300
aS'variable_10'
p301
ag14
aS'variable_17'
p302
ag14
aS'variable_8'
p303
ag11
ag17
aS'variable_18'
p304
ag21
aS'memcmp'
p305
ag6
aS'variable_3'
p306
ag33
aS'variable_13'
p307
ag14
aS'variable_17'
p308
ag14
aS'variable_8'
p309
ag11
ag106
ag72
aS'variable_19'
p310
ag108
ag109
ag17
aS'func_9'
p311
ag6
aS'variable_4'
p312
ag11
ag17
aS'func_10'
p313
ag6
aS'variable_3'
p314
ag11
ag17
aS'func_11'
p315
ag6
aS'variable_5'
p316
ag11
ag17
aS'func_12'
p317
ag6
aS'variable_4'
p318
ag14
aS'variable_1'
p319
aS'->'
p320
aS'variable_4'
p321
ag14
ag109
ag14
aS'variable_1'
p322
aS'->'
p323
aS'variable_9'
p324
ag14
aS'1'
p325
ag11
ag17
aS'kfree'
p326
ag6
aS'variable_3'
p327
ag11
ag17
aS'return'
p328
aS'variable_18'
p329
ag17
aa(lp330
S'static'
p331
aS'int'
p332
aS'func_0'
p333
ag6
aS'struct'
p334
aS'variable_0'
p335
ag9
aS'variable_1'
p336
ag11
aS'struct'
p337
aS'variable_2'
p338
ag9
aS'variable_3'
p339
ag21
aS'func_1'
p340
ag6
aS'variable_1'
p341
ag11
ag17
aS'unsigned'
p342
aS'long'
p343
aS'variable_4'
p344
ag21
aS'func_2'
p345
ag6
aS'variable_3'
p346
ag11
ag17
aS'if'
p347
ag6
aS'func_3'
p348
ag6
ag6
aS'variable_1'
p349
aS'->'
p350
aS'variable_5'
p351
ag52
aS'variable_4'
p352
ag11
aS'||'
p353
ag6
aS'variable_1'
p354
aS'->'
p355
aS'variable_6'
p356
aS'!='
p357
ag59
aS'&&'
p358
aS'variable_1'
p359
aS'->'
p360
aS'variable_6'
p361
aS'!='
p362
aS'12'
p363
ag11
ag11
ag11
aS'variable_7'
p364
ag21
ag6
aS'unsigned'
p365
aS'long'
p366
ag11
ag6
aS'variable_1'
p367
aS'->'
p368
aS'variable_5'
p369
ag72
aS'variable_4'
p370
ag11
ag17
aS'func_4'
p371
ag6
aS'variable_8'
p372
ag14
aS'variable_9'
p373
ag14
aS'variable_10'
p374
ag14
aS'variable_7'
p375
ag14
aS'variable_11'
p376
ag14
aS'variable_12'
p377
aS'->'
p378
aS'variable_13'
p379
ag14
aS'variable_14'
p380
ag14
ag6
aS'unsigned'
p381
aS'long'
p382
ag11
aS'variable_1'
p383
aS'->'
p384
aS'variable_6'
p385
ag14
aS'variable_15'
p386
ag14
aS'variable_4'
p387
ag11
ag17
aS'variable_16'
p388
ag21
aS'memcmp'
p389
ag6
aS'variable_10'
p390
ag33
aS'variable_7'
p391
ag14
aS'variable_15'
p392
ag14
aS'variable_4'
p393
ag11
ag106
ag72
aS'variable_17'
p394
ag108
ag109
ag17
aS'return'
p395
aS'variable_16'
p396
ag17
aaa(lp397
I0
aI1
aI1
aI0
aa(lp398
I178
aI115
aI98
aI60
aa(lp399
(lp400
S'main'
p401
aa(lp402
g401
aa(lp403
g401
aa(lp404
g401
aaa(lp405
S'683 /home/SySeVR/data/CVE_2015_3331_VULN___driver_rfc4106_decrypt.c retval = memcmp ( src + tempCipherLen , authTag , auth_tag_len ) ? - EBADMSG : 0 64'
p406
aS'684 /home/SySeVR/data/CVE_2015_3331_VULN___driver_rfc4106_decrypt.c assoc = ( src + req -> cryptlen + auth_tag_len ) 52'
p407
aS'685 /home/SySeVR/data/CVE_2015_3331_VULN___driver_rfc4106_decrypt.c src = kmalloc ( req -> cryptlen + req -> assoclen , GFP_ATOMIC ) 49'
p408
aS'686 /home/SySeVR/data/CVE_2015_3331_VULN___driver_rfc4106_decrypt.c tempCipherLen = ( unsigned long ) ( req -> cryptlen - auth_tag_len ) 27'
p409
aa.