(lp0
(lp1
(lp2
S'static'
p3
aS'int'
p4
aS'func_0'
p5
aS'('
p6
aS'struct'
p7
aS'variable_0'
p8
aS'*'
p9
aS'variable_1'
p10
aS','
p11
aS'struct'
p12
aS'variable_2'
p13
ag9
aS'variable_3'
p14
ag11
aS'size_t'
p15
aS'variable_4'
p16
aS')'
p17
aS'struct'
p18
aS'variable_5'
p19
ag9
aS'variable_6'
p20
aS'='
p21
ag6
aS'struct'
p22
aS'sockaddr_ec'
p23
ag9
ag17
aS'variable_3'
p24
aS'->'
p25
aS'variable_7'
p26
aS';'
p27
aS'struct'
p28
aS'variable_8'
p29
ag9
aS'variable_9'
p30
ag27
aS'struct'
p31
aS'ec_addr'
p32
aS'variable_10'
p33
ag27
aS'struct'
p34
aS'sockaddr_in'
p35
aS'variable_11'
p36
ag27
aS'if'
p37
ag6
aS'variable_3'
p38
aS'->'
p39
aS'variable_12'
p40
aS'&'
p41
aS'~'
p42
ag6
aS'variable_13'
p43
aS'|'
p44
aS'variable_14'
p45
ag17
ag17
aS'if'
p46
ag6
aS'variable_6'
p47
aS'=='
p48
aS'NULL'
p49
aS'||'
p50
aS'variable_3'
p51
aS'->'
p52
aS'variable_15'
p53
aS'<'
p54
aS'sizeof'
p55
ag6
aS'struct'
p56
aS'variable_5'
p57
ag17
ag17
aS'variable_10'
p58
aS'.'
p59
aS'variable_16'
p60
ag21
aS'variable_6'
p61
aS'->'
p62
aS'variable_10'
p63
ag59
aS'variable_16'
p64
ag27
aS'variable_10'
p65
ag59
aS'variable_17'
p66
ag21
aS'variable_6'
p67
aS'->'
p68
aS'variable_10'
p69
ag59
aS'variable_17'
p70
ag27
aS'variable_9'
p71
ag21
aS'variable_18'
p72
aS'['
p73
aS'variable_10'
p74
ag59
aS'variable_17'
p75
aS']'
p76
ag27
aS'if'
p77
ag6
aS'variable_9'
p78
aS'=='
p79
aS'NULL'
p80
ag17
aS'variable_9'
p81
ag21
aS'variable_18'
p82
ag73
aS'0'
p83
ag76
ag27
aS'if'
p84
ag6
aS'variable_9'
p85
aS'=='
p86
aS'NULL'
p87
ag17
aS'if'
p88
ag6
aS'variable_4'
p89
aS'+'
p90
aS'15'
p91
aS'>'
p92
aS'variable_9'
p93
aS'->'
p94
aS'variable_19'
p95
ag17
aS'if'
p96
ag6
aS'variable_9'
p97
aS'->'
p98
aS'variable_20'
p99
aS'=='
p100
aS'variable_21'
p101
ag17
aS'if'
p102
ag6
aS'variable_22'
p103
aS'=='
p104
aS'NULL'
p105
ag17
aS'memset'
p106
ag6
ag41
aS'variable_11'
p107
ag11
ag83
ag11
aS'sizeof'
p108
ag6
aS'variable_11'
p109
ag17
ag17
ag27
aS'variable_11'
p110
ag59
aS'variable_23'
p111
ag21
aS'variable_24'
p112
ag27
aS'variable_11'
p113
ag59
aS'variable_25'
p114
ag21
aS'func_1'
p115
ag6
aS'variable_26'
p116
ag17
ag27
aS'variable_11'
p117
ag59
aS'variable_27'
p118
ag59
aS'variable_28'
p119
ag21
aS'func_2'
p120
ag6
aS'variable_29'
p121
ag44
aS'variable_10'
p122
ag59
aS'variable_16'
p123
ag17
ag27
aS'variable_30'
p124
ag59
aS'variable_7'
p125
ag21
ag6
aS'void'
p126
ag9
ag17
ag41
aS'variable_11'
p127
ag27
aS'variable_30'
p128
ag59
aS'variable_15'
p129
ag21
aS'sizeof'
p130
ag6
aS'variable_11'
p131
ag17
ag27
aS'variable_30'
p132
ag59
aS'variable_31'
p133
ag21
ag41
aS'variable_32'
p134
ag73
ag83
ag76
ag27
aS'variable_30'
p135
ag59
aS'variable_33'
p136
ag21
aS'variable_3'
p137
aS'->'
p138
aS'variable_33'
p139
ag90
aS'1'
p140
ag27
aS'variable_30'
p141
ag59
aS'variable_34'
p142
ag21
aS'NULL'
p143
ag27
aS'variable_30'
p144
ag59
aS'variable_35'
p145
ag21
ag83
ag27
aS'variable_30'
p146
ag59
aS'variable_12'
p147
ag21
ag83
ag27
aS'variable_36'
p148
ag21
aS'func_3'
p149
ag6
aS'variable_22'
p150
ag11
ag41
aS'variable_30'
p151
ag11
aS'variable_37'
p152
ag17
ag27
aS'return'
p153
aS'variable_36'
p154
ag27
aaa(lp155
I0
aa(lp156
I146
aa(lp157
(lp158
S'main'
p159
aaa(lp160
S'54 /home/SySeVR/data/CVE_2010_3849_PATCHED_econet_sendmsg.c memset 147'
p161
aa.