(lp0
(lp1
(lp2
S'static'
p3
aS'int'
p4
aS'func_0'
p5
aS'('
p6
aS'struct'
p7
aS'variable_0'
p8
aS'*'
p9
aS'variable_1'
p10
aS','
p11
aS'struct'
p12
aS'variable_2'
p13
ag9
aS'variable_3'
p14
ag11
aS'size_t'
p15
aS'variable_4'
p16
aS')'
p17
aS'struct'
p18
aS'variable_5'
p19
ag9
aS'variable_6'
p20
aS'='
p21
aS'variable_5'
p22
aS'->'
p23
aS'variable_6'
p24
aS';'
p25
aS'struct'
p26
aS'variable_7'
p27
ag9
aS'variable_8'
p28
ag21
ag6
aS'struct'
p29
aS'sockaddr_ec'
p30
ag9
ag17
aS'variable_3'
p31
aS'->'
p32
aS'variable_9'
p33
ag25
aS'struct'
p34
aS'variable_10'
p35
ag9
aS'variable_11'
p36
ag25
aS'struct'
p37
aS'ec_addr'
p38
aS'variable_12'
p39
ag25
aS'struct'
p40
aS'variable_13'
p41
ag9
aS'variable_14'
p42
ag25
aS'if'
p43
ag6
aS'variable_3'
p44
aS'->'
p45
aS'variable_15'
p46
aS'&'
p47
aS'~'
p48
ag6
aS'variable_16'
p49
aS'|'
p50
aS'variable_17'
p51
ag17
ag17
aS'if'
p52
ag6
aS'variable_8'
p53
aS'=='
p54
aS'NULL'
p55
aS'||'
p56
aS'variable_3'
p57
aS'->'
p58
aS'variable_18'
p59
aS'<'
p60
aS'sizeof'
p61
ag6
aS'struct'
p62
aS'variable_7'
p63
ag17
ag17
aS'variable_12'
p64
aS'.'
p65
aS'variable_19'
p66
ag21
aS'variable_8'
p67
aS'->'
p68
aS'variable_12'
p69
ag65
aS'variable_19'
p70
ag25
aS'variable_12'
p71
ag65
aS'variable_20'
p72
ag21
aS'variable_8'
p73
aS'->'
p74
aS'variable_12'
p75
ag65
aS'variable_20'
p76
ag25
aS'variable_11'
p77
ag21
aS'variable_21'
p78
aS'['
p79
aS'variable_12'
p80
ag65
aS'variable_20'
p81
aS']'
p82
ag25
aS'if'
p83
ag6
aS'variable_11'
p84
aS'=='
p85
aS'NULL'
p86
ag17
aS'variable_11'
p87
ag21
aS'variable_21'
p88
ag79
aS'0'
p89
ag82
ag25
aS'if'
p90
ag6
aS'variable_11'
p91
aS'=='
p92
aS'NULL'
p93
ag17
aS'if'
p94
ag6
aS'variable_4'
p95
aS'+'
p96
aS'15'
p97
aS'>'
p98
aS'variable_11'
p99
aS'->'
p100
aS'variable_22'
p101
ag17
aS'if'
p102
ag6
aS'variable_11'
p103
aS'->'
p104
aS'variable_23'
p105
aS'=='
p106
aS'variable_24'
p107
ag17
aS'variable_14'
p108
ag21
aS'func_1'
p109
ag6
aS'variable_6'
p110
ag11
aS'variable_4'
p111
ag96
aS'func_2'
p112
ag6
aS'variable_11'
p113
ag17
ag11
aS'variable_3'
p114
aS'->'
p115
aS'variable_15'
p116
ag47
aS'variable_16'
p117
ag11
ag47
aS'variable_25'
p118
ag17
ag25
aS'if'
p119
ag6
aS'variable_14'
p120
aS'=='
p121
aS'NULL'
p122
ag17
aS'func_3'
p123
ag6
aS'variable_14'
p124
ag11
aS'func_4'
p125
ag6
aS'variable_11'
p126
ag17
ag17
ag25
aS'func_5'
p127
ag6
aS'variable_14'
p128
ag17
ag25
aS'variable_26'
p129
ag21
ag6
aS'struct'
p130
aS'ec_cb'
p131
ag9
ag17
ag47
aS'variable_14'
p132
aS'->'
p133
aS'variable_27'
p134
ag25
aS'variable_26'
p135
aS'->'
p136
aS'variable_28'
p137
ag21
aS'variable_8'
p138
aS'->'
p139
aS'variable_28'
p140
ag25
aS'variable_26'
p141
aS'->'
p142
aS'variable_29'
p143
ag21
ag9
aS'variable_8'
p144
ag25
aS'variable_26'
p145
aS'->'
p146
aS'variable_30'
p147
ag21
aS'variable_31'
p148
ag25
aS'variable_32'
p149
ag21
aS'func_6'
p150
ag6
aS'variable_14'
p151
ag11
aS'variable_11'
p152
ag11
aS'func_7'
p153
ag6
aS'variable_33'
p154
ag17
ag11
ag47
aS'variable_12'
p155
ag11
aS'NULL'
p156
ag11
aS'variable_4'
p157
ag17
ag25
aS'if'
p158
ag6
aS'variable_32'
p159
ag60
ag89
ag17
aS'if'
p160
ag6
aS'variable_32'
p161
ag98
ag89
ag17
aS'variable_34'
p162
ag21
ag6
aS'struct'
p163
aS'ec_framehdr'
p164
ag9
ag17
ag6
aS'variable_14'
p165
aS'->'
p166
aS'variable_35'
p167
ag17
ag25
aS'variable_34'
p168
aS'->'
p169
aS'variable_27'
p170
ag21
aS'variable_27'
p171
ag25
aS'variable_34'
p172
aS'->'
p173
aS'variable_36'
p174
ag21
aS'variable_36'
p175
ag25
aS'func_8'
p176
ag6
aS'variable_14'
p177
ag17
ag25
aS'variable_14'
p178
aS'->'
p179
aS'variable_4'
p180
ag21
ag89
ag25
aS'variable_25'
p181
ag21
aS'func_9'
p182
ag6
aS'func_10'
p183
ag6
aS'variable_14'
p184
ag11
aS'variable_4'
p185
ag17
ag11
aS'variable_3'
p186
aS'->'
p187
aS'variable_37'
p188
ag11
aS'variable_4'
p189
ag17
ag25
aS'variable_14'
p190
aS'->'
p191
aS'variable_38'
p192
ag21
aS'variable_33'
p193
ag25
aS'variable_14'
p194
aS'->'
p195
aS'variable_11'
p196
ag21
aS'variable_11'
p197
ag25
aS'variable_14'
p198
aS'->'
p199
aS'variable_39'
p200
ag21
aS'variable_6'
p201
aS'->'
p202
aS'variable_40'
p203
ag25
aS'if'
p204
ag6
aS'variable_25'
p205
ag17
aS'func_11'
p206
ag6
aS'variable_14'
p207
ag17
ag25
aS'func_12'
p208
ag6
aS'variable_14'
p209
ag17
ag25
aS'return'
p210
aS'variable_25'
p211
ag25
aS'if'
p212
ag6
ag6
aS'variable_14'
p213
ag21
aS'func_13'
p214
ag6
aS'variable_6'
p215
ag11
ag89
ag11
aS'variable_3'
p216
aS'->'
p217
aS'variable_15'
p218
ag47
aS'variable_16'
p219
ag11
ag47
aS'variable_25'
p220
ag17
ag17
aS'=='
p221
aS'NULL'
p222
ag17
aS'return'
p223
aS'variable_25'
p224
ag25
aS'variable_26'
p225
ag21
ag6
aS'struct'
p226
aS'ec_cb'
p227
ag9
ag17
ag47
aS'variable_14'
p228
aS'->'
p229
aS'variable_27'
p230
ag25
aS'variable_26'
p231
aS'->'
p232
aS'variable_28'
p233
ag21
aS'variable_8'
p234
aS'->'
p235
aS'variable_28'
p236
ag25
aS'variable_26'
p237
aS'->'
p238
aS'variable_41'
p239
ag21
ag6
aS'5'
p240
ag9
aS'variable_42'
p241
ag17
ag25
aS'variable_26'
p242
aS'->'
p243
aS'variable_43'
p244
ag21
aS'variable_44'
p245
ag25
aS'variable_26'
p246
aS'->'
p247
aS'variable_45'
p248
ag21
ag6
aS'variable_46'
p249
aS'++'
p250
ag17
ag25
aS'variable_26'
p251
aS'->'
p252
aS'variable_29'
p253
ag21
ag9
aS'variable_8'
p254
ag25
aS'func_14'
p255
ag6
ag47
aS'variable_47'
p256
ag11
aS'variable_14'
p257
ag17
ag25
aS'return'
p258
aS'variable_25'
p259
ag25
aaa(lp260
I0
aa(lp261
I161
aa(lp262
(lp263
S'main'
p264
aaa(lp265
S'153 /home/SySeVR/data/CVE_2010_3849_PATCHED_econet_sendmsg.c skb = sock_alloc_send_skb ( sk , len + LL_ALLOCATED_SPACE ( dev ) , msg -> msg_flags & MSG_DONTWAIT , & err ) 72'
p266
aa.