(lp0
(lp1
(lp2
S'static'
p3
aS'int'
p4
aS'func_0'
p5
aS'('
p6
aS'struct'
p7
aS'variable_0'
p8
aS'*'
p9
aS'variable_1'
p10
aS','
p11
aS'variable_2'
p12
ag9
aS'variable_3'
p13
aS')'
p14
aS'int'
p15
aS'variable_4'
p16
aS';'
p17
aS'u_char'
p18
aS'variable_5'
p19
aS'['
p20
aS'4'
p21
aS'+'
p22
aS'188'
p23
aS']'
p24
ag17
aS'struct'
p25
aS'packet_command'
p26
aS'variable_6'
p27
ag17
aS'struct'
p28
aS'variable_7'
p29
ag9
aS'variable_8'
p30
aS'='
p31
aS'variable_1'
p32
aS'->'
p33
aS'variable_9'
p34
ag17
aS'variable_6'
p35
aS'.'
p36
aS'variable_10'
p37
ag20
aS'0'
p38
ag24
ag31
aS'variable_11'
p39
ag17
aS'variable_6'
p40
ag36
aS'variable_10'
p41
ag20
aS'7'
p42
ag24
ag31
aS'variable_3'
p43
aS'->'
p44
aS'variable_12'
p45
ag17
aS'variable_6'
p46
ag36
aS'variable_10'
p47
ag20
aS'9'
p48
ag24
ag31
aS'variable_6'
p49
ag36
aS'variable_13'
p50
ag31
aS'0xff'
p51
ag17
aS'if'
p52
ag6
aS'variable_4'
p53
ag31
aS'variable_8'
p54
aS'->'
p55
aS'func_1'
p56
ag6
aS'variable_1'
p57
ag11
aS'&'
p58
aS'variable_6'
p59
ag14
ag14
aS'variable_3'
p60
aS'->'
p61
aS'variable_14'
p62
ag36
aS'variable_15'
p63
ag31
aS'variable_5'
p64
ag20
ag38
ag24
aS'<<'
p65
aS'8'
p66
aS'|'
p67
aS'variable_5'
p68
ag20
aS'1'
p69
ag24
ag17
aS'if'
p70
ag6
aS'variable_3'
p71
aS'->'
p72
aS'variable_14'
p73
ag36
aS'variable_15'
p74
aS'<'
p75
aS'12'
p76
aS'||'
p77
aS'variable_3'
p78
aS'->'
p79
aS'variable_14'
p80
ag36
aS'variable_15'
p81
aS'>'
p82
aS'188'
p83
ag14
aS'memcpy'
p84
ag6
aS'variable_3'
p85
aS'->'
p86
aS'variable_14'
p87
ag36
aS'variable_16'
p88
ag11
ag58
aS'variable_5'
p89
ag20
ag21
ag24
ag11
aS'variable_3'
p90
aS'->'
p91
aS'variable_14'
p92
ag36
aS'variable_15'
p93
ag14
ag17
aaa(lp94
I1
aa(lp95
I120
aa(lp96
(lp97
S'main'
p98
aaa(lp99
S'401 /home/SySeVR/data/CVE_2006_2935_VULN_dvd_read_bca.c memcpy 21'
p100
aa.