(lp0
(lp1
(lp2
S'static'
p3
aS'int'
p4
aS'func_0'
p5
aS'('
p6
aS'struct'
p7
aS'variable_0'
p8
aS'*'
p9
aS'variable_1'
p10
aS','
p11
aS'int'
p12
aS'variable_2'
p13
aS')'
p14
aS'int'
p15
aS'variable_3'
p16
aS'='
p17
aS'variable_2'
p18
aS'-'
p19
aS'variable_4'
p20
ag19
aS'variable_5'
p21
aS';'
p22
aS'int'
p23
aS'variable_6'
p24
ag17
aS'variable_4'
p25
aS'+'
p26
aS'variable_3'
p27
ag22
aS'int'
p28
aS'variable_7'
p29
ag17
aS'variable_1'
p30
aS'->'
p31
aS'variable_8'
p32
ag19
aS'variable_4'
p33
ag19
aS'variable_3'
p34
ag22
aS'if'
p35
ag6
aS'func_1'
p36
ag6
aS'variable_7'
p37
aS'<'
p38
aS'0'
p39
ag14
ag14
aS'while'
p40
ag6
aS'variable_7'
p41
ag14
aS'int'
p42
aS'variable_9'
p43
ag17
aS'variable_3'
p44
ag22
aS'if'
p45
ag6
aS'variable_9'
p46
aS'>'
p47
aS'variable_7'
p48
ag14
aS'variable_9'
p49
ag17
aS'variable_7'
p50
ag22
aS'variable_7'
p51
aS'-='
p52
aS'variable_9'
p53
ag22
aS'if'
p54
ag6
aS'variable_7'
p55
ag14
aS'memcpy'
p56
ag6
aS'func_2'
p57
ag6
aS'variable_10'
p58
ag11
aS'variable_9'
p59
ag14
ag11
aS'variable_1'
p60
aS'->'
p61
aS'variable_11'
p62
ag26
aS'variable_6'
p63
ag11
aS'variable_9'
p64
ag14
ag22
aS'variable_6'
p65
aS'+='
p66
aS'variable_9'
p67
ag22
aS'variable_1'
p68
aS'->'
p69
aS'variable_8'
p70
ag17
aS'variable_4'
p71
ag26
aS'variable_3'
p72
ag22
aaa(lp73
I1
aa(lp74
I21
aa(lp75
(lp76
S'main'
p77
aaa(lp78
S'936 /home/SySeVR/data/CVE_2014_8709_VULN_ieee80211_fragment.c int per_fragm = frag_threshold - hdrlen - FCS_LEN ; 8'
p79
aa.