(lp0
(lp1
(lp2
S'static'
p3
aS'int'
p4
aS'func_0'
p5
aS'('
p6
aS'variable_0'
p7
aS'*'
p8
aS'variable_1'
p9
aS','
p10
aS'const'
p11
aS'uint8_t'
p12
ag8
aS'variable_2'
p13
ag10
aS'int'
p14
aS'variable_3'
p15
aS')'
p16
aS'uint8_t'
p17
aS'variable_4'
p18
aS'['
p19
aS'variable_5'
p20
ag8
aS'variable_6'
p21
aS']'
p22
aS';'
p23
aS'int'
p24
aS'variable_7'
p25
ag23
aS'int'
p26
aS'variable_8'
p27
ag23
aS'variable_1'
p28
aS'->'
p29
aS'variable_9'
p30
aS'='
p31
aS'variable_2'
p32
ag19
aS'1'
p33
ag22
aS'&'
p34
aS'0x7'
p35
ag23
aS'if'
p36
ag6
aS'variable_1'
p37
aS'->'
p38
aS'variable_9'
p39
aS'>'
p40
ag31
aS'variable_10'
p41
ag16
aS'variable_1'
p42
aS'->'
p43
aS'variable_9'
p44
ag31
aS'variable_10'
p45
aS'-'
p46
ag33
ag23
aS'variable_1'
p47
aS'->'
p48
aS'variable_11'
p49
ag31
aS'variable_2'
p50
ag19
aS'2'
p51
ag22
ag34
aS'0xf'
p52
ag23
aS'if'
p53
ag6
aS'variable_1'
p54
aS'->'
p55
aS'variable_11'
p56
ag40
ag31
aS'variable_12'
p57
ag16
aS'variable_1'
p58
aS'->'
p59
aS'variable_11'
p60
ag31
aS'variable_12'
p61
ag46
ag33
ag23
aS'switch'
p62
ag6
ag6
aS'variable_2'
p63
ag19
ag33
ag22
aS'>>'
p64
aS'4'
p65
ag16
ag34
aS'0x3'
p66
ag16
aS'variable_7'
p67
ag31
aS'6'
p68
ag23
aS'variable_7'
p69
ag31
ag46
ag68
ag23
aS'variable_7'
p70
ag31
aS'0'
p71
ag23
aS'switch'
p72
ag6
ag6
aS'variable_2'
p73
ag19
ag51
ag22
aS'>>'
p74
ag65
ag16
ag34
aS'0x3'
p75
ag16
aS'variable_8'
p76
ag31
aS'12'
p77
ag23
aS'variable_8'
p78
ag31
ag46
aS'12'
p79
ag23
aS'variable_8'
p80
ag31
ag71
ag23
aS'if'
p81
ag6
aS'variable_7'
p82
aS'=='
p83
ag71
aS'&&'
p84
aS'variable_8'
p85
aS'=='
p86
ag71
ag16
aS'memcpy'
p87
ag6
aS'variable_4'
p88
ag10
aS'variable_1'
p89
aS'->'
p90
aS'variable_13'
p91
ag10
aS'sizeof'
p92
ag6
aS'variable_1'
p93
aS'->'
p94
aS'variable_13'
p95
ag16
ag16
ag23
aS'variable_1'
p96
aS'->'
p97
aS'variable_13'
p98
ag19
aS'variable_14'
p99
ag8
aS'variable_5'
p100
aS'+'
p101
aS'variable_15'
p102
ag22
ag31
aS'variable_4'
p103
ag19
aS'variable_16'
p104
ag8
aS'variable_5'
p105
ag101
aS'variable_17'
p106
ag22
ag23
aaa(lp107
I0
aa(lp108
I146
aa(lp109
(lp110
S'main'
p111
aaa(lp112
S'459 /home/SySeVR/data/CVE_2011_0021_VULN_DecodeScroll.c memcpy 41'
p113
aa.