(lp0
(lp1
(lp2
S'static'
p3
aS'int'
p4
aS'func_0'
p5
aS'('
p6
aS'variable_0'
p7
aS'*'
p8
aS'variable_1'
p9
aS','
p10
aS'const'
p11
aS'uint8_t'
p12
ag8
aS'variable_2'
p13
ag10
aS'int'
p14
aS'variable_3'
p15
aS')'
p16
aS'int'
p17
aS'variable_4'
p18
aS';'
p19
aS'int'
p20
aS'variable_5'
p21
ag19
aS'int'
p22
aS'variable_6'
p23
ag10
aS'variable_7'
p24
ag19
aS'switch'
p25
ag6
ag6
aS'variable_2'
p26
aS'['
p27
aS'1'
p28
aS']'
p29
aS'>>'
p30
aS'4'
p31
ag16
aS'&'
p32
aS'0x3'
p33
ag16
aS'variable_4'
p34
aS'='
p35
aS'6'
p36
ag19
aS'variable_4'
p37
ag35
aS'-'
p38
ag36
ag19
aS'variable_4'
p39
ag35
aS'0'
p40
ag19
aS'switch'
p41
ag6
ag6
aS'variable_2'
p42
ag27
aS'2'
p43
ag29
aS'>>'
p44
ag31
ag16
ag32
aS'0x3'
p45
ag16
aS'variable_5'
p46
ag35
aS'12'
p47
ag19
aS'variable_5'
p48
ag35
ag38
aS'12'
p49
ag19
aS'variable_5'
p50
ag35
ag40
ag19
aS'if'
p51
ag6
aS'variable_4'
p52
aS'=='
p53
ag40
aS'&&'
p54
aS'variable_5'
p55
aS'=='
p56
ag40
ag16
aS'for'
p57
ag6
aS'variable_7'
p58
ag35
ag40
ag19
aS'variable_7'
p59
aS'<'
p60
aS'variable_8'
p61
ag19
aS'variable_7'
p62
aS'++'
p63
ag16
aS'int'
p64
aS'variable_9'
p65
ag35
aS'variable_5'
p66
aS'+'
p67
aS'variable_7'
p68
ag19
aS'variable_9'
p69
ag35
ag6
aS'variable_9'
p70
ag67
aS'variable_8'
p71
ag16
aS'%'
p72
aS'variable_8'
p73
ag19
aS'variable_9'
p74
ag35
ag6
aS'variable_9'
p75
ag67
aS'variable_10'
p76
ag16
ag72
aS'variable_10'
p77
ag19
aS'if'
p78
ag6
aS'variable_9'
p79
ag60
ag40
aS'||'
p80
aS'variable_9'
p81
aS'>'
p82
ag35
aS'variable_8'
p83
aS'||'
p84
aS'variable_11'
p85
ag60
ag40
aS'||'
p86
aS'variable_11'
p87
ag82
ag35
aS'variable_10'
p88
ag16
aS'variable_1'
p89
aS'->'
p90
aS'variable_12'
p91
ag27
aS'variable_9'
p92
ag8
aS'variable_13'
p93
ag67
aS'variable_11'
p94
ag29
ag35
aS'variable_14'
p95
ag27
aS'variable_7'
p96
ag8
aS'variable_13'
p97
ag67
aS'variable_6'
p98
ag29
ag19
aaa(lp99
I0
aa(lp100
I108
aa(lp101
(lp102
S'main'
p103
aaa(lp104
S'760 /home/SySeVR/data/CVE_2011_0021_VULN_DecodeScroll.c int dy = i_shiftv + y ; 49'
p105
aa.