(lp0
(lp1
(lp2
S'int'
p3
aS'func_0'
p4
aS'('
p5
aS'int'
p6
aS'variable_0'
p7
aS','
p8
aS'variable_1'
p9
aS'*'
p10
ag10
aS'variable_2'
p11
aS')'
p12
aS'if'
p13
ag5
aS'variable_0'
p14
aS'<'
p15
aS'3'
p16
ag12
aS'__int64'
p17
aS'variable_3'
p18
aS'='
p19
aS'0'
p20
aS';'
p21
aS'if'
p22
ag5
aS'variable_0'
p23
aS'>'
p24
ag16
ag12
aS'variable_3'
p25
ag19
aS'func_1'
p26
ag5
aS'variable_2'
p27
aS'['
p28
ag16
aS']'
p29
ag12
ag21
aS'if'
p30
ag5
aS'variable_3'
p31
aS'=='
p32
aS'-'
p33
aS'1'
p34
ag12
aS'if'
p35
ag5
aS'func_2'
p36
ag5
aS'variable_2'
p37
ag28
ag16
ag29
ag8
aS'func_3'
p38
ag5
aS'"'
p39
aS'/'
p40
aS'replace'
p41
ag39
ag12
ag12
ag12
aS'variable_4'
p42
ag19
aS'true'
p43
ag21
aS'if'
p44
ag5
aS'variable_4'
p45
ag12
aS'NS_tchar'
p46
aS'variable_5'
p47
ag28
aS'variable_6'
p48
ag29
ag21
aS'if'
p49
ag5
aS'!'
p50
aS'func_4'
p51
ag5
aS'variable_5'
p52
ag12
ag12
aS'if'
p53
ag5
ag50
aS'func_5'
p54
ag5
ag39
aS'applying'
p55
ag39
ag12
ag12
aS'if'
p56
ag5
aS'variable_3'
p57
ag24
ag20
ag12
aS'HANDLE'
p58
aS'variable_7'
p59
ag19
aS'OpenProcess'
p60
ag5
aS'variable_8'
p61
ag8
aS'false'
p62
ag8
ag5
aS'variable_9'
p63
ag12
aS'variable_3'
p64
ag12
ag21
aS'if'
p65
ag5
aS'variable_7'
p66
ag12
aS'DWORD'
p67
aS'variable_10'
p68
ag19
aS'WaitForSingleObject'
p69
ag5
aS'variable_7'
p70
ag8
aS'5000'
p71
ag12
ag21
aS'if'
p72
ag5
aS'variable_10'
p73
aS'!='
p74
aS'variable_11'
p75
ag12
aS'variable_12'
p76
ag19
aS'getenv'
p77
ag5
ag39
aS'MOZ_USING_SERVICE'
p78
ag39
ag12
aS'!='
p79
aS'NULL'
p80
ag21
aS'if'
p81
ag5
ag50
aS'variable_12'
p82
aS'&&'
p83
ag5
aS'variable_0'
p84
ag24
aS'variable_13'
p85
aS'||'
p86
aS'variable_14'
p87
aS'||'
p88
aS'variable_4'
p89
ag12
ag12
aS'func_6'
p90
ag5
aS'variable_2'
p91
ag28
aS'4'
p92
ag29
ag8
aS'variable_0'
p93
ag33
aS'variable_13'
p94
ag8
aS'variable_2'
p95
aS'+'
p96
aS'variable_13'
p97
ag8
aS'variable_12'
p98
ag12
ag21
aS'func_7'
p99
ag5
aS'variable_2'
p100
ag28
ag92
ag29
ag8
aS'variable_0'
p101
ag33
aS'variable_13'
p102
ag8
aS'variable_2'
p103
ag96
aS'variable_13'
p104
ag8
aS'variable_12'
p105
ag12
ag21
aS'func_8'
p106
ag5
aS'variable_2'
p107
ag28
ag92
ag29
ag8
aS'variable_0'
p108
ag33
aS'variable_13'
p109
ag8
aS'variable_2'
p110
ag96
aS'variable_13'
p111
ag8
aS'variable_12'
p112
ag12
ag21
aS'func_9'
p113
ag5
aS'variable_2'
p114
ag28
ag92
ag29
ag8
aS'variable_0'
p115
ag33
aS'variable_13'
p116
ag8
aS'variable_2'
p117
ag96
aS'variable_13'
p118
ag8
aS'variable_12'
p119
ag12
ag21
aS'if'
p120
ag5
ag50
aS'variable_12'
p121
ag12
aS'func_10'
p122
ag5
aS'variable_2'
p123
ag28
ag92
ag29
ag8
aS'variable_0'
p124
ag33
aS'variable_13'
p125
ag8
aS'variable_2'
p126
ag96
aS'variable_13'
p127
ag8
aS'variable_12'
p128
ag12
ag21
aa(lp129
S'int'
p130
aS'func_0'
p131
ag5
aS'int'
p132
aS'variable_0'
p133
ag8
aS'variable_1'
p134
ag10
ag10
aS'variable_2'
p135
ag12
aS'if'
p136
ag5
aS'variable_0'
p137
ag15
ag16
ag12
aS'if'
p138
ag5
aS'getenv'
p139
ag5
ag39
aS'MOZ_OS_UPDATE'
p140
ag39
ag12
ag12
aa(lp141
S'int'
p142
aS'func_0'
p143
ag5
aS'int'
p144
aS'variable_0'
p145
ag8
aS'variable_1'
p146
ag10
ag10
aS'variable_2'
p147
ag12
aS'if'
p148
ag5
aS'variable_0'
p149
ag15
ag16
ag12
aS'bool'
p150
aS'variable_3'
p151
ag19
aS'getenv'
p152
ag5
ag39
aS'MOZ_NO_SERVICE_FALLBACK'
p153
ag39
ag12
aS'!='
p154
aS'NULL'
p155
ag21
aS'if'
p156
ag5
aS'variable_4'
p157
aS'=='
p158
aS'variable_5'
p159
aS'||'
p160
ag5
aS'variable_6'
p161
aS'&&'
p162
aS'variable_7'
p163
aS'&&'
p164
aS'variable_3'
p165
ag12
ag12
aS'if'
p166
ag5
ag50
aS'variable_6'
p167
aS'&&'
p168
ag50
aS'variable_3'
p169
aS'&&'
p170
aS'variable_4'
p171
aS'=='
p172
aS'variable_5'
p173
ag12
aS'if'
p174
ag5
ag50
aS'variable_6'
p175
aS'&&'
p176
ag50
aS'variable_3'
p177
aS'&&'
p178
aS'variable_5'
p179
aS'=='
p180
aS'variable_4'
p181
ag12
aaa(lp182
I0
aI0
aI0
aa(lp183
I138
aI19
aI20
aa(lp184
(lp185
S'main'
p186
aa(lp187
g186
aa(lp188
g186
aaa(lp189
S'902 /home/SySeVR/data/CVE_2013_1707_VULN_NS_main.c getenv 177'
p190
aS'903 /home/SySeVR/data/CVE_2013_1707_VULN_NS_main.c getenv 93'
p191
aS'904 /home/SySeVR/data/CVE_2013_1707_VULN_NS_main.c getenv 38'
p192
aa.