(lp0
(lp1
(lp2
S'int'
p3
aS'func_0'
p4
aS'('
p5
aS'int'
p6
aS'variable_0'
p7
aS','
p8
aS'variable_1'
p9
aS'*'
p10
ag10
aS'variable_2'
p11
aS')'
p12
aS'if'
p13
ag5
aS'variable_0'
p14
aS'<'
p15
aS'3'
p16
ag12
aS'variable_3'
p17
aS'='
p18
aS'variable_2'
p19
aS'['
p20
aS'1'
p21
aS']'
p22
aS';'
p23
aS'__int64'
p24
aS'variable_4'
p25
ag18
aS'0'
p26
ag23
aS'if'
p27
ag5
aS'variable_0'
p28
aS'>'
p29
ag16
ag12
aS'variable_4'
p30
ag18
aS'func_1'
p31
ag5
aS'variable_2'
p32
ag20
ag16
ag22
ag12
ag23
aS'if'
p33
ag5
aS'variable_4'
p34
aS'=='
p35
aS'-'
p36
ag21
ag12
aS'variable_5'
p37
ag18
aS'true'
p38
ag23
aS'if'
p39
ag5
aS'func_2'
p40
ag5
aS'variable_2'
p41
ag20
ag16
ag22
ag8
aS'func_3'
p42
ag5
aS'"'
p43
aS'/'
p44
aS'replace'
p45
ag43
ag12
ag12
ag12
aS'variable_6'
p46
ag18
aS'true'
p47
ag23
aS'if'
p48
ag5
aS'variable_6'
p49
ag12
aS'NS_tchar'
p50
aS'variable_7'
p51
ag20
aS'variable_8'
p52
ag22
ag23
aS'if'
p53
ag5
aS'!'
p54
aS'func_4'
p55
ag5
aS'variable_7'
p56
ag12
ag12
aS'if'
p57
ag5
ag54
aS'func_5'
p58
ag5
ag43
aS'applying'
p59
ag43
ag12
ag12
aS'if'
p60
ag5
aS'variable_4'
p61
ag29
ag26
ag12
aS'HANDLE'
p62
aS'variable_9'
p63
ag18
aS'OpenProcess'
p64
ag5
aS'variable_10'
p65
ag8
aS'false'
p66
ag8
ag5
aS'variable_11'
p67
ag12
aS'variable_4'
p68
ag12
ag23
aS'if'
p69
ag5
aS'variable_9'
p70
ag12
aS'DWORD'
p71
aS'variable_12'
p72
ag18
aS'WaitForSingleObject'
p73
ag5
aS'variable_9'
p74
ag8
aS'5000'
p75
ag12
ag23
aS'if'
p76
ag5
aS'variable_12'
p77
aS'!='
p78
aS'variable_13'
p79
ag12
aS'const'
p80
aS'int'
p81
aS'variable_14'
p82
ag18
aS'5'
p83
ag23
aS'variable_15'
p84
ag18
aS'getenv'
p85
ag5
ag43
aS'MOZ_USING_SERVICE'
p86
ag43
ag12
aS'!='
p87
aS'NULL'
p88
ag23
aS'NS_tchar'
p89
aS'variable_16'
p90
ag20
aS'variable_8'
p91
ag22
ag18
aS'{'
p92
aS'func_6'
p93
ag5
aS"'"
p94
aS'\\'
p95
ag26
ag94
ag12
aS'}'
p96
ag23
aS'if'
p97
ag5
ag54
aS'variable_15'
p98
aS'&&'
p99
ag5
aS'variable_0'
p100
ag29
aS'variable_14'
p101
aS'||'
p102
aS'variable_5'
p103
aS'||'
p104
aS'variable_6'
p105
ag12
ag12
aS'NS_tchar'
p106
aS'variable_17'
p107
ag20
aS'variable_8'
p108
ag22
ag23
aS'if'
p109
ag5
aS'variable_5'
p110
ag12
aS'if'
p111
ag5
aS'variable_6'
p112
ag12
aS'NS_tchar'
p113
aS'variable_7'
p114
ag20
aS'variable_8'
p115
ag22
ag23
aS'if'
p116
ag5
ag54
aS'func_7'
p117
ag5
aS'variable_7'
p118
ag12
ag12
aS'if'
p119
ag5
ag54
aS'func_8'
p120
ag5
aS'variable_17'
p121
ag8
aS'variable_18'
p122
ag12
aS'&&'
p123
aS'func_9'
p124
ag5
aS'variable_17'
p125
ag12
aS'!='
p126
ag26
ag12
aS'func_10'
p127
ag5
aS'variable_16'
p128
ag8
aS'sizeof'
p129
ag5
aS'variable_16'
p130
ag12
ag44
aS'sizeof'
p131
ag5
aS'variable_16'
p132
ag20
ag26
ag22
ag12
ag8
aS'func_11'
p133
ag5
ag43
aS'%'
p134
aS's'
p135
ag44
aS'update_elevated'
p136
aS'.'
p137
aS'lock'
p138
ag43
ag12
ag8
aS'variable_3'
p139
ag12
ag23
aa(lp140
S'int'
p141
aS'func_0'
p142
ag5
aS'int'
p143
aS'variable_0'
p144
ag8
aS'variable_1'
p145
ag10
ag10
aS'variable_2'
p146
ag12
aS'if'
p147
ag5
aS'variable_0'
p148
ag15
ag16
ag12
aS'__int64'
p149
aS'variable_3'
p150
ag18
ag26
ag23
aS'if'
p151
ag5
aS'variable_0'
p152
ag29
ag16
ag12
aS'variable_3'
p153
ag18
aS'func_1'
p154
ag5
aS'variable_2'
p155
ag20
ag16
ag22
ag12
ag23
aS'if'
p156
ag5
aS'variable_3'
p157
aS'=='
p158
ag36
ag21
ag12
aS'variable_4'
p159
ag18
aS'true'
p160
ag23
aS'if'
p161
ag5
aS'func_2'
p162
ag5
aS'variable_2'
p163
ag20
ag16
ag22
ag8
aS'func_3'
p164
ag5
ag43
ag44
aS'replace'
p165
ag43
ag12
ag12
ag12
aS'variable_5'
p166
ag18
aS'true'
p167
ag23
aS'if'
p168
ag5
aS'variable_5'
p169
ag12
aS'NS_tchar'
p170
aS'variable_6'
p171
ag20
aS'variable_7'
p172
ag22
ag23
aS'if'
p173
ag5
ag54
aS'func_4'
p174
ag5
aS'variable_6'
p175
ag12
ag12
aS'if'
p176
ag5
ag54
aS'func_5'
p177
ag5
ag43
aS'applying'
p178
ag43
ag12
ag12
aS'if'
p179
ag5
aS'variable_3'
p180
ag29
ag26
ag12
aS'HANDLE'
p181
aS'variable_8'
p182
ag18
aS'OpenProcess'
p183
ag5
aS'variable_9'
p184
ag8
aS'false'
p185
ag8
ag5
aS'variable_10'
p186
ag12
aS'variable_3'
p187
ag12
ag23
aS'if'
p188
ag5
aS'variable_8'
p189
ag12
aS'DWORD'
p190
aS'variable_11'
p191
ag18
aS'WaitForSingleObject'
p192
ag5
aS'variable_8'
p193
ag8
aS'5000'
p194
ag12
ag23
aS'if'
p195
ag5
aS'variable_11'
p196
aS'!='
p197
aS'variable_12'
p198
ag12
aS'const'
p199
aS'int'
p200
aS'variable_13'
p201
ag18
ag83
ag23
aS'variable_14'
p202
ag18
aS'getenv'
p203
ag5
ag43
aS'MOZ_USING_SERVICE'
p204
ag43
ag12
aS'!='
p205
aS'NULL'
p206
ag23
aS'if'
p207
ag5
ag54
aS'variable_14'
p208
aS'&&'
p209
ag5
aS'variable_0'
p210
ag29
aS'variable_13'
p211
aS'||'
p212
aS'variable_4'
p213
aS'||'
p214
aS'variable_5'
p215
ag12
ag12
aS'NS_tchar'
p216
aS'variable_15'
p217
ag20
aS'variable_7'
p218
ag22
ag23
aS'if'
p219
ag5
aS'variable_4'
p220
ag12
aS'if'
p221
ag5
aS'variable_5'
p222
ag12
aS'func_6'
p223
ag5
aS'variable_15'
p224
ag8
aS'sizeof'
p225
ag5
aS'variable_15'
p226
ag12
ag44
aS'sizeof'
p227
ag5
aS'variable_15'
p228
ag20
ag26
ag22
ag12
ag8
aS'func_7'
p229
ag5
ag43
ag134
ag135
ag137
aS'update_in_progress'
p230
ag137
aS'lock'
p231
ag43
ag12
ag8
aS'variable_2'
p232
ag20
aS'variable_13'
p233
ag22
ag12
ag23
aa(lp234
S'int'
p235
aS'func_0'
p236
ag5
aS'int'
p237
aS'variable_0'
p238
ag8
aS'variable_1'
p239
ag10
ag10
aS'variable_2'
p240
ag12
aS'if'
p241
ag5
aS'variable_0'
p242
ag15
ag16
ag12
aS'__int64'
p243
aS'variable_3'
p244
ag18
ag26
ag23
aS'if'
p245
ag5
aS'variable_0'
p246
ag29
ag16
ag12
aS'variable_3'
p247
ag18
aS'func_1'
p248
ag5
aS'variable_2'
p249
ag20
ag16
ag22
ag12
ag23
aS'if'
p250
ag5
aS'variable_3'
p251
aS'=='
p252
ag36
ag21
ag12
aS'variable_4'
p253
ag18
aS'true'
p254
ag23
aS'if'
p255
ag5
aS'func_2'
p256
ag5
aS'variable_2'
p257
ag20
ag16
ag22
ag8
aS'func_3'
p258
ag5
ag43
ag44
aS'replace'
p259
ag43
ag12
ag12
ag12
aS'variable_5'
p260
ag18
aS'true'
p261
ag23
aS'if'
p262
ag5
aS'variable_5'
p263
ag12
aS'NS_tchar'
p264
aS'variable_6'
p265
ag20
aS'variable_7'
p266
ag22
ag23
aS'if'
p267
ag5
ag54
aS'func_4'
p268
ag5
aS'variable_6'
p269
ag12
ag12
aS'if'
p270
ag5
ag54
aS'func_5'
p271
ag5
ag43
aS'applying'
p272
ag43
ag12
ag12
aS'if'
p273
ag5
aS'variable_3'
p274
ag29
ag26
ag12
aS'HANDLE'
p275
aS'variable_8'
p276
ag18
aS'OpenProcess'
p277
ag5
aS'variable_9'
p278
ag8
aS'false'
p279
ag8
ag5
aS'variable_10'
p280
ag12
aS'variable_3'
p281
ag12
ag23
aS'if'
p282
ag5
aS'variable_8'
p283
ag12
aS'DWORD'
p284
aS'variable_11'
p285
ag18
aS'WaitForSingleObject'
p286
ag5
aS'variable_8'
p287
ag8
aS'5000'
p288
ag12
ag23
aS'if'
p289
ag5
aS'variable_11'
p290
aS'!='
p291
aS'variable_12'
p292
ag12
aS'const'
p293
aS'int'
p294
aS'variable_13'
p295
ag18
ag83
ag23
aS'variable_14'
p296
ag18
aS'getenv'
p297
ag5
ag43
aS'MOZ_USING_SERVICE'
p298
ag43
ag12
aS'!='
p299
aS'NULL'
p300
ag23
aS'if'
p301
ag5
ag54
aS'variable_14'
p302
aS'&&'
p303
ag5
aS'variable_0'
p304
ag29
aS'variable_13'
p305
aS'||'
p306
aS'variable_4'
p307
aS'||'
p308
aS'variable_5'
p309
ag12
ag12
aS'NS_tchar'
p310
aS'variable_15'
p311
ag20
aS'variable_7'
p312
ag22
ag23
aS'if'
p313
ag5
aS'variable_4'
p314
ag12
aS'if'
p315
ag5
aS'variable_5'
p316
ag12
aS'NS_tchar'
p317
aS'variable_6'
p318
ag20
aS'variable_7'
p319
ag22
ag23
aS'if'
p320
ag5
ag54
aS'func_6'
p321
ag5
aS'variable_6'
p322
ag12
ag12
aS'func_7'
p323
ag5
aS'variable_15'
p324
ag8
aS'sizeof'
p325
ag5
aS'variable_15'
p326
ag12
ag44
aS'sizeof'
p327
ag5
aS'variable_15'
p328
ag20
ag26
ag22
ag12
ag8
aS'func_8'
p329
ag5
ag43
ag134
ag135
ag95
ag95
aS'moz_update_in_progress'
p330
ag137
aS'lock'
p331
ag43
ag12
ag8
aS'variable_6'
p332
ag12
ag23
aa(lp333
S'int'
p334
aS'func_0'
p335
ag5
aS'int'
p336
aS'variable_0'
p337
ag8
aS'variable_1'
p338
ag10
ag10
aS'variable_2'
p339
ag12
aS'if'
p340
ag5
aS'variable_0'
p341
ag15
ag16
ag12
aS'variable_3'
p342
ag20
aS'variable_4'
p343
ag36
ag21
ag22
ag18
aS'func_1'
p344
ag5
ag94
ag95
ag26
ag94
ag12
ag23
aS'__int64'
p345
aS'variable_5'
p346
ag18
ag26
ag23
aS'if'
p347
ag5
aS'variable_0'
p348
ag29
ag16
ag12
aS'variable_5'
p349
ag18
aS'func_2'
p350
ag5
aS'variable_2'
p351
ag20
ag16
ag22
ag12
ag23
aS'if'
p352
ag5
aS'variable_5'
p353
aS'=='
p354
ag36
ag21
ag12
aS'variable_6'
p355
ag18
aS'true'
p356
ag23
aS'if'
p357
ag5
aS'func_3'
p358
ag5
aS'variable_2'
p359
ag20
ag16
ag22
ag8
aS'func_4'
p360
ag5
ag43
ag44
aS'replace'
p361
ag43
ag12
ag12
ag12
aS'variable_7'
p362
ag18
aS'true'
p363
ag23
aS'if'
p364
ag5
aS'variable_7'
p365
ag12
aS'NS_tchar'
p366
aS'variable_8'
p367
ag20
aS'variable_4'
p368
ag22
ag23
aS'if'
p369
ag5
ag54
aS'func_5'
p370
ag5
aS'variable_8'
p371
ag12
ag12
aS'if'
p372
ag5
ag54
aS'func_6'
p373
ag5
ag43
aS'applying'
p374
ag43
ag12
ag12
aS'if'
p375
ag5
aS'variable_5'
p376
ag29
ag26
ag12
aS'HANDLE'
p377
aS'variable_9'
p378
ag18
aS'OpenProcess'
p379
ag5
aS'variable_10'
p380
ag8
aS'false'
p381
ag8
ag5
aS'variable_11'
p382
ag12
aS'variable_5'
p383
ag12
ag23
aS'if'
p384
ag5
aS'variable_9'
p385
ag12
aS'DWORD'
p386
aS'variable_12'
p387
ag18
aS'WaitForSingleObject'
p388
ag5
aS'variable_9'
p389
ag8
aS'5000'
p390
ag12
ag23
aS'if'
p391
ag5
aS'variable_12'
p392
aS'!='
p393
aS'variable_13'
p394
ag12
aS'const'
p395
aS'int'
p396
aS'variable_14'
p397
ag18
ag83
ag23
aS'variable_15'
p398
ag18
aS'getenv'
p399
ag5
ag43
aS'MOZ_USING_SERVICE'
p400
ag43
ag12
aS'!='
p401
aS'NULL'
p402
ag23
aS'if'
p403
ag5
ag54
aS'variable_15'
p404
aS'&&'
p405
ag5
aS'variable_0'
p406
ag29
aS'variable_14'
p407
aS'||'
p408
aS'variable_6'
p409
aS'||'
p410
aS'variable_7'
p411
ag12
ag12
aS'NS_tchar'
p412
aS'variable_16'
p413
ag20
aS'variable_4'
p414
ag22
ag23
aS'if'
p415
ag5
aS'variable_6'
p416
ag12
aS'func_7'
p417
ag5
aS'variable_16'
p418
ag8
aS'sizeof'
p419
ag5
aS'variable_16'
p420
ag12
ag44
aS'sizeof'
p421
ag5
aS'variable_16'
p422
ag20
ag26
ag22
ag12
ag8
aS'func_8'
p423
ag5
ag43
ag134
ag135
ag137
aS'update_in_progress'
p424
ag137
aS'lock'
p425
ag43
ag12
ag8
aS'variable_3'
p426
ag12
ag23
aaa(lp427
I0
aI0
aI0
aI0
aa(lp428
I247
aI193
aI207
aI204
aa(lp429
(lp430
S'main'
p431
aa(lp432
g431
aa(lp433
g431
aa(lp434
g431
aaa(lp435
S'477 /home/SySeVR/data/CVE_2013_1707_VULN_NS_main.c NS_tsnprintf ( elevatedLockFilePath , sizeof ( elevatedLockFilePath ) / sizeof ( elevatedLockFilePath [ 0 ] ) , NS_T ( "%s/update_elevated.lock" ) , gSourcePath ) 243'
p436
aS'478 /home/SySeVR/data/CVE_2013_1707_VULN_NS_main.c NS_tsnprintf ( updateLockFilePath , sizeof ( updateLockFilePath ) / sizeof ( updateLockFilePath [ 0 ] ) , NS_T ( "%s.update_in_progress.lock" ) , argv [ callbackIndex ] ) 214'
p437
aS'479 /home/SySeVR/data/CVE_2013_1707_VULN_NS_main.c NS_tsnprintf ( updateLockFilePath , sizeof ( updateLockFilePath ) / sizeof ( updateLockFilePath [ 0 ] ) , NS_T ( "%s\\\\moz_update_in_progress.lock" ) , installDir ) 208'
p438
aS'480 /home/SySeVR/data/CVE_2013_1707_VULN_NS_main.c NS_tsnprintf ( updateLockFilePath , sizeof ( updateLockFilePath ) / sizeof ( updateLockFilePath [ 0 ] ) , NS_T ( "%s.update_in_progress.lock" ) , gDestinationPath ) 196'
p439
aa.