(lp0
I20
aI40
aI49
aI54
aI75
aI76
aI78
aI79
aI90
aI105
aI122
aI136
aI137
aI138
aI140
aI141
aI142
aI173
aI177
aI179
aI188
aI214
aI226
aI234
aI235
aI237
aI268
aI270
aI282
aI283
aI284
aI286
aI287
aI288
aI289
aI290
aI291
aI298
aI301
aI334
aI344
aI345
aI348
aI356
aI357
aI358
aI359
aI360
aI361
aI362
aI363
aI367
aI377
aI379
aI381
aI385
aI392
aI402
aI424
aI436
aI453
aI456
aI461
aI478
aI480
aI482
aI486
aI504
aI509
aI510
aI511
aI516
aI517
aI520
aI521
aI522
aI524
aI525
aI526
aI529
aI530
aI531
aI532
aI533
aI535
aI538
aI568
aI575
aI576
aI577
aI578
aI579
aI580
aI581
aI582
aI584
aI587
aI589
aI591
aI593
aI595
aI597
aI599
aI601
aI603
aI605
aI607
aI609
aI613
aI614
aI615
aI628
aI654
aI667
aI699
aI701
aI709
aI711
aI720
aI721
aI722
aI723
aI724
aI725
aI732
aI734
aI735
aI736
aI763
aI764
aI765
aI772
aI774
aI776
aI782
aI784
aI785
aI786
aI788
aI789
aI791
aI799
aI807
aI809
aI810
aI811
aI812
aI813
aI814
aI819
aI820
aI821
aI822
aI823
aI824
aI825
aI826
aI829
aI830
aI831
aI832
aI834
aI835
aI837
aI838
aI839
aI844
aI845
aI846
aI847
aI850
aI851
aI852
aI853
aI854
aI855
aI857
aI858
aI859
aI860
aI863
aI881
aI882
aI884
aI885
aI887
aI888
aI890
aI891
aI913
aI916
a.