(lp0
I31
aI37
aI43
aI58
aI59
aI66
aI67
aI69
aI70
aI71
aI78
aI82
aI86
aI87
aI89
aI92
aI95
aI100
aI104
aI127
aI139
aI143
aI144
aI146
aI149
aI179
aI207
aI208
aI209
aI213
aI214
aI215
aI219
aI220
aI221
aI222
aI223
aI224
aI225
aI226
aI227
aI228
aI229
aI230
aI231
aI232
aI233
aI234
aI235
aI236
aI237
aI238
aI240
aI241
aI242
aI243
aI248
aI251
aI253
aI254
aI255
aI259
aI260
aI262
aI265
aI266
aI268
aI280
aI283
aI284
aI285
aI287
aI320
aI321
aI322
aI323
aI324
aI325
aI326
aI372
aI389
aI399
aI401
aI402
aI403
aI418
aI433
aI437
aI466
aI467
aI468
aI470
aI496
aI498
aI499
aI501
aI502
aI503
aI504
aI508
aI554
aI555
aI556
aI558
aI559
aI560
aI563
aI564
aI565
aI570
aI571
aI572
aI576
aI577
aI578
aI582
aI583
aI584
aI587
aI588
aI589
aI592
aI598
aI621
aI622
aI623
aI626
aI630
aI637
aI652
aI655
aI664
aI704
aI705
aI706
aI709
aI710
aI711
aI712
aI713
aI714
aI715
aI722
aI727
aI730
aI745
aI750
aI751
aI758
aI761
aI768
aI777
aI783
aI792
aI808
aI811
aI822
aI823
aI824
aI827
aI828
aI844
aI846
aI848
aI850
aI853
aI858
aI859
aI860
aI861
aI866
aI867
aI868
aI869
aI870
aI871
aI874
aI877
aI895
aI896
aI918
aI919
aI922
aI923
aI926
aI933
aI934
aI943
aI944
a.