(lp0
(lp1
(lp2
S'static'
p3
aS'long'
p4
aS'func_0'
p5
aS'('
p6
aS'struct'
p7
aS'variable_0'
p8
aS'*'
p9
aS'variable_1'
p10
aS','
p11
aS'variable_2'
p12
ag9
aS'variable_3'
p13
ag11
aS'struct'
p14
aS'sigcontext'
p15
aS'variable_4'
p16
ag9
aS'variable_5'
p17
aS')'
p18
aS'elf_vrreg_t'
p19
aS'variable_4'
p20
ag9
aS'variable_6'
p21
aS';'
p22
aS'unsigned'
p23
aS'long'
p24
aS'variable_7'
p25
aS'='
p26
aS'0'
p27
ag22
aS'variable_8'
p28
ag9
aS'variable_9'
p29
ag26
ag6
aS'elf_greg_t'
p30
ag9
ag18
aS'variable_1'
p31
ag22
aS'unsigned'
p32
aS'long'
p33
aS'variable_10'
p34
ag22
aS'int'
p35
aS'variable_11'
p36
ag22
aS'variable_7'
p37
aS'|'
p38
ag26
aS'func_1'
p39
ag6
aS'variable_1'
p40
ag11
aS'&'
p41
aS'variable_5'
p42
aS'->'
p43
aS'variable_12'
p44
ag11
aS'variable_13'
p45
ag9
aS'sizeof'
p46
ag6
aS'unsigned'
p47
aS'long'
p48
ag18
ag18
ag22
aS'for'
p49
ag6
aS'variable_11'
p50
ag26
aS'variable_13'
p51
aS'+'
p52
aS'1'
p53
ag22
aS'variable_11'
p54
aS'<'
p55
ag26
aS'variable_14'
p56
ag22
aS'variable_11'
p57
aS'++'
p58
ag18
aS'if'
p59
ag6
aS'variable_11'
p60
aS'=='
p61
aS'variable_15'
p62
ag18
aS'variable_7'
p63
ag38
ag26
aS'func_2'
p64
ag6
aS'variable_9'
p65
aS'['
p66
aS'variable_11'
p67
aS']'
p68
ag11
ag41
aS'variable_5'
p69
aS'->'
p70
aS'variable_12'
p71
ag66
aS'variable_11'
p72
ag68
ag18
ag22
aS'if'
p73
ag6
aS'variable_3'
p74
aS'!='
p75
aS'NULL'
p76
ag18
aS'variable_7'
p77
ag38
ag26
aS'func_3'
p78
ag6
aS'variable_3'
p79
aS'->'
p80
aS'variable_16'
p81
ag66
ag27
ag68
ag11
ag41
aS'variable_5'
p82
aS'->'
p83
aS'variable_17'
p84
ag18
ag22
aS'variable_7'
p85
ag38
ag26
aS'func_4'
p86
ag6
ag41
aS'variable_18'
p87
aS'->'
p88
aS'variable_19'
p89
aS'.'
p90
aS'variable_20'
p91
ag11
ag41
aS'variable_5'
p92
aS'->'
p93
aS'variable_21'
p94
ag11
aS'variable_22'
p95
ag18
ag22
aS'variable_7'
p96
ag38
ag26
aS'func_5'
p97
ag6
aS'variable_6'
p98
ag11
ag41
aS'variable_5'
p99
aS'->'
p100
aS'variable_6'
p101
ag18
ag22
aS'variable_7'
p102
ag38
ag26
aS'func_6'
p103
ag6
aS'variable_10'
p104
ag11
ag41
aS'variable_5'
p105
aS'->'
p106
aS'variable_12'
p107
ag66
aS'variable_13'
p108
ag68
ag18
ag22
aS'if'
p109
ag6
aS'variable_7'
p110
ag18
aS'if'
p111
ag6
aS'variable_6'
p112
aS'&&'
p113
aS'!'
p114
aS'func_7'
p115
ag6
aS'variable_23'
p116
ag11
aS'variable_6'
p117
ag11
aS'34'
p118
ag9
aS'sizeof'
p119
ag6
aS'variable_24'
p120
ag18
ag18
ag18
aS'if'
p121
ag6
aS'variable_6'
p122
aS'!='
p123
ag27
aS'&&'
p124
ag6
aS'variable_10'
p125
ag41
aS'variable_25'
p126
ag18
aS'!='
p127
ag27
ag18
aS'if'
p128
ag6
aS'variable_18'
p129
aS'->'
p130
aS'variable_19'
p131
ag90
aS'variable_26'
p132
ag18
aS'memset'
p133
ag6
aS'variable_18'
p134
aS'->'
p135
aS'variable_19'
p136
ag90
aS'variable_27'
p137
ag11
ag27
ag11
aS'33'
p138
ag9
aS'sizeof'
p139
ag6
aS'variable_24'
p140
ag18
ag18
ag22
aS'variable_7'
p141
ag38
ag26
aS'func_8'
p142
ag6
aS'variable_18'
p143
aS'->'
p144
aS'variable_19'
p145
ag90
aS'variable_28'
p146
ag11
ag6
aS'u32'
p147
aS'__user'
p148
ag9
ag18
ag41
aS'variable_6'
p149
ag66
aS'33'
p150
ag68
ag18
ag22
aS'variable_18'
p151
aS'->'
p152
aS'variable_19'
p153
ag90
aS'variable_28'
p154
ag26
ag27
ag22
aS'return'
p155
aS'variable_7'
p156
ag22
aaa(lp157
I0
aa(lp158
I226
aa(lp159
(lp160
S'main'
p161
aaa(lp162
S'34 /home/SySeVR/data/CVE_2006_2448_PATCHED_restore_sigcontext.c memset 58'
p163
aa.