(lp0
(lp1
(lp2
S'static'
p3
aS'int'
p4
aS'func_0'
p5
aS'('
p6
aS'struct'
p7
aS'variable_0'
p8
aS'*'
p9
aS'variable_1'
p10
aS','
p11
aS'int'
p12
aS'variable_2'
p13
ag9
aS'variable_3'
p14
aS')'
p15
aS'struct'
p16
aS'sctp_assoc_stats'
p17
aS'variable_4'
p18
aS';'
p19
aS'if'
p20
ag6
aS'variable_5'
p21
aS'<'
p22
aS'sizeof'
p23
ag6
aS'variable_6'
p24
ag15
ag15
aS'if'
p25
ag6
aS'func_1'
p26
ag6
aS'&'
p27
aS'variable_4'
p28
ag11
aS'variable_7'
p29
ag11
aS'variable_5'
p30
ag15
ag15
aS'variable_8'
p31
aS'='
p32
aS'func_2'
p33
ag6
aS'variable_1'
p34
ag11
aS'variable_4'
p35
aS'.'
p36
aS'variable_9'
p37
ag15
ag19
aS'if'
p38
ag6
aS'!'
p39
aS'variable_8'
p40
ag15
aS'variable_4'
p41
ag36
aS'variable_10'
p42
ag32
aS'variable_8'
p43
aS'->'
p44
aS'variable_11'
p45
ag36
aS'variable_12'
p46
ag19
aS'variable_4'
p47
ag36
aS'variable_13'
p48
ag32
aS'variable_8'
p49
aS'->'
p50
aS'variable_11'
p51
ag36
aS'variable_14'
p52
ag19
aS'variable_4'
p53
ag36
aS'variable_15'
p54
ag32
aS'variable_8'
p55
aS'->'
p56
aS'variable_11'
p57
ag36
aS'variable_16'
p58
ag19
aS'variable_4'
p59
ag36
aS'variable_17'
p60
ag32
aS'variable_8'
p61
aS'->'
p62
aS'variable_11'
p63
ag36
aS'variable_18'
p64
ag19
aS'variable_4'
p65
ag36
aS'variable_19'
p66
ag32
aS'variable_8'
p67
aS'->'
p68
aS'variable_11'
p69
ag36
aS'variable_20'
p70
ag19
aS'variable_4'
p71
ag36
aS'variable_21'
p72
ag32
aS'variable_8'
p73
aS'->'
p74
aS'variable_11'
p75
ag36
aS'variable_22'
p76
ag19
aS'variable_4'
p77
ag36
aS'variable_23'
p78
ag32
aS'variable_8'
p79
aS'->'
p80
aS'variable_11'
p81
ag36
aS'variable_24'
p82
ag19
aS'variable_4'
p83
ag36
aS'variable_25'
p84
ag32
aS'variable_8'
p85
aS'->'
p86
aS'variable_11'
p87
ag36
aS'variable_26'
p88
ag19
aS'variable_4'
p89
ag36
aS'variable_27'
p90
ag32
aS'variable_8'
p91
aS'->'
p92
aS'variable_11'
p93
ag36
aS'variable_28'
p94
ag19
aS'variable_4'
p95
ag36
aS'variable_29'
p96
ag32
aS'variable_8'
p97
aS'->'
p98
aS'variable_11'
p99
ag36
aS'variable_30'
p100
ag19
aS'variable_4'
p101
ag36
aS'variable_31'
p102
ag32
aS'variable_8'
p103
aS'->'
p104
aS'variable_11'
p105
ag36
aS'variable_32'
p106
ag19
aS'variable_4'
p107
ag36
aS'variable_33'
p108
ag32
aS'variable_8'
p109
aS'->'
p110
aS'variable_11'
p111
ag36
aS'variable_34'
p112
ag19
aS'variable_4'
p113
ag36
aS'variable_35'
p114
ag32
aS'variable_8'
p115
aS'->'
p116
aS'variable_11'
p117
ag36
aS'variable_36'
p118
ag19
aS'variable_4'
p119
ag36
aS'variable_37'
p120
ag32
aS'variable_8'
p121
aS'->'
p122
aS'variable_11'
p123
ag36
aS'variable_38'
p124
ag19
aS'variable_4'
p125
ag36
aS'variable_39'
p126
ag32
aS'variable_8'
p127
aS'->'
p128
aS'variable_11'
p129
ag36
aS'variable_40'
p130
ag19
aS'memcpy'
p131
ag6
ag27
aS'variable_4'
p132
ag36
aS'variable_41'
p133
ag11
ag27
aS'variable_8'
p134
aS'->'
p135
aS'variable_11'
p136
ag36
aS'variable_42'
p137
ag11
aS'sizeof'
p138
ag6
aS'struct'
p139
aS'variable_43'
p140
ag15
ag15
ag19
aS'func_3'
p141
ag6
aS'"'
p142
aS'sctp_getsockopt_assoc_stat'
p143
ag6
aS'%'
p144
aS'd'
p145
ag15
aS':'
p146
ag144
ag145
aS'\\'
p147
aS'n'
p148
ag142
ag11
aS'variable_5'
p149
ag11
aS'variable_4'
p150
ag36
aS'variable_9'
p151
ag15
ag19
aS'if'
p152
ag6
aS'func_4'
p153
ag6
aS'variable_7'
p154
ag11
ag27
aS'variable_4'
p155
ag11
aS'variable_5'
p156
ag15
ag15
aaa(lp157
I0
aa(lp158
I206
aa(lp159
(lp160
S'main'
p161
aaa(lp162
S'528 /home/SySeVR/data/CVE_2013_1828_VULN_sctp_getsockopt_assoc_stats.c memcpy 39'
p163
aa.