(lp0
(lp1
(lp2
S'static'
p3
aS'int'
p4
aS'func_0'
p5
aS'('
p6
aS'struct'
p7
aS'variable_0'
p8
aS'*'
p9
aS'variable_1'
p10
aS','
p11
aS'variable_2'
p12
ag9
aS'variable_3'
p13
aS')'
p14
aS'struct'
p15
aS'variable_4'
p16
ag9
aS'variable_5'
p17
aS';'
p18
aS'struct'
p19
aS'variable_6'
p20
ag9
aS'variable_7'
p21
ag18
aS'switch'
p22
ag6
aS'variable_1'
p23
aS'->'
p24
aS'variable_8'
p25
ag14
aS'variable_5'
p26
aS'='
p27
aS'&'
p28
aS'variable_1'
p29
aS'->'
p30
aS'variable_9'
p31
aS'.'
p32
aS'variable_10'
p33
ag18
aS'variable_5'
p34
aS'->'
p35
aS'variable_11'
p36
ag27
aS'func_1'
p37
ag6
aS'variable_2'
p38
ag11
ag9
aS'variable_3'
p39
aS'++'
p40
ag11
aS'20'
p41
ag14
ag18
aS'variable_7'
p42
ag27
ag28
aS'variable_1'
p43
aS'->'
p44
aS'variable_9'
p45
ag32
aS'variable_12'
p46
ag18
aS'variable_7'
p47
aS'->'
p48
aS'variable_13'
p49
ag27
aS'func_2'
p50
ag6
aS'variable_2'
p51
ag11
ag9
aS'variable_3'
p52
aS'++'
p53
ag11
aS'50'
p54
ag14
ag18
aS'if'
p55
ag6
aS'variable_7'
p56
aS'->'
p57
aS'variable_13'
p58
aS'>'
p59
aS'0'
p60
ag14
aS'memcpy'
p61
ag6
aS'variable_7'
p62
aS'->'
p63
aS'variable_14'
p64
ag11
aS'variable_3'
p65
ag11
aS'variable_7'
p66
aS'->'
p67
aS'variable_13'
p68
ag14
ag18
aa(lp69
S'static'
p70
aS'int'
p71
aS'func_0'
p72
ag6
aS'struct'
p73
aS'variable_0'
p74
ag9
aS'variable_1'
p75
ag11
aS'variable_2'
p76
ag9
aS'variable_3'
p77
ag14
aS'struct'
p78
aS'variable_4'
p79
ag9
aS'variable_5'
p80
ag18
aS'switch'
p81
ag6
aS'variable_1'
p82
aS'->'
p83
aS'variable_6'
p84
ag14
aS'variable_5'
p85
ag27
ag28
aS'variable_1'
p86
aS'->'
p87
aS'variable_7'
p88
ag32
aS'variable_8'
p89
ag18
aS'variable_5'
p90
aS'->'
p91
aS'variable_9'
p92
ag27
aS'func_1'
p93
ag6
aS'variable_2'
p94
ag11
ag9
aS'variable_3'
p95
aS'++'
p96
ag11
aS'20'
p97
ag14
ag18
aS'if'
p98
ag6
aS'variable_5'
p99
aS'->'
p100
aS'variable_9'
p101
ag59
ag60
ag14
aS'memcpy'
p102
ag6
aS'variable_5'
p103
aS'->'
p104
aS'variable_10'
p105
ag11
aS'variable_3'
p106
ag11
aS'variable_5'
p107
aS'->'
p108
aS'variable_9'
p109
ag14
ag18
aaa(lp110
I0
aI0
aa(lp111
I86
aI57
aa(lp112
(lp113
S'main'
p114
aa(lp115
g114
aaa(lp116
S'493 /home/SySeVR/data/CVE_2012_3364_PATCHED_nci_extract_activation_params_iso_dep.c memcpy 23'
p117
aS'494 /home/SySeVR/data/CVE_2012_3364_PATCHED_nci_extract_activation_params_iso_dep.c memcpy 13'
p118
aa.