(lp0
(lp1
(lp2
S'static'
p3
aS'int'
p4
aS'func_0'
p5
aS'('
p6
aS'variable_0'
p7
aS'*'
p8
aS'variable_1'
p9
aS')'
p10
aS'uint8_t'
p11
aS'variable_2'
p12
aS'['
p13
aS'variable_3'
p14
aS']'
p15
aS';'
p16
aS'int'
p17
aS'variable_4'
p18
aS','
p19
aS'variable_5'
p20
ag19
aS'variable_6'
p21
aS'='
p22
aS'-'
p23
aS'1'
p24
ag16
aS'RangeCoder'
p25
ag8
aS'const'
p26
aS'variable_7'
p27
ag22
aS'&'
p28
aS'variable_1'
p29
aS'->'
p30
aS'variable_8'
p31
ag13
aS'0'
p32
ag15
aS'->'
p33
aS'memset'
p34
ag6
aS'variable_2'
p35
ag19
aS'128'
p36
ag19
aS'sizeof'
p37
ag6
aS'variable_2'
p38
ag10
ag10
ag16
aS'if'
p39
ag6
aS'variable_1'
p40
aS'->'
p41
aS'variable_9'
p42
aS'<'
p43
aS'2'
p44
ag10
aS'unsigned'
p45
aS'variable_10'
p46
ag22
aS'func_1'
p47
ag6
aS'variable_7'
p48
ag19
aS'variable_2'
p49
ag19
ag32
ag10
ag16
aS'if'
p50
ag6
aS'variable_10'
p51
aS'>'
p52
ag22
ag44
ag10
aS'variable_1'
p53
aS'->'
p54
aS'variable_9'
p55
ag22
aS'variable_10'
p56
ag16
aS'variable_1'
p57
aS'->'
p58
aS'variable_11'
p59
ag22
aS'variable_1'
p60
aS'->'
p61
aS'variable_12'
p62
aS'->'
p63
aS'variable_13'
p64
ag22
aS'func_2'
p65
ag6
aS'variable_7'
p66
ag19
aS'variable_2'
p67
ag19
ag32
ag10
ag16
aS'if'
p68
ag6
aS'variable_1'
p69
aS'->'
p70
aS'variable_11'
p71
ag52
ag24
ag10
aS'for'
p72
ag6
aS'variable_4'
p73
ag22
ag24
ag16
aS'variable_4'
p74
ag43
aS'256'
p75
ag16
aS'variable_4'
p76
aS'++'
p77
ag10
aS'variable_1'
p78
aS'->'
p79
aS'variable_14'
p80
ag13
aS'variable_4'
p81
ag15
ag22
aS'func_3'
p82
ag6
aS'variable_7'
p83
ag19
aS'variable_2'
p84
ag19
ag24
ag10
aS'+'
p85
aS'variable_7'
p86
aS'->'
p87
aS'variable_15'
p88
ag13
aS'variable_4'
p89
ag15
ag16
aS'variable_1'
p90
aS'->'
p91
aS'variable_16'
p92
ag22
aS'func_4'
p93
ag6
aS'variable_7'
p94
ag19
aS'variable_2'
p95
ag19
ag32
ag10
ag16
aS'if'
p96
ag6
aS'variable_1'
p97
aS'->'
p98
aS'variable_9'
p99
ag52
ag32
ag10
aS'variable_1'
p100
aS'->'
p101
aS'variable_12'
p102
aS'->'
p103
aS'variable_17'
p104
ag22
aS'func_5'
p105
ag6
aS'variable_7'
p106
ag19
aS'variable_2'
p107
ag19
ag32
ag10
ag16
aS'variable_1'
p108
aS'->'
p109
aS'variable_18'
p110
ag22
aS'func_6'
p111
ag6
aS'variable_7'
p112
ag19
aS'variable_2'
p113
ag10
ag16
aS'variable_1'
p114
aS'->'
p115
aS'variable_19'
p116
ag22
aS'func_7'
p117
ag6
aS'variable_7'
p118
ag19
aS'variable_2'
p119
ag19
ag32
ag10
ag16
aS'variable_1'
p120
aS'->'
p121
aS'variable_20'
p122
ag22
aS'func_8'
p123
ag6
aS'variable_7'
p124
ag19
aS'variable_2'
p125
ag19
ag32
ag10
ag16
aS'variable_1'
p126
aS'->'
p127
aS'variable_21'
p128
ag22
aS'func_9'
p129
ag6
aS'variable_7'
p130
ag19
aS'variable_2'
p131
ag10
ag16
aS'variable_1'
p132
aS'->'
p133
aS'variable_22'
p134
ag22
ag44
ag85
aS'variable_1'
p135
aS'->'
p136
aS'variable_21'
p137
ag16
aS'if'
p138
ag6
aS'variable_1'
p139
aS'->'
p140
aS'variable_16'
p141
aS'=='
p142
ag32
ag10
aS'if'
p143
ag6
aS'!'
p144
aS'variable_1'
p145
aS'->'
p146
aS'variable_21'
p147
aS'&&'
p148
ag144
aS'variable_1'
p149
aS'->'
p150
aS'variable_18'
p151
ag10
aS'if'
p152
ag6
aS'variable_1'
p153
aS'->'
p154
aS'variable_12'
p155
aS'->'
p156
aS'variable_17'
p157
ag43
ag22
aS'8'
p158
ag10
aS'variable_1'
p159
aS'->'
p160
aS'variable_12'
p161
aS'->'
p162
aS'variable_23'
p163
ag22
aS'variable_24'
p164
ag16
aS'variable_1'
p165
aS'->'
p166
aS'variable_12'
p167
aS'->'
p168
aS'variable_23'
p169
ag22
aS'variable_25'
p170
ag16
aS'if'
p171
ag6
aS'variable_1'
p172
aS'->'
p173
aS'variable_12'
p174
aS'->'
p175
aS'variable_17'
p176
ag43
ag22
ag158
aS'&&'
p177
ag144
aS'variable_1'
p178
aS'->'
p179
aS'variable_21'
p180
ag10
aS'switch'
p181
ag6
aS'16'
p182
ag8
aS'variable_1'
p183
aS'->'
p184
aS'variable_19'
p185
ag85
aS'variable_1'
p186
aS'->'
p187
aS'variable_20'
p188
ag10
aS'variable_1'
p189
aS'->'
p190
aS'variable_12'
p191
aS'->'
p192
aS'variable_23'
p193
ag22
aS'variable_26'
p194
ag16
aS'variable_1'
p195
aS'->'
p196
aS'variable_12'
p197
aS'->'
p198
aS'variable_23'
p199
ag22
aS'variable_27'
p200
ag16
aS'variable_1'
p201
aS'->'
p202
aS'variable_12'
p203
aS'->'
p204
aS'variable_23'
p205
ag22
aS'variable_28'
p206
ag16
aS'variable_1'
p207
aS'->'
p208
aS'variable_12'
p209
aS'->'
p210
aS'variable_23'
p211
ag22
aS'variable_29'
p212
ag16
aS'variable_1'
p213
aS'->'
p214
aS'variable_12'
p215
aS'->'
p216
aS'variable_23'
p217
ag22
aS'variable_30'
p218
ag16
aS'variable_1'
p219
aS'->'
p220
aS'variable_12'
p221
aS'->'
p222
aS'variable_23'
p223
ag22
aS'variable_31'
p224
ag16
aS'if'
p225
ag6
aS'variable_1'
p226
aS'->'
p227
aS'variable_12'
p228
aS'->'
p229
aS'variable_17'
p230
ag43
ag22
ag158
aS'&&'
p231
aS'variable_1'
p232
aS'->'
p233
aS'variable_21'
p234
ag10
aS'switch'
p235
ag6
aS'16'
p236
ag8
aS'variable_1'
p237
aS'->'
p238
aS'variable_19'
p239
ag85
aS'variable_1'
p240
aS'->'
p241
aS'variable_20'
p242
ag10
aS'variable_1'
p243
aS'->'
p244
aS'variable_12'
p245
aS'->'
p246
aS'variable_23'
p247
ag22
aS'variable_32'
p248
ag16
aS'variable_1'
p249
aS'->'
p250
aS'variable_12'
p251
aS'->'
p252
aS'variable_23'
p253
ag22
aS'variable_33'
p254
ag16
aS'variable_1'
p255
aS'->'
p256
aS'variable_12'
p257
aS'->'
p258
aS'variable_23'
p259
ag22
aS'variable_34'
p260
ag16
aS'if'
p261
ag6
aS'variable_1'
p262
aS'->'
p263
aS'variable_12'
p264
aS'->'
p265
aS'variable_17'
p266
aS'=='
p267
aS'9'
p268
ag10
aS'variable_1'
p269
aS'->'
p270
aS'variable_35'
p271
ag22
ag24
ag16
aS'switch'
p272
ag6
aS'16'
p273
ag8
aS'variable_1'
p274
aS'->'
p275
aS'variable_19'
p276
ag85
aS'variable_1'
p277
aS'->'
p278
aS'variable_20'
p279
ag10
aS'variable_1'
p280
aS'->'
p281
aS'variable_12'
p282
aS'->'
p283
aS'variable_23'
p284
ag22
aS'variable_36'
p285
ag16
aS'variable_1'
p286
aS'->'
p287
aS'variable_12'
p288
aS'->'
p289
aS'variable_23'
p290
ag22
aS'variable_37'
p291
ag16
aS'variable_1'
p292
aS'->'
p293
aS'variable_12'
p294
aS'->'
p295
aS'variable_23'
p296
ag22
aS'variable_38'
p297
ag16
aS'if'
p298
ag6
aS'variable_1'
p299
aS'->'
p300
aS'variable_12'
p301
aS'->'
p302
aS'variable_17'
p303
aS'=='
p304
aS'10'
p305
ag10
aS'variable_1'
p306
aS'->'
p307
aS'variable_35'
p308
ag22
ag24
ag16
aS'switch'
p309
ag6
aS'16'
p310
ag8
aS'variable_1'
p311
aS'->'
p312
aS'variable_19'
p313
ag85
aS'variable_1'
p314
aS'->'
p315
aS'variable_20'
p316
ag10
aS'variable_1'
p317
aS'->'
p318
aS'variable_12'
p319
aS'->'
p320
aS'variable_23'
p321
ag22
aS'variable_39'
p322
ag16
aS'variable_1'
p323
aS'->'
p324
aS'variable_12'
p325
aS'->'
p326
aS'variable_23'
p327
ag22
aS'variable_40'
p328
ag16
aS'variable_1'
p329
aS'->'
p330
aS'variable_12'
p331
aS'->'
p332
aS'variable_23'
p333
ag22
aS'variable_41'
p334
ag16
aS'switch'
p335
ag6
aS'16'
p336
ag8
aS'variable_1'
p337
aS'->'
p338
aS'variable_19'
p339
ag85
aS'variable_1'
p340
aS'->'
p341
aS'variable_20'
p342
ag10
aS'variable_1'
p343
aS'->'
p344
aS'variable_12'
p345
aS'->'
p346
aS'variable_23'
p347
ag22
aS'variable_42'
p348
ag16
aS'variable_1'
p349
aS'->'
p350
aS'variable_12'
p351
aS'->'
p352
aS'variable_23'
p353
ag22
aS'variable_43'
p354
ag16
aS'variable_1'
p355
aS'->'
p356
aS'variable_12'
p357
aS'->'
p358
aS'variable_23'
p359
ag22
aS'variable_44'
p360
ag16
aS'if'
p361
ag6
aS'variable_1'
p362
aS'->'
p363
aS'variable_16'
p364
aS'=='
p365
ag24
ag10
aS'if'
p366
ag6
aS'variable_1'
p367
aS'->'
p368
aS'variable_19'
p369
aS'||'
p370
aS'variable_1'
p371
aS'->'
p372
aS'variable_20'
p373
ag10
aS'if'
p374
ag6
aS'variable_1'
p375
aS'->'
p376
aS'variable_12'
p377
aS'->'
p378
aS'variable_17'
p379
aS'=='
p380
ag268
ag10
aS'variable_1'
p381
aS'->'
p382
aS'variable_12'
p383
aS'->'
p384
aS'variable_23'
p385
ag22
aS'variable_45'
p386
ag16
aS'if'
p387
ag6
aS'variable_1'
p388
aS'->'
p389
aS'variable_12'
p390
aS'->'
p391
aS'variable_17'
p392
aS'=='
p393
aS'10'
p394
ag10
aS'variable_1'
p395
aS'->'
p396
aS'variable_12'
p397
aS'->'
p398
aS'variable_23'
p399
ag22
aS'variable_46'
p400
ag16
aS'if'
p401
ag6
aS'variable_1'
p402
aS'->'
p403
aS'variable_12'
p404
aS'->'
p405
aS'variable_17'
p406
aS'=='
p407
aS'12'
p408
ag10
aS'variable_1'
p409
aS'->'
p410
aS'variable_12'
p411
aS'->'
p412
aS'variable_23'
p413
ag22
aS'variable_47'
p414
ag16
aS'if'
p415
ag6
aS'variable_1'
p416
aS'->'
p417
aS'variable_12'
p418
aS'->'
p419
aS'variable_17'
p420
aS'=='
p421
aS'14'
p422
ag10
aS'variable_1'
p423
aS'->'
p424
aS'variable_12'
p425
aS'->'
p426
aS'variable_23'
p427
ag22
aS'variable_48'
p428
ag16
aS'if'
p429
ag6
aS'variable_1'
p430
aS'->'
p431
aS'variable_21'
p432
ag10
aS'variable_1'
p433
aS'->'
p434
aS'variable_12'
p435
aS'->'
p436
aS'variable_23'
p437
ag22
aS'variable_49'
p438
ag16
aS'variable_1'
p439
aS'->'
p440
aS'variable_12'
p441
aS'->'
p442
aS'variable_23'
p443
ag22
aS'variable_50'
p444
ag16
aS'if'
p445
ag6
aS'variable_1'
p446
aS'->'
p447
aS'variable_9'
p448
ag43
ag44
ag10
aS'variable_6'
p449
ag22
aS'func_10'
p450
ag6
aS'variable_7'
p451
ag19
aS'variable_1'
p452
aS'->'
p453
aS'variable_51'
p454
ag10
ag16
aS'if'
p455
ag6
aS'variable_6'
p456
ag43
ag32
ag10
aS'if'
p457
ag6
aS'variable_1'
p458
aS'->'
p459
aS'variable_9'
p460
ag43
aS'3'
p461
ag10
aS'variable_1'
p462
aS'->'
p463
aS'variable_52'
p464
ag22
aS'func_11'
p465
ag6
aS'variable_7'
p466
ag19
aS'variable_2'
p467
ag19
ag32
ag10
ag16
aS'const'
p468
aS'uint8_t'
p469
ag8
aS'variable_53'
p470
ag22
aS'variable_7'
p471
aS'->'
p472
aS'variable_54'
p473
ag16
aS'for'
p474
ag6
aS'variable_1'
p475
aS'->'
p476
aS'variable_52'
p477
ag22
aS'variable_1'
p478
aS'->'
p479
aS'variable_52'
p480
ag43
aS'variable_55'
p481
aS'&&'
p482
ag461
ag43
aS'variable_53'
p483
ag23
aS'variable_1'
p484
aS'->'
p485
aS'variable_52'
p486
aS'++'
p487
ag10
aS'int'
p488
aS'variable_56'
p489
ag22
ag461
ag85
aS'5'
p490
ag8
ag144
ag144
aS'variable_1'
p491
aS'->'
p492
aS'variable_57'
p493
ag16
aS'int'
p494
aS'variable_58'
p495
ag22
aS'func_12'
p496
ag6
aS'variable_53'
p497
ag23
aS'variable_56'
p498
ag10
ag16
aS'if'
p499
ag6
aS'variable_58'
p500
ag85
aS'variable_56'
p501
ag52
aS'variable_53'
p502
ag23
aS'variable_7'
p503
aS'->'
p504
aS'variable_59'
p505
ag10
aS'variable_53'
p506
aS'-='
p507
aS'variable_58'
p508
ag85
aS'variable_56'
p509
ag16
aS'if'
p510
ag6
aS'variable_1'
p511
aS'->'
p512
aS'variable_52'
p513
ag52
ag6
aS'unsigned'
p514
ag10
aS'variable_55'
p515
aS'||'
p516
aS'variable_1'
p517
aS'->'
p518
aS'variable_52'
p519
ag43
ag22
ag32
ag10
aS'for'
p520
ag6
aS'variable_5'
p521
ag22
ag32
ag16
aS'variable_5'
p522
ag43
aS'variable_1'
p523
aS'->'
p524
aS'variable_52'
p525
ag16
aS'variable_5'
p526
aS'++'
p527
ag10
aS'variable_0'
p528
ag8
aS'variable_60'
p529
ag22
aS'variable_1'
p530
aS'->'
p531
aS'variable_8'
p532
ag13
aS'variable_5'
p533
ag15
ag16
aS'variable_60'
p534
aS'->'
p535
aS'variable_11'
p536
ag22
aS'variable_1'
p537
aS'->'
p538
aS'variable_11'
p539
ag16
aS'variable_60'
p540
aS'->'
p541
aS'variable_35'
p542
ag22
aS'variable_1'
p543
aS'->'
p544
aS'variable_35'
p545
ag16
aS'variable_60'
p546
aS'->'
p547
aS'variable_61'
p548
ag22
ag32
ag16
aS'if'
p549
ag6
aS'variable_1'
p550
aS'->'
p551
aS'variable_9'
p552
aS'=='
p553
ag44
ag10
aS'variable_60'
p554
aS'->'
p555
aS'variable_62'
p556
ag22
aS'func_13'
p557
ag6
aS'variable_7'
p558
ag19
aS'variable_2'
p559
ag19
ag32
ag10
ag8
aS'variable_1'
p560
aS'->'
p561
aS'variable_63'
p562
ag16
aS'variable_60'
p563
aS'->'
p564
aS'variable_64'
p565
ag22
aS'func_14'
p566
ag6
aS'variable_7'
p567
ag19
aS'variable_2'
p568
ag19
ag32
ag10
ag8
aS'variable_1'
p569
aS'->'
p570
aS'variable_65'
p571
ag16
aS'variable_60'
p572
aS'->'
p573
aS'variable_66'
p574
ag22
ag6
aS'func_15'
p575
ag6
aS'variable_7'
p576
ag19
aS'variable_2'
p577
ag19
ag32
ag10
ag85
ag24
ag10
ag8
aS'variable_1'
p578
aS'->'
p579
aS'variable_63'
p580
ag85
aS'variable_60'
p581
aS'->'
p582
aS'variable_62'
p583
ag16
aS'variable_60'
p584
aS'->'
p585
aS'variable_67'
p586
ag22
ag6
aS'func_16'
p587
ag6
aS'variable_7'
p588
ag19
aS'variable_2'
p589
ag19
ag32
ag10
ag85
ag24
ag10
ag8
aS'variable_1'
p590
aS'->'
p591
aS'variable_65'
p592
ag85
aS'variable_60'
p593
aS'->'
p594
aS'variable_64'
p595
ag16
aS'variable_60'
p596
aS'->'
p597
aS'variable_62'
p598
aS'/'
p599
ag22
aS'variable_1'
p600
aS'->'
p601
aS'variable_68'
p602
ag16
aS'variable_60'
p603
aS'->'
p604
aS'variable_64'
p605
ag599
ag22
aS'variable_1'
p606
aS'->'
p607
aS'variable_69'
p608
ag16
aS'variable_60'
p609
aS'->'
p610
aS'variable_66'
p611
ag22
aS'variable_60'
p612
aS'->'
p613
aS'variable_66'
p614
ag599
aS'variable_1'
p615
aS'->'
p616
aS'variable_68'
p617
ag23
aS'variable_60'
p618
aS'->'
p619
aS'variable_62'
p620
ag16
aS'variable_60'
p621
aS'->'
p622
aS'variable_67'
p623
ag22
aS'variable_60'
p624
aS'->'
p625
aS'variable_67'
p626
ag599
aS'variable_1'
p627
aS'->'
p628
aS'variable_69'
p629
ag23
aS'variable_60'
p630
aS'->'
p631
aS'variable_64'
p632
ag16
aS'if'
p633
ag6
ag6
aS'unsigned'
p634
ag10
aS'variable_60'
p635
aS'->'
p636
aS'variable_66'
p637
ag52
aS'variable_1'
p638
aS'->'
p639
aS'variable_63'
p640
aS'||'
p641
ag6
aS'unsigned'
p642
ag10
aS'variable_60'
p643
aS'->'
p644
aS'variable_67'
p645
ag52
aS'variable_1'
p646
aS'->'
p647
aS'variable_65'
p648
ag10
aS'if'
p649
ag6
ag6
aS'unsigned'
p650
ag10
aS'variable_60'
p651
aS'->'
p652
aS'variable_62'
p653
ag85
ag6
aS'variable_70'
p654
ag10
aS'variable_60'
p655
aS'->'
p656
aS'variable_66'
p657
ag52
aS'variable_1'
p658
aS'->'
p659
aS'variable_63'
p660
aS'||'
p661
ag6
aS'unsigned'
p662
ag10
aS'variable_60'
p663
aS'->'
p664
aS'variable_64'
p665
ag85
ag6
aS'variable_70'
p666
ag10
aS'variable_60'
p667
aS'->'
p668
aS'variable_67'
p669
ag52
aS'variable_1'
p670
aS'->'
p671
aS'variable_65'
p672
ag10
aS'for'
p673
ag6
aS'variable_4'
p674
ag22
ag32
ag16
aS'variable_4'
p675
ag43
aS'variable_1'
p676
aS'->'
p677
aS'variable_22'
p678
ag16
aS'variable_4'
p679
aS'++'
p680
ag10
aS'PlaneContext'
p681
ag8
aS'const'
p682
aS'variable_53'
p683
ag22
ag28
aS'variable_60'
p684
aS'->'
p685
aS'variable_71'
p686
ag13
aS'variable_4'
p687
ag15
aS'if'
p688
ag6
aS'variable_1'
p689
aS'->'
p690
aS'variable_9'
p691
aS'=='
p692
ag44
ag10
aS'int'
p693
aS'variable_72'
p694
ag22
aS'func_17'
p695
ag6
aS'variable_7'
p696
ag19
aS'variable_2'
p697
ag19
ag32
ag10
ag16
aS'if'
p698
ag6
aS'variable_72'
p699
ag52
ag6
aS'unsigned'
p700
ag10
aS'variable_1'
p701
aS'->'
p702
aS'variable_73'
p703
ag10
aS'variable_53'
p704
aS'->'
p705
aS'variable_74'
p706
ag22
aS'variable_72'
p707
ag16
aS'variable_6'
p708
ag22
aS'variable_1'
p709
aS'->'
p710
aS'variable_6'
p711
ag13
aS'variable_72'
p712
ag15
ag16
aS'memcpy'
p713
ag6
aS'variable_53'
p714
aS'->'
p715
aS'variable_51'
p716
ag19
aS'variable_1'
p717
aS'->'
p718
aS'variable_51'
p719
ag19
aS'sizeof'
p720
ag6
aS'variable_53'
p721
aS'->'
p722
aS'variable_51'
p723
ag10
ag10
ag16
aS'if'
p724
ag6
aS'variable_1'
p725
aS'->'
p726
aS'variable_9'
p727
ag43
ag22
ag44
ag10
aS'if'
p728
ag6
aS'variable_53'
p729
aS'->'
p730
aS'variable_6'
p731
ag43
aS'variable_6'
p732
ag10
aS'func_18'
p733
ag6
ag28
aS'variable_53'
p734
aS'->'
p735
aS'variable_2'
p736
ag10
ag16
aS'func_19'
p737
ag6
ag28
aS'variable_53'
p738
aS'->'
p739
aS'variable_75'
p740
ag10
ag16
aS'variable_53'
p741
aS'->'
p742
aS'variable_6'
p743
ag22
aS'variable_6'
p744
ag16
aa(lp745
S'static'
p746
aS'int'
p747
aS'func_0'
p748
ag6
aS'variable_0'
p749
ag8
aS'variable_1'
p750
ag10
aS'uint8_t'
p751
aS'variable_2'
p752
ag13
aS'variable_3'
p753
ag15
ag16
aS'RangeCoder'
p754
ag8
aS'const'
p755
aS'variable_4'
p756
ag22
ag28
aS'variable_1'
p757
aS'->'
p758
aS'variable_5'
p759
ag13
ag32
ag15
aS'->'
p760
aS'memset'
p761
ag6
aS'variable_2'
p762
ag19
aS'128'
p763
ag19
aS'sizeof'
p764
ag6
aS'variable_2'
p765
ag10
ag10
ag16
aS'if'
p766
ag6
aS'variable_1'
p767
aS'->'
p768
aS'variable_6'
p769
ag43
ag44
ag10
aS'unsigned'
p770
aS'variable_7'
p771
ag22
aS'func_1'
p772
ag6
aS'variable_4'
p773
ag19
aS'variable_2'
p774
ag19
ag32
ag10
ag16
aS'if'
p775
ag6
aS'variable_7'
p776
ag52
ag22
ag44
ag10
aS'variable_1'
p777
aS'->'
p778
aS'variable_6'
p779
ag22
aS'variable_7'
p780
ag16
aS'variable_1'
p781
aS'->'
p782
aS'variable_8'
p783
ag22
aS'variable_1'
p784
aS'->'
p785
aS'variable_9'
p786
aS'->'
p787
aS'variable_10'
p788
ag22
aS'func_2'
p789
ag6
aS'variable_4'
p790
ag19
aS'variable_2'
p791
ag19
ag32
ag10
ag16
aS'if'
p792
ag6
aS'variable_1'
p793
aS'->'
p794
aS'variable_8'
p795
ag52
ag24
ag10
aS'for'
p796
ag6
aS'variable_11'
p797
ag22
ag24
ag16
aS'variable_11'
p798
ag43
aS'256'
p799
ag16
aS'variable_11'
p800
aS'++'
p801
ag10
aS'variable_1'
p802
aS'->'
p803
aS'variable_12'
p804
ag13
aS'variable_11'
p805
ag15
ag22
aS'func_3'
p806
ag6
aS'variable_4'
p807
ag19
aS'variable_2'
p808
ag19
ag24
ag10
ag85
aS'variable_4'
p809
aS'->'
p810
aS'variable_13'
p811
ag13
aS'variable_11'
p812
ag15
ag16
aS'variable_1'
p813
aS'->'
p814
aS'variable_14'
p815
ag22
aS'func_4'
p816
ag6
aS'variable_4'
p817
ag19
aS'variable_2'
p818
ag19
ag32
ag10
ag16
aS'if'
p819
ag6
aS'variable_1'
p820
aS'->'
p821
aS'variable_6'
p822
ag52
ag32
ag10
aS'variable_1'
p823
aS'->'
p824
aS'variable_9'
p825
aS'->'
p826
aS'variable_15'
p827
ag22
aS'func_5'
p828
ag6
aS'variable_4'
p829
ag19
aS'variable_2'
p830
ag19
ag32
ag10
ag16
aS'variable_1'
p831
aS'->'
p832
aS'variable_16'
p833
ag22
aS'func_6'
p834
ag6
aS'variable_4'
p835
ag19
aS'variable_2'
p836
ag10
ag16
aS'variable_1'
p837
aS'->'
p838
aS'variable_17'
p839
ag22
aS'func_7'
p840
ag6
aS'variable_4'
p841
ag19
aS'variable_2'
p842
ag19
ag32
ag10
ag16
aS'variable_1'
p843
aS'->'
p844
aS'variable_18'
p845
ag22
aS'func_8'
p846
ag6
aS'variable_4'
p847
ag19
aS'variable_2'
p848
ag19
ag32
ag10
ag16
aS'variable_1'
p849
aS'->'
p850
aS'variable_19'
p851
ag22
aS'func_9'
p852
ag6
aS'variable_4'
p853
ag19
aS'variable_2'
p854
ag10
ag16
aS'variable_1'
p855
aS'->'
p856
aS'variable_20'
p857
ag22
ag44
ag85
aS'variable_1'
p858
aS'->'
p859
aS'variable_19'
p860
ag16
aS'if'
p861
ag6
aS'variable_1'
p862
aS'->'
p863
aS'variable_14'
p864
aS'=='
p865
ag32
ag10
aS'if'
p866
ag6
ag144
aS'variable_1'
p867
aS'->'
p868
aS'variable_19'
p869
aS'&&'
p870
ag144
aS'variable_1'
p871
aS'->'
p872
aS'variable_16'
p873
ag10
aS'if'
p874
ag6
aS'variable_1'
p875
aS'->'
p876
aS'variable_9'
p877
aS'->'
p878
aS'variable_15'
p879
ag43
ag22
ag158
ag10
aS'variable_1'
p880
aS'->'
p881
aS'variable_9'
p882
aS'->'
p883
aS'variable_21'
p884
ag22
aS'variable_22'
p885
ag16
aS'variable_1'
p886
aS'->'
p887
aS'variable_9'
p888
aS'->'
p889
aS'variable_21'
p890
ag22
aS'variable_23'
p891
ag16
aS'if'
p892
ag6
aS'variable_1'
p893
aS'->'
p894
aS'variable_9'
p895
aS'->'
p896
aS'variable_15'
p897
ag43
ag22
ag158
aS'&&'
p898
ag144
aS'variable_1'
p899
aS'->'
p900
aS'variable_19'
p901
ag10
aS'switch'
p902
ag6
aS'16'
p903
ag8
aS'variable_1'
p904
aS'->'
p905
aS'variable_17'
p906
ag85
aS'variable_1'
p907
aS'->'
p908
aS'variable_18'
p909
ag10
aS'variable_1'
p910
aS'->'
p911
aS'variable_9'
p912
aS'->'
p913
aS'variable_21'
p914
ag22
aS'variable_24'
p915
ag16
aS'variable_1'
p916
aS'->'
p917
aS'variable_9'
p918
aS'->'
p919
aS'variable_21'
p920
ag22
aS'variable_25'
p921
ag16
aS'variable_1'
p922
aS'->'
p923
aS'variable_9'
p924
aS'->'
p925
aS'variable_21'
p926
ag22
aS'variable_26'
p927
ag16
aS'variable_1'
p928
aS'->'
p929
aS'variable_9'
p930
aS'->'
p931
aS'variable_21'
p932
ag22
aS'variable_27'
p933
ag16
aS'variable_1'
p934
aS'->'
p935
aS'variable_9'
p936
aS'->'
p937
aS'variable_21'
p938
ag22
aS'variable_28'
p939
ag16
aS'variable_1'
p940
aS'->'
p941
aS'variable_9'
p942
aS'->'
p943
aS'variable_21'
p944
ag22
aS'variable_29'
p945
ag16
aS'if'
p946
ag6
aS'variable_1'
p947
aS'->'
p948
aS'variable_9'
p949
aS'->'
p950
aS'variable_15'
p951
ag43
ag22
ag158
aS'&&'
p952
aS'variable_1'
p953
aS'->'
p954
aS'variable_19'
p955
ag10
aS'switch'
p956
ag6
aS'16'
p957
ag8
aS'variable_1'
p958
aS'->'
p959
aS'variable_17'
p960
ag85
aS'variable_1'
p961
aS'->'
p962
aS'variable_18'
p963
ag10
aS'variable_1'
p964
aS'->'
p965
aS'variable_9'
p966
aS'->'
p967
aS'variable_21'
p968
ag22
aS'variable_30'
p969
ag16
aS'variable_1'
p970
aS'->'
p971
aS'variable_9'
p972
aS'->'
p973
aS'variable_21'
p974
ag22
aS'variable_31'
p975
ag16
aS'variable_1'
p976
aS'->'
p977
aS'variable_9'
p978
aS'->'
p979
aS'variable_21'
p980
ag22
aS'variable_32'
p981
ag16
aS'if'
p982
ag6
aS'variable_1'
p983
aS'->'
p984
aS'variable_9'
p985
aS'->'
p986
aS'variable_15'
p987
aS'=='
p988
ag268
ag10
aS'variable_1'
p989
aS'->'
p990
aS'variable_33'
p991
ag22
ag24
ag16
aS'switch'
p992
ag6
aS'16'
p993
ag8
aS'variable_1'
p994
aS'->'
p995
aS'variable_17'
p996
ag85
aS'variable_1'
p997
aS'->'
p998
aS'variable_18'
p999
ag10
aS'variable_1'
p1000
aS'->'
p1001
aS'variable_9'
p1002
aS'->'
p1003
aS'variable_21'
p1004
ag22
aS'variable_34'
p1005
ag16
aS'variable_1'
p1006
aS'->'
p1007
aS'variable_9'
p1008
aS'->'
p1009
aS'variable_21'
p1010
ag22
aS'variable_35'
p1011
ag16
aS'variable_1'
p1012
aS'->'
p1013
aS'variable_9'
p1014
aS'->'
p1015
aS'variable_21'
p1016
ag22
aS'variable_36'
p1017
ag16
aS'if'
p1018
ag6
aS'variable_1'
p1019
aS'->'
p1020
aS'variable_9'
p1021
aS'->'
p1022
aS'variable_15'
p1023
aS'=='
p1024
aS'10'
p1025
ag10
aS'variable_1'
p1026
aS'->'
p1027
aS'variable_33'
p1028
ag22
ag24
ag16
aS'switch'
p1029
ag6
aS'16'
p1030
ag8
aS'variable_1'
p1031
aS'->'
p1032
aS'variable_17'
p1033
ag85
aS'variable_1'
p1034
aS'->'
p1035
aS'variable_18'
p1036
ag10
aS'variable_1'
p1037
aS'->'
p1038
aS'variable_9'
p1039
aS'->'
p1040
aS'variable_21'
p1041
ag22
aS'variable_37'
p1042
ag16
aS'variable_1'
p1043
aS'->'
p1044
aS'variable_9'
p1045
aS'->'
p1046
aS'variable_21'
p1047
ag22
aS'variable_38'
p1048
ag16
aS'variable_1'
p1049
aS'->'
p1050
aS'variable_9'
p1051
aS'->'
p1052
aS'variable_21'
p1053
ag22
aS'variable_39'
p1054
ag16
aS'switch'
p1055
ag6
aS'16'
p1056
ag8
aS'variable_1'
p1057
aS'->'
p1058
aS'variable_17'
p1059
ag85
aS'variable_1'
p1060
aS'->'
p1061
aS'variable_18'
p1062
ag10
aS'variable_1'
p1063
aS'->'
p1064
aS'variable_9'
p1065
aS'->'
p1066
aS'variable_21'
p1067
ag22
aS'variable_40'
p1068
ag16
aS'variable_1'
p1069
aS'->'
p1070
aS'variable_9'
p1071
aS'->'
p1072
aS'variable_21'
p1073
ag22
aS'variable_41'
p1074
ag16
aS'variable_1'
p1075
aS'->'
p1076
aS'variable_9'
p1077
aS'->'
p1078
aS'variable_21'
p1079
ag22
aS'variable_42'
p1080
ag16
aS'if'
p1081
ag6
aS'variable_1'
p1082
aS'->'
p1083
aS'variable_14'
p1084
aS'=='
p1085
ag24
ag10
aS'if'
p1086
ag6
aS'variable_1'
p1087
aS'->'
p1088
aS'variable_17'
p1089
aS'||'
p1090
aS'variable_1'
p1091
aS'->'
p1092
aS'variable_18'
p1093
ag10
aS'if'
p1094
ag6
aS'variable_1'
p1095
aS'->'
p1096
aS'variable_9'
p1097
aS'->'
p1098
aS'variable_15'
p1099
aS'=='
p1100
ag268
ag10
aS'variable_1'
p1101
aS'->'
p1102
aS'variable_9'
p1103
aS'->'
p1104
aS'variable_21'
p1105
ag22
aS'variable_43'
p1106
ag16
aS'if'
p1107
ag6
aS'variable_1'
p1108
aS'->'
p1109
aS'variable_9'
p1110
aS'->'
p1111
aS'variable_15'
p1112
aS'=='
p1113
aS'10'
p1114
ag10
aS'variable_1'
p1115
aS'->'
p1116
aS'variable_9'
p1117
aS'->'
p1118
aS'variable_21'
p1119
ag22
aS'variable_44'
p1120
ag16
aS'if'
p1121
ag6
aS'variable_1'
p1122
aS'->'
p1123
aS'variable_9'
p1124
aS'->'
p1125
aS'variable_15'
p1126
aS'=='
p1127
aS'12'
p1128
ag10
aS'variable_1'
p1129
aS'->'
p1130
aS'variable_9'
p1131
aS'->'
p1132
aS'variable_21'
p1133
ag22
aS'variable_45'
p1134
ag16
aS'if'
p1135
ag6
aS'variable_1'
p1136
aS'->'
p1137
aS'variable_9'
p1138
aS'->'
p1139
aS'variable_15'
p1140
aS'=='
p1141
aS'14'
p1142
ag10
aS'variable_1'
p1143
aS'->'
p1144
aS'variable_9'
p1145
aS'->'
p1146
aS'variable_21'
p1147
ag22
aS'variable_46'
p1148
ag16
aS'if'
p1149
ag6
aS'variable_1'
p1150
aS'->'
p1151
aS'variable_19'
p1152
ag10
aS'variable_1'
p1153
aS'->'
p1154
aS'variable_9'
p1155
aS'->'
p1156
aS'variable_21'
p1157
ag22
aS'variable_47'
p1158
ag16
aS'variable_1'
p1159
aS'->'
p1160
aS'variable_9'
p1161
aS'->'
p1162
aS'variable_21'
p1163
ag22
aS'variable_48'
p1164
ag16
aS'if'
p1165
ag6
aS'variable_1'
p1166
aS'->'
p1167
aS'variable_6'
p1168
ag43
ag44
ag10
aS'variable_49'
p1169
ag22
aS'func_10'
p1170
ag6
aS'variable_4'
p1171
ag19
aS'variable_1'
p1172
aS'->'
p1173
aS'variable_50'
p1174
ag10
ag16
aS'if'
p1175
ag6
aS'variable_49'
p1176
ag43
ag32
ag10
aS'if'
p1177
ag6
aS'variable_1'
p1178
aS'->'
p1179
aS'variable_6'
p1180
ag43
ag461
ag10
aS'variable_1'
p1181
aS'->'
p1182
aS'variable_51'
p1183
ag22
aS'func_11'
p1184
ag6
aS'variable_4'
p1185
ag19
aS'variable_2'
p1186
ag19
ag32
ag10
ag16
aS'const'
p1187
aS'uint8_t'
p1188
ag8
aS'variable_52'
p1189
ag22
aS'variable_4'
p1190
aS'->'
p1191
aS'variable_53'
p1192
ag16
aS'for'
p1193
ag6
aS'variable_1'
p1194
aS'->'
p1195
aS'variable_51'
p1196
ag22
aS'variable_1'
p1197
aS'->'
p1198
aS'variable_51'
p1199
ag43
aS'variable_54'
p1200
aS'&&'
p1201
ag461
ag43
aS'variable_52'
p1202
ag23
aS'variable_1'
p1203
aS'->'
p1204
aS'variable_51'
p1205
aS'++'
p1206
ag10
aS'int'
p1207
aS'variable_55'
p1208
ag22
ag461
ag85
ag490
ag8
ag144
ag144
aS'variable_1'
p1209
aS'->'
p1210
aS'variable_56'
p1211
ag16
aS'int'
p1212
aS'variable_57'
p1213
ag22
aS'func_12'
p1214
ag6
aS'variable_52'
p1215
ag23
aS'variable_55'
p1216
ag10
ag16
aS'if'
p1217
ag6
aS'variable_57'
p1218
ag85
aS'variable_55'
p1219
ag52
aS'variable_52'
p1220
ag23
aS'variable_4'
p1221
aS'->'
p1222
aS'variable_58'
p1223
ag10
aS'variable_52'
p1224
aS'-='
p1225
aS'variable_57'
p1226
ag85
aS'variable_55'
p1227
ag16
aS'if'
p1228
ag6
aS'variable_1'
p1229
aS'->'
p1230
aS'variable_51'
p1231
ag52
ag6
aS'unsigned'
p1232
ag10
aS'variable_54'
p1233
aS'||'
p1234
aS'variable_1'
p1235
aS'->'
p1236
aS'variable_51'
p1237
ag43
ag22
ag32
ag10
aS'for'
p1238
ag6
aS'variable_59'
p1239
ag22
ag32
ag16
aS'variable_59'
p1240
ag43
aS'variable_1'
p1241
aS'->'
p1242
aS'variable_51'
p1243
ag16
aS'variable_59'
p1244
aS'++'
p1245
ag10
aS'variable_0'
p1246
ag8
aS'variable_60'
p1247
ag22
aS'variable_1'
p1248
aS'->'
p1249
aS'variable_5'
p1250
ag13
aS'variable_59'
p1251
ag15
ag16
aS'variable_60'
p1252
aS'->'
p1253
aS'variable_8'
p1254
ag22
aS'variable_1'
p1255
aS'->'
p1256
aS'variable_8'
p1257
ag16
aS'variable_60'
p1258
aS'->'
p1259
aS'variable_33'
p1260
ag22
aS'variable_1'
p1261
aS'->'
p1262
aS'variable_33'
p1263
ag16
aS'variable_60'
p1264
aS'->'
p1265
aS'variable_61'
p1266
ag22
ag32
ag16
aS'if'
p1267
ag6
aS'variable_1'
p1268
aS'->'
p1269
aS'variable_6'
p1270
aS'=='
p1271
ag44
ag10
aS'variable_60'
p1272
aS'->'
p1273
aS'variable_62'
p1274
ag22
aS'func_13'
p1275
ag6
aS'variable_4'
p1276
ag19
aS'variable_2'
p1277
ag19
ag32
ag10
ag8
aS'variable_1'
p1278
aS'->'
p1279
aS'variable_63'
p1280
ag16
aS'variable_60'
p1281
aS'->'
p1282
aS'variable_64'
p1283
ag22
aS'func_14'
p1284
ag6
aS'variable_4'
p1285
ag19
aS'variable_2'
p1286
ag19
ag32
ag10
ag8
aS'variable_1'
p1287
aS'->'
p1288
aS'variable_65'
p1289
ag16
aS'variable_60'
p1290
aS'->'
p1291
aS'variable_66'
p1292
ag22
ag6
aS'func_15'
p1293
ag6
aS'variable_4'
p1294
ag19
aS'variable_2'
p1295
ag19
ag32
ag10
ag85
ag24
ag10
ag8
aS'variable_1'
p1296
aS'->'
p1297
aS'variable_63'
p1298
ag85
aS'variable_60'
p1299
aS'->'
p1300
aS'variable_62'
p1301
ag16
aS'variable_60'
p1302
aS'->'
p1303
aS'variable_67'
p1304
ag22
ag6
aS'func_16'
p1305
ag6
aS'variable_4'
p1306
ag19
aS'variable_2'
p1307
ag19
ag32
ag10
ag85
ag24
ag10
ag8
aS'variable_1'
p1308
aS'->'
p1309
aS'variable_65'
p1310
ag85
aS'variable_60'
p1311
aS'->'
p1312
aS'variable_64'
p1313
ag16
aS'variable_60'
p1314
aS'->'
p1315
aS'variable_62'
p1316
ag599
ag22
aS'variable_1'
p1317
aS'->'
p1318
aS'variable_68'
p1319
ag16
aS'variable_60'
p1320
aS'->'
p1321
aS'variable_64'
p1322
ag599
ag22
aS'variable_1'
p1323
aS'->'
p1324
aS'variable_69'
p1325
ag16
aS'variable_60'
p1326
aS'->'
p1327
aS'variable_66'
p1328
ag22
aS'variable_60'
p1329
aS'->'
p1330
aS'variable_66'
p1331
ag599
aS'variable_1'
p1332
aS'->'
p1333
aS'variable_68'
p1334
ag23
aS'variable_60'
p1335
aS'->'
p1336
aS'variable_62'
p1337
ag16
aS'variable_60'
p1338
aS'->'
p1339
aS'variable_67'
p1340
ag22
aS'variable_60'
p1341
aS'->'
p1342
aS'variable_67'
p1343
ag599
aS'variable_1'
p1344
aS'->'
p1345
aS'variable_69'
p1346
ag23
aS'variable_60'
p1347
aS'->'
p1348
aS'variable_64'
p1349
ag16
aS'if'
p1350
ag6
ag6
aS'unsigned'
p1351
ag10
aS'variable_60'
p1352
aS'->'
p1353
aS'variable_66'
p1354
ag52
aS'variable_1'
p1355
aS'->'
p1356
aS'variable_63'
p1357
aS'||'
p1358
ag6
aS'unsigned'
p1359
ag10
aS'variable_60'
p1360
aS'->'
p1361
aS'variable_67'
p1362
ag52
aS'variable_1'
p1363
aS'->'
p1364
aS'variable_65'
p1365
ag10
aS'if'
p1366
ag6
ag6
aS'unsigned'
p1367
ag10
aS'variable_60'
p1368
aS'->'
p1369
aS'variable_62'
p1370
ag85
ag6
aS'variable_70'
p1371
ag10
aS'variable_60'
p1372
aS'->'
p1373
aS'variable_66'
p1374
ag52
aS'variable_1'
p1375
aS'->'
p1376
aS'variable_63'
p1377
aS'||'
p1378
ag6
aS'unsigned'
p1379
ag10
aS'variable_60'
p1380
aS'->'
p1381
aS'variable_64'
p1382
ag85
ag6
aS'variable_70'
p1383
ag10
aS'variable_60'
p1384
aS'->'
p1385
aS'variable_67'
p1386
ag52
aS'variable_1'
p1387
aS'->'
p1388
aS'variable_65'
p1389
ag10
aS'for'
p1390
ag6
aS'variable_11'
p1391
ag22
ag32
ag16
aS'variable_11'
p1392
ag43
aS'variable_1'
p1393
aS'->'
p1394
aS'variable_20'
p1395
ag16
aS'variable_11'
p1396
aS'++'
p1397
ag10
aS'PlaneContext'
p1398
ag8
aS'const'
p1399
aS'variable_52'
p1400
ag22
ag28
aS'variable_60'
p1401
aS'->'
p1402
aS'variable_71'
p1403
ag13
aS'variable_11'
p1404
ag15
aS'if'
p1405
ag6
aS'variable_1'
p1406
aS'->'
p1407
aS'variable_6'
p1408
aS'=='
p1409
ag44
ag10
aS'int'
p1410
aS'variable_72'
p1411
ag22
aS'func_17'
p1412
ag6
aS'variable_4'
p1413
ag19
aS'variable_2'
p1414
ag19
ag32
ag10
ag16
aS'if'
p1415
ag6
aS'variable_72'
p1416
ag52
ag6
aS'unsigned'
p1417
ag10
aS'variable_1'
p1418
aS'->'
p1419
aS'variable_73'
p1420
ag10
aS'variable_52'
p1421
aS'->'
p1422
aS'variable_74'
p1423
ag22
aS'variable_72'
p1424
ag16
aS'memcpy'
p1425
ag6
aS'variable_52'
p1426
aS'->'
p1427
aS'variable_50'
p1428
ag19
aS'variable_1'
p1429
aS'->'
p1430
aS'variable_75'
p1431
ag13
aS'variable_72'
p1432
ag15
ag19
aS'sizeof'
p1433
ag6
aS'variable_52'
p1434
aS'->'
p1435
aS'variable_50'
p1436
ag10
ag10
ag16
aaa(lp1437
I0
aI0
aa(lp1438
I1118
aI1099
aa(lp1439
(lp1440
S'main'
p1441
aa(lp1442
g1441
aaa(lp1443
S'548 /home/SySeVR/data/CVE_2013_7011_VULN_read_header.c memcpy 180'
p1444
aS'549 /home/SySeVR/data/CVE_2013_7011_VULN_read_header.c memcpy 176'
p1445
aa.