(lp0
(lp1
(lp2
S'static'
p3
aS'int'
p4
aS'func_0'
p5
aS'('
p6
aS'variable_0'
p7
aS'*'
p8
aS'variable_1'
p9
aS')'
p10
aS'uint8_t'
p11
aS'variable_2'
p12
aS'['
p13
aS'variable_3'
p14
aS']'
p15
aS';'
p16
aS'RangeCoder'
p17
ag8
aS'const'
p18
aS'variable_4'
p19
aS'='
p20
aS'&'
p21
aS'variable_1'
p22
aS'->'
p23
aS'variable_5'
p24
ag13
aS'0'
p25
ag15
aS'->'
p26
aS'memset'
p27
ag6
aS'variable_2'
p28
aS','
p29
aS'128'
p30
ag29
aS'sizeof'
p31
ag6
aS'variable_2'
p32
ag10
ag10
ag16
aS'if'
p33
ag6
aS'variable_1'
p34
aS'->'
p35
aS'variable_6'
p36
aS'<'
p37
aS'2'
p38
ag10
aS'unsigned'
p39
aS'variable_7'
p40
ag20
aS'func_1'
p41
ag6
aS'variable_4'
p42
ag29
aS'variable_2'
p43
ag29
ag25
ag10
ag16
aS'if'
p44
ag6
aS'variable_7'
p45
aS'>'
p46
ag20
ag38
ag10
aS'variable_1'
p47
aS'->'
p48
aS'variable_6'
p49
ag20
aS'variable_7'
p50
ag16
aS'variable_1'
p51
aS'->'
p52
aS'variable_8'
p53
ag20
aS'variable_1'
p54
aS'->'
p55
aS'variable_9'
p56
aS'->'
p57
aS'variable_10'
p58
ag20
aS'func_2'
p59
ag6
aS'variable_4'
p60
ag29
aS'variable_2'
p61
ag29
ag25
ag10
ag16
aS'if'
p62
ag6
aS'variable_1'
p63
aS'->'
p64
aS'variable_8'
p65
ag46
aS'1'
p66
ag10
aS'for'
p67
ag6
aS'variable_11'
p68
ag20
ag66
ag16
aS'variable_11'
p69
ag37
aS'256'
p70
ag16
aS'variable_11'
p71
aS'++'
p72
ag10
aS'variable_1'
p73
aS'->'
p74
aS'variable_12'
p75
ag13
aS'variable_11'
p76
ag15
ag20
aS'func_3'
p77
ag6
aS'variable_4'
p78
ag29
aS'variable_2'
p79
ag29
ag66
ag10
aS'+'
p80
aS'variable_4'
p81
aS'->'
p82
aS'variable_13'
p83
ag13
aS'variable_11'
p84
ag15
ag16
aS'variable_1'
p85
aS'->'
p86
aS'variable_14'
p87
ag20
aS'func_4'
p88
ag6
aS'variable_4'
p89
ag29
aS'variable_2'
p90
ag29
ag25
ag10
ag16
aS'if'
p91
ag6
aS'variable_1'
p92
aS'->'
p93
aS'variable_6'
p94
ag46
ag25
ag10
aS'variable_1'
p95
aS'->'
p96
aS'variable_9'
p97
aS'->'
p98
aS'variable_15'
p99
ag20
aS'func_5'
p100
ag6
aS'variable_4'
p101
ag29
aS'variable_2'
p102
ag29
ag25
ag10
ag16
aS'variable_1'
p103
aS'->'
p104
aS'variable_16'
p105
ag20
aS'func_6'
p106
ag6
aS'variable_4'
p107
ag29
aS'variable_2'
p108
ag10
ag16
aS'variable_1'
p109
aS'->'
p110
aS'variable_17'
p111
ag20
aS'func_7'
p112
ag6
aS'variable_4'
p113
ag29
aS'variable_2'
p114
ag29
ag25
ag10
ag16
aS'variable_1'
p115
aS'->'
p116
aS'variable_18'
p117
ag20
aS'func_8'
p118
ag6
aS'variable_4'
p119
ag29
aS'variable_2'
p120
ag29
ag25
ag10
ag16
aS'variable_1'
p121
aS'->'
p122
aS'variable_19'
p123
ag20
aS'func_9'
p124
ag6
aS'variable_4'
p125
ag29
aS'variable_2'
p126
ag10
ag16
aS'variable_1'
p127
aS'->'
p128
aS'variable_20'
p129
ag20
ag38
ag80
aS'variable_1'
p130
aS'->'
p131
aS'variable_19'
p132
ag16
aS'if'
p133
ag6
aS'variable_1'
p134
aS'->'
p135
aS'variable_14'
p136
aS'=='
p137
ag25
ag10
aS'if'
p138
ag6
aS'!'
p139
aS'variable_1'
p140
aS'->'
p141
aS'variable_19'
p142
aS'&&'
p143
ag139
aS'variable_1'
p144
aS'->'
p145
aS'variable_16'
p146
ag10
aS'if'
p147
ag6
aS'variable_1'
p148
aS'->'
p149
aS'variable_9'
p150
aS'->'
p151
aS'variable_15'
p152
ag37
ag20
aS'8'
p153
aS'&&'
p154
ag139
aS'variable_1'
p155
aS'->'
p156
aS'variable_19'
p157
ag10
aS'switch'
p158
ag6
aS'16'
p159
ag8
aS'variable_1'
p160
aS'->'
p161
aS'variable_17'
p162
ag80
aS'variable_1'
p163
aS'->'
p164
aS'variable_18'
p165
ag10
aS'if'
p166
ag6
aS'variable_1'
p167
aS'->'
p168
aS'variable_9'
p169
aS'->'
p170
aS'variable_15'
p171
ag37
ag20
ag153
aS'&&'
p172
aS'variable_1'
p173
aS'->'
p174
aS'variable_19'
p175
ag10
aS'switch'
p176
ag6
aS'16'
p177
ag8
aS'variable_1'
p178
aS'->'
p179
aS'variable_17'
p180
ag80
aS'variable_1'
p181
aS'->'
p182
aS'variable_18'
p183
ag10
aS'if'
p184
ag6
aS'variable_1'
p185
aS'->'
p186
aS'variable_9'
p187
aS'->'
p188
aS'variable_15'
p189
aS'=='
p190
aS'9'
p191
ag10
aS'variable_1'
p192
aS'->'
p193
aS'variable_21'
p194
ag20
ag66
ag16
aS'switch'
p195
ag6
aS'16'
p196
ag8
aS'variable_1'
p197
aS'->'
p198
aS'variable_17'
p199
ag80
aS'variable_1'
p200
aS'->'
p201
aS'variable_18'
p202
ag10
aS'if'
p203
ag6
aS'variable_1'
p204
aS'->'
p205
aS'variable_9'
p206
aS'->'
p207
aS'variable_15'
p208
aS'=='
p209
aS'10'
p210
ag10
aS'variable_1'
p211
aS'->'
p212
aS'variable_21'
p213
ag20
ag66
ag16
aS'switch'
p214
ag6
aS'16'
p215
ag8
aS'variable_1'
p216
aS'->'
p217
aS'variable_17'
p218
ag80
aS'variable_1'
p219
aS'->'
p220
aS'variable_18'
p221
ag10
aS'switch'
p222
ag6
aS'16'
p223
ag8
aS'variable_1'
p224
aS'->'
p225
aS'variable_17'
p226
ag80
aS'variable_1'
p227
aS'->'
p228
aS'variable_18'
p229
ag10
aS'if'
p230
ag6
aS'variable_1'
p231
aS'->'
p232
aS'variable_14'
p233
aS'=='
p234
ag66
ag10
aS'if'
p235
ag6
aS'variable_1'
p236
aS'->'
p237
aS'variable_17'
p238
aS'||'
p239
aS'variable_1'
p240
aS'->'
p241
aS'variable_18'
p242
ag10
aS'if'
p243
ag6
aS'variable_1'
p244
aS'->'
p245
aS'variable_6'
p246
ag37
ag38
ag10
aS'if'
p247
ag6
aS'variable_1'
p248
aS'->'
p249
aS'variable_6'
p250
ag37
aS'3'
p251
ag10
aS'const'
p252
aS'uint8_t'
p253
ag8
aS'variable_22'
p254
ag20
aS'variable_4'
p255
aS'->'
p256
aS'variable_23'
p257
ag16
aS'for'
p258
ag6
aS'variable_1'
p259
aS'->'
p260
aS'variable_24'
p261
ag20
aS'variable_1'
p262
aS'->'
p263
aS'variable_24'
p264
ag37
aS'variable_25'
p265
aS'&&'
p266
ag251
ag37
aS'variable_22'
p267
aS'-'
p268
aS'variable_1'
p269
aS'->'
p270
aS'variable_24'
p271
aS'++'
p272
ag10
aS'int'
p273
aS'variable_26'
p274
ag20
ag251
ag80
aS'5'
p275
ag8
ag139
ag139
aS'variable_1'
p276
aS'->'
p277
aS'variable_27'
p278
ag16
aS'int'
p279
aS'variable_28'
p280
ag20
aS'func_10'
p281
ag6
aS'variable_22'
p282
ag268
aS'variable_26'
p283
ag10
ag16
aS'if'
p284
ag6
aS'variable_28'
p285
ag80
aS'variable_26'
p286
ag46
aS'variable_22'
p287
ag268
aS'variable_4'
p288
aS'->'
p289
aS'variable_29'
p290
ag10
aS'variable_22'
p291
aS'-='
p292
aS'variable_28'
p293
ag80
aS'variable_26'
p294
ag16
aS'variable_22'
p295
aS'->'
p296
aS'variable_30'
p297
ag20
aS'variable_31'
p298
ag16
aS'memcpy'
p299
ag6
aS'variable_22'
p300
aS'->'
p301
aS'variable_32'
p302
ag29
aS'variable_1'
p303
aS'->'
p304
aS'variable_33'
p305
ag13
aS'variable_31'
p306
ag15
ag29
aS'sizeof'
p307
ag6
aS'variable_22'
p308
aS'->'
p309
aS'variable_32'
p310
ag10
ag10
ag16
aS'memcpy'
p311
ag6
aS'variable_22'
p312
aS'->'
p313
aS'variable_32'
p314
ag29
aS'variable_1'
p315
aS'->'
p316
aS'variable_32'
p317
ag29
aS'sizeof'
p318
ag6
aS'variable_22'
p319
aS'->'
p320
aS'variable_32'
p321
ag10
ag10
ag16
aS'if'
p322
ag6
aS'variable_22'
p323
aS'->'
p324
aS'variable_34'
p325
ag37
aS'variable_34'
p326
ag10
aS'func_11'
p327
ag6
ag21
aS'variable_22'
p328
aS'->'
p329
aS'variable_2'
p330
ag10
ag16
aS'func_12'
p331
ag6
ag21
aS'variable_22'
p332
aS'->'
p333
aS'variable_35'
p334
ag10
ag16
aS'variable_22'
p335
aS'->'
p336
aS'variable_34'
p337
ag20
aS'variable_34'
p338
ag16
aaa(lp339
I0
aa(lp340
I455
aa(lp341
(lp342
S'main'
p343
aaa(lp344
S'852 /home/SySeVR/data/CVE_2013_7011_VULN_read_header.c int size = AV_RB24 ( p - trailer ) ; 129'
p345
aa.