(lp0
(lp1
(lp2
S'int'
p3
aS'func_0'
p4
aS'('
p5
aS'struct'
p6
aS'variable_0'
p7
aS'*'
p8
aS'variable_0'
p9
aS','
p10
aS'struct'
p11
aS'variable_1'
p12
ag8
aS'variable_2'
p13
aS')'
p14
aS'gfn_t'
p15
aS'variable_3'
p16
ag10
aS'variable_4'
p17
aS';'
p18
aS'struct'
p19
aS'variable_5'
p20
ag8
aS'variable_6'
p21
aS'='
p22
aS'variable_0'
p23
aS'->'
p24
aS'variable_7'
p25
aS'.'
p26
aS'variable_5'
p27
ag18
aS'if'
p28
ag5
aS'!'
p29
aS'variable_6'
p30
ag14
aS'variable_3'
p31
ag22
aS'variable_2'
p32
aS'->'
p33
aS'variable_8'
p34
ag18
aS'variable_4'
p35
ag22
aS'variable_3'
p36
aS'+'
p37
aS'variable_2'
p38
aS'->'
p39
aS'variable_9'
p40
ag18
aS'while'
p41
ag5
aS'variable_3'
p42
aS'<'
p43
aS'variable_4'
p44
ag14
aS'while'
p45
ag5
ag5
aS'variable_3'
p46
ag37
ag5
aS'variable_10'
p47
aS'>>'
p48
aS'variable_11'
p49
ag14
ag14
aS'>'
p50
aS'variable_4'
p51
ag14
aaa(lp52
I0
aa(lp53
I46
aa(lp54
(lp55
S'main'
p56
aaa(lp57
S'618 /home/SySeVR/data/CVE_2014_3601_VULN_kvm_iommu_map_pages.c end_gfn = gfn + slot -> npages 14'
p58
aa.