(lp0
(lp1
(lp2
S'unsigned'
p3
aS'long'
p4
aS'func_0'
p5
aS'('
p6
aS'unsigned'
p7
aS'long'
p8
aS'variable_0'
p9
aS')'
p10
aS'struct'
p11
aS'variable_1'
p12
aS'*'
p13
aS'variable_2'
p14
aS';'
p15
aS'struct'
p16
aS'variable_3'
p17
ag13
aS'variable_4'
p18
ag15
aS'struct'
p19
aS'variable_5'
p20
ag13
aS'variable_6'
p21
ag15
aS'unsigned'
p22
aS'long'
p23
aS'variable_7'
p24
aS','
p25
aS'variable_8'
p26
ag25
aS'variable_9'
p27
ag15
aS'int'
p28
aS'variable_10'
p29
ag15
aS'if'
p30
ag6
aS'!'
p31
ag6
aS'variable_11'
p32
aS'&'
p33
aS'variable_12'
p34
ag10
ag10
aS'variable_13'
p35
aS'='
p36
aS'func_1'
p37
ag6
aS'variable_13'
p38
ag10
ag15
aS'variable_10'
p39
ag36
aS'func_2'
p40
ag6
aS'variable_14'
p41
ag25
aS'variable_13'
p42
ag25
aS'variable_15'
p43
ag25
aS'variable_16'
p44
ag25
aS'variable_11'
p45
ag25
aS'variable_0'
p46
ag25
ag33
aS'variable_7'
p47
ag10
ag15
aS'if'
p48
ag6
aS'variable_10'
p49
aS'<'
p50
aS'0'
p51
ag10
aS'variable_8'
p52
ag36
aS'func_3'
p53
ag6
aS'variable_14'
p54
ag25
aS'variable_16'
p55
ag25
aS'variable_11'
p56
ag25
aS'variable_7'
p57
ag10
ag15
aS'variable_4'
p58
ag36
aS'func_4'
p59
ag6
aS'variable_17'
p60
ag25
aS'variable_18'
p61
ag10
ag15
aS'if'
p62
ag6
ag31
aS'variable_4'
p63
ag10
aS'variable_2'
p64
ag36
aS'func_5'
p65
ag6
aS'variable_19'
p66
ag25
aS'variable_18'
p67
ag10
ag15
aS'if'
p68
ag6
ag31
aS'variable_2'
p69
ag10
aS'variable_4'
p70
aS'->'
p71
aS'variable_8'
p72
ag36
aS'variable_8'
p73
ag15
aS'variable_4'
p74
aS'->'
p75
aS'variable_20'
p76
ag36
aS'variable_0'
p77
ag15
aS'if'
p78
ag6
aS'variable_14'
p79
ag10
aS'variable_4'
p80
aS'->'
p81
aS'variable_21'
p82
ag36
aS'variable_14'
p83
ag15
aS'if'
p84
ag6
aS'variable_8'
p85
ag33
aS'variable_22'
p86
ag10
aS'struct'
p87
aS'variable_3'
p88
ag13
aS'variable_23'
p89
ag15
aS'unsigned'
p90
aS'long'
p91
aS'variable_24'
p92
ag25
aS'variable_25'
p93
ag25
aS'variable_26'
p94
ag25
aS'variable_27'
p95
ag25
aS'variable_28'
p96
ag15
aS'variable_24'
p97
ag36
ag6
aS'variable_15'
p98
aS'+'
p99
aS'variable_29'
p100
aS'-'
p101
aS'1'
p102
ag10
aS'>>'
p103
aS'variable_30'
p104
ag15
aS'variable_26'
p105
ag36
aS'variable_0'
p106
ag99
aS'variable_24'
p107
ag15
aS'for'
p108
ag6
aS'variable_6'
p109
ag36
aS'func_6'
p110
ag6
ag33
aS'variable_31'
p111
ag10
ag15
aS'variable_6'
p112
ag15
aS'variable_6'
p113
ag36
aS'func_7'
p114
ag6
aS'variable_6'
p115
ag10
ag10
aS'variable_23'
p116
ag36
aS'func_8'
p117
ag6
aS'variable_6'
p118
ag25
aS'struct'
p119
aS'variable_3'
p120
ag25
aS'variable_32'
p121
ag10
aS'if'
p122
ag6
ag31
ag6
aS'variable_23'
p123
aS'->'
p124
aS'variable_8'
p125
ag33
aS'variable_22'
p126
ag10
ag10
aS'if'
p127
ag6
aS'variable_23'
p128
aS'->'
p129
aS'variable_21'
p130
aS'->'
p131
aS'variable_33'
p132
aS'.'
p133
aS'variable_34'
p134
aS'->'
p135
aS'variable_35'
p136
aS'!='
p137
aS'variable_14'
p138
aS'->'
p139
aS'variable_33'
p140
ag133
aS'variable_34'
p141
aS'->'
p142
aS'variable_35'
p143
ag10
aS'if'
p144
ag6
aS'variable_23'
p145
aS'->'
p146
aS'variable_20'
p147
aS'>'
p148
ag36
aS'variable_26'
p149
ag10
aS'variable_25'
p150
ag36
aS'variable_23'
p151
aS'->'
p152
aS'variable_36'
p153
ag101
aS'variable_23'
p154
aS'->'
p155
aS'variable_37'
p156
ag15
aS'variable_25'
p157
ag36
ag6
aS'variable_25'
p158
ag99
aS'variable_29'
p159
ag101
ag102
ag10
aS'>>'
p160
aS'variable_30'
p161
ag15
aS'variable_27'
p162
ag36
aS'variable_23'
p163
aS'->'
p164
aS'variable_20'
p165
ag99
aS'variable_25'
p166
ag15
aS'if'
p167
ag6
aS'variable_0'
p168
ag148
ag36
aS'variable_27'
p169
ag10
aS'if'
p170
ag6
ag6
aS'variable_23'
p171
aS'->'
p172
aS'variable_20'
p173
aS'!='
p174
aS'variable_0'
p175
aS'||'
p176
aS'variable_25'
p177
aS'!='
p178
aS'variable_24'
p179
ag10
aS'&&'
p180
ag31
ag6
aS'variable_0'
p181
ag148
ag36
aS'variable_23'
p182
aS'->'
p183
aS'variable_20'
p184
aS'&&'
p185
aS'variable_26'
p186
ag50
ag36
aS'variable_27'
p187
ag10
ag10
aS'if'
p188
ag6
ag31
ag6
aS'variable_7'
p189
ag33
aS'variable_38'
p190
ag10
ag10
aS'if'
p191
ag6
aS'variable_14'
p192
aS'&&'
p193
aS'variable_14'
p194
aS'->'
p195
aS'variable_39'
p196
aS'->'
p197
aS'variable_40'
p198
ag10
aS'variable_13'
p199
ag36
aS'variable_14'
p200
aS'->'
p201
aS'variable_39'
p202
aS'->'
p203
aS'func_9'
p204
ag6
aS'variable_14'
p205
ag25
aS'variable_13'
p206
ag25
aS'variable_15'
p207
ag25
aS'variable_0'
p208
ag25
aS'variable_11'
p209
ag10
ag15
aS'if'
p210
ag6
aS'func_10'
p211
ag6
ag6
aS'void'
p212
ag13
ag10
aS'variable_13'
p213
ag10
ag10
aS'variable_2'
p214
aS'->'
p215
aS'variable_37'
p216
ag36
aS'variable_4'
p217
aS'->'
p218
aS'variable_37'
p219
ag36
aS'variable_13'
p220
ag15
aS'variable_2'
p221
aS'->'
p222
aS'variable_36'
p223
ag36
aS'variable_4'
p224
aS'->'
p225
aS'variable_36'
p226
ag36
aS'variable_13'
p227
ag99
aS'variable_15'
p228
ag15
aS'variable_2'
p229
aS'->'
p230
aS'variable_3'
p231
ag36
aS'variable_4'
p232
ag15
aS'func_11'
p233
ag6
aS'variable_4'
p234
ag10
ag15
aS'if'
p235
ag6
aS'variable_14'
p236
aS'&&'
p237
aS'variable_2'
p238
aS'->'
p239
aS'variable_8'
p240
ag33
aS'variable_41'
p241
ag10
aS'variable_10'
p242
ag36
aS'func_12'
p243
ag6
aS'variable_2'
p244
ag10
ag15
aS'variable_10'
p245
ag36
aS'func_13'
p246
ag6
aS'variable_2'
p247
ag25
aS'variable_4'
p248
ag25
aS'variable_15'
p249
ag10
ag15
aS'if'
p250
ag6
aS'variable_10'
p251
ag50
ag51
ag10
aS'variable_9'
p252
ag36
aS'variable_2'
p253
aS'->'
p254
aS'variable_37'
p255
ag15
aS'func_14'
p256
ag6
aS'variable_42'
p257
aS'->'
p258
aS'variable_43'
p259
ag25
aS'variable_2'
p260
ag10
ag15
aS'func_15'
p261
ag6
aS'variable_9'
p262
ag25
aS'variable_9'
p263
ag99
aS'variable_15'
p264
ag10
ag15
aS'func_16'
p265
ag6
aS'"'
p266
ag36
aS'%'
p267
aS'lx'
p268
ag266
ag25
aS'variable_9'
p269
ag10
ag15
aS'return'
p270
aS'variable_9'
p271
ag15
aS'func_17'
p272
ag6
aS'variable_4'
p273
ag10
ag15
aS'if'
p274
ag6
aS'variable_2'
p275
ag10
aS'if'
p276
ag6
aS'variable_2'
p277
aS'->'
p278
aS'variable_21'
p279
ag10
aS'func_18'
p280
ag6
aS'variable_2'
p281
aS'->'
p282
aS'variable_21'
p283
ag10
ag15
aS'if'
p284
ag6
aS'variable_2'
p285
aS'->'
p286
aS'variable_8'
p287
ag33
aS'variable_44'
p288
ag10
aS'func_19'
p289
ag6
aS'variable_2'
p290
aS'->'
p291
aS'variable_45'
p292
ag10
ag15
aS'func_20'
p293
ag6
aS'variable_19'
p294
ag25
aS'variable_2'
p295
ag10
ag15
aS'func_21'
p296
ag6
ag266
ag36
ag267
aS'd'
p297
aS'['
p298
aS'pr'
p299
aS']'
p300
ag266
ag25
aS'variable_10'
p301
ag10
ag15
aS'return'
p302
aS'variable_10'
p303
ag15
aa(lp304
S'unsigned'
p305
aS'long'
p306
aS'func_0'
p307
ag6
aS'unsigned'
p308
aS'long'
p309
aS'variable_0'
p310
ag10
aS'struct'
p311
aS'variable_1'
p312
ag13
aS'variable_2'
p313
ag15
aS'struct'
p314
aS'variable_3'
p315
ag13
aS'variable_4'
p316
ag15
aS'struct'
p317
aS'variable_5'
p318
ag13
aS'variable_6'
p319
ag15
aS'unsigned'
p320
aS'long'
p321
aS'variable_7'
p322
ag25
aS'variable_8'
p323
ag25
aS'variable_9'
p324
ag15
aS'int'
p325
aS'variable_10'
p326
ag15
aS'if'
p327
ag6
ag31
ag6
aS'variable_11'
p328
ag33
aS'variable_12'
p329
ag10
ag10
aS'variable_13'
p330
ag36
aS'func_1'
p331
ag6
aS'variable_13'
p332
ag10
ag15
aS'variable_10'
p333
ag36
aS'func_2'
p334
ag6
aS'variable_14'
p335
ag25
aS'variable_13'
p336
ag25
aS'variable_15'
p337
ag25
aS'variable_16'
p338
ag25
aS'variable_11'
p339
ag25
aS'variable_0'
p340
ag25
ag33
aS'variable_7'
p341
ag10
ag15
aS'if'
p342
ag6
aS'variable_10'
p343
ag50
ag51
ag10
aS'variable_8'
p344
ag36
aS'func_3'
p345
ag6
aS'variable_14'
p346
ag25
aS'variable_16'
p347
ag25
aS'variable_11'
p348
ag25
aS'variable_7'
p349
ag10
ag15
aS'variable_4'
p350
ag36
aS'func_4'
p351
ag6
aS'variable_17'
p352
ag25
aS'variable_18'
p353
ag10
ag15
aS'if'
p354
ag6
ag31
aS'variable_4'
p355
ag10
aS'variable_2'
p356
ag36
aS'func_5'
p357
ag6
aS'variable_19'
p358
ag25
aS'variable_18'
p359
ag10
ag15
aS'if'
p360
ag6
ag31
aS'variable_2'
p361
ag10
aS'variable_2'
p362
aS'->'
p363
aS'variable_8'
p364
ag36
aS'variable_8'
p365
ag15
aS'variable_2'
p366
aS'->'
p367
aS'variable_20'
p368
ag36
aS'variable_0'
p369
ag15
aS'if'
p370
ag6
aS'variable_14'
p371
ag10
aS'variable_2'
p372
aS'->'
p373
aS'variable_21'
p374
ag36
aS'variable_14'
p375
ag15
aS'if'
p376
ag6
aS'variable_8'
p377
ag33
aS'variable_22'
p378
ag10
aS'variable_2'
p379
aS'->'
p380
aS'variable_23'
p381
ag36
aS'variable_24'
p382
aS'->'
p383
aS'variable_25'
p384
ag15
aS'if'
p385
ag6
aS'variable_8'
p386
ag33
aS'variable_26'
p387
ag10
aS'struct'
p388
aS'variable_3'
p389
ag13
aS'variable_27'
p390
ag15
aS'unsigned'
p391
aS'long'
p392
aS'variable_28'
p393
ag25
aS'variable_29'
p394
ag25
aS'variable_30'
p395
ag25
aS'variable_31'
p396
ag25
aS'variable_32'
p397
ag15
aS'variable_28'
p398
ag36
ag6
aS'variable_15'
p399
ag99
aS'variable_33'
p400
ag101
ag102
ag10
aS'>>'
p401
aS'variable_34'
p402
ag15
aS'variable_30'
p403
ag36
aS'variable_0'
p404
ag99
aS'variable_28'
p405
ag15
aS'for'
p406
ag6
aS'variable_6'
p407
ag36
aS'func_6'
p408
ag6
ag33
aS'variable_35'
p409
ag10
ag15
aS'variable_6'
p410
ag15
aS'variable_6'
p411
ag36
aS'func_7'
p412
ag6
aS'variable_6'
p413
ag10
ag10
aS'variable_27'
p414
ag36
aS'func_8'
p415
ag6
aS'variable_6'
p416
ag25
aS'struct'
p417
aS'variable_3'
p418
ag25
aS'variable_36'
p419
ag10
aS'if'
p420
ag6
ag31
ag6
aS'variable_27'
p421
aS'->'
p422
aS'variable_8'
p423
ag33
aS'variable_26'
p424
ag10
ag10
aS'if'
p425
ag6
aS'variable_27'
p426
aS'->'
p427
aS'variable_21'
p428
aS'->'
p429
aS'variable_37'
p430
ag133
aS'variable_38'
p431
aS'->'
p432
aS'variable_39'
p433
aS'!='
p434
aS'variable_14'
p435
aS'->'
p436
aS'variable_37'
p437
ag133
aS'variable_38'
p438
aS'->'
p439
aS'variable_39'
p440
ag10
aS'if'
p441
ag6
aS'variable_27'
p442
aS'->'
p443
aS'variable_20'
p444
ag148
ag36
aS'variable_30'
p445
ag10
aS'variable_29'
p446
ag36
aS'variable_27'
p447
aS'->'
p448
aS'variable_40'
p449
ag101
aS'variable_27'
p450
aS'->'
p451
aS'variable_41'
p452
ag15
aS'variable_29'
p453
ag36
ag6
aS'variable_29'
p454
ag99
aS'variable_33'
p455
ag101
ag102
ag10
aS'>>'
p456
aS'variable_34'
p457
ag15
aS'variable_31'
p458
ag36
aS'variable_27'
p459
aS'->'
p460
aS'variable_20'
p461
ag99
aS'variable_29'
p462
ag15
aS'if'
p463
ag6
aS'variable_0'
p464
ag148
ag36
aS'variable_31'
p465
ag10
aS'if'
p466
ag6
ag6
aS'variable_27'
p467
aS'->'
p468
aS'variable_20'
p469
aS'!='
p470
aS'variable_0'
p471
aS'||'
p472
aS'variable_29'
p473
aS'!='
p474
aS'variable_28'
p475
ag10
aS'&&'
p476
ag31
ag6
aS'variable_0'
p477
ag148
ag36
aS'variable_27'
p478
aS'->'
p479
aS'variable_20'
p480
aS'&&'
p481
aS'variable_30'
p482
ag50
ag36
aS'variable_31'
p483
ag10
ag10
aS'if'
p484
ag6
ag31
ag6
aS'variable_7'
p485
ag33
aS'variable_42'
p486
ag10
ag10
aS'variable_2'
p487
aS'->'
p488
aS'variable_3'
p489
ag36
aS'variable_27'
p490
ag15
aS'variable_32'
p491
ag36
aS'variable_27'
p492
aS'->'
p493
aS'variable_41'
p494
ag15
aS'variable_32'
p495
aS'+='
p496
ag6
aS'variable_0'
p497
ag101
aS'variable_27'
p498
aS'->'
p499
aS'variable_20'
p500
ag10
aS'<<'
p501
aS'variable_34'
p502
ag15
aS'variable_2'
p503
aS'->'
p504
aS'variable_41'
p505
ag36
aS'variable_32'
p506
ag15
aS'variable_2'
p507
aS'->'
p508
aS'variable_40'
p509
ag36
aS'variable_32'
p510
ag99
aS'variable_15'
p511
ag15
aS'variable_2'
p512
aS'->'
p513
aS'variable_8'
p514
aS'|'
p515
ag36
aS'variable_43'
p516
ag15
aa(lp517
S'unsigned'
p518
aS'long'
p519
aS'func_0'
p520
ag6
aS'unsigned'
p521
aS'long'
p522
aS'variable_0'
p523
ag10
aS'struct'
p524
aS'variable_1'
p525
ag13
aS'variable_2'
p526
ag15
aS'struct'
p527
aS'variable_3'
p528
ag13
aS'variable_4'
p529
ag15
aS'struct'
p530
aS'variable_5'
p531
ag13
aS'variable_6'
p532
ag15
aS'unsigned'
p533
aS'long'
p534
aS'variable_7'
p535
ag25
aS'variable_8'
p536
ag25
aS'variable_9'
p537
ag15
aS'int'
p538
aS'variable_10'
p539
ag15
aS'if'
p540
ag6
ag31
ag6
aS'variable_11'
p541
ag33
aS'variable_12'
p542
ag10
ag10
aS'variable_13'
p543
ag36
aS'func_1'
p544
ag6
aS'variable_13'
p545
ag10
ag15
aS'variable_10'
p546
ag36
aS'func_2'
p547
ag6
aS'variable_14'
p548
ag25
aS'variable_13'
p549
ag25
aS'variable_15'
p550
ag25
aS'variable_16'
p551
ag25
aS'variable_11'
p552
ag25
aS'variable_0'
p553
ag25
ag33
aS'variable_7'
p554
ag10
ag15
aS'if'
p555
ag6
aS'variable_10'
p556
ag50
ag51
ag10
aS'variable_8'
p557
ag36
aS'func_3'
p558
ag6
aS'variable_14'
p559
ag25
aS'variable_16'
p560
ag25
aS'variable_11'
p561
ag25
aS'variable_7'
p562
ag10
ag15
aS'variable_4'
p563
ag36
aS'func_4'
p564
ag6
aS'variable_17'
p565
ag25
aS'variable_18'
p566
ag10
ag15
aS'if'
p567
ag6
ag31
aS'variable_4'
p568
ag10
aS'variable_2'
p569
ag36
aS'func_5'
p570
ag6
aS'variable_19'
p571
ag25
aS'variable_18'
p572
ag10
ag15
aS'if'
p573
ag6
ag31
aS'variable_2'
p574
ag10
aS'if'
p575
ag6
aS'variable_8'
p576
ag33
aS'variable_20'
p577
ag10
aS'struct'
p578
aS'variable_3'
p579
ag13
aS'variable_21'
p580
ag15
aS'unsigned'
p581
aS'long'
p582
aS'variable_22'
p583
ag25
aS'variable_23'
p584
ag25
aS'variable_24'
p585
ag25
aS'variable_25'
p586
ag25
aS'variable_26'
p587
ag15
aS'variable_22'
p588
ag36
ag6
aS'variable_15'
p589
ag99
aS'variable_27'
p590
ag101
ag102
ag10
aS'>>'
p591
aS'variable_28'
p592
ag15
aS'variable_24'
p593
ag36
aS'variable_0'
p594
ag99
aS'variable_22'
p595
ag15
aS'for'
p596
ag6
aS'variable_6'
p597
ag36
aS'func_6'
p598
ag6
ag33
aS'variable_29'
p599
ag10
ag15
aS'variable_6'
p600
ag15
aS'variable_6'
p601
ag36
aS'func_7'
p602
ag6
aS'variable_6'
p603
ag10
ag10
aS'variable_21'
p604
ag36
aS'func_8'
p605
ag6
aS'variable_6'
p606
ag25
aS'struct'
p607
aS'variable_3'
p608
ag25
aS'variable_30'
p609
ag10
aS'if'
p610
ag6
ag31
ag6
aS'variable_21'
p611
aS'->'
p612
aS'variable_8'
p613
ag33
aS'variable_20'
p614
ag10
ag10
aS'if'
p615
ag6
aS'variable_21'
p616
aS'->'
p617
aS'variable_31'
p618
aS'->'
p619
aS'variable_32'
p620
ag133
aS'variable_33'
p621
aS'->'
p622
aS'variable_34'
p623
aS'!='
p624
aS'variable_14'
p625
aS'->'
p626
aS'variable_32'
p627
ag133
aS'variable_33'
p628
aS'->'
p629
aS'variable_34'
p630
ag10
aS'if'
p631
ag6
aS'variable_21'
p632
aS'->'
p633
aS'variable_35'
p634
ag148
ag36
aS'variable_24'
p635
ag10
aS'variable_23'
p636
ag36
aS'variable_21'
p637
aS'->'
p638
aS'variable_36'
p639
ag101
aS'variable_21'
p640
aS'->'
p641
aS'variable_37'
p642
ag15
aS'variable_23'
p643
ag36
ag6
aS'variable_23'
p644
ag99
aS'variable_27'
p645
ag101
ag102
ag10
aS'>>'
p646
aS'variable_28'
p647
ag15
aS'variable_25'
p648
ag36
aS'variable_21'
p649
aS'->'
p650
aS'variable_35'
p651
ag99
aS'variable_23'
p652
ag15
aS'if'
p653
ag6
aS'variable_0'
p654
ag148
ag36
aS'variable_25'
p655
ag10
aS'if'
p656
ag6
ag6
aS'variable_21'
p657
aS'->'
p658
aS'variable_35'
p659
aS'!='
p660
aS'variable_0'
p661
aS'||'
p662
aS'variable_23'
p663
aS'!='
p664
aS'variable_22'
p665
ag10
aS'&&'
p666
ag31
ag6
aS'variable_0'
p667
ag148
ag36
aS'variable_21'
p668
aS'->'
p669
aS'variable_35'
p670
aS'&&'
p671
aS'variable_24'
p672
ag50
ag36
aS'variable_25'
p673
ag10
ag10
aS'if'
p674
ag6
ag31
ag6
aS'variable_7'
p675
ag33
aS'variable_38'
p676
ag10
ag10
aa(lp677
S'unsigned'
p678
aS'long'
p679
aS'func_0'
p680
ag6
aS'unsigned'
p681
aS'long'
p682
aS'variable_0'
p683
ag10
aS'struct'
p684
aS'variable_1'
p685
ag13
aS'variable_2'
p686
ag15
aS'struct'
p687
aS'variable_3'
p688
ag13
aS'variable_4'
p689
ag15
aS'unsigned'
p690
aS'long'
p691
aS'variable_5'
p692
ag25
aS'variable_6'
p693
ag25
aS'variable_7'
p694
ag15
aS'int'
p695
aS'variable_8'
p696
ag15
aS'if'
p697
ag6
ag31
ag6
aS'variable_9'
p698
ag33
aS'variable_10'
p699
ag10
ag10
aS'variable_11'
p700
ag36
aS'func_1'
p701
ag6
aS'variable_11'
p702
ag10
ag15
aS'variable_8'
p703
ag36
aS'func_2'
p704
ag6
aS'variable_12'
p705
ag25
aS'variable_11'
p706
ag25
aS'variable_13'
p707
ag25
aS'variable_14'
p708
ag25
aS'variable_9'
p709
ag25
aS'variable_0'
p710
ag25
ag33
aS'variable_5'
p711
ag10
ag15
aS'if'
p712
ag6
aS'variable_8'
p713
ag50
ag51
ag10
aS'variable_6'
p714
ag36
aS'func_3'
p715
ag6
aS'variable_12'
p716
ag25
aS'variable_14'
p717
ag25
aS'variable_9'
p718
ag25
aS'variable_5'
p719
ag10
ag15
aS'variable_4'
p720
ag36
aS'func_4'
p721
ag6
aS'variable_15'
p722
ag25
aS'variable_16'
p723
ag10
ag15
aS'if'
p724
ag6
ag31
aS'variable_4'
p725
ag10
aS'variable_2'
p726
ag36
aS'func_5'
p727
ag6
aS'variable_17'
p728
ag25
aS'variable_16'
p729
ag10
ag15
aS'if'
p730
ag6
ag31
aS'variable_2'
p731
ag10
aS'if'
p732
ag6
aS'variable_6'
p733
ag33
aS'variable_18'
p734
ag10
aS'unsigned'
p735
aS'long'
p736
aS'variable_19'
p737
ag25
aS'variable_20'
p738
ag25
aS'variable_21'
p739
ag25
aS'variable_22'
p740
ag25
aS'variable_23'
p741
ag15
aS'variable_19'
p742
ag36
ag6
aS'variable_13'
p743
ag99
aS'variable_24'
p744
ag101
ag102
ag10
aS'>>'
p745
aS'variable_25'
p746
ag15
aS'variable_21'
p747
ag36
aS'variable_0'
p748
ag99
aS'variable_19'
p749
ag15
aS'if'
p750
ag6
aS'variable_26'
p751
aS'->'
p752
aS'variable_27'
p753
ag148
ag36
aS'variable_21'
p754
ag10
aS'if'
p755
ag6
ag6
aS'variable_26'
p756
aS'->'
p757
aS'variable_27'
p758
aS'!='
p759
aS'variable_0'
p760
aS'||'
p761
aS'variable_20'
p762
aS'!='
p763
aS'variable_19'
p764
ag10
aS'&&'
p765
ag31
ag6
aS'variable_0'
p766
ag148
ag36
aS'variable_26'
p767
aS'->'
p768
aS'variable_27'
p769
aS'&&'
p770
aS'variable_21'
p771
ag50
ag36
aS'variable_22'
p772
ag10
ag10
aaa(lp773
I0
aI0
aI0
aI0
aa(lp774
I386
aI376
aI260
aI151
aa(lp775
(lp776
S'main'
p777
aa(lp778
g777
aa(lp779
g777
aa(lp780
g777
aaa(lp781
S'84 /home/SySeVR/data/CVE_2009_3888_PATCHED_do_mmap_pgoff.c vma -> vm_end = region -> vm_end = addr + len 159'
p782
aS'85 /home/SySeVR/data/CVE_2009_3888_PATCHED_do_mmap_pgoff.c vma -> vm_end = start + len 113'
p783
aS'86 /home/SySeVR/data/CVE_2009_3888_PATCHED_do_mmap_pgoff.c rpgend = pregion -> vm_pgoff + rpglen 93'
p784
aS'89 /home/SySeVR/data/CVE_2009_3888_PATCHED_do_mmap_pgoff.c pgend = pgoff + pglen 75'
p785
aa.