(lp0
(lp1
(lp2
S'static'
p3
aS'int'
p4
aS'func_0'
p5
aS'('
p6
aS'struct'
p7
aS'variable_0'
p8
aS'*'
p9
aS'variable_1'
p10
aS','
p11
aS'struct'
p12
aS'variable_2'
p13
ag9
aS'variable_3'
p14
ag11
aS'size_t'
p15
aS'variable_4'
p16
ag11
aS'int'
p17
aS'variable_5'
p18
aS')'
p19
aS'struct'
p20
aS'variable_6'
p21
ag9
aS'variable_7'
p22
aS'='
p23
aS'variable_6'
p24
aS'->'
p25
aS'variable_7'
p26
aS';'
p27
aS'struct'
p28
aS'variable_8'
p29
ag9
aS'variable_9'
p30
ag27
aS'int'
p31
aS'variable_10'
p32
ag11
aS'variable_11'
p33
ag27
aS'variable_11'
p34
ag23
aS'-'
p35
aS'variable_12'
p36
ag27
aS'if'
p37
ag6
aS'variable_5'
p38
aS'&'
p39
aS'~'
p40
ag6
aS'variable_13'
p41
aS'|'
p42
aS'variable_14'
p43
ag42
aS'variable_15'
p44
ag42
aS'variable_16'
p45
ag42
aS'variable_17'
p46
ag19
ag19
aS'if'
p47
ag6
aS'func_1'
p48
ag6
aS'variable_7'
p49
ag19
aS'->'
p50
aS'variable_18'
p51
aS'<'
p52
aS'0'
p53
ag19
aS'if'
p54
ag6
aS'variable_5'
p55
ag39
aS'variable_17'
p56
ag19
aS'variable_9'
p57
ag23
aS'func_2'
p58
ag6
aS'variable_7'
p59
ag11
aS'variable_5'
p60
ag11
aS'variable_5'
p61
ag39
aS'variable_14'
p62
ag11
ag39
aS'variable_11'
p63
ag19
ag27
aS'if'
p64
ag6
aS'variable_9'
p65
aS'=='
p66
aS'NULL'
p67
ag19
aS'if'
p68
ag6
aS'func_3'
p69
ag6
aS'variable_7'
p70
ag19
aS'->'
p71
aS'variable_19'
p72
ag19
aS'struct'
p73
aS'virtio_net_hdr'
p74
aS'variable_20'
p75
ag23
aS'{'
p76
ag53
aS'}'
p77
ag27
aS'variable_21'
p78
ag23
aS'sizeof'
p79
ag6
aS'variable_20'
p80
ag19
ag27
aS'if'
p81
ag6
aS'variable_4'
p82
ag52
aS'variable_21'
p83
ag19
aS'variable_4'
p84
aS'-='
p85
aS'variable_21'
p86
ag27
aS'if'
p87
ag6
aS'func_4'
p88
ag6
aS'variable_9'
p89
ag19
ag19
aS'struct'
p90
aS'variable_22'
p91
ag9
aS'variable_23'
p92
ag23
aS'func_5'
p93
ag6
aS'variable_9'
p94
ag19
ag27
aS'variable_20'
p95
aS'.'
p96
aS'variable_24'
p97
ag23
aS'func_6'
p98
ag6
aS'variable_9'
p99
ag19
ag27
aS'variable_20'
p100
ag96
aS'variable_25'
p101
ag23
aS'variable_23'
p102
aS'->'
p103
aS'variable_25'
p104
ag27
aS'if'
p105
ag6
aS'variable_23'
p106
aS'->'
p107
aS'variable_26'
p108
ag39
aS'variable_27'
p109
ag19
aS'variable_20'
p110
ag96
aS'variable_26'
p111
ag23
aS'variable_28'
p112
ag27
aS'if'
p113
ag6
aS'variable_23'
p114
aS'->'
p115
aS'variable_26'
p116
ag39
aS'variable_29'
p117
ag19
aS'variable_20'
p118
ag96
aS'variable_26'
p119
ag23
aS'variable_30'
p120
ag27
aS'if'
p121
ag6
aS'variable_23'
p122
aS'->'
p123
aS'variable_26'
p124
ag39
aS'variable_31'
p125
ag19
aS'variable_20'
p126
ag96
aS'variable_26'
p127
ag23
aS'variable_32'
p128
ag27
aS'if'
p129
ag6
aS'variable_23'
p130
aS'->'
p131
aS'variable_26'
p132
ag39
aS'variable_33'
p133
ag19
aS'if'
p134
ag6
aS'variable_23'
p135
aS'->'
p136
aS'variable_26'
p137
ag39
aS'variable_34'
p138
ag19
aS'variable_20'
p139
ag96
aS'variable_26'
p140
ag42
ag23
aS'variable_35'
p141
ag27
aS'variable_20'
p142
ag96
aS'variable_26'
p143
ag23
aS'variable_36'
p144
ag27
aS'if'
p145
ag6
aS'variable_9'
p146
aS'->'
p147
aS'variable_37'
p148
aS'=='
p149
aS'variable_38'
p150
ag19
aS'if'
p151
ag6
aS'variable_9'
p152
aS'->'
p153
aS'variable_37'
p154
aS'=='
p155
aS'variable_39'
p156
ag19
aS'variable_20'
p157
ag96
aS'variable_5'
p158
ag23
aS'variable_40'
p159
ag27
aS'variable_11'
p160
ag23
aS'func_7'
p161
ag6
aS'variable_3'
p162
aS'->'
p163
aS'variable_41'
p164
ag11
ag6
aS'void'
p165
ag9
ag19
ag39
aS'variable_20'
p166
ag11
aS'variable_21'
p167
ag19
ag27
aS'if'
p168
ag6
aS'variable_11'
p169
ag52
ag53
ag19
aS'variable_10'
p170
ag23
aS'variable_9'
p171
aS'->'
p172
aS'variable_4'
p173
ag27
aS'if'
p174
ag6
aS'variable_10'
p175
aS'>'
p176
aS'variable_4'
p177
ag19
aS'variable_10'
p178
ag23
aS'variable_4'
p179
ag27
aS'variable_3'
p180
aS'->'
p181
aS'variable_42'
p182
ag42
ag23
aS'variable_15'
p183
ag27
aS'variable_11'
p184
ag23
aS'func_8'
p185
ag6
aS'variable_9'
p186
ag11
ag53
ag11
aS'variable_3'
p187
aS'->'
p188
aS'variable_41'
p189
ag11
aS'variable_10'
p190
ag19
ag27
aS'if'
p191
ag6
aS'variable_11'
p192
ag19
aS'if'
p193
ag6
aS'variable_3'
p194
aS'->'
p195
aS'variable_43'
p196
ag19
aS'if'
p197
ag6
aS'variable_6'
p198
aS'->'
p199
aS'variable_44'
p200
aS'=='
p201
aS'variable_45'
p202
ag19
aS'variable_3'
p203
aS'->'
p204
aS'variable_46'
p205
ag23
aS'sizeof'
p206
ag6
aS'struct'
p207
aS'variable_47'
p208
ag19
ag27
aS'variable_3'
p209
aS'->'
p210
aS'variable_46'
p211
ag23
aS'variable_48'
p212
aS'->'
p213
aS'offsetof'
p214
ag6
aS'struct'
p215
aS'variable_49'
p216
ag11
aS'variable_50'
p217
ag19
aS'memcpy'
p218
ag6
aS'variable_3'
p219
aS'->'
p220
aS'variable_43'
p221
ag11
ag39
aS'func_9'
p222
ag6
aS'variable_9'
p223
ag19
aS'->'
p224
aS'variable_51'
p225
ag11
aS'variable_3'
p226
aS'->'
p227
aS'variable_46'
p228
ag19
ag27
aS'func_10'
p229
ag6
aS'variable_3'
p230
ag11
aS'variable_52'
p231
ag11
aS'variable_53'
p232
ag11
aS'sizeof'
p233
ag6
aS'variable_54'
p234
ag19
ag11
ag39
aS'variable_54'
p235
ag19
ag27
aaa(lp236
I0
aa(lp237
I365
aa(lp238
(lp239
S'main'
p240
aaa(lp241
S'556 /home/SySeVR/data/CVE_2013_7270_PATCHED_packet_recvmsg.c memcpy 116'
p242
aa.