(lp0
(lp1
(lp2
S'static'
p3
aS'int'
p4
aS'func_0'
p5
aS'('
p6
aS'struct'
p7
aS'variable_0'
p8
aS'*'
p9
aS'variable_1'
p10
aS','
p11
aS'int'
p12
aS'variable_2'
p13
ag11
aS'char'
p14
aS'variable_3'
p15
ag9
aS'variable_4'
p16
ag11
aS'unsigned'
p17
aS'int'
p18
aS'variable_5'
p19
aS')'
p20
aS'struct'
p21
aS'variable_6'
p22
ag9
aS'variable_7'
p23
aS'='
p24
aS'func_1'
p25
ag6
aS'variable_1'
p26
ag20
aS';'
p27
aS'switch'
p28
ag6
aS'variable_2'
p29
ag20
aS'struct'
p30
aS'tcp_cookie_transactions'
p31
aS'variable_8'
p32
ag27
aS'struct'
p33
aS'variable_9'
p34
ag9
aS'variable_10'
p35
ag24
aS'NULL'
p36
ag27
aS'if'
p37
ag6
aS'sizeof'
p38
ag6
aS'variable_8'
p39
ag20
aS'>'
p40
aS'variable_5'
p41
ag20
aS'if'
p42
ag6
aS'func_2'
p43
ag6
aS'&'
p44
aS'variable_8'
p45
ag11
aS'variable_4'
p46
ag11
aS'sizeof'
p47
ag6
aS'variable_8'
p48
ag20
ag20
ag20
aS'if'
p49
ag6
aS'variable_8'
p50
aS'.'
p51
aS'variable_11'
p52
ag40
aS'sizeof'
p53
ag6
aS'variable_8'
p54
ag51
aS'variable_12'
p55
ag20
aS'||'
p56
aS'variable_8'
p57
ag51
aS'variable_13'
p58
ag40
aS'variable_14'
p59
ag20
aS'if'
p60
ag6
aS'variable_8'
p61
ag51
aS'variable_15'
p62
aS'=='
p63
aS'0'
p64
ag20
aS'if'
p65
ag6
ag6
aS'0x1'
p66
ag44
aS'variable_8'
p67
ag51
aS'variable_15'
p68
ag20
aS'||'
p69
aS'variable_8'
p70
ag51
aS'variable_15'
p71
ag40
aS'variable_16'
p72
aS'||'
p73
aS'variable_8'
p74
ag51
aS'variable_15'
p75
aS'<'
p76
aS'variable_17'
p77
ag20
aS'if'
p78
ag6
aS'variable_18'
p79
ag44
aS'variable_8'
p80
ag51
aS'variable_19'
p81
ag20
aS'if'
p82
ag6
aS'variable_8'
p83
ag51
aS'variable_11'
p84
ag40
ag64
aS'||'
p85
ag6
aS'variable_7'
p86
aS'->'
p87
aS'variable_20'
p88
aS'=='
p89
aS'NULL'
p90
aS'&&'
p91
ag6
aS'variable_21'
p92
ag40
ag64
aS'||'
p93
aS'variable_8'
p94
ag51
aS'variable_15'
p95
ag40
ag64
aS'||'
p96
aS'variable_8'
p97
ag51
aS'variable_13'
p98
ag40
ag64
ag20
ag20
ag20
aS'variable_10'
p99
ag24
aS'func_3'
p100
ag6
aS'sizeof'
p101
ag6
ag9
aS'variable_10'
p102
ag20
aS'+'
p103
aS'variable_8'
p104
ag51
aS'variable_11'
p105
ag11
aS'variable_22'
p106
ag20
ag27
aS'if'
p107
ag6
aS'variable_10'
p108
aS'=='
p109
aS'NULL'
p110
ag20
aS'variable_7'
p111
aS'->'
p112
aS'variable_23'
p113
ag51
aS'variable_24'
p114
ag24
ag6
aS'variable_25'
p115
ag44
aS'variable_8'
p116
ag51
aS'variable_19'
p117
ag20
ag27
aS'variable_7'
p118
aS'->'
p119
aS'variable_23'
p120
ag51
aS'variable_26'
p121
ag24
ag64
ag27
aS'if'
p122
ag6
aS'variable_7'
p123
aS'->'
p124
aS'variable_20'
p125
aS'!='
p126
aS'NULL'
p127
ag20
aS'if'
p128
ag6
aS'variable_10'
p129
aS'!='
p130
aS'NULL'
p131
ag20
aS'variable_10'
p132
ag24
aS'variable_7'
p133
aS'->'
p134
aS'variable_20'
p135
ag27
aS'if'
p136
ag6
aS'variable_10'
p137
aS'!='
p138
aS'NULL'
p139
ag20
aS'variable_10'
p140
aS'->'
p141
aS'variable_27'
p142
ag24
aS'variable_8'
p143
ag51
aS'variable_15'
p144
ag27
aS'if'
p145
ag6
aS'variable_8'
p146
ag51
aS'variable_11'
p147
ag40
ag64
ag20
aS'memcpy'
p148
ag6
aS'variable_10'
p149
aS'->'
p150
aS'variable_28'
p151
ag11
aS'variable_8'
p152
ag51
aS'variable_12'
p153
ag11
aS'variable_8'
p154
ag51
aS'variable_11'
p155
ag20
ag27
aS'variable_10'
p156
aS'->'
p157
aS'variable_29'
p158
ag24
aS'variable_8'
p159
ag51
aS'variable_11'
p160
ag27
aS'variable_10'
p161
aS'->'
p162
aS'variable_30'
p163
ag24
aS'1'
p164
ag27
aaa(lp165
I0
aa(lp166
I248
aa(lp167
(lp168
S'main'
p169
aaa(lp170
S'449 /home/SySeVR/data/CVE_2010_4165_VULN_do_tcp_setsockopt.c memcpy 98'
p171
aa.