(lp0
(lp1
(lp2
S'static'
p3
aS'int'
p4
aS'func_0'
p5
aS'('
p6
aS'struct'
p7
aS'variable_0'
p8
aS'*'
p9
aS'variable_1'
p10
aS','
p11
aS'int'
p12
aS'variable_2'
p13
ag11
aS'char'
p14
aS'variable_3'
p15
ag9
aS'variable_4'
p16
ag11
aS'unsigned'
p17
aS'int'
p18
aS'variable_5'
p19
aS')'
p20
aS'struct'
p21
aS'variable_6'
p22
ag9
aS'variable_7'
p23
aS'='
p24
aS'func_1'
p25
ag6
aS'variable_1'
p26
ag20
aS';'
p27
aS'int'
p28
aS'variable_8'
p29
ag27
aS'switch'
p30
ag6
aS'variable_2'
p31
ag20
aS'char'
p32
aS'variable_9'
p33
aS'['
p34
aS'variable_10'
p35
aS']'
p36
ag27
aS'if'
p37
ag6
aS'variable_5'
p38
aS'<'
p39
aS'1'
p40
ag20
aS'variable_8'
p41
ag24
aS'func_2'
p42
ag6
aS'variable_9'
p43
ag11
aS'func_3'
p44
ag6
aS'long'
p45
ag11
aS'variable_10'
p46
aS'-'
p47
ag40
ag11
aS'variable_5'
p48
ag20
ag20
aS'if'
p49
ag6
aS'variable_8'
p50
ag39
aS'0'
p51
ag20
aS'variable_9'
p52
ag34
aS'variable_8'
p53
ag36
ag24
ag51
ag27
aS'if'
p54
ag6
aS'variable_5'
p55
ag39
aS'sizeof'
p56
ag6
aS'int'
p57
ag20
ag20
aS'if'
p58
ag6
aS'func_4'
p59
ag6
aS'variable_8'
p60
ag11
ag6
aS'int'
p61
aS'__user'
p62
ag9
ag20
aS'variable_4'
p63
ag20
ag20
aS'switch'
p64
ag6
aS'variable_2'
p65
ag20
aS'if'
p66
ag6
aS'variable_8'
p67
ag39
ag40
aS'||'
p68
aS'variable_8'
p69
aS'>'
p70
aS'variable_11'
p71
ag20
aS'variable_7'
p72
aS'->'
p73
aS'variable_12'
p74
ag24
aS'variable_8'
p75
ag27
aS'variable_7'
p76
aS'->'
p77
aS'variable_13'
p78
aS'.'
p79
aS'variable_14'
p80
ag24
aS'func_5'
p81
ag6
aS'variable_8'
p82
ag11
aS'variable_15'
p83
aS'/'
p84
aS'variable_16'
p85
ag11
aS'variable_17'
p86
ag84
aS'variable_16'
p87
ag20
ag27
aS'variable_7'
p88
aS'->'
p89
aS'variable_18'
p90
ag79
aS'variable_19'
p91
ag24
ag40
ag27
aa(lp92
S'static'
p93
aS'int'
p94
aS'func_0'
p95
ag6
aS'struct'
p96
aS'variable_0'
p97
ag9
aS'variable_1'
p98
ag11
aS'int'
p99
aS'variable_2'
p100
ag11
aS'char'
p101
aS'variable_3'
p102
ag9
aS'variable_4'
p103
ag11
aS'unsigned'
p104
aS'int'
p105
aS'variable_5'
p106
ag20
aS'struct'
p107
aS'variable_6'
p108
ag9
aS'variable_7'
p109
ag24
aS'func_1'
p110
ag6
aS'variable_1'
p111
ag20
ag27
aS'int'
p112
aS'variable_8'
p113
ag27
aS'switch'
p114
ag6
aS'variable_2'
p115
ag20
aS'char'
p116
aS'variable_9'
p117
ag34
aS'variable_10'
p118
ag36
ag27
aS'if'
p119
ag6
aS'variable_5'
p120
ag39
ag40
ag20
aS'variable_8'
p121
ag24
aS'func_2'
p122
ag6
aS'variable_9'
p123
ag11
aS'func_3'
p124
ag6
aS'long'
p125
ag11
aS'variable_10'
p126
ag47
ag40
ag11
aS'variable_5'
p127
ag20
ag20
aS'if'
p128
ag6
aS'variable_8'
p129
ag39
ag51
ag20
aS'variable_9'
p130
ag34
aS'variable_8'
p131
ag36
ag24
ag51
ag27
aS'if'
p132
ag6
aS'variable_5'
p133
ag39
aS'sizeof'
p134
ag6
aS'int'
p135
ag20
ag20
aS'if'
p136
ag6
aS'func_4'
p137
ag6
aS'variable_8'
p138
ag11
ag6
aS'int'
p139
aS'__user'
p140
ag9
ag20
aS'variable_4'
p141
ag20
ag20
aS'switch'
p142
ag6
aS'variable_2'
p143
ag20
aS'if'
p144
ag6
aS'variable_8'
p145
ag39
ag51
ag20
aS'if'
p146
ag6
aS'variable_8'
p147
ag70
aS'variable_11'
p148
ag84
aS'variable_12'
p149
ag20
aS'variable_7'
p150
aS'->'
p151
aS'variable_13'
p152
ag24
aS'variable_8'
p153
ag9
aS'variable_12'
p154
ag27
aS'variable_7'
p155
aS'->'
p156
aS'variable_14'
p157
ag24
ag51
ag27
aa(lp158
S'static'
p159
aS'int'
p160
aS'func_0'
p161
ag6
aS'struct'
p162
aS'variable_0'
p163
ag9
aS'variable_1'
p164
ag11
aS'int'
p165
aS'variable_2'
p166
ag11
aS'char'
p167
aS'variable_3'
p168
ag9
aS'variable_4'
p169
ag11
aS'unsigned'
p170
aS'int'
p171
aS'variable_5'
p172
ag20
aS'struct'
p173
aS'variable_6'
p174
ag9
aS'variable_7'
p175
ag24
aS'func_1'
p176
ag6
aS'variable_1'
p177
ag20
ag27
aS'int'
p178
aS'variable_8'
p179
ag27
aS'switch'
p180
ag6
aS'variable_2'
p181
ag20
aS'char'
p182
aS'variable_9'
p183
ag34
aS'variable_10'
p184
ag36
ag27
aS'if'
p185
ag6
aS'variable_5'
p186
ag39
ag40
ag20
aS'variable_8'
p187
ag24
aS'func_2'
p188
ag6
aS'variable_9'
p189
ag11
aS'func_3'
p190
ag6
aS'long'
p191
ag11
aS'variable_10'
p192
ag47
ag40
ag11
aS'variable_5'
p193
ag20
ag20
aS'if'
p194
ag6
aS'variable_8'
p195
ag39
ag51
ag20
aS'variable_9'
p196
ag34
aS'variable_8'
p197
ag36
ag24
ag51
ag27
aS'if'
p198
ag6
aS'variable_5'
p199
ag39
aS'sizeof'
p200
ag6
aS'int'
p201
ag20
ag20
aS'if'
p202
ag6
aS'func_4'
p203
ag6
aS'variable_8'
p204
ag11
ag6
aS'int'
p205
aS'__user'
p206
ag9
ag20
aS'variable_4'
p207
ag20
ag20
aS'switch'
p208
ag6
aS'variable_2'
p209
ag20
aS'if'
p210
ag6
aS'variable_8'
p211
ag20
aS'variable_7'
p212
aS'->'
p213
aS'variable_11'
p214
aS'&'
p215
ag24
aS'~'
p216
aS'variable_12'
p217
ag27
aS'if'
p218
ag6
aS'variable_7'
p219
aS'->'
p220
aS'variable_11'
p221
ag215
aS'variable_13'
p222
ag20
aS'variable_7'
p223
aS'->'
p224
aS'variable_11'
p225
aS'|'
p226
ag24
aS'variable_14'
p227
ag27
aS'if'
p228
ag6
aS'variable_8'
p229
ag39
ag40
aS'||'
p230
aS'variable_8'
p231
ag70
aS'variable_15'
p232
ag20
aS'variable_7'
p233
aS'->'
p234
aS'variable_16'
p235
ag24
aS'variable_8'
p236
ag9
aS'variable_17'
p237
ag27
aS'if'
p238
ag6
aS'variable_8'
p239
ag39
ag40
aS'||'
p240
aS'variable_8'
p241
ag70
aS'variable_18'
p242
ag20
aS'variable_7'
p243
aS'->'
p244
aS'variable_19'
p245
ag24
aS'variable_8'
p246
ag9
aS'variable_17'
p247
ag27
aS'variable_7'
p248
aS'->'
p249
aS'variable_20'
p250
ag24
aS'variable_8'
p251
ag27
aS'variable_7'
p252
aS'->'
p253
aS'variable_21'
p254
ag24
ag47
ag40
ag27
aa(lp255
S'static'
p256
aS'int'
p257
aS'func_0'
p258
ag6
aS'struct'
p259
aS'variable_0'
p260
ag9
aS'variable_1'
p261
ag11
aS'int'
p262
aS'variable_2'
p263
ag11
aS'char'
p264
aS'variable_3'
p265
ag9
aS'variable_4'
p266
ag11
aS'unsigned'
p267
aS'int'
p268
aS'variable_5'
p269
ag20
aS'struct'
p270
aS'variable_6'
p271
ag9
aS'variable_7'
p272
ag24
aS'func_1'
p273
ag6
aS'variable_1'
p274
ag20
ag27
aS'int'
p275
aS'variable_8'
p276
ag27
aS'switch'
p277
ag6
aS'variable_2'
p278
ag20
aS'char'
p279
aS'variable_9'
p280
ag34
aS'variable_10'
p281
ag36
ag27
aS'if'
p282
ag6
aS'variable_5'
p283
ag39
ag40
ag20
aS'variable_8'
p284
ag24
aS'func_2'
p285
ag6
aS'variable_9'
p286
ag11
aS'func_3'
p287
ag6
aS'long'
p288
ag11
aS'variable_10'
p289
ag47
ag40
ag11
aS'variable_5'
p290
ag20
ag20
aS'if'
p291
ag6
aS'variable_8'
p292
ag39
ag51
ag20
aS'variable_9'
p293
ag34
aS'variable_8'
p294
ag36
ag24
ag51
ag27
aS'if'
p295
ag6
aS'variable_5'
p296
ag39
aS'sizeof'
p297
ag6
aS'int'
p298
ag20
ag20
aS'if'
p299
ag6
aS'func_4'
p300
ag6
aS'variable_8'
p301
ag11
ag6
aS'int'
p302
aS'__user'
p303
ag9
ag20
aS'variable_4'
p304
ag20
ag20
aS'switch'
p305
ag6
aS'variable_2'
p306
ag20
aS'if'
p307
ag6
aS'variable_8'
p308
ag20
aS'variable_7'
p309
aS'->'
p310
aS'variable_11'
p311
ag215
ag24
ag216
aS'variable_12'
p312
ag27
aS'if'
p313
ag6
aS'variable_7'
p314
aS'->'
p315
aS'variable_11'
p316
ag215
aS'variable_13'
p317
ag20
aS'variable_7'
p318
aS'->'
p319
aS'variable_11'
p320
ag226
ag24
aS'variable_14'
p321
ag27
aS'if'
p322
ag6
aS'variable_8'
p323
ag39
ag40
aS'||'
p324
aS'variable_8'
p325
ag70
aS'variable_15'
p326
ag20
aS'variable_7'
p327
aS'->'
p328
aS'variable_16'
p329
ag24
aS'variable_8'
p330
ag9
aS'variable_17'
p331
ag27
aS'if'
p332
ag6
aS'func_5'
p333
ag6
aS'variable_1'
p334
ag11
aS'variable_18'
p335
ag20
aS'&&'
p336
aS'!'
p337
ag6
ag6
ag40
aS'<<'
p338
aS'variable_1'
p339
aS'->'
p340
aS'variable_19'
p341
ag20
ag215
ag6
aS'variable_20'
p342
ag226
aS'variable_21'
p343
ag20
ag20
ag20
aS'u32'
p344
aS'variable_22'
p345
ag24
aS'func_6'
p346
ag6
aS'variable_7'
p347
ag20
ag27
aS'if'
p348
ag6
aS'variable_7'
p349
aS'->'
p350
aS'variable_16'
p351
ag70
aS'variable_22'
p352
ag20
aS'variable_22'
p353
ag24
aS'variable_7'
p354
aS'->'
p355
aS'variable_16'
p356
ag47
aS'variable_22'
p357
ag27
aS'func_7'
p358
ag6
aS'variable_1'
p359
ag11
aS'variable_22'
p360
ag20
ag27
aa(lp361
S'static'
p362
aS'int'
p363
aS'func_0'
p364
ag6
aS'struct'
p365
aS'variable_0'
p366
ag9
aS'variable_1'
p367
ag11
aS'int'
p368
aS'variable_2'
p369
ag11
aS'char'
p370
aS'variable_3'
p371
ag9
aS'variable_4'
p372
ag11
aS'unsigned'
p373
aS'int'
p374
aS'variable_5'
p375
ag20
aS'struct'
p376
aS'variable_6'
p377
ag9
aS'variable_7'
p378
ag24
aS'func_1'
p379
ag6
aS'variable_1'
p380
ag20
ag27
aS'int'
p381
aS'variable_8'
p382
ag27
aS'switch'
p383
ag6
aS'variable_2'
p384
ag20
aS'char'
p385
aS'variable_9'
p386
ag34
aS'variable_10'
p387
ag36
ag27
aS'if'
p388
ag6
aS'variable_5'
p389
ag39
ag40
ag20
aS'variable_8'
p390
ag24
aS'func_2'
p391
ag6
aS'variable_9'
p392
ag11
aS'func_3'
p393
ag6
aS'long'
p394
ag11
aS'variable_10'
p395
ag47
ag40
ag11
aS'variable_5'
p396
ag20
ag20
aS'if'
p397
ag6
aS'variable_8'
p398
ag39
ag51
ag20
aS'variable_9'
p399
ag34
aS'variable_8'
p400
ag36
ag24
ag51
ag27
aS'if'
p401
ag6
aS'variable_5'
p402
ag39
aS'sizeof'
p403
ag6
aS'int'
p404
ag20
ag20
aS'if'
p405
ag6
aS'func_4'
p406
ag6
aS'variable_8'
p407
ag11
ag6
aS'int'
p408
aS'__user'
p409
ag9
ag20
aS'variable_4'
p410
ag20
ag20
aS'switch'
p411
ag6
aS'variable_2'
p412
ag20
aS'if'
p413
ag6
aS'variable_8'
p414
ag20
aS'variable_7'
p415
aS'->'
p416
aS'variable_11'
p417
ag215
ag24
ag216
aS'variable_12'
p418
ag27
aS'if'
p419
ag6
aS'variable_7'
p420
aS'->'
p421
aS'variable_11'
p422
ag215
aS'variable_13'
p423
ag20
aS'variable_7'
p424
aS'->'
p425
aS'variable_11'
p426
ag226
ag24
aS'variable_14'
p427
ag27
aS'if'
p428
ag6
aS'variable_8'
p429
ag39
ag40
aS'||'
p430
aS'variable_8'
p431
ag70
aS'variable_15'
p432
ag20
aS'variable_7'
p433
aS'->'
p434
aS'variable_16'
p435
ag24
aS'variable_8'
p436
ag9
aS'variable_17'
p437
ag27
aS'u32'
p438
aS'variable_18'
p439
ag24
aS'func_5'
p440
ag6
aS'variable_7'
p441
ag20
ag27
aS'if'
p442
ag6
aS'variable_7'
p443
aS'->'
p444
aS'variable_16'
p445
ag70
aS'variable_18'
p446
ag20
aS'variable_18'
p447
ag24
aS'variable_7'
p448
aS'->'
p449
aS'variable_16'
p450
ag47
aS'variable_18'
p451
ag27
aS'func_6'
p452
ag6
aS'variable_1'
p453
ag11
aS'variable_18'
p454
ag20
ag27
aS'variable_7'
p455
aS'->'
p456
aS'variable_19'
p457
ag24
aS'variable_8'
p458
ag9
aS'variable_17'
p459
ag27
aS'variable_7'
p460
aS'->'
p461
aS'variable_20'
p462
ag24
aS'variable_8'
p463
ag27
aS'variable_7'
p464
aS'->'
p465
aS'variable_21'
p466
ag24
ag47
ag40
ag27
aaa(lp467
I0
aI0
aI0
aI0
aI0
aa(lp468
I140
aI127
aI167
aI193
aI149
aa(lp469
(lp470
S'main'
p471
aa(lp472
g471
aa(lp473
g471
aa(lp474
g471
aa(lp475
g471
aaa(lp476
S'166 /home/SySeVR/data/CVE_2010_4165_VULN_do_tcp_setsockopt.c icsk -> icsk_accept_queue . rskq_defer_accept = secs_to_retrans ( val , TCP_TIMEOUT_INIT / HZ , TCP_RTO_MAX / HZ ) 236'
p477
aS'167 /home/SySeVR/data/CVE_2010_4165_VULN_do_tcp_setsockopt.c tp -> linger2 = val * HZ 231'
p478
aS'168 /home/SySeVR/data/CVE_2010_4165_VULN_do_tcp_setsockopt.c tp -> keepalive_intvl = val * HZ 210'
p479
aS'169 /home/SySeVR/data/CVE_2010_4165_VULN_do_tcp_setsockopt.c elapsed = tp -> keepalive_time - elapsed 199'
p480
aS'170 /home/SySeVR/data/CVE_2010_4165_VULN_do_tcp_setsockopt.c tp -> keepalive_time = val * HZ 193'
p481
aa.