(lp0
(lp1
(lp2
S'static'
p3
aS'int'
p4
aS'func_0'
p5
aS'('
p6
aS'void'
p7
aS'*'
p8
aS'variable_0'
p9
aS','
p10
aS'int'
p11
ag8
aS'variable_1'
p12
ag10
aS'variable_2'
p13
ag8
aS'variable_3'
p14
aS')'
p15
aS'int'
p16
aS'variable_4'
p17
aS'='
p18
aS'variable_3'
p19
aS'->'
p20
aS'variable_5'
p21
aS';'
p22
aS'int'
p23
aS'variable_6'
p24
ag22
aS'uint8_t'
p25
aS'variable_7'
p26
ag10
aS'variable_8'
p27
ag22
aS'uint8_t'
p28
aS'variable_9'
p29
aS'['
p30
aS'variable_10'
p31
aS']'
p32
ag22
aS'variable_11'
p33
ag8
aS'variable_12'
p34
ag18
aS'variable_13'
p35
aS'->'
p36
aS'variable_14'
p37
ag22
aS'if'
p38
ag6
aS'variable_4'
p39
aS'<'
p40
aS'variable_15'
p41
ag15
aS'if'
p42
ag6
aS'variable_4'
p43
aS'>'
p44
aS'variable_16'
p45
aS'+'
p46
aS'variable_10'
p47
ag15
aS'variable_6'
p48
ag18
aS'variable_13'
p49
aS'->'
p50
aS'func_1'
p51
ag6
aS'variable_13'
p52
ag10
aS'&'
p53
aS'variable_12'
p54
aS'->'
p55
aS'variable_17'
p56
ag15
ag22
aS'if'
p57
ag6
aS'variable_6'
p58
ag15
aS'if'
p59
ag6
aS'!'
p60
aS'variable_13'
p61
aS'->'
p62
aS'variable_18'
p63
ag15
aS'memset'
p64
ag6
aS'variable_12'
p65
aS'->'
p66
aS'variable_17'
p67
aS'.'
p68
aS'variable_0'
p69
ag30
aS'0'
p70
ag32
ag10
ag70
ag10
aS'variable_12'
p71
aS'->'
p72
aS'variable_17'
p73
ag68
aS'variable_19'
p74
ag30
ag70
ag32
ag8
aS'variable_13'
p75
aS'->'
p76
aS'variable_20'
p77
ag15
ag22
aS'memset'
p78
ag6
aS'variable_12'
p79
aS'->'
p80
aS'variable_17'
p81
ag68
aS'variable_0'
p82
ag30
aS'1'
p83
ag32
ag10
ag70
ag10
aS'variable_21'
p84
ag15
ag22
aS'variable_7'
p85
ag18
aS'func_2'
p86
ag6
ag53
aS'variable_22'
p87
ag15
ag22
aS'variable_8'
p88
ag18
aS'func_3'
p89
ag6
ag53
aS'variable_22'
p90
ag15
ag22
aS'variable_8'
p91
ag53
ag18
aS'variable_23'
p92
ag22
aS'if'
p93
ag6
ag6
aS'variable_7'
p94
ag53
aS'variable_23'
p95
ag15
aS'=='
p96
aS'variable_24'
p97
ag15
aS'switch'
p98
ag6
aS'variable_8'
p99
ag15
aS'if'
p100
ag6
ag60
ag6
aS'variable_9'
p101
ag30
ag83
ag32
ag53
aS'0x0F'
p102
ag15
ag15
aS'memset'
p103
ag6
aS'variable_12'
p104
aS'->'
p105
aS'variable_17'
p106
ag68
aS'variable_0'
p107
ag30
ag70
ag32
ag10
aS'variable_9'
p108
ag30
ag70
ag32
ag53
aS'0x0F'
p109
ag10
aS'variable_12'
p110
aS'->'
p111
aS'variable_17'
p112
ag68
aS'variable_19'
p113
ag30
ag70
ag32
ag8
aS'variable_25'
p114
ag15
ag22
aa(lp115
S'static'
p116
aS'int'
p117
aS'func_0'
p118
ag6
aS'void'
p119
ag8
aS'variable_0'
p120
ag10
aS'int'
p121
ag8
aS'variable_1'
p122
ag10
aS'variable_2'
p123
ag8
aS'variable_3'
p124
ag15
aS'int'
p125
aS'variable_4'
p126
ag18
aS'variable_3'
p127
aS'->'
p128
aS'variable_5'
p129
ag22
aS'int'
p130
aS'variable_6'
p131
ag22
aS'variable_7'
p132
ag8
aS'variable_8'
p133
ag18
aS'variable_9'
p134
aS'->'
p135
aS'variable_10'
p136
ag22
aS'if'
p137
ag6
aS'variable_4'
p138
ag40
aS'variable_11'
p139
ag15
aS'if'
p140
ag6
aS'variable_4'
p141
ag44
aS'variable_12'
p142
ag46
aS'variable_13'
p143
ag15
aS'variable_6'
p144
ag18
aS'variable_9'
p145
aS'->'
p146
aS'func_1'
p147
ag6
aS'variable_9'
p148
ag10
ag53
aS'variable_8'
p149
aS'->'
p150
aS'variable_14'
p151
ag15
ag22
aS'if'
p152
ag6
aS'variable_6'
p153
ag15
aS'if'
p154
ag6
ag60
aS'variable_9'
p155
aS'->'
p156
aS'variable_15'
p157
ag15
aS'memset'
p158
ag6
aS'variable_8'
p159
aS'->'
p160
aS'variable_14'
p161
ag68
aS'variable_0'
p162
ag30
ag70
ag32
ag10
ag70
ag10
aS'variable_8'
p163
aS'->'
p164
aS'variable_14'
p165
ag68
aS'variable_16'
p166
ag30
ag70
ag32
ag8
aS'variable_9'
p167
aS'->'
p168
aS'variable_17'
p169
ag15
ag22
aS'memset'
p170
ag6
aS'variable_8'
p171
aS'->'
p172
aS'variable_14'
p173
ag68
aS'variable_0'
p174
ag30
ag83
ag32
ag10
ag70
ag10
aS'variable_18'
p175
ag15
ag22
aS'memset'
p176
ag6
aS'variable_8'
p177
aS'->'
p178
aS'variable_14'
p179
ag68
aS'variable_0'
p180
ag30
ag70
ag32
ag10
aS'variable_19'
p181
ag30
ag70
ag32
ag53
aS'0x0F'
p182
ag10
aS'variable_8'
p183
aS'->'
p184
aS'variable_14'
p185
ag68
aS'variable_16'
p186
ag30
ag70
ag32
ag8
aS'variable_20'
p187
ag15
ag22
aaa(lp188
I0
aI0
aa(lp189
I173
aI100
aa(lp190
(lp191
S'main'
p192
aa(lp193
g192
aaa(lp194
S'104 /home/SySeVR/data/CVE_2013_3674_VULN_cdg_decode_frame.c memset 41'
p195
aS'105 /home/SySeVR/data/CVE_2013_3674_VULN_cdg_decode_frame.c memset 28'
p196
aa.