(lp0
(lp1
(lp2
S'int'
p3
aS'func_0'
p4
aS'('
p5
aS'int'
p6
aS'variable_0'
p7
aS')'
p8
aS'struct'
p9
aS'variable_1'
p10
aS'*'
p11
aS'variable_2'
p12
aS'='
p13
aS'variable_3'
p14
aS';'
p15
aS'static'
p16
aS'char'
p17
aS'variable_4'
p18
aS'['
p19
aS'8'
p20
aS']'
p21
ag15
aS'if'
p22
ag5
aS'strcmp'
p23
ag5
aS'variable_4'
p24
aS','
p25
aS'variable_2'
p26
aS'->'
p27
aS'variable_5'
p28
ag8
ag8
aS'strcpy'
p29
ag5
aS'variable_4'
p30
ag25
aS'variable_2'
p31
aS'->'
p32
aS'variable_5'
p33
ag8
ag15
aaa(lp34
I0
aa(lp35
I31
aa(lp36
(lp37
S'main'
p38
aaa(lp39
S'809 /home/SySeVR/data/CVE_2004_1151_VULN_sys32_ni_syscall.c strcpy 8'
p40
aa.