(lp0
(lp1
(lp2
S'static'
p3
aS'int'
p4
aS'func_0'
p5
aS'('
p6
aS'variable_0'
p7
aS'*'
p8
aS'variable_1'
p9
aS','
p10
aS'const'
p11
aS'uint8_t'
p12
ag8
aS'variable_2'
p13
ag10
aS'int'
p14
aS'variable_3'
p15
aS')'
p16
aS'int'
p17
aS'variable_4'
p18
ag10
aS'variable_5'
p19
aS';'
p20
aS'int'
p21
aS'variable_6'
p22
ag10
aS'variable_7'
p23
ag20
aS'variable_5'
p24
aS'='
p25
ag6
aS'variable_2'
p26
aS'['
p27
aS'2'
p28
aS']'
p29
aS'&'
p30
aS'0x1f'
p31
ag16
ag8
aS'12'
p32
ag20
aS'variable_4'
p33
ag25
ag6
aS'variable_2'
p34
ag27
aS'3'
p35
ag29
ag30
aS'0x3f'
p36
ag16
ag8
aS'6'
p37
ag20
aS'for'
p38
ag6
aS'variable_7'
p39
ag25
aS'0'
p40
ag20
aS'variable_7'
p41
aS'<'
p42
aS'12'
p43
ag20
aS'variable_7'
p44
aS'++'
p45
ag16
aS'for'
p46
ag6
aS'variable_6'
p47
ag25
ag40
ag20
aS'variable_6'
p48
ag42
ag37
ag20
aS'variable_6'
p49
aS'++'
p50
ag16
aS'int'
p51
aS'variable_8'
p52
ag25
ag6
aS'variable_5'
p53
aS'+'
p54
aS'variable_7'
p55
ag16
ag8
aS'variable_9'
p56
ag54
ag6
aS'variable_4'
p57
ag54
aS'variable_6'
p58
ag16
ag20
aS'if'
p59
ag6
aS'variable_8'
p60
aS'>'
p61
ag25
aS'variable_9'
p62
ag8
aS'variable_10'
p63
ag16
aS'variable_11'
p64
ag8
aS'variable_12'
p65
ag25
ag30
aS'variable_1'
p66
aS'->'
p67
aS'variable_13'
p68
ag27
aS'variable_8'
p69
ag29
ag20
ag8
aS'variable_12'
p70
aS'^'
p71
ag25
aS'variable_14'
p72
ag27
aS'variable_15'
p73
ag29
ag20
ag8
aS'variable_12'
p74
ag25
aS'variable_14'
p75
ag27
aS'variable_15'
p76
ag29
ag20
aaa(lp77
I0
aa(lp78
I94
aa(lp79
(lp80
S'main'
p81
aaa(lp82
S'758 /home/SySeVR/data/CVE_2011_0021_PATCHED_DecodeTileBlock.c int index = ( sy + y ) * CDG_SCREEN_PITCH + ( sx + x ) ; 19'
p83
aa.