(lp0
(lp1
(lp2
S'static'
p3
aS'bool'
p4
aS'func_0'
p5
aS'('
p6
aS'int'
p7
aS'*'
p8
aS'variable_0'
p9
aS','
p10
aS'int'
p11
aS'variable_1'
p12
aS')'
p13
aS'struct'
p14
aS'variable_2'
p15
ag8
aS'variable_3'
p16
aS'='
p17
aS'&'
p18
aS'variable_4'
p19
aS'->'
p20
aS'variable_3'
p21
aS';'
p22
aS'struct'
p23
aS'variable_5'
p24
ag8
aS'variable_6'
p25
ag17
aS'variable_4'
p26
aS'->'
p27
aS'variable_6'
p28
ag22
aS'struct'
p29
aS'variable_7'
p30
ag8
aS'variable_8'
p31
ag10
ag8
aS'variable_9'
p32
ag22
aS'struct'
p33
aS'variable_10'
p34
ag8
aS'variable_11'
p35
ag10
ag8
aS'variable_12'
p36
ag22
aS'u32'
p37
aS'variable_13'
p38
ag22
aS'u8'
p39
aS'variable_14'
p40
ag22
aS'unsigned'
p41
aS'int'
p42
aS'variable_15'
p43
ag22
aS'variable_15'
p44
ag17
aS'variable_16'
p45
aS'->'
p46
aS'variable_17'
p47
ag22
aS'variable_8'
p48
ag17
aS'func_1'
p49
ag6
ag8
aS'variable_16'
p50
ag10
aS'variable_15'
p51
ag13
ag22
aS'variable_11'
p52
ag17
ag18
aS'variable_16'
p53
aS'->'
p54
aS'variable_11'
p55
aS'['
p56
aS'variable_15'
p57
aS']'
p58
ag22
aS'while'
p59
ag6
aS'variable_8'
p60
aS'->'
p61
aS'variable_18'
p62
ag18
aS'variable_19'
p63
ag13
aS'struct'
p64
aS'variable_20'
p65
ag8
aS'variable_21'
p66
ag22
aS'u8'
p67
aS'variable_18'
p68
ag22
aS'if'
p69
ag6
ag8
aS'variable_0'
p70
aS'>'
p71
ag17
aS'variable_1'
p72
ag13
ag6
ag8
aS'variable_0'
p73
ag13
aS'++'
p74
ag22
aS'variable_18'
p75
ag17
aS'variable_8'
p76
aS'->'
p77
aS'variable_18'
p78
ag22
aS'variable_21'
p79
ag17
aS'variable_11'
p80
aS'->'
p81
aS'variable_21'
p82
ag22
aS'variable_11'
p83
aS'->'
p84
aS'variable_21'
p85
ag17
aS'NULL'
p86
ag22
aS'func_2'
p87
ag6
aS'variable_21'
p88
aS'->'
p89
aS'variable_22'
p90
aS'-'
p91
aS'variable_23'
p92
ag13
ag22
aS'if'
p93
ag6
aS'++'
p94
aS'variable_15'
p95
aS'=='
p96
aS'variable_16'
p97
aS'->'
p98
aS'variable_24'
p99
ag13
aS'variable_15'
p100
ag17
aS'0'
p101
ag22
aS'variable_9'
p102
ag17
aS'func_3'
p103
ag6
ag8
aS'variable_16'
p104
ag10
aS'variable_15'
p105
ag13
ag22
aS'variable_12'
p106
ag17
ag18
aS'variable_16'
p107
aS'->'
p108
aS'variable_11'
p109
ag56
aS'variable_15'
p110
ag58
ag22
aS'variable_13'
p111
ag17
aS'func_4'
p112
ag6
aS'variable_8'
p113
aS'->'
p114
aS'variable_13'
p115
ag13
ag22
aS'if'
p116
ag6
aS'func_5'
p117
ag6
aS'!'
p118
ag6
aS'variable_18'
p119
ag18
aS'variable_25'
p120
ag13
ag13
ag13
aS'variable_11'
p121
aS'->'
p122
aS'variable_21'
p123
ag17
aS'variable_21'
p124
ag22
aS'if'
p125
ag6
aS'func_6'
p126
ag6
aS'variable_8'
p127
aS'->'
p128
aS'variable_26'
p129
ag18
aS'variable_27'
p130
ag13
ag13
aS'variable_14'
p131
ag17
ag8
ag6
aS'variable_21'
p132
aS'->'
p133
aS'variable_22'
p134
aS'+'
p135
aS'variable_13'
p136
ag91
aS'1'
p137
ag13
ag22
aS'if'
p138
ag6
aS'func_7'
p139
ag6
aS'variable_3'
p140
ag10
aS'variable_18'
p141
ag10
aS'variable_8'
p142
aS'->'
p143
aS'variable_26'
p144
ag10
aS'variable_13'
p145
ag10
aS'variable_14'
p146
ag13
ag13
aS'func_8'
p147
ag6
aS'variable_3'
p148
ag10
ag18
aS'variable_4'
p149
aS'->'
p150
aS'variable_28'
p151
ag10
aS'variable_13'
p152
ag10
aS'variable_21'
p153
aS'->'
p154
aS'variable_22'
p155
ag13
ag22
aS'variable_13'
p156
aS'--'
p157
ag22
aS'variable_11'
p158
aS'->'
p159
aS'variable_21'
p160
ag17
aS'variable_21'
p161
ag22
aS'variable_13'
p162
aS'-='
p163
aS'4'
p164
ag22
aS'if'
p165
ag6
aS'variable_13'
p166
aS'<'
p167
aS'variable_29'
p168
ag13
aS'struct'
p169
aS'variable_20'
p170
ag8
aS'variable_30'
p171
ag17
aS'func_9'
p172
ag6
aS'variable_6'
p173
ag10
aS'variable_13'
p174
ag135
aS'variable_23'
p175
ag13
ag22
aS'if'
p176
ag6
aS'variable_30'
p177
ag13
aS'func_10'
p178
ag6
aS'variable_30'
p179
ag10
aS'variable_23'
p180
ag13
ag22
aS'func_11'
p181
ag6
aS'variable_30'
p182
ag10
ag91
aS'variable_23'
p183
ag10
ag6
aS'variable_21'
p184
aS'->'
p185
aS'variable_22'
p186
ag91
aS'variable_23'
p187
ag13
ag10
ag6
aS'variable_13'
p188
ag135
aS'variable_23'
p189
ag13
ag13
ag22
aS'variable_11'
p190
aS'->'
p191
aS'variable_21'
p192
ag17
aS'variable_21'
p193
ag22
aS'variable_21'
p194
ag17
aS'variable_30'
p195
ag22
aS'func_12'
p196
ag6
aS'variable_21'
p197
ag10
aS'variable_13'
p198
ag13
ag22
aS'func_13'
p199
ag6
aS'variable_4'
p200
ag10
ag6
aS'variable_31'
p201
ag13
ag6
aS'variable_18'
p202
ag13
aS'|'
p203
ag6
ag6
aS'variable_31'
p204
ag13
ag6
aS'variable_8'
p205
aS'->'
p206
aS'variable_26'
p207
ag13
aS'<<'
p208
aS'24'
p209
ag13
ag10
aS'func_14'
p210
ag6
aS'variable_8'
p211
aS'->'
p212
aS'variable_32'
p213
ag13
ag10
aS'variable_21'
p214
ag13
ag22
aS'variable_21'
p215
aS'->'
p216
aS'variable_33'
p217
ag17
aS'func_15'
p218
ag6
aS'variable_21'
p219
ag10
aS'variable_6'
p220
ag13
ag22
aS'func_16'
p221
ag6
aS'variable_21'
p222
ag10
aS'variable_4'
p223
aS'->'
p224
aS'variable_34'
p225
ag10
aS'func_17'
p226
ag6
aS'variable_8'
p227
aS'->'
p228
aS'variable_35'
p229
ag13
ag13
ag22
aS'func_18'
p230
ag6
aS'variable_21'
p231
ag13
ag22
aS'variable_8'
p232
aS'->'
p233
aS'variable_18'
p234
ag17
ag101
ag22
aS'variable_8'
p235
ag17
aS'variable_9'
p236
ag22
aS'variable_11'
p237
ag17
aS'variable_12'
p238
ag22
aaa(lp239
I0
aa(lp240
I289
aa(lp241
(lp242
S'main'
p243
aaa(lp244
S'748 /home/SySeVR/data/CVE_2009_1385_VULN_e1000_clean_rx_irq.c struct sk_buff * new_skb = netdev_alloc_skb ( netdev , length + NET_IP_ALIGN ) ; 89'
p245
aa.