(lp0
(lp1
(lp2
S'static'
p3
aS'int'
p4
aS'func_0'
p5
aS'('
p6
aS'u8'
p7
aS'variable_0'
p8
aS','
p9
aS'variable_1'
p10
aS'*'
p11
aS'variable_2'
p12
ag9
aS'size_t'
p13
aS'variable_3'
p14
ag9
aS'variable_1'
p15
ag11
aS'variable_4'
p16
ag9
aS'size_t'
p17
aS'variable_5'
p18
aS')'
p19
aS'const'
p20
aS'u8'
p21
ag11
aS'variable_6'
p22
aS'='
p23
aS'func_1'
p24
ag6
aS'variable_0'
p25
ag9
aS'variable_2'
p26
ag9
aS'variable_3'
p27
ag19
aS';'
p28
aS'const'
p29
aS'u8'
p30
ag11
aS'variable_7'
p31
ag23
aS'func_2'
p32
ag6
aS'variable_0'
p33
ag9
aS'variable_4'
p34
ag9
aS'variable_5'
p35
ag19
ag28
aS'int'
p36
aS'variable_8'
p37
ag28
aS'if'
p38
ag6
aS'!'
p39
aS'variable_6'
p40
aS'&&'
p41
ag39
aS'variable_7'
p42
ag19
aS'if'
p43
ag6
ag39
aS'variable_6'
p44
aS'||'
p45
ag39
aS'variable_7'
p46
ag19
aS'variable_8'
p47
ag23
aS'memcmp'
p48
ag6
aS'variable_6'
p49
aS'+'
p50
aS'2'
p51
ag9
aS'variable_7'
p52
ag50
ag51
ag9
aS'min'
p53
ag6
aS'variable_6'
p54
aS'['
p55
aS'1'
p56
aS']'
p57
ag9
aS'variable_7'
p58
ag55
ag56
ag57
ag19
ag19
ag28
aS'if'
p59
ag6
aS'variable_8'
p60
aS'=='
p61
aS'0'
p62
aS'&&'
p63
aS'variable_6'
p64
ag55
ag56
ag57
aS'!='
p65
aS'variable_7'
p66
ag55
ag56
ag57
ag19
aS'return'
p67
aS'variable_8'
p68
ag28
aaa(lp69
I0
aa(lp70
I70
aa(lp71
(lp72
S'main'
p73
aaa(lp74
S'369 /home/SySeVR/data/CVE_2009_2844_PATCHED_cmp_ies.c memcmp 12'
p75
aa.