(lp0
(lp1
(lp2
S'static'
p3
aS'int'
p4
aS'func_0'
p5
aS'('
p6
aS'variable_0'
p7
aS'*'
p8
aS'variable_1'
p9
aS','
p10
aS'const'
p11
aS'struct'
p12
aS'variable_2'
p13
ag8
aS'variable_3'
p14
ag10
aS'int'
p15
aS'variable_4'
p16
ag10
aS'variable_5'
p17
ag8
aS'variable_6'
p18
ag10
aS'int'
p19
aS'variable_7'
p20
aS')'
p21
aS'int'
p22
aS'variable_8'
p23
ag10
aS'variable_9'
p24
ag10
aS'variable_10'
p25
ag10
aS'variable_11'
p26
ag10
aS'variable_12'
p27
ag10
aS'variable_13'
p28
aS';'
p29
aS'for'
p30
ag6
aS'variable_8'
p31
aS'='
p32
aS'0'
p33
ag29
aS'variable_8'
p34
aS'<'
p35
aS'65'
p36
ag29
aS'variable_8'
p37
aS'++'
p38
ag21
aS'variable_9'
p39
ag32
aS'func_1'
p40
ag6
aS'variable_14'
p41
ag10
aS'variable_3'
p42
aS'->'
p43
aS'variable_15'
p44
ag21
ag29
aS'if'
p45
ag6
aS'variable_9'
p46
aS'>'
p47
ag32
aS'variable_16'
p48
ag21
aS'variable_12'
p49
ag32
ag6
ag6
aS'variable_9'
p50
aS'-'
p51
aS'variable_16'
p52
ag21
aS'>>'
p53
aS'1'
p54
ag21
aS'+'
p55
ag54
ag29
aS'variable_10'
p56
ag32
aS'func_2'
p57
ag6
aS'variable_14'
p58
ag10
aS'variable_17'
p59
ag21
ag29
aS'variable_11'
p60
ag32
aS'variable_10'
p61
ag55
ag6
aS'variable_12'
p62
ag47
aS'variable_3'
p63
aS'->'
p64
aS'variable_18'
p65
aS'?'
p66
ag54
aS':'
p67
aS'variable_3'
p68
aS'->'
p69
aS'variable_19'
p70
aS'['
p71
aS'variable_12'
p72
aS']'
p73
ag21
ag29
aS'while'
p74
ag6
aS'variable_11'
p75
ag47
aS'variable_3'
p76
aS'->'
p77
aS'variable_20'
p78
ag21
aS'variable_3'
p79
aS'++'
p80
ag29
aS'variable_11'
p81
ag32
ag6
aS'variable_11'
p82
aS'^'
p83
aS'variable_13'
p84
ag21
ag51
aS'variable_13'
p85
ag29
aS'variable_11'
p86
ag32
aS'variable_3'
p87
aS'->'
p88
aS'variable_21'
p89
ag71
aS'variable_9'
p90
ag73
ag71
ag33
ag73
ag29
aS'if'
p91
ag6
aS'!'
p92
aS'variable_11'
p93
ag21
aS'variable_3'
p94
aS'+='
p95
aS'variable_3'
p96
aS'->'
p97
aS'variable_21'
p98
ag71
aS'variable_9'
p99
ag73
ag71
aS'2'
p100
ag73
ag29
aS'variable_22'
p101
ag71
aS'variable_8'
p102
ag73
ag32
aS'variable_11'
p103
ag29
aS'variable_23'
p104
ag71
aS'variable_8'
p105
ag73
ag32
aS'variable_12'
p106
ag29
aS'if'
p107
ag6
aS'func_3'
p108
ag6
aS'variable_1'
p109
ag10
aS'variable_22'
p110
ag10
aS'variable_23'
p111
ag10
aS'variable_24'
p112
ag10
aS'variable_25'
p113
ag71
aS'variable_4'
p114
ag73
ag10
aS'variable_26'
p115
ag71
aS'variable_4'
p116
ag73
ag10
aS'variable_8'
p117
ag21
ag21
aaa(lp118
I0
aa(lp119
I76
aa(lp120
(lp121
S'main'
p122
aaa(lp123
S'246 /home/SySeVR/data/CVE_2011_3362_VULN_decode_residual_block.c run = ( ( level_code - ESCAPE_CODE ) >> 1 ) + 1 12'
p124
aa.