(lp0
(lp1
(lp2
S'ssize_t'
p3
aS'func_0'
p4
aS'('
p5
aS'const'
p6
aS'char'
p7
aS'variable_0'
p8
aS'*'
p9
aS'variable_1'
p10
aS','
p11
aS'int'
p12
aS'variable_2'
p13
aS')'
p14
aS'struct'
p15
aS'CVE_2010_4649_PATCHED_ib_uverbs_poll_cq'
p16
aS'variable_3'
p17
aS';'
p18
aS'struct'
p19
aS'ib_uverbs_poll_cq_resp'
p20
aS'variable_4'
p21
ag18
aS'struct'
p22
aS'variable_5'
p23
ag9
aS'variable_6'
p24
ag18
aS'if'
p25
ag5
aS'func_1'
p26
ag5
aS'&'
p27
aS'variable_3'
p28
ag11
aS'variable_1'
p29
ag11
aS'sizeof'
p30
aS'variable_3'
p31
ag14
ag14
aS'variable_6'
p32
aS'='
p33
aS'func_2'
p34
ag5
aS'variable_3'
p35
aS'.'
p36
aS'variable_7'
p37
ag11
aS'variable_8'
p38
aS'->'
p39
aS'variable_9'
p40
ag11
aS'0'
p41
ag14
ag18
aS'if'
p42
ag5
aS'!'
p43
aS'variable_6'
p44
ag14
aS'memset'
p45
ag5
ag27
aS'variable_4'
p46
ag11
ag41
ag11
aS'sizeof'
p47
aS'variable_4'
p48
ag14
ag18
aS'while'
p49
ag5
aS'variable_4'
p50
ag36
aS'variable_10'
p51
aS'<'
p52
aS'variable_3'
p53
ag36
aS'variable_11'
p54
ag14
aS'++'
p55
aS'variable_4'
p56
ag36
aS'variable_10'
p57
ag18
aS'if'
p58
ag5
aS'func_3'
p59
ag5
aS'variable_12'
p60
ag11
ag27
aS'variable_4'
p61
ag11
aS'sizeof'
p62
aS'variable_4'
p63
ag14
ag14
aaa(lp64
I0
aa(lp65
I59
aa(lp66
(lp67
S'main'
p68
aaa(lp69
S'58 /home/SySeVR/data/CVE_2010_4649_PATCHED_ib_uverbs_poll_cq.c memset 24'
p70
aa.