(lp0
(lp1
(lp2
S'ssize_t'
p3
aS'func_0'
p4
aS'('
p5
aS'const'
p6
aS'char'
p7
aS'variable_0'
p8
aS'*'
p9
aS'variable_1'
p10
aS','
p11
aS'int'
p12
aS'variable_2'
p13
aS')'
p14
aS'struct'
p15
aS'CVE_2010_4649_PATCHED_ib_uverbs_poll_cq'
p16
aS'variable_3'
p17
aS';'
p18
aS'struct'
p19
aS'ib_uverbs_poll_cq_resp'
p20
aS'variable_4'
p21
ag18
aS'u8'
p22
aS'variable_0'
p23
ag9
aS'variable_5'
p24
ag18
aS'u8'
p25
aS'variable_0'
p26
ag9
aS'variable_6'
p27
ag18
aS'struct'
p28
aS'variable_7'
p29
ag9
aS'variable_8'
p30
ag18
aS'if'
p31
ag5
aS'func_1'
p32
ag5
aS'&'
p33
aS'variable_3'
p34
ag11
aS'variable_1'
p35
ag11
aS'sizeof'
p36
aS'variable_3'
p37
ag14
ag14
aS'variable_8'
p38
aS'='
p39
aS'func_2'
p40
ag5
aS'variable_3'
p41
aS'.'
p42
aS'variable_9'
p43
ag11
aS'variable_10'
p44
aS'->'
p45
aS'variable_11'
p46
ag11
aS'0'
p47
ag14
ag18
aS'if'
p48
ag5
aS'!'
p49
aS'variable_8'
p50
ag14
aS'variable_5'
p51
ag39
ag5
aS'void'
p52
aS'__user'
p53
ag9
ag14
ag5
aS'unsigned'
p54
aS'long'
p55
ag14
aS'variable_3'
p56
ag42
aS'variable_12'
p57
ag18
aS'variable_6'
p58
ag39
aS'variable_5'
p59
aS'+'
p60
aS'sizeof'
p61
aS'variable_4'
p62
ag18
aS'variable_13'
p63
ag39
aS'func_3'
p64
ag5
aS'variable_6'
p65
ag11
ag33
aS'variable_14'
p66
ag14
ag18
aS'if'
p67
ag5
aS'variable_13'
p68
ag14
aS'variable_6'
p69
aS'+='
p70
aS'sizeof'
p71
ag5
aS'struct'
p72
aS'variable_15'
p73
ag14
ag18
aS'return'
p74
aS'variable_13'
p75
ag18
aaa(lp76
I0
aa(lp77
I89
aa(lp78
(lp79
S'main'
p80
aaa(lp81
S'174 /home/SySeVR/data/CVE_2010_4649_PATCHED_ib_uverbs_poll_cq.c data_ptr = header_ptr + sizeof resp 22'
p82
aa.