(lp0
(lp1
(lp2
S'func_0'
p3
aS'('
p4
aS'variable_0'
p5
aS'*'
p6
aS'variable_1'
p7
aS','
p8
aS'variable_2'
p9
ag6
aS'variable_3'
p10
aS')'
p11
aS'variable_2'
p12
ag6
aS'variable_4'
p13
ag8
ag6
aS'variable_5'
p14
aS';'
p15
aS'int'
p16
aS'variable_6'
p17
ag15
aS'variable_7'
p18
ag6
aS'variable_8'
p19
ag15
aS'char'
p20
aS'variable_9'
p21
aS'['
p22
aS'variable_10'
p23
aS']'
p24
ag8
aS'variable_11'
p25
ag22
aS'variable_10'
p26
ag24
ag8
aS'variable_12'
p27
ag22
aS'variable_10'
p28
ag24
ag8
aS'variable_13'
p29
ag22
aS'variable_10'
p30
ag24
ag15
aS'variable_1'
p31
aS'->'
p32
aS'variable_14'
p33
aS'->'
p34
aS'variable_15'
p35
aS'.'
p36
aS'variable_16'
p37
ag36
aS'variable_17'
p38
aS'='
p39
aS'variable_18'
p40
ag15
aS'if'
p41
ag4
aS'!'
p42
aS'strcmp'
p43
ag4
aS'variable_3'
p44
aS'->'
p45
aS'variable_19'
p46
ag8
aS'"'
p47
aS'printer'
p48
aS'-'
p49
aS'uri'
p50
ag47
ag11
ag11
aS'if'
p51
ag4
ag4
aS'variable_4'
p52
ag39
aS'func_1'
p53
ag4
aS'variable_1'
p54
aS'->'
p55
aS'variable_15'
p56
ag8
ag47
aS'job'
p57
ag49
aS'id'
p58
ag47
ag8
aS'variable_20'
p59
ag11
ag11
aS'=='
p60
aS'NULL'
p61
ag11
aS'variable_6'
p62
ag39
aS'variable_4'
p63
aS'->'
p64
aS'variable_21'
p65
ag22
aS'0'
p66
ag24
ag36
aS'variable_22'
p67
ag15
aS'if'
p68
ag4
aS'strncmp'
p69
ag4
aS'variable_13'
p70
ag8
ag47
aS'/'
p71
aS'jobs'
p72
ag71
ag47
ag8
aS'6'
p73
ag11
ag11
aS'variable_6'
p74
ag39
aS'atoi'
p75
ag4
aS'variable_13'
p76
aS'+'
p77
ag73
ag11
ag15
aS'if'
p78
ag4
ag4
aS'variable_8'
p79
ag39
aS'func_2'
p80
ag4
aS'variable_6'
p81
ag11
ag11
aS'=='
p82
aS'NULL'
p83
ag11
aS'if'
p84
ag4
aS'variable_8'
p85
aS'->'
p86
aS'variable_23'
p87
aS'!='
p88
aS'variable_24'
p89
ag11
aS'variable_5'
p90
ag39
aS'func_3'
p91
ag4
aS'variable_1'
p92
aS'->'
p93
aS'variable_15'
p94
ag8
ag47
aS'auth'
p95
ag49
aS'info'
p96
ag47
ag8
aS'variable_25'
p97
ag11
ag15
aS'if'
p98
ag4
ag42
aS'variable_1'
p99
aS'->'
p100
aS'variable_11'
p101
ag22
ag66
ag24
aS'&&'
p102
ag42
aS'variable_5'
p103
ag11
aS'variable_26'
p104
ag6
aS'variable_27'
p105
ag15
aS'variable_27'
p106
ag39
aS'func_4'
p107
ag4
aS'variable_8'
p108
aS'->'
p109
aS'variable_28'
p110
ag11
ag15
aS'if'
p111
ag4
aS'variable_27'
p112
aS'&&'
p113
aS'variable_27'
p114
aS'->'
p115
aS'variable_29'
p116
aS'>'
p117
ag66
aS'&&'
p118
ag42
aS'strcmp'
p119
ag4
aS'variable_27'
p120
aS'->'
p121
aS'variable_30'
p122
ag22
ag66
ag24
ag8
ag47
aS'negotiate'
p123
ag47
ag11
ag11
aa(lp124
S'func_0'
p125
ag4
aS'variable_0'
p126
ag6
aS'variable_1'
p127
ag8
aS'variable_2'
p128
ag6
aS'variable_3'
p129
ag11
aS'if'
p130
ag4
ag42
aS'strcmp'
p131
ag4
aS'variable_3'
p132
aS'->'
p133
aS'variable_4'
p134
ag8
ag47
aS'printer'
p135
ag49
aS'uri'
p136
ag47
ag11
ag11
aaa(lp137
I0
aI0
aa(lp138
I206
aI13
aa(lp139
(lp140
S'main'
p141
aa(lp142
g141
aaa(lp143
S'797 /home/SySeVR/data/CVE_2015_1158_VULN_authenticate_job.c strcmp 122'
p144
aS'798 /home/SySeVR/data/CVE_2015_1158_VULN_authenticate_job.c strcmp 35'
p145
aa.