(lp0
(lp1
(lp2
S'static'
p3
aS'int'
p4
aS'func_0'
p5
aS'('
p6
aS'struct'
p7
aS'variable_0'
p8
aS'*'
p9
aS'variable_1'
p10
aS','
p11
aS'int'
p12
aS'variable_2'
p13
ag11
aS'char'
p14
aS'variable_3'
p15
ag9
aS'variable_4'
p16
ag11
aS'int'
p17
aS'variable_5'
p18
aS')'
p19
aS'struct'
p20
aS'variable_1'
p21
ag9
aS'variable_6'
p22
aS'='
p23
aS'variable_1'
p24
aS'->'
p25
aS'variable_6'
p26
aS';'
p27
aS'variable_7'
p28
ag9
aS'variable_8'
p29
ag27
aS'int'
p30
aS'variable_9'
p31
ag11
aS'variable_10'
p32
ag23
aS'0'
p33
ag27
aS'if'
p34
ag6
aS'variable_2'
p35
aS'!='
p36
aS'variable_11'
p37
ag19
aS'if'
p38
ag6
aS'variable_5'
p39
aS'<'
p40
ag6
aS'int'
p41
ag19
aS'sizeof'
p42
ag6
aS'int'
p43
ag19
ag19
aS'if'
p44
ag6
aS'func_1'
p45
ag6
aS'variable_9'
p46
ag11
ag6
aS'int'
p47
aS'__user'
p48
ag9
ag19
aS'variable_4'
p49
ag19
ag19
aS'variable_8'
p50
ag23
aS'func_2'
p51
ag6
aS'variable_6'
p52
ag19
ag27
aS'switch'
p53
ag6
aS'variable_12'
p54
ag19
aS'if'
p55
ag6
aS'variable_9'
p56
ag40
aS'1'
p57
ag19
aS'variable_8'
p58
aS'->'
p59
aS'variable_13'
p60
ag23
aS'variable_9'
p61
ag9
aS'variable_14'
p62
ag27
aa(lp63
S'static'
p64
aS'int'
p65
aS'func_0'
p66
ag6
aS'struct'
p67
aS'variable_0'
p68
ag9
aS'variable_1'
p69
ag11
aS'int'
p70
aS'variable_2'
p71
ag11
aS'char'
p72
aS'variable_3'
p73
ag9
aS'variable_4'
p74
ag11
aS'int'
p75
aS'variable_5'
p76
ag19
aS'struct'
p77
aS'variable_1'
p78
ag9
aS'variable_6'
p79
ag23
aS'variable_1'
p80
aS'->'
p81
aS'variable_6'
p82
ag27
aS'variable_7'
p83
ag9
aS'variable_8'
p84
ag27
aS'int'
p85
aS'variable_9'
p86
ag11
aS'variable_10'
p87
ag23
ag33
ag27
aS'if'
p88
ag6
aS'variable_2'
p89
aS'!='
p90
aS'variable_11'
p91
ag19
aS'if'
p92
ag6
aS'variable_5'
p93
ag40
ag6
aS'int'
p94
ag19
aS'sizeof'
p95
ag6
aS'int'
p96
ag19
ag19
aS'if'
p97
ag6
aS'func_1'
p98
ag6
aS'variable_9'
p99
ag11
ag6
aS'int'
p100
aS'__user'
p101
ag9
ag19
aS'variable_4'
p102
ag19
ag19
aS'variable_8'
p103
ag23
aS'func_2'
p104
ag6
aS'variable_6'
p105
ag19
ag27
aS'switch'
p106
ag6
aS'variable_12'
p107
ag19
aS'if'
p108
ag6
aS'variable_9'
p109
ag40
ag57
ag19
aS'variable_8'
p110
aS'->'
p111
aS'variable_13'
p112
ag23
aS'variable_9'
p113
ag9
aS'variable_14'
p114
ag27
aa(lp115
S'static'
p116
aS'int'
p117
aS'func_0'
p118
ag6
aS'struct'
p119
aS'variable_0'
p120
ag9
aS'variable_1'
p121
ag11
aS'int'
p122
aS'variable_2'
p123
ag11
aS'char'
p124
aS'variable_3'
p125
ag9
aS'variable_4'
p126
ag11
aS'int'
p127
aS'variable_5'
p128
ag19
aS'struct'
p129
aS'variable_1'
p130
ag9
aS'variable_6'
p131
ag23
aS'variable_1'
p132
aS'->'
p133
aS'variable_6'
p134
ag27
aS'variable_7'
p135
ag9
aS'variable_8'
p136
ag27
aS'int'
p137
aS'variable_9'
p138
ag11
aS'variable_10'
p139
ag23
ag33
ag27
aS'if'
p140
ag6
aS'variable_2'
p141
aS'!='
p142
aS'variable_11'
p143
ag19
aS'if'
p144
ag6
aS'variable_5'
p145
ag40
ag6
aS'int'
p146
ag19
aS'sizeof'
p147
ag6
aS'int'
p148
ag19
ag19
aS'if'
p149
ag6
aS'func_1'
p150
ag6
aS'variable_9'
p151
ag11
ag6
aS'int'
p152
aS'__user'
p153
ag9
ag19
aS'variable_4'
p154
ag19
ag19
aS'variable_8'
p155
ag23
aS'func_2'
p156
ag6
aS'variable_6'
p157
ag19
ag27
aS'switch'
p158
ag6
aS'variable_12'
p159
ag19
aS'if'
p160
ag6
aS'variable_9'
p161
ag40
ag57
ag19
aS'variable_8'
p162
aS'->'
p163
aS'variable_13'
p164
ag23
ag6
aS'variable_9'
p165
ag9
aS'variable_14'
p166
ag19
aS'>>'
p167
ag57
ag27
aS'variable_8'
p168
aS'->'
p169
aS'variable_15'
p170
ag23
aS'variable_9'
p171
ag9
aS'variable_14'
p172
ag27
aaa(lp173
I0
aI0
aI0
aa(lp174
I95
aI95
aI107
aa(lp175
(lp176
S'main'
p177
aa(lp178
g177
aa(lp179
g177
aaa(lp180
S'76 /home/SySeVR/data/CVE_2009_2909_PATCHED_ax25_setsockopt.c ax25 -> t3 = opt * HZ 68'
p181
aS'77 /home/SySeVR/data/CVE_2009_2909_PATCHED_ax25_setsockopt.c ax25 -> t2 = opt * HZ 52'
p182
aS'78 /home/SySeVR/data/CVE_2009_2909_PATCHED_ax25_setsockopt.c ax25 -> t1 = opt * HZ 44'
p183
aa.