(lp0
(lp1
(lp2
S'static'
p3
aS'int'
p4
aS'func_0'
p5
aS'('
p6
aS'struct'
p7
aS'variable_0'
p8
aS'*'
p9
aS'variable_1'
p10
aS','
p11
aS'int'
p12
ag9
aS'variable_2'
p13
ag11
aS'int'
p14
aS'variable_3'
p15
aS')'
p16
aS'struct'
p17
aS'variable_1'
p18
ag9
aS'variable_4'
p19
aS'='
p20
aS'variable_1'
p21
aS'->'
p22
aS'variable_4'
p23
aS';'
p24
aS'if'
p25
ag6
aS'func_1'
p26
ag6
aS'variable_4'
p27
ag11
aS'variable_5'
p28
ag16
ag16
ag9
aS'variable_2'
p29
ag20
aS'sizeof'
p30
ag6
aS'variable_6'
p31
ag16
ag24
aS'memset'
p32
ag6
aS'variable_7'
p33
ag11
aS'0'
p34
ag11
ag9
aS'variable_2'
p35
ag16
ag24
aaa(lp36
I1
aa(lp37
I43
aa(lp38
(lp39
S'main'
p40
aaa(lp41
S'90 /home/SySeVR/data/CVE_2012_6542_VULN_llc_ui_getname.c memset 14'
p42
aa.