(lp0
(lp1
(lp2
S'int'
p3
aS'func_0'
p4
aS'('
p5
aS'struct'
p6
aS'variable_0'
p7
aS'*'
p8
aS'variable_1'
p9
aS','
p10
aS'struct'
p11
aS'variable_2'
p12
ag8
aS'variable_3'
p13
ag10
aS'struct'
p14
aS'variable_4'
p15
ag8
aS'variable_5'
p16
ag10
aS'int'
p17
aS'variable_6'
p18
aS')'
p19
aS'int'
p20
aS'variable_7'
p21
ag10
aS'variable_8'
p22
ag10
aS'variable_9'
p23
aS';'
p24
aS'if'
p25
ag5
aS'variable_1'
p26
aS'->'
p27
aS'variable_10'
p28
ag19
aS'if'
p29
ag5
aS'variable_6'
p30
aS'=='
p31
aS'variable_11'
p32
ag19
aS'variable_9'
p33
aS'='
p34
aS'func_1'
p35
ag5
aS'variable_1'
p36
aS'->'
p37
aS'variable_12'
p38
ag10
aS'variable_1'
p39
aS'->'
p40
aS'variable_10'
p41
ag10
aS'variable_5'
p42
ag19
ag24
aS'if'
p43
ag5
aS'variable_9'
p44
aS'<'
p45
aS'0'
p46
ag19
aS'variable_1'
p47
aS'->'
p48
aS'variable_12'
p49
ag34
aS'variable_5'
p50
ag24
aS'variable_1'
p51
aS'->'
p52
aS'variable_12'
p53
ag34
aS'NULL'
p54
ag24
aS'variable_7'
p55
ag34
aS'variable_1'
p56
aS'->'
p57
aS'variable_13'
p58
ag8
aS'sizeof'
p59
ag5
aS'struct'
p60
aS'variable_2'
p61
ag19
ag24
aS'if'
p62
ag5
aS'func_2'
p63
ag5
aS'variable_3'
p64
ag10
aS'variable_1'
p65
aS'->'
p66
aS'variable_14'
p67
ag10
aS'variable_7'
p68
ag19
ag19
aS'variable_1'
p69
aS'->'
p70
aS'variable_14'
p71
ag34
aS'variable_3'
p72
ag24
aS'variable_9'
p73
ag34
ag46
ag24
aS'for'
p74
ag5
aS'variable_8'
p75
ag34
ag46
ag24
aS'variable_8'
p76
ag45
aS'variable_1'
p77
aS'->'
p78
aS'variable_13'
p79
ag24
aS'variable_8'
p80
aS'++'
p81
ag19
aS'size_t'
p82
aS'variable_15'
p83
ag34
aS'variable_3'
p84
aS'['
p85
aS'variable_8'
p86
aS']'
p87
aS'.'
p88
aS'variable_16'
p89
ag24
aS'if'
p90
ag5
aS'variable_15'
p91
aS'>'
p92
aS'variable_17'
p93
aS'-'
p94
aS'variable_9'
p95
ag19
aS'variable_15'
p96
ag34
aS'variable_17'
p97
ag94
aS'variable_9'
p98
ag24
aS'variable_3'
p99
ag85
aS'variable_8'
p100
ag87
ag88
aS'variable_16'
p101
ag34
aS'variable_15'
p102
ag24
aS'variable_9'
p103
aS'+='
p104
aS'variable_15'
p105
ag24
aS'return'
p106
aS'variable_9'
p107
ag24
aa(lp108
S'int'
p109
aS'func_0'
p110
ag5
aS'struct'
p111
aS'variable_0'
p112
ag8
aS'variable_1'
p113
ag10
aS'struct'
p114
aS'variable_2'
p115
ag8
aS'variable_3'
p116
ag10
aS'struct'
p117
aS'variable_4'
p118
ag8
aS'variable_5'
p119
ag10
aS'int'
p120
aS'variable_6'
p121
ag19
aS'int'
p122
aS'variable_7'
p123
ag10
aS'variable_8'
p124
ag10
aS'variable_9'
p125
ag24
aS'if'
p126
ag5
aS'variable_1'
p127
aS'->'
p128
aS'variable_10'
p129
ag19
aS'if'
p130
ag5
aS'variable_6'
p131
aS'=='
p132
aS'variable_11'
p133
ag19
aS'variable_9'
p134
ag34
aS'func_1'
p135
ag5
aS'variable_1'
p136
aS'->'
p137
aS'variable_12'
p138
ag10
aS'variable_1'
p139
aS'->'
p140
aS'variable_10'
p141
ag10
aS'variable_5'
p142
ag19
ag24
aS'if'
p143
ag5
aS'variable_9'
p144
ag45
ag46
ag19
aS'variable_1'
p145
aS'->'
p146
aS'variable_12'
p147
ag34
aS'variable_5'
p148
ag24
aS'variable_1'
p149
aS'->'
p150
aS'variable_12'
p151
ag34
aS'NULL'
p152
ag24
aS'variable_7'
p153
ag34
aS'variable_1'
p154
aS'->'
p155
aS'variable_13'
p156
ag8
aS'sizeof'
p157
ag5
aS'struct'
p158
aS'variable_2'
p159
ag19
ag24
aS'if'
p160
ag5
aS'func_2'
p161
ag5
aS'variable_3'
p162
ag10
aS'variable_1'
p163
aS'->'
p164
aS'variable_14'
p165
ag10
aS'variable_7'
p166
ag19
ag19
aaa(lp167
I0
aI0
aa(lp168
I145
aI83
aa(lp169
(lp170
S'main'
p171
aa(lp172
g171
aaa(lp173
S'155 /home/SySeVR/data/CVE_2010_3859_PATCHED_verify_iovec.c len = INT_MAX - err 28'
p174
aS'156 /home/SySeVR/data/CVE_2010_3859_PATCHED_verify_iovec.c size = m -> msg_iovlen * sizeof ( struct iovec ) 17'
p175
aa.