(lp0
(lp1
(lp2
S'int'
p3
aS'func_0'
p4
aS'('
p5
aS'char'
p6
aS'*'
p7
aS'variable_0'
p8
aS')'
p9
aS'struct'
p10
aS'variable_1'
p11
ag7
aS'variable_2'
p12
aS'='
p13
aS'func_1'
p14
ag5
aS'variable_3'
p15
ag9
aS';'
p16
aS'memset'
p17
ag5
aS'variable_2'
p18
aS'->'
p19
aS'variable_4'
p20
aS','
p21
aS'0'
p22
ag21
aS'sizeof'
p23
ag5
aS'variable_2'
p24
aS'->'
p25
aS'variable_4'
p26
ag9
ag9
ag16
aS'memcpy'
p27
ag5
aS'variable_2'
p28
aS'->'
p29
aS'variable_4'
p30
ag21
aS'variable_0'
p31
ag21
aS'variable_5'
p32
aS'->'
p33
aS'variable_6'
p34
aS'.'
p35
aS'variable_7'
p36
ag9
ag16
aS'func_2'
p37
ag5
aS'variable_2'
p38
ag9
ag16
aS'func_3'
p39
ag5
aS'variable_2'
p40
ag21
aS'&'
p41
aS'variable_8'
p42
ag9
ag16
aaa(lp43
I1
aa(lp44
I20
aa(lp45
(lp46
S'main'
p47
aaa(lp48
S'109 /home/SySeVR/data/CVE_2013_4514_VULN_wvlan_set_station_nickname.c memset 17'
p49
aa.