(lp0
(lp1
(lp2
S'static'
p3
aS'int'
p4
aS'func_0'
p5
aS'('
p6
aS'struct'
p7
aS'variable_0'
p8
aS'*'
p9
aS'variable_1'
p10
aS','
p11
aS'struct'
p12
aS'variable_2'
p13
ag9
aS'variable_3'
p14
aS')'
p15
aS'struct'
p16
aS'sb_uart_icount'
p17
aS'variable_4'
p18
aS';'
p19
aS'struct'
p20
aS'variable_5'
p21
ag9
aS'variable_6'
p22
aS'='
p23
aS'variable_1'
p24
aS'->'
p25
aS'variable_6'
p26
ag19
aS'memcpy'
p27
ag6
aS'&'
p28
aS'variable_4'
p29
ag11
ag28
aS'variable_6'
p30
aS'->'
p31
aS'variable_7'
p32
ag11
aS'sizeof'
p33
ag6
aS'struct'
p34
aS'variable_8'
p35
ag15
ag15
ag19
aS'variable_7'
p36
aS'.'
p37
aS'variable_9'
p38
ag23
aS'variable_4'
p39
ag37
aS'variable_9'
p40
ag19
aS'variable_7'
p41
ag37
aS'variable_10'
p42
ag23
aS'variable_4'
p43
ag37
aS'variable_10'
p44
ag19
aS'variable_7'
p45
ag37
aS'variable_11'
p46
ag23
aS'variable_4'
p47
ag37
aS'variable_11'
p48
ag19
aS'variable_7'
p49
ag37
aS'variable_12'
p50
ag23
aS'variable_4'
p51
ag37
aS'variable_12'
p52
ag19
aS'variable_7'
p53
ag37
aS'variable_13'
p54
ag23
aS'variable_4'
p55
ag37
aS'variable_13'
p56
ag19
aS'variable_7'
p57
ag37
aS'variable_14'
p58
ag23
aS'variable_4'
p59
ag37
aS'variable_14'
p60
ag19
aS'variable_7'
p61
ag37
aS'variable_15'
p62
ag23
aS'variable_4'
p63
ag37
aS'variable_15'
p64
ag19
aS'variable_7'
p65
ag37
aS'variable_16'
p66
ag23
aS'variable_4'
p67
ag37
aS'variable_16'
p68
ag19
aS'variable_7'
p69
ag37
aS'variable_17'
p70
ag23
aS'variable_4'
p71
ag37
aS'variable_17'
p72
ag19
aS'variable_7'
p73
ag37
aS'variable_18'
p74
ag23
aS'variable_4'
p75
ag37
aS'variable_18'
p76
ag19
aS'variable_7'
p77
ag37
aS'variable_19'
p78
ag23
aS'variable_4'
p79
ag37
aS'variable_19'
p80
ag19
aS'return'
p81
aS'func_1'
p82
ag6
aS'variable_3'
p83
ag11
ag28
aS'variable_7'
p84
ag11
aS'sizeof'
p85
ag6
aS'variable_7'
p86
ag15
ag15
aS'?'
p87
aS'-'
p88
aS'variable_20'
p89
aS':'
p90
aS'0'
p91
ag19
aaa(lp92
I0
aa(lp93
I27
aa(lp94
(lp95
S'main'
p96
aaa(lp97
S'540 /home/SySeVR/data/CVE_2013_4516_PATCHED_mp_get_count.c memcpy 8'
p98
aa.