(lp0
(lp1
(lp2
S'static'
p3
aS'int'
p4
aS'func_0'
p5
aS'('
p6
aS'__be32'
p7
aS'variable_0'
p8
aS')'
p9
aS'struct'
p10
aS'variable_1'
p11
aS'*'
p12
aS'variable_2'
p13
aS';'
p14
aS'struct'
p15
aS'sockaddr_in'
p16
aS'variable_3'
p17
ag14
aS'variable_2'
p18
aS'='
p19
aS'func_1'
p20
ag6
aS'NULL'
p21
aS','
p22
aS'NULL'
p23
ag22
aS'variable_4'
p24
ag22
aS'variable_5'
p25
ag9
ag14
aS'if'
p26
ag6
aS'func_2'
p27
ag6
aS'variable_2'
p28
ag9
ag9
aS'memset'
p29
ag6
aS'&'
p30
aS'variable_3'
p31
ag22
aS'0'
p32
ag22
aS'sizeof'
p33
ag6
aS'variable_3'
p34
ag9
ag9
ag14
aS'variable_3'
p35
aS'.'
p36
aS'variable_6'
p37
ag19
aS'variable_7'
p38
ag14
aS'variable_3'
p39
ag36
aS'variable_8'
p40
ag36
aS'variable_9'
p41
ag19
aS'variable_0'
p42
ag14
aS'variable_10'
p43
ag19
aS'func_3'
p44
ag6
aS'variable_2'
p45
ag22
ag6
aS'struct'
p46
aS'sockaddr'
p47
ag12
ag9
ag30
aS'variable_3'
p48
ag9
ag14
aS'if'
p49
ag6
aS'variable_10'
p50
aS'||'
p51
aS'variable_2'
p52
aS'->'
p53
aS'variable_11'
p54
aS'->'
p55
aS'variable_12'
p56
aS'!='
p57
aS'variable_13'
p58
ag9
aS'func_4'
p59
ag6
aS'"'
p60
aS'addr'
p61
aS'%'
p62
aS'pI4'
p63
aS'ret'
p64
ag62
aS'd'
p65
aS'node'
p66
aS'type'
p67
ag62
ag65
aS'\\'
p68
aS'n'
p69
ag60
ag22
ag30
aS'variable_0'
p70
ag22
aS'variable_10'
p71
ag22
aS'variable_2'
p72
aS'->'
p73
aS'variable_11'
p74
aS'?'
p75
aS'variable_2'
p76
aS'->'
p77
aS'variable_11'
p78
aS'->'
p79
aS'variable_12'
p80
aS':'
p81
aS'-'
p82
aS'1'
p83
ag9
ag14
aS'return'
p84
aS'variable_10'
p85
ag14
aaa(lp86
I0
aa(lp87
I36
aa(lp88
(lp89
S'main'
p90
aaa(lp91
S'118 /home/SySeVR/data/CVE_2013_7339_VULN_rds_ib_laddr_check.c memset 14'
p92
aa.