(lp0
(lp1
(lp2
S'static'
p3
aS'char'
p4
aS'*'
p5
aS'func_0'
p6
aS'('
p7
aS'variable_0'
p8
ag5
aS'variable_1'
p9
aS','
p10
aS'int'
p11
aS'variable_2'
p12
ag10
aS'const'
p13
aS'char'
p14
ag5
aS'variable_3'
p15
aS')'
p16
aS'int'
p17
aS'variable_4'
p18
aS';'
p19
aS'char'
p20
ag5
aS'variable_5'
p21
ag10
ag5
aS'variable_6'
p22
ag19
aS'int'
p23
aS'variable_7'
p24
ag19
aS'if'
p25
ag7
aS'!'
p26
aS'variable_3'
p27
ag16
aS'variable_3'
p28
aS'='
p29
aS'"'
p30
ag10
ag30
ag19
aS'variable_7'
p31
ag29
aS'15'
p32
aS'+'
p33
aS'strlen'
p34
ag7
aS'variable_3'
p35
ag16
ag19
aS'variable_5'
p36
ag29
aS'func_1'
p37
ag7
aS'variable_7'
p38
ag5
aS'variable_2'
p39
ag16
ag19
aS'if'
p40
ag7
ag26
aS'variable_5'
p41
ag16
aS'variable_6'
p42
ag29
aS'variable_5'
p43
ag19
aS'variable_5'
p44
aS'['
p45
aS'0'
p46
aS']'
p47
ag29
aS"'"
p48
aS'\\'
p49
ag46
ag48
ag19
aS'for'
p50
ag7
aS'variable_4'
p51
ag29
ag46
ag19
aS'variable_4'
p52
aS'<'
p53
aS'variable_2'
p54
ag19
aS'variable_4'
p55
aS'++'
p56
ag16
aS'unsigned'
p57
aS'variable_8'
p58
ag29
aS'snprintf'
p59
ag7
aS'variable_5'
p60
ag10
aS'variable_7'
p61
ag10
ag30
aS'%'
p62
aS'f'
p63
ag62
aS's'
p64
ag30
ag10
aS'variable_1'
p65
ag45
aS'variable_4'
p66
ag47
ag10
aS'variable_3'
p67
ag16
ag19
aS'if'
p68
ag7
aS'variable_8'
p69
aS'>'
p70
ag29
aS'variable_7'
p71
ag16
aS'variable_5'
p72
aS'+='
p73
aS'variable_8'
p74
ag19
aS'variable_6'
p75
ag45
aS'strlen'
p76
ag7
aS'variable_6'
p77
ag16
aS'-'
p78
aS'strlen'
p79
ag7
aS'variable_3'
p80
ag16
ag47
ag29
ag48
ag49
ag46
ag48
ag19
aS'return'
p81
aS'variable_6'
p82
ag19
aa(lp83
S'static'
p84
aS'char'
p85
ag5
aS'func_0'
p86
ag7
aS'variable_0'
p87
ag5
aS'variable_1'
p88
ag10
aS'int'
p89
aS'variable_2'
p90
ag10
aS'const'
p91
aS'char'
p92
ag5
aS'variable_3'
p93
ag16
aS'int'
p94
aS'variable_4'
p95
ag19
aS'if'
p96
ag7
ag26
aS'variable_3'
p97
ag16
aS'variable_3'
p98
ag29
ag30
ag10
ag30
ag19
aS'variable_4'
p99
ag29
aS'15'
p100
ag33
aS'strlen'
p101
ag7
aS'variable_3'
p102
ag16
ag19
aS'variable_5'
p103
ag29
aS'func_1'
p104
ag7
aS'variable_4'
p105
ag5
aS'variable_2'
p106
ag16
ag19
aS'if'
p107
ag7
ag26
aS'variable_5'
p108
ag16
aS'variable_6'
p109
ag29
aS'variable_5'
p110
ag19
aS'variable_5'
p111
ag45
ag46
ag47
ag29
ag48
ag49
ag46
ag48
ag19
aS'unsigned'
p112
aS'variable_7'
p113
ag29
aS'snprintf'
p114
ag7
aS'variable_5'
p115
ag10
aS'variable_4'
p116
ag10
ag30
ag62
ag63
ag62
ag64
ag30
ag10
aS'variable_1'
p117
ag45
aS'variable_8'
p118
ag47
ag10
aS'variable_3'
p119
ag16
ag19
aS'if'
p120
ag7
aS'variable_7'
p121
ag70
ag29
aS'variable_4'
p122
ag16
aS'func_2'
p123
ag7
aS'variable_6'
p124
ag16
ag19
aS'variable_5'
p125
aS'+='
p126
aS'variable_7'
p127
ag19
aS'variable_6'
p128
ag45
aS'strlen'
p129
ag7
aS'variable_6'
p130
ag16
ag78
aS'strlen'
p131
ag7
aS'variable_3'
p132
ag16
ag47
ag29
ag48
ag49
ag46
ag48
ag19
aS'return'
p133
aS'variable_6'
p134
ag19
aaa(lp135
I0
aI0
aa(lp136
I127
aI35
aa(lp137
(lp138
S'main'
p139
aa(lp140
g139
aaa(lp141
S'270 /home/SySeVR/data/CVE_2013_0874_VULN_doubles2str.c strlen 21'
p142
aS'272 /home/SySeVR/data/CVE_2013_0874_VULN_doubles2str.c strlen 7'
p143
aa.