(lp0
(lp1
(lp2
S'static'
p3
aS'char'
p4
aS'*'
p5
aS'func_0'
p6
aS'('
p7
aS'variable_0'
p8
ag5
aS'variable_1'
p9
aS','
p10
aS'int'
p11
aS'variable_2'
p12
ag10
aS'const'
p13
aS'char'
p14
ag5
aS'variable_3'
p15
aS')'
p16
aS'char'
p17
ag5
aS'variable_4'
p18
ag10
ag5
aS'variable_5'
p19
aS';'
p20
aS'int'
p21
aS'variable_6'
p22
ag20
aS'if'
p23
ag7
aS'!'
p24
aS'variable_3'
p25
ag16
aS'variable_3'
p26
aS'='
p27
aS'"'
p28
ag10
ag28
ag20
aS'variable_6'
p29
ag27
aS'15'
p30
aS'+'
p31
aS'strlen'
p32
ag7
aS'variable_3'
p33
ag16
ag20
aS'variable_4'
p34
ag27
aS'func_1'
p35
ag7
aS'variable_6'
p36
ag5
aS'variable_2'
p37
ag16
ag20
aS'if'
p38
ag7
ag24
aS'variable_4'
p39
ag16
aS'variable_5'
p40
ag27
aS'variable_4'
p41
ag20
aS'variable_4'
p42
aS'['
p43
aS'0'
p44
aS']'
p45
ag27
aS"'"
p46
aS'\\'
p47
ag44
ag46
ag20
aS'unsigned'
p48
aS'variable_7'
p49
ag27
aS'snprintf'
p50
ag7
aS'variable_4'
p51
ag10
aS'variable_6'
p52
ag10
ag28
aS'%'
p53
aS'f'
p54
ag53
aS's'
p55
ag28
ag10
aS'variable_1'
p56
ag43
aS'variable_8'
p57
ag45
ag10
aS'variable_3'
p58
ag16
ag20
aS'if'
p59
ag7
aS'variable_7'
p60
aS'>'
p61
ag27
aS'variable_6'
p62
ag16
aS'func_2'
p63
ag7
aS'variable_5'
p64
ag16
ag20
aS'variable_4'
p65
aS'+='
p66
aS'variable_7'
p67
ag20
aS'variable_5'
p68
ag43
aS'strlen'
p69
ag7
aS'variable_5'
p70
ag16
aS'-'
p71
aS'strlen'
p72
ag7
aS'variable_3'
p73
ag16
ag45
ag27
ag46
ag47
ag44
ag46
ag20
aS'return'
p74
aS'variable_5'
p75
ag20
aaa(lp76
I0
aa(lp77
I54
aa(lp78
(lp79
S'main'
p80
aaa(lp81
S'442 /home/SySeVR/data/CVE_2013_0874_VULN_doubles2str.c ap = av_malloc ( component_len * count ) 8'
p82
aa.