(lp0
(lp1
(lp2
S'static'
p3
aS'int'
p4
aS'func_0'
p5
aS'('
p6
aS'variable_0'
p7
aS'*'
p8
aS'variable_1'
p9
aS','
p10
aS'int'
p11
aS'variable_2'
p12
aS')'
p13
aS'int'
p14
ag8
aS'variable_3'
p15
ag10
ag8
aS'variable_4'
p16
aS';'
p17
aS'if'
p18
ag6
aS'variable_1'
p19
aS'->'
p20
aS'variable_2'
p21
aS'<'
p22
aS'variable_2'
p23
ag13
aS'if'
p24
ag6
aS'variable_1'
p25
aS'->'
p26
aS'variable_5'
p27
ag13
aS'variable_3'
p28
aS'='
p29
aS'func_1'
p30
ag6
aS'variable_1'
p31
aS'->'
p32
aS'variable_5'
p33
ag10
aS'sizeof'
p34
ag6
aS'int'
p35
ag13
ag8
aS'variable_2'
p36
ag13
ag17
aS'variable_4'
p37
ag29
aS'func_2'
p38
ag6
aS'variable_1'
p39
aS'->'
p40
aS'variable_6'
p41
ag10
aS'sizeof'
p42
ag6
aS'int'
p43
ag13
ag8
aS'variable_2'
p44
ag13
ag17
aS'variable_3'
p45
ag29
aS'func_3'
p46
ag6
aS'sizeof'
p47
ag6
aS'int'
p48
ag13
ag8
aS'variable_2'
p49
ag13
ag17
aS'variable_4'
p50
ag29
aS'func_4'
p51
ag6
aS'sizeof'
p52
ag6
aS'int'
p53
ag13
ag8
aS'variable_2'
p54
ag13
ag17
aS'variable_1'
p55
aS'->'
p56
aS'variable_2'
p57
ag29
aS'0'
p58
ag17
aS'if'
p59
ag6
aS'!'
p60
aS'variable_3'
p61
aS'||'
p62
ag60
aS'variable_4'
p63
ag13
aS'memset'
p64
ag6
aS'&'
p65
aS'variable_4'
p66
aS'['
p67
aS'variable_1'
p68
aS'->'
p69
aS'variable_2'
p70
aS']'
p71
ag10
ag58
ag10
ag6
aS'variable_2'
p72
aS'-'
p73
aS'variable_1'
p74
aS'->'
p75
aS'variable_2'
p76
ag13
ag8
aS'sizeof'
p77
ag6
aS'int'
p78
ag13
ag13
ag17
aa(lp79
S'static'
p80
aS'int'
p81
aS'func_0'
p82
ag6
aS'variable_0'
p83
ag8
aS'variable_1'
p84
ag10
aS'int'
p85
aS'variable_2'
p86
ag13
aS'int'
p87
ag8
aS'variable_3'
p88
ag10
ag8
aS'variable_4'
p89
ag17
aS'if'
p90
ag6
aS'variable_1'
p91
aS'->'
p92
aS'variable_2'
p93
ag22
aS'variable_2'
p94
ag13
aS'if'
p95
ag6
aS'variable_1'
p96
aS'->'
p97
aS'variable_5'
p98
ag13
aS'variable_3'
p99
ag29
aS'func_1'
p100
ag6
aS'variable_1'
p101
aS'->'
p102
aS'variable_5'
p103
ag10
aS'sizeof'
p104
ag6
aS'int'
p105
ag13
ag8
aS'variable_2'
p106
ag13
ag17
aS'variable_4'
p107
ag29
aS'func_2'
p108
ag6
aS'variable_1'
p109
aS'->'
p110
aS'variable_6'
p111
ag10
aS'sizeof'
p112
ag6
aS'int'
p113
ag13
ag8
aS'variable_2'
p114
ag13
ag17
aS'variable_3'
p115
ag29
aS'func_3'
p116
ag6
aS'sizeof'
p117
ag6
aS'int'
p118
ag13
ag8
aS'variable_2'
p119
ag13
ag17
aS'variable_4'
p120
ag29
aS'func_4'
p121
ag6
aS'sizeof'
p122
ag6
aS'int'
p123
ag13
ag8
aS'variable_2'
p124
ag13
ag17
aS'variable_1'
p125
aS'->'
p126
aS'variable_2'
p127
ag29
ag58
ag17
aS'if'
p128
ag6
ag60
aS'variable_3'
p129
aS'||'
p130
ag60
aS'variable_4'
p131
ag13
aS'memset'
p132
ag6
ag65
aS'variable_3'
p133
ag67
aS'variable_1'
p134
aS'->'
p135
aS'variable_2'
p136
ag71
ag10
ag58
ag10
ag6
aS'variable_2'
p137
ag73
aS'variable_1'
p138
aS'->'
p139
aS'variable_2'
p140
ag13
ag8
aS'sizeof'
p141
ag6
aS'int'
p142
ag13
ag13
ag17
aaa(lp143
I0
aI0
aa(lp144
I102
aI102
aa(lp145
(lp146
S'main'
p147
aa(lp148
g147
aaa(lp149
S'68 /home/SySeVR/data/CVE_2011_3002_PATCHED_GrowAtomTable.c memset 23'
p150
aS'69 /home/SySeVR/data/CVE_2011_3002_PATCHED_GrowAtomTable.c memset 22'
p151
aa.