(lp0
(lp1
(lp2
S'func_0'
p3
aS'('
p4
aS'struct'
p5
aS'variable_0'
p6
aS'*'
p7
aS'variable_1'
p8
aS')'
p9
aS'int'
p10
aS'variable_2'
p11
aS','
p12
aS'variable_3'
p13
ag12
aS'variable_4'
p14
ag12
aS'variable_5'
p15
ag12
aS'variable_6'
p16
ag12
aS'variable_7'
p17
ag12
aS'variable_8'
p18
aS';'
p19
aS'char'
p20
aS'variable_9'
p21
aS'['
p22
aS'97'
p23
aS']'
p24
aS'='
p25
aS'{'
p26
aS"'"
p27
aS'\\'
p28
aS'0'
p29
ag27
aS'}'
p30
ag19
aS'for'
p31
ag4
aS'variable_2'
p32
ag25
ag29
ag19
aS'variable_2'
p33
aS'<'
p34
aS'variable_6'
p35
ag19
aS'++'
p36
aS'variable_2'
p37
ag9
aS'if'
p38
ag4
aS'fread'
p39
ag4
aS'&'
p40
aS'variable_7'
p41
ag12
aS'sizeof'
p42
ag4
aS'variable_7'
p43
ag9
ag12
aS'1'
p44
ag12
aS'variable_10'
p45
aS'->'
p46
aS'variable_11'
p47
ag9
aS'!='
p48
ag44
ag9
aS'variable_7'
p49
ag25
aS'func_1'
p50
ag4
aS'variable_7'
p51
ag9
aS'-'
p52
aS'sizeof'
p53
ag4
aS'variable_7'
p54
ag9
ag52
aS'sizeof'
p55
ag4
aS'variable_8'
p56
ag9
ag19
aS'if'
p57
ag4
aS'fread'
p58
ag4
ag40
aS'variable_8'
p59
ag12
aS'sizeof'
p60
ag4
aS'variable_8'
p61
ag9
ag12
ag44
ag12
aS'variable_10'
p62
aS'->'
p63
aS'variable_11'
p64
ag9
aS'!='
p65
ag44
ag9
aS'variable_8'
p66
ag25
aS'func_2'
p67
ag4
aS'variable_8'
p68
ag9
ag19
aS'if'
p69
ag4
aS'variable_12'
p70
aS'=='
p71
aS'variable_8'
p72
ag9
aS'if'
p73
ag4
aS'variable_7'
p74
aS'>'
p75
aS'96'
p76
ag9
aS'if'
p77
ag4
aS'fread'
p78
ag4
aS'variable_9'
p79
ag12
aS'variable_7'
p80
ag12
ag44
ag12
aS'variable_10'
p81
aS'->'
p82
aS'variable_11'
p83
ag9
aS'!='
p84
ag44
ag9
aS'if'
p85
ag4
aS'fseek'
p86
ag4
aS'variable_10'
p87
aS'->'
p88
aS'variable_11'
p89
ag12
aS'variable_7'
p90
ag12
aS'variable_13'
p91
ag9
ag9
aa(lp92
S'func_0'
p93
ag4
aS'struct'
p94
aS'variable_0'
p95
ag7
aS'variable_1'
p96
ag9
aS'int'
p97
aS'variable_2'
p98
ag12
aS'variable_3'
p99
ag12
aS'variable_4'
p100
ag12
aS'variable_5'
p101
ag12
aS'variable_6'
p102
ag12
aS'variable_7'
p103
ag12
aS'variable_8'
p104
ag19
aS'for'
p105
ag4
aS'variable_2'
p106
ag25
ag29
ag19
aS'variable_2'
p107
ag34
aS'variable_6'
p108
ag19
aS'++'
p109
aS'variable_2'
p110
ag9
aS'if'
p111
ag4
aS'fread'
p112
ag4
ag40
aS'variable_7'
p113
ag12
aS'sizeof'
p114
ag4
aS'variable_7'
p115
ag9
ag12
ag44
ag12
aS'variable_9'
p116
aS'->'
p117
aS'variable_10'
p118
ag9
aS'!='
p119
ag44
ag9
aS'variable_7'
p120
ag25
aS'func_1'
p121
ag4
aS'variable_7'
p122
ag9
ag52
aS'sizeof'
p123
ag4
aS'variable_7'
p124
ag9
ag52
aS'sizeof'
p125
ag4
aS'variable_8'
p126
ag9
ag19
aS'if'
p127
ag4
aS'fread'
p128
ag4
ag40
aS'variable_8'
p129
ag12
aS'sizeof'
p130
ag4
aS'variable_8'
p131
ag9
ag12
ag44
ag12
aS'variable_9'
p132
aS'->'
p133
aS'variable_10'
p134
ag9
aS'!='
p135
ag44
ag9
aS'variable_8'
p136
ag25
aS'func_2'
p137
ag4
aS'variable_8'
p138
ag9
ag19
aS'if'
p139
ag4
aS'variable_11'
p140
aS'=='
p141
aS'variable_8'
p142
ag9
aS'if'
p143
ag4
aS'fseek'
p144
ag4
aS'variable_9'
p145
aS'->'
p146
aS'variable_10'
p147
ag12
aS'variable_7'
p148
ag12
aS'variable_12'
p149
ag9
ag9
aaa(lp150
I1
aI1
aa(lp151
I128
aI75
aa(lp152
(lp153
S'main'
p154
aa(lp155
g154
aaa(lp156
S'915 /home/SySeVR/data/CVE_2013_1726_VULN_mar_read_product_info_block.c fread 47'
p157
aS'916 /home/SySeVR/data/CVE_2013_1726_VULN_mar_read_product_info_block.c fread 27'
p158
aa.