(lp0
(lp1
(lp2
S'static'
p3
aS'int'
p4
aS'func_0'
p5
aS'('
p6
aS'struct'
p7
aS'variable_0'
p8
aS'*'
p9
aS'variable_1'
p10
aS','
p11
aS'unsigned'
p12
aS'long'
p13
aS'variable_2'
p14
ag11
aS'unsigned'
p15
aS'long'
p16
aS'variable_3'
p17
aS')'
p18
aS'size_t'
p19
aS'variable_4'
p20
aS';'
p21
aS'if'
p22
ag6
aS'variable_2'
p23
aS'>'
p24
aS'variable_5'
p25
aS'/'
p26
aS'sizeof'
p27
ag6
aS'struct'
p28
aS'variable_6'
p29
ag18
ag18
aS'variable_2'
p30
aS'='
p31
aS'variable_5'
p32
ag26
aS'sizeof'
p33
ag6
aS'struct'
p34
aS'variable_6'
p35
ag18
ag21
aS'variable_4'
p36
ag31
aS'variable_2'
p37
ag9
aS'sizeof'
p38
ag6
aS'struct'
p39
aS'variable_6'
p40
ag18
ag21
aS'variable_7'
p41
ag31
aS'kmalloc'
p42
ag6
aS'variable_4'
p43
ag11
aS'variable_8'
p44
ag18
ag21
aS'if'
p45
ag6
aS'!'
p46
aS'variable_7'
p47
ag18
aS'variable_9'
p48
ag31
aS'func_1'
p49
ag6
aS'variable_1'
p50
ag11
aS'variable_7'
p51
ag11
aS'variable_2'
p52
ag11
aS'variable_3'
p53
ag18
ag21
aS'if'
p54
ag6
aS'variable_9'
p55
ag24
aS'0'
p56
ag18
aS'if'
p57
ag6
aS'func_2'
p58
ag6
aS'variable_10'
p59
ag11
aS'variable_7'
p60
ag11
aS'variable_9'
p61
ag9
aS'sizeof'
p62
ag6
aS'struct'
p63
aS'variable_6'
p64
ag18
ag18
ag18
aS'kfree'
p65
ag6
aS'variable_7'
p66
ag18
ag21
aS'return'
p67
aS'variable_9'
p68
ag21
aa(lp69
S'static'
p70
aS'int'
p71
aS'func_0'
p72
ag6
aS'struct'
p73
aS'variable_0'
p74
ag9
aS'variable_1'
p75
ag11
aS'unsigned'
p76
aS'long'
p77
aS'variable_2'
p78
ag11
aS'unsigned'
p79
aS'long'
p80
aS'variable_3'
p81
ag18
aS'if'
p82
ag6
aS'variable_2'
p83
ag24
aS'variable_4'
p84
ag26
aS'sizeof'
p85
ag6
aS'struct'
p86
aS'variable_5'
p87
ag18
ag18
aS'variable_2'
p88
ag31
aS'variable_4'
p89
ag26
aS'sizeof'
p90
ag6
aS'struct'
p91
aS'variable_5'
p92
ag18
ag21
aS'variable_6'
p93
ag31
aS'variable_2'
p94
ag9
aS'sizeof'
p95
ag6
aS'struct'
p96
aS'variable_5'
p97
ag18
ag21
aS'variable_7'
p98
ag31
aS'kmalloc'
p99
ag6
aS'variable_6'
p100
ag11
aS'variable_8'
p101
ag18
ag21
aS'if'
p102
ag6
ag46
aS'variable_7'
p103
ag18
aS'variable_9'
p104
ag31
aS'func_1'
p105
ag6
aS'variable_1'
p106
ag11
aS'variable_7'
p107
ag11
aS'variable_2'
p108
ag11
aS'variable_3'
p109
ag18
ag21
aS'if'
p110
ag6
aS'variable_9'
p111
ag24
ag56
ag18
aS'if'
p112
ag6
aS'func_2'
p113
ag6
aS'variable_10'
p114
ag11
aS'variable_7'
p115
ag11
aS'variable_9'
p116
ag9
aS'sizeof'
p117
ag6
aS'struct'
p118
aS'variable_5'
p119
ag18
ag18
ag18
aS'kfree'
p120
ag6
aS'variable_7'
p121
ag18
ag21
aS'return'
p122
aS'variable_9'
p123
ag21
aaa(lp124
I0
aI0
aa(lp125
I51
aI38
aa(lp126
(lp127
S'main'
p128
aa(lp129
g128
aaa(lp130
S'28 /home/SySeVR/data/CVE_2006_5751_PATCHED_get_fdb_entries.c size = maxnum * sizeof ( struct __fdb_entry ) 12'
p131
aS'29 /home/SySeVR/data/CVE_2006_5751_PATCHED_get_fdb_entries.c maxnum = PAGE_SIZE / sizeof ( struct __fdb_entry ) 10'
p132
aa.