(lp0
(lp1
(lp2
S'static'
p3
aS'int'
p4
aS'func_0'
p5
aS'('
p6
aS'struct'
p7
aS'variable_0'
p8
aS'*'
p9
aS'variable_1'
p10
aS','
p11
aS'struct'
p12
aS'struct'
p13
aS'variable_2'
p14
ag9
aS'variable_3'
p15
ag11
aS'struct'
p16
aS'variable_4'
p17
ag9
aS'variable_4'
p18
aS')'
p19
aS'struct'
p20
aS'compat_msghdr'
p21
aS'variable_5'
p22
ag9
aS'variable_6'
p23
aS'='
p24
ag6
aS'struct'
p25
aS'compat_msghdr'
p26
aS'__user'
p27
ag9
ag19
aS'variable_7'
p28
aS';'
p29
aS'struct'
p30
aS'iovec'
p31
aS'variable_8'
p32
aS'['
p33
aS'variable_9'
p34
aS']'
p35
ag11
ag9
aS'variable_10'
p36
ag24
aS'variable_8'
p37
ag29
aS'unsigned'
p38
aS'char'
p39
ag9
aS'variable_11'
p40
ag24
aS'variable_12'
p41
ag29
aS'int'
p42
aS'variable_13'
p43
ag11
aS'variable_14'
p44
ag11
aS'variable_15'
p45
ag11
aS'variable_16'
p46
ag29
aS'variable_13'
p47
ag24
aS'-'
p48
aS'variable_17'
p49
ag29
aS'if'
p50
ag6
aS'variable_18'
p51
aS'&'
p52
aS'variable_19'
p53
ag19
aS'if'
p54
ag6
aS'func_1'
p55
ag6
aS'variable_3'
p56
ag11
aS'variable_6'
p57
ag19
ag19
aS'if'
p58
ag6
aS'func_2'
p59
ag6
aS'variable_3'
p60
ag11
aS'variable_7'
p61
ag11
aS'sizeof'
p62
ag6
aS'struct'
p63
aS'variable_2'
p64
ag19
ag19
ag19
aS'variable_13'
p65
ag24
ag48
aS'variable_20'
p66
ag29
aS'if'
p67
ag6
aS'variable_3'
p68
aS'->'
p69
aS'variable_21'
p70
aS'>'
p71
aS'variable_22'
p72
ag19
aS'variable_15'
p73
ag24
aS'variable_3'
p74
aS'->'
p75
aS'variable_21'
p76
ag9
aS'sizeof'
p77
ag6
aS'struct'
p78
aS'variable_23'
p79
ag19
ag29
aS'if'
p80
ag6
aS'variable_3'
p81
aS'->'
p82
aS'variable_21'
p83
ag71
aS'variable_9'
p84
ag19
aS'variable_10'
p85
ag24
aS'func_3'
p86
ag6
aS'variable_1'
p87
aS'->'
p88
aS'variable_24'
p89
ag11
aS'variable_15'
p90
ag11
aS'variable_25'
p91
ag19
ag29
aS'if'
p92
ag6
aS'!'
p93
aS'variable_10'
p94
ag19
aS'if'
p95
ag6
aS'variable_18'
p96
ag52
aS'variable_19'
p97
ag19
aS'variable_13'
p98
ag24
aS'func_4'
p99
ag6
aS'variable_3'
p100
ag11
aS'variable_10'
p101
ag11
ag6
aS'struct'
p102
aS'sockaddr'
p103
ag9
ag19
ag52
aS'variable_26'
p104
ag11
aS'variable_27'
p105
ag19
ag29
aS'variable_13'
p106
ag24
aS'func_5'
p107
ag6
aS'variable_3'
p108
ag11
aS'variable_10'
p109
ag11
ag6
aS'struct'
p110
aS'sockaddr'
p111
ag9
ag19
ag52
aS'variable_26'
p112
ag11
aS'variable_27'
p113
ag19
ag29
aS'if'
p114
ag6
aS'variable_13'
p115
aS'<'
p116
aS'0'
p117
ag19
aS'variable_16'
p118
ag24
aS'variable_13'
p119
ag29
aS'variable_13'
p120
ag24
ag48
aS'variable_28'
p121
ag29
aS'if'
p122
ag6
aS'variable_3'
p123
aS'->'
p124
aS'variable_29'
p125
ag71
aS'variable_30'
p126
ag19
aS'variable_14'
p127
ag24
aS'variable_3'
p128
aS'->'
p129
aS'variable_29'
p130
ag29
aS'if'
p131
ag6
ag6
aS'variable_18'
p132
ag52
aS'variable_19'
p133
ag19
aS'&&'
p134
aS'variable_14'
p135
ag19
aS'variable_13'
p136
ag24
aS'func_6'
p137
ag6
aS'variable_3'
p138
ag11
aS'variable_1'
p139
aS'->'
p140
aS'variable_24'
p141
ag11
aS'variable_12'
p142
ag11
aS'sizeof'
p143
ag6
aS'variable_12'
p144
ag19
ag19
ag29
aS'if'
p145
ag6
aS'variable_13'
p146
ag19
aS'if'
p147
ag6
aS'variable_14'
p148
ag19
aS'if'
p149
ag6
aS'variable_14'
p150
ag71
aS'sizeof'
p151
ag6
aS'variable_12'
p152
ag19
ag19
aS'variable_11'
p153
ag24
aS'func_7'
p154
ag6
aS'variable_1'
p155
aS'->'
p156
aS'variable_24'
p157
ag11
aS'variable_14'
p158
ag11
aS'variable_25'
p159
ag19
ag29
aS'if'
p160
ag6
aS'variable_11'
p161
aS'=='
p162
aS'NULL'
p163
ag19
aS'if'
p164
ag6
aS'func_8'
p165
ag6
aS'variable_11'
p166
ag11
ag6
aS'void'
p167
aS'__user'
p168
aS'__force'
p169
ag9
ag19
aS'variable_3'
p170
aS'->'
p171
aS'variable_31'
p172
ag11
aS'variable_14'
p173
ag19
ag19
aS'variable_3'
p174
aS'->'
p175
aS'variable_31'
p176
ag24
aS'variable_11'
p177
ag29
aS'variable_3'
p178
aS'->'
p179
aS'variable_32'
p180
ag24
aS'variable_19'
p181
ag29
aS'if'
p182
ag6
aS'variable_1'
p183
aS'->'
p184
aS'variable_33'
p185
aS'->'
p186
aS'variable_34'
p187
ag52
aS'variable_35'
p188
ag19
aS'variable_3'
p189
aS'->'
p190
aS'variable_32'
p191
aS'|'
p192
ag24
aS'variable_36'
p193
ag29
aS'if'
p194
ag6
aS'variable_4'
p195
aS'&&'
p196
aS'variable_3'
p197
aS'->'
p198
aS'variable_37'
p199
aS'&&'
p200
aS'variable_4'
p201
aS'->'
p202
aS'variable_38'
p203
aS'=='
p204
aS'variable_3'
p205
aS'->'
p206
aS'variable_39'
p207
aS'&&'
p208
ag93
aS'memcmp'
p209
ag6
ag52
aS'variable_4'
p210
aS'->'
p211
aS'variable_40'
p212
ag11
aS'variable_3'
p213
aS'->'
p214
aS'variable_37'
p215
ag11
aS'variable_4'
p216
aS'->'
p217
aS'variable_38'
p218
ag19
ag19
aS'variable_13'
p219
ag24
aS'func_9'
p220
ag6
aS'variable_1'
p221
ag11
aS'variable_3'
p222
ag11
aS'variable_16'
p223
ag19
ag29
aS'if'
p224
ag6
aS'variable_4'
p225
aS'&&'
p226
aS'variable_13'
p227
ag71
ag24
ag117
ag19
aS'variable_4'
p228
aS'->'
p229
aS'variable_38'
p230
ag24
aS'variable_3'
p231
aS'->'
p232
aS'variable_39'
p233
ag29
aS'if'
p234
ag6
aS'variable_3'
p235
aS'->'
p236
aS'variable_37'
p237
ag19
aS'memcpy'
p238
ag6
ag52
aS'variable_4'
p239
aS'->'
p240
aS'variable_40'
p241
ag11
aS'variable_3'
p242
aS'->'
p243
aS'variable_37'
p244
ag11
aS'variable_4'
p245
aS'->'
p246
aS'variable_38'
p247
ag19
ag29
aaa(lp248
I0
aa(lp249
I400
aa(lp250
(lp251
S'main'
p252
aaa(lp253
S'492 /home/SySeVR/data/CVE_2011_4594_PATCHED___sys_sendmsg.c memcpy 105'
p254
aa.