(lp0
(lp1
(lp2
S'static'
p3
aS'int'
p4
aS'func_0'
p5
aS'('
p6
aS'struct'
p7
aS'variable_0'
p8
aS'*'
p9
aS'variable_1'
p10
aS','
p11
aS'struct'
p12
aS'struct'
p13
aS'variable_2'
p14
ag9
aS'variable_3'
p15
ag11
aS'struct'
p16
aS'variable_4'
p17
ag9
aS'variable_4'
p18
aS')'
p19
aS'struct'
p20
aS'compat_msghdr'
p21
aS'variable_5'
p22
ag9
aS'variable_6'
p23
aS'='
p24
ag6
aS'struct'
p25
aS'compat_msghdr'
p26
aS'__user'
p27
ag9
ag19
aS'variable_7'
p28
aS';'
p29
aS'int'
p30
aS'variable_8'
p31
ag11
aS'variable_9'
p32
ag11
aS'variable_10'
p33
ag11
aS'variable_11'
p34
ag29
aS'if'
p35
ag6
aS'variable_12'
p36
aS'&'
p37
aS'variable_13'
p38
ag19
aS'if'
p39
ag6
aS'func_1'
p40
ag6
aS'variable_3'
p41
ag11
aS'variable_6'
p42
ag19
ag19
aS'if'
p43
ag6
aS'func_2'
p44
ag6
aS'variable_3'
p45
ag11
aS'variable_7'
p46
ag11
aS'sizeof'
p47
ag6
aS'struct'
p48
aS'variable_2'
p49
ag19
ag19
ag19
aS'if'
p50
ag6
aS'variable_3'
p51
aS'->'
p52
aS'variable_14'
p53
aS'>'
p54
aS'variable_15'
p55
ag19
aS'variable_10'
p56
ag24
aS'variable_3'
p57
aS'->'
p58
aS'variable_14'
p59
ag9
aS'sizeof'
p60
ag6
aS'struct'
p61
aS'variable_16'
p62
ag19
ag29
aS'variable_17'
p63
ag24
aS'func_3'
p64
ag6
aS'variable_1'
p65
aS'->'
p66
aS'variable_18'
p67
ag11
aS'variable_10'
p68
ag11
aS'variable_19'
p69
ag19
ag29
aS'if'
p70
ag6
aS'!'
p71
aS'variable_17'
p72
ag19
aS'variable_8'
p73
ag24
aS'func_4'
p74
ag6
aS'variable_3'
p75
ag11
aS'variable_17'
p76
ag11
ag6
aS'struct'
p77
aS'sockaddr'
p78
ag9
ag19
ag37
aS'variable_20'
p79
ag11
aS'variable_21'
p80
ag19
ag29
aS'variable_8'
p81
ag24
aS'func_5'
p82
ag6
aS'variable_3'
p83
ag11
aS'variable_17'
p84
ag11
ag6
aS'struct'
p85
aS'sockaddr'
p86
ag9
ag19
ag37
aS'variable_20'
p87
ag11
aS'variable_21'
p88
ag19
ag29
aS'if'
p89
ag6
aS'variable_8'
p90
aS'<'
p91
aS'0'
p92
ag19
aS'variable_11'
p93
ag24
aS'variable_8'
p94
ag29
aS'if'
p95
ag6
aS'variable_8'
p96
ag19
aS'variable_8'
p97
ag24
aS'func_6'
p98
ag6
aS'variable_1'
p99
ag11
aS'variable_3'
p100
ag11
aS'variable_11'
p101
ag19
ag29
aS'variable_8'
p102
ag24
aS'func_7'
p103
ag6
aS'variable_1'
p104
ag11
aS'variable_3'
p105
ag11
aS'variable_11'
p106
ag19
ag29
aS'if'
p107
ag6
aS'variable_4'
p108
aS'&&'
p109
aS'variable_8'
p110
ag54
ag24
ag92
ag19
aS'if'
p111
ag6
aS'variable_17'
p112
aS'!='
p113
aS'variable_22'
p114
ag19
aS'func_8'
p115
ag6
aS'variable_1'
p116
aS'->'
p117
aS'variable_18'
p118
ag11
aS'variable_17'
p119
ag11
aS'variable_10'
p120
ag19
ag29
aS'return'
p121
aS'variable_8'
p122
ag29
aaa(lp123
I0
aa(lp124
I92
aa(lp125
(lp126
S'main'
p127
aaa(lp128
S'276 /home/SySeVR/data/CVE_2011_4594_PATCHED___sys_sendmsg.c iov_size = msg_sys -> msg_iovlen * sizeof ( struct iovec ) 29'
p129
aa.