(lp0
(lp1
(lp2
S'static'
p3
aS'int'
p4
aS'func_0'
p5
aS'('
p6
aS'struct'
p7
aS'variable_0'
p8
aS'*'
p9
aS'variable_1'
p10
aS','
p11
aS'const'
p12
aS'struct'
p13
aS'variable_2'
p14
ag9
aS'variable_3'
p15
aS')'
p16
aS'struct'
p17
aS'variable_4'
p18
ag9
aS'variable_5'
p19
aS';'
p20
aS'int'
p21
aS'variable_6'
p22
ag11
aS'variable_7'
p23
aS'='
p24
aS'2'
p25
ag20
aS'if'
p26
ag6
aS'variable_3'
p27
aS'->'
p28
aS'variable_8'
p29
aS'&'
p30
aS'variable_9'
p31
ag16
aS'variable_7'
p32
ag24
aS'3'
p33
ag20
aS'variable_5'
p34
ag24
aS'func_1'
p35
ag6
aS'variable_3'
p36
aS'->'
p37
aS'variable_10'
p38
ag11
ag30
aS'variable_3'
p39
aS'->'
p40
aS'variable_11'
p41
ag11
aS'variable_7'
p42
ag16
ag20
aS'if'
p43
ag6
aS'func_2'
p44
ag6
aS'variable_5'
p45
ag16
ag16
aS'variable_6'
p46
ag24
aS'func_3'
p47
ag6
aS'variable_5'
p48
ag11
aS'variable_3'
p49
ag16
ag20
aS'if'
p50
ag6
aS'variable_6'
p51
aS'<'
p52
aS'0'
p53
ag16
aS'variable_1'
p54
aS'->'
p55
aS'variable_4'
p56
ag24
aS'variable_5'
p57
ag20
aS'variable_1'
p58
aS'->'
p59
aS'variable_8'
p60
ag24
aS'variable_3'
p61
aS'->'
p62
aS'variable_8'
p63
ag30
aS'variable_12'
p64
ag20
aS'if'
p65
ag6
aS'variable_3'
p66
aS'->'
p67
aS'variable_13'
p68
ag16
aS'variable_1'
p69
aS'->'
p70
aS'variable_13'
p71
ag24
aS'func_4'
p72
ag6
aS'variable_3'
p73
aS'->'
p74
aS'variable_13'
p75
ag11
aS'NULL'
p76
ag16
ag20
aS'if'
p77
ag6
aS'variable_3'
p78
aS'->'
p79
aS'variable_14'
p80
ag16
aS'variable_1'
p81
aS'->'
p82
aS'variable_14'
p83
ag24
aS'func_5'
p84
ag6
aS'variable_3'
p85
aS'->'
p86
aS'variable_14'
p87
ag11
aS'NULL'
p88
ag16
ag20
aS'variable_1'
p89
aS'->'
p90
aS'variable_15'
p91
ag24
aS'variable_3'
p92
aS'->'
p93
aS'variable_15'
p94
ag9
aS'variable_16'
p95
ag20
aS'variable_1'
p96
aS'->'
p97
aS'variable_17'
p98
ag24
aS'variable_3'
p99
aS'->'
p100
aS'variable_17'
p101
ag9
aS'variable_16'
p102
ag20
aS'variable_1'
p103
aS'->'
p104
aS'variable_18'
p105
ag24
aS'variable_3'
p106
aS'->'
p107
aS'variable_18'
p108
ag9
aS'variable_16'
p109
ag20
aS'variable_1'
p110
aS'->'
p111
aS'variable_19'
p112
ag24
aS'variable_3'
p113
aS'->'
p114
aS'variable_19'
p115
ag9
aS'variable_16'
p116
ag20
aS'variable_6'
p117
ag24
aS'func_6'
p118
ag6
aS'variable_1'
p119
ag16
ag20
aS'if'
p120
ag6
aS'variable_6'
p121
ag52
ag53
ag16
aS'variable_6'
p122
ag24
aS'func_7'
p123
ag6
aS'variable_1'
p124
ag11
aS'variable_3'
p125
aS'->'
p126
aS'variable_20'
p127
ag16
ag20
aS'if'
p128
ag6
aS'variable_6'
p129
ag52
ag53
ag16
aS'variable_1'
p130
aS'->'
p131
aS'variable_21'
p132
ag24
aS'variable_3'
p133
aS'->'
p134
aS'variable_22'
p135
ag20
aS'func_8'
p136
ag6
aS'variable_1'
p137
ag16
ag20
aS'func_9'
p138
ag6
aS'"'
p139
ag52
aS'--'
p140
aS'CVE_2009_1336_PATCHED_nfs_init_server'
p141
ag6
ag16
ag24
aS'xerror'
p142
aS'%'
p143
aS'd'
p144
aS'\\'
p145
aS'n'
p146
ag139
ag11
aS'variable_6'
p147
ag16
ag20
aS'return'
p148
aS'variable_6'
p149
ag20
aaa(lp150
I0
aa(lp151
I169
aa(lp152
(lp153
S'main'
p154
aaa(lp155
S'69 /home/SySeVR/data/CVE_2009_1336_PATCHED_nfs_init_server.c server -> acdirmax = data -> acdirmax * HZ 37'
p156
aa.