(lp0
(lp1
(lp2
S'func_0'
p3
aS'('
p4
aS'variable_0'
p5
aS'*'
p6
aS'variable_1'
p7
aS','
p8
aS'variable_2'
p9
ag6
aS'variable_3'
p10
ag8
aS'variable_4'
p11
ag6
aS')'
p12
aS'if'
p13
ag4
aS'variable_7'
p14
aS'>'
p15
aS'variable_8'
p16
ag12
aS'if'
p17
ag4
aS'variable_9'
p18
ag12
aS'variable_5'
p19
ag6
aS'variable_10'
p20
aS';'
p21
aS'variable_10'
p22
aS'='
p23
aS'func_1'
p24
ag4
aS'variable_7'
p25
ag6
aS'sizeof'
p26
ag4
aS'variable_5'
p27
ag12
ag12
ag21
aS'for'
p28
ag4
aS'variable_11'
p29
ag23
aS'variable_12'
p30
ag21
aS'variable_11'
p31
aS'!='
p32
aS'NULL'
p33
aS'&&'
p34
aS'variable_13'
p35
aS'<'
p36
aS'variable_7'
p37
ag21
aS'variable_11'
p38
ag23
aS'variable_11'
p39
aS'->'
p40
aS'variable_14'
p41
ag12
aS'variable_10'
p42
aS'['
p43
aS'variable_13'
p44
aS'++'
p45
aS']'
p46
ag23
aS'variable_11'
p47
aS'->'
p48
aS'variable_15'
p49
ag21
aS'if'
p50
ag4
aS'variable_13'
p51
ag15
ag23
aS'variable_16'
p52
ag12
aS'func_2'
p53
ag4
aS'variable_17'
p54
ag8
aS'variable_1'
p55
ag8
aS'0'
p56
ag8
aS'-'
p57
aS'1'
p58
ag8
aS'"'
p59
aS'want'
p60
aS'%'
p61
aS'd'
p62
ag8
aS'got'
p63
ag61
ag62
aS'need'
p64
ag61
ag62
ag59
ag8
aS'variable_7'
p65
ag8
aS'variable_13'
p66
ag8
aS'variable_16'
p67
ag12
ag21
aS'for'
p68
ag4
aS'variable_18'
p69
ag23
ag56
ag21
aS'variable_18'
p70
ag36
aS'variable_13'
p71
ag21
aS'variable_18'
p72
aS'++'
p73
ag12
aS'guint'
p74
aS'variable_19'
p75
ag23
aS'variable_10'
p76
ag43
aS'variable_18'
p77
ag46
ag21
aS'if'
p78
ag4
aS'variable_19'
p79
ag15
aS'variable_8'
p80
ag12
aS'func_3'
p81
ag4
aS'variable_17'
p82
ag8
aS'variable_1'
p83
ag8
ag56
ag8
ag57
ag58
ag8
ag59
ag43
aS'Reassembly'
p84
aS'of'
p85
ag61
ag62
aS'fragments'
p86
aS'not'
p87
aS'attempted'
p88
ag46
ag59
ag8
aS'variable_19'
p89
ag12
ag21
aS'for'
p90
ag4
ag21
aS'variable_20'
p91
ag36
aS'variable_19'
p92
ag21
aS'variable_20'
p93
aS'++'
p94
ag12
aa(lp95
S'func_0'
p96
ag4
aS'variable_0'
p97
ag6
aS'variable_1'
p98
ag8
aS'variable_2'
p99
ag6
aS'variable_3'
p100
ag8
aS'variable_4'
p101
ag6
ag12
aS'guint32'
p102
aS'variable_7'
p103
ag21
aS'guint32'
p104
aS'variable_8'
p105
ag21
aS'if'
p106
ag4
aS'variable_9'
p107
ag15
aS'variable_10'
p108
ag12
aS'variable_7'
p109
ag23
aS'variable_9'
p110
ag6
aS'variable_11'
p111
aS'/'
p112
ag4
aS'variable_12'
p113
aS'+'
p114
aS'variable_13'
p115
ag12
ag21
aS'variable_8'
p116
ag23
aS'variable_7'
p117
ag6
aS'variable_12'
p118
ag112
aS'variable_11'
p119
ag21
aS'if'
p120
ag4
aS'variable_8'
p121
ag6
aS'variable_11'
p122
ag36
aS'variable_7'
p123
ag6
aS'variable_12'
p124
ag12
aS'variable_8'
p125
aS'++'
p126
ag21
aS'func_1'
p127
ag4
aS'variable_14'
p128
ag8
aS'variable_1'
p129
ag8
ag56
ag8
ag57
ag58
ag8
ag59
aS'want'
p130
ag61
ag62
ag8
aS'got'
p131
ag61
ag62
aS'need'
p132
ag61
ag62
ag59
ag8
aS'variable_9'
p133
ag8
aS'variable_15'
p134
ag8
aS'variable_8'
p135
ag12
ag21
aS'if'
p136
ag4
aS'variable_15'
p137
ag15
ag23
aS'variable_8'
p138
ag12
aS'func_2'
p139
ag4
aS'variable_14'
p140
ag8
aS'variable_1'
p141
ag8
ag56
ag8
ag57
ag58
ag8
ag59
aS'want'
p142
ag61
ag62
ag8
aS'got'
p143
ag61
ag62
aS'need'
p144
ag61
ag62
ag59
ag8
aS'variable_9'
p145
ag8
aS'variable_15'
p146
ag8
aS'variable_8'
p147
ag12
ag21
aa(lp148
S'func_0'
p149
ag4
aS'variable_0'
p150
ag6
aS'variable_1'
p151
ag8
aS'variable_2'
p152
ag6
aS'variable_3'
p153
ag8
aS'variable_4'
p154
ag6
ag12
aS'guint32'
p155
aS'variable_7'
p156
ag21
aS'if'
p157
ag4
aS'variable_8'
p158
ag15
aS'variable_9'
p159
ag12
aS'variable_7'
p160
ag23
aS'variable_8'
p161
ag6
aS'variable_10'
p162
ag112
ag4
aS'variable_11'
p163
ag114
aS'variable_12'
p164
ag12
ag21
aS'variable_13'
p165
ag23
aS'variable_7'
p166
ag6
aS'variable_11'
p167
ag112
aS'variable_10'
p168
ag21
aS'if'
p169
ag4
aS'variable_13'
p170
ag6
aS'variable_10'
p171
ag36
aS'variable_7'
p172
ag6
aS'variable_11'
p173
ag12
aS'variable_13'
p174
aS'++'
p175
ag21
aS'func_1'
p176
ag4
aS'variable_14'
p177
ag8
aS'variable_1'
p178
ag8
ag56
ag8
ag57
ag58
ag8
ag59
aS'want'
p179
ag61
ag62
ag8
aS'got'
p180
ag61
ag62
aS'need'
p181
ag61
ag62
ag59
ag8
aS'variable_8'
p182
ag8
aS'variable_15'
p183
ag8
aS'variable_13'
p184
ag12
ag21
aS'if'
p185
ag4
aS'variable_15'
p186
ag15
ag23
aS'variable_13'
p187
ag12
aS'func_2'
p188
ag4
aS'variable_14'
p189
ag8
aS'variable_1'
p190
ag8
ag56
ag8
ag57
ag58
ag8
ag59
aS'want'
p191
ag61
ag62
ag8
aS'got'
p192
ag61
ag62
aS'need'
p193
ag61
ag62
ag59
ag8
aS'variable_8'
p194
ag8
aS'variable_15'
p195
ag8
aS'variable_13'
p196
ag12
ag21
aS'variable_16'
p197
ag23
aS'func_3'
p198
ag4
aS'variable_17'
p199
ag8
aS'variable_18'
p200
ag8
aS'variable_7'
p201
ag8
aS'variable_11'
p202
ag8
aS'variable_19'
p203
ag12
ag21
aS'func_4'
p204
ag4
aS'variable_14'
p205
ag8
aS'variable_20'
p206
ag8
aS'variable_1'
p207
ag8
aS'variable_21'
p208
ag8
aS'2'
p209
ag8
aS'variable_16'
p210
ag12
ag21
aa(lp211
S'func_0'
p212
ag4
aS'variable_0'
p213
ag6
aS'variable_1'
p214
ag8
aS'variable_2'
p215
ag6
aS'variable_3'
p216
ag8
aS'variable_4'
p217
ag6
ag12
aS'guint16'
p218
aS'variable_7'
p219
ag21
aS'if'
p220
ag4
aS'variable_8'
p221
ag15
aS'variable_9'
p222
ag12
aS'variable_7'
p223
ag23
aS'variable_8'
p224
ag6
aS'variable_10'
p225
ag21
aS'variable_11'
p226
ag6
aS'variable_12'
p227
ag23
ag4
aS'guint8'
p228
ag6
ag12
aS'func_1'
p229
ag4
aS'variable_7'
p230
ag12
ag21
aS'variable_13'
p231
ag23
aS'func_2'
p232
ag4
aS'variable_14'
p233
ag8
aS'variable_12'
p234
ag8
aS'variable_15'
p235
ag8
aS'variable_16'
p236
ag8
aS'variable_17'
p237
ag12
ag21
aS'func_3'
p238
ag4
aS'variable_18'
p239
ag8
aS'variable_19'
p240
ag8
aS'variable_1'
p241
ag8
aS'variable_20'
p242
ag8
ag209
ag8
aS'variable_13'
p243
ag12
ag21
aS'variable_21'
p244
ag23
aS'func_4'
p245
ag4
aS'variable_22'
p246
ag8
aS'variable_12'
p247
ag8
aS'variable_7'
p248
ag8
aS'variable_7'
p249
ag12
ag21
aS'func_5'
p250
ag4
aS'variable_3'
p251
ag8
aS'variable_21'
p252
ag8
ag59
aS'RS'
p253
aS'Error'
p254
aS'Corrected'
p255
aS'Data'
p256
ag59
ag12
ag21
aS'func_6'
p257
ag4
aS'variable_21'
p258
ag8
aS'variable_23'
p259
ag12
ag21
aS'return'
p260
aS'variable_21'
p261
ag21
aaa(lp262
I0
aI0
aI0
aI0
aa(lp263
I39
aI46
aI35
aI29
aa(lp264
(lp265
S'main'
p266
aa(lp267
g266
aa(lp268
g266
aa(lp269
g266
aaa(lp270
S'462 /home/SySeVR/data/CVE_2013_1588_PATCHED_dissect_pft_fec_detailed.c got = ep_alloc ( fcount * sizeof ( guint32 ) ) 45'
p271
aS'463 /home/SySeVR/data/CVE_2013_1588_PATCHED_dissect_pft_fec_detailed.c rx_min = c_max * rsk / plen 27'
p272
aS'464 /home/SySeVR/data/CVE_2013_1588_PATCHED_dissect_pft_fec_detailed.c c_max = fcount * plen / ( rsk + PFT_RS_P ) 26'
p273
aS'465 /home/SySeVR/data/CVE_2013_1588_PATCHED_dissect_pft_fec_detailed.c decoded_size = fcount * plen 25'
p274
aa.