(lp0
(lp1
(lp2
S'PRBool'
p3
aS'func_0'
p4
aS'('
p5
aS'const'
p6
aS'void'
p7
aS'*'
p8
aS'variable_0'
p9
aS')'
p10
aS'if'
p11
ag5
aS'variable_1'
p12
aS'=='
p13
aS'variable_2'
p14
ag10
aS'variable_3'
p15
aS'='
p16
aS'realloc'
p17
ag5
aS'variable_3'
p18
aS','
p19
aS'variable_4'
p20
ag10
aS';'
p21
aS'if'
p22
ag5
aS'!'
p23
aS'variable_3'
p24
ag10
aS'memcpy'
p25
ag5
aS'variable_3'
p26
ag19
aS'variable_0'
p27
ag19
aS'variable_4'
p28
ag10
ag21
aaa(lp29
I0
aa(lp30
I16
aa(lp31
(lp32
S'main'
p33
aaa(lp34
S'172 /home/SySeVR/data/CVE_2011_3003_PATCHED_CopyDataIfElementArray.c realloc 3'
p35
aa.