(lp0
(lp1
(lp2
S'int'
p3
aS'func_0'
p4
aS'('
p5
aS'void'
p6
aS')'
p7
aS'int'
p8
aS'variable_0'
p9
aS','
p10
aS'variable_1'
p11
ag10
aS'variable_2'
p12
aS';'
p13
aS'struct'
p14
aS'variable_3'
p15
aS'*'
p16
aS'variable_4'
p17
ag13
aS'variable_0'
p18
aS'='
p19
aS'func_1'
p20
ag5
aS'variable_5'
p21
ag10
aS'variable_6'
p22
ag10
aS'variable_7'
p23
ag7
ag13
aS'variable_4'
p24
ag19
ag5
aS'struct'
p25
aS'cn_msg'
p26
ag16
ag7
aS'variable_8'
p27
ag13
aS'variable_4'
p28
aS'->'
p29
aS'variable_9'
p30
aS'.'
p31
aS'variable_10'
p32
ag19
aS'variable_11'
p33
ag13
aS'variable_4'
p34
aS'->'
p35
aS'variable_9'
p36
ag31
aS'variable_12'
p37
ag19
aS'variable_13'
p38
ag13
aS'variable_4'
p39
aS'->'
p40
aS'variable_14'
p41
ag19
aS'0'
p42
ag13
aS'variable_4'
p43
aS'->'
p44
aS'variable_1'
p45
ag19
aS'sizeof'
p46
ag5
aS'struct'
p47
aS'variable_15'
p48
ag7
ag13
aS'variable_1'
p49
ag19
aS'func_2'
p50
ag5
aS'variable_0'
p51
ag10
aS'variable_4'
p52
ag7
ag13
aS'while'
p53
ag5
aS'1'
p54
ag7
aS'variable_1'
p55
ag19
aS'recv'
p56
ag5
aS'variable_0'
p57
ag10
aS'variable_16'
p58
ag10
aS'sizeof'
p59
ag5
aS'variable_16'
p60
ag7
ag10
ag42
ag7
ag13
aS'if'
p61
ag5
aS'variable_1'
p62
aS'<'
p63
ag42
ag7
aS'syslog'
p64
ag5
aS'variable_17'
p65
ag10
aS'"'
p66
aS'recv'
p67
aS'failed'
p68
ag13
aS'error'
p69
aS':'
p70
aS'%'
p71
aS'd'
p72
ag66
ag10
aS'variable_1'
p73
ag7
ag13
aS'if'
p74
ag5
aS'variable_1'
p75
ag63
ag42
ag7
aS'syslog'
p76
ag5
aS'variable_17'
p77
ag10
ag66
aS'net_link'
p78
aS'send'
p79
aS'failed'
p80
ag13
aS'error'
p81
ag70
ag71
ag72
ag66
ag10
aS'variable_1'
p82
ag7
ag13
aaa(lp83
I1
aa(lp84
I84
aa(lp85
(lp86
S'main'
p87
aaa(lp88
S'898 /home/SySeVR/data/CVE_2012_2669_VULN_main.c recv 72'
p89
aa.