(lp0
(lp1
(lp2
S'static'
p3
aS'struct'
p4
aS'variable_0'
p5
aS'*'
p6
aS'func_0'
p7
aS'('
p8
aS'netdev_features_t'
p9
aS'variable_1'
p10
aS')'
p11
aS'unsigned'
p12
aS'int'
p13
aS'variable_2'
p14
aS';'
p15
aS'unsigned'
p16
aS'int'
p17
aS'variable_3'
p18
aS','
p19
aS'variable_4'
p20
ag15
aS'variable_5'
p21
ag6
aS'variable_6'
p22
ag19
ag6
aS'variable_7'
p23
ag15
aS'u8'
p24
aS'variable_8'
p25
aS'='
p26
aS'sizeof'
p27
ag8
aS'struct'
p28
aS'variable_9'
p29
ag11
ag15
aS'int'
p30
aS'variable_10'
p31
ag15
aS'__wsum'
p32
aS'variable_11'
p33
ag15
aS'int'
p34
aS'variable_12'
p35
ag15
aS'variable_2'
p36
ag26
aS'func_1'
p37
ag8
aS'variable_13'
p38
ag11
aS'->'
p39
aS'variable_14'
p40
ag15
aS'if'
p41
ag8
aS'func_2'
p42
ag8
aS'variable_13'
p43
aS'->'
p44
aS'variable_15'
p45
aS'<'
p46
ag26
aS'variable_2'
p47
ag11
ag11
aS'if'
p48
ag8
aS'func_3'
p49
ag8
aS'variable_13'
p50
ag19
aS'variable_1'
p51
aS'|'
p52
aS'variable_16'
p53
ag11
ag11
aS'variable_10'
p54
ag26
aS'func_4'
p55
ag8
aS'variable_13'
p56
ag11
ag15
aS'variable_11'
p57
ag26
aS'func_5'
p58
ag8
aS'variable_13'
p59
ag19
aS'variable_10'
p60
ag19
aS'variable_13'
p61
aS'->'
p62
aS'variable_15'
p63
aS'-'
p64
aS'variable_10'
p65
ag19
aS'0'
p66
ag11
ag15
aS'variable_10'
p67
aS'+='
p68
aS'variable_13'
p69
aS'->'
p70
aS'variable_17'
p71
ag15
ag6
ag8
aS'__sum16'
p72
ag6
ag11
ag8
aS'variable_13'
p73
aS'->'
p74
aS'variable_18'
p75
aS'+'
p76
aS'variable_10'
p77
ag11
ag26
aS'func_6'
p78
ag8
aS'variable_11'
p79
ag11
ag15
aS'variable_13'
p80
aS'->'
p81
aS'variable_19'
p82
ag26
aS'variable_20'
p83
ag15
aS'variable_12'
p84
ag26
aS'func_7'
p85
ag8
aS'variable_13'
p86
ag11
ag15
aS'if'
p87
ag8
aS'variable_13'
p88
aS'->'
p89
aS'variable_21'
p90
ag46
ag8
aS'variable_12'
p91
ag76
aS'variable_8'
p92
ag11
ag11
aS'if'
p93
ag8
aS'func_8'
p94
ag8
aS'variable_13'
p95
ag19
aS'variable_12'
p96
ag76
aS'variable_8'
p97
ag11
ag11
aS'variable_3'
p98
ag26
aS'func_9'
p99
ag8
aS'variable_13'
p100
ag19
aS'&'
p101
aS'variable_7'
p102
ag11
ag15
aS'variable_4'
p103
ag26
ag8
aS'func_10'
p104
ag8
aS'variable_13'
p105
ag11
ag64
aS'func_11'
p106
ag8
aS'variable_13'
p107
ag11
ag11
ag76
aS'variable_3'
p108
ag76
aS'variable_12'
p109
ag15
aS'variable_6'
p110
ag26
ag8
aS'u8'
p111
ag6
ag11
aS'variable_13'
p112
aS'->'
p113
aS'variable_22'
p114
ag76
aS'func_12'
p115
ag8
aS'variable_13'
p116
ag11
aS'->'
p117
aS'variable_23'
p118
ag15
aS'memmove'
p119
ag8
aS'variable_6'
p120
ag64
aS'variable_8'
p121
ag19
aS'variable_6'
p122
ag19
aS'variable_4'
p123
ag11
ag15
aaa(lp124
I0
aa(lp125
I205
aa(lp126
(lp127
S'main'
p128
aaa(lp129
S'727 /home/SySeVR/data/CVE_2013_4563_PATCHED_udp6_ufo_fragment.c memmove 61'
p130
aa.