(lp0
(lp1
(lp2
S'static'
p3
aS'struct'
p4
aS'variable_0'
p5
aS'*'
p6
aS'func_0'
p7
aS'('
p8
aS'netdev_features_t'
p9
aS'variable_1'
p10
aS')'
p11
aS'unsigned'
p12
aS'int'
p13
aS'variable_2'
p14
aS';'
p15
aS'variable_3'
p16
ag6
aS'variable_4'
p17
aS','
p18
ag6
aS'variable_5'
p19
ag15
aS'u8'
p20
aS'variable_6'
p21
aS'='
p22
aS'sizeof'
p23
ag8
aS'struct'
p24
aS'variable_7'
p25
ag11
ag15
aS'int'
p26
aS'variable_8'
p27
ag15
aS'__wsum'
p28
aS'variable_9'
p29
ag15
aS'int'
p30
aS'variable_10'
p31
ag15
aS'variable_2'
p32
ag22
aS'func_1'
p33
ag8
aS'variable_11'
p34
ag11
aS'->'
p35
aS'variable_12'
p36
ag15
aS'if'
p37
ag8
aS'func_2'
p38
ag8
aS'variable_11'
p39
aS'->'
p40
aS'variable_13'
p41
aS'<'
p42
ag22
aS'variable_2'
p43
ag11
ag11
aS'if'
p44
ag8
aS'func_3'
p45
ag8
aS'variable_11'
p46
ag18
aS'variable_1'
p47
aS'|'
p48
aS'variable_14'
p49
ag11
ag11
aS'variable_8'
p50
ag22
aS'func_4'
p51
ag8
aS'variable_11'
p52
ag11
ag15
aS'variable_9'
p53
ag22
aS'func_5'
p54
ag8
aS'variable_11'
p55
ag18
aS'variable_8'
p56
ag18
aS'variable_11'
p57
aS'->'
p58
aS'variable_13'
p59
aS'-'
p60
aS'variable_8'
p61
ag18
aS'0'
p62
ag11
ag15
aS'variable_8'
p63
aS'+='
p64
aS'variable_11'
p65
aS'->'
p66
aS'variable_15'
p67
ag15
ag6
ag8
aS'__sum16'
p68
ag6
ag11
ag8
aS'variable_11'
p69
aS'->'
p70
aS'variable_16'
p71
aS'+'
p72
aS'variable_8'
p73
ag11
ag22
aS'func_6'
p74
ag8
aS'variable_9'
p75
ag11
ag15
aS'variable_11'
p76
aS'->'
p77
aS'variable_17'
p78
ag22
aS'variable_18'
p79
ag15
aS'variable_10'
p80
ag22
aS'func_7'
p81
ag8
aS'variable_11'
p82
ag11
ag15
aS'if'
p83
ag8
aS'variable_11'
p84
aS'->'
p85
aS'variable_19'
p86
ag42
ag8
aS'variable_10'
p87
ag72
aS'variable_6'
p88
ag11
ag11
aS'if'
p89
ag8
aS'func_8'
p90
ag8
aS'variable_11'
p91
ag18
aS'variable_10'
p92
ag72
aS'variable_6'
p93
ag11
ag11
aS'variable_4'
p94
ag22
ag8
aS'u8'
p95
ag6
ag11
aS'variable_11'
p96
aS'->'
p97
aS'variable_20'
p98
ag72
aS'func_9'
p99
ag8
aS'variable_11'
p100
ag11
aS'->'
p101
aS'variable_21'
p102
ag15
aS'memmove'
p103
ag8
aS'variable_4'
p104
ag60
aS'variable_6'
p105
ag18
aS'variable_4'
p106
ag18
aS'variable_22'
p107
ag11
ag15
aa(lp108
S'static'
p109
aS'struct'
p110
aS'variable_0'
p111
ag6
aS'func_0'
p112
ag8
aS'netdev_features_t'
p113
aS'variable_1'
p114
ag11
aS'unsigned'
p115
aS'int'
p116
aS'variable_2'
p117
ag15
aS'unsigned'
p118
aS'int'
p119
aS'variable_3'
p120
ag18
aS'variable_4'
p121
ag15
aS'u8'
p122
aS'variable_5'
p123
ag22
aS'sizeof'
p124
ag8
aS'struct'
p125
aS'variable_6'
p126
ag11
ag15
aS'int'
p127
aS'variable_7'
p128
ag15
aS'__wsum'
p129
aS'variable_8'
p130
ag15
aS'int'
p131
aS'variable_9'
p132
ag15
aS'variable_2'
p133
ag22
aS'func_1'
p134
ag8
aS'variable_10'
p135
ag11
aS'->'
p136
aS'variable_11'
p137
ag15
aS'if'
p138
ag8
aS'func_2'
p139
ag8
aS'variable_10'
p140
aS'->'
p141
aS'variable_12'
p142
ag42
ag22
aS'variable_2'
p143
ag11
ag11
aS'if'
p144
ag8
aS'func_3'
p145
ag8
aS'variable_10'
p146
ag18
aS'variable_1'
p147
ag48
aS'variable_13'
p148
ag11
ag11
aS'variable_7'
p149
ag22
aS'func_4'
p150
ag8
aS'variable_10'
p151
ag11
ag15
aS'variable_8'
p152
ag22
aS'func_5'
p153
ag8
aS'variable_10'
p154
ag18
aS'variable_7'
p155
ag18
aS'variable_10'
p156
aS'->'
p157
aS'variable_12'
p158
ag60
aS'variable_7'
p159
ag18
ag62
ag11
ag15
aS'variable_7'
p160
aS'+='
p161
aS'variable_10'
p162
aS'->'
p163
aS'variable_14'
p164
ag15
ag6
ag8
aS'__sum16'
p165
ag6
ag11
ag8
aS'variable_10'
p166
aS'->'
p167
aS'variable_15'
p168
ag72
aS'variable_7'
p169
ag11
ag22
aS'func_6'
p170
ag8
aS'variable_8'
p171
ag11
ag15
aS'variable_10'
p172
aS'->'
p173
aS'variable_16'
p174
ag22
aS'variable_17'
p175
ag15
aS'variable_9'
p176
ag22
aS'func_7'
p177
ag8
aS'variable_10'
p178
ag11
ag15
aS'if'
p179
ag8
aS'variable_10'
p180
aS'->'
p181
aS'variable_18'
p182
ag42
ag8
aS'variable_9'
p183
ag72
aS'variable_5'
p184
ag11
ag11
aS'if'
p185
ag8
aS'func_8'
p186
ag8
aS'variable_10'
p187
ag18
aS'variable_9'
p188
ag72
aS'variable_5'
p189
ag11
ag11
aS'variable_3'
p190
ag22
aS'func_9'
p191
ag8
aS'variable_10'
p192
ag18
aS'&'
p193
aS'variable_19'
p194
ag11
ag15
aS'variable_4'
p195
ag22
ag8
aS'func_10'
p196
ag8
aS'variable_10'
p197
ag11
ag60
aS'func_11'
p198
ag8
aS'variable_10'
p199
ag11
ag11
ag72
aS'variable_3'
p200
ag72
aS'variable_9'
p201
ag15
aS'memmove'
p202
ag8
aS'variable_20'
p203
ag60
aS'variable_5'
p204
ag18
aS'variable_20'
p205
ag18
aS'variable_4'
p206
ag11
ag15
aa(lp207
S'static'
p208
aS'struct'
p209
aS'variable_0'
p210
ag6
aS'func_0'
p211
ag8
aS'netdev_features_t'
p212
aS'variable_1'
p213
ag11
aS'unsigned'
p214
aS'int'
p215
aS'variable_2'
p216
ag15
aS'int'
p217
aS'variable_3'
p218
ag15
aS'__wsum'
p219
aS'variable_4'
p220
ag15
aS'variable_2'
p221
ag22
aS'func_1'
p222
ag8
aS'variable_5'
p223
ag11
aS'->'
p224
aS'variable_6'
p225
ag15
aS'if'
p226
ag8
aS'func_2'
p227
ag8
aS'variable_5'
p228
aS'->'
p229
aS'variable_7'
p230
ag42
ag22
aS'variable_2'
p231
ag11
ag11
aS'if'
p232
ag8
aS'func_3'
p233
ag8
aS'variable_5'
p234
ag18
aS'variable_1'
p235
ag48
aS'variable_8'
p236
ag11
ag11
aS'variable_3'
p237
ag22
aS'func_4'
p238
ag8
aS'variable_5'
p239
ag11
ag15
aS'variable_4'
p240
ag22
aS'func_5'
p241
ag8
aS'variable_5'
p242
ag18
aS'variable_3'
p243
ag18
aS'variable_5'
p244
aS'->'
p245
aS'variable_7'
p246
ag60
aS'variable_3'
p247
ag18
ag62
ag11
ag15
ag6
ag8
aS'__sum16'
p248
ag6
ag11
ag8
aS'variable_5'
p249
aS'->'
p250
aS'variable_9'
p251
ag72
aS'variable_3'
p252
ag11
ag22
aS'func_6'
p253
ag8
aS'variable_4'
p254
ag11
ag15
aS'variable_5'
p255
aS'->'
p256
aS'variable_10'
p257
ag22
aS'variable_11'
p258
ag15
aS'variable_12'
p259
ag22
aS'func_7'
p260
ag8
aS'variable_5'
p261
ag11
ag15
aS'if'
p262
ag8
aS'variable_5'
p263
aS'->'
p264
aS'variable_13'
p265
ag42
ag8
aS'variable_12'
p266
ag72
aS'variable_14'
p267
ag11
ag11
aS'if'
p268
ag8
aS'func_8'
p269
ag8
aS'variable_5'
p270
ag18
aS'variable_12'
p271
ag72
aS'variable_14'
p272
ag11
ag11
aS'variable_15'
p273
ag22
aS'func_9'
p274
ag8
aS'variable_5'
p275
ag18
ag193
aS'variable_16'
p276
ag11
ag15
aS'variable_17'
p277
ag22
ag8
aS'func_10'
p278
ag8
aS'variable_5'
p279
ag11
ag60
aS'func_11'
p280
ag8
aS'variable_5'
p281
ag11
ag11
ag72
aS'variable_15'
p282
ag72
aS'variable_12'
p283
ag15
aS'variable_18'
p284
ag22
ag8
aS'u8'
p285
ag6
ag11
aS'variable_5'
p286
aS'->'
p287
aS'variable_19'
p288
ag72
aS'func_12'
p289
ag8
aS'variable_5'
p290
ag11
aS'->'
p291
aS'variable_20'
p292
ag15
aS'memmove'
p293
ag8
aS'variable_18'
p294
ag60
aS'variable_14'
p295
ag18
aS'variable_18'
p296
ag18
aS'variable_17'
p297
ag11
ag15
aS'func_13'
p298
ag8
aS'variable_5'
p299
ag11
aS'->'
p300
aS'variable_20'
p301
aS'-='
p302
aS'variable_14'
p303
ag15
aS'variable_5'
p304
aS'->'
p305
aS'variable_13'
p306
aS'-='
p307
aS'variable_14'
p308
ag15
aS'variable_5'
p309
aS'->'
p310
aS'variable_21'
p311
aS'-='
p312
aS'variable_14'
p313
ag15
aS'variable_22'
p314
ag22
ag8
aS'struct'
p315
aS'frag_hdr'
p316
ag6
ag11
ag8
aS'func_14'
p317
ag8
aS'variable_5'
p318
ag11
ag72
aS'variable_15'
p319
ag11
ag15
aS'variable_22'
p320
aS'->'
p321
aS'variable_23'
p322
ag22
aS'variable_23'
p323
ag15
aS'variable_22'
p324
aS'->'
p325
aS'variable_24'
p326
ag22
ag62
ag15
aS'func_15'
p327
ag8
aS'variable_22'
p328
ag18
ag8
aS'struct'
p329
aS'rt6_info'
p330
ag6
ag11
aS'func_16'
p331
ag8
aS'variable_5'
p332
ag11
ag11
ag15
aS'variable_25'
p333
ag22
aS'func_17'
p334
ag8
aS'variable_5'
p335
ag18
aS'variable_1'
p336
ag11
ag15
aS'return'
p337
aS'variable_25'
p338
ag15
aaa(lp339
I0
aI0
aI0
aa(lp340
I169
aI179
aI73
aa(lp341
(lp342
S'main'
p343
aa(lp344
g343
aa(lp345
g343
aaa(lp346
S'527 /home/SySeVR/data/CVE_2013_4563_PATCHED_udp6_ufo_fragment.c packet_start = ( u8 * ) skb -> head + SKB_GSO_CB ( skb ) -> mac_offset 60'
p347
aS'528 /home/SySeVR/data/CVE_2013_4563_PATCHED_udp6_ufo_fragment.c unfrag_len = ( skb_network_header ( skb ) - skb_mac_header ( skb ) ) + unfrag_ip6hlen + tnl_hlen 58'
p348
aS'529 /home/SySeVR/data/CVE_2013_4563_PATCHED_udp6_ufo_fragment.c csum = skb_checksum ( skb , offset , skb -> len - offset , 0 ) 40'
p349
aa.