(lp0
(lp1
(lp2
S'func_0'
p3
aS'('
p4
aS'struct'
p5
aS'variable_0'
p6
aS'*'
p7
aS'variable_1'
p8
aS','
p9
aS'char'
p10
ag7
aS'variable_2'
p11
ag9
aS'const'
p12
aS'char'
p13
ag7
aS'variable_3'
p14
aS')'
p15
aS'int'
p16
aS'variable_4'
p17
aS';'
p18
aS'int'
p19
aS'variable_5'
p20
ag18
aS'struct'
p21
aS'variable_6'
p22
ag7
aS'variable_7'
p23
ag18
aS'struct'
p24
aS'variable_8'
p25
ag7
aS'variable_9'
p26
ag18
aS'struct'
p27
aS'variable_10'
p28
ag7
aS'variable_11'
p29
ag18
aS'struct'
p30
aS'variable_12'
p31
ag7
aS'variable_13'
p32
ag18
aS'char'
p33
ag7
aS'variable_14'
p34
ag18
aS'char'
p35
ag7
aS'variable_15'
p36
aS'='
p37
aS'variable_2'
p38
ag18
aS'struct'
p39
aS'variable_16'
p40
ag7
aS'variable_17'
p41
ag18
aS'struct'
p42
aS'variable_18'
p43
ag7
aS'variable_19'
p44
ag37
aS'NULL'
p45
ag18
aS'unsigned'
p46
aS'int'
p47
aS'variable_20'
p48
ag37
aS'0'
p49
ag18
aS'int'
p50
aS'variable_21'
p51
ag37
ag49
ag18
aS'variable_4'
p52
ag37
ag49
ag18
aS'variable_11'
p53
ag37
aS'NULL'
p54
ag18
aS'variable_9'
p55
ag37
aS'NULL'
p56
ag18
aS'variable_13'
p57
ag37
aS'NULL'
p58
ag18
aS'variable_14'
p59
ag37
aS'NULL'
p60
ag18
aS'variable_17'
p61
ag37
aS'NULL'
p62
ag18
aS'variable_5'
p63
ag37
aS'func_1'
p64
ag4
ag15
ag18
aS'variable_7'
p65
ag37
aS'func_2'
p66
ag4
aS'sizeof'
p67
ag4
aS'struct'
p68
aS'variable_6'
p69
ag15
ag9
aS'variable_22'
p70
ag15
ag18
aS'if'
p71
ag4
aS'!'
p72
aS'variable_7'
p73
ag15
aS'if'
p74
ag4
aS'func_3'
p75
ag4
aS'variable_15'
p76
ag9
aS'variable_3'
p77
ag9
aS'variable_7'
p78
ag15
ag15
aS'if'
p79
ag4
aS'variable_7'
p80
aS'->'
p81
aS'variable_23'
p82
ag15
aS'variable_7'
p83
aS'->'
p84
aS'variable_24'
p85
ag37
aS'"'
p86
ag86
ag18
aS'if'
p87
ag4
aS'variable_7'
p88
aS'->'
p89
aS'variable_24'
p90
ag15
aS'if'
p91
ag4
aS'variable_7'
p92
aS'->'
p93
aS'variable_25'
p94
aS'=='
p95
aS'NULL'
p96
ag15
aS'variable_7'
p97
aS'->'
p98
aS'variable_26'
p99
ag37
aS'func_4'
p100
ag4
ag15
ag18
aS'variable_7'
p101
aS'->'
p102
aS'variable_26'
p103
ag37
aS'func_5'
p104
ag4
aS'variable_7'
p105
aS'->'
p106
aS'variable_25'
p107
ag15
ag18
aS'if'
p108
ag4
aS'variable_7'
p109
aS'->'
p110
aS'variable_26'
p111
aS'=='
p112
aS'NULL'
p113
ag15
aS'variable_27'
p114
aS'->'
p115
aS'variable_26'
p116
ag37
aS'variable_7'
p117
aS'->'
p118
aS'variable_26'
p119
ag18
aS'variable_13'
p120
ag37
aS'func_6'
p121
ag4
aS'variable_7'
p122
ag15
ag18
aS'if'
p123
ag4
aS'func_7'
p124
ag4
aS'variable_13'
p125
ag15
ag15
aS'variable_9'
p126
ag37
aS'func_8'
p127
ag4
aS'variable_13'
p128
ag9
aS'variable_7'
p129
ag15
ag18
aS'if'
p130
ag4
aS'func_9'
p131
ag4
aS'variable_9'
p132
ag15
ag15
aS'variable_11'
p133
ag37
aS'func_10'
p134
ag4
aS'variable_9'
p135
ag9
aS'variable_7'
p136
ag15
ag18
aS'if'
p137
ag4
aS'func_11'
p138
ag4
aS'variable_11'
p139
ag15
ag15
aS'variable_4'
p140
ag37
aS'func_12'
p141
ag4
aS'variable_11'
p142
ag15
ag18
aS'variable_11'
p143
ag37
aS'NULL'
p144
ag18
aS'if'
p145
ag4
aS'variable_11'
p146
aS'->'
p147
aS'variable_28'
p148
aS'->'
p149
aS'variable_29'
p150
aS'&'
p151
aS'variable_30'
p152
ag15
aS'variable_11'
p153
aS'->'
p154
aS'variable_31'
p155
ag37
ag49
ag18
aS'if'
p156
ag4
ag4
aS'variable_11'
p157
aS'->'
p158
aS'variable_31'
p159
aS'=='
p160
ag49
ag15
aS'&&'
p161
ag4
aS'variable_27'
p162
aS'->'
p163
aS'variable_32'
p164
aS'>'
p165
ag4
aS'1024'
p166
ag7
aS'127'
p167
ag15
ag15
ag15
aS'variable_27'
p168
aS'->'
p169
aS'variable_32'
p170
ag37
aS'1024'
p171
ag7
aS'127'
p172
ag18
aS'if'
p173
ag4
ag72
ag4
aS'variable_11'
p174
aS'->'
p175
aS'variable_28'
p176
aS'->'
p177
aS'variable_29'
p178
ag151
aS'variable_33'
p179
ag15
ag15
aS'variable_27'
p180
aS'->'
p181
aS'variable_34'
p182
ag37
aS'min'
p183
ag4
aS'variable_27'
p184
aS'->'
p185
aS'variable_34'
p186
ag9
ag4
aS'variable_11'
p187
aS'->'
p188
aS'variable_28'
p189
aS'->'
p190
aS'variable_35'
p191
aS'->'
p192
aS'variable_36'
p193
aS'-'
p194
aS'variable_37'
p195
ag15
ag15
ag18
aS'if'
p196
ag4
ag72
ag4
aS'variable_11'
p197
aS'->'
p198
aS'variable_28'
p199
aS'->'
p200
aS'variable_29'
p201
ag151
aS'variable_38'
p202
ag15
ag15
aS'variable_27'
p203
aS'->'
p204
aS'variable_32'
p205
ag37
aS'min'
p206
ag4
aS'variable_27'
p207
aS'->'
p208
aS'variable_32'
p209
ag9
ag4
aS'variable_11'
p210
aS'->'
p211
aS'variable_28'
p212
aS'->'
p213
aS'variable_35'
p214
aS'->'
p215
aS'variable_36'
p216
ag194
aS'variable_37'
p217
ag15
ag15
ag18
aS'if'
p218
ag4
ag72
aS'variable_4'
p219
aS'&&'
p220
aS'variable_27'
p221
aS'->'
p222
aS'variable_39'
p223
aS'&&'
p224
aS'variable_11'
p225
ag15
aS'variable_14'
p226
ag37
aS'func_13'
p227
ag4
aS'variable_27'
p228
ag9
aS'variable_11'
p229
ag15
ag18
aS'if'
p230
ag4
aS'variable_14'
p231
aS'=='
p232
aS'NULL'
p233
ag15
aS'variable_4'
p234
ag37
aS'func_14'
p235
ag4
aS'variable_5'
p236
ag9
aS'variable_11'
p237
ag9
aS'variable_27'
p238
ag9
aS'variable_14'
p239
ag15
ag18
aS'if'
p240
ag4
aS'variable_4'
p241
aS'!='
p242
ag49
aS'&&'
p243
aS'variable_4'
p244
aS'!='
p245
ag194
aS'variable_40'
p246
ag15
aS'if'
p247
ag4
aS'variable_4'
p248
aS'=='
p249
ag194
aS'variable_40'
p250
ag15
aS'if'
p251
ag4
aS'variable_21'
p252
ag165
aS'variable_41'
p253
ag15
aS'variable_14'
p254
ag37
aS'func_15'
p255
ag4
aS'variable_7'
p256
ag9
aS'variable_27'
p257
ag15
ag18
aS'if'
p258
ag4
aS'func_16'
p259
ag4
aS'variable_14'
p260
ag15
ag15
aS'variable_4'
p261
ag37
aS'func_17'
p262
ag4
aS'variable_5'
p263
ag9
aS'variable_9'
p264
ag9
aS'variable_14'
p265
aS'+'
p266
aS'1'
p267
ag9
aS'variable_27'
p268
aS'->'
p269
aS'variable_26'
p270
ag9
ag151
aS'variable_20'
p271
ag9
ag151
aS'variable_19'
p272
ag9
aS'variable_27'
p273
aS'->'
p274
aS'variable_42'
p275
ag151
aS'variable_43'
p276
ag15
ag18
aS'if'
p277
ag4
ag72
aS'variable_4'
p278
aS'&&'
p279
aS'variable_20'
p280
ag165
ag49
ag15
aS'variable_15'
p281
ag37
aS'func_18'
p282
ag4
aS'variable_27'
p283
aS'->'
p284
aS'variable_44'
p285
ag9
aS'variable_14'
p286
ag266
ag267
ag9
aS'variable_19'
p287
ag9
ag151
aS'variable_45'
p288
ag15
ag18
aS'if'
p289
ag4
aS'func_19'
p290
ag4
aS'variable_15'
p291
ag15
ag15
aS'variable_21'
p292
aS'++'
p293
ag18
aS'if'
p294
ag4
aS'variable_4'
p295
ag15
aS'variable_17'
p296
ag37
aS'func_20'
p297
ag4
aS'variable_46'
p298
ag7
aS'variable_17'
p299
ag9
aS'variable_22'
p300
ag15
ag18
aS'if'
p301
ag4
aS'variable_17'
p302
aS'=='
p303
aS'NULL'
p304
ag15
aS'variable_17'
p305
aS'->'
p306
aS'variable_47'
p307
ag37
aS'variable_9'
p308
aS'->'
p309
aS'variable_48'
p310
ag18
aS'variable_17'
p311
aS'->'
p312
aS'variable_49'
p313
ag37
aS'variable_11'
p314
ag18
aS'variable_17'
p315
aS'->'
p316
aS'variable_50'
p317
ag37
aS'variable_51'
p318
ag18
aS'func_21'
p319
ag4
aS'variable_52'
p320
ag9
ag151
aS'variable_17'
p321
aS'->'
p322
aS'variable_53'
p323
ag15
ag18
aS'func_22'
p324
ag4
aS'variable_54'
p325
ag9
ag151
aS'variable_17'
p326
aS'->'
p327
aS'variable_53'
p328
ag15
ag18
aS'variable_27'
p329
aS'->'
p330
aS'variable_55'
p331
ag37
aS'variable_17'
p332
ag18
aS'func_23'
p333
ag4
ag151
aS'variable_27'
p334
aS'->'
p335
aS'variable_56'
p336
ag15
ag18
aS'func_24'
p337
ag4
ag151
aS'variable_27'
p338
aS'->'
p339
aS'variable_57'
p340
ag9
aS'variable_17'
p341
ag15
ag18
aS'func_25'
p342
ag4
ag151
aS'variable_27'
p343
aS'->'
p344
aS'variable_56'
p345
ag15
ag18
aS'func_26'
p346
ag4
aS'variable_58'
p347
ag9
ag151
aS'variable_27'
p348
aS'->'
p349
aS'variable_59'
p350
ag9
aS'variable_60'
p351
ag15
ag18
aa(lp352
S'func_0'
p353
ag4
aS'struct'
p354
aS'variable_0'
p355
ag7
aS'variable_1'
p356
ag9
aS'char'
p357
ag7
aS'variable_2'
p358
ag9
aS'const'
p359
aS'char'
p360
ag7
aS'variable_3'
p361
ag15
aS'int'
p362
aS'variable_4'
p363
ag18
aS'int'
p364
aS'variable_5'
p365
ag18
aS'struct'
p366
aS'variable_6'
p367
ag7
aS'variable_7'
p368
ag18
aS'struct'
p369
aS'variable_8'
p370
ag7
aS'variable_9'
p371
ag18
aS'struct'
p372
aS'variable_10'
p373
ag7
aS'variable_11'
p374
ag18
aS'struct'
p375
aS'variable_12'
p376
ag7
aS'variable_13'
p377
ag18
aS'char'
p378
ag7
aS'variable_14'
p379
ag18
aS'char'
p380
ag7
aS'variable_15'
p381
ag37
aS'variable_2'
p382
ag18
aS'struct'
p383
aS'variable_16'
p384
ag7
aS'variable_17'
p385
ag37
aS'NULL'
p386
ag18
aS'unsigned'
p387
aS'int'
p388
aS'variable_18'
p389
ag37
ag49
ag18
aS'int'
p390
aS'variable_19'
p391
ag37
ag49
ag18
aS'variable_4'
p392
ag37
ag49
ag18
aS'variable_11'
p393
ag37
aS'NULL'
p394
ag18
aS'variable_9'
p395
ag37
aS'NULL'
p396
ag18
aS'variable_13'
p397
ag37
aS'NULL'
p398
ag18
aS'variable_14'
p399
ag37
aS'NULL'
p400
ag18
aS'variable_5'
p401
ag37
aS'func_1'
p402
ag4
ag15
ag18
aS'variable_7'
p403
ag37
aS'func_2'
p404
ag4
aS'sizeof'
p405
ag4
aS'struct'
p406
aS'variable_6'
p407
ag15
ag9
aS'variable_20'
p408
ag15
ag18
aS'if'
p409
ag4
ag72
aS'variable_7'
p410
ag15
aS'if'
p411
ag4
aS'func_3'
p412
ag4
aS'variable_15'
p413
ag9
aS'variable_3'
p414
ag9
aS'variable_7'
p415
ag15
ag15
aS'if'
p416
ag4
aS'variable_7'
p417
aS'->'
p418
aS'variable_21'
p419
ag15
aS'variable_7'
p420
aS'->'
p421
aS'variable_22'
p422
ag37
ag86
ag86
ag18
aS'if'
p423
ag4
aS'variable_7'
p424
aS'->'
p425
aS'variable_22'
p426
ag15
aS'if'
p427
ag4
aS'variable_7'
p428
aS'->'
p429
aS'variable_23'
p430
aS'=='
p431
aS'NULL'
p432
ag15
aS'variable_7'
p433
aS'->'
p434
aS'variable_24'
p435
ag37
aS'func_4'
p436
ag4
ag15
ag18
aS'variable_7'
p437
aS'->'
p438
aS'variable_24'
p439
ag37
aS'func_5'
p440
ag4
aS'variable_7'
p441
aS'->'
p442
aS'variable_23'
p443
ag15
ag18
aS'if'
p444
ag4
aS'variable_7'
p445
aS'->'
p446
aS'variable_24'
p447
aS'=='
p448
aS'NULL'
p449
ag15
aS'variable_25'
p450
aS'->'
p451
aS'variable_24'
p452
ag37
aS'variable_7'
p453
aS'->'
p454
aS'variable_24'
p455
ag18
aS'variable_13'
p456
ag37
aS'func_6'
p457
ag4
aS'variable_7'
p458
ag15
ag18
aS'if'
p459
ag4
aS'func_7'
p460
ag4
aS'variable_13'
p461
ag15
ag15
aS'variable_9'
p462
ag37
aS'func_8'
p463
ag4
aS'variable_13'
p464
ag9
aS'variable_7'
p465
ag15
ag18
aS'if'
p466
ag4
aS'func_9'
p467
ag4
aS'variable_9'
p468
ag15
ag15
aS'variable_11'
p469
ag37
aS'func_10'
p470
ag4
aS'variable_9'
p471
ag9
aS'variable_7'
p472
ag15
ag18
aS'if'
p473
ag4
aS'func_11'
p474
ag4
aS'variable_11'
p475
ag15
ag15
aS'variable_4'
p476
ag37
aS'func_12'
p477
ag4
aS'variable_11'
p478
ag15
ag18
aS'variable_11'
p479
ag37
aS'NULL'
p480
ag18
aS'if'
p481
ag4
aS'variable_11'
p482
aS'->'
p483
aS'variable_26'
p484
aS'->'
p485
aS'variable_27'
p486
ag151
aS'variable_28'
p487
ag15
aS'variable_11'
p488
aS'->'
p489
aS'variable_29'
p490
ag37
ag49
ag18
aS'if'
p491
ag4
ag4
aS'variable_11'
p492
aS'->'
p493
aS'variable_29'
p494
aS'=='
p495
ag49
ag15
aS'&&'
p496
ag4
aS'variable_25'
p497
aS'->'
p498
aS'variable_30'
p499
ag165
ag4
aS'1024'
p500
ag7
aS'127'
p501
ag15
ag15
ag15
aS'variable_25'
p502
aS'->'
p503
aS'variable_30'
p504
ag37
aS'1024'
p505
ag7
aS'127'
p506
ag18
aS'if'
p507
ag4
ag72
ag4
aS'variable_11'
p508
aS'->'
p509
aS'variable_26'
p510
aS'->'
p511
aS'variable_27'
p512
ag151
aS'variable_31'
p513
ag15
ag15
aS'variable_25'
p514
aS'->'
p515
aS'variable_32'
p516
ag37
aS'min'
p517
ag4
aS'variable_25'
p518
aS'->'
p519
aS'variable_32'
p520
ag9
ag4
aS'variable_11'
p521
aS'->'
p522
aS'variable_26'
p523
aS'->'
p524
aS'variable_33'
p525
aS'->'
p526
aS'variable_34'
p527
ag194
aS'variable_35'
p528
ag15
ag15
ag18
aS'if'
p529
ag4
ag72
ag4
aS'variable_11'
p530
aS'->'
p531
aS'variable_26'
p532
aS'->'
p533
aS'variable_27'
p534
ag151
aS'variable_36'
p535
ag15
ag15
aS'variable_25'
p536
aS'->'
p537
aS'variable_30'
p538
ag37
aS'min'
p539
ag4
aS'variable_25'
p540
aS'->'
p541
aS'variable_30'
p542
ag9
ag4
aS'variable_11'
p543
aS'->'
p544
aS'variable_26'
p545
aS'->'
p546
aS'variable_33'
p547
aS'->'
p548
aS'variable_34'
p549
ag194
aS'variable_35'
p550
ag15
ag15
ag18
aS'if'
p551
ag4
ag72
aS'variable_4'
p552
aS'&&'
p553
aS'variable_25'
p554
aS'->'
p555
aS'variable_37'
p556
aS'&&'
p557
aS'variable_11'
p558
ag15
aS'variable_14'
p559
ag37
aS'func_13'
p560
ag4
aS'variable_25'
p561
ag9
aS'variable_11'
p562
ag15
ag18
aS'if'
p563
ag4
aS'variable_14'
p564
aS'=='
p565
aS'NULL'
p566
ag15
aS'variable_4'
p567
ag37
aS'func_14'
p568
ag4
aS'variable_5'
p569
ag9
aS'variable_11'
p570
ag9
aS'variable_25'
p571
ag9
aS'variable_14'
p572
ag15
ag18
aS'if'
p573
ag4
aS'variable_4'
p574
aS'!='
p575
ag49
aS'&&'
p576
aS'variable_4'
p577
aS'!='
p578
ag194
aS'variable_38'
p579
ag15
aS'kfree'
p580
ag4
aS'variable_14'
p581
ag15
ag18
aS'kfree'
p582
ag4
aS'variable_14'
p583
ag15
ag18
aS'if'
p584
ag4
aS'variable_4'
p585
aS'=='
p586
ag194
aS'variable_38'
p587
ag15
aS'if'
p588
ag4
aS'variable_19'
p589
ag165
aS'variable_39'
p590
ag15
aS'if'
p591
ag4
ag4
aS'variable_25'
p592
aS'->'
p593
aS'variable_40'
p594
ag151
aS'variable_41'
p595
ag15
aS'=='
p596
ag49
ag15
aS'func_15'
p597
ag4
aS'variable_25'
p598
aS'->'
p599
aS'variable_42'
p600
ag9
aS'func_16'
p601
ag4
aS'variable_25'
p602
ag15
ag15
ag18
aS'variable_14'
p603
ag37
aS'func_17'
p604
ag4
aS'variable_7'
p605
ag9
aS'variable_25'
p606
ag15
ag18
aS'if'
p607
ag4
aS'func_18'
p608
ag4
aS'variable_14'
p609
ag15
ag15
aS'variable_4'
p610
ag37
aS'func_19'
p611
ag4
aS'variable_14'
p612
ag15
ag18
aS'func_20'
p613
ag4
ag267
ag9
ag86
aS'Getting'
p614
aS'referral'
p615
aS'for'
p616
aS':'
p617
aS'%'
p618
aS's'
p619
ag86
ag9
aS'variable_14'
p620
ag15
ag18
aS'variable_4'
p621
ag37
aS'func_21'
p622
ag4
aS'variable_5'
p623
ag9
aS'variable_9'
p624
ag9
aS'variable_14'
p625
ag266
ag267
ag9
aS'variable_25'
p626
aS'->'
p627
aS'variable_24'
p628
ag9
ag151
aS'variable_18'
p629
ag9
ag151
aS'variable_17'
p630
ag9
aS'variable_25'
p631
aS'->'
p632
aS'variable_40'
p633
ag151
aS'variable_43'
p634
ag15
ag18
aS'if'
p635
ag4
ag72
aS'variable_4'
p636
aS'&&'
p637
aS'variable_18'
p638
ag165
ag49
ag15
aS'if'
p639
ag4
aS'variable_15'
p640
aS'!='
p641
aS'variable_2'
p642
ag15
aS'kfree'
p643
ag4
aS'variable_15'
p644
ag15
ag18
aS'variable_15'
p645
ag37
aS'func_22'
p646
ag4
aS'variable_25'
p647
aS'->'
p648
aS'variable_44'
p649
ag9
aS'variable_14'
p650
ag266
ag267
ag9
aS'variable_17'
p651
ag9
ag151
aS'variable_45'
p652
ag15
ag18
aS'kfree'
p653
ag4
aS'variable_14'
p654
ag15
ag18
aS'if'
p655
ag4
aS'func_23'
p656
ag4
aS'variable_15'
p657
ag15
ag15
aS'variable_4'
p658
ag37
aS'func_24'
p659
ag4
aS'variable_15'
p660
ag15
ag18
aS'variable_19'
p661
aS'++'
p662
ag18
aS'if'
p663
ag4
aS'variable_4'
p664
ag15
aS'variable_25'
p665
aS'->'
p666
aS'variable_46'
p667
ag37
aS'variable_47'
p668
ag18
aS'func_25'
p669
ag4
ag151
aS'variable_25'
p670
aS'->'
p671
aS'variable_48'
p672
ag15
ag18
aS'func_26'
p673
ag4
ag151
aS'variable_25'
p674
aS'->'
p675
aS'variable_49'
p676
ag9
aS'variable_47'
p677
ag15
ag18
aS'func_27'
p678
ag4
ag151
aS'variable_25'
p679
aS'->'
p680
aS'variable_48'
p681
ag15
ag18
aS'func_28'
p682
ag4
aS'variable_50'
p683
ag9
ag151
aS'variable_25'
p684
aS'->'
p685
aS'variable_51'
p686
ag9
aS'variable_52'
p687
ag15
ag18
aS'if'
p688
ag4
aS'variable_4'
p689
ag15
aS'if'
p690
ag4
aS'variable_15'
p691
aS'!='
p692
aS'variable_2'
p693
ag15
aS'kfree'
p694
ag4
aS'variable_15'
p695
ag15
ag18
aS'return'
p696
aS'variable_4'
p697
ag18
aaa(lp698
I1
aI1
aa(lp699
I530
aI360
aa(lp700
(lp701
S'main'
p702
aa(lp703
g702
aaa(lp704
S'250 /home/SySeVR/data/CVE_2011_3363_VULN_cifs_mount.c tlink = kzalloc ( sizeof * tlink , GFP_KERNEL ) 213'
p705
aS'251 /home/SySeVR/data/CVE_2011_3363_VULN_cifs_mount.c cifs_sb -> rsize = min ( cifs_sb -> rsize , ( tcon -> ses -> server -> maxBuf - MAX_CIFS_HDR_SIZE ) ) 127'
p706
aa.