(lp0
(lp1
(lp2
S'static'
p3
aS'int'
p4
aS'func_0'
p5
aS'('
p6
aS'struct'
p7
aS'variable_0'
p8
aS'*'
p9
aS'variable_1'
p10
aS','
p11
aS'void'
p12
aS'variable_2'
p13
ag9
aS'variable_3'
p14
aS')'
p15
aS'struct'
p16
aS'variable_4'
p17
ag9
aS'variable_5'
p18
aS';'
p19
aS'struct'
p20
aS'user_aac_srb'
p21
aS'variable_2'
p22
ag9
aS'variable_6'
p23
aS'='
p24
aS'variable_3'
p25
ag19
aS'u32'
p26
aS'variable_7'
p27
ag24
aS'0'
p28
ag19
aS'u32'
p29
aS'variable_8'
p30
ag19
aS'void'
p31
ag9
aS'variable_9'
p32
aS'['
p33
aS'32'
p34
aS']'
p35
ag19
aS'if'
p36
ag6
aS'variable_1'
p37
aS'->'
p38
aS'variable_10'
p39
ag15
aS'if'
p40
ag6
aS'!'
p41
aS'func_1'
p42
ag6
aS'variable_11'
p43
ag15
ag15
aS'if'
p44
ag6
ag41
ag6
aS'variable_5'
p45
ag24
aS'func_2'
p46
ag6
aS'variable_1'
p47
ag15
ag15
ag15
aS'memset'
p48
ag6
aS'variable_9'
p49
ag11
ag28
ag11
aS'sizeof'
p50
ag6
aS'variable_9'
p51
ag15
ag15
ag19
aS'if'
p52
ag6
aS'func_3'
p53
ag6
aS'&'
p54
aS'variable_7'
p55
ag11
ag54
aS'variable_6'
p56
aS'->'
p57
aS'variable_12'
p58
ag11
aS'sizeof'
p59
ag6
aS'variable_13'
p60
ag15
ag15
ag15
aS'if'
p61
ag6
aS'variable_7'
p62
aS'>'
p63
ag6
aS'variable_1'
p64
aS'->'
p65
aS'variable_14'
p66
aS'-'
p67
aS'sizeof'
p68
ag6
aS'struct'
p69
aS'variable_15'
p70
ag15
ag15
ag15
aS'variable_16'
p71
ag24
aS'kmalloc'
p72
ag6
aS'variable_7'
p73
ag11
aS'variable_17'
p74
ag15
ag19
aS'if'
p75
ag6
ag41
aS'variable_16'
p76
ag15
aS'if'
p77
ag6
aS'func_4'
p78
ag6
aS'variable_16'
p79
ag11
aS'variable_6'
p80
ag11
aS'variable_7'
p81
ag15
ag15
aS'variable_18'
p82
ag24
aS'variable_16'
p83
aS'->'
p84
aS'variable_18'
p85
ag19
aS'switch'
p86
ag6
aS'variable_18'
p87
ag54
ag6
aS'variable_19'
p88
aS'|'
p89
aS'variable_20'
p90
ag15
ag15
aS'variable_8'
p91
ag24
aS'variable_21'
p92
ag19
aS'variable_8'
p93
ag24
aS'variable_22'
p94
ag19
aS'variable_8'
p95
ag24
aS'variable_23'
p96
ag19
aS'variable_8'
p97
ag24
aS'variable_24'
p98
ag19
aS'if'
p99
ag6
aS'variable_16'
p100
aS'->'
p101
aS'variable_25'
p102
aS'.'
p103
aS'variable_12'
p104
ag63
aS'func_5'
p105
ag6
aS'variable_9'
p106
ag15
ag15
aS'variable_26'
p107
ag24
aS'sizeof'
p108
ag6
aS'struct'
p109
aS'variable_27'
p110
ag15
ag67
aS'sizeof'
p111
ag6
aS'struct'
p112
aS'variable_28'
p113
ag15
aS'+'
p114
ag6
ag6
aS'variable_16'
p115
aS'->'
p116
aS'variable_25'
p117
ag103
aS'variable_12'
p118
ag54
aS'0xff'
p119
ag15
ag9
aS'sizeof'
p120
ag6
aS'struct'
p121
aS'variable_28'
p122
ag15
ag15
ag19
aS'variable_29'
p123
ag24
aS'variable_26'
p124
ag114
ag6
aS'variable_16'
p125
aS'->'
p126
aS'variable_25'
p127
ag103
aS'variable_12'
p128
ag54
aS'0xff'
p129
ag15
ag9
ag6
aS'sizeof'
p130
ag6
aS'struct'
p131
aS'variable_30'
p132
ag15
ag67
aS'sizeof'
p133
ag6
aS'struct'
p134
aS'variable_28'
p135
ag15
ag15
ag19
aS'if'
p136
ag6
ag6
aS'variable_26'
p137
aS'!='
p138
aS'variable_7'
p139
ag15
aS'&&'
p140
ag6
aS'variable_29'
p141
aS'!='
p142
aS'variable_7'
p143
ag15
ag15
aS'if'
p144
ag6
ag6
aS'variable_8'
p145
aS'=='
p146
aS'variable_24'
p147
ag15
aS'&&'
p148
aS'variable_16'
p149
aS'->'
p150
aS'variable_25'
p151
ag103
aS'variable_12'
p152
ag15
aS'if'
p153
ag6
aS'variable_1'
p154
aS'->'
p155
aS'variable_31'
p156
ag103
aS'variable_32'
p157
ag54
aS'variable_33'
p158
ag15
aS'struct'
p159
aS'variable_34'
p160
ag9
aS'variable_35'
p161
ag24
ag6
aS'struct'
p162
aS'user_sgmap64'
p163
ag9
ag15
ag54
aS'variable_16'
p164
aS'->'
p165
aS'variable_25'
p166
ag19
aS'if'
p167
ag6
aS'variable_29'
p168
aS'=='
p169
aS'variable_7'
p170
ag15
aS'struct'
p171
aS'variable_36'
p172
ag9
aS'variable_37'
p173
ag19
aS'variable_37'
p174
ag24
aS'kmalloc'
p175
ag6
aS'variable_26'
p176
ag67
aS'sizeof'
p177
ag6
aS'struct'
p178
aS'variable_27'
p179
ag15
ag114
aS'sizeof'
p180
ag6
aS'struct'
p181
aS'variable_38'
p182
ag15
ag11
aS'variable_17'
p183
ag15
ag19
aS'if'
p184
ag6
ag41
aS'variable_37'
p185
ag15
aS'memcpy'
p186
ag6
aS'variable_37'
p187
ag11
aS'variable_35'
p188
ag11
aS'variable_26'
p189
ag67
aS'sizeof'
p190
ag6
aS'struct'
p191
aS'variable_27'
p192
ag15
ag114
aS'sizeof'
p193
ag6
aS'struct'
p194
aS'variable_38'
p195
ag15
ag15
ag19
aS'for'
p196
ag6
aS'variable_39'
p197
ag24
ag28
ag19
aS'variable_39'
p198
aS'<'
p199
aS'variable_37'
p200
aS'->'
p201
aS'variable_12'
p202
ag19
aS'variable_39'
p203
aS'++'
p204
ag15
aS'if'
p205
ag6
aS'variable_37'
p206
aS'->'
p207
aS'variable_25'
p208
ag33
aS'variable_39'
p209
ag35
ag103
aS'variable_12'
p210
ag63
ag6
ag6
aS'variable_1'
p211
aS'->'
p212
aS'variable_31'
p213
ag103
aS'variable_32'
p214
ag54
aS'variable_40'
p215
ag15
aS'?'
p216
ag6
aS'variable_1'
p217
aS'->'
p218
aS'variable_41'
p219
aS'->'
p220
aS'variable_42'
p221
aS'<<'
p222
aS'9'
p223
ag15
aS':'
p224
aS'65536'
p225
ag15
ag15
aS'kfree'
p226
ag6
aS'variable_37'
p227
ag15
ag19
aS'variable_43'
p228
ag24
aS'kmalloc'
p229
ag6
aS'variable_37'
p230
aS'->'
p231
aS'variable_25'
p232
ag33
aS'variable_39'
p233
ag35
ag103
aS'variable_12'
p234
ag11
aS'variable_17'
p235
ag89
aS'variable_44'
p236
ag15
ag19
aS'if'
p237
ag6
ag41
aS'variable_43'
p238
ag15
aS'func_6'
p239
ag6
ag6
aS'variable_45'
p240
aS'"'
p241
aS'aacraid'
p242
ag224
aS'Could'
p243
aS'not'
p244
aS'allocate'
p245
aS'SG'
p246
aS'buffer'
p247
ag67
aS'size'
p248
ag24
aS'%'
p249
aS'd'
p250
aS'buffer'
p251
aS'number'
p252
ag249
ag250
aS'of'
p253
ag249
ag250
aS'\\'
p254
aS'n'
p255
ag241
aS'variable_37'
p256
aS'->'
p257
aS'variable_25'
p258
ag33
aS'variable_39'
p259
ag35
ag103
aS'variable_12'
p260
ag11
aS'variable_39'
p261
ag11
aS'variable_37'
p262
aS'->'
p263
aS'variable_12'
p264
ag15
ag15
aS'kfree'
p265
ag6
aS'variable_37'
p266
ag15
ag19
aS'variable_46'
p267
ag33
aS'variable_39'
p268
ag35
ag24
ag6
aS'void'
p269
aS'__user'
p270
ag9
ag15
ag6
aS'variable_47'
p271
ag15
aS'variable_37'
p272
aS'->'
p273
aS'variable_25'
p274
ag33
aS'variable_39'
p275
ag35
ag103
aS'variable_48'
p276
ag19
aS'variable_9'
p277
ag33
aS'variable_39'
p278
ag35
ag24
aS'variable_43'
p279
ag19
aS'variable_49'
p280
ag24
aS'variable_39'
p281
ag19
aS'if'
p282
ag6
aS'func_7'
p283
ag6
aS'variable_43'
p284
ag11
aS'variable_46'
p285
ag33
aS'variable_39'
p286
ag35
ag11
aS'variable_35'
p287
aS'->'
p288
aS'variable_25'
p289
ag33
aS'variable_39'
p290
ag35
ag103
aS'variable_12'
p291
ag15
ag15
aS'kfree'
p292
ag6
aS'variable_37'
p293
ag15
ag19
aS'variable_48'
p294
ag24
aS'func_8'
p295
ag6
aS'variable_1'
p296
aS'->'
p297
aS'variable_50'
p298
ag11
aS'variable_43'
p299
ag11
aS'variable_37'
p300
aS'->'
p301
aS'variable_25'
p302
ag33
aS'variable_39'
p303
ag35
ag103
aS'variable_12'
p304
ag11
aS'variable_8'
p305
ag15
ag19
aS'variable_51'
p306
aS'->'
p307
aS'variable_25'
p308
ag33
aS'variable_39'
p309
ag35
ag103
aS'variable_48'
p310
ag33
ag28
ag35
ag24
aS'func_9'
p311
ag6
aS'variable_48'
p312
ag54
aS'0xffffffff'
p313
ag15
ag19
aS'variable_51'
p314
aS'->'
p315
aS'variable_25'
p316
ag33
aS'variable_39'
p317
ag35
ag103
aS'variable_48'
p318
ag33
aS'1'
p319
ag35
ag24
aS'func_10'
p320
ag6
aS'variable_48'
p321
aS'>>'
p322
aS'32'
p323
ag15
ag19
aS'variable_52'
p324
aS'+='
p325
aS'variable_37'
p326
aS'->'
p327
aS'variable_25'
p328
ag33
aS'variable_39'
p329
ag35
ag103
aS'variable_12'
p330
ag19
aS'variable_51'
p331
aS'->'
p332
aS'variable_25'
p333
ag33
aS'variable_39'
p334
ag35
ag103
aS'variable_12'
p335
ag24
aS'func_11'
p336
ag6
aS'variable_37'
p337
aS'->'
p338
aS'variable_25'
p339
ag33
aS'variable_39'
p340
ag35
ag103
aS'variable_12'
p341
ag15
ag19
aS'kfree'
p342
ag6
aS'variable_37'
p343
ag15
ag19
aS'variable_53'
p344
aS'->'
p345
aS'variable_12'
p346
ag24
aS'func_12'
p347
ag6
aS'variable_52'
p348
ag15
ag19
aS'variable_51'
p349
aS'->'
p350
aS'variable_12'
p351
ag24
aS'func_13'
p352
ag6
aS'variable_49'
p353
ag114
ag319
ag15
ag19
aS'func_14'
p354
ag6
ag6
aS'variable_45'
p355
ag241
aS'aacraid'
p356
ag224
aS'Could'
p357
aS'not'
p358
aS'send'
p359
aS'raw'
p360
aS'srb'
p361
aS'fib'
p362
aS'to'
p363
aS'hba'
p364
ag254
ag255
ag241
ag15
ag15
aS'for'
p365
ag6
aS'variable_39'
p366
ag24
ag28
ag19
aS'variable_39'
p367
ag199
ag24
aS'variable_49'
p368
ag19
aS'variable_39'
p369
aS'++'
p370
ag15
aS'variable_52'
p371
ag24
aS'func_15'
p372
ag6
ag6
aS'variable_1'
p373
aS'->'
p374
aS'variable_31'
p375
ag103
aS'variable_32'
p376
ag54
aS'variable_33'
p377
ag15
ag216
ag6
ag6
aS'struct'
p378
aS'sgmap64'
p379
ag9
ag15
ag54
aS'variable_53'
p380
aS'->'
p381
aS'variable_25'
p382
ag15
aS'->'
p383
aS'variable_25'
p384
ag33
aS'variable_39'
p385
ag35
ag103
aS'variable_12'
p386
ag224
aS'variable_53'
p387
aS'->'
p388
aS'variable_25'
p389
ag103
aS'variable_25'
p390
ag33
aS'variable_39'
p391
ag35
ag103
aS'variable_12'
p392
ag15
ag19
aS'if'
p393
ag6
aS'func_16'
p394
ag6
aS'variable_46'
p395
ag33
aS'variable_39'
p396
ag35
ag11
aS'variable_9'
p397
ag33
aS'variable_39'
p398
ag35
ag11
aS'variable_52'
p399
ag15
ag15
aS'func_17'
p400
ag6
ag6
aS'variable_45'
p401
ag241
aS'aacraid'
p402
ag224
aS'Could'
p403
aS'not'
p404
aS'copy'
p405
aS'sg'
p406
aS'data'
p407
aS'to'
p408
aS'user'
p409
ag254
ag255
ag241
ag15
ag15
aS'func_18'
p410
ag6
ag6
aS'variable_45'
p411
ag241
aS'aacraid'
p412
ag224
aS'Could'
p413
aS'not'
p414
aS'copy'
p415
aS'reply'
p416
aS'to'
p417
aS'user'
p418
ag254
ag255
ag241
ag15
ag15
aS'for'
p419
ag6
aS'variable_39'
p420
ag24
ag28
ag19
aS'variable_39'
p421
ag199
ag24
aS'variable_49'
p422
ag19
aS'variable_39'
p423
aS'++'
p424
ag15
aS'kfree'
p425
ag6
aS'variable_9'
p426
ag33
aS'variable_39'
p427
ag35
ag15
ag19
aa(lp428
S'static'
p429
aS'int'
p430
aS'func_0'
p431
ag6
aS'struct'
p432
aS'variable_0'
p433
ag9
aS'variable_1'
p434
ag11
aS'void'
p435
aS'variable_2'
p436
ag9
aS'variable_3'
p437
ag15
aS'struct'
p438
aS'variable_4'
p439
ag9
aS'variable_5'
p440
ag19
aS'struct'
p441
aS'user_aac_srb'
p442
aS'variable_2'
p443
ag9
aS'variable_6'
p444
ag24
aS'variable_3'
p445
ag19
aS'u32'
p446
aS'variable_7'
p447
ag24
ag28
ag19
aS'if'
p448
ag6
aS'variable_1'
p449
aS'->'
p450
aS'variable_8'
p451
ag15
aS'if'
p452
ag6
ag41
aS'func_1'
p453
ag6
aS'variable_9'
p454
ag15
ag15
aS'if'
p455
ag6
ag41
ag6
aS'variable_5'
p456
ag24
aS'func_2'
p457
ag6
aS'variable_1'
p458
ag15
ag15
ag15
aS'variable_5'
p459
aS'->'
p460
aS'variable_10'
p461
aS'->'
p462
aS'variable_11'
p463
ag103
aS'variable_12'
p464
ag54
ag24
aS'~'
p465
aS'func_3'
p466
ag6
aS'variable_13'
p467
ag15
ag19
aS'variable_14'
p468
ag24
ag6
aS'struct'
p469
aS'aac_srb'
p470
ag9
ag15
aS'func_4'
p471
ag6
aS'variable_5'
p472
ag15
ag19
aS'if'
p473
ag6
aS'func_5'
p474
ag6
ag54
aS'variable_7'
p475
ag11
ag54
aS'variable_6'
p476
aS'->'
p477
aS'variable_15'
p478
ag11
aS'sizeof'
p479
ag6
aS'variable_16'
p480
ag15
ag15
ag15
aS'if'
p481
ag6
aS'variable_7'
p482
ag63
ag6
aS'variable_1'
p483
aS'->'
p484
aS'variable_17'
p485
ag67
aS'sizeof'
p486
ag6
aS'struct'
p487
aS'variable_18'
p488
ag15
ag15
ag15
aS'variable_19'
p489
ag24
aS'kmalloc'
p490
ag6
aS'variable_7'
p491
ag11
aS'variable_20'
p492
ag15
ag19
aS'if'
p493
ag6
ag41
aS'variable_19'
p494
ag15
aS'if'
p495
ag6
aS'func_6'
p496
ag6
aS'variable_19'
p497
ag11
aS'variable_6'
p498
ag11
aS'variable_7'
p499
ag15
ag15
aS'variable_21'
p500
ag24
aS'variable_19'
p501
aS'->'
p502
aS'variable_21'
p503
ag19
aS'variable_14'
p504
aS'->'
p505
aS'variable_22'
p506
ag24
aS'func_7'
p507
ag6
aS'variable_23'
p508
ag15
ag19
aS'variable_14'
p509
aS'->'
p510
aS'variable_24'
p511
ag24
aS'func_8'
p512
ag6
aS'variable_19'
p513
aS'->'
p514
aS'variable_24'
p515
ag15
ag19
aS'variable_14'
p516
aS'->'
p517
aS'variable_25'
p518
ag24
aS'func_9'
p519
ag6
aS'variable_19'
p520
aS'->'
p521
aS'variable_25'
p522
ag15
ag19
aS'variable_14'
p523
aS'->'
p524
aS'variable_26'
p525
ag24
aS'func_10'
p526
ag6
aS'variable_19'
p527
aS'->'
p528
aS'variable_26'
p529
ag15
ag19
aS'variable_14'
p530
aS'->'
p531
aS'variable_27'
p532
ag24
aS'func_11'
p533
ag6
aS'variable_19'
p534
aS'->'
p535
aS'variable_27'
p536
ag15
ag19
aS'variable_14'
p537
aS'->'
p538
aS'variable_21'
p539
ag24
aS'func_12'
p540
ag6
aS'variable_21'
p541
ag15
ag19
aS'variable_14'
p542
aS'->'
p543
aS'variable_28'
p544
ag24
ag28
ag19
aS'variable_14'
p545
aS'->'
p546
aS'variable_29'
p547
ag24
aS'func_13'
p548
ag6
aS'variable_19'
p549
aS'->'
p550
aS'variable_29'
p551
ag15
ag19
aS'memcpy'
p552
ag6
aS'variable_14'
p553
aS'->'
p554
aS'variable_30'
p555
ag11
aS'variable_19'
p556
aS'->'
p557
aS'variable_30'
p558
ag11
aS'sizeof'
p559
ag6
aS'variable_14'
p560
aS'->'
p561
aS'variable_30'
p562
ag15
ag15
ag19
aS'func_14'
p563
ag6
ag6
aS'variable_31'
p564
ag241
aS'aacraid'
p565
ag224
aS'too'
p566
aS'many'
p567
aS'sg'
p568
aS'entries'
p569
ag249
ag250
ag254
ag255
ag241
aS'func_15'
p570
ag6
aS'variable_14'
p571
aS'->'
p572
aS'variable_32'
p573
ag103
aS'variable_15'
p574
ag15
ag15
ag15
aaa(lp575
I0
aI0
aa(lp576
I334
aI228
aa(lp577
(lp578
S'main'
p579
aa(lp580
g579
aaa(lp581
S'544 /home/SySeVR/data/CVE_2013_6380_VULN_aac_send_raw_srb.c memcpy 179'
p582
aS'545 /home/SySeVR/data/CVE_2013_6380_VULN_aac_send_raw_srb.c memcpy 79'
p583
aa.