(lp0
(lp1
(lp2
S'static'
p3
aS'int'
p4
aS'func_0'
p5
aS'('
p6
aS'struct'
p7
aS'variable_0'
p8
aS'*'
p9
aS'variable_1'
p10
aS','
p11
aS'void'
p12
aS'variable_2'
p13
ag9
aS'variable_3'
p14
aS')'
p15
aS'struct'
p16
aS'variable_4'
p17
ag9
aS'variable_5'
p18
aS';'
p19
aS'struct'
p20
aS'user_aac_srb'
p21
aS'variable_2'
p22
ag9
aS'variable_6'
p23
aS'='
p24
aS'variable_3'
p25
ag19
aS'u32'
p26
aS'variable_7'
p27
ag24
aS'0'
p28
ag19
aS'u32'
p29
aS'variable_8'
p30
ag19
aS'void'
p31
ag9
aS'variable_9'
p32
aS'['
p33
aS'32'
p34
aS']'
p35
ag19
aS'if'
p36
ag6
aS'variable_1'
p37
aS'->'
p38
aS'variable_10'
p39
ag15
aS'if'
p40
ag6
aS'!'
p41
aS'func_1'
p42
ag6
aS'variable_11'
p43
ag15
ag15
aS'if'
p44
ag6
ag41
ag6
aS'variable_5'
p45
ag24
aS'func_2'
p46
ag6
aS'variable_1'
p47
ag15
ag15
ag15
aS'memset'
p48
ag6
aS'variable_9'
p49
ag11
ag28
ag11
aS'sizeof'
p50
ag6
aS'variable_9'
p51
ag15
ag15
ag19
aS'if'
p52
ag6
aS'func_3'
p53
ag6
aS'&'
p54
aS'variable_7'
p55
ag11
ag54
aS'variable_6'
p56
aS'->'
p57
aS'variable_12'
p58
ag11
aS'sizeof'
p59
ag6
aS'variable_13'
p60
ag15
ag15
ag15
aS'if'
p61
ag6
aS'variable_7'
p62
aS'>'
p63
ag6
aS'variable_1'
p64
aS'->'
p65
aS'variable_14'
p66
aS'-'
p67
aS'sizeof'
p68
ag6
aS'struct'
p69
aS'variable_15'
p70
ag15
ag15
ag15
aS'variable_16'
p71
ag24
aS'kmalloc'
p72
ag6
aS'variable_7'
p73
ag11
aS'variable_17'
p74
ag15
ag19
aS'if'
p75
ag6
ag41
aS'variable_16'
p76
ag15
aS'if'
p77
ag6
aS'func_4'
p78
ag6
aS'variable_16'
p79
ag11
aS'variable_6'
p80
ag11
aS'variable_7'
p81
ag15
ag15
aS'variable_18'
p82
ag24
aS'variable_16'
p83
aS'->'
p84
aS'variable_18'
p85
ag19
aS'switch'
p86
ag6
aS'variable_18'
p87
ag54
ag6
aS'variable_19'
p88
aS'|'
p89
aS'variable_20'
p90
ag15
ag15
aS'variable_8'
p91
ag24
aS'variable_21'
p92
ag19
aS'variable_8'
p93
ag24
aS'variable_22'
p94
ag19
aS'variable_8'
p95
ag24
aS'variable_23'
p96
ag19
aS'variable_8'
p97
ag24
aS'variable_24'
p98
ag19
aS'if'
p99
ag6
aS'variable_16'
p100
aS'->'
p101
aS'variable_25'
p102
aS'.'
p103
aS'variable_12'
p104
ag63
aS'func_5'
p105
ag6
aS'variable_9'
p106
ag15
ag15
aS'variable_26'
p107
ag24
aS'sizeof'
p108
ag6
aS'struct'
p109
aS'variable_27'
p110
ag15
ag67
aS'sizeof'
p111
ag6
aS'struct'
p112
aS'variable_28'
p113
ag15
aS'+'
p114
ag6
ag6
aS'variable_16'
p115
aS'->'
p116
aS'variable_25'
p117
ag103
aS'variable_12'
p118
ag54
aS'0xff'
p119
ag15
ag9
aS'sizeof'
p120
ag6
aS'struct'
p121
aS'variable_28'
p122
ag15
ag15
ag19
aS'variable_29'
p123
ag24
aS'variable_26'
p124
ag114
ag6
aS'variable_16'
p125
aS'->'
p126
aS'variable_25'
p127
ag103
aS'variable_12'
p128
ag54
aS'0xff'
p129
ag15
ag9
ag6
aS'sizeof'
p130
ag6
aS'struct'
p131
aS'variable_30'
p132
ag15
ag67
aS'sizeof'
p133
ag6
aS'struct'
p134
aS'variable_28'
p135
ag15
ag15
ag19
aS'if'
p136
ag6
ag6
aS'variable_26'
p137
aS'!='
p138
aS'variable_7'
p139
ag15
aS'&&'
p140
ag6
aS'variable_29'
p141
aS'!='
p142
aS'variable_7'
p143
ag15
ag15
aS'if'
p144
ag6
ag6
aS'variable_8'
p145
aS'=='
p146
aS'variable_24'
p147
ag15
aS'&&'
p148
aS'variable_16'
p149
aS'->'
p150
aS'variable_25'
p151
ag103
aS'variable_12'
p152
ag15
aS'if'
p153
ag6
aS'variable_1'
p154
aS'->'
p155
aS'variable_31'
p156
ag103
aS'variable_32'
p157
ag54
aS'variable_33'
p158
ag15
aS'if'
p159
ag6
aS'variable_29'
p160
aS'=='
p161
aS'variable_7'
p162
ag15
aS'struct'
p163
aS'variable_34'
p164
ag9
aS'variable_35'
p165
ag19
aS'variable_35'
p166
ag24
aS'kmalloc'
p167
ag6
aS'variable_26'
p168
ag67
aS'sizeof'
p169
ag6
aS'struct'
p170
aS'variable_27'
p171
ag15
ag114
aS'sizeof'
p172
ag6
aS'struct'
p173
aS'variable_36'
p174
ag15
ag11
aS'variable_17'
p175
ag15
ag19
aS'if'
p176
ag6
ag41
aS'variable_35'
p177
ag15
aS'memcpy'
p178
ag6
aS'variable_35'
p179
ag11
aS'variable_37'
p180
ag11
aS'variable_26'
p181
ag67
aS'sizeof'
p182
ag6
aS'struct'
p183
aS'variable_27'
p184
ag15
ag114
aS'sizeof'
p185
ag6
aS'struct'
p186
aS'variable_36'
p187
ag15
ag15
ag19
aS'for'
p188
ag6
aS'variable_38'
p189
ag24
ag28
ag19
aS'variable_38'
p190
aS'<'
p191
aS'variable_35'
p192
aS'->'
p193
aS'variable_12'
p194
ag19
aS'variable_38'
p195
aS'++'
p196
ag15
aS'if'
p197
ag6
aS'variable_35'
p198
aS'->'
p199
aS'variable_25'
p200
ag33
aS'variable_38'
p201
ag35
ag103
aS'variable_12'
p202
ag63
ag6
ag6
aS'variable_1'
p203
aS'->'
p204
aS'variable_31'
p205
ag103
aS'variable_32'
p206
ag54
aS'variable_39'
p207
ag15
aS'?'
p208
ag6
aS'variable_1'
p209
aS'->'
p210
aS'variable_40'
p211
aS'->'
p212
aS'variable_41'
p213
aS'<<'
p214
aS'9'
p215
ag15
aS':'
p216
aS'65536'
p217
ag15
ag15
aS'kfree'
p218
ag6
aS'variable_35'
p219
ag15
ag19
aS'variable_42'
p220
ag24
aS'kmalloc'
p221
ag6
aS'variable_35'
p222
aS'->'
p223
aS'variable_25'
p224
ag33
aS'variable_38'
p225
ag35
ag103
aS'variable_12'
p226
ag11
aS'variable_17'
p227
ag89
aS'variable_43'
p228
ag15
ag19
aS'if'
p229
ag6
ag41
aS'variable_42'
p230
ag15
aS'func_6'
p231
ag6
ag6
aS'variable_44'
p232
aS'"'
p233
aS'aacraid'
p234
ag216
aS'Could'
p235
aS'not'
p236
aS'allocate'
p237
aS'SG'
p238
aS'buffer'
p239
ag67
aS'size'
p240
ag24
aS'%'
p241
aS'd'
p242
aS'buffer'
p243
aS'number'
p244
ag241
ag242
aS'of'
p245
ag241
ag242
aS'\\'
p246
aS'n'
p247
ag233
aS'variable_35'
p248
aS'->'
p249
aS'variable_25'
p250
ag33
aS'variable_38'
p251
ag35
ag103
aS'variable_12'
p252
ag11
aS'variable_38'
p253
ag11
aS'variable_35'
p254
aS'->'
p255
aS'variable_12'
p256
ag15
ag15
aS'kfree'
p257
ag6
aS'variable_35'
p258
ag15
ag19
aS'variable_45'
p259
ag33
aS'variable_38'
p260
ag35
ag24
ag6
aS'void'
p261
aS'__user'
p262
ag9
ag15
ag6
aS'variable_46'
p263
ag15
aS'variable_35'
p264
aS'->'
p265
aS'variable_25'
p266
ag33
aS'variable_38'
p267
ag35
ag103
aS'variable_47'
p268
ag19
aS'variable_9'
p269
ag33
aS'variable_38'
p270
ag35
ag24
aS'variable_42'
p271
ag19
aS'variable_48'
p272
ag24
aS'variable_38'
p273
ag19
aS'if'
p274
ag6
aS'func_7'
p275
ag6
aS'variable_42'
p276
ag11
aS'variable_45'
p277
ag33
aS'variable_38'
p278
ag35
ag11
aS'variable_37'
p279
aS'->'
p280
aS'variable_25'
p281
ag33
aS'variable_38'
p282
ag35
ag103
aS'variable_12'
p283
ag15
ag15
aS'kfree'
p284
ag6
aS'variable_35'
p285
ag15
ag19
aS'variable_47'
p286
ag24
aS'func_8'
p287
ag6
aS'variable_1'
p288
aS'->'
p289
aS'variable_49'
p290
ag11
aS'variable_42'
p291
ag11
aS'variable_35'
p292
aS'->'
p293
aS'variable_25'
p294
ag33
aS'variable_38'
p295
ag35
ag103
aS'variable_12'
p296
ag11
aS'variable_8'
p297
ag15
ag19
aS'variable_50'
p298
aS'->'
p299
aS'variable_25'
p300
ag33
aS'variable_38'
p301
ag35
ag103
aS'variable_47'
p302
ag33
ag28
ag35
ag24
aS'func_9'
p303
ag6
aS'variable_47'
p304
ag54
aS'0xffffffff'
p305
ag15
ag19
aS'variable_50'
p306
aS'->'
p307
aS'variable_25'
p308
ag33
aS'variable_38'
p309
ag35
ag103
aS'variable_47'
p310
ag33
aS'1'
p311
ag35
ag24
aS'func_10'
p312
ag6
aS'variable_47'
p313
aS'>>'
p314
aS'32'
p315
ag15
ag19
aS'variable_51'
p316
aS'+='
p317
aS'variable_35'
p318
aS'->'
p319
aS'variable_25'
p320
ag33
aS'variable_38'
p321
ag35
ag103
aS'variable_12'
p322
ag19
aS'variable_50'
p323
aS'->'
p324
aS'variable_25'
p325
ag33
aS'variable_38'
p326
ag35
ag103
aS'variable_12'
p327
ag24
aS'func_11'
p328
ag6
aS'variable_35'
p329
aS'->'
p330
aS'variable_25'
p331
ag33
aS'variable_38'
p332
ag35
ag103
aS'variable_12'
p333
ag15
ag19
aS'kfree'
p334
ag6
aS'variable_35'
p335
ag15
ag19
aS'variable_52'
p336
aS'->'
p337
aS'variable_12'
p338
ag24
aS'func_12'
p339
ag6
aS'variable_51'
p340
ag15
ag19
aS'variable_50'
p341
aS'->'
p342
aS'variable_12'
p343
ag24
aS'func_13'
p344
ag6
aS'variable_48'
p345
ag114
ag311
ag15
ag19
aS'func_14'
p346
ag6
ag6
aS'variable_44'
p347
ag233
aS'aacraid'
p348
ag216
aS'Could'
p349
aS'not'
p350
aS'send'
p351
aS'raw'
p352
aS'srb'
p353
aS'fib'
p354
aS'to'
p355
aS'hba'
p356
ag246
ag247
ag233
ag15
ag15
aS'for'
p357
ag6
aS'variable_38'
p358
ag24
ag28
ag19
aS'variable_38'
p359
ag191
ag24
aS'variable_48'
p360
ag19
aS'variable_38'
p361
aS'++'
p362
ag15
aS'variable_51'
p363
ag24
aS'func_15'
p364
ag6
ag6
aS'variable_1'
p365
aS'->'
p366
aS'variable_31'
p367
ag103
aS'variable_32'
p368
ag54
aS'variable_33'
p369
ag15
ag208
ag6
ag6
aS'struct'
p370
aS'sgmap64'
p371
ag9
ag15
ag54
aS'variable_52'
p372
aS'->'
p373
aS'variable_25'
p374
ag15
aS'->'
p375
aS'variable_25'
p376
ag33
aS'variable_38'
p377
ag35
ag103
aS'variable_12'
p378
ag216
aS'variable_52'
p379
aS'->'
p380
aS'variable_25'
p381
ag103
aS'variable_25'
p382
ag33
aS'variable_38'
p383
ag35
ag103
aS'variable_12'
p384
ag15
ag19
aS'if'
p385
ag6
aS'func_16'
p386
ag6
aS'variable_45'
p387
ag33
aS'variable_38'
p388
ag35
ag11
aS'variable_9'
p389
ag33
aS'variable_38'
p390
ag35
ag11
aS'variable_51'
p391
ag15
ag15
aS'func_17'
p392
ag6
ag6
aS'variable_44'
p393
ag233
aS'aacraid'
p394
ag216
aS'Could'
p395
aS'not'
p396
aS'copy'
p397
aS'sg'
p398
aS'data'
p399
aS'to'
p400
aS'user'
p401
ag246
ag247
ag233
ag15
ag15
aS'func_18'
p402
ag6
ag6
aS'variable_44'
p403
ag233
aS'aacraid'
p404
ag216
aS'Could'
p405
aS'not'
p406
aS'copy'
p407
aS'reply'
p408
aS'to'
p409
aS'user'
p410
ag246
ag247
ag233
ag15
ag15
aS'for'
p411
ag6
aS'variable_38'
p412
ag24
ag28
ag19
aS'variable_38'
p413
ag191
ag24
aS'variable_48'
p414
ag19
aS'variable_38'
p415
aS'++'
p416
ag15
aS'kfree'
p417
ag6
aS'variable_9'
p418
ag33
aS'variable_38'
p419
ag35
ag15
ag19
aa(lp420
S'static'
p421
aS'int'
p422
aS'func_0'
p423
ag6
aS'struct'
p424
aS'variable_0'
p425
ag9
aS'variable_1'
p426
ag11
aS'void'
p427
aS'variable_2'
p428
ag9
aS'variable_3'
p429
ag15
aS'struct'
p430
aS'variable_4'
p431
ag9
aS'variable_5'
p432
ag19
aS'struct'
p433
aS'user_aac_srb'
p434
aS'variable_2'
p435
ag9
aS'variable_6'
p436
ag24
aS'variable_3'
p437
ag19
aS'struct'
p438
aS'aac_srb_reply'
p439
aS'variable_2'
p440
ag9
aS'variable_7'
p441
ag19
aS'u32'
p442
aS'variable_8'
p443
ag24
ag28
ag19
aS'if'
p444
ag6
aS'variable_1'
p445
aS'->'
p446
aS'variable_9'
p447
ag15
aS'if'
p448
ag6
ag41
aS'func_1'
p449
ag6
aS'variable_10'
p450
ag15
ag15
aS'if'
p451
ag6
ag41
ag6
aS'variable_5'
p452
ag24
aS'func_2'
p453
ag6
aS'variable_1'
p454
ag15
ag15
ag15
aS'if'
p455
ag6
aS'func_3'
p456
ag6
ag54
aS'variable_8'
p457
ag11
ag54
aS'variable_6'
p458
aS'->'
p459
aS'variable_11'
p460
ag11
aS'sizeof'
p461
ag6
aS'variable_12'
p462
ag15
ag15
ag15
aS'if'
p463
ag6
aS'variable_8'
p464
ag63
ag6
aS'variable_1'
p465
aS'->'
p466
aS'variable_13'
p467
ag67
aS'sizeof'
p468
ag6
aS'struct'
p469
aS'variable_14'
p470
ag15
ag15
ag15
aS'variable_15'
p471
ag24
aS'kmalloc'
p472
ag6
aS'variable_8'
p473
ag11
aS'variable_16'
p474
ag15
ag19
aS'if'
p475
ag6
ag41
aS'variable_15'
p476
ag15
aS'if'
p477
ag6
aS'func_4'
p478
ag6
aS'variable_15'
p479
ag11
aS'variable_6'
p480
ag11
aS'variable_8'
p481
ag15
ag15
aS'variable_7'
p482
ag24
aS'variable_3'
p483
ag114
aS'variable_8'
p484
ag19
aS'if'
p485
ag6
aS'func_5'
p486
ag6
aS'variable_7'
p487
ag11
aS'variable_17'
p488
ag11
aS'sizeof'
p489
ag6
aS'struct'
p490
aS'variable_18'
p491
ag15
ag15
ag15
aaa(lp492
I0
aI0
aa(lp493
I303
aI127
aa(lp494
(lp495
S'main'
p496
aa(lp497
g496
aaa(lp498
S'541 /home/SySeVR/data/CVE_2013_6380_VULN_aac_send_raw_srb.c usg = kmalloc ( actual_fibsize - sizeof ( struct aac_srb ) + sizeof ( struct sgmap ) , GFP_KERNEL ) 172'
p499
aS'542 /home/SySeVR/data/CVE_2013_6380_VULN_aac_send_raw_srb.c user_reply = arg + fibsize 66'
p500
aa.