(lp0
(lp1
(lp2
S'variable_0'
p3
aS':'
p4
ag4
aS'func_0'
p5
aS'('
p6
aS'variable_1'
p7
aS'<'
p8
aS'variable_2'
p9
ag4
ag4
aS'variable_3'
p10
aS'>'
p11
aS'&'
p12
aS'variable_4'
p13
aS')'
p14
aS'static'
p15
aS'const'
p16
aS'unsigned'
p17
aS'int'
p18
aS'variable_5'
p19
aS'='
p20
aS'1'
p21
aS'<<'
p22
aS'16'
p23
aS';'
p24
aS'func_1'
p25
ag6
aS'variable_5'
p26
ag8
aS'variable_6'
p27
aS'/'
p28
aS'sizeof'
p29
ag6
aS'char'
p30
ag14
ag14
ag24
aaa(lp31
I0
aa(lp32
I34
aa(lp33
(lp34
S'main'
p35
aaa(lp36
S'481 /home/SySeVR/data/CVE_2013_1708_VULN_WaveReader__LoadListChunk.c PR_STATIC_ASSERT ( MAX_CHUNK_SIZE < UINT_MAX / sizeof ( char ) ) 10'
p37
aa.