(lp0
(lp1
(lp2
S'static'
p3
aS'int'
p4
aS'func_0'
p5
aS'('
p6
aS'struct'
p7
aS'variable_0'
p8
aS'*'
p9
aS'variable_1'
p10
aS','
p11
aS'int'
p12
aS'variable_2'
p13
aS')'
p14
aS'struct'
p15
aS'variable_3'
p16
ag9
aS'variable_4'
p17
aS'='
p18
aS'variable_5'
p19
aS'->'
p20
aS'variable_4'
p21
aS';'
p22
aS'struct'
p23
aS'variable_0'
p24
ag9
aS'variable_6'
p25
ag22
aS'int'
p26
aS'variable_7'
p27
ag18
aS'variable_2'
p28
aS'-'
p29
aS'variable_8'
p30
ag29
aS'variable_9'
p31
ag22
aS'int'
p32
aS'variable_10'
p33
ag18
aS'variable_8'
p34
aS'+'
p35
aS'variable_7'
p36
ag22
aS'int'
p37
aS'variable_11'
p38
ag18
aS'variable_1'
p39
aS'->'
p40
aS'variable_12'
p41
ag29
aS'variable_8'
p42
ag29
aS'variable_7'
p43
ag22
aS'if'
p44
ag6
aS'func_1'
p45
ag6
aS'variable_11'
p46
aS'<'
p47
aS'0'
p48
ag14
ag14
aS'while'
p49
ag6
aS'variable_11'
p50
ag14
aS'int'
p51
aS'variable_13'
p52
ag18
aS'variable_7'
p53
ag22
aS'if'
p54
ag6
aS'variable_13'
p55
aS'>'
p56
aS'variable_11'
p57
ag14
aS'variable_13'
p58
ag18
aS'variable_11'
p59
ag22
aS'variable_11'
p60
aS'-='
p61
aS'variable_13'
p62
ag22
aS'variable_6'
p63
ag18
aS'func_2'
p64
ag6
aS'variable_4'
p65
aS'->'
p66
aS'variable_14'
p67
ag35
aS'variable_2'
p68
ag35
aS'variable_15'
p69
ag35
aS'variable_16'
p70
ag14
ag22
aS'if'
p71
ag6
aS'!'
p72
aS'variable_6'
p73
ag14
aS'memcpy'
p74
ag6
aS'variable_6'
p75
aS'->'
p76
aS'variable_17'
p77
ag11
aS'variable_1'
p78
aS'->'
p79
aS'variable_17'
p80
ag11
aS'sizeof'
p81
ag6
aS'variable_6'
p82
aS'->'
p83
aS'variable_17'
p84
ag14
ag14
ag22
aS'variable_6'
p85
aS'->'
p86
aS'variable_18'
p87
ag18
aS'variable_1'
p88
aS'->'
p89
aS'variable_18'
p90
ag22
aS'variable_6'
p91
aS'->'
p92
aS'variable_19'
p93
ag18
aS'variable_1'
p94
aS'->'
p95
aS'variable_19'
p96
ag22
aS'memcpy'
p97
ag6
aS'func_3'
p98
ag6
aS'variable_6'
p99
ag11
aS'variable_8'
p100
ag14
ag11
aS'variable_1'
p101
aS'->'
p102
aS'variable_20'
p103
ag11
aS'variable_8'
p104
ag14
ag22
aS'memcpy'
p105
ag6
aS'func_4'
p106
ag6
aS'variable_6'
p107
ag11
aS'variable_13'
p108
ag14
ag11
aS'variable_1'
p109
aS'->'
p110
aS'variable_20'
p111
ag35
aS'variable_10'
p112
ag11
aS'variable_13'
p113
ag14
ag22
aS'variable_10'
p114
aS'+='
p115
aS'variable_13'
p116
ag22
aa(lp117
S'static'
p118
aS'int'
p119
aS'func_0'
p120
ag6
aS'struct'
p121
aS'variable_0'
p122
ag9
aS'variable_1'
p123
ag11
aS'int'
p124
aS'variable_2'
p125
ag14
aS'struct'
p126
aS'variable_3'
p127
ag9
aS'variable_4'
p128
ag18
aS'variable_5'
p129
aS'->'
p130
aS'variable_4'
p131
ag22
aS'struct'
p132
aS'variable_0'
p133
ag9
aS'variable_6'
p134
ag22
aS'int'
p135
aS'variable_7'
p136
ag18
aS'variable_2'
p137
ag29
aS'variable_8'
p138
ag29
aS'variable_9'
p139
ag22
aS'int'
p140
aS'variable_10'
p141
ag18
aS'variable_1'
p142
aS'->'
p143
aS'variable_11'
p144
ag29
aS'variable_8'
p145
ag29
aS'variable_7'
p146
ag22
aS'if'
p147
ag6
aS'func_1'
p148
ag6
aS'variable_10'
p149
ag47
ag48
ag14
ag14
aS'while'
p150
ag6
aS'variable_10'
p151
ag14
aS'int'
p152
aS'variable_12'
p153
ag18
aS'variable_7'
p154
ag22
aS'if'
p155
ag6
aS'variable_12'
p156
ag56
aS'variable_10'
p157
ag14
aS'variable_12'
p158
ag18
aS'variable_10'
p159
ag22
aS'variable_10'
p160
aS'-='
p161
aS'variable_12'
p162
ag22
aS'variable_6'
p163
ag18
aS'func_2'
p164
ag6
aS'variable_4'
p165
aS'->'
p166
aS'variable_13'
p167
ag35
aS'variable_2'
p168
ag35
aS'variable_14'
p169
ag35
aS'variable_15'
p170
ag14
ag22
aS'if'
p171
ag6
ag72
aS'variable_6'
p172
ag14
aS'memcpy'
p173
ag6
aS'variable_6'
p174
aS'->'
p175
aS'variable_16'
p176
ag11
aS'variable_1'
p177
aS'->'
p178
aS'variable_16'
p179
ag11
aS'sizeof'
p180
ag6
aS'variable_6'
p181
aS'->'
p182
aS'variable_16'
p183
ag14
ag14
ag22
aS'variable_6'
p184
aS'->'
p185
aS'variable_17'
p186
ag18
aS'variable_1'
p187
aS'->'
p188
aS'variable_17'
p189
ag22
aS'variable_6'
p190
aS'->'
p191
aS'variable_18'
p192
ag18
aS'variable_1'
p193
aS'->'
p194
aS'variable_18'
p195
ag22
aS'memcpy'
p196
ag6
aS'func_3'
p197
ag6
aS'variable_6'
p198
ag11
aS'variable_8'
p199
ag14
ag11
aS'variable_1'
p200
aS'->'
p201
aS'variable_19'
p202
ag11
aS'variable_8'
p203
ag14
ag22
aS'memcpy'
p204
ag6
aS'func_4'
p205
ag6
aS'variable_6'
p206
ag11
aS'variable_12'
p207
ag14
ag11
aS'variable_1'
p208
aS'->'
p209
aS'variable_19'
p210
ag35
aS'variable_20'
p211
ag11
aS'variable_12'
p212
ag14
ag22
aa(lp213
S'static'
p214
aS'int'
p215
aS'func_0'
p216
ag6
aS'struct'
p217
aS'variable_0'
p218
ag9
aS'variable_1'
p219
ag11
aS'int'
p220
aS'variable_2'
p221
ag14
aS'struct'
p222
aS'variable_3'
p223
ag9
aS'variable_4'
p224
ag18
aS'variable_5'
p225
aS'->'
p226
aS'variable_4'
p227
ag22
aS'struct'
p228
aS'variable_0'
p229
ag9
aS'variable_6'
p230
ag22
aS'int'
p231
aS'variable_7'
p232
ag18
aS'variable_2'
p233
ag29
aS'variable_8'
p234
ag29
aS'variable_9'
p235
ag22
aS'int'
p236
aS'variable_10'
p237
ag18
aS'variable_1'
p238
aS'->'
p239
aS'variable_11'
p240
ag29
aS'variable_8'
p241
ag29
aS'variable_7'
p242
ag22
aS'if'
p243
ag6
aS'func_1'
p244
ag6
aS'variable_10'
p245
ag47
ag48
ag14
ag14
aS'while'
p246
ag6
aS'variable_10'
p247
ag14
aS'int'
p248
aS'variable_12'
p249
ag18
aS'variable_7'
p250
ag22
aS'if'
p251
ag6
aS'variable_12'
p252
ag56
aS'variable_10'
p253
ag14
aS'variable_12'
p254
ag18
aS'variable_10'
p255
ag22
aS'variable_10'
p256
aS'-='
p257
aS'variable_12'
p258
ag22
aS'variable_6'
p259
ag18
aS'func_2'
p260
ag6
aS'variable_4'
p261
aS'->'
p262
aS'variable_13'
p263
ag35
aS'variable_2'
p264
ag35
aS'variable_14'
p265
ag35
aS'variable_15'
p266
ag14
ag22
aS'if'
p267
ag6
ag72
aS'variable_6'
p268
ag14
aS'memcpy'
p269
ag6
aS'variable_6'
p270
aS'->'
p271
aS'variable_16'
p272
ag11
aS'variable_1'
p273
aS'->'
p274
aS'variable_16'
p275
ag11
aS'sizeof'
p276
ag6
aS'variable_6'
p277
aS'->'
p278
aS'variable_16'
p279
ag14
ag14
ag22
aS'variable_17'
p280
ag18
aS'func_3'
p281
ag6
aS'variable_6'
p282
ag14
ag22
aS'variable_17'
p283
aS'->'
p284
aS'variable_18'
p285
aS'&'
p286
ag18
aS'~'
p287
ag6
aS'variable_19'
p288
aS'|'
p289
aS'variable_20'
p290
ag14
ag22
aS'variable_17'
p291
aS'->'
p292
aS'variable_18'
p293
ag289
ag18
aS'variable_21'
p294
ag22
aS'func_4'
p295
ag6
aS'variable_6'
p296
ag11
aS'variable_1'
p297
ag14
ag22
aS'variable_6'
p298
aS'->'
p299
aS'variable_22'
p300
ag18
aS'variable_1'
p301
aS'->'
p302
aS'variable_22'
p303
ag22
aS'variable_6'
p304
aS'->'
p305
aS'variable_23'
p306
ag18
aS'variable_1'
p307
aS'->'
p308
aS'variable_23'
p309
ag22
aS'memcpy'
p310
ag6
aS'func_5'
p311
ag6
aS'variable_6'
p312
ag11
aS'variable_8'
p313
ag14
ag11
aS'variable_1'
p314
aS'->'
p315
aS'variable_24'
p316
ag11
aS'variable_8'
p317
ag14
ag22
aS'memcpy'
p318
ag6
aS'func_6'
p319
ag6
aS'variable_6'
p320
ag11
aS'variable_12'
p321
ag14
ag11
aS'variable_1'
p322
aS'->'
p323
aS'variable_24'
p324
ag35
aS'variable_25'
p325
ag11
aS'variable_12'
p326
ag14
ag22
aaa(lp327
I0
aI0
aI0
aa(lp328
I156
aI133
aI99
aa(lp329
(lp330
S'main'
p331
aa(lp332
g331
aa(lp333
g331
aaa(lp334
S'611 /home/SySeVR/data/CVE_2014_8709_PATCHED_ieee80211_fragment.c memcpy 50'
p335
aS'612 /home/SySeVR/data/CVE_2014_8709_PATCHED_ieee80211_fragment.c memcpy 49'
p336
aS'613 /home/SySeVR/data/CVE_2014_8709_PATCHED_ieee80211_fragment.c memcpy 35'
p337
aa.