(lp0
(lp1
(lp2
S'static'
p3
aS'int'
p4
aS'func_0'
p5
aS'('
p6
aS'struct'
p7
aS'variable_0'
p8
aS'*'
p9
aS'variable_1'
p10
aS','
p11
aS'int'
p12
aS'variable_2'
p13
aS')'
p14
aS'int'
p15
aS'variable_3'
p16
aS'='
p17
aS'variable_2'
p18
aS'-'
p19
aS'variable_4'
p20
ag19
aS'variable_5'
p21
aS';'
p22
aS'int'
p23
aS'variable_6'
p24
ag17
aS'variable_1'
p25
aS'->'
p26
aS'variable_7'
p27
ag19
aS'variable_4'
p28
ag19
aS'variable_3'
p29
ag22
aS'if'
p30
ag6
aS'func_1'
p31
ag6
aS'variable_6'
p32
aS'<'
p33
aS'0'
p34
ag14
ag14
aS'while'
p35
ag6
aS'variable_6'
p36
ag14
aS'if'
p37
ag6
aS'variable_8'
p38
aS'>'
p39
aS'variable_6'
p40
ag14
aS'variable_8'
p41
ag17
aS'variable_6'
p42
ag22
aS'variable_6'
p43
aS'-='
p44
aS'variable_8'
p45
ag22
aS'if'
p46
ag6
aS'variable_6'
p47
ag14
aS'memcpy'
p48
ag6
aS'func_2'
p49
ag6
aS'variable_9'
p50
ag11
aS'variable_8'
p51
ag14
ag11
aS'variable_1'
p52
aS'->'
p53
aS'variable_10'
p54
aS'+'
p55
aS'variable_11'
p56
ag11
aS'variable_8'
p57
ag14
ag22
aS'variable_11'
p58
aS'+='
p59
aS'variable_8'
p60
ag22
aa(lp61
S'static'
p62
aS'int'
p63
aS'func_0'
p64
ag6
aS'struct'
p65
aS'variable_0'
p66
ag9
aS'variable_1'
p67
ag11
aS'int'
p68
aS'variable_2'
p69
ag14
aS'int'
p70
aS'variable_3'
p71
ag17
aS'variable_2'
p72
ag19
aS'variable_4'
p73
ag19
aS'variable_5'
p74
ag22
aS'int'
p75
aS'variable_6'
p76
ag17
aS'variable_4'
p77
ag55
aS'variable_3'
p78
ag22
aS'memcpy'
p79
ag6
aS'func_1'
p80
ag6
aS'variable_7'
p81
ag11
aS'variable_8'
p82
ag14
ag11
aS'variable_1'
p83
aS'->'
p84
aS'variable_9'
p85
ag55
aS'variable_6'
p86
ag11
aS'variable_8'
p87
ag14
ag22
aS'variable_6'
p88
aS'+='
p89
aS'variable_8'
p90
ag22
aa(lp91
S'static'
p92
aS'int'
p93
aS'func_0'
p94
ag6
aS'struct'
p95
aS'variable_0'
p96
ag9
aS'variable_1'
p97
ag11
aS'int'
p98
aS'variable_2'
p99
ag14
aS'int'
p100
aS'variable_3'
p101
ag17
aS'variable_2'
p102
ag19
aS'variable_4'
p103
ag19
aS'variable_5'
p104
ag22
aS'int'
p105
aS'variable_6'
p106
ag17
aS'variable_4'
p107
ag55
aS'variable_3'
p108
ag22
aS'int'
p109
aS'variable_7'
p110
ag17
aS'variable_1'
p111
aS'->'
p112
aS'variable_8'
p113
ag19
aS'variable_4'
p114
ag19
aS'variable_3'
p115
ag22
aS'if'
p116
ag6
aS'func_1'
p117
ag6
aS'variable_7'
p118
ag33
ag34
ag14
ag14
aS'while'
p119
ag6
aS'variable_7'
p120
ag14
aS'int'
p121
aS'variable_9'
p122
ag17
aS'variable_3'
p123
ag22
aS'if'
p124
ag6
aS'variable_9'
p125
ag39
aS'variable_7'
p126
ag14
aS'variable_9'
p127
ag17
aS'variable_7'
p128
ag22
aS'variable_7'
p129
aS'-='
p130
aS'variable_9'
p131
ag22
aS'if'
p132
ag6
aS'variable_7'
p133
ag14
aS'memcpy'
p134
ag6
aS'func_2'
p135
ag6
aS'variable_10'
p136
ag11
aS'variable_9'
p137
ag14
ag11
aS'variable_1'
p138
aS'->'
p139
aS'variable_11'
p140
ag55
aS'variable_6'
p141
ag11
aS'variable_9'
p142
ag14
ag22
aS'variable_6'
p143
aS'+='
p144
aS'variable_9'
p145
ag22
aS'func_3'
p146
ag6
aS'variable_1'
p147
ag11
aS'variable_4'
p148
ag55
aS'variable_3'
p149
ag14
ag22
aaa(lp150
I0
aI0
aI0
aa(lp151
I32
aI28
aI21
aa(lp152
(lp153
S'main'
p154
aa(lp155
g154
aa(lp156
g154
aaa(lp157
S'931 /home/SySeVR/data/CVE_2014_8709_PATCHED_ieee80211_fragment.c int rem = skb -> len - hdrlen - per_fragm ; 10'
p158
aS'932 /home/SySeVR/data/CVE_2014_8709_PATCHED_ieee80211_fragment.c int pos = hdrlen + per_fragm ; 9'
p159
aS'933 /home/SySeVR/data/CVE_2014_8709_PATCHED_ieee80211_fragment.c int per_fragm = frag_threshold - hdrlen - FCS_LEN ; 8'
p160
aa.