(lp0
(lp1
(lp2
S'int'
p3
aS'func_0'
p4
aS'('
p5
aS'int'
p6
aS'variable_0'
p7
aS','
p8
aS'variable_1'
p9
aS'*'
p10
ag10
aS'variable_2'
p11
aS')'
p12
aS'if'
p13
ag5
aS'variable_0'
p14
aS'<'
p15
aS'4'
p16
ag12
aS'variable_3'
p17
aS'['
p18
aS'variable_4'
p19
aS'-'
p20
aS'1'
p21
aS']'
p22
aS'='
p23
aS'func_1'
p24
ag5
aS"'"
p25
aS'\\'
p26
aS'0'
p27
ag25
ag12
aS';'
p28
aS'bool'
p29
aS'variable_5'
p30
ag23
aS'getenv'
p31
ag5
aS'"'
p32
aS'MOZ_NO_SERVICE_FALLBACK'
p33
ag32
ag12
aS'!='
p34
aS'variable_6'
p35
ag28
aS'variable_7'
p36
ag23
aS'func_2'
p37
ag5
ag12
ag28
aS'variable_8'
p38
ag23
aS'func_3'
p39
ag5
ag12
ag28
aS'__int64'
p40
aS'variable_9'
p41
ag23
ag27
ag28
aS'if'
p42
ag5
aS'variable_0'
p43
aS'>'
p44
ag16
ag12
aS'variable_9'
p45
ag23
aS'func_4'
p46
ag5
aS'variable_2'
p47
ag18
ag16
ag22
ag12
ag28
aS'if'
p48
ag5
aS'variable_9'
p49
aS'=='
p50
ag20
ag21
ag12
aS'variable_10'
p51
ag23
aS'true'
p52
ag28
aS'if'
p53
ag5
aS'func_5'
p54
ag5
aS'variable_2'
p55
ag18
ag16
ag22
ag8
aS'func_6'
p56
ag5
ag32
aS'/'
p57
aS'replace'
p58
ag32
ag12
ag12
ag12
aS'variable_11'
p59
ag23
aS'true'
p60
ag28
aS'variable_12'
p61
ag18
aS'variable_4'
p62
ag20
ag21
ag22
ag23
aS'func_7'
p63
ag5
ag25
ag26
ag27
ag25
ag12
ag28
aS'if'
p64
ag5
aS'!'
p65
aS'func_8'
p66
ag5
ag32
aS'applying'
p67
ag32
ag12
ag12
aS'if'
p68
ag5
aS'variable_9'
p69
ag44
ag27
ag12
aS'HANDLE'
p70
aS'variable_13'
p71
ag23
aS'OpenProcess'
p72
ag5
aS'variable_14'
p73
ag8
aS'false'
p74
ag8
ag5
aS'variable_15'
p75
ag12
aS'variable_9'
p76
ag12
ag28
aS'if'
p77
ag5
aS'variable_13'
p78
ag12
aS'variable_16'
p79
ag23
aS'func_9'
p80
ag5
aS'variable_0'
p81
ag8
aS'variable_2'
p82
ag12
ag28
aS'DWORD'
p83
aS'variable_17'
p84
ag23
aS'variable_16'
p85
aS'?'
p86
aS'variable_18'
p87
aS':'
p88
aS'variable_19'
p89
ag28
aS'DWORD'
p90
aS'variable_20'
p91
ag23
aS'WaitForSingleObject'
p92
ag5
aS'variable_13'
p93
ag8
aS'variable_17'
p94
ag12
ag28
aS'if'
p95
ag5
aS'variable_20'
p96
aS'!='
p97
aS'variable_21'
p98
aS'&&'
p99
ag65
aS'variable_16'
p100
ag12
aS'const'
p101
aS'int'
p102
aS'variable_22'
p103
ag23
aS'6'
p104
ag28
aS'variable_23'
p105
ag23
aS'getenv'
p106
ag5
ag32
aS'MOZ_USING_SERVICE'
p107
ag32
ag12
aS'!='
p108
aS'variable_6'
p109
ag28
aS'if'
p110
ag5
ag65
aS'variable_23'
p111
aS'&&'
p112
ag5
aS'variable_0'
p113
ag44
aS'variable_22'
p114
aS'||'
p115
aS'variable_10'
p116
aS'||'
p117
aS'variable_11'
p118
ag12
ag12
aS'NS_tchar'
p119
aS'variable_24'
p120
ag18
aS'variable_4'
p121
ag22
ag28
aS'if'
p122
ag5
ag65
aS'func_10'
p123
ag5
aS'variable_24'
p124
ag8
aS'variable_25'
p125
ag12
aS'&&'
p126
aS'func_11'
p127
ag5
aS'variable_24'
p128
ag12
aS'!='
p129
ag27
ag12
aS'variable_26'
p130
ag23
aS'func_12'
p131
ag5
aS'variable_24'
p132
ag8
aS'variable_27'
p133
aS'|'
p134
aS'variable_28'
p135
ag8
ag27
ag8
aS'variable_6'
p136
ag8
aS'variable_29'
p137
ag8
aS'variable_30'
p138
ag8
aS'variable_6'
p139
ag12
ag28
aS'if'
p140
ag5
aS'variable_26'
p141
aS'=='
p142
aS'variable_31'
p143
aS'||'
p144
ag5
aS'variable_7'
p145
aS'&&'
p146
aS'variable_8'
p147
aS'&&'
p148
aS'variable_5'
p149
ag12
ag12
aS'GonkAutoMounter'
p150
aS'variable_32'
p151
ag28
aS'if'
p152
ag5
aS'variable_32'
p153
aS'.'
p154
aS'func_13'
p155
ag5
ag12
aS'!='
p156
aS'variable_33'
p157
ag88
ag88
aS'variable_34'
p158
ag12
aS'if'
p159
ag5
ag65
aS'variable_11'
p160
ag12
aS'if'
p161
ag5
aS'func_14'
p162
ag5
aS'variable_12'
p163
ag12
aS'!='
p164
ag27
ag12
aS'int'
p165
aS'variable_35'
p166
ag23
aS'func_15'
p167
ag5
aS'variable_12'
p168
ag8
aS'0755'
p169
ag12
ag28
aS'if'
p170
ag5
aS'variable_35'
p171
aS'=='
p172
aS'variable_36'
p173
aS'&&'
p174
aS'variable_37'
p175
aS'!='
p176
aS'variable_38'
p177
ag12
aS'if'
p178
ag5
aS'func_16'
p179
ag5
aS'variable_12'
p180
ag12
aS'!='
p181
ag27
ag12
aS'if'
p182
ag5
ag65
aS'variable_11'
p183
ag12
aS'variable_1'
p184
ag10
aS'variable_39'
p185
ag23
ag5
aS'NS_tchar'
p186
ag10
ag12
aS'malloc'
p187
ag5
ag5
aS'func_17'
p188
ag5
aS'variable_12'
p189
ag12
aS'+'
p190
aS'2'
p191
ag12
ag10
aS'sizeof'
p192
ag5
aS'variable_1'
p193
ag12
ag12
ag28
aS'if'
p194
ag5
ag65
aS'variable_39'
p195
ag12
aS'NS_tchar'
p196
aS'variable_40'
p197
ag18
aS'variable_4'
p198
ag22
ag28
aS'if'
p199
ag5
ag65
aS'func_18'
p200
ag5
aS'variable_12'
p201
ag8
aS'variable_40'
p202
ag8
aS'sizeof'
p203
ag5
aS'variable_40'
p204
ag12
ag57
aS'sizeof'
p205
ag5
aS'variable_40'
p206
ag18
ag27
ag22
ag12
ag12
ag12
aS'if'
p207
ag5
aS'variable_0'
p208
ag44
aS'variable_22'
p209
ag12
aS'NS_tchar'
p210
aS'variable_41'
p211
ag18
aS'variable_4'
p212
ag22
ag28
aS'variable_1'
p213
ag10
aS'variable_42'
p214
ag23
aS'variable_2'
p215
ag18
aS'variable_22'
p216
ag22
ag28
aS'NS_tchar'
p217
aS'variable_43'
p218
ag18
aS'variable_4'
p219
ag10
ag191
ag22
ag23
aS'{'
p220
aS'func_19'
p221
ag5
ag25
ag26
ag27
ag25
ag12
aS'}'
p222
ag28
aS'if'
p223
ag5
aS'variable_11'
p224
ag12
aS'variable_42'
p225
ag23
aS'variable_43'
p226
ag28
aS'if'
p227
ag5
ag65
aS'func_20'
p228
ag5
aS'variable_42'
p229
ag8
aS'variable_41'
p230
ag8
aS'sizeof'
p231
ag5
aS'variable_41'
p232
ag12
ag57
aS'sizeof'
p233
ag5
aS'variable_41'
p234
ag18
ag27
ag22
ag12
ag12
ag12
aS'if'
p235
ag5
ag65
aS'variable_11'
p236
ag12
aS'const'
p237
aS'int'
p238
aS'variable_44'
p239
ag23
aS'10'
p240
ag28
aS'int'
p241
aS'variable_45'
p242
ag23
ag21
ag28
aS'DWORD'
p243
aS'variable_46'
p244
ag23
ag27
ag28
aS'variable_47'
p245
ag23
aS'func_21'
p246
ag5
aS'variable_42'
p247
ag8
aS'variable_48'
p248
ag134
aS'variable_28'
p249
ag8
aS'variable_49'
p250
ag134
aS'variable_50'
p251
ag8
aS'variable_6'
p252
ag8
aS'variable_51'
p253
ag8
ag27
ag8
aS'variable_6'
p254
ag12
ag28
aS'if'
p255
ag5
aS'variable_47'
p256
aS'!='
p257
aS'variable_31'
p258
ag12
aS'variable_46'
p259
ag23
aS'GetLastError'
p260
ag5
ag12
ag28
aS'while'
p261
ag5
aS'++'
p262
aS'variable_45'
p263
ag15
ag23
aS'variable_44'
p264
ag12
aS'if'
p265
ag5
aS'variable_47'
p266
aS'=='
p267
aS'variable_31'
p268
ag12
aS'if'
p269
ag5
aS'variable_46'
p270
aS'!='
p271
aS'variable_52'
p272
ag12
aS'if'
p273
ag5
aS'variable_0'
p274
ag44
aS'variable_22'
p275
ag12
aS'if'
p276
ag5
aS'getenv'
p277
ag5
ag32
aS'MOZ_PROCESS_UPDATES'
p278
ag32
ag12
aS'=='
p279
aS'variable_6'
p280
ag12
aa(lp281
S'int'
p282
aS'func_0'
p283
ag5
aS'int'
p284
aS'variable_0'
p285
ag8
aS'variable_1'
p286
ag10
ag10
aS'variable_2'
p287
ag12
aS'if'
p288
ag5
aS'variable_0'
p289
ag15
ag16
ag12
aS'__int64'
p290
aS'variable_3'
p291
ag23
ag27
ag28
aS'if'
p292
ag5
aS'variable_0'
p293
ag44
ag16
ag12
aS'variable_3'
p294
ag23
aS'func_1'
p295
ag5
aS'variable_2'
p296
ag18
ag16
ag22
ag12
ag28
aS'if'
p297
ag5
ag65
aS'func_2'
p298
ag5
ag32
aS'applying'
p299
ag32
ag12
ag12
aS'if'
p300
ag5
aS'variable_3'
p301
ag44
ag27
ag12
aS'HANDLE'
p302
aS'variable_4'
p303
ag23
aS'OpenProcess'
p304
ag5
aS'variable_5'
p305
ag8
aS'false'
p306
ag8
ag5
aS'variable_6'
p307
ag12
aS'variable_3'
p308
ag12
ag28
aS'if'
p309
ag5
aS'variable_4'
p310
ag12
aS'variable_7'
p311
ag23
aS'func_3'
p312
ag5
aS'variable_0'
p313
ag8
aS'variable_2'
p314
ag12
ag28
aS'DWORD'
p315
aS'variable_8'
p316
ag23
aS'variable_7'
p317
ag86
aS'variable_9'
p318
ag88
aS'variable_10'
p319
ag28
aS'DWORD'
p320
aS'variable_11'
p321
ag23
aS'WaitForSingleObject'
p322
ag5
aS'variable_4'
p323
ag8
aS'variable_8'
p324
ag12
ag28
aS'if'
p325
ag5
aS'variable_11'
p326
aS'!='
p327
aS'variable_12'
p328
aS'&&'
p329
ag65
aS'variable_7'
p330
ag12
aS'variable_13'
p331
ag23
aS'getenv'
p332
ag5
ag32
aS'MOZ_USING_SERVICE'
p333
ag32
ag12
aS'!='
p334
aS'variable_14'
p335
ag28
aS'if'
p336
ag5
ag65
aS'variable_13'
p337
aS'&&'
p338
ag5
aS'variable_0'
p339
ag44
aS'variable_15'
p340
aS'||'
p341
aS'variable_16'
p342
aS'||'
p343
aS'variable_17'
p344
ag12
ag12
aS'func_4'
p345
ag5
aS'variable_2'
p346
ag18
aS'5'
p347
ag22
ag8
aS'variable_0'
p348
ag20
aS'variable_15'
p349
ag8
aS'variable_2'
p350
ag190
aS'variable_15'
p351
ag8
aS'variable_13'
p352
ag12
ag28
aS'func_5'
p353
ag5
aS'variable_2'
p354
ag18
ag347
ag22
ag8
aS'variable_0'
p355
ag20
aS'variable_15'
p356
ag8
aS'variable_2'
p357
ag190
aS'variable_15'
p358
ag8
aS'variable_13'
p359
ag12
ag28
aS'func_6'
p360
ag5
aS'variable_2'
p361
ag18
ag347
ag22
ag8
aS'variable_0'
p362
ag20
aS'variable_15'
p363
ag8
aS'variable_2'
p364
ag190
aS'variable_15'
p365
ag8
aS'variable_13'
p366
ag12
ag28
aS'func_7'
p367
ag5
aS'variable_2'
p368
ag18
ag347
ag22
ag8
aS'variable_0'
p369
ag20
aS'variable_15'
p370
ag8
aS'variable_2'
p371
ag190
aS'variable_15'
p372
ag8
aS'variable_13'
p373
ag12
ag28
aS'if'
p374
ag5
ag65
aS'variable_13'
p375
ag12
aS'func_8'
p376
ag5
aS'variable_2'
p377
ag18
ag347
ag22
ag8
aS'variable_0'
p378
ag20
aS'variable_15'
p379
ag8
aS'variable_2'
p380
ag190
aS'variable_15'
p381
ag8
aS'variable_13'
p382
ag12
ag28
aa(lp383
S'int'
p384
aS'func_0'
p385
ag5
aS'int'
p386
aS'variable_0'
p387
ag8
aS'variable_1'
p388
ag10
ag10
aS'variable_2'
p389
ag12
aS'if'
p390
ag5
aS'variable_0'
p391
ag15
ag16
ag12
aS'if'
p392
ag5
ag65
aS'func_1'
p393
ag5
ag32
aS'applying'
p394
ag32
ag12
ag12
aS'const'
p395
aS'char'
p396
ag10
aS'variable_3'
p397
ag23
aS'getenv'
p398
ag5
ag32
aS'MOZ_UPDATER_PRIO'
p399
ag32
ag12
ag28
aS'if'
p400
ag5
aS'variable_3'
p401
ag12
aS'if'
p402
ag5
aS'sscanf'
p403
ag5
aS'variable_3'
p404
ag8
ag32
aS'%'
p405
aS'd'
p406
ag57
ag405
ag406
ag57
ag405
ag406
ag57
ag405
ag406
ag32
ag8
aS'&'
p407
aS'variable_4'
p408
ag8
ag407
aS'variable_5'
p409
ag8
ag407
aS'variable_6'
p410
ag8
ag407
aS'variable_7'
p411
ag12
aS'=='
p412
ag16
ag12
aS'func_2'
p413
ag5
ag5
ag32
aS'MOZ_UPDATER_PRIO'
p414
ag23
ag405
aS's'
p415
ag32
ag8
aS'variable_3'
p416
ag12
ag12
ag28
aS'if'
p417
ag5
aS'func_3'
p418
ag5
aS'variable_8'
p419
ag8
ag27
ag8
aS'variable_4'
p420
ag12
ag12
aS'func_4'
p421
ag5
ag5
ag32
aS'setpriority'
p422
ag5
ag405
ag406
ag12
aS'failed'
p423
ag8
aS'errno'
p424
ag23
ag405
ag406
ag32
ag8
aS'variable_4'
p425
ag8
aS'variable_9'
p426
ag12
ag12
ag28
aS'if'
p427
ag5
aS'func_5'
p428
ag5
aS'variable_10'
p429
ag8
ag27
ag8
aS'func_6'
p430
ag5
aS'variable_6'
p431
ag8
aS'variable_7'
p432
ag12
ag12
ag12
aS'func_7'
p433
ag5
ag5
ag32
aS'ioprio_set'
p434
ag5
ag405
ag406
ag8
ag405
ag406
ag12
aS'failed'
p435
ag88
aS'errno'
p436
ag23
ag405
ag406
ag32
ag8
aS'variable_6'
p437
ag8
aS'variable_7'
p438
ag8
aS'variable_9'
p439
ag12
ag12
ag28
aS'fprintf'
p440
ag5
aS'variable_11'
p441
ag8
ag32
ag405
ag406
ag32
ag8
aS'variable_5'
p442
ag12
ag28
aS'fclose'
p443
ag5
aS'variable_11'
p444
ag12
ag28
aa(lp445
S'int'
p446
aS'func_0'
p447
ag5
aS'int'
p448
aS'variable_0'
p449
ag8
aS'variable_1'
p450
ag10
ag10
aS'variable_2'
p451
ag12
aS'if'
p452
ag5
aS'variable_0'
p453
ag15
ag16
ag12
aS'if'
p454
ag5
aS'getenv'
p455
ag5
ag32
aS'MOZ_OS_UPDATE'
p456
ag32
ag12
ag12
aa(lp457
S'int'
p458
aS'func_0'
p459
ag5
aS'int'
p460
aS'variable_0'
p461
ag8
aS'variable_1'
p462
ag10
ag10
aS'variable_2'
p463
ag12
aS'if'
p464
ag5
aS'variable_0'
p465
ag15
ag16
ag12
aS'bool'
p466
aS'variable_3'
p467
ag23
aS'getenv'
p468
ag5
ag32
aS'MOZ_NO_SERVICE_FALLBACK'
p469
ag32
ag12
aS'!='
p470
aS'variable_4'
p471
ag28
aS'if'
p472
ag5
aS'variable_5'
p473
aS'=='
p474
aS'variable_6'
p475
aS'||'
p476
ag5
aS'variable_7'
p477
aS'&&'
p478
aS'variable_8'
p479
aS'&&'
p480
aS'variable_3'
p481
ag12
ag12
aS'if'
p482
ag5
ag65
aS'variable_7'
p483
aS'&&'
p484
ag65
aS'variable_3'
p485
aS'&&'
p486
aS'variable_5'
p487
aS'=='
p488
aS'variable_6'
p489
ag12
aS'if'
p490
ag5
ag65
aS'variable_7'
p491
aS'&&'
p492
ag65
aS'variable_3'
p493
aS'&&'
p494
aS'variable_6'
p495
aS'=='
p496
aS'variable_5'
p497
ag12
aa(lp498
S'int'
p499
aS'func_0'
p500
ag5
aS'int'
p501
aS'variable_0'
p502
ag8
aS'variable_1'
p503
ag10
ag10
aS'variable_2'
p504
ag12
aS'if'
p505
ag5
aS'getenv'
p506
ag5
ag32
aS'LD_PRELOAD'
p507
ag32
ag12
ag12
aaa(lp508
I0
aI0
aI0
aI0
aI0
aI0
aa(lp509
I563
aI112
aI32
aI19
aI20
aI13
aa(lp510
(lp511
S'main'
p512
aa(lp513
g512
aa(lp514
g512
aa(lp515
g512
aa(lp516
g512
aa(lp517
g512
aaa(lp518
S'905 /home/SySeVR/data/CVE_2015_0833_PATCHED_NS_main.c getenv 877'
p519
aS'906 /home/SySeVR/data/CVE_2015_0833_PATCHED_NS_main.c getenv 234'
p520
aS'907 /home/SySeVR/data/CVE_2015_0833_PATCHED_NS_main.c getenv 165'
p521
aS'908 /home/SySeVR/data/CVE_2015_0833_PATCHED_NS_main.c getenv 123'
p522
aS'909 /home/SySeVR/data/CVE_2015_0833_PATCHED_NS_main.c getenv 57'
p523
aS'910 /home/SySeVR/data/CVE_2015_0833_PATCHED_NS_main.c getenv 4'
p524
aa.