(lp0
(lp1
(lp2
S'int'
p3
aS'func_0'
p4
aS'('
p5
aS'int'
p6
aS'variable_0'
p7
aS','
p8
aS'variable_1'
p9
aS'*'
p10
ag10
aS'variable_2'
p11
aS')'
p12
aS'if'
p13
ag5
aS'variable_0'
p14
aS'<'
p15
aS'4'
p16
ag12
aS'variable_3'
p17
aS'['
p18
aS'variable_4'
p19
aS'-'
p20
aS'1'
p21
aS']'
p22
aS'='
p23
aS'func_1'
p24
ag5
aS"'"
p25
aS'\\'
p26
aS'0'
p27
ag25
ag12
aS';'
p28
aS'bool'
p29
aS'variable_5'
p30
ag23
aS'getenv'
p31
ag5
aS'"'
p32
aS'MOZ_NO_SERVICE_FALLBACK'
p33
ag32
ag12
aS'!='
p34
aS'variable_6'
p35
ag28
aS'variable_7'
p36
ag23
aS'func_2'
p37
ag5
ag12
ag28
aS'variable_8'
p38
ag23
aS'func_3'
p39
ag5
ag12
ag28
aS'__int64'
p40
aS'variable_9'
p41
ag23
ag27
ag28
aS'if'
p42
ag5
aS'variable_0'
p43
aS'>'
p44
ag16
ag12
aS'variable_9'
p45
ag23
aS'func_4'
p46
ag5
aS'variable_2'
p47
ag18
ag16
ag22
ag12
ag28
aS'if'
p48
ag5
aS'variable_9'
p49
aS'=='
p50
ag20
ag21
ag12
aS'variable_10'
p51
ag23
aS'true'
p52
ag28
aS'if'
p53
ag5
aS'func_5'
p54
ag5
aS'variable_2'
p55
ag18
ag16
ag22
ag8
aS'func_6'
p56
ag5
ag32
aS'/'
p57
aS'replace'
p58
ag32
ag12
ag12
ag12
aS'variable_11'
p59
ag23
aS'true'
p60
ag28
aS'variable_12'
p61
ag18
aS'variable_4'
p62
ag20
ag21
ag22
ag23
aS'func_7'
p63
ag5
ag25
ag26
ag27
ag25
ag12
ag28
aS'if'
p64
ag5
aS'!'
p65
aS'func_8'
p66
ag5
ag32
aS'applying'
p67
ag32
ag12
ag12
aS'if'
p68
ag5
aS'variable_9'
p69
ag44
ag27
ag12
aS'HANDLE'
p70
aS'variable_13'
p71
ag23
aS'OpenProcess'
p72
ag5
aS'variable_14'
p73
ag8
aS'false'
p74
ag8
ag5
aS'variable_15'
p75
ag12
aS'variable_9'
p76
ag12
ag28
aS'if'
p77
ag5
aS'variable_13'
p78
ag12
aS'variable_16'
p79
ag23
aS'func_9'
p80
ag5
aS'variable_0'
p81
ag8
aS'variable_2'
p82
ag12
ag28
aS'DWORD'
p83
aS'variable_17'
p84
ag23
aS'variable_16'
p85
aS'?'
p86
aS'variable_18'
p87
aS':'
p88
aS'variable_19'
p89
ag28
aS'DWORD'
p90
aS'variable_20'
p91
ag23
aS'WaitForSingleObject'
p92
ag5
aS'variable_13'
p93
ag8
aS'variable_17'
p94
ag12
ag28
aS'if'
p95
ag5
aS'variable_20'
p96
aS'!='
p97
aS'variable_21'
p98
aS'&&'
p99
ag65
aS'variable_16'
p100
ag12
aS'const'
p101
aS'int'
p102
aS'variable_22'
p103
ag23
aS'6'
p104
ag28
aS'variable_23'
p105
ag23
aS'getenv'
p106
ag5
ag32
aS'MOZ_USING_SERVICE'
p107
ag32
ag12
aS'!='
p108
aS'variable_6'
p109
ag28
aS'if'
p110
ag5
ag65
aS'variable_23'
p111
aS'&&'
p112
ag5
aS'variable_0'
p113
ag44
aS'variable_22'
p114
aS'||'
p115
aS'variable_10'
p116
aS'||'
p117
aS'variable_11'
p118
ag12
ag12
aS'NS_tchar'
p119
aS'variable_24'
p120
ag18
aS'variable_4'
p121
ag22
ag28
aS'if'
p122
ag5
ag65
aS'func_10'
p123
ag5
aS'variable_24'
p124
ag8
aS'variable_25'
p125
ag12
aS'&&'
p126
aS'func_11'
p127
ag5
aS'variable_24'
p128
ag12
aS'!='
p129
ag27
ag12
aS'variable_26'
p130
ag23
aS'func_12'
p131
ag5
aS'variable_24'
p132
ag8
aS'variable_27'
p133
aS'|'
p134
aS'variable_28'
p135
ag8
ag27
ag8
aS'variable_6'
p136
ag8
aS'variable_29'
p137
ag8
aS'variable_30'
p138
ag8
aS'variable_6'
p139
ag12
ag28
aS'if'
p140
ag5
aS'variable_26'
p141
aS'=='
p142
aS'variable_31'
p143
aS'||'
p144
ag5
aS'variable_7'
p145
aS'&&'
p146
aS'variable_8'
p147
aS'&&'
p148
aS'variable_5'
p149
ag12
ag12
aS'GonkAutoMounter'
p150
aS'variable_32'
p151
ag28
aS'if'
p152
ag5
aS'variable_32'
p153
aS'.'
p154
aS'func_13'
p155
ag5
ag12
aS'!='
p156
aS'variable_33'
p157
ag88
ag88
aS'variable_34'
p158
ag12
aS'if'
p159
ag5
ag65
aS'variable_11'
p160
ag12
aS'if'
p161
ag5
aS'func_14'
p162
ag5
aS'variable_12'
p163
ag12
aS'!='
p164
ag27
ag12
aS'int'
p165
aS'variable_35'
p166
ag23
aS'func_15'
p167
ag5
aS'variable_12'
p168
ag8
aS'0755'
p169
ag12
ag28
aS'if'
p170
ag5
aS'variable_35'
p171
aS'=='
p172
aS'variable_36'
p173
aS'&&'
p174
aS'variable_37'
p175
aS'!='
p176
aS'variable_38'
p177
ag12
aS'if'
p178
ag5
aS'func_16'
p179
ag5
aS'variable_12'
p180
ag12
aS'!='
p181
ag27
ag12
aS'if'
p182
ag5
ag65
aS'variable_11'
p183
ag12
aS'variable_1'
p184
ag10
aS'variable_39'
p185
ag23
ag5
aS'NS_tchar'
p186
ag10
ag12
aS'malloc'
p187
ag5
ag5
aS'func_17'
p188
ag5
aS'variable_12'
p189
ag12
aS'+'
p190
aS'2'
p191
ag12
ag10
aS'sizeof'
p192
ag5
aS'variable_1'
p193
ag12
ag12
ag28
aS'if'
p194
ag5
ag65
aS'variable_39'
p195
ag12
aS'NS_tchar'
p196
aS'variable_40'
p197
ag18
aS'variable_4'
p198
ag22
ag28
aS'if'
p199
ag5
ag65
aS'func_18'
p200
ag5
aS'variable_12'
p201
ag8
aS'variable_40'
p202
ag8
aS'sizeof'
p203
ag5
aS'variable_40'
p204
ag12
ag57
aS'sizeof'
p205
ag5
aS'variable_40'
p206
ag18
ag27
ag22
ag12
ag12
ag12
aS'if'
p207
ag5
aS'variable_0'
p208
ag44
aS'variable_22'
p209
ag12
aS'if'
p210
ag5
aS'variable_11'
p211
ag12
aS'size_t'
p212
aS'variable_41'
p213
ag23
aS'func_19'
p214
ag5
aS'variable_2'
p215
ag18
aS'variable_22'
p216
ag22
ag8
aS'variable_3'
p217
ag8
aS'variable_6'
p218
ag12
ag28
aS'size_t'
p219
aS'variable_42'
p220
ag23
aS'func_20'
p221
ag5
aS'variable_3'
p222
ag190
aS'variable_41'
p223
ag12
ag28
aS'variable_43'
p224
aS'+='
p225
aS'variable_42'
p226
ag28
aS'variable_44'
p227
aS'-='
p228
aS'variable_42'
p229
ag28
ag10
aS'variable_43'
p230
ag23
aS'func_21'
p231
ag5
ag25
ag26
ag26
ag25
ag12
ag28
aS'variable_44'
p232
aS'--'
p233
ag28
ag10
aS'variable_43'
p234
ag23
aS'func_22'
p235
ag5
ag25
ag26
ag27
ag25
ag12
ag28
aS'func_23'
p236
ag5
aS'variable_43'
p237
ag8
aS'variable_2'
p238
ag18
aS'variable_22'
p239
ag22
ag190
aS'variable_45'
p240
ag88
ag88
aS'max'
p241
ag5
aS'variable_46'
p242
ag8
aS'variable_41'
p243
ag12
ag8
aS'variable_44'
p244
ag12
ag28
aaa(lp245
I0
aa(lp246
I444
aa(lp247
(lp248
S'main'
p249
aaa(lp250
S'937 /home/SySeVR/data/CVE_2015_0833_PATCHED_NS_main.c size_t len = NS_tstrlen ( gInstallDirPath + commonPrefixLength ) ; 636'
p251
aa.