(lp0
(lp1
(lp2
S'static'
p3
aS'int'
p4
aS'func_0'
p5
aS'('
p6
aS'u8'
p7
aS'variable_0'
p8
aS','
p9
aS'variable_1'
p10
aS'*'
p11
aS'variable_2'
p12
ag9
aS'size_t'
p13
aS'variable_3'
p14
ag9
aS'variable_1'
p15
ag11
aS'variable_4'
p16
ag9
aS'size_t'
p17
aS'variable_5'
p18
aS')'
p19
aS'const'
p20
aS'u8'
p21
ag11
aS'variable_6'
p22
aS'='
p23
aS'func_1'
p24
ag6
aS'variable_0'
p25
ag9
aS'variable_2'
p26
ag9
aS'variable_3'
p27
ag19
aS';'
p28
aS'const'
p29
aS'u8'
p30
ag11
aS'variable_7'
p31
ag23
aS'func_2'
p32
ag6
aS'variable_0'
p33
ag9
aS'variable_4'
p34
ag9
aS'variable_5'
p35
ag19
ag28
aS'int'
p36
aS'variable_8'
p37
ag28
aS'if'
p38
ag6
aS'!'
p39
aS'variable_6'
p40
aS'&&'
p41
ag39
aS'variable_7'
p42
ag19
aS'if'
p43
ag6
ag39
aS'variable_6'
p44
ag19
aS'variable_8'
p45
ag23
aS'memcmp'
p46
ag6
aS'variable_6'
p47
aS'+'
p48
aS'2'
p49
ag9
aS'variable_7'
p50
ag48
ag49
ag9
aS'min'
p51
ag6
aS'variable_6'
p52
aS'['
p53
aS'1'
p54
aS']'
p55
ag9
aS'variable_7'
p56
ag53
ag54
ag55
ag19
ag19
ag28
aS'if'
p57
ag6
aS'variable_8'
p58
aS'=='
p59
aS'0'
p60
aS'&&'
p61
aS'variable_6'
p62
ag53
ag54
ag55
aS'!='
p63
aS'variable_7'
p64
ag53
ag54
ag55
ag19
aS'return'
p65
aS'variable_8'
p66
ag28
aaa(lp67
I0
aa(lp68
I67
aa(lp69
(lp70
S'main'
p71
aaa(lp72
S'370 /home/SySeVR/data/CVE_2009_2844_VULN_cmp_ies.c memcmp 12'
p73
aa.