(lp0
(lp1
(lp2
S'func_0'
p3
aS'('
p4
aS'const'
p5
aS'const'
p6
aS'struct'
p7
aS'variable_0'
p8
aS'*'
p9
aS'variable_1'
p10
aS')'
p11
aS'char'
p12
ag9
aS'variable_2'
p13
aS','
p14
ag9
aS'variable_3'
p15
aS';'
p16
aS'unsigned'
p17
aS'int'
p18
aS'variable_4'
p19
aS'='
p20
aS'variable_5'
p21
aS'->'
p22
aS'variable_6'
p23
aS'?'
p24
aS'strlen'
p25
ag4
aS'variable_5'
p26
aS'->'
p27
aS'variable_6'
p28
ag11
aS'+'
p29
aS'1'
p30
aS':'
p31
aS'0'
p32
ag16
aS'unsigned'
p33
aS'int'
p34
aS'variable_7'
p35
ag20
aS'func_1'
p36
ag4
aS'variable_5'
p37
aS'->'
p38
aS'variable_8'
p39
ag14
aS'variable_9'
p40
ag29
ag30
ag11
ag16
aS'variable_2'
p41
ag20
aS'kmalloc'
p42
ag4
aS'variable_7'
p43
ag29
aS'variable_4'
p44
ag29
ag30
ag14
aS'variable_10'
p45
ag11
ag16
aS'if'
p46
ag4
aS'variable_2'
p47
aS'=='
p48
aS'NULL'
p49
ag11
aS'strncpy'
p50
ag4
aS'variable_2'
p51
ag14
aS'variable_5'
p52
aS'->'
p53
aS'variable_8'
p54
ag14
aS'variable_7'
p55
ag11
ag16
aS'variable_3'
p56
ag20
aS'variable_2'
p57
ag29
aS'variable_7'
p58
ag16
aS'if'
p59
ag4
aS'variable_4'
p60
ag11
ag9
aS'variable_3'
p61
ag20
aS'func_2'
p62
ag4
aS'variable_1'
p63
ag11
ag16
aS'strncpy'
p64
ag4
aS'variable_3'
p65
ag29
ag30
ag14
aS'variable_5'
p66
aS'->'
p67
aS'variable_6'
p68
ag14
aS'variable_4'
p69
ag11
ag16
aS'variable_3'
p70
aS'+='
p71
aS'variable_4'
p72
ag16
ag9
aS'variable_3'
p73
ag20
aS"'"
p74
aS'\\'
p75
ag32
ag74
ag16
aa(lp76
S'func_0'
p77
ag4
aS'const'
p78
aS'const'
p79
aS'struct'
p80
aS'variable_0'
p81
ag9
aS'variable_1'
p82
ag11
aS'char'
p83
ag9
aS'variable_2'
p84
ag14
ag9
aS'variable_3'
p85
ag16
aS'unsigned'
p86
aS'int'
p87
aS'variable_4'
p88
ag20
aS'variable_5'
p89
aS'->'
p90
aS'variable_6'
p91
ag24
aS'strlen'
p92
ag4
aS'variable_5'
p93
aS'->'
p94
aS'variable_6'
p95
ag11
ag29
ag30
ag31
ag32
ag16
aS'unsigned'
p96
aS'int'
p97
aS'variable_7'
p98
ag20
aS'func_1'
p99
ag4
aS'variable_5'
p100
aS'->'
p101
aS'variable_8'
p102
ag14
aS'variable_9'
p103
ag29
ag30
ag11
ag16
aS'variable_2'
p104
ag20
aS'kmalloc'
p105
ag4
aS'variable_7'
p106
ag29
aS'variable_4'
p107
ag29
ag30
ag14
aS'variable_10'
p108
ag11
ag16
aS'if'
p109
ag4
aS'variable_2'
p110
aS'=='
p111
aS'NULL'
p112
ag11
aS'strncpy'
p113
ag4
aS'variable_2'
p114
ag14
aS'variable_5'
p115
aS'->'
p116
aS'variable_8'
p117
ag14
aS'variable_7'
p118
ag11
ag16
aS'variable_3'
p119
ag20
aS'variable_2'
p120
ag29
aS'variable_7'
p121
ag16
ag9
aS'variable_3'
p122
ag20
aS'func_2'
p123
ag4
aS'variable_1'
p124
ag11
ag16
aS'strncpy'
p125
ag4
aS'variable_3'
p126
ag29
ag30
ag14
aS'variable_5'
p127
aS'->'
p128
aS'variable_6'
p129
ag14
aS'variable_4'
p130
ag11
ag16
aS'variable_3'
p131
aS'+='
p132
aS'variable_4'
p133
ag16
ag9
aS'variable_3'
p134
ag20
ag74
ag75
ag32
ag74
ag16
aS'func_3'
p135
ag4
aS'variable_2'
p136
ag14
aS'func_4'
p137
ag4
aS'variable_1'
p138
ag11
ag11
ag16
aS'func_5'
p139
ag4
ag30
ag14
aS'"'
p140
aS'%'
p141
aS's'
p142
ag31
aS'full_path'
p143
ag20
ag141
ag142
ag140
ag14
aS'variable_11'
p144
ag14
aS'variable_2'
p145
ag11
ag16
aS'return'
p146
aS'variable_2'
p147
ag16
aaa(lp148
I0
aI0
aa(lp149
I100
aI71
aa(lp150
(lp151
S'main'
p152
aa(lp153
g152
aaa(lp154
S'365 /home/SySeVR/data/CVE_2013_4247_PATCHED_build_unc_path_to_root.c strncpy 18'
p155
aS'366 /home/SySeVR/data/CVE_2013_4247_PATCHED_build_unc_path_to_root.c strncpy 13'
p156
aa.