(lp0
(lp1
(lp2
S'func_0'
p3
aS'('
p4
aS'const'
p5
aS'const'
p6
aS'struct'
p7
aS'variable_0'
p8
aS'*'
p9
aS'variable_1'
p10
aS')'
p11
aS'char'
p12
ag9
aS'variable_2'
p13
aS','
p14
ag9
aS'variable_3'
p15
aS';'
p16
aS'unsigned'
p17
aS'int'
p18
aS'variable_4'
p19
aS'='
p20
aS'variable_5'
p21
aS'->'
p22
aS'variable_6'
p23
aS'?'
p24
aS'strlen'
p25
ag4
aS'variable_5'
p26
aS'->'
p27
aS'variable_6'
p28
ag11
aS'+'
p29
aS'1'
p30
aS':'
p31
aS'0'
p32
ag16
aS'unsigned'
p33
aS'int'
p34
aS'variable_7'
p35
ag20
aS'func_1'
p36
ag4
aS'variable_5'
p37
aS'->'
p38
aS'variable_8'
p39
ag14
aS'variable_9'
p40
ag29
ag30
ag11
ag16
aS'variable_2'
p41
ag20
aS'kmalloc'
p42
ag4
aS'variable_7'
p43
ag29
aS'variable_4'
p44
ag29
ag30
ag14
aS'variable_10'
p45
ag11
ag16
aS'if'
p46
ag4
aS'variable_2'
p47
aS'=='
p48
aS'NULL'
p49
ag11
aS'strncpy'
p50
ag4
aS'variable_2'
p51
ag14
aS'variable_5'
p52
aS'->'
p53
aS'variable_8'
p54
ag14
aS'variable_7'
p55
ag11
ag16
aS'variable_3'
p56
ag20
aS'variable_2'
p57
ag29
aS'variable_7'
p58
ag16
ag9
aS'variable_3'
p59
ag20
aS'func_2'
p60
ag4
aS'variable_1'
p61
ag11
ag16
aS'strncpy'
p62
ag4
aS'variable_3'
p63
ag29
ag30
ag14
aS'variable_5'
p64
aS'->'
p65
aS'variable_6'
p66
ag14
aS'variable_4'
p67
ag11
ag16
aS'variable_3'
p68
aS'+='
p69
aS'variable_4'
p70
ag16
ag9
aS'variable_3'
p71
ag20
aS"'"
p72
aS'\\'
p73
ag32
ag72
ag16
aa(lp74
S'func_0'
p75
ag4
aS'const'
p76
aS'const'
p77
aS'struct'
p78
aS'variable_0'
p79
ag9
aS'variable_1'
p80
ag11
aS'char'
p81
ag9
aS'variable_2'
p82
ag14
ag9
aS'variable_3'
p83
ag16
aS'unsigned'
p84
aS'int'
p85
aS'variable_4'
p86
ag20
aS'variable_5'
p87
aS'->'
p88
aS'variable_6'
p89
ag24
aS'strlen'
p90
ag4
aS'variable_5'
p91
aS'->'
p92
aS'variable_6'
p93
ag11
ag29
ag30
ag31
ag32
ag16
aS'unsigned'
p94
aS'int'
p95
aS'variable_7'
p96
ag20
aS'func_1'
p97
ag4
aS'variable_5'
p98
aS'->'
p99
aS'variable_8'
p100
ag14
aS'variable_9'
p101
ag29
ag30
ag11
ag16
aS'variable_2'
p102
ag20
aS'kmalloc'
p103
ag4
aS'variable_7'
p104
ag29
aS'variable_4'
p105
ag29
ag30
ag14
aS'variable_10'
p106
ag11
ag16
aS'if'
p107
ag4
aS'variable_2'
p108
aS'=='
p109
aS'NULL'
p110
ag11
aS'strncpy'
p111
ag4
aS'variable_2'
p112
ag14
aS'variable_5'
p113
aS'->'
p114
aS'variable_8'
p115
ag14
aS'variable_7'
p116
ag11
ag16
aS'variable_3'
p117
ag20
aS'variable_2'
p118
ag29
aS'variable_7'
p119
ag16
ag9
aS'variable_3'
p120
ag20
aS'func_2'
p121
ag4
aS'variable_1'
p122
ag11
ag16
aS'strncpy'
p123
ag4
aS'variable_3'
p124
ag29
ag30
ag14
aS'variable_5'
p125
aS'->'
p126
aS'variable_6'
p127
ag14
aS'variable_4'
p128
ag11
ag16
aS'variable_3'
p129
aS'+='
p130
aS'variable_4'
p131
ag16
ag9
aS'variable_3'
p132
ag20
ag72
ag73
ag32
ag72
ag16
aS'func_3'
p133
ag4
aS'variable_2'
p134
ag14
aS'func_4'
p135
ag4
aS'variable_1'
p136
ag11
ag11
ag16
aS'func_5'
p137
ag4
ag30
ag14
aS'"'
p138
aS'%'
p139
aS's'
p140
ag31
aS'full_path'
p141
ag20
ag139
ag140
ag138
ag14
aS'variable_11'
p142
ag14
aS'variable_2'
p143
ag11
ag16
aS'return'
p144
aS'variable_2'
p145
ag16
aaa(lp146
I0
aI0
aa(lp147
I86
aI63
aa(lp148
(lp149
S'main'
p150
aa(lp151
g150
aaa(lp152
S'516 /home/SySeVR/data/CVE_2013_4247_PATCHED_build_unc_path_to_root.c pos = full_path + unc_len 14'
p153
aS'517 /home/SySeVR/data/CVE_2013_4247_PATCHED_build_unc_path_to_root.c full_path = kmalloc ( unc_len + pplen + 1 , GFP_KERNEL ) 9'
p154
aa.