(lp0
(lp1
(lp2
S'static'
p3
aS'int'
p4
aS'func_0'
p5
aS'('
p6
aS'variable_0'
p7
aS'*'
p8
aS'variable_1'
p9
aS','
p10
aS'variable_2'
p11
ag8
aS'variable_3'
p12
aS')'
p13
aS'int'
p14
aS'variable_4'
p15
ag10
aS'variable_5'
p16
ag10
aS'variable_6'
p17
aS';'
p18
aS'int'
p19
aS'variable_7'
p20
ag10
aS'variable_8'
p21
ag18
aS'for'
p22
ag6
aS'variable_4'
p23
aS'='
p24
aS'0'
p25
ag18
aS'variable_4'
p26
aS'<'
p27
aS'variable_1'
p28
aS'->'
p29
aS'variable_9'
p30
ag18
aS'variable_4'
p31
aS'++'
p32
ag13
aS'variable_10'
p33
ag8
aS'variable_11'
p34
ag24
aS'variable_12'
p35
aS'->'
p36
aS'variable_11'
p37
aS'+'
p38
aS'variable_4'
p39
ag18
aS'variable_13'
p40
ag8
aS'variable_14'
p41
ag24
aS'variable_12'
p42
aS'->'
p43
aS'variable_14'
p44
ag38
aS'variable_4'
p45
ag18
aS'for'
p46
ag6
aS'variable_5'
p47
ag24
ag25
ag18
aS'variable_5'
p48
ag27
aS'variable_14'
p49
aS'->'
p50
aS'variable_15'
p51
ag18
aS'variable_5'
p52
aS'++'
p53
ag13
aS'variable_16'
p54
ag8
aS'variable_17'
p55
ag24
aS'variable_11'
p56
aS'->'
p57
aS'variable_18'
p58
ag38
aS'variable_5'
p59
ag18
aS'for'
p60
ag6
aS'variable_6'
p61
ag24
ag25
ag18
aS'variable_6'
p62
ag27
aS'variable_17'
p63
aS'->'
p64
aS'variable_19'
p65
ag18
aS'variable_6'
p66
aS'++'
p67
ag13
aS'int'
p68
aS'variable_20'
p69
ag10
aS'variable_21'
p70
ag18
aS'variable_22'
p71
ag8
aS'variable_23'
p72
ag24
aS'variable_17'
p73
aS'->'
p74
aS'variable_23'
p75
ag38
aS'variable_6'
p76
ag18
aS'if'
p77
ag6
aS'variable_23'
p78
aS'->'
p79
aS'variable_24'
p80
aS'['
p81
ag25
aS']'
p82
ag81
ag25
ag82
aS'=='
p83
aS'variable_23'
p84
aS'->'
p85
aS'variable_24'
p86
ag81
ag25
ag82
ag81
aS'1'
p87
ag82
aS'||'
p88
aS'variable_23'
p89
aS'->'
p90
aS'variable_24'
p91
ag81
ag87
ag82
ag81
ag25
ag82
aS'=='
p92
aS'variable_23'
p93
aS'->'
p94
aS'variable_24'
p95
ag81
ag87
ag82
ag81
ag87
ag82
ag13
aS'variable_20'
p96
ag24
aS'variable_17'
p97
aS'->'
p98
aS'variable_25'
p99
ag8
aS'variable_17'
p100
aS'->'
p101
aS'variable_26'
p102
ag18
aS'for'
p103
ag6
aS'variable_21'
p104
ag24
ag25
ag18
aS'variable_21'
p105
ag27
aS'variable_20'
p106
ag18
aS'variable_21'
p107
aS'++'
p108
ag13
aS'variable_27'
p109
ag8
aS'variable_28'
p110
ag24
aS'variable_23'
p111
aS'->'
p112
aS'variable_28'
p113
ag38
aS'variable_21'
p114
ag18
aS'for'
p115
ag6
aS'variable_29'
p116
ag24
ag25
ag18
aS'variable_29'
p117
ag27
aS'variable_28'
p118
aS'->'
p119
aS'variable_30'
p120
ag8
aS'variable_28'
p121
aS'->'
p122
aS'variable_31'
p123
ag18
aS'variable_29'
p124
aS'++'
p125
ag13
aS'int'
p126
aS'variable_7'
p127
ag10
aS'variable_8'
p128
ag18
aS'variable_32'
p129
ag8
aS'variable_33'
p130
ag24
aS'variable_28'
p131
aS'->'
p132
aS'variable_33'
p133
ag38
aS'variable_29'
p134
ag18
aS'variable_7'
p135
ag24
aS'variable_33'
p136
aS'->'
p137
aS'variable_24'
p138
ag81
ag25
ag82
ag81
ag25
ag82
ag18
aS'if'
p139
ag6
aS'variable_1'
p140
aS'->'
p141
aS'variable_34'
p142
ag81
ag25
ag82
ag27
ag25
ag13
aS'for'
p143
ag6
aS'variable_7'
p144
ag24
ag25
ag18
aS'variable_7'
p145
ag27
aS'variable_1'
p146
aS'->'
p147
aS'variable_9'
p148
ag18
aS'variable_7'
p149
aS'++'
p150
ag13
aS'variable_1'
p151
aS'->'
p152
aS'variable_34'
p153
ag81
aS'variable_7'
p154
ag82
ag24
aS'variable_7'
p155
ag38
ag87
ag18
aS'if'
p156
ag6
ag6
aS'variable_1'
p157
aS'->'
p158
aS'variable_9'
p159
aS'&'
p160
ag87
ag13
aS'=='
p161
ag25
ag13
aS'variable_1'
p162
aS'->'
p163
aS'variable_34'
p164
ag81
aS'variable_1'
p165
aS'->'
p166
aS'variable_9'
p167
aS'-'
p168
ag87
ag82
ag24
ag25
ag18
aS'if'
p169
ag6
aS'variable_1'
p170
aS'->'
p171
aS'variable_35'
p172
ag27
ag24
aS'8'
p173
ag13
aS'for'
p174
ag6
aS'variable_4'
p175
ag24
ag25
ag18
aS'variable_4'
p176
ag27
aS'variable_1'
p177
aS'->'
p178
aS'variable_9'
p179
ag18
aS'variable_4'
p180
aS'++'
p181
ag13
aS'variable_13'
p182
ag8
aS'variable_14'
p183
ag24
aS'variable_12'
p184
aS'->'
p185
aS'variable_14'
p186
ag38
aS'variable_4'
p187
ag18
aS'if'
p188
ag6
aS'variable_14'
p189
aS'->'
p190
aS'variable_36'
p191
aS'=='
p192
aS'variable_37'
p193
ag13
aa(lp194
S'static'
p195
aS'int'
p196
aS'func_0'
p197
ag6
aS'variable_0'
p198
ag8
aS'variable_1'
p199
ag10
aS'variable_2'
p200
ag8
aS'variable_3'
p201
ag13
aS'int'
p202
aS'variable_4'
p203
ag10
aS'variable_5'
p204
ag10
aS'variable_6'
p205
ag18
aS'int'
p206
aS'variable_7'
p207
ag10
aS'variable_8'
p208
ag18
aS'for'
p209
ag6
aS'variable_4'
p210
ag24
ag25
ag18
aS'variable_4'
p211
ag27
aS'variable_1'
p212
aS'->'
p213
aS'variable_9'
p214
ag18
aS'variable_4'
p215
aS'++'
p216
ag13
aS'variable_10'
p217
ag8
aS'variable_11'
p218
ag24
aS'variable_12'
p219
aS'->'
p220
aS'variable_11'
p221
ag38
aS'variable_4'
p222
ag18
aS'variable_13'
p223
ag8
aS'variable_14'
p224
ag24
aS'variable_12'
p225
aS'->'
p226
aS'variable_14'
p227
ag38
aS'variable_4'
p228
ag18
aS'for'
p229
ag6
aS'variable_5'
p230
ag24
ag25
ag18
aS'variable_5'
p231
ag27
aS'variable_14'
p232
aS'->'
p233
aS'variable_15'
p234
ag18
aS'variable_5'
p235
aS'++'
p236
ag13
aS'variable_16'
p237
ag8
aS'variable_17'
p238
ag24
aS'variable_11'
p239
aS'->'
p240
aS'variable_18'
p241
ag38
aS'variable_5'
p242
ag18
aS'for'
p243
ag6
aS'variable_6'
p244
ag24
ag25
ag18
aS'variable_6'
p245
ag27
aS'variable_17'
p246
aS'->'
p247
aS'variable_19'
p248
ag18
aS'variable_6'
p249
aS'++'
p250
ag13
aS'int'
p251
aS'variable_20'
p252
ag10
aS'variable_21'
p253
ag18
aS'variable_22'
p254
ag8
aS'variable_23'
p255
ag24
aS'variable_17'
p256
aS'->'
p257
aS'variable_23'
p258
ag38
aS'variable_6'
p259
ag18
aS'if'
p260
ag6
aS'variable_23'
p261
aS'->'
p262
aS'variable_24'
p263
ag81
ag25
ag82
ag81
ag25
ag82
aS'=='
p264
aS'variable_23'
p265
aS'->'
p266
aS'variable_24'
p267
ag81
ag25
ag82
ag81
ag87
ag82
aS'||'
p268
aS'variable_23'
p269
aS'->'
p270
aS'variable_24'
p271
ag81
ag87
ag82
ag81
ag25
ag82
aS'=='
p272
aS'variable_23'
p273
aS'->'
p274
aS'variable_24'
p275
ag81
ag87
ag82
ag81
ag87
ag82
ag13
aS'variable_20'
p276
ag24
aS'variable_17'
p277
aS'->'
p278
aS'variable_25'
p279
ag8
aS'variable_17'
p280
aS'->'
p281
aS'variable_26'
p282
ag18
aS'for'
p283
ag6
aS'variable_21'
p284
ag24
ag25
ag18
aS'variable_21'
p285
ag27
aS'variable_20'
p286
ag18
aS'variable_21'
p287
aS'++'
p288
ag13
aS'variable_27'
p289
ag8
aS'variable_28'
p290
ag24
aS'variable_23'
p291
aS'->'
p292
aS'variable_28'
p293
ag38
aS'variable_21'
p294
ag18
aS'for'
p295
ag6
aS'variable_29'
p296
ag24
ag25
ag18
aS'variable_29'
p297
ag27
aS'variable_28'
p298
aS'->'
p299
aS'variable_30'
p300
ag8
aS'variable_28'
p301
aS'->'
p302
aS'variable_31'
p303
ag18
aS'variable_29'
p304
aS'++'
p305
ag13
aS'int'
p306
aS'variable_7'
p307
ag10
aS'variable_8'
p308
ag18
aS'variable_32'
p309
ag8
aS'variable_33'
p310
ag24
aS'variable_28'
p311
aS'->'
p312
aS'variable_33'
p313
ag38
aS'variable_29'
p314
ag18
aS'variable_7'
p315
ag24
aS'variable_33'
p316
aS'->'
p317
aS'variable_24'
p318
ag81
ag25
ag82
ag81
ag25
ag82
ag18
aS'if'
p319
ag6
aS'variable_1'
p320
aS'->'
p321
aS'variable_34'
p322
ag81
ag25
ag82
ag27
ag25
ag13
aS'for'
p323
ag6
aS'variable_7'
p324
ag24
ag25
ag18
aS'variable_7'
p325
ag27
aS'variable_1'
p326
aS'->'
p327
aS'variable_9'
p328
ag18
aS'variable_7'
p329
aS'++'
p330
ag13
aS'variable_1'
p331
aS'->'
p332
aS'variable_34'
p333
ag81
aS'variable_7'
p334
ag82
ag24
aS'variable_7'
p335
ag38
ag87
ag18
aS'if'
p336
ag6
ag6
aS'variable_1'
p337
aS'->'
p338
aS'variable_9'
p339
ag160
ag87
ag13
aS'=='
p340
ag25
ag13
aS'variable_1'
p341
aS'->'
p342
aS'variable_34'
p343
ag81
aS'variable_1'
p344
aS'->'
p345
aS'variable_9'
p346
ag168
ag87
ag82
ag24
ag25
ag18
aS'if'
p347
ag6
aS'variable_1'
p348
aS'->'
p349
aS'variable_35'
p350
ag27
ag24
ag173
ag13
aS'for'
p351
ag6
aS'variable_4'
p352
ag24
ag25
ag18
aS'variable_4'
p353
ag27
aS'variable_1'
p354
aS'->'
p355
aS'variable_9'
p356
ag18
aS'variable_4'
p357
aS'++'
p358
ag13
aS'variable_10'
p359
ag8
aS'variable_11'
p360
ag24
aS'variable_12'
p361
aS'->'
p362
aS'variable_11'
p363
ag38
aS'variable_4'
p364
ag18
aS'float'
p365
ag8
aS'variable_36'
p366
ag24
aS'variable_11'
p367
aS'->'
p368
aS'variable_37'
p369
ag18
aS'variable_38'
p370
ag8
aS'variable_39'
p371
ag24
aS'variable_11'
p372
aS'->'
p373
aS'variable_40'
p374
ag18
aS'int'
p375
aS'variable_41'
p376
ag24
aS'lrintf'
p377
ag6
ag8
aS'variable_36'
p378
ag13
ag38
ag6
ag87
aS'<<'
p379
ag6
aS'variable_42'
p380
ag168
ag87
ag13
ag13
ag18
aS'variable_41'
p381
ag24
aS'func_1'
p382
ag6
aS'variable_41'
p383
ag10
ag25
ag10
ag6
ag87
aS'<<'
p384
aS'variable_42'
p385
ag13
ag168
ag87
ag13
ag18
ag8
aS'variable_43'
p386
ag24
aS'variable_41'
p387
aS'<<'
p388
ag6
aS'16'
p389
ag168
aS'variable_42'
p390
ag13
ag18
aS'variable_36'
p391
aS'++'
p392
ag18
aS'variable_43'
p393
aS'+='
p394
aS'variable_44'
p395
ag18
aS'int'
p396
aS'variable_41'
p397
ag24
ag8
aS'variable_39'
p398
ag38
ag6
ag87
aS'<<'
p399
ag6
aS'variable_42'
p400
ag168
ag87
ag13
ag13
ag18
aS'variable_41'
p401
ag24
aS'func_2'
p402
ag6
aS'variable_41'
p403
ag10
ag25
ag10
ag6
ag87
aS'<<'
p404
aS'variable_42'
p405
ag13
ag168
ag87
ag13
ag18
ag8
aS'variable_43'
p406
ag24
aS'variable_41'
p407
aS'<<'
p408
ag6
aS'16'
p409
ag168
aS'variable_42'
p410
ag13
ag18
aS'variable_39'
p411
aS'++'
p412
ag18
aS'variable_43'
p413
aS'+='
p414
aS'variable_44'
p415
ag18
aa(lp416
S'static'
p417
aS'int'
p418
aS'func_0'
p419
ag6
aS'variable_0'
p420
ag8
aS'variable_1'
p421
ag10
aS'variable_2'
p422
ag8
aS'variable_3'
p423
ag13
aS'int'
p424
aS'variable_4'
p425
ag10
aS'variable_5'
p426
ag10
aS'variable_6'
p427
ag18
aS'int'
p428
aS'variable_7'
p429
ag10
aS'variable_8'
p430
ag18
aS'for'
p431
ag6
aS'variable_4'
p432
ag24
ag25
ag18
aS'variable_4'
p433
ag27
aS'variable_1'
p434
aS'->'
p435
aS'variable_9'
p436
ag18
aS'variable_4'
p437
aS'++'
p438
ag13
aS'variable_10'
p439
ag8
aS'variable_11'
p440
ag24
aS'variable_12'
p441
aS'->'
p442
aS'variable_11'
p443
ag38
aS'variable_4'
p444
ag18
aS'variable_13'
p445
ag8
aS'variable_14'
p446
ag24
aS'variable_12'
p447
aS'->'
p448
aS'variable_14'
p449
ag38
aS'variable_4'
p450
ag18
aS'for'
p451
ag6
aS'variable_5'
p452
ag24
ag25
ag18
aS'variable_5'
p453
ag27
aS'variable_14'
p454
aS'->'
p455
aS'variable_15'
p456
ag18
aS'variable_5'
p457
aS'++'
p458
ag13
aS'variable_16'
p459
ag8
aS'variable_17'
p460
ag24
aS'variable_11'
p461
aS'->'
p462
aS'variable_18'
p463
ag38
aS'variable_5'
p464
ag18
aS'for'
p465
ag6
aS'variable_6'
p466
ag24
ag25
ag18
aS'variable_6'
p467
ag27
aS'variable_17'
p468
aS'->'
p469
aS'variable_19'
p470
ag18
aS'variable_6'
p471
aS'++'
p472
ag13
aS'int'
p473
aS'variable_20'
p474
ag10
aS'variable_21'
p475
ag18
aS'variable_22'
p476
ag8
aS'variable_23'
p477
ag24
aS'variable_17'
p478
aS'->'
p479
aS'variable_23'
p480
ag38
aS'variable_6'
p481
ag18
aS'if'
p482
ag6
aS'variable_23'
p483
aS'->'
p484
aS'variable_24'
p485
ag81
ag25
ag82
ag81
ag25
ag82
aS'=='
p486
aS'variable_23'
p487
aS'->'
p488
aS'variable_24'
p489
ag81
ag25
ag82
ag81
ag87
ag82
aS'||'
p490
aS'variable_23'
p491
aS'->'
p492
aS'variable_24'
p493
ag81
ag87
ag82
ag81
ag25
ag82
aS'=='
p494
aS'variable_23'
p495
aS'->'
p496
aS'variable_24'
p497
ag81
ag87
ag82
ag81
ag87
ag82
ag13
aS'variable_20'
p498
ag24
aS'variable_17'
p499
aS'->'
p500
aS'variable_25'
p501
ag8
aS'variable_17'
p502
aS'->'
p503
aS'variable_26'
p504
ag18
aS'for'
p505
ag6
aS'variable_21'
p506
ag24
ag25
ag18
aS'variable_21'
p507
ag27
aS'variable_20'
p508
ag18
aS'variable_21'
p509
aS'++'
p510
ag13
aS'variable_27'
p511
ag8
aS'variable_28'
p512
ag24
aS'variable_23'
p513
aS'->'
p514
aS'variable_28'
p515
ag38
aS'variable_21'
p516
ag18
aS'for'
p517
ag6
aS'variable_29'
p518
ag24
ag25
ag18
aS'variable_29'
p519
ag27
aS'variable_28'
p520
aS'->'
p521
aS'variable_30'
p522
ag8
aS'variable_28'
p523
aS'->'
p524
aS'variable_31'
p525
ag18
aS'variable_29'
p526
aS'++'
p527
ag13
aS'int'
p528
aS'variable_7'
p529
ag10
aS'variable_8'
p530
ag18
aS'variable_32'
p531
ag8
aS'variable_33'
p532
ag24
aS'variable_28'
p533
aS'->'
p534
aS'variable_33'
p535
ag38
aS'variable_29'
p536
ag18
aS'variable_7'
p537
ag24
aS'variable_33'
p538
aS'->'
p539
aS'variable_24'
p540
ag81
ag25
ag82
ag81
ag25
ag82
ag18
aS'if'
p541
ag6
aS'variable_1'
p542
aS'->'
p543
aS'variable_34'
p544
ag81
ag25
ag82
ag27
ag25
ag13
aS'for'
p545
ag6
aS'variable_7'
p546
ag24
ag25
ag18
aS'variable_7'
p547
ag27
aS'variable_1'
p548
aS'->'
p549
aS'variable_9'
p550
ag18
aS'variable_7'
p551
aS'++'
p552
ag13
aS'variable_1'
p553
aS'->'
p554
aS'variable_34'
p555
ag81
aS'variable_7'
p556
ag82
ag24
aS'variable_7'
p557
ag38
ag87
ag18
aS'if'
p558
ag6
ag6
aS'variable_1'
p559
aS'->'
p560
aS'variable_9'
p561
ag160
ag87
ag13
aS'=='
p562
ag25
ag13
aS'variable_1'
p563
aS'->'
p564
aS'variable_34'
p565
ag81
aS'variable_1'
p566
aS'->'
p567
aS'variable_9'
p568
ag168
ag87
ag82
ag24
ag25
ag18
aS'if'
p569
ag6
aS'variable_1'
p570
aS'->'
p571
aS'variable_35'
p572
ag27
ag24
ag173
ag13
aS'for'
p573
ag6
aS'variable_4'
p574
ag24
ag25
ag18
aS'variable_4'
p575
ag27
aS'variable_1'
p576
aS'->'
p577
aS'variable_9'
p578
ag18
aS'variable_4'
p579
aS'++'
p580
ag13
aS'variable_10'
p581
ag8
aS'variable_11'
p582
ag24
aS'variable_12'
p583
aS'->'
p584
aS'variable_11'
p585
ag38
aS'variable_4'
p586
ag18
aS'float'
p587
ag8
aS'variable_36'
p588
ag24
aS'variable_11'
p589
aS'->'
p590
aS'variable_37'
p591
ag18
aS'variable_38'
p592
ag8
aS'variable_39'
p593
ag24
aS'variable_11'
p594
aS'->'
p595
aS'variable_40'
p596
ag18
aS'int'
p597
aS'variable_41'
p598
ag24
aS'lrintf'
p599
ag6
ag8
aS'variable_36'
p600
ag13
ag38
ag6
ag87
aS'<<'
p601
ag6
aS'variable_42'
p602
ag168
ag87
ag13
ag13
ag18
aS'variable_41'
p603
ag24
aS'func_1'
p604
ag6
aS'variable_41'
p605
ag10
ag25
ag10
ag6
ag87
aS'<<'
p606
aS'variable_42'
p607
ag13
ag168
ag87
ag13
ag18
ag8
aS'variable_43'
p608
ag24
aS'variable_41'
p609
aS'<<'
p610
ag6
ag173
ag168
aS'variable_42'
p611
ag13
ag18
aS'variable_36'
p612
aS'++'
p613
ag18
aS'variable_43'
p614
aS'+='
p615
aS'variable_44'
p616
ag18
aS'int'
p617
aS'variable_41'
p618
ag24
ag8
aS'variable_39'
p619
ag38
ag6
ag87
aS'<<'
p620
ag6
aS'variable_42'
p621
ag168
ag87
ag13
ag13
ag18
aS'variable_41'
p622
ag24
aS'func_2'
p623
ag6
aS'variable_41'
p624
ag10
ag25
ag10
ag6
ag87
aS'<<'
p625
aS'variable_42'
p626
ag13
ag168
ag87
ag13
ag18
ag8
aS'variable_43'
p627
ag24
aS'variable_41'
p628
aS'<<'
p629
ag6
ag173
ag168
aS'variable_42'
p630
ag13
ag18
aS'variable_39'
p631
aS'++'
p632
ag18
aS'variable_43'
p633
aS'+='
p634
aS'variable_44'
p635
ag18
aa(lp636
S'static'
p637
aS'int'
p638
aS'func_0'
p639
ag6
aS'variable_0'
p640
ag8
aS'variable_1'
p641
ag10
aS'variable_2'
p642
ag8
aS'variable_3'
p643
ag13
aS'int'
p644
aS'variable_4'
p645
ag10
aS'variable_5'
p646
ag10
aS'variable_6'
p647
ag18
aS'for'
p648
ag6
aS'variable_4'
p649
ag24
ag25
ag18
aS'variable_4'
p650
ag27
aS'variable_1'
p651
aS'->'
p652
aS'variable_7'
p653
ag18
aS'variable_4'
p654
aS'++'
p655
ag13
aS'variable_8'
p656
ag8
aS'variable_9'
p657
ag24
aS'variable_10'
p658
aS'->'
p659
aS'variable_9'
p660
ag38
aS'variable_4'
p661
ag18
aS'variable_11'
p662
ag8
aS'variable_12'
p663
ag24
aS'variable_10'
p664
aS'->'
p665
aS'variable_12'
p666
ag38
aS'variable_4'
p667
ag18
aS'for'
p668
ag6
aS'variable_5'
p669
ag24
ag25
ag18
aS'variable_5'
p670
ag27
aS'variable_12'
p671
aS'->'
p672
aS'variable_13'
p673
ag18
aS'variable_5'
p674
aS'++'
p675
ag13
aS'variable_14'
p676
ag8
aS'variable_15'
p677
ag24
aS'variable_9'
p678
aS'->'
p679
aS'variable_16'
p680
ag38
aS'variable_5'
p681
ag18
aS'for'
p682
ag6
aS'variable_6'
p683
ag24
ag25
ag18
aS'variable_6'
p684
ag27
aS'variable_15'
p685
aS'->'
p686
aS'variable_17'
p687
ag18
aS'variable_6'
p688
aS'++'
p689
ag13
aS'int'
p690
aS'variable_18'
p691
ag10
aS'variable_19'
p692
ag18
aS'variable_20'
p693
ag8
aS'variable_21'
p694
ag24
aS'variable_15'
p695
aS'->'
p696
aS'variable_21'
p697
ag38
aS'variable_6'
p698
ag18
aS'if'
p699
ag6
aS'variable_21'
p700
aS'->'
p701
aS'variable_22'
p702
ag81
ag25
ag82
ag81
ag25
ag82
aS'=='
p703
aS'variable_21'
p704
aS'->'
p705
aS'variable_22'
p706
ag81
ag25
ag82
ag81
ag87
ag82
aS'||'
p707
aS'variable_21'
p708
aS'->'
p709
aS'variable_22'
p710
ag81
ag87
ag82
ag81
ag25
ag82
aS'=='
p711
aS'variable_21'
p712
aS'->'
p713
aS'variable_22'
p714
ag81
ag87
ag82
ag81
ag87
ag82
ag13
aS'variable_18'
p715
ag24
aS'variable_15'
p716
aS'->'
p717
aS'variable_23'
p718
ag8
aS'variable_15'
p719
aS'->'
p720
aS'variable_24'
p721
ag18
aS'for'
p722
ag6
aS'variable_19'
p723
ag24
ag25
ag18
aS'variable_19'
p724
ag27
aS'variable_18'
p725
ag18
aS'variable_19'
p726
aS'++'
p727
ag13
aS'variable_25'
p728
ag8
aS'variable_26'
p729
ag24
aS'variable_21'
p730
aS'->'
p731
aS'variable_26'
p732
ag38
aS'variable_19'
p733
ag18
aS'for'
p734
ag6
aS'variable_27'
p735
ag24
ag25
ag18
aS'variable_27'
p736
ag27
aS'variable_26'
p737
aS'->'
p738
aS'variable_28'
p739
ag8
aS'variable_26'
p740
aS'->'
p741
aS'variable_29'
p742
ag18
aS'variable_27'
p743
aS'++'
p744
ag13
aS'variable_30'
p745
ag8
aS'variable_31'
p746
ag24
aS'variable_26'
p747
aS'->'
p748
aS'variable_31'
p749
ag38
aS'variable_27'
p750
ag18
aS'func_1'
p751
ag6
aS'variable_1'
p752
ag10
aS'variable_12'
p753
ag10
ag160
aS'variable_32'
p754
ag10
aS'variable_31'
p755
ag10
aS'variable_31'
p756
aS'->'
p757
aS'variable_22'
p758
ag81
ag25
ag82
ag81
ag87
ag82
ag168
aS'variable_31'
p759
aS'->'
p760
aS'variable_22'
p761
ag81
ag25
ag82
ag81
ag25
ag82
ag10
aS'variable_31'
p762
aS'->'
p763
aS'variable_22'
p764
ag81
ag87
ag82
ag81
ag87
ag82
ag168
aS'variable_31'
p765
aS'->'
p766
aS'variable_22'
p767
ag81
ag87
ag82
ag81
ag25
ag82
ag10
aS'variable_33'
p768
ag13
ag18
aS'variable_34'
p769
ag24
aS'variable_31'
p770
aS'->'
p771
aS'variable_22'
p772
ag81
ag25
ag82
ag81
ag25
ag82
ag18
aS'variable_35'
p773
ag24
aS'variable_31'
p774
aS'->'
p775
aS'variable_22'
p776
ag81
ag87
ag82
ag81
ag25
ag82
ag18
aS'func_2'
p777
ag6
aS'variable_34'
p778
ag10
aS'variable_35'
p779
ag10
aS'variable_31'
p780
ag10
aS'variable_9'
p781
ag10
ag160
aS'variable_32'
p782
ag10
aS'variable_21'
p783
ag13
ag18
aS'func_3'
p784
ag6
aS'variable_34'
p785
ag10
aS'variable_35'
p786
ag10
aS'variable_31'
p787
ag10
aS'variable_9'
p788
ag10
ag160
aS'variable_32'
p789
ag10
aS'variable_21'
p790
ag13
ag18
aS'for'
p791
ag6
aS'variable_34'
p792
ag24
ag25
ag18
aS'variable_34'
p793
ag27
aS'variable_1'
p794
aS'->'
p795
aS'variable_7'
p796
ag18
aS'variable_34'
p797
aS'++'
p798
ag13
aS'variable_1'
p799
aS'->'
p800
aS'variable_36'
p801
ag81
aS'variable_34'
p802
ag82
ag24
aS'variable_34'
p803
ag38
ag87
ag18
aS'if'
p804
ag6
ag6
aS'variable_1'
p805
aS'->'
p806
aS'variable_7'
p807
ag160
ag87
ag13
aS'=='
p808
ag25
ag13
aS'variable_1'
p809
aS'->'
p810
aS'variable_36'
p811
ag81
aS'variable_1'
p812
aS'->'
p813
aS'variable_7'
p814
ag168
ag87
ag82
ag24
ag25
ag18
aS'if'
p815
ag6
aS'variable_1'
p816
aS'->'
p817
aS'variable_37'
p818
ag27
ag24
ag173
ag13
aS'for'
p819
ag6
aS'variable_4'
p820
ag24
ag25
ag18
aS'variable_4'
p821
ag27
aS'variable_1'
p822
aS'->'
p823
aS'variable_7'
p824
ag18
aS'variable_4'
p825
aS'++'
p826
ag13
aS'int'
p827
aS'variable_38'
p828
ag24
aS'variable_1'
p829
aS'->'
p830
aS'variable_38'
p831
ag81
aS'variable_4'
p832
ag82
ag18
aS'int'
p833
aS'variable_39'
p834
ag24
aS'variable_10'
p835
aS'->'
p836
aS'variable_9'
p837
ag81
aS'variable_4'
p838
ag82
aS'.'
p839
aS'variable_22'
p840
ag81
ag25
ag82
ag81
ag87
ag82
ag168
aS'variable_1'
p841
aS'->'
p842
aS'variable_40'
p843
ag18
aS'int'
p844
aS'variable_41'
p845
ag24
aS'variable_42'
p846
aS'?'
p847
ag87
aS':'
p848
aS'variable_1'
p849
aS'->'
p850
aS'variable_7'
p851
ag18
aS'variable_43'
p852
ag24
aS'variable_1'
p853
aS'->'
p854
aS'variable_36'
p855
ag81
aS'variable_4'
p856
ag82
ag847
aS'variable_1'
p857
aS'->'
p858
aS'variable_36'
p859
ag81
aS'variable_4'
p860
ag82
ag168
ag87
ag848
ag6
aS'variable_1'
p861
aS'->'
p862
aS'variable_7'
p863
ag168
ag87
ag13
ag18
aS'variable_35'
p864
ag24
aS'variable_10'
p865
aS'->'
p866
aS'variable_9'
p867
ag81
aS'variable_4'
p868
ag82
ag839
aS'variable_22'
p869
ag81
ag87
ag82
ag81
ag25
ag82
ag168
aS'variable_1'
p870
aS'->'
p871
aS'variable_44'
p872
ag18
aS'variable_45'
p873
ag24
aS'variable_3'
p874
aS'->'
p875
aS'variable_46'
p876
ag81
aS'variable_43'
p877
ag82
ag38
aS'variable_35'
p878
aS'/'
p879
aS'variable_1'
p880
aS'->'
p881
aS'variable_47'
p882
ag81
aS'variable_4'
p883
ag82
ag8
aS'variable_3'
p884
aS'->'
p885
aS'variable_48'
p886
ag81
aS'variable_43'
p887
ag82
ag18
aS'for'
p888
ag6
ag18
aS'variable_35'
p889
ag27
aS'variable_10'
p890
aS'->'
p891
aS'variable_9'
p892
ag81
aS'variable_4'
p893
ag82
ag839
aS'variable_22'
p894
ag81
ag87
ag82
ag81
ag87
ag82
ag168
aS'variable_1'
p895
aS'->'
p896
aS'variable_44'
p897
ag18
aS'variable_35'
p898
aS'+='
p899
aS'variable_1'
p900
aS'->'
p901
aS'variable_47'
p902
ag81
aS'variable_4'
p903
ag82
ag13
aS'variable_34'
p904
ag24
aS'variable_10'
p905
aS'->'
p906
aS'variable_9'
p907
ag81
aS'variable_4'
p908
ag82
ag839
aS'variable_22'
p909
ag81
ag25
ag82
ag81
ag25
ag82
ag168
aS'variable_1'
p910
aS'->'
p911
aS'variable_40'
p912
ag18
aS'variable_49'
p913
ag24
aS'variable_45'
p914
ag38
aS'variable_34'
p915
ag879
aS'variable_1'
p916
aS'->'
p917
aS'variable_50'
p918
ag81
aS'variable_4'
p919
ag82
ag8
aS'variable_41'
p920
ag38
aS'variable_4'
p921
ag8
aS'!'
p922
aS'variable_42'
p923
ag18
aS'for'
p924
ag6
ag18
aS'variable_34'
p925
ag27
aS'variable_39'
p926
ag18
aS'variable_34'
p927
aS'+='
p928
aS'variable_1'
p929
aS'->'
p930
aS'variable_50'
p931
ag81
aS'variable_4'
p932
ag82
ag13
aS'int'
p933
aS'variable_51'
p934
ag24
aS'lrintf'
p935
ag6
ag8
aS'variable_52'
p936
ag13
ag38
ag6
ag87
aS'<<'
p937
ag6
aS'variable_38'
p938
ag168
ag87
ag13
ag13
ag18
aS'variable_51'
p939
ag24
aS'func_4'
p940
ag6
aS'variable_51'
p941
ag10
ag25
ag10
ag6
ag87
aS'<<'
p942
aS'variable_38'
p943
ag13
ag168
ag87
ag13
ag18
ag8
aS'variable_49'
p944
ag24
aS'variable_51'
p945
aS'<<'
p946
ag6
ag173
ag168
aS'variable_38'
p947
ag13
ag18
aS'variable_49'
p948
aS'+='
p949
aS'variable_41'
p950
ag18
aS'for'
p951
ag6
ag18
aS'variable_34'
p952
ag27
aS'variable_39'
p953
ag18
aS'variable_34'
p954
aS'+='
p955
aS'variable_1'
p956
aS'->'
p957
aS'variable_50'
p958
ag81
aS'variable_4'
p959
ag82
ag13
aS'int'
p960
aS'variable_51'
p961
ag24
ag8
aS'variable_53'
p962
ag38
ag6
ag87
aS'<<'
p963
ag6
aS'variable_38'
p964
ag168
ag87
ag13
ag13
ag18
aS'variable_51'
p965
ag24
aS'func_5'
p966
ag6
aS'variable_51'
p967
ag10
ag25
ag10
ag6
ag87
aS'<<'
p968
aS'variable_38'
p969
ag13
ag168
ag87
ag13
ag18
ag8
aS'variable_49'
p970
ag24
aS'variable_51'
p971
aS'<<'
p972
ag6
ag173
ag168
aS'variable_38'
p973
ag13
ag18
aS'variable_49'
p974
aS'+='
p975
aS'variable_41'
p976
ag18
aS'variable_45'
p977
aS'+='
p978
aS'variable_3'
p979
aS'->'
p980
aS'variable_48'
p981
ag81
aS'variable_43'
p982
ag82
ag18
aS'for'
p983
ag6
aS'variable_4'
p984
ag24
ag25
ag18
aS'variable_4'
p985
ag27
aS'variable_1'
p986
aS'->'
p987
aS'variable_7'
p988
ag18
aS'variable_4'
p989
aS'++'
p990
ag13
aS'int'
p991
aS'variable_38'
p992
ag24
aS'variable_1'
p993
aS'->'
p994
aS'variable_38'
p995
ag81
aS'variable_4'
p996
ag82
ag18
aS'int'
p997
aS'variable_39'
p998
ag24
aS'variable_10'
p999
aS'->'
p1000
aS'variable_9'
p1001
ag81
aS'variable_4'
p1002
ag82
ag839
aS'variable_22'
p1003
ag81
ag25
ag82
ag81
ag87
ag82
ag168
aS'variable_1'
p1004
aS'->'
p1005
aS'variable_40'
p1006
ag18
aS'int'
p1007
aS'variable_41'
p1008
ag24
aS'variable_42'
p1009
ag847
ag87
ag848
aS'variable_1'
p1010
aS'->'
p1011
aS'variable_7'
p1012
ag18
aS'variable_43'
p1013
ag24
aS'variable_1'
p1014
aS'->'
p1015
aS'variable_36'
p1016
ag81
aS'variable_4'
p1017
ag82
ag847
aS'variable_1'
p1018
aS'->'
p1019
aS'variable_36'
p1020
ag81
aS'variable_4'
p1021
ag82
ag168
ag87
ag848
ag6
aS'variable_1'
p1022
aS'->'
p1023
aS'variable_7'
p1024
ag168
ag87
ag13
ag18
aS'variable_35'
p1025
ag24
aS'variable_10'
p1026
aS'->'
p1027
aS'variable_9'
p1028
ag81
aS'variable_4'
p1029
ag82
ag839
aS'variable_22'
p1030
ag81
ag87
ag82
ag81
ag25
ag82
ag168
aS'variable_1'
p1031
aS'->'
p1032
aS'variable_44'
p1033
ag18
aS'variable_54'
p1034
ag24
ag6
aS'uint16_t'
p1035
ag8
ag13
aS'variable_3'
p1036
aS'->'
p1037
aS'variable_46'
p1038
ag81
aS'variable_43'
p1039
ag82
ag38
aS'variable_35'
p1040
ag879
aS'variable_1'
p1041
aS'->'
p1042
aS'variable_47'
p1043
ag81
aS'variable_4'
p1044
ag82
ag8
ag6
aS'variable_3'
p1045
aS'->'
p1046
aS'variable_48'
p1047
ag81
aS'variable_43'
p1048
ag82
aS'>>'
p1049
ag87
ag13
ag18
aS'for'
p1050
ag6
ag18
aS'variable_35'
p1051
ag27
aS'variable_10'
p1052
aS'->'
p1053
aS'variable_9'
p1054
ag81
aS'variable_4'
p1055
ag82
ag839
aS'variable_22'
p1056
ag81
ag87
ag82
ag81
ag87
ag82
ag168
aS'variable_1'
p1057
aS'->'
p1058
aS'variable_44'
p1059
ag18
aS'variable_35'
p1060
aS'+='
p1061
aS'variable_1'
p1062
aS'->'
p1063
aS'variable_47'
p1064
ag81
aS'variable_4'
p1065
ag82
ag13
aS'variable_34'
p1066
ag24
aS'variable_10'
p1067
aS'->'
p1068
aS'variable_9'
p1069
ag81
aS'variable_4'
p1070
ag82
ag839
aS'variable_22'
p1071
ag81
ag25
ag82
ag81
ag25
ag82
ag168
aS'variable_1'
p1072
aS'->'
p1073
aS'variable_40'
p1074
ag18
aS'variable_49'
p1075
ag24
aS'variable_54'
p1076
ag38
ag6
aS'variable_34'
p1077
ag879
aS'variable_1'
p1078
aS'->'
p1079
aS'variable_50'
p1080
ag81
aS'variable_4'
p1081
ag82
ag8
aS'variable_41'
p1082
ag38
aS'variable_4'
p1083
ag8
ag922
aS'variable_42'
p1084
ag13
ag18
aS'for'
p1085
ag6
ag18
aS'variable_34'
p1086
ag27
aS'variable_39'
p1087
ag18
aS'variable_34'
p1088
aS'+='
p1089
aS'variable_1'
p1090
aS'->'
p1091
aS'variable_50'
p1092
ag81
aS'variable_4'
p1093
ag82
ag13
aS'int'
p1094
aS'variable_51'
p1095
ag24
aS'lrintf'
p1096
ag6
ag8
aS'variable_52'
p1097
ag13
ag38
ag6
ag87
aS'<<'
p1098
ag6
aS'variable_38'
p1099
ag168
ag87
ag13
ag13
ag18
aS'variable_51'
p1100
ag24
aS'func_6'
p1101
ag6
aS'variable_51'
p1102
ag10
ag25
ag10
ag6
ag87
aS'<<'
p1103
aS'variable_38'
p1104
ag13
ag168
ag87
ag13
ag18
ag8
aS'variable_49'
p1105
ag24
aS'variable_51'
p1106
aS'<<'
p1107
ag6
aS'16'
p1108
ag168
aS'variable_38'
p1109
ag13
ag18
aS'variable_49'
p1110
aS'+='
p1111
aS'variable_41'
p1112
ag18
aS'for'
p1113
ag6
ag18
aS'variable_34'
p1114
ag27
aS'variable_39'
p1115
ag18
aS'variable_34'
p1116
aS'+='
p1117
aS'variable_1'
p1118
aS'->'
p1119
aS'variable_50'
p1120
ag81
aS'variable_4'
p1121
ag82
ag13
aS'int'
p1122
aS'variable_51'
p1123
ag24
ag8
aS'variable_53'
p1124
ag38
ag6
ag87
aS'<<'
p1125
ag6
aS'variable_38'
p1126
ag168
ag87
ag13
ag13
ag18
aS'variable_51'
p1127
ag24
aS'func_7'
p1128
ag6
aS'variable_51'
p1129
ag10
ag25
ag10
ag6
ag87
aS'<<'
p1130
aS'variable_38'
p1131
ag13
ag168
ag87
ag13
ag18
ag8
aS'variable_49'
p1132
ag24
aS'variable_51'
p1133
aS'<<'
p1134
ag6
aS'16'
p1135
ag168
aS'variable_38'
p1136
ag13
ag18
aS'variable_49'
p1137
aS'+='
p1138
aS'variable_41'
p1139
ag18
aS'variable_54'
p1140
aS'+='
p1141
aS'variable_3'
p1142
aS'->'
p1143
aS'variable_48'
p1144
ag81
aS'variable_43'
p1145
ag82
aS'>>'
p1146
ag87
ag18
aa(lp1147
S'static'
p1148
aS'int'
p1149
aS'func_0'
p1150
ag6
aS'variable_0'
p1151
ag8
aS'variable_1'
p1152
ag10
aS'variable_2'
p1153
ag8
aS'variable_3'
p1154
ag13
aS'int'
p1155
aS'variable_4'
p1156
ag10
aS'variable_5'
p1157
ag10
aS'variable_6'
p1158
ag18
aS'for'
p1159
ag6
aS'variable_4'
p1160
ag24
ag25
ag18
aS'variable_4'
p1161
ag27
aS'variable_1'
p1162
aS'->'
p1163
aS'variable_7'
p1164
ag18
aS'variable_4'
p1165
aS'++'
p1166
ag13
aS'variable_8'
p1167
ag8
aS'variable_9'
p1168
ag24
aS'variable_10'
p1169
aS'->'
p1170
aS'variable_9'
p1171
ag38
aS'variable_4'
p1172
ag18
aS'variable_11'
p1173
ag8
aS'variable_12'
p1174
ag24
aS'variable_10'
p1175
aS'->'
p1176
aS'variable_12'
p1177
ag38
aS'variable_4'
p1178
ag18
aS'for'
p1179
ag6
aS'variable_5'
p1180
ag24
ag25
ag18
aS'variable_5'
p1181
ag27
aS'variable_12'
p1182
aS'->'
p1183
aS'variable_13'
p1184
ag18
aS'variable_5'
p1185
aS'++'
p1186
ag13
aS'variable_14'
p1187
ag8
aS'variable_15'
p1188
ag24
aS'variable_9'
p1189
aS'->'
p1190
aS'variable_16'
p1191
ag38
aS'variable_5'
p1192
ag18
aS'for'
p1193
ag6
aS'variable_6'
p1194
ag24
ag25
ag18
aS'variable_6'
p1195
ag27
aS'variable_15'
p1196
aS'->'
p1197
aS'variable_17'
p1198
ag18
aS'variable_6'
p1199
aS'++'
p1200
ag13
aS'variable_18'
p1201
ag8
aS'variable_19'
p1202
ag24
aS'variable_15'
p1203
aS'->'
p1204
aS'variable_19'
p1205
ag38
aS'variable_6'
p1206
ag18
aS'if'
p1207
ag6
aS'variable_19'
p1208
aS'->'
p1209
aS'variable_20'
p1210
ag81
ag25
ag82
ag81
ag25
ag82
aS'=='
p1211
aS'variable_19'
p1212
aS'->'
p1213
aS'variable_20'
p1214
ag81
ag25
ag82
ag81
ag87
ag82
aS'||'
p1215
aS'variable_19'
p1216
aS'->'
p1217
aS'variable_20'
p1218
ag81
ag87
ag82
ag81
ag25
ag82
aS'=='
p1219
aS'variable_19'
p1220
aS'->'
p1221
aS'variable_20'
p1222
ag81
ag87
ag82
ag81
ag87
ag82
ag13
aS'variable_21'
p1223
ag8
aS'variable_22'
p1224
ag24
aS'variable_19'
p1225
aS'->'
p1226
aS'variable_22'
p1227
ag38
aS'variable_23'
p1228
ag18
aS'for'
p1229
ag6
aS'variable_24'
p1230
ag24
ag25
ag18
aS'variable_24'
p1231
ag27
aS'variable_22'
p1232
aS'->'
p1233
aS'variable_25'
p1234
ag8
aS'variable_22'
p1235
aS'->'
p1236
aS'variable_26'
p1237
ag18
aS'variable_24'
p1238
aS'++'
p1239
ag13
aS'variable_27'
p1240
ag8
aS'variable_28'
p1241
ag24
aS'variable_22'
p1242
aS'->'
p1243
aS'variable_28'
p1244
ag38
aS'variable_24'
p1245
ag18
aS'func_1'
p1246
ag6
aS'variable_1'
p1247
ag10
aS'variable_12'
p1248
ag10
ag160
aS'variable_29'
p1249
ag10
aS'variable_28'
p1250
ag10
aS'variable_28'
p1251
aS'->'
p1252
aS'variable_20'
p1253
ag81
ag25
ag82
ag81
ag87
ag82
ag168
aS'variable_28'
p1254
aS'->'
p1255
aS'variable_20'
p1256
ag81
ag25
ag82
ag81
ag25
ag82
ag10
aS'variable_28'
p1257
aS'->'
p1258
aS'variable_20'
p1259
ag81
ag87
ag82
ag81
ag87
ag82
ag168
aS'variable_28'
p1260
aS'->'
p1261
aS'variable_20'
p1262
ag81
ag87
ag82
ag81
ag25
ag82
ag10
aS'variable_30'
p1263
ag13
ag18
aS'variable_31'
p1264
ag24
aS'variable_28'
p1265
aS'->'
p1266
aS'variable_20'
p1267
ag81
ag25
ag82
ag81
ag25
ag82
ag18
aS'variable_32'
p1268
ag24
aS'variable_28'
p1269
aS'->'
p1270
aS'variable_20'
p1271
ag81
ag87
ag82
ag81
ag25
ag82
ag18
aS'func_2'
p1272
ag6
aS'variable_31'
p1273
ag10
aS'variable_32'
p1274
ag10
aS'variable_28'
p1275
ag10
aS'variable_9'
p1276
ag10
ag160
aS'variable_29'
p1277
ag10
aS'variable_19'
p1278
ag13
ag18
aS'func_3'
p1279
ag6
aS'variable_31'
p1280
ag10
aS'variable_32'
p1281
ag10
aS'variable_28'
p1282
ag10
aS'variable_9'
p1283
ag10
ag160
aS'variable_29'
p1284
ag10
aS'variable_19'
p1285
ag13
ag18
aS'for'
p1286
ag6
aS'variable_31'
p1287
ag24
ag25
ag18
aS'variable_31'
p1288
ag27
aS'variable_1'
p1289
aS'->'
p1290
aS'variable_7'
p1291
ag18
aS'variable_31'
p1292
aS'++'
p1293
ag13
aS'variable_1'
p1294
aS'->'
p1295
aS'variable_33'
p1296
ag81
aS'variable_31'
p1297
ag82
ag24
aS'variable_31'
p1298
ag38
ag87
ag18
aS'if'
p1299
ag6
ag6
aS'variable_1'
p1300
aS'->'
p1301
aS'variable_7'
p1302
ag160
ag87
ag13
aS'=='
p1303
ag25
ag13
aS'variable_1'
p1304
aS'->'
p1305
aS'variable_33'
p1306
ag81
aS'variable_1'
p1307
aS'->'
p1308
aS'variable_7'
p1309
ag168
ag87
ag82
ag24
ag25
ag18
aS'if'
p1310
ag6
aS'variable_1'
p1311
aS'->'
p1312
aS'variable_34'
p1313
ag27
ag24
ag173
ag13
aS'for'
p1314
ag6
aS'variable_4'
p1315
ag24
ag25
ag18
aS'variable_4'
p1316
ag27
aS'variable_1'
p1317
aS'->'
p1318
aS'variable_7'
p1319
ag18
aS'variable_4'
p1320
aS'++'
p1321
ag13
aS'int'
p1322
aS'variable_35'
p1323
ag24
aS'variable_1'
p1324
aS'->'
p1325
aS'variable_35'
p1326
ag81
aS'variable_4'
p1327
ag82
ag18
aS'int'
p1328
aS'variable_36'
p1329
ag24
aS'variable_10'
p1330
aS'->'
p1331
aS'variable_9'
p1332
ag81
aS'variable_4'
p1333
ag82
ag839
aS'variable_20'
p1334
ag81
ag25
ag82
ag81
ag87
ag82
ag168
aS'variable_1'
p1335
aS'->'
p1336
aS'variable_37'
p1337
ag18
aS'int'
p1338
aS'variable_38'
p1339
ag24
aS'variable_39'
p1340
ag847
ag87
ag848
aS'variable_1'
p1341
aS'->'
p1342
aS'variable_7'
p1343
ag18
aS'variable_40'
p1344
ag24
aS'variable_1'
p1345
aS'->'
p1346
aS'variable_33'
p1347
ag81
aS'variable_4'
p1348
ag82
ag847
aS'variable_1'
p1349
aS'->'
p1350
aS'variable_33'
p1351
ag81
aS'variable_4'
p1352
ag82
ag168
ag87
ag848
ag6
aS'variable_1'
p1353
aS'->'
p1354
aS'variable_7'
p1355
ag168
ag87
ag13
ag18
aS'variable_32'
p1356
ag24
aS'variable_10'
p1357
aS'->'
p1358
aS'variable_9'
p1359
ag81
aS'variable_4'
p1360
ag82
ag839
aS'variable_20'
p1361
ag81
ag87
ag82
ag81
ag25
ag82
ag168
aS'variable_1'
p1362
aS'->'
p1363
aS'variable_41'
p1364
ag18
aS'variable_42'
p1365
ag24
aS'variable_3'
p1366
aS'->'
p1367
aS'variable_43'
p1368
ag81
aS'variable_40'
p1369
ag82
ag38
aS'variable_32'
p1370
ag879
aS'variable_1'
p1371
aS'->'
p1372
aS'variable_44'
p1373
ag81
aS'variable_4'
p1374
ag82
ag8
aS'variable_3'
p1375
aS'->'
p1376
aS'variable_45'
p1377
ag81
aS'variable_40'
p1378
ag82
ag18
aS'for'
p1379
ag6
ag18
aS'variable_32'
p1380
ag27
aS'variable_10'
p1381
aS'->'
p1382
aS'variable_9'
p1383
ag81
aS'variable_4'
p1384
ag82
ag839
aS'variable_20'
p1385
ag81
ag87
ag82
ag81
ag87
ag82
ag168
aS'variable_1'
p1386
aS'->'
p1387
aS'variable_41'
p1388
ag18
aS'variable_32'
p1389
aS'+='
p1390
aS'variable_1'
p1391
aS'->'
p1392
aS'variable_44'
p1393
ag81
aS'variable_4'
p1394
ag82
ag13
aS'variable_31'
p1395
ag24
aS'variable_10'
p1396
aS'->'
p1397
aS'variable_9'
p1398
ag81
aS'variable_4'
p1399
ag82
ag839
aS'variable_20'
p1400
ag81
ag25
ag82
ag81
ag25
ag82
ag168
aS'variable_1'
p1401
aS'->'
p1402
aS'variable_37'
p1403
ag18
aS'variable_46'
p1404
ag24
aS'variable_42'
p1405
ag38
aS'variable_31'
p1406
ag879
aS'variable_1'
p1407
aS'->'
p1408
aS'variable_47'
p1409
ag81
aS'variable_4'
p1410
ag82
ag8
aS'variable_38'
p1411
ag38
aS'variable_4'
p1412
ag8
ag922
aS'variable_39'
p1413
ag18
aS'for'
p1414
ag6
ag18
aS'variable_31'
p1415
ag27
aS'variable_36'
p1416
ag18
aS'variable_31'
p1417
aS'+='
p1418
aS'variable_1'
p1419
aS'->'
p1420
aS'variable_47'
p1421
ag81
aS'variable_4'
p1422
ag82
ag13
aS'int'
p1423
aS'variable_48'
p1424
ag24
aS'lrintf'
p1425
ag6
ag8
aS'variable_49'
p1426
ag13
ag38
ag6
ag87
aS'<<'
p1427
ag6
aS'variable_35'
p1428
ag168
ag87
ag13
ag13
ag18
aS'variable_48'
p1429
ag24
aS'func_4'
p1430
ag6
aS'variable_48'
p1431
ag10
ag25
ag10
ag6
ag87
aS'<<'
p1432
aS'variable_35'
p1433
ag13
ag168
ag87
ag13
ag18
ag8
aS'variable_46'
p1434
ag24
aS'variable_48'
p1435
aS'<<'
p1436
ag6
ag173
ag168
aS'variable_35'
p1437
ag13
ag18
aS'variable_46'
p1438
aS'+='
p1439
aS'variable_38'
p1440
ag18
aS'for'
p1441
ag6
ag18
aS'variable_31'
p1442
ag27
aS'variable_36'
p1443
ag18
aS'variable_31'
p1444
aS'+='
p1445
aS'variable_1'
p1446
aS'->'
p1447
aS'variable_47'
p1448
ag81
aS'variable_4'
p1449
ag82
ag13
aS'int'
p1450
aS'variable_48'
p1451
ag24
ag8
aS'variable_50'
p1452
ag38
ag6
ag87
aS'<<'
p1453
ag6
aS'variable_35'
p1454
ag168
ag87
ag13
ag13
ag18
aS'variable_48'
p1455
ag24
aS'func_5'
p1456
ag6
aS'variable_48'
p1457
ag10
ag25
ag10
ag6
ag87
aS'<<'
p1458
aS'variable_35'
p1459
ag13
ag168
ag87
ag13
ag18
ag8
aS'variable_46'
p1460
ag24
aS'variable_48'
p1461
aS'<<'
p1462
ag6
ag173
ag168
aS'variable_35'
p1463
ag13
ag18
aS'variable_46'
p1464
aS'+='
p1465
aS'variable_38'
p1466
ag18
aS'variable_42'
p1467
aS'+='
p1468
aS'variable_3'
p1469
aS'->'
p1470
aS'variable_45'
p1471
ag81
aS'variable_40'
p1472
ag82
ag18
aS'for'
p1473
ag6
aS'variable_4'
p1474
ag24
ag25
ag18
aS'variable_4'
p1475
ag27
aS'variable_1'
p1476
aS'->'
p1477
aS'variable_7'
p1478
ag18
aS'variable_4'
p1479
aS'++'
p1480
ag13
aS'int'
p1481
aS'variable_35'
p1482
ag24
aS'variable_1'
p1483
aS'->'
p1484
aS'variable_35'
p1485
ag81
aS'variable_4'
p1486
ag82
ag18
aS'int'
p1487
aS'variable_36'
p1488
ag24
aS'variable_10'
p1489
aS'->'
p1490
aS'variable_9'
p1491
ag81
aS'variable_4'
p1492
ag82
ag839
aS'variable_20'
p1493
ag81
ag25
ag82
ag81
ag87
ag82
ag168
aS'variable_1'
p1494
aS'->'
p1495
aS'variable_37'
p1496
ag18
aS'int'
p1497
aS'variable_38'
p1498
ag24
aS'variable_39'
p1499
ag847
ag87
ag848
aS'variable_1'
p1500
aS'->'
p1501
aS'variable_7'
p1502
ag18
aS'variable_40'
p1503
ag24
aS'variable_1'
p1504
aS'->'
p1505
aS'variable_33'
p1506
ag81
aS'variable_4'
p1507
ag82
ag847
aS'variable_1'
p1508
aS'->'
p1509
aS'variable_33'
p1510
ag81
aS'variable_4'
p1511
ag82
ag168
ag87
ag848
ag6
aS'variable_1'
p1512
aS'->'
p1513
aS'variable_7'
p1514
ag168
ag87
ag13
ag18
aS'variable_32'
p1515
ag24
aS'variable_10'
p1516
aS'->'
p1517
aS'variable_9'
p1518
ag81
aS'variable_4'
p1519
ag82
ag839
aS'variable_20'
p1520
ag81
ag87
ag82
ag81
ag25
ag82
ag168
aS'variable_1'
p1521
aS'->'
p1522
aS'variable_41'
p1523
ag18
aS'variable_51'
p1524
ag24
ag6
aS'uint16_t'
p1525
ag8
ag13
aS'variable_3'
p1526
aS'->'
p1527
aS'variable_43'
p1528
ag81
aS'variable_40'
p1529
ag82
ag38
aS'variable_32'
p1530
ag879
aS'variable_1'
p1531
aS'->'
p1532
aS'variable_44'
p1533
ag81
aS'variable_4'
p1534
ag82
ag8
ag6
aS'variable_3'
p1535
aS'->'
p1536
aS'variable_45'
p1537
ag81
aS'variable_40'
p1538
ag82
aS'>>'
p1539
ag87
ag13
ag18
aS'for'
p1540
ag6
ag18
aS'variable_32'
p1541
ag27
aS'variable_10'
p1542
aS'->'
p1543
aS'variable_9'
p1544
ag81
aS'variable_4'
p1545
ag82
ag839
aS'variable_20'
p1546
ag81
ag87
ag82
ag81
ag87
ag82
ag168
aS'variable_1'
p1547
aS'->'
p1548
aS'variable_41'
p1549
ag18
aS'variable_32'
p1550
aS'+='
p1551
aS'variable_1'
p1552
aS'->'
p1553
aS'variable_44'
p1554
ag81
aS'variable_4'
p1555
ag82
ag13
aS'variable_31'
p1556
ag24
aS'variable_10'
p1557
aS'->'
p1558
aS'variable_9'
p1559
ag81
aS'variable_4'
p1560
ag82
ag839
aS'variable_20'
p1561
ag81
ag25
ag82
ag81
ag25
ag82
ag168
aS'variable_1'
p1562
aS'->'
p1563
aS'variable_37'
p1564
ag18
aS'variable_46'
p1565
ag24
aS'variable_51'
p1566
ag38
ag6
aS'variable_31'
p1567
ag879
aS'variable_1'
p1568
aS'->'
p1569
aS'variable_47'
p1570
ag81
aS'variable_4'
p1571
ag82
ag8
aS'variable_38'
p1572
ag38
aS'variable_4'
p1573
ag8
ag922
aS'variable_39'
p1574
ag13
ag18
aS'for'
p1575
ag6
ag18
aS'variable_31'
p1576
ag27
aS'variable_36'
p1577
ag18
aS'variable_31'
p1578
aS'+='
p1579
aS'variable_1'
p1580
aS'->'
p1581
aS'variable_47'
p1582
ag81
aS'variable_4'
p1583
ag82
ag13
aS'int'
p1584
aS'variable_48'
p1585
ag24
aS'lrintf'
p1586
ag6
ag8
aS'variable_49'
p1587
ag13
ag38
ag6
ag87
aS'<<'
p1588
ag6
aS'variable_35'
p1589
ag168
ag87
ag13
ag13
ag18
aS'variable_48'
p1590
ag24
aS'func_6'
p1591
ag6
aS'variable_48'
p1592
ag10
ag25
ag10
ag6
ag87
aS'<<'
p1593
aS'variable_35'
p1594
ag13
ag168
ag87
ag13
ag18
ag8
aS'variable_46'
p1595
ag24
aS'variable_48'
p1596
aS'<<'
p1597
ag6
aS'16'
p1598
ag168
aS'variable_35'
p1599
ag13
ag18
aS'variable_46'
p1600
aS'+='
p1601
aS'variable_38'
p1602
ag18
aS'for'
p1603
ag6
ag18
aS'variable_31'
p1604
ag27
aS'variable_36'
p1605
ag18
aS'variable_31'
p1606
aS'+='
p1607
aS'variable_1'
p1608
aS'->'
p1609
aS'variable_47'
p1610
ag81
aS'variable_4'
p1611
ag82
ag13
aS'int'
p1612
aS'variable_48'
p1613
ag24
ag8
aS'variable_50'
p1614
ag38
ag6
ag87
aS'<<'
p1615
ag6
aS'variable_35'
p1616
ag168
ag87
ag13
ag13
ag18
aS'variable_48'
p1617
ag24
aS'func_7'
p1618
ag6
aS'variable_48'
p1619
ag10
ag25
ag10
ag6
ag87
aS'<<'
p1620
aS'variable_35'
p1621
ag13
ag168
ag87
ag13
ag18
ag8
aS'variable_46'
p1622
ag24
aS'variable_48'
p1623
aS'<<'
p1624
ag6
aS'16'
p1625
ag168
aS'variable_35'
p1626
ag13
ag18
aS'variable_46'
p1627
aS'+='
p1628
aS'variable_38'
p1629
ag18
aS'variable_51'
p1630
aS'+='
p1631
aS'variable_3'
p1632
aS'->'
p1633
aS'variable_45'
p1634
ag81
aS'variable_40'
p1635
ag82
aS'>>'
p1636
ag87
ag18
aa(lp1637
S'static'
p1638
aS'int'
p1639
aS'func_0'
p1640
ag6
aS'variable_0'
p1641
ag8
aS'variable_1'
p1642
ag10
aS'variable_2'
p1643
ag8
aS'variable_3'
p1644
ag13
aS'int'
p1645
aS'variable_4'
p1646
ag10
aS'variable_5'
p1647
ag10
aS'variable_6'
p1648
ag18
aS'for'
p1649
ag6
aS'variable_4'
p1650
ag24
ag25
ag18
aS'variable_4'
p1651
ag27
aS'variable_1'
p1652
aS'->'
p1653
aS'variable_7'
p1654
ag18
aS'variable_4'
p1655
aS'++'
p1656
ag13
aS'variable_8'
p1657
ag8
aS'variable_9'
p1658
ag24
aS'variable_10'
p1659
aS'->'
p1660
aS'variable_9'
p1661
ag38
aS'variable_4'
p1662
ag18
aS'variable_11'
p1663
ag8
aS'variable_12'
p1664
ag24
aS'variable_10'
p1665
aS'->'
p1666
aS'variable_12'
p1667
ag38
aS'variable_4'
p1668
ag18
aS'for'
p1669
ag6
aS'variable_5'
p1670
ag24
ag25
ag18
aS'variable_5'
p1671
ag27
aS'variable_12'
p1672
aS'->'
p1673
aS'variable_13'
p1674
ag18
aS'variable_5'
p1675
aS'++'
p1676
ag13
aS'variable_14'
p1677
ag8
aS'variable_15'
p1678
ag24
aS'variable_9'
p1679
aS'->'
p1680
aS'variable_16'
p1681
ag38
aS'variable_5'
p1682
ag18
aS'for'
p1683
ag6
aS'variable_6'
p1684
ag24
ag25
ag18
aS'variable_6'
p1685
ag27
aS'variable_15'
p1686
aS'->'
p1687
aS'variable_17'
p1688
ag18
aS'variable_6'
p1689
aS'++'
p1690
ag13
aS'variable_18'
p1691
ag8
aS'variable_19'
p1692
ag24
aS'variable_15'
p1693
aS'->'
p1694
aS'variable_19'
p1695
ag38
aS'variable_6'
p1696
ag18
aS'if'
p1697
ag6
aS'variable_19'
p1698
aS'->'
p1699
aS'variable_20'
p1700
ag81
ag25
ag82
ag81
ag25
ag82
aS'=='
p1701
aS'variable_19'
p1702
aS'->'
p1703
aS'variable_20'
p1704
ag81
ag25
ag82
ag81
ag87
ag82
aS'||'
p1705
aS'variable_19'
p1706
aS'->'
p1707
aS'variable_20'
p1708
ag81
ag87
ag82
ag81
ag25
ag82
aS'=='
p1709
aS'variable_19'
p1710
aS'->'
p1711
aS'variable_20'
p1712
ag81
ag87
ag82
ag81
ag87
ag82
ag13
aS'variable_21'
p1713
ag24
aS'variable_15'
p1714
aS'->'
p1715
aS'variable_22'
p1716
ag8
aS'variable_15'
p1717
aS'->'
p1718
aS'variable_23'
p1719
ag18
aS'for'
p1720
ag6
aS'variable_24'
p1721
ag24
ag25
ag18
aS'variable_24'
p1722
ag27
aS'variable_21'
p1723
ag18
aS'variable_24'
p1724
aS'++'
p1725
ag13
aS'variable_25'
p1726
ag8
aS'variable_26'
p1727
ag24
aS'variable_19'
p1728
aS'->'
p1729
aS'variable_26'
p1730
ag38
aS'variable_24'
p1731
ag18
aS'for'
p1732
ag6
aS'variable_27'
p1733
ag24
ag25
ag18
aS'variable_27'
p1734
ag27
aS'variable_26'
p1735
aS'->'
p1736
aS'variable_28'
p1737
ag8
aS'variable_26'
p1738
aS'->'
p1739
aS'variable_29'
p1740
ag18
aS'variable_27'
p1741
aS'++'
p1742
ag13
aS'variable_30'
p1743
ag8
aS'variable_31'
p1744
ag24
aS'variable_26'
p1745
aS'->'
p1746
aS'variable_31'
p1747
ag38
aS'variable_27'
p1748
ag18
aS'func_1'
p1749
ag6
aS'variable_1'
p1750
ag10
aS'variable_12'
p1751
ag10
ag160
aS'variable_32'
p1752
ag10
aS'variable_31'
p1753
ag10
aS'variable_31'
p1754
aS'->'
p1755
aS'variable_20'
p1756
ag81
ag25
ag82
ag81
ag87
ag82
ag168
aS'variable_31'
p1757
aS'->'
p1758
aS'variable_20'
p1759
ag81
ag25
ag82
ag81
ag25
ag82
ag10
aS'variable_31'
p1760
aS'->'
p1761
aS'variable_20'
p1762
ag81
ag87
ag82
ag81
ag87
ag82
ag168
aS'variable_31'
p1763
aS'->'
p1764
aS'variable_20'
p1765
ag81
ag87
ag82
ag81
ag25
ag82
ag10
aS'variable_33'
p1766
ag13
ag18
aS'variable_34'
p1767
ag24
aS'variable_31'
p1768
aS'->'
p1769
aS'variable_20'
p1770
ag81
ag25
ag82
ag81
ag25
ag82
ag18
aS'variable_35'
p1771
ag24
aS'variable_31'
p1772
aS'->'
p1773
aS'variable_20'
p1774
ag81
ag87
ag82
ag81
ag25
ag82
ag18
aS'func_2'
p1775
ag6
aS'variable_34'
p1776
ag10
aS'variable_35'
p1777
ag10
aS'variable_31'
p1778
ag10
aS'variable_9'
p1779
ag10
ag160
aS'variable_32'
p1780
ag10
aS'variable_19'
p1781
ag13
ag18
aS'func_3'
p1782
ag6
aS'variable_34'
p1783
ag10
aS'variable_35'
p1784
ag10
aS'variable_31'
p1785
ag10
aS'variable_9'
p1786
ag10
ag160
aS'variable_32'
p1787
ag10
aS'variable_19'
p1788
ag13
ag18
aS'for'
p1789
ag6
aS'variable_34'
p1790
ag24
ag25
ag18
aS'variable_34'
p1791
ag27
aS'variable_1'
p1792
aS'->'
p1793
aS'variable_7'
p1794
ag18
aS'variable_34'
p1795
aS'++'
p1796
ag13
aS'variable_1'
p1797
aS'->'
p1798
aS'variable_36'
p1799
ag81
aS'variable_34'
p1800
ag82
ag24
aS'variable_34'
p1801
ag38
ag87
ag18
aS'if'
p1802
ag6
ag6
aS'variable_1'
p1803
aS'->'
p1804
aS'variable_7'
p1805
ag160
ag87
ag13
aS'=='
p1806
ag25
ag13
aS'variable_1'
p1807
aS'->'
p1808
aS'variable_36'
p1809
ag81
aS'variable_1'
p1810
aS'->'
p1811
aS'variable_7'
p1812
ag168
ag87
ag82
ag24
ag25
ag18
aS'if'
p1813
ag6
aS'variable_1'
p1814
aS'->'
p1815
aS'variable_37'
p1816
ag27
ag24
ag173
ag13
aS'for'
p1817
ag6
aS'variable_4'
p1818
ag24
ag25
ag18
aS'variable_4'
p1819
ag27
aS'variable_1'
p1820
aS'->'
p1821
aS'variable_7'
p1822
ag18
aS'variable_4'
p1823
aS'++'
p1824
ag13
aS'int'
p1825
aS'variable_38'
p1826
ag24
aS'variable_1'
p1827
aS'->'
p1828
aS'variable_38'
p1829
ag81
aS'variable_4'
p1830
ag82
ag18
aS'int'
p1831
aS'variable_39'
p1832
ag24
aS'variable_10'
p1833
aS'->'
p1834
aS'variable_9'
p1835
ag81
aS'variable_4'
p1836
ag82
ag839
aS'variable_20'
p1837
ag81
ag25
ag82
ag81
ag87
ag82
ag168
aS'variable_1'
p1838
aS'->'
p1839
aS'variable_40'
p1840
ag18
aS'int'
p1841
aS'variable_41'
p1842
ag24
aS'variable_42'
p1843
ag847
ag87
ag848
aS'variable_1'
p1844
aS'->'
p1845
aS'variable_7'
p1846
ag18
aS'variable_43'
p1847
ag24
aS'variable_1'
p1848
aS'->'
p1849
aS'variable_36'
p1850
ag81
aS'variable_4'
p1851
ag82
ag847
aS'variable_1'
p1852
aS'->'
p1853
aS'variable_36'
p1854
ag81
aS'variable_4'
p1855
ag82
ag168
ag87
ag848
ag6
aS'variable_1'
p1856
aS'->'
p1857
aS'variable_7'
p1858
ag168
ag87
ag13
ag18
aS'variable_35'
p1859
ag24
aS'variable_10'
p1860
aS'->'
p1861
aS'variable_9'
p1862
ag81
aS'variable_4'
p1863
ag82
ag839
aS'variable_20'
p1864
ag81
ag87
ag82
ag81
ag25
ag82
ag168
aS'variable_1'
p1865
aS'->'
p1866
aS'variable_44'
p1867
ag18
aS'variable_45'
p1868
ag24
aS'variable_3'
p1869
aS'->'
p1870
aS'variable_46'
p1871
ag81
aS'variable_43'
p1872
ag82
ag38
aS'variable_35'
p1873
ag879
aS'variable_1'
p1874
aS'->'
p1875
aS'variable_47'
p1876
ag81
aS'variable_4'
p1877
ag82
ag8
aS'variable_3'
p1878
aS'->'
p1879
aS'variable_48'
p1880
ag81
aS'variable_43'
p1881
ag82
ag18
aS'for'
p1882
ag6
ag18
aS'variable_35'
p1883
ag27
aS'variable_10'
p1884
aS'->'
p1885
aS'variable_9'
p1886
ag81
aS'variable_4'
p1887
ag82
ag839
aS'variable_20'
p1888
ag81
ag87
ag82
ag81
ag87
ag82
ag168
aS'variable_1'
p1889
aS'->'
p1890
aS'variable_44'
p1891
ag18
aS'variable_35'
p1892
aS'+='
p1893
aS'variable_1'
p1894
aS'->'
p1895
aS'variable_47'
p1896
ag81
aS'variable_4'
p1897
ag82
ag13
aS'variable_34'
p1898
ag24
aS'variable_10'
p1899
aS'->'
p1900
aS'variable_9'
p1901
ag81
aS'variable_4'
p1902
ag82
ag839
aS'variable_20'
p1903
ag81
ag25
ag82
ag81
ag25
ag82
ag168
aS'variable_1'
p1904
aS'->'
p1905
aS'variable_40'
p1906
ag18
aS'variable_49'
p1907
ag24
aS'variable_45'
p1908
ag38
aS'variable_34'
p1909
ag879
aS'variable_1'
p1910
aS'->'
p1911
aS'variable_50'
p1912
ag81
aS'variable_4'
p1913
ag82
ag8
aS'variable_41'
p1914
ag38
aS'variable_4'
p1915
ag8
ag922
aS'variable_42'
p1916
ag18
aS'for'
p1917
ag6
ag18
aS'variable_34'
p1918
ag27
aS'variable_39'
p1919
ag18
aS'variable_34'
p1920
aS'+='
p1921
aS'variable_1'
p1922
aS'->'
p1923
aS'variable_50'
p1924
ag81
aS'variable_4'
p1925
ag82
ag13
aS'int'
p1926
aS'variable_51'
p1927
ag24
aS'lrintf'
p1928
ag6
ag8
aS'variable_52'
p1929
ag13
ag38
ag6
ag87
aS'<<'
p1930
ag6
aS'variable_38'
p1931
ag168
ag87
ag13
ag13
ag18
aS'variable_51'
p1932
ag24
aS'func_4'
p1933
ag6
aS'variable_51'
p1934
ag10
ag25
ag10
ag6
ag87
aS'<<'
p1935
aS'variable_38'
p1936
ag13
ag168
ag87
ag13
ag18
ag8
aS'variable_49'
p1937
ag24
aS'variable_51'
p1938
aS'<<'
p1939
ag6
ag173
ag168
aS'variable_38'
p1940
ag13
ag18
aS'variable_49'
p1941
aS'+='
p1942
aS'variable_41'
p1943
ag18
aS'for'
p1944
ag6
ag18
aS'variable_34'
p1945
ag27
aS'variable_39'
p1946
ag18
aS'variable_34'
p1947
aS'+='
p1948
aS'variable_1'
p1949
aS'->'
p1950
aS'variable_50'
p1951
ag81
aS'variable_4'
p1952
ag82
ag13
aS'int'
p1953
aS'variable_51'
p1954
ag24
ag8
aS'variable_53'
p1955
ag38
ag6
ag87
aS'<<'
p1956
ag6
aS'variable_38'
p1957
ag168
ag87
ag13
ag13
ag18
aS'variable_51'
p1958
ag24
aS'func_5'
p1959
ag6
aS'variable_51'
p1960
ag10
ag25
ag10
ag6
ag87
aS'<<'
p1961
aS'variable_38'
p1962
ag13
ag168
ag87
ag13
ag18
ag8
aS'variable_49'
p1963
ag24
aS'variable_51'
p1964
aS'<<'
p1965
ag6
ag173
ag168
aS'variable_38'
p1966
ag13
ag18
aS'variable_49'
p1967
aS'+='
p1968
aS'variable_41'
p1969
ag18
aS'variable_45'
p1970
aS'+='
p1971
aS'variable_3'
p1972
aS'->'
p1973
aS'variable_48'
p1974
ag81
aS'variable_43'
p1975
ag82
ag18
aS'for'
p1976
ag6
aS'variable_4'
p1977
ag24
ag25
ag18
aS'variable_4'
p1978
ag27
aS'variable_1'
p1979
aS'->'
p1980
aS'variable_7'
p1981
ag18
aS'variable_4'
p1982
aS'++'
p1983
ag13
aS'int'
p1984
aS'variable_38'
p1985
ag24
aS'variable_1'
p1986
aS'->'
p1987
aS'variable_38'
p1988
ag81
aS'variable_4'
p1989
ag82
ag18
aS'int'
p1990
aS'variable_39'
p1991
ag24
aS'variable_10'
p1992
aS'->'
p1993
aS'variable_9'
p1994
ag81
aS'variable_4'
p1995
ag82
ag839
aS'variable_20'
p1996
ag81
ag25
ag82
ag81
ag87
ag82
ag168
aS'variable_1'
p1997
aS'->'
p1998
aS'variable_40'
p1999
ag18
aS'int'
p2000
aS'variable_41'
p2001
ag24
aS'variable_42'
p2002
ag847
ag87
ag848
aS'variable_1'
p2003
aS'->'
p2004
aS'variable_7'
p2005
ag18
aS'variable_43'
p2006
ag24
aS'variable_1'
p2007
aS'->'
p2008
aS'variable_36'
p2009
ag81
aS'variable_4'
p2010
ag82
ag847
aS'variable_1'
p2011
aS'->'
p2012
aS'variable_36'
p2013
ag81
aS'variable_4'
p2014
ag82
ag168
ag87
ag848
ag6
aS'variable_1'
p2015
aS'->'
p2016
aS'variable_7'
p2017
ag168
ag87
ag13
ag18
aS'variable_35'
p2018
ag24
aS'variable_10'
p2019
aS'->'
p2020
aS'variable_9'
p2021
ag81
aS'variable_4'
p2022
ag82
ag839
aS'variable_20'
p2023
ag81
ag87
ag82
ag81
ag25
ag82
ag168
aS'variable_1'
p2024
aS'->'
p2025
aS'variable_44'
p2026
ag18
aS'variable_54'
p2027
ag24
ag6
aS'uint16_t'
p2028
ag8
ag13
aS'variable_3'
p2029
aS'->'
p2030
aS'variable_46'
p2031
ag81
aS'variable_43'
p2032
ag82
ag38
aS'variable_35'
p2033
ag879
aS'variable_1'
p2034
aS'->'
p2035
aS'variable_47'
p2036
ag81
aS'variable_4'
p2037
ag82
ag8
ag6
aS'variable_3'
p2038
aS'->'
p2039
aS'variable_48'
p2040
ag81
aS'variable_43'
p2041
ag82
aS'>>'
p2042
ag87
ag13
ag18
aS'for'
p2043
ag6
ag18
aS'variable_35'
p2044
ag27
aS'variable_10'
p2045
aS'->'
p2046
aS'variable_9'
p2047
ag81
aS'variable_4'
p2048
ag82
ag839
aS'variable_20'
p2049
ag81
ag87
ag82
ag81
ag87
ag82
ag168
aS'variable_1'
p2050
aS'->'
p2051
aS'variable_44'
p2052
ag18
aS'variable_35'
p2053
aS'+='
p2054
aS'variable_1'
p2055
aS'->'
p2056
aS'variable_47'
p2057
ag81
aS'variable_4'
p2058
ag82
ag13
aS'variable_34'
p2059
ag24
aS'variable_10'
p2060
aS'->'
p2061
aS'variable_9'
p2062
ag81
aS'variable_4'
p2063
ag82
ag839
aS'variable_20'
p2064
ag81
ag25
ag82
ag81
ag25
ag82
ag168
aS'variable_1'
p2065
aS'->'
p2066
aS'variable_40'
p2067
ag18
aS'variable_49'
p2068
ag24
aS'variable_54'
p2069
ag38
ag6
aS'variable_34'
p2070
ag879
aS'variable_1'
p2071
aS'->'
p2072
aS'variable_50'
p2073
ag81
aS'variable_4'
p2074
ag82
ag8
aS'variable_41'
p2075
ag38
aS'variable_4'
p2076
ag8
ag922
aS'variable_42'
p2077
ag13
ag18
aS'for'
p2078
ag6
ag18
aS'variable_34'
p2079
ag27
aS'variable_39'
p2080
ag18
aS'variable_34'
p2081
aS'+='
p2082
aS'variable_1'
p2083
aS'->'
p2084
aS'variable_50'
p2085
ag81
aS'variable_4'
p2086
ag82
ag13
aS'int'
p2087
aS'variable_51'
p2088
ag24
aS'lrintf'
p2089
ag6
ag8
aS'variable_52'
p2090
ag13
ag38
ag6
ag87
aS'<<'
p2091
ag6
aS'variable_38'
p2092
ag168
ag87
ag13
ag13
ag18
aS'variable_51'
p2093
ag24
aS'func_6'
p2094
ag6
aS'variable_51'
p2095
ag10
ag25
ag10
ag6
ag87
aS'<<'
p2096
aS'variable_38'
p2097
ag13
ag168
ag87
ag13
ag18
ag8
aS'variable_49'
p2098
ag24
aS'variable_51'
p2099
aS'<<'
p2100
ag6
aS'16'
p2101
ag168
aS'variable_38'
p2102
ag13
ag18
aS'variable_49'
p2103
aS'+='
p2104
aS'variable_41'
p2105
ag18
aS'for'
p2106
ag6
ag18
aS'variable_34'
p2107
ag27
aS'variable_39'
p2108
ag18
aS'variable_34'
p2109
aS'+='
p2110
aS'variable_1'
p2111
aS'->'
p2112
aS'variable_50'
p2113
ag81
aS'variable_4'
p2114
ag82
ag13
aS'int'
p2115
aS'variable_51'
p2116
ag24
ag8
aS'variable_53'
p2117
ag38
ag6
ag87
aS'<<'
p2118
ag6
aS'variable_38'
p2119
ag168
ag87
ag13
ag13
ag18
aS'variable_51'
p2120
ag24
aS'func_7'
p2121
ag6
aS'variable_51'
p2122
ag10
ag25
ag10
ag6
ag87
aS'<<'
p2123
aS'variable_38'
p2124
ag13
ag168
ag87
ag13
ag18
ag8
aS'variable_49'
p2125
ag24
aS'variable_51'
p2126
aS'<<'
p2127
ag6
aS'16'
p2128
ag168
aS'variable_38'
p2129
ag13
ag18
aS'variable_49'
p2130
aS'+='
p2131
aS'variable_41'
p2132
ag18
aS'variable_54'
p2133
aS'+='
p2134
aS'variable_3'
p2135
aS'->'
p2136
aS'variable_48'
p2137
ag81
aS'variable_43'
p2138
ag82
aS'>>'
p2139
ag87
ag18
aa(lp2140
S'static'
p2141
aS'int'
p2142
aS'func_0'
p2143
ag6
aS'variable_0'
p2144
ag8
aS'variable_1'
p2145
ag10
aS'variable_2'
p2146
ag8
aS'variable_3'
p2147
ag13
aS'int'
p2148
aS'variable_4'
p2149
ag10
aS'variable_5'
p2150
ag10
aS'variable_6'
p2151
ag18
aS'for'
p2152
ag6
aS'variable_4'
p2153
ag24
ag25
ag18
aS'variable_4'
p2154
ag27
aS'variable_1'
p2155
aS'->'
p2156
aS'variable_7'
p2157
ag18
aS'variable_4'
p2158
aS'++'
p2159
ag13
aS'variable_8'
p2160
ag8
aS'variable_9'
p2161
ag24
aS'variable_10'
p2162
aS'->'
p2163
aS'variable_9'
p2164
ag38
aS'variable_4'
p2165
ag18
aS'for'
p2166
ag6
aS'variable_5'
p2167
ag24
ag25
ag18
aS'variable_5'
p2168
ag27
aS'variable_9'
p2169
aS'->'
p2170
aS'variable_11'
p2171
ag18
aS'variable_5'
p2172
aS'++'
p2173
ag13
aS'func_1'
p2174
ag6
aS'variable_1'
p2175
ag10
aS'variable_9'
p2176
ag10
ag160
aS'variable_12'
p2177
ag10
aS'variable_13'
p2178
ag10
aS'variable_13'
p2179
aS'->'
p2180
aS'variable_14'
p2181
ag81
ag25
ag82
ag81
ag87
ag82
ag168
aS'variable_13'
p2182
aS'->'
p2183
aS'variable_14'
p2184
ag81
ag25
ag82
ag81
ag25
ag82
ag10
aS'variable_13'
p2185
aS'->'
p2186
aS'variable_14'
p2187
ag81
ag87
ag82
ag81
ag87
ag82
ag168
aS'variable_13'
p2188
aS'->'
p2189
aS'variable_14'
p2190
ag81
ag87
ag82
ag81
ag25
ag82
ag10
aS'variable_15'
p2191
ag13
ag18
aS'if'
p2192
ag6
aS'variable_9'
p2193
aS'->'
p2194
aS'variable_16'
p2195
aS'=='
p2196
aS'variable_17'
p2197
ag13
aS'func_2'
p2198
ag6
ag160
aS'variable_18'
p2199
aS'->'
p2200
aS'variable_19'
p2201
ag10
aS'variable_9'
p2202
aS'->'
p2203
aS'variable_16'
p2204
aS'=='
p2205
aS'variable_17'
p2206
ag847
ag6
aS'void'
p2207
ag8
ag13
aS'variable_18'
p2208
aS'->'
p2209
aS'variable_20'
p2210
ag848
ag6
aS'void'
p2211
ag8
ag13
aS'variable_18'
p2212
aS'->'
p2213
aS'variable_21'
p2214
ag13
ag18
aa(lp2215
S'static'
p2216
aS'int'
p2217
aS'func_0'
p2218
ag6
aS'variable_0'
p2219
ag8
aS'variable_1'
p2220
ag10
aS'variable_2'
p2221
ag8
aS'variable_3'
p2222
ag13
aS'int'
p2223
aS'variable_4'
p2224
ag10
aS'variable_5'
p2225
ag10
aS'variable_6'
p2226
ag18
aS'for'
p2227
ag6
aS'variable_4'
p2228
ag24
ag25
ag18
aS'variable_4'
p2229
ag27
aS'variable_1'
p2230
aS'->'
p2231
aS'variable_7'
p2232
ag18
aS'variable_4'
p2233
aS'++'
p2234
ag13
aS'variable_8'
p2235
ag8
aS'variable_9'
p2236
ag24
aS'variable_10'
p2237
aS'->'
p2238
aS'variable_9'
p2239
ag38
aS'variable_4'
p2240
ag18
aS'variable_11'
p2241
ag8
aS'variable_12'
p2242
ag24
aS'variable_9'
p2243
aS'->'
p2244
aS'variable_13'
p2245
ag38
aS'variable_5'
p2246
ag18
aS'for'
p2247
ag6
aS'variable_6'
p2248
ag24
ag25
ag18
aS'variable_6'
p2249
ag27
aS'variable_12'
p2250
aS'->'
p2251
aS'variable_14'
p2252
ag18
aS'variable_6'
p2253
aS'++'
p2254
ag13
aS'variable_15'
p2255
ag8
aS'variable_16'
p2256
ag24
aS'variable_12'
p2257
aS'->'
p2258
aS'variable_16'
p2259
ag38
aS'variable_6'
p2260
ag18
aS'if'
p2261
ag6
aS'variable_16'
p2262
aS'->'
p2263
aS'variable_17'
p2264
ag81
ag25
ag82
ag81
ag25
ag82
aS'=='
p2265
aS'variable_16'
p2266
aS'->'
p2267
aS'variable_17'
p2268
ag81
ag25
ag82
ag81
ag87
ag82
aS'||'
p2269
aS'variable_16'
p2270
aS'->'
p2271
aS'variable_17'
p2272
ag81
ag87
ag82
ag81
ag25
ag82
aS'=='
p2273
aS'variable_16'
p2274
aS'->'
p2275
aS'variable_17'
p2276
ag81
ag87
ag82
ag81
ag87
ag82
ag13
aS'variable_18'
p2277
ag24
aS'variable_12'
p2278
aS'->'
p2279
aS'variable_19'
p2280
ag8
aS'variable_12'
p2281
aS'->'
p2282
aS'variable_20'
p2283
ag18
aS'for'
p2284
ag6
aS'variable_21'
p2285
ag24
ag25
ag18
aS'variable_21'
p2286
ag27
aS'variable_18'
p2287
ag18
aS'variable_21'
p2288
aS'++'
p2289
ag13
aS'variable_22'
p2290
ag8
aS'variable_23'
p2291
ag24
aS'variable_16'
p2292
aS'->'
p2293
aS'variable_23'
p2294
ag38
aS'variable_21'
p2295
ag18
aS'for'
p2296
ag6
aS'variable_24'
p2297
ag24
ag25
ag18
aS'variable_24'
p2298
ag27
aS'variable_23'
p2299
aS'->'
p2300
aS'variable_25'
p2301
ag8
aS'variable_23'
p2302
aS'->'
p2303
aS'variable_26'
p2304
ag18
aS'variable_24'
p2305
aS'++'
p2306
ag13
aS'variable_27'
p2307
ag8
aS'variable_28'
p2308
ag24
aS'variable_23'
p2309
aS'->'
p2310
aS'variable_28'
p2311
ag38
aS'variable_24'
p2312
ag18
aS'func_1'
p2313
ag6
aS'variable_1'
p2314
ag10
aS'variable_29'
p2315
ag10
ag160
aS'variable_30'
p2316
ag10
aS'variable_28'
p2317
ag10
aS'variable_28'
p2318
aS'->'
p2319
aS'variable_17'
p2320
ag81
ag25
ag82
ag81
ag87
ag82
ag168
aS'variable_28'
p2321
aS'->'
p2322
aS'variable_17'
p2323
ag81
ag25
ag82
ag81
ag25
ag82
ag10
aS'variable_28'
p2324
aS'->'
p2325
aS'variable_17'
p2326
ag81
ag87
ag82
ag81
ag87
ag82
ag168
aS'variable_28'
p2327
aS'->'
p2328
aS'variable_17'
p2329
ag81
ag87
ag82
ag81
ag25
ag82
ag10
aS'variable_31'
p2330
ag13
ag18
aS'variable_32'
p2331
ag24
aS'variable_28'
p2332
aS'->'
p2333
aS'variable_17'
p2334
ag81
ag25
ag82
ag81
ag25
ag82
ag18
aS'variable_33'
p2335
ag24
aS'variable_28'
p2336
aS'->'
p2337
aS'variable_17'
p2338
ag81
ag87
ag82
ag81
ag25
ag82
ag18
aS'func_2'
p2339
ag6
aS'variable_32'
p2340
ag10
aS'variable_33'
p2341
ag10
aS'variable_28'
p2342
ag10
aS'variable_9'
p2343
ag10
ag160
aS'variable_30'
p2344
ag10
aS'variable_16'
p2345
ag13
ag18
aS'func_3'
p2346
ag6
aS'variable_32'
p2347
ag10
aS'variable_33'
p2348
ag10
aS'variable_28'
p2349
ag10
aS'variable_9'
p2350
ag10
ag160
aS'variable_30'
p2351
ag10
aS'variable_16'
p2352
ag13
ag18
aS'func_4'
p2353
ag6
ag160
aS'variable_9'
p2354
aS'->'
p2355
aS'variable_34'
p2356
ag10
aS'variable_29'
p2357
aS'->'
p2358
aS'variable_35'
p2359
aS'=='
p2360
aS'variable_36'
p2361
ag847
ag6
aS'void'
p2362
ag8
ag13
aS'variable_9'
p2363
aS'->'
p2364
aS'variable_37'
p2365
ag848
ag6
aS'void'
p2366
ag8
ag13
aS'variable_9'
p2367
aS'->'
p2368
aS'variable_38'
p2369
ag13
ag18
aS'for'
p2370
ag6
aS'variable_32'
p2371
ag24
ag25
ag18
aS'variable_32'
p2372
ag27
aS'variable_1'
p2373
aS'->'
p2374
aS'variable_7'
p2375
ag18
aS'variable_32'
p2376
aS'++'
p2377
ag13
aS'variable_1'
p2378
aS'->'
p2379
aS'variable_39'
p2380
ag81
aS'variable_32'
p2381
ag82
ag24
aS'variable_32'
p2382
ag38
ag87
ag18
aS'if'
p2383
ag6
ag6
aS'variable_1'
p2384
aS'->'
p2385
aS'variable_7'
p2386
ag160
ag87
ag13
aS'=='
p2387
ag25
ag13
aS'variable_1'
p2388
aS'->'
p2389
aS'variable_39'
p2390
ag81
aS'variable_1'
p2391
aS'->'
p2392
aS'variable_7'
p2393
ag168
ag87
ag82
ag24
ag25
ag18
aS'if'
p2394
ag6
aS'variable_1'
p2395
aS'->'
p2396
aS'variable_40'
p2397
ag27
ag24
ag173
ag13
aS'for'
p2398
ag6
aS'variable_4'
p2399
ag24
ag25
ag18
aS'variable_4'
p2400
ag27
aS'variable_1'
p2401
aS'->'
p2402
aS'variable_7'
p2403
ag18
aS'variable_4'
p2404
aS'++'
p2405
ag13
aS'int'
p2406
aS'variable_41'
p2407
ag24
aS'variable_1'
p2408
aS'->'
p2409
aS'variable_41'
p2410
ag81
aS'variable_4'
p2411
ag82
ag18
aS'int'
p2412
aS'variable_42'
p2413
ag24
aS'variable_10'
p2414
aS'->'
p2415
aS'variable_9'
p2416
ag81
aS'variable_4'
p2417
ag82
ag839
aS'variable_17'
p2418
ag81
ag25
ag82
ag81
ag87
ag82
ag168
aS'variable_1'
p2419
aS'->'
p2420
aS'variable_43'
p2421
ag18
aS'int'
p2422
aS'variable_44'
p2423
ag24
aS'variable_45'
p2424
ag847
ag87
ag848
aS'variable_1'
p2425
aS'->'
p2426
aS'variable_7'
p2427
ag18
aS'variable_46'
p2428
ag24
aS'variable_1'
p2429
aS'->'
p2430
aS'variable_39'
p2431
ag81
aS'variable_4'
p2432
ag82
ag847
aS'variable_1'
p2433
aS'->'
p2434
aS'variable_39'
p2435
ag81
aS'variable_4'
p2436
ag82
ag168
ag87
ag848
ag6
aS'variable_1'
p2437
aS'->'
p2438
aS'variable_7'
p2439
ag168
ag87
ag13
ag18
aS'variable_33'
p2440
ag24
aS'variable_10'
p2441
aS'->'
p2442
aS'variable_9'
p2443
ag81
aS'variable_4'
p2444
ag82
ag839
aS'variable_17'
p2445
ag81
ag87
ag82
ag81
ag25
ag82
ag168
aS'variable_1'
p2446
aS'->'
p2447
aS'variable_47'
p2448
ag18
aS'variable_48'
p2449
ag24
aS'variable_3'
p2450
aS'->'
p2451
aS'variable_49'
p2452
ag81
aS'variable_46'
p2453
ag82
ag38
aS'variable_33'
p2454
ag879
aS'variable_1'
p2455
aS'->'
p2456
aS'variable_50'
p2457
ag81
aS'variable_4'
p2458
ag82
ag8
aS'variable_3'
p2459
aS'->'
p2460
aS'variable_51'
p2461
ag81
aS'variable_46'
p2462
ag82
ag18
aS'for'
p2463
ag6
ag18
aS'variable_33'
p2464
ag27
aS'variable_10'
p2465
aS'->'
p2466
aS'variable_9'
p2467
ag81
aS'variable_4'
p2468
ag82
ag839
aS'variable_17'
p2469
ag81
ag87
ag82
ag81
ag87
ag82
ag168
aS'variable_1'
p2470
aS'->'
p2471
aS'variable_47'
p2472
ag18
aS'variable_33'
p2473
aS'+='
p2474
aS'variable_1'
p2475
aS'->'
p2476
aS'variable_50'
p2477
ag81
aS'variable_4'
p2478
ag82
ag13
aS'variable_32'
p2479
ag24
aS'variable_10'
p2480
aS'->'
p2481
aS'variable_9'
p2482
ag81
aS'variable_4'
p2483
ag82
ag839
aS'variable_17'
p2484
ag81
ag25
ag82
ag81
ag25
ag82
ag168
aS'variable_1'
p2485
aS'->'
p2486
aS'variable_43'
p2487
ag18
aS'variable_52'
p2488
ag24
aS'variable_48'
p2489
ag38
aS'variable_32'
p2490
ag879
aS'variable_1'
p2491
aS'->'
p2492
aS'variable_53'
p2493
ag81
aS'variable_4'
p2494
ag82
ag8
aS'variable_44'
p2495
ag38
aS'variable_4'
p2496
ag8
ag922
aS'variable_45'
p2497
ag18
aS'for'
p2498
ag6
ag18
aS'variable_32'
p2499
ag27
aS'variable_42'
p2500
ag18
aS'variable_32'
p2501
aS'+='
p2502
aS'variable_1'
p2503
aS'->'
p2504
aS'variable_53'
p2505
ag81
aS'variable_4'
p2506
ag82
ag13
aS'int'
p2507
aS'variable_54'
p2508
ag24
aS'lrintf'
p2509
ag6
ag8
aS'variable_55'
p2510
ag13
ag38
ag6
ag87
aS'<<'
p2511
ag6
aS'variable_41'
p2512
ag168
ag87
ag13
ag13
ag18
aS'variable_54'
p2513
ag24
aS'func_5'
p2514
ag6
aS'variable_54'
p2515
ag10
ag25
ag10
ag6
ag87
aS'<<'
p2516
aS'variable_41'
p2517
ag13
ag168
ag87
ag13
ag18
ag8
aS'variable_52'
p2518
ag24
aS'variable_54'
p2519
aS'<<'
p2520
ag6
ag173
ag168
aS'variable_41'
p2521
ag13
ag18
aS'variable_52'
p2522
aS'+='
p2523
aS'variable_44'
p2524
ag18
aS'for'
p2525
ag6
ag18
aS'variable_32'
p2526
ag27
aS'variable_42'
p2527
ag18
aS'variable_32'
p2528
aS'+='
p2529
aS'variable_1'
p2530
aS'->'
p2531
aS'variable_53'
p2532
ag81
aS'variable_4'
p2533
ag82
ag13
aS'int'
p2534
aS'variable_54'
p2535
ag24
ag8
aS'variable_56'
p2536
ag38
ag6
ag87
aS'<<'
p2537
ag6
aS'variable_41'
p2538
ag168
ag87
ag13
ag13
ag18
aS'variable_54'
p2539
ag24
aS'func_6'
p2540
ag6
aS'variable_54'
p2541
ag10
ag25
ag10
ag6
ag87
aS'<<'
p2542
aS'variable_41'
p2543
ag13
ag168
ag87
ag13
ag18
ag8
aS'variable_52'
p2544
ag24
aS'variable_54'
p2545
aS'<<'
p2546
ag6
ag173
ag168
aS'variable_41'
p2547
ag13
ag18
aS'variable_52'
p2548
aS'+='
p2549
aS'variable_44'
p2550
ag18
aS'variable_48'
p2551
aS'+='
p2552
aS'variable_3'
p2553
aS'->'
p2554
aS'variable_51'
p2555
ag81
aS'variable_46'
p2556
ag82
ag18
aS'for'
p2557
ag6
aS'variable_4'
p2558
ag24
ag25
ag18
aS'variable_4'
p2559
ag27
aS'variable_1'
p2560
aS'->'
p2561
aS'variable_7'
p2562
ag18
aS'variable_4'
p2563
aS'++'
p2564
ag13
aS'int'
p2565
aS'variable_41'
p2566
ag24
aS'variable_1'
p2567
aS'->'
p2568
aS'variable_41'
p2569
ag81
aS'variable_4'
p2570
ag82
ag18
aS'int'
p2571
aS'variable_42'
p2572
ag24
aS'variable_10'
p2573
aS'->'
p2574
aS'variable_9'
p2575
ag81
aS'variable_4'
p2576
ag82
ag839
aS'variable_17'
p2577
ag81
ag25
ag82
ag81
ag87
ag82
ag168
aS'variable_1'
p2578
aS'->'
p2579
aS'variable_43'
p2580
ag18
aS'int'
p2581
aS'variable_44'
p2582
ag24
aS'variable_45'
p2583
ag847
ag87
ag848
aS'variable_1'
p2584
aS'->'
p2585
aS'variable_7'
p2586
ag18
aS'variable_46'
p2587
ag24
aS'variable_1'
p2588
aS'->'
p2589
aS'variable_39'
p2590
ag81
aS'variable_4'
p2591
ag82
ag847
aS'variable_1'
p2592
aS'->'
p2593
aS'variable_39'
p2594
ag81
aS'variable_4'
p2595
ag82
ag168
ag87
ag848
ag6
aS'variable_1'
p2596
aS'->'
p2597
aS'variable_7'
p2598
ag168
ag87
ag13
ag18
aS'variable_33'
p2599
ag24
aS'variable_10'
p2600
aS'->'
p2601
aS'variable_9'
p2602
ag81
aS'variable_4'
p2603
ag82
ag839
aS'variable_17'
p2604
ag81
ag87
ag82
ag81
ag25
ag82
ag168
aS'variable_1'
p2605
aS'->'
p2606
aS'variable_47'
p2607
ag18
aS'variable_57'
p2608
ag24
ag6
aS'uint16_t'
p2609
ag8
ag13
aS'variable_3'
p2610
aS'->'
p2611
aS'variable_49'
p2612
ag81
aS'variable_46'
p2613
ag82
ag38
aS'variable_33'
p2614
ag879
aS'variable_1'
p2615
aS'->'
p2616
aS'variable_50'
p2617
ag81
aS'variable_4'
p2618
ag82
ag8
ag6
aS'variable_3'
p2619
aS'->'
p2620
aS'variable_51'
p2621
ag81
aS'variable_46'
p2622
ag82
aS'>>'
p2623
ag87
ag13
ag18
aS'for'
p2624
ag6
ag18
aS'variable_33'
p2625
ag27
aS'variable_10'
p2626
aS'->'
p2627
aS'variable_9'
p2628
ag81
aS'variable_4'
p2629
ag82
ag839
aS'variable_17'
p2630
ag81
ag87
ag82
ag81
ag87
ag82
ag168
aS'variable_1'
p2631
aS'->'
p2632
aS'variable_47'
p2633
ag18
aS'variable_33'
p2634
aS'+='
p2635
aS'variable_1'
p2636
aS'->'
p2637
aS'variable_50'
p2638
ag81
aS'variable_4'
p2639
ag82
ag13
aS'variable_32'
p2640
ag24
aS'variable_10'
p2641
aS'->'
p2642
aS'variable_9'
p2643
ag81
aS'variable_4'
p2644
ag82
ag839
aS'variable_17'
p2645
ag81
ag25
ag82
ag81
ag25
ag82
ag168
aS'variable_1'
p2646
aS'->'
p2647
aS'variable_43'
p2648
ag18
aS'variable_52'
p2649
ag24
aS'variable_57'
p2650
ag38
ag6
aS'variable_32'
p2651
ag879
aS'variable_1'
p2652
aS'->'
p2653
aS'variable_53'
p2654
ag81
aS'variable_4'
p2655
ag82
ag8
aS'variable_44'
p2656
ag38
aS'variable_4'
p2657
ag8
ag922
aS'variable_45'
p2658
ag13
ag18
aS'for'
p2659
ag6
ag18
aS'variable_32'
p2660
ag27
aS'variable_42'
p2661
ag18
aS'variable_32'
p2662
aS'+='
p2663
aS'variable_1'
p2664
aS'->'
p2665
aS'variable_53'
p2666
ag81
aS'variable_4'
p2667
ag82
ag13
aS'int'
p2668
aS'variable_54'
p2669
ag24
aS'lrintf'
p2670
ag6
ag8
aS'variable_55'
p2671
ag13
ag38
ag6
ag87
aS'<<'
p2672
ag6
aS'variable_41'
p2673
ag168
ag87
ag13
ag13
ag18
aS'variable_54'
p2674
ag24
aS'func_7'
p2675
ag6
aS'variable_54'
p2676
ag10
ag25
ag10
ag6
ag87
aS'<<'
p2677
aS'variable_41'
p2678
ag13
ag168
ag87
ag13
ag18
ag8
aS'variable_52'
p2679
ag24
aS'variable_54'
p2680
aS'<<'
p2681
ag6
aS'16'
p2682
ag168
aS'variable_41'
p2683
ag13
ag18
aS'variable_52'
p2684
aS'+='
p2685
aS'variable_44'
p2686
ag18
aS'for'
p2687
ag6
ag18
aS'variable_32'
p2688
ag27
aS'variable_42'
p2689
ag18
aS'variable_32'
p2690
aS'+='
p2691
aS'variable_1'
p2692
aS'->'
p2693
aS'variable_53'
p2694
ag81
aS'variable_4'
p2695
ag82
ag13
aS'int'
p2696
aS'variable_54'
p2697
ag24
ag8
aS'variable_56'
p2698
ag38
ag6
ag87
aS'<<'
p2699
ag6
aS'variable_41'
p2700
ag168
ag87
ag13
ag13
ag18
aS'variable_54'
p2701
ag24
aS'func_8'
p2702
ag6
aS'variable_54'
p2703
ag10
ag25
ag10
ag6
ag87
aS'<<'
p2704
aS'variable_41'
p2705
ag13
ag168
ag87
ag13
ag18
ag8
aS'variable_52'
p2706
ag24
aS'variable_54'
p2707
aS'<<'
p2708
ag6
aS'16'
p2709
ag168
aS'variable_41'
p2710
ag13
ag18
aS'variable_52'
p2711
aS'+='
p2712
aS'variable_44'
p2713
ag18
aS'variable_57'
p2714
aS'+='
p2715
aS'variable_3'
p2716
aS'->'
p2717
aS'variable_51'
p2718
ag81
aS'variable_46'
p2719
ag82
aS'>>'
p2720
ag87
ag18
aaa(lp2721
I0
aI0
aI0
aI0
aI0
aI0
aI0
aI0
aa(lp2722
I329
aI329
aI329
aI212
aI103
aI78
aI43
aI43
aa(lp2723
(lp2724
S'main'
p2725
aa(lp2726
g2725
aa(lp2727
g2725
aa(lp2728
g2725
aa(lp2729
g2725
aa(lp2730
g2725
aa(lp2731
g2725
aa(lp2732
g2725
aaa(lp2733
S'873 /home/SySeVR/data/CVE_2013_7024_PATCHED_jpeg2000_decode_tile.c Jpeg2000CodingStyle * codsty = tile -> codsty + compno ; 120'
p2734
aS'874 /home/SySeVR/data/CVE_2013_7024_PATCHED_jpeg2000_decode_tile.c Jpeg2000Component * comp = tile -> comp + compno ; 119'
p2735
aS'876 /home/SySeVR/data/CVE_2013_7024_PATCHED_jpeg2000_decode_tile.c Jpeg2000Component * comp = tile -> comp + compno ; 73'
p2736
aS'877 /home/SySeVR/data/CVE_2013_7024_PATCHED_jpeg2000_decode_tile.c Jpeg2000Cblk * cblk = prec -> cblk + cblkno ; 38'
p2737
aS'879 /home/SySeVR/data/CVE_2013_7024_PATCHED_jpeg2000_decode_tile.c Jpeg2000Band * band = rlevel -> band + bandno ; 21'
p2738
aS'880 /home/SySeVR/data/CVE_2013_7024_PATCHED_jpeg2000_decode_tile.c Jpeg2000ResLevel * rlevel = comp -> reslevel + reslevelno ; 17'
p2739
aS'881 /home/SySeVR/data/CVE_2013_7024_PATCHED_jpeg2000_decode_tile.c Jpeg2000CodingStyle * codsty = tile -> codsty + compno ; 13'
p2740
aS'882 /home/SySeVR/data/CVE_2013_7024_PATCHED_jpeg2000_decode_tile.c Jpeg2000Component * comp = tile -> comp + compno ; 12'
p2741
aa.