(lp0
(lp1
(lp2
S'static'
p3
aS'int'
p4
aS'func_0'
p5
aS'('
p6
aS'const'
p7
aS'unsigned'
p8
aS'char'
p9
aS'*'
p10
aS'variable_0'
p11
aS','
p12
aS'int'
p13
aS'variable_1'
p14
ag12
aS'unsigned'
p15
aS'char'
p16
ag10
aS'variable_2'
p17
ag12
aS'int'
p18
aS'variable_3'
p19
aS')'
p20
aS'const'
p21
aS'unsigned'
p22
aS'char'
p23
ag10
aS'variable_4'
p24
aS';'
p25
aS'const'
p26
aS'unsigned'
p27
aS'char'
p28
ag10
aS'variable_5'
p29
ag25
aS'unsigned'
p30
aS'char'
p31
ag10
aS'variable_6'
p32
ag25
aS'int'
p33
aS'variable_7'
p34
ag12
aS'variable_8'
p35
ag12
aS'variable_9'
p36
ag25
aS'unsigned'
p37
aS'char'
p38
ag10
aS'variable_10'
p39
aS'='
p40
aS'variable_2'
p41
aS'+'
p42
aS'variable_3'
p43
ag25
aS'variable_4'
p44
ag40
aS'variable_0'
p45
ag25
aS'variable_5'
p46
ag40
aS'variable_0'
p47
ag42
aS'variable_1'
p48
ag25
aS'variable_6'
p49
ag40
aS'variable_2'
p50
ag25
aS'if'
p51
ag6
aS'variable_11'
p52
aS'&'
p53
aS'1'
p54
ag20
aS'if'
p55
ag6
aS'variable_5'
p56
aS'-'
p57
aS'variable_4'
p58
aS'<'
p59
ag54
ag20
ag10
aS'variable_6'
p60
aS'++'
p61
ag40
ag10
aS'variable_4'
p62
aS'++'
p63
ag25
aS'variable_11'
p64
aS'>>'
p65
ag40
ag54
ag25
aS'variable_7'
p66
ag40
aS'0'
p67
ag25
aS'if'
p68
ag6
aS'variable_5'
p69
ag57
aS'variable_4'
p70
ag59
ag54
ag20
aS'variable_9'
p71
ag40
ag10
aS'variable_4'
p72
aS'++'
p73
ag25
aS'if'
p74
ag6
aS'variable_9'
p75
ag53
aS'0x80'
p76
ag20
aS'variable_9'
p77
ag40
ag6
aS'variable_9'
p78
ag53
aS'0x7F'
p79
ag20
ag10
aS'2'
p80
ag25
aS'if'
p81
ag6
aS'variable_10'
p82
ag57
aS'variable_6'
p83
ag59
aS'variable_9'
p84
aS'||'
p85
aS'variable_5'
p86
ag57
aS'variable_4'
p87
ag59
aS'variable_9'
p88
ag20
aS'memcpy'
p89
ag6
aS'variable_6'
p90
ag12
aS'variable_4'
p91
ag12
aS'variable_9'
p92
ag20
ag25
aS'variable_4'
p93
aS'+='
p94
aS'variable_9'
p95
ag25
aS'variable_6'
p96
aS'+='
p97
aS'variable_9'
p98
ag25
aS'if'
p99
ag6
aS'variable_10'
p100
ag57
aS'variable_6'
p101
ag59
ag80
ag10
aS'variable_9'
p102
aS'||'
p103
aS'variable_5'
p104
ag57
aS'variable_4'
p105
ag59
ag80
ag20
aS'for'
p106
ag6
aS'variable_8'
p107
ag40
ag67
ag25
aS'variable_8'
p108
ag59
aS'variable_9'
p109
ag25
aS'variable_8'
p110
aS'++'
p111
ag20
ag10
aS'variable_6'
p112
aS'++'
p113
ag40
aS'variable_4'
p114
aS'['
p115
ag67
aS']'
p116
ag25
ag10
aS'variable_6'
p117
aS'++'
p118
ag40
aS'variable_4'
p119
ag115
ag54
ag116
ag25
aS'variable_4'
p120
aS'+='
p121
ag80
ag25
aS'variable_7'
p122
aS'+='
p123
aS'variable_9'
p124
ag25
aS'while'
p125
ag6
aS'variable_7'
p126
ag59
aS'variable_11'
p127
ag20
aaa(lp128
I0
aa(lp129
I142
aa(lp130
(lp131
S'main'
p132
aaa(lp133
S'537 /home/SySeVR/data/CVE_2013_3670_PATCHED_rle_unpack.c memcpy 29'
p134
aa.