(lp0
(lp1
(lp2
S'static'
p3
aS'int'
p4
aS'func_0'
p5
aS'('
p6
aS'const'
p7
aS'unsigned'
p8
aS'char'
p9
aS'*'
p10
aS'variable_0'
p11
aS','
p12
aS'int'
p13
aS'variable_1'
p14
ag12
aS'unsigned'
p15
aS'char'
p16
ag10
aS'variable_2'
p17
ag12
aS'int'
p18
aS'variable_3'
p19
aS')'
p20
aS'unsigned'
p21
aS'char'
p22
ag10
aS'variable_4'
p23
aS'='
p24
aS'variable_2'
p25
aS'+'
p26
aS'variable_3'
p27
aS';'
p28
aS'if'
p29
ag6
aS'variable_4'
p30
aS'-'
p31
aS'variable_5'
p32
aS'<'
p33
aS'variable_6'
p34
aS'||'
p35
aS'variable_7'
p36
ag31
aS'variable_8'
p37
ag33
aS'variable_6'
p38
ag20
aS'if'
p39
ag6
aS'variable_4'
p40
ag31
aS'variable_5'
p41
ag33
aS'2'
p42
ag10
aS'variable_6'
p43
aS'||'
p44
aS'variable_7'
p45
ag31
aS'variable_8'
p46
ag33
ag42
ag20
aaa(lp47
I0
aa(lp48
I29
aa(lp49
(lp50
S'main'
p51
aaa(lp52
S'838 /home/SySeVR/data/CVE_2013_3670_PATCHED_rle_unpack.c unsigned char * dest_end = dest + dest_len ; 8'
p53
aa.