(lp0
(lp1
(lp2
S'func_0'
p3
aS'('
p4
aS'struct'
p5
aS'variable_0'
p6
aS'*'
p7
aS'variable_1'
p8
aS')'
p9
aS'if'
p10
ag4
aS'variable_1'
p11
aS'->'
p12
aS'variable_2'
p13
aS'>'
p14
aS'func_1'
p15
ag4
aS'variable_1'
p16
aS'->'
p17
aS'variable_3'
p18
ag9
ag9
aS'variable_1'
p19
aS'->'
p20
aS'variable_4'
p21
aS'='
p22
aS'kmalloc'
p23
ag4
aS'variable_1'
p24
aS'->'
p25
aS'variable_2'
p26
ag7
aS'sizeof'
p27
ag4
ag7
aS'variable_1'
p28
aS'->'
p29
aS'variable_4'
p30
ag9
aS','
p31
aS'variable_5'
p32
ag9
aS';'
p33
aS'if'
p34
ag4
aS'!'
p35
aS'variable_1'
p36
aS'->'
p37
aS'variable_4'
p38
ag9
aS'variable_1'
p39
aS'->'
p40
aS'variable_4'
p41
ag22
aS'variable_1'
p42
aS'->'
p43
aS'variable_3'
p44
ag33
aS'if'
p45
ag4
aS'variable_1'
p46
aS'->'
p47
aS'variable_6'
p48
ag14
ag22
aS'func_2'
p49
ag4
aS'variable_7'
p50
ag9
ag9
aS'variable_1'
p51
aS'->'
p52
aS'variable_2'
p53
ag22
aS'0'
p54
ag33
aS'variable_4'
p55
ag22
aS'&'
p56
aS'variable_7'
p57
aS'['
p58
aS'variable_1'
p59
aS'->'
p60
aS'variable_6'
p61
aS']'
p62
ag33
aS'for'
p63
ag4
aS'variable_8'
p64
ag22
ag54
ag33
aS'variable_8'
p65
aS'<'
p66
aS'variable_1'
p67
aS'->'
p68
aS'variable_2'
p69
ag33
aS'variable_8'
p70
aS'++'
p71
ag9
aS'variable_9'
p72
ag22
ag56
aS'variable_1'
p73
aS'->'
p74
aS'variable_4'
p75
ag58
aS'variable_8'
p76
ag62
ag33
aS'variable_9'
p77
aS'->'
p78
aS'variable_10'
p79
ag22
aS'NULL'
p80
ag33
aS'if'
p81
ag4
aS'variable_1'
p82
aS'->'
p83
aS'variable_11'
p84
aS'=='
p85
aS'variable_1'
p86
aS'->'
p87
aS'variable_12'
p88
ag9
aS'if'
p89
ag4
aS'variable_1'
p90
aS'->'
p91
aS'variable_13'
p92
ag66
aS'4'
p93
ag9
aS'variable_9'
p94
aS'->'
p95
aS'variable_14'
p96
ag22
aS'variable_15'
p97
aS'+'
p98
aS'1'
p99
ag33
aS'variable_9'
p100
aS'->'
p101
aS'variable_16'
p102
ag22
aS'variable_17'
p103
ag33
aS'variable_1'
p104
aS'->'
p105
aS'variable_2'
p106
ag22
aS'variable_8'
p107
ag98
ag99
ag33
aS'variable_1'
p108
aS'->'
p109
aS'variable_11'
p110
ag22
aS'func_3'
p111
ag4
aS'variable_1'
p112
aS'->'
p113
aS'variable_18'
p114
ag58
ag54
ag62
ag9
ag33
aS'variable_1'
p115
aS'->'
p116
aS'variable_18'
p117
aS'++'
p118
ag33
aS'if'
p119
ag4
aS'variable_1'
p120
aS'->'
p121
aS'variable_13'
p122
ag66
aS'variable_19'
p123
ag9
aS'variable_1'
p124
aS'->'
p125
aS'variable_12'
p126
ag22
aS'variable_1'
p127
aS'->'
p128
aS'variable_11'
p129
ag98
ag4
aS'variable_1'
p130
aS'->'
p131
aS'variable_13'
p132
aS'>>'
p133
aS'2'
p134
ag9
ag33
aS'variable_1'
p135
aS'->'
p136
aS'variable_13'
p137
ag22
ag54
ag33
aS'variable_1'
p138
aS'->'
p139
aS'variable_12'
p140
ag22
aS'variable_1'
p141
aS'->'
p142
aS'variable_11'
p143
ag98
ag4
aS'variable_19'
p144
aS'>>'
p145
ag134
ag9
ag33
aS'variable_1'
p146
aS'->'
p147
aS'variable_13'
p148
aS'-='
p149
aS'variable_19'
p150
ag33
aS'variable_9'
p151
aS'->'
p152
aS'variable_14'
p153
ag22
aS'func_4'
p154
ag4
ag7
aS'variable_1'
p155
aS'->'
p156
aS'variable_11'
p157
aS'++'
p158
ag9
ag33
aS'if'
p159
ag4
aS'variable_9'
p160
aS'->'
p161
aS'variable_14'
p162
ag14
ag22
aS'variable_20'
p163
aS'&&'
p164
aS'variable_9'
p165
aS'->'
p166
aS'variable_14'
p167
ag66
aS'variable_4'
p168
aS'->'
p169
aS'variable_21'
p170
ag9
aS'variable_9'
p171
aS'->'
p172
aS'variable_16'
p173
ag22
aS'variable_4'
p174
aS'->'
p175
aS'variable_22'
p176
ag58
aS'variable_9'
p177
aS'->'
p178
aS'variable_14'
p179
ag62
ag4
aS'variable_1'
p180
ag31
ag56
aS'variable_9'
p181
aS'->'
p182
aS'variable_23'
p183
ag9
ag33
aS'variable_9'
p184
aS'->'
p185
aS'variable_14'
p186
ag22
aS'variable_24'
p187
ag33
aS'variable_9'
p188
aS'->'
p189
aS'variable_16'
p190
ag22
aS'variable_25'
p191
ag33
aS'if'
p192
ag4
aS'variable_9'
p193
aS'->'
p194
aS'variable_16'
p195
ag9
aaa(lp196
I0
aa(lp197
I36
aa(lp198
(lp199
S'main'
p200
aaa(lp201
S'125 /home/SySeVR/data/CVE_2010_2521_PATCHED_nfsd4_decode_compound.c argp -> ops = kmalloc ( argp -> opcnt * sizeof ( * argp -> ops ) , GFP_KERNEL ) 28'
p202
aa.