(lp0
(lp1
(lp2
S'static'
p3
aS'variable_0'
p4
aS'*'
p5
aS'func_0'
p6
aS'('
p7
aS'variable_0'
p8
ag5
aS'variable_1'
p9
aS','
p10
aS'int'
p11
aS'variable_2'
p12
ag10
aS'variable_3'
p13
ag5
aS'variable_4'
p14
ag10
aS'variable_5'
p15
ag5
aS'variable_6'
p16
aS')'
p17
aS'int'
p18
aS'variable_7'
p19
ag10
aS'variable_8'
p20
aS';'
p21
aS'int'
p22
aS'variable_9'
p23
aS'='
p24
aS'func_1'
p25
ag7
aS'variable_1'
p26
ag17
aS'-'
p27
aS'1'
p28
ag21
aS'variable_10'
p29
ag5
aS'variable_11'
p30
ag10
ag5
aS'variable_12'
p31
ag10
ag5
aS'variable_13'
p32
ag10
ag5
aS'variable_14'
p33
ag10
aS'variable_15'
p34
ag24
aS'0'
p35
ag21
aS'guint16'
p36
aS'variable_16'
p37
ag10
aS'variable_17'
p38
ag21
aS'guint8'
p39
aS'variable_18'
p40
aS'['
p41
aS'variable_19'
p42
aS']'
p43
ag21
aS'variable_20'
p44
ag5
aS'variable_21'
p45
ag21
aS'variable_22'
p46
ag24
aS'func_2'
p47
ag7
aS'variable_4'
p48
ag17
ag21
aS'variable_13'
p49
ag24
aS'variable_22'
p50
aS'->'
p51
aS'variable_23'
p52
ag21
aS'variable_14'
p53
ag24
aS'variable_13'
p54
aS'+'
p55
aS'variable_24'
p56
ag21
aS'if'
p57
ag7
aS'variable_9'
p58
ag27
aS'variable_2'
p59
aS'>'
p60
aS'variable_19'
p61
ag17
aS'variable_12'
p62
ag24
ag7
aS'guint8'
p63
ag5
ag17
aS'func_3'
p64
ag7
aS'variable_1'
p65
ag10
aS'variable_18'
p66
ag10
aS'variable_2'
p67
ag10
aS'variable_9'
p68
ag27
aS'variable_2'
p69
ag17
ag21
aS'variable_11'
p70
ag24
aS'variable_22'
p71
aS'->'
p72
aS'variable_25'
p73
ag21
aS'variable_7'
p74
ag24
ag35
ag21
aS'variable_8'
p75
ag24
ag27
ag28
ag21
aS'while'
p76
ag7
aS'variable_2'
p77
aS'<'
p78
aS'variable_9'
p79
ag17
aS'if'
p80
ag7
aS'--'
p81
aS'variable_8'
p82
ag60
ag24
ag35
ag17
aS'if'
p83
ag7
aS'variable_15'
p84
aS'&'
p85
aS'0x80'
p86
ag17
aS'variable_16'
p87
ag24
aS'func_4'
p88
ag7
aS'variable_12'
p89
ag17
ag85
aS'variable_26'
p90
ag21
aS'if'
p91
ag7
ag7
ag5
aS'variable_12'
p92
ag85
aS'0xf0'
p93
ag17
aS'=='
p94
aS'0x10'
p95
ag17
aS'variable_17'
p96
ag24
ag5
ag7
aS'variable_12'
p97
ag55
aS'2'
p98
ag17
ag55
ag28
ag21
aS'variable_12'
p99
aS'+='
p100
aS'3'
p101
ag21
aS'variable_2'
p102
aS'+='
p103
ag101
ag21
aS'variable_17'
p104
ag24
ag7
ag5
aS'variable_12'
p105
aS'>>'
p106
aS'4'
p107
ag17
ag55
ag28
ag21
aS'variable_12'
p108
aS'+='
p109
ag98
ag21
aS'variable_2'
p110
aS'+='
p111
ag98
ag21
aS'if'
p112
ag7
aS'variable_16'
p113
ag55
ag28
ag60
aS'variable_22'
p114
aS'->'
p115
aS'variable_27'
p116
ag17
aS'if'
p117
ag7
aS'variable_16'
p118
ag55
ag28
ag78
aS'variable_17'
p119
ag17
aS'if'
p120
ag7
aS'!'
p121
aS'variable_4'
p122
aS'->'
p123
aS'variable_28'
p124
aS'->'
p125
aS'variable_29'
p126
aS'.'
p127
aS'variable_30'
p128
ag17
aS'variable_11'
p129
ag24
aS'func_5'
p130
ag7
aS'variable_11'
p131
ag10
aS'variable_16'
p132
ag10
aS'variable_17'
p133
ag10
ag85
aS'variable_7'
p134
ag10
aS'variable_22'
p135
ag17
ag21
aS'if'
p136
ag7
aS'variable_11'
p137
aS'=='
p138
aS'NULL'
p139
ag17
aS'if'
p140
ag7
aS'++'
p141
aS'variable_7'
p142
ag60
aS'variable_19'
p143
ag17
aS'if'
p144
ag7
ag121
aS'variable_4'
p145
aS'->'
p146
aS'variable_28'
p147
aS'->'
p148
aS'variable_29'
p149
ag127
aS'variable_30'
p150
ag17
ag5
aS'variable_11'
p151
ag24
ag5
aS'variable_12'
p152
ag21
aS'if'
p153
ag7
aS'variable_11'
p154
aS'++'
p155
aS'=='
p156
aS'variable_14'
p157
ag17
aS'variable_11'
p158
ag24
aS'variable_13'
p159
ag21
aS'if'
p160
ag7
aS'variable_22'
p161
aS'->'
p162
aS'variable_27'
p163
ag78
aS'variable_24'
p164
ag17
aS'variable_22'
p165
aS'->'
p166
aS'variable_27'
p167
aS'++'
p168
ag21
aS'variable_15'
p169
aS'<<'
p170
ag24
ag28
ag21
aS'variable_15'
p171
ag24
ag5
aS'variable_12'
p172
aS'++'
p173
ag21
aS'variable_2'
p174
aS'++'
p175
ag21
aS'variable_8'
p176
ag24
aS'8'
p177
ag21
aS'if'
p178
ag7
aS'variable_4'
p179
aS'->'
p180
aS'variable_28'
p181
aS'->'
p182
aS'variable_29'
p183
ag127
aS'variable_30'
p184
ag17
aS'variable_21'
p185
ag24
aS'func_6'
p186
ag7
aS'func_7'
p187
ag7
ag17
ag10
aS'variable_20'
p188
ag17
ag21
aS'memcpy'
p189
ag7
ag85
aS'variable_21'
p190
aS'->'
p191
aS'variable_23'
p192
ag10
aS'variable_22'
p193
aS'->'
p194
aS'variable_25'
p195
ag10
aS'variable_7'
p196
ag17
ag21
aS'variable_21'
p197
aS'->'
p198
aS'variable_7'
p199
ag24
aS'variable_7'
p200
ag21
aS'func_8'
p201
ag7
aS'func_9'
p202
ag7
ag17
ag10
aS'variable_4'
p203
ag10
aS'variable_31'
p204
ag10
ag35
ag10
ag7
aS'void'
p205
ag5
ag17
aS'variable_21'
p206
ag17
ag21
aS'variable_32'
p207
ag24
aS'func_10'
p208
ag7
aS'variable_1'
p209
ag10
aS'variable_21'
p210
aS'->'
p211
aS'variable_23'
p212
ag10
aS'variable_21'
p213
aS'->'
p214
aS'variable_7'
p215
ag10
aS'variable_21'
p216
aS'->'
p217
aS'variable_7'
p218
ag17
ag21
aS'func_11'
p219
ag7
aS'variable_4'
p220
ag10
aS'variable_32'
p221
ag10
aS'"'
p222
aS'Uncompressed'
p223
aS'WCP'
p224
ag222
ag17
ag21
aS'return'
p225
aS'variable_32'
p226
ag21
aaa(lp227
I0
aa(lp228
I342
aa(lp229
(lp230
S'main'
p231
aaa(lp232
S'626 /home/SySeVR/data/CVE_2015_3811_PATCHED_wcp_uncompress.c memcpy 195'
p233
aa.