(lp0
(lp1
(lp2
S'static'
p3
aS'variable_0'
p4
aS'*'
p5
aS'func_0'
p6
aS'('
p7
aS'variable_0'
p8
ag5
aS'variable_1'
p9
aS','
p10
aS'int'
p11
aS'variable_2'
p12
ag10
aS'variable_3'
p13
ag5
aS'variable_4'
p14
ag10
aS'variable_5'
p15
ag5
aS'variable_6'
p16
aS')'
p17
aS'int'
p18
aS'variable_7'
p19
aS'='
p20
aS'func_1'
p21
ag7
aS'variable_1'
p22
ag17
aS'-'
p23
aS'1'
p24
aS';'
p25
aS'guint8'
p26
aS'variable_8'
p27
aS'['
p28
aS'variable_9'
p29
aS']'
p30
ag25
aS'if'
p31
ag7
aS'variable_7'
p32
ag23
aS'variable_2'
p33
aS'>'
p34
aS'variable_9'
p35
ag17
aS'variable_10'
p36
ag20
ag7
aS'guint8'
p37
ag5
ag17
aS'func_2'
p38
ag7
aS'variable_1'
p39
ag10
aS'variable_8'
p40
ag10
aS'variable_2'
p41
ag10
aS'variable_7'
p42
ag23
aS'variable_2'
p43
ag17
ag25
aS'if'
p44
ag7
aS'variable_11'
p45
aS'&'
p46
aS'0x80'
p47
ag17
aS'variable_12'
p48
ag20
aS'func_3'
p49
ag7
aS'variable_10'
p50
ag17
ag46
aS'variable_13'
p51
ag25
aS'if'
p52
ag7
ag7
ag5
aS'variable_10'
p53
ag46
aS'0xf0'
p54
ag17
aS'=='
p55
aS'0x10'
p56
ag17
aS'variable_14'
p57
ag20
ag5
ag7
aS'variable_10'
p58
aS'+'
p59
aS'2'
p60
ag17
ag59
ag24
ag25
aS'func_4'
p61
ag7
aS'variable_15'
p62
ag10
aS'variable_16'
p63
ag10
aS'variable_1'
p64
ag10
aS'variable_2'
p65
ag10
ag60
ag10
aS'variable_12'
p66
ag17
ag25
aS'variable_10'
p67
aS'+='
p68
aS'3'
p69
ag25
aS'variable_14'
p70
ag20
ag7
ag5
aS'variable_10'
p71
aS'>>'
p72
aS'4'
p73
ag17
ag59
ag24
ag25
aS'func_5'
p74
ag7
aS'variable_15'
p75
ag10
aS'variable_17'
p76
ag10
aS'variable_1'
p77
ag10
aS'variable_2'
p78
ag10
ag24
ag10
ag5
aS'variable_10'
p79
ag17
ag25
aS'func_6'
p80
ag7
aS'variable_15'
p81
ag10
aS'variable_16'
p82
ag10
aS'variable_1'
p83
ag10
aS'variable_2'
p84
ag10
ag60
ag10
aS'variable_12'
p85
ag17
ag25
aS'variable_10'
p86
aS'+='
p87
ag60
ag25
aS'if'
p88
ag7
aS'variable_12'
p89
ag59
ag24
ag34
aS'variable_18'
p90
aS'->'
p91
aS'variable_19'
p92
ag17
aS'func_7'
p93
ag7
aS'variable_4'
p94
ag10
aS'variable_20'
p95
ag10
ag46
aS'variable_21'
p96
ag10
aS'"'
p97
aS'Data'
p98
aS'offset'
p99
aS'exceeds'
p100
aS'valid'
p101
aS'window'
p102
aS'size'
p103
ag7
aS'%'
p104
aS'd'
p105
ag34
ag104
ag105
ag17
ag97
ag10
aS'variable_12'
p106
ag59
ag24
ag10
aS'variable_18'
p107
aS'->'
p108
aS'variable_19'
p109
ag17
ag25
aS'if'
p110
ag7
aS'variable_12'
p111
ag59
ag24
aS'<'
p112
aS'variable_14'
p113
ag17
aS'func_8'
p114
ag7
aS'variable_4'
p115
ag10
aS'variable_20'
p116
ag10
ag46
aS'variable_21'
p117
ag10
ag97
aS'Data'
p118
aS'count'
p119
aS'exceeds'
p120
aS'offset'
p121
ag7
ag104
ag105
ag34
ag104
ag105
ag17
ag97
ag10
aS'variable_14'
p122
ag10
aS'variable_12'
p123
ag59
ag24
ag17
ag25
aS'variable_22'
p124
ag20
aS'func_9'
p125
ag7
aS'variable_22'
p126
ag10
aS'variable_12'
p127
ag10
aS'variable_14'
p128
ag10
ag46
aS'variable_23'
p129
ag10
aS'variable_18'
p130
ag17
ag25
aS'if'
p131
ag7
aS'variable_22'
p132
aS'=='
p133
aS'NULL'
p134
ag17
ag5
aS'variable_22'
p135
ag20
ag5
aS'variable_10'
p136
ag25
aS'if'
p137
ag7
aS'variable_22'
p138
aS'++'
p139
aS'=='
p140
aS'variable_24'
p141
ag17
aS'variable_11'
p142
aS'<<'
p143
ag20
ag24
ag25
aS'variable_11'
p144
ag20
ag5
aS'variable_10'
p145
aS'++'
p146
ag25
aS'func_10'
p147
ag7
aS'variable_25'
p148
ag10
aS'variable_26'
p149
ag10
aS'variable_1'
p150
ag10
aS'variable_2'
p151
ag10
ag24
ag10
aS'variable_11'
p152
ag17
ag25
aS'variable_18'
p153
aS'->'
p154
aS'variable_27'
p155
ag20
aS'variable_22'
p156
ag25
aa(lp157
S'static'
p158
aS'variable_0'
p159
ag5
aS'func_0'
p160
ag7
aS'variable_0'
p161
ag5
aS'variable_1'
p162
ag10
aS'int'
p163
aS'variable_2'
p164
ag10
aS'variable_3'
p165
ag5
aS'variable_4'
p166
ag10
aS'variable_5'
p167
ag5
aS'variable_6'
p168
ag17
aS'variable_7'
p169
ag5
aS'variable_8'
p170
ag10
ag5
aS'variable_9'
p171
ag25
aS'int'
p172
aS'variable_10'
p173
ag20
aS'func_1'
p174
ag7
aS'variable_1'
p175
ag17
ag23
ag24
ag25
aS'variable_8'
p176
ag20
aS'func_2'
p177
ag7
aS'variable_6'
p178
ag10
aS'variable_11'
p179
ag10
aS'variable_1'
p180
ag10
aS'variable_2'
p181
ag10
aS'variable_10'
p182
ag23
aS'variable_2'
p183
ag10
aS'variable_12'
p184
ag17
ag25
aS'variable_13'
p185
ag20
aS'func_3'
p186
ag7
aS'variable_8'
p187
ag10
aS'variable_14'
p188
ag17
ag25
aS'func_4'
p189
ag7
aS'variable_4'
p190
ag10
aS'variable_8'
p191
ag10
ag46
aS'variable_15'
p192
ag10
ag97
aS'Compressed'
p193
aS'data'
p194
aS'exceeds'
p195
aS'maximum'
p196
aS'buffer'
p197
aS'length'
p198
ag7
ag104
ag105
ag34
ag104
ag105
ag17
ag97
ag10
aS'variable_10'
p199
ag23
aS'variable_2'
p200
ag10
aS'variable_16'
p201
ag17
ag25
aS'variable_9'
p202
ag20
aS'func_5'
p203
ag7
aS'variable_13'
p204
ag10
aS'variable_17'
p205
ag10
aS'variable_1'
p206
ag10
aS'variable_2'
p207
ag10
ag69
ag10
aS'variable_12'
p208
ag17
ag25
aS'variable_18'
p209
ag20
aS'func_6'
p210
ag7
aS'variable_9'
p211
ag10
aS'variable_19'
p212
ag17
ag25
aS'func_7'
p213
ag7
aS'variable_18'
p214
ag10
aS'variable_20'
p215
ag10
aS'variable_1'
p216
ag10
aS'variable_2'
p217
ag10
ag60
ag10
aS'variable_21'
p218
ag17
ag25
aS'func_8'
p219
ag7
aS'variable_18'
p220
ag10
aS'variable_22'
p221
ag10
aS'variable_1'
p222
ag10
aS'variable_2'
p223
ag59
ag60
ag10
ag24
ag10
aS'variable_23'
p224
ag17
ag25
aS'variable_9'
p225
ag20
aS'func_9'
p226
ag7
aS'variable_13'
p227
ag10
aS'variable_24'
p228
ag10
aS'variable_1'
p229
ag10
aS'variable_2'
p230
ag10
ag60
ag10
aS'variable_12'
p231
ag17
ag25
aS'variable_18'
p232
ag20
aS'func_10'
p233
ag7
aS'variable_9'
p234
ag10
aS'variable_19'
p235
ag17
ag25
aS'func_11'
p236
ag7
aS'variable_18'
p237
ag10
aS'variable_25'
p238
ag10
aS'variable_1'
p239
ag10
aS'variable_2'
p240
ag10
ag24
ag10
ag5
aS'variable_26'
p241
ag17
ag25
aS'func_12'
p242
ag7
aS'variable_18'
p243
ag10
aS'variable_20'
p244
ag10
aS'variable_1'
p245
ag10
aS'variable_2'
p246
ag10
ag60
ag10
aS'variable_21'
p247
ag17
ag25
aS'func_13'
p248
ag7
aS'variable_4'
p249
ag10
aS'variable_8'
p250
ag10
ag46
aS'variable_27'
p251
ag10
ag97
aS'Data'
p252
aS'offset'
p253
aS'exceeds'
p254
aS'valid'
p255
aS'window'
p256
aS'size'
p257
ag7
ag104
ag105
ag34
ag104
ag105
ag17
ag97
ag10
aS'variable_21'
p258
ag59
ag24
ag10
aS'variable_28'
p259
aS'->'
p260
aS'variable_29'
p261
ag17
ag25
aS'func_14'
p262
ag7
aS'variable_4'
p263
ag10
aS'variable_8'
p264
ag10
ag46
aS'variable_27'
p265
ag10
ag97
aS'Data'
p266
aS'count'
p267
aS'exceeds'
p268
aS'offset'
p269
ag7
ag104
ag105
ag34
ag104
ag105
ag17
ag97
ag10
aS'variable_30'
p270
ag10
aS'variable_21'
p271
ag59
ag24
ag17
ag25
aS'func_15'
p272
ag7
aS'variable_4'
p273
ag10
aS'variable_8'
p274
ag10
ag46
aS'variable_31'
p275
ag10
ag97
aS'Uncompressed'
p276
aS'data'
p277
aS'exceeds'
p278
aS'maximum'
p279
aS'buffer'
p280
aS'length'
p281
ag7
ag104
ag105
ag34
ag104
ag105
ag17
ag97
ag10
aS'variable_32'
p282
ag10
aS'variable_16'
p283
ag17
ag25
aS'func_16'
p284
ag7
aS'variable_4'
p285
ag10
aS'variable_8'
p286
ag10
ag46
aS'variable_31'
p287
ag10
ag97
aS'Uncompressed'
p288
aS'data'
p289
aS'exceeds'
p290
aS'maximum'
p291
aS'buffer'
p292
aS'length'
p293
ag7
ag104
ag105
ag34
ag104
ag105
ag17
ag97
ag10
aS'variable_32'
p294
ag10
aS'variable_16'
p295
ag17
ag25
aS'if'
p296
ag7
aS'variable_13'
p297
ag17
aS'func_17'
p298
ag7
aS'variable_13'
p299
ag10
aS'variable_33'
p300
ag10
aS'variable_1'
p301
ag10
aS'variable_2'
p302
ag10
ag24
ag10
aS'variable_34'
p303
ag17
ag25
aa(lp304
S'static'
p305
aS'variable_0'
p306
ag5
aS'func_0'
p307
ag7
aS'variable_0'
p308
ag5
aS'variable_1'
p309
ag10
aS'int'
p310
aS'variable_2'
p311
ag10
aS'variable_3'
p312
ag5
aS'variable_4'
p313
ag10
aS'variable_5'
p314
ag5
aS'variable_6'
p315
ag17
aS'variable_7'
p316
ag20
aS'func_1'
p317
ag7
aS'variable_4'
p318
ag17
ag25
aS'variable_8'
p319
ag20
aS'variable_7'
p320
aS'->'
p321
aS'variable_9'
p322
ag25
aS'variable_10'
p323
ag20
aS'variable_8'
p324
ag59
aS'variable_11'
p325
ag25
aS'variable_12'
p326
ag20
aS'func_2'
p327
ag7
aS'variable_12'
p328
ag10
aS'variable_13'
p329
ag10
aS'variable_14'
p330
ag10
ag46
aS'variable_15'
p331
ag10
aS'variable_7'
p332
ag17
ag25
aS'if'
p333
ag7
aS'variable_12'
p334
aS'=='
p335
aS'NULL'
p336
ag17
ag5
aS'variable_12'
p337
ag20
ag5
aS'variable_16'
p338
ag25
aS'if'
p339
ag7
aS'variable_12'
p340
aS'++'
p341
aS'=='
p342
aS'variable_10'
p343
ag17
aS'variable_7'
p344
aS'->'
p345
aS'variable_17'
p346
ag20
aS'variable_12'
p347
ag25
aaa(lp348
I0
aI0
aI0
aa(lp349
I49
aI54
aI37
aa(lp350
(lp351
S'main'
p352
aa(lp353
g352
aa(lp354
g352
aaa(lp355
S'697 /home/SySeVR/data/CVE_2015_3811_PATCHED_wcp_uncompress.c src = ( guint8 * ) tvb_memcpy ( src_tvb , src_buf , offset , cnt - offset ) 40'
p356
aS'698 /home/SySeVR/data/CVE_2015_3811_PATCHED_wcp_uncompress.c cd_item = proto_tree_add_item ( tree , hf_wcp_compressed_data , src_tvb , offset , cnt - offset , ENC_NA ) 23'
p357
aS'699 /home/SySeVR/data/CVE_2015_3811_PATCHED_wcp_uncompress.c buf_end = buf_start + MAX_WIN_BUF_LEN 21'
p358
aa.