(lp0
(lp1
(lp2
S'static'
p3
aS'int'
p4
aS'func_0'
p5
aS'('
p6
aS'struct'
p7
aS'variable_0'
p8
aS'*'
p9
aS'variable_1'
p10
aS','
p11
aS'int'
p12
aS'variable_2'
p13
aS')'
p14
aS'struct'
p15
aS'variable_3'
p16
ag9
aS'variable_4'
p17
aS'='
p18
aS'variable_5'
p19
aS'->'
p20
aS'variable_4'
p21
aS';'
p22
aS'struct'
p23
aS'snd_kcontrol'
p24
aS'variable_6'
p25
ag11
ag9
aS'variable_7'
p26
ag22
aS'int'
p27
aS'variable_8'
p28
ag11
aS'variable_9'
p29
ag22
aS'if'
p30
ag6
aS'!'
p31
aS'variable_2'
p32
aS'&&'
p33
aS'variable_4'
p34
aS'->'
p35
aS'variable_10'
p36
aS'>'
p37
ag18
aS'variable_11'
p38
ag14
aS'if'
p39
ag6
aS'variable_1'
p40
aS'->'
p41
aS'variable_12'
p42
aS'<'
p43
aS'1'
p44
ag14
aS'variable_1'
p45
aS'->'
p46
aS'variable_13'
p47
aS'.'
p48
aS'variable_14'
p49
ag18
aS'0'
p50
ag22
aS'memset'
p51
ag6
aS'&'
p52
aS'variable_6'
p53
ag11
ag50
ag11
aS'sizeof'
p54
ag6
aS'variable_6'
p55
ag14
ag14
ag22
aS'variable_7'
p56
ag18
aS'func_1'
p57
ag6
aS'variable_4'
p58
ag11
ag52
aS'variable_1'
p59
aS'->'
p60
aS'variable_13'
p61
ag14
ag22
aS'variable_9'
p62
ag18
ag50
ag22
aS'if'
p63
ag6
aS'variable_7'
p64
ag14
aS'if'
p65
ag6
aS'variable_2'
p66
ag14
aS'variable_9'
p67
ag18
aS'func_2'
p68
ag6
aS'variable_4'
p69
ag11
aS'variable_7'
p70
ag14
ag22
aS'variable_9'
p71
ag18
aS'-'
p72
aS'variable_15'
p73
ag22
aS'if'
p74
ag6
aS'variable_2'
p75
ag14
aS'variable_9'
p76
ag18
ag72
aS'variable_16'
p77
ag22
aS'if'
p78
ag6
aS'variable_9'
p79
ag43
ag50
ag14
aS'memcpy'
p80
ag6
ag52
aS'variable_6'
p81
ag48
aS'variable_13'
p82
ag11
ag52
aS'variable_1'
p83
aS'->'
p84
aS'variable_13'
p85
ag11
aS'sizeof'
p86
ag6
aS'variable_1'
p87
aS'->'
p88
aS'variable_13'
p89
ag14
ag14
ag22
aS'variable_6'
p90
ag48
aS'variable_12'
p91
ag18
aS'variable_1'
p92
aS'->'
p93
aS'variable_17'
p94
aS'?'
p95
aS'variable_1'
p96
aS'->'
p97
aS'variable_17'
p98
aS':'
p99
ag44
ag22
aS'variable_6'
p100
ag48
aS'variable_1'
p101
ag18
aS'variable_18'
p102
ag22
aS'variable_6'
p103
ag48
aS'variable_1'
p104
ag18
aS'variable_19'
p105
ag22
aS'variable_6'
p106
ag48
aS'variable_20'
p107
ag18
aS'variable_21'
p108
ag22
aS'variable_6'
p109
ag48
aS'variable_22'
p110
ag18
aS'variable_23'
p111
ag22
aS'variable_6'
p112
ag48
aS'variable_24'
p113
ag48
aS'variable_25'
p114
ag18
aS'variable_26'
p115
ag22
aS'variable_6'
p116
ag48
aS'variable_27'
p117
ag18
aS'variable_28'
p118
ag22
aS'variable_7'
p119
ag18
aS'func_3'
p120
ag6
ag52
aS'variable_6'
p121
ag11
aS'variable_29'
p122
ag14
ag22
aS'if'
p123
ag6
aS'variable_7'
p124
aS'=='
p125
aS'NULL'
p126
ag14
aS'variable_7'
p127
aS'->'
p128
aS'variable_30'
p129
ag18
aS'variable_31'
p130
ag22
aS'for'
p131
ag6
aS'variable_8'
p132
ag18
ag50
ag22
aS'variable_8'
p133
ag43
aS'variable_7'
p134
aS'->'
p135
aS'variable_12'
p136
ag22
aS'variable_8'
p137
aS'++'
p138
ag14
aS'variable_7'
p139
aS'->'
p140
aS'variable_32'
p141
aS'['
p142
aS'variable_8'
p143
aS']'
p144
ag48
aS'variable_17'
p145
ag18
aS'variable_5'
p146
ag22
aS'variable_9'
p147
ag18
aS'func_4'
p148
ag6
aS'variable_4'
p149
ag11
aS'variable_7'
p150
ag14
ag22
aS'if'
p151
ag6
aS'variable_9'
p152
ag43
ag50
ag14
aS'return'
p153
aS'variable_9'
p154
ag22
aaa(lp155
I0
aa(lp156
I127
aa(lp157
(lp158
S'main'
p159
aaa(lp160
S'567 /home/SySeVR/data/CVE_2014_4654_VULN_snd_ctl_elem_add.c memcpy 36'
p161
aa.