(lp0
(lp1
(lp2
S'static'
p3
aS'int'
p4
aS'func_0'
p5
aS'('
p6
aS'struct'
p7
aS'variable_0'
p8
aS'*'
p9
aS'variable_1'
p10
aS','
p11
aS'int'
p12
aS'variable_2'
p13
aS')'
p14
aS'struct'
p15
aS'variable_3'
p16
ag9
aS'variable_4'
p17
aS'='
p18
aS'variable_5'
p19
aS'->'
p20
aS'variable_4'
p21
aS';'
p22
aS'struct'
p23
aS'snd_kcontrol'
p24
aS'variable_6'
p25
ag11
ag9
aS'variable_7'
p26
ag22
aS'long'
p27
aS'variable_8'
p28
ag22
aS'struct'
p29
aS'variable_9'
p30
ag9
aS'variable_10'
p31
ag22
aS'int'
p32
aS'variable_11'
p33
ag11
aS'variable_12'
p34
ag22
aS'if'
p35
ag6
aS'!'
p36
aS'variable_2'
p37
aS'&&'
p38
aS'variable_4'
p39
aS'->'
p40
aS'variable_13'
p41
aS'>'
p42
ag18
aS'variable_14'
p43
ag14
aS'if'
p44
ag6
aS'variable_1'
p45
aS'->'
p46
aS'variable_15'
p47
aS'<'
p48
aS'1'
p49
ag14
aS'variable_1'
p50
aS'->'
p51
aS'variable_16'
p52
aS'.'
p53
aS'variable_17'
p54
ag18
aS'0'
p55
ag22
aS'variable_7'
p56
ag18
aS'func_1'
p57
ag6
aS'variable_4'
p58
ag11
aS'&'
p59
aS'variable_1'
p60
aS'->'
p61
aS'variable_16'
p62
ag14
ag22
aS'variable_12'
p63
ag18
ag55
ag22
aS'if'
p64
ag6
aS'variable_7'
p65
ag14
aS'if'
p66
ag6
aS'variable_2'
p67
ag14
aS'variable_12'
p68
ag18
aS'func_2'
p69
ag6
aS'variable_4'
p70
ag11
aS'variable_7'
p71
ag14
ag22
aS'variable_12'
p72
ag18
aS'-'
p73
aS'variable_18'
p74
ag22
aS'if'
p75
ag6
aS'variable_2'
p76
ag14
aS'variable_12'
p77
ag18
ag73
aS'variable_19'
p78
ag22
aS'if'
p79
ag6
aS'variable_12'
p80
ag48
ag55
ag14
aS'switch'
p81
ag6
aS'variable_1'
p82
aS'->'
p83
aS'variable_20'
p84
ag14
aS'variable_8'
p85
ag18
aS'sizeof'
p86
ag6
aS'long'
p87
ag14
ag22
aS'if'
p88
ag6
aS'variable_1'
p89
aS'->'
p90
aS'variable_15'
p91
ag42
aS'128'
p92
ag14
aS'variable_8'
p93
ag18
aS'sizeof'
p94
ag6
aS'long'
p95
aS'long'
p96
ag14
ag22
aS'if'
p97
ag6
aS'variable_1'
p98
aS'->'
p99
aS'variable_15'
p100
ag42
aS'64'
p101
ag14
aS'variable_8'
p102
ag18
aS'sizeof'
p103
ag6
aS'unsigned'
p104
aS'int'
p105
ag14
ag22
aS'if'
p106
ag6
aS'variable_1'
p107
aS'->'
p108
aS'variable_15'
p109
ag42
aS'128'
p110
aS'||'
p111
aS'variable_1'
p112
aS'->'
p113
aS'variable_21'
p114
ag53
aS'variable_22'
p115
ag53
aS'variable_23'
p116
aS'=='
p117
ag55
ag14
aS'variable_8'
p118
ag18
aS'sizeof'
p119
ag6
aS'unsigned'
p120
aS'char'
p121
ag14
ag22
aS'if'
p122
ag6
aS'variable_1'
p123
aS'->'
p124
aS'variable_15'
p125
ag42
aS'512'
p126
ag14
aS'variable_8'
p127
ag18
aS'sizeof'
p128
ag6
aS'struct'
p129
aS'variable_24'
p130
ag14
ag22
aS'if'
p131
ag6
aS'variable_1'
p132
aS'->'
p133
aS'variable_15'
p134
aS'!='
p135
ag49
ag14
aS'variable_8'
p136
ag9
ag18
aS'variable_1'
p137
aS'->'
p138
aS'variable_15'
p139
ag22
aS'variable_10'
p140
ag18
aS'func_3'
p141
ag6
aS'sizeof'
p142
ag6
aS'struct'
p143
aS'variable_9'
p144
ag14
aS'+'
p145
aS'variable_8'
p146
ag11
aS'variable_25'
p147
ag14
ag22
aS'if'
p148
ag6
aS'variable_10'
p149
aS'=='
p150
aS'NULL'
p151
ag14
aS'variable_10'
p152
aS'->'
p153
aS'variable_1'
p154
ag18
ag9
aS'variable_1'
p155
ag22
aS'variable_10'
p156
aS'->'
p157
aS'variable_1'
p158
ag53
aS'variable_26'
p159
ag18
ag55
ag22
aS'variable_10'
p160
aS'->'
p161
aS'variable_27'
p162
ag18
ag6
aS'char'
p163
ag9
ag14
aS'variable_10'
p164
ag145
aS'sizeof'
p165
ag6
ag9
aS'variable_10'
p166
ag14
ag22
aS'variable_10'
p167
aS'->'
p168
aS'variable_28'
p169
ag18
aS'variable_8'
p170
ag22
aS'if'
p171
ag6
aS'variable_10'
p172
aS'->'
p173
aS'variable_1'
p174
ag53
aS'variable_20'
p175
aS'=='
p176
aS'variable_29'
p177
ag14
aS'variable_12'
p178
ag18
aS'func_4'
p179
ag6
aS'variable_10'
p180
ag14
ag22
aS'if'
p181
ag6
aS'variable_12'
p182
ag48
ag55
ag14
aS'kfree'
p183
ag6
aS'variable_10'
p184
ag14
ag22
aS'return'
p185
aS'variable_12'
p186
ag22
aS'kfree'
p187
ag6
aS'variable_10'
p188
aS'->'
p189
aS'variable_30'
p190
ag14
ag22
aS'kfree'
p191
ag6
aS'variable_10'
p192
ag14
ag22
aS'variable_7'
p193
aS'->'
p194
aS'variable_31'
p195
ag18
aS'variable_10'
p196
ag22
aS'for'
p197
ag6
aS'variable_11'
p198
ag18
ag55
ag22
aS'variable_11'
p199
ag48
aS'variable_7'
p200
aS'->'
p201
aS'variable_15'
p202
ag22
aS'variable_11'
p203
aS'++'
p204
ag14
aS'variable_7'
p205
aS'->'
p206
aS'variable_32'
p207
aS'['
p208
aS'variable_11'
p209
aS']'
p210
ag53
aS'variable_33'
p211
ag18
aS'variable_5'
p212
ag22
aS'variable_12'
p213
ag18
aS'func_5'
p214
ag6
aS'variable_4'
p215
ag11
aS'variable_7'
p216
ag14
ag22
aS'if'
p217
ag6
aS'variable_12'
p218
ag48
ag55
ag14
aS'return'
p219
aS'variable_12'
p220
ag22
aaa(lp221
I1
aa(lp222
I266
aa(lp223
(lp224
S'main'
p225
aaa(lp226
S'625 /home/SySeVR/data/CVE_2014_4654_VULN_snd_ctl_elem_add.c ue -> elem_data = ( char * ) ue + sizeof ( * ue ) 87'
p227
aa.