(lp0
(lp1
(lp2
S'void'
p3
aS'func_0'
p4
aS'('
p5
aS'struct'
p6
aS'variable_0'
p7
aS'*'
p8
aS'variable_1'
p9
aS')'
p10
aS'unsigned'
p11
aS'int'
p12
ag8
aS'variable_2'
p13
aS';'
p14
aS'int'
p15
aS'variable_3'
p16
aS'='
p17
aS'variable_1'
p18
aS'->'
p19
aS'variable_4'
p20
ag14
aS'if'
p21
ag5
aS'!'
p22
aS'variable_5'
p23
ag10
aS'variable_2'
p24
ag17
aS'kmalloc'
p25
ag5
aS'variable_3'
p26
ag8
aS'sizeof'
p27
ag5
ag8
aS'variable_2'
p28
ag10
aS','
p29
aS'variable_6'
p30
ag10
ag14
aS'if'
p31
ag5
aS'variable_2'
p32
aS'=='
p33
aS'NULL'
p34
ag10
aS'variable_2'
p35
aS'['
p36
aS'variable_7'
p37
aS']'
p38
ag17
aS'variable_8'
p39
ag14
aaa(lp40
I0
aa(lp41
I35
aa(lp42
(lp43
S'main'
p44
aaa(lp45
S'615 /home/SySeVR/data/CVE_2014_2889_PATCHED_bpf_jit_compile.c addrs = kmalloc ( flen * sizeof ( * addrs ) , GFP_KERNEL ) 20'
p46
aa.