(lp0
(lp1
(lp2
S'func_0'
p3
aS'('
p4
aS'struct'
p5
aS'variable_0'
p6
aS'*'
p7
aS'variable_1'
p8
aS','
p9
aS'struct'
p10
aS'variable_2'
p11
ag7
aS'variable_3'
p12
aS')'
p13
aS'variable_4'
p14
ag7
aS'variable_5'
p15
aS'='
p16
aS'variable_1'
p17
aS'->'
p18
aS'variable_6'
p19
aS';'
p20
aS'ssize_t'
p21
aS'variable_7'
p22
ag20
aS'loff_t'
p23
aS'variable_8'
p24
ag9
aS'variable_9'
p25
ag20
aS'char'
p26
aS'variable_10'
p27
ag7
aS'variable_11'
p28
ag20
aS'int'
p29
aS'variable_12'
p30
ag9
aS'variable_13'
p31
ag20
aS'int'
p32
aS'variable_14'
p33
ag20
aS'variable_11'
p34
ag16
ag4
aS'char'
p35
aS'__user'
p36
ag7
ag13
ag4
aS'variable_15'
p37
ag13
aS'variable_16'
p38
aS'->'
p39
aS'variable_17'
p40
ag20
aS'variable_7'
p41
ag16
aS'variable_16'
p42
aS'->'
p43
aS'variable_18'
p44
ag20
aS'variable_14'
p45
ag16
aS'func_1'
p46
ag4
aS'variable_19'
p47
ag9
aS'0'
p48
ag13
ag20
aS'if'
p49
ag4
aS'variable_14'
p50
ag13
aS'variable_14'
p51
ag16
aS'func_2'
p52
ag4
aS'variable_19'
p53
ag9
aS'1'
p54
ag13
ag20
aS'if'
p55
ag4
aS'variable_14'
p56
ag13
aS'variable_20'
p57
ag16
aS'func_3'
p58
ag4
aS'variable_19'
p59
ag13
ag20
aS'variable_8'
p60
ag16
aS'variable_20'
p61
aS'->'
p62
aS'variable_21'
p63
aS'+'
p64
aS'variable_16'
p65
aS'->'
p66
aS'variable_8'
p67
ag20
aS'while'
p68
ag4
aS'variable_7'
p69
aS'>'
p70
ag48
ag13
aS'variable_9'
p71
ag16
ag4
aS'variable_8'
p72
aS'&'
p73
aS'~'
p74
ag4
aS'variable_22'
p75
aS'-'
p76
ag54
ag13
ag13
ag20
aS'variable_12'
p77
ag16
aS'variable_8'
p78
ag73
ag4
aS'variable_22'
p79
ag76
ag54
ag13
ag20
aS'variable_13'
p80
ag16
aS'variable_7'
p81
ag20
aS'if'
p82
ag4
ag4
aS'variable_12'
p83
ag64
aS'variable_7'
p84
ag13
ag70
aS'variable_22'
p85
ag13
aS'variable_13'
p86
ag16
aS'variable_22'
p87
ag76
aS'variable_12'
p88
ag20
aS'variable_14'
p89
ag16
aS'func_4'
p90
ag4
aS'variable_5'
p91
aS'->'
p92
aS'variable_23'
p93
aS'.'
p94
aS'variable_24'
p95
ag9
aS'variable_9'
p96
ag9
aS'variable_12'
p97
ag9
aS'variable_11'
p98
ag9
aS'variable_13'
p99
ag13
ag20
aS'if'
p100
ag4
aS'variable_14'
p101
ag13
aS'variable_7'
p102
aS'-='
p103
aS'variable_13'
p104
ag20
aS'variable_11'
p105
aS'+='
p106
aS'variable_13'
p107
ag20
aS'variable_8'
p108
aS'+='
p109
aS'variable_13'
p110
ag20
aS'return'
p111
aS'variable_14'
p112
ag20
aa(lp113
S'func_0'
p114
ag4
aS'struct'
p115
aS'variable_0'
p116
ag7
aS'variable_1'
p117
ag9
aS'struct'
p118
aS'variable_2'
p119
ag7
aS'variable_3'
p120
ag13
aS'loff_t'
p121
aS'variable_4'
p122
ag9
aS'variable_5'
p123
ag20
aS'int'
p124
aS'variable_6'
p125
ag20
aS'variable_6'
p126
ag16
aS'func_1'
p127
ag4
aS'variable_7'
p128
ag9
ag48
ag13
ag20
aS'if'
p129
ag4
aS'variable_6'
p130
ag13
aS'variable_6'
p131
ag16
aS'func_2'
p132
ag4
aS'variable_7'
p133
ag9
ag54
ag13
ag20
aS'if'
p134
ag4
aS'variable_6'
p135
ag13
aS'variable_8'
p136
ag16
aS'func_3'
p137
ag4
aS'variable_7'
p138
ag13
ag20
aS'variable_4'
p139
ag16
aS'variable_8'
p140
aS'->'
p141
aS'variable_9'
p142
ag64
aS'variable_10'
p143
aS'->'
p144
aS'variable_4'
p145
ag20
aS'while'
p146
ag4
aS'variable_11'
p147
ag70
ag48
ag13
aS'variable_5'
p148
ag16
ag4
aS'variable_4'
p149
ag73
ag74
ag4
aS'variable_12'
p150
ag76
ag54
ag13
ag13
ag20
aS'variable_13'
p151
ag16
aS'variable_4'
p152
ag73
ag4
aS'variable_12'
p153
ag76
ag54
ag13
ag20
aS'variable_14'
p154
ag16
aS'variable_11'
p155
ag20
aS'if'
p156
ag4
ag4
aS'variable_13'
p157
ag64
aS'variable_11'
p158
ag13
ag70
aS'variable_12'
p159
ag13
aS'variable_14'
p160
ag16
aS'variable_12'
p161
ag76
aS'variable_13'
p162
ag20
aS'variable_6'
p163
ag16
aS'func_4'
p164
ag4
aS'variable_15'
p165
aS'->'
p166
aS'variable_16'
p167
ag94
aS'variable_17'
p168
ag9
aS'variable_5'
p169
ag9
aS'variable_13'
p170
ag9
aS'variable_18'
p171
ag9
aS'variable_14'
p172
ag13
ag20
aS'if'
p173
ag4
aS'variable_6'
p174
ag13
aS'variable_11'
p175
aS'-='
p176
aS'variable_14'
p177
ag20
aS'variable_18'
p178
aS'+='
p179
aS'variable_14'
p180
ag20
aS'variable_4'
p181
aS'+='
p182
aS'variable_14'
p183
ag20
aS'return'
p184
aS'variable_6'
p185
ag20
aaa(lp186
I0
aI0
aa(lp187
I153
aI55
aa(lp188
(lp189
S'main'
p190
aa(lp191
g190
aaa(lp192
S'130 /home/SySeVR/data/CVE_2010_2962_PATCHED_i915_gem_gtt_pwrite_fast.c page_length = PAGE_SIZE - page_offset 42'
p193
aS'131 /home/SySeVR/data/CVE_2010_2962_PATCHED_i915_gem_gtt_pwrite_fast.c offset = obj_priv -> gtt_offset + args -> offset 29'
p194
aa.