(lp0
(lp1
(lp2
S'static'
p3
aS'func_0'
p4
aS'('
p5
aS'struct'
p6
aS'variable_0'
p7
aS'*'
p8
aS'variable_1'
p9
aS','
p10
aS'struct'
p11
aS'variable_2'
p12
ag8
aS'variable_3'
p13
aS')'
p14
aS'struct'
p15
aS'variable_4'
p16
ag8
aS'variable_5'
p17
aS';'
p18
aS'struct'
p19
aS'variable_6'
p20
ag8
aS'variable_7'
p21
ag18
aS'variable_5'
p22
aS'='
p23
ag5
aS'struct'
p24
aS'batadv_frag_packet'
p25
ag8
ag14
aS'variable_3'
p26
aS'->'
p27
aS'variable_8'
p28
ag18
aS'variable_9'
p29
ag23
aS'func_1'
p30
ag5
aS'variable_5'
p31
aS'->'
p32
aS'variable_10'
p33
ag14
ag18
aS'if'
p34
ag5
aS'variable_9'
p35
aS'>'
p36
aS'func_2'
p37
ag5
ag14
ag14
aS'variable_7'
p38
ag23
aS'func_3'
p39
ag5
aS'variable_1'
p40
aS'->'
p41
aS'variable_11'
p42
ag10
aS'struct'
p43
aS'variable_6'
p44
ag10
aS'variable_12'
p45
ag14
aS'variable_13'
p46
ag23
aS'variable_7'
p47
aS'->'
p48
aS'variable_3'
p49
ag18
aS'if'
p50
ag5
aS'func_4'
p51
ag5
aS'variable_13'
p52
ag10
aS'0'
p53
ag10
aS'variable_9'
p54
aS'-'
p55
aS'variable_3'
p56
aS'->'
p57
aS'variable_14'
p58
ag10
aS'variable_15'
p59
ag14
aS'<'
p60
ag53
ag14
aS'memmove'
p61
ag5
aS'variable_13'
p62
aS'->'
p63
aS'variable_8'
p64
ag55
aS'variable_16'
p65
ag10
aS'func_5'
p66
ag5
aS'variable_13'
p67
ag14
ag10
aS'variable_16'
p68
ag14
ag18
aS'func_6'
p69
ag5
aS'variable_13'
p70
ag10
ag55
aS'variable_16'
p71
ag14
ag18
aS'func_7'
p72
ag5
aS'variable_13'
p73
ag14
ag18
aS'func_8'
p74
ag5
aS'variable_13'
p75
ag14
ag18
aS'memcpy'
p76
ag5
aS'func_9'
p77
ag5
aS'variable_13'
p78
ag10
aS'variable_9'
p79
ag14
ag10
aS'variable_7'
p80
aS'->'
p81
aS'variable_3'
p82
aS'->'
p83
aS'variable_8'
p84
aS'+'
p85
aS'variable_17'
p86
ag10
aS'variable_9'
p87
ag14
ag18
aS'return'
p88
aS'variable_13'
p89
ag18
aaa(lp90
I1
aa(lp91
I90
aa(lp92
(lp93
S'main'
p94
aaa(lp95
S'728 /home/SySeVR/data/CVE_2014_9428_VULN_batadv_frag_merge_packets.c memmove 34'
p96
aa.