(lp0
(lp1
(lp2
S'static'
p3
aS'func_0'
p4
aS'('
p5
aS'struct'
p6
aS'variable_0'
p7
aS'*'
p8
aS'variable_1'
p9
aS','
p10
aS'struct'
p11
aS'variable_2'
p12
ag8
aS'variable_3'
p13
aS')'
p14
aS'struct'
p15
aS'variable_4'
p16
ag8
aS'variable_5'
p17
aS';'
p18
aS'struct'
p19
aS'variable_6'
p20
ag8
aS'variable_7'
p21
ag18
aS'int'
p22
aS'variable_8'
p23
ag10
aS'variable_9'
p24
aS'='
p25
aS'sizeof'
p26
ag5
aS'struct'
p27
aS'variable_4'
p28
ag14
ag18
aS'variable_5'
p29
ag25
ag5
aS'struct'
p30
aS'batadv_frag_packet'
p31
ag8
ag14
aS'variable_3'
p32
aS'->'
p33
aS'variable_10'
p34
ag18
aS'variable_8'
p35
ag25
aS'func_1'
p36
ag5
aS'variable_5'
p37
aS'->'
p38
aS'variable_11'
p39
ag14
ag18
aS'if'
p40
ag5
aS'variable_8'
p41
aS'>'
p42
aS'func_2'
p43
ag5
ag14
ag14
aS'variable_7'
p44
ag25
aS'func_3'
p45
ag5
aS'variable_1'
p46
aS'->'
p47
aS'variable_12'
p48
ag10
aS'struct'
p49
aS'variable_6'
p50
ag10
aS'variable_13'
p51
ag14
aS'variable_14'
p52
ag25
aS'variable_7'
p53
aS'->'
p54
aS'variable_3'
p55
ag18
aS'if'
p56
ag5
aS'func_4'
p57
ag5
aS'variable_14'
p58
ag10
aS'0'
p59
ag10
aS'variable_8'
p60
aS'-'
p61
aS'variable_3'
p62
aS'->'
p63
aS'variable_15'
p64
ag10
aS'variable_16'
p65
ag14
aS'<'
p66
ag59
ag14
aS'variable_8'
p67
ag25
aS'variable_7'
p68
aS'->'
p69
aS'variable_3'
p70
aS'->'
p71
aS'variable_15'
p72
ag61
aS'variable_9'
p73
ag18
aS'memcpy'
p74
ag5
aS'func_5'
p75
ag5
aS'variable_14'
p76
ag10
aS'variable_8'
p77
ag14
ag10
aS'variable_7'
p78
aS'->'
p79
aS'variable_3'
p80
aS'->'
p81
aS'variable_10'
p82
aS'+'
p83
aS'variable_9'
p84
ag10
aS'variable_8'
p85
ag14
ag18
aaa(lp86
I0
aa(lp87
I109
aa(lp88
(lp89
S'main'
p90
aaa(lp91
S'654 /home/SySeVR/data/CVE_2014_9428_VULN_batadv_frag_merge_packets.c size = entry -> skb -> len - hdr_size 41'
p92
aa.