(lp0
(lp1
(lp2
S'static'
p3
aS'int'
p4
aS'func_0'
p5
aS'('
p6
aS'struct'
p7
aS'variable_0'
p8
aS'*'
p9
aS'variable_1'
p10
aS','
p11
aS'int'
p12
ag9
aS'variable_2'
p13
ag11
aS'int'
p14
aS'variable_3'
p15
aS')'
p16
aS'struct'
p17
aS'variable_4'
p18
ag9
aS'variable_5'
p19
aS';'
p20
aS'struct'
p21
aS'variable_1'
p22
ag9
aS'variable_6'
p23
aS'='
p24
aS'variable_1'
p25
aS'->'
p26
aS'variable_6'
p27
ag20
aS'if'
p28
ag6
aS'variable_3'
p29
ag16
aS'variable_7'
p30
aS'->'
p31
aS'variable_8'
p32
ag24
aS'variable_9'
p33
ag20
aS'variable_5'
p34
ag24
aS'func_1'
p35
ag6
aS'func_2'
p36
ag6
aS'variable_6'
p37
ag16
ag11
aS'func_3'
p38
ag6
aS'variable_6'
p39
ag16
aS'->'
p40
aS'variable_10'
p41
ag16
ag20
aS'if'
p42
ag6
aS'variable_5'
p43
ag16
aS'memset'
p44
ag6
aS'variable_7'
p45
aS'->'
p46
aS'variable_11'
p47
ag11
aS'0'
p48
ag11
aS'14'
p49
ag16
ag20
ag9
aS'variable_2'
p50
ag24
aS'sizeof'
p51
ag6
ag9
aS'variable_7'
p52
ag16
ag20
aaa(lp53
I0
aa(lp54
I62
aa(lp55
(lp56
S'main'
p57
aaa(lp58
S'57 /home/SySeVR/data/CVE_2010_3876_VULN_packet_getname_spkt.c memset 16'
p59
aa.