(lp0
(lp1
(lp2
S'func_0'
p3
aS'('
p4
aS'variable_0'
p5
aS'*'
p6
aS'variable_1'
p7
aS','
p8
aS'variable_2'
p9
ag6
aS'variable_3'
p10
ag8
aS'variable_4'
p11
ag6
aS'variable_5'
p12
aS')'
p13
aS'guint8'
p14
aS'variable_6'
p15
ag8
aS'variable_7'
p16
ag8
aS'variable_8'
p17
ag8
aS'variable_9'
p18
aS'['
p19
aS'48'
p20
aS']'
p21
aS';'
p22
aS'guint8'
p23
aS'variable_10'
p24
aS'='
p25
aS'0'
p26
ag22
aS'gboolean'
p27
aS'variable_11'
p28
ag25
aS'variable_12'
p29
ag22
aS'guint16'
p30
aS'variable_13'
p31
ag19
aS'48'
p32
ag21
ag22
aS'variable_6'
p33
ag25
aS'func_1'
p34
ag4
aS'variable_1'
p35
ag13
ag22
aS'variable_14'
p36
ag25
aS'func_2'
p37
ag4
aS'variable_5'
p38
ag8
aS'variable_15'
p39
ag8
aS'variable_1'
p40
ag8
ag26
ag8
aS'variable_6'
p41
ag8
aS'"'
p42
aS'GSM'
p43
aS'CBCH'
p44
aS'Schedule'
p45
aS'Message'
p46
ag42
ag13
ag22
aS'variable_16'
p47
ag25
aS'func_3'
p48
ag4
aS'variable_14'
p49
ag8
aS'variable_17'
p50
ag13
ag22
aS'variable_18'
p51
ag25
aS'func_4'
p52
ag4
aS'variable_1'
p53
ag8
aS'variable_10'
p54
ag13
ag22
aS'if'
p55
ag4
ag26
aS'=='
p56
ag4
aS'variable_18'
p57
aS'&'
p58
aS'0xC0'
p59
ag13
ag13
aS'variable_7'
p60
ag25
aS'variable_18'
p61
ag58
aS'0x3F'
p62
ag22
aS'func_5'
p63
ag4
aS'variable_16'
p64
ag8
aS'variable_19'
p65
ag8
aS'variable_1'
p66
ag8
aS'variable_10'
p67
aS'++'
p68
ag8
aS'1'
p69
ag8
aS'variable_20'
p70
ag13
ag22
aS'if'
p71
ag4
ag69
aS'=='
p72
aS'variable_7'
p73
ag13
aS'if'
p74
ag4
ag4
aS'2'
p75
aS'<'
p76
ag25
aS'variable_7'
p77
ag13
aS'&&'
p78
ag4
aS'48'
p79
aS'>'
p80
ag25
aS'variable_7'
p81
ag13
ag13
aS'variable_11'
p82
ag25
aS'variable_21'
p83
ag22
aS'variable_8'
p84
ag25
aS'func_6'
p85
ag4
aS'variable_1'
p86
ag8
aS'variable_10'
p87
ag13
ag22
aS'if'
p88
ag4
aS'variable_8'
p89
ag76
aS'variable_7'
p90
ag13
aS'variable_11'
p91
ag25
aS'variable_21'
p92
ag22
aS'if'
p93
ag4
aS'variable_11'
p94
ag13
aS'memset'
p95
ag4
ag58
aS'variable_13'
p96
ag8
aS'0xFF'
p97
ag8
aS'sizeof'
p98
ag4
aS'variable_13'
p99
ag13
ag13
ag22
aS'variable_18'
p100
ag25
aS'func_7'
p101
ag4
aS'variable_1'
p102
ag8
aS'variable_10'
p103
ag13
ag22
aS'if'
p104
ag4
ag4
aS'variable_18'
p105
ag58
aS'0x80'
p106
ag13
aS'=='
p107
aS'0x80'
p108
ag13
aS'variable_22'
p109
ag25
aS'func_8'
p110
ag4
aS'variable_1'
p111
ag8
aS'variable_10'
p112
aS'+'
p113
ag69
ag13
ag22
aS'variable_23'
p114
ag25
ag4
ag4
aS'variable_18'
p115
ag58
aS'0x7F'
p116
ag13
aS'<<'
p117
aS'8'
p118
ag13
ag113
aS'variable_22'
p119
ag22
aS'func_9'
p120
ag4
aS'variable_24'
p121
ag8
aS'variable_1'
p122
ag8
aS'variable_10'
p123
ag8
ag75
ag8
ag42
aS'Slot'
p124
aS':'
p125
aS'%'
p126
aS'd'
p127
ag8
aS'Message'
p128
aS'ID'
p129
ag125
ag126
ag127
ag8
aS'First'
p130
aS'transmission'
p131
aS'of'
p132
aS'an'
p133
aS'SMSCB'
p134
aS'within'
p135
aS'the'
p136
aS'Schedule'
p137
aS'Period'
p138
ag42
ag8
aS'variable_9'
p139
ag19
aS'variable_25'
p140
ag21
ag8
aS'variable_23'
p141
ag13
ag22
aS'variable_10'
p142
aS'+='
p143
ag75
ag22
aS'variable_13'
p144
ag19
aS'variable_9'
p145
ag19
aS'variable_25'
p146
ag21
aS'-'
p147
ag69
ag21
ag25
aS'variable_23'
p148
ag22
aS'if'
p149
ag4
ag4
aS'variable_18'
p150
ag58
aS'0xC0'
p151
ag13
aS'=='
p152
ag26
ag13
aS'if'
p153
ag4
aS'variable_18'
p154
ag76
aS'variable_9'
p155
ag19
aS'variable_25'
p156
ag21
ag13
aS'func_10'
p157
ag4
aS'variable_24'
p158
ag8
aS'variable_1'
p159
ag8
aS'variable_10'
p160
aS'++'
p161
ag8
ag69
ag8
ag42
aS'Slot'
p162
ag125
ag126
ag127
ag8
aS'Message'
p163
aS'ID'
p164
ag125
ag126
ag127
ag8
aS'Repeat'
p165
aS'of'
p166
aS'Slot'
p167
ag126
ag127
ag42
ag8
aS'variable_9'
p168
ag19
aS'variable_25'
p169
ag21
ag8
aS'variable_13'
p170
ag19
aS'variable_18'
p171
ag147
ag69
ag21
ag8
aS'variable_18'
p172
ag13
ag22
aS'variable_13'
p173
ag19
aS'variable_9'
p174
ag19
aS'variable_25'
p175
ag21
ag147
ag69
ag21
ag25
aS'variable_13'
p176
ag19
aS'variable_18'
p177
ag147
ag69
ag21
ag22
aS'func_11'
p178
ag4
aS'variable_24'
p179
ag8
aS'variable_1'
p180
ag8
aS'variable_10'
p181
aS'++'
p182
ag8
ag69
ag8
ag42
aS'Slot'
p183
ag125
ag126
ag127
ag8
aS'Apparent'
p184
aS'forward'
p185
aS'reference'
p186
aS'to'
p187
aS'slot'
p188
ag126
ag127
ag42
ag8
aS'variable_9'
p189
ag19
aS'variable_25'
p190
ag21
ag8
aS'variable_18'
p191
ag13
ag22
aS'if'
p192
ag4
aS'variable_18'
p193
aS'=='
p194
aS'0x40'
p195
ag13
aS'func_12'
p196
ag4
aS'variable_24'
p197
ag8
aS'variable_1'
p198
ag8
aS'variable_10'
p199
aS'++'
p200
ag8
ag69
ag8
ag42
aS'Slot'
p201
ag125
ag126
ag127
aS'Free'
p202
aS'Message'
p203
aS'Slot'
p204
ag8
aS'optional'
p205
aS'reading'
p206
ag42
ag8
aS'variable_9'
p207
ag19
aS'variable_26'
p208
ag21
ag13
ag22
aS'if'
p209
ag4
aS'variable_18'
p210
aS'=='
p211
aS'0x41'
p212
ag13
aS'func_13'
p213
ag4
aS'variable_24'
p214
ag8
aS'variable_1'
p215
ag8
aS'variable_10'
p216
aS'++'
p217
ag8
ag69
ag8
ag42
aS'Slot'
p218
ag125
ag126
ag127
aS'Free'
p219
aS'Message'
p220
aS'Slot'
p221
ag8
aS'reading'
p222
aS'advised'
p223
ag42
ag8
aS'variable_9'
p224
ag19
aS'variable_26'
p225
ag21
ag13
ag22
aS'func_14'
p226
ag4
aS'variable_24'
p227
ag8
aS'variable_1'
p228
ag8
aS'variable_10'
p229
ag8
ag69
ag8
ag42
aS'Slot'
p230
ag125
ag126
ag127
aS'reserved'
p231
aS'MDT'
p232
ag125
ag126
aS'x'
p233
ag42
ag8
aS'variable_9'
p234
ag19
aS'variable_26'
p235
ag21
ag8
aS'variable_18'
p236
ag13
ag22
aS'func_15'
p237
ag4
aS'variable_27'
p238
ag8
aS'variable_1'
p239
ag8
aS'variable_10'
p240
ag13
ag22
aS'variable_27'
p241
ag25
aS'func_16'
p242
ag4
aS'variable_16'
p243
ag8
aS'variable_1'
p244
ag8
aS'variable_10'
p245
ag8
ag26
ag8
ag42
aS'Other'
p246
aS'message'
p247
aS'slots'
p248
aS'in'
p249
aS'this'
p250
aS'schedule'
p251
ag42
ag13
ag22
aS'variable_24'
p252
ag25
aS'func_17'
p253
ag4
aS'variable_27'
p254
ag8
aS'variable_28'
p255
ag13
ag22
aS'for'
p256
ag4
aS'variable_26'
p257
ag25
ag26
ag22
aS'variable_10'
p258
ag76
aS'variable_6'
p259
ag22
aS'variable_29'
p260
aS'++'
p261
ag13
aS'while'
p262
ag4
ag4
aS'variable_13'
p263
ag19
aS'variable_26'
p264
ag21
aS'!='
p265
aS'0xFFFF'
p266
ag13
aS'&&'
p267
ag4
aS'variable_26'
p268
ag76
aS'variable_8'
p269
ag13
ag13
aS'variable_18'
p270
ag25
aS'func_18'
p271
ag4
aS'variable_1'
p272
ag8
aS'variable_10'
p273
ag13
ag22
aS'if'
p274
ag4
ag4
aS'variable_18'
p275
ag58
aS'0x80'
p276
ag13
aS'=='
p277
aS'0x80'
p278
ag13
aS'if'
p279
ag4
ag4
aS'variable_10'
p280
ag113
ag69
ag13
ag76
aS'variable_6'
p281
ag13
aS'variable_22'
p282
ag25
aS'func_19'
p283
ag4
aS'variable_1'
p284
ag8
aS'variable_10'
p285
ag113
ag69
ag13
ag22
aS'variable_23'
p286
ag25
ag4
ag4
aS'variable_18'
p287
ag58
aS'0x7F'
p288
ag13
aS'<<'
p289
ag118
ag13
ag113
aS'variable_22'
p290
ag22
aS'variable_13'
p291
ag19
aS'variable_26'
p292
ag21
ag25
aS'variable_23'
p293
ag22
aS'func_20'
p294
ag4
aS'variable_24'
p295
ag8
aS'variable_1'
p296
ag8
aS'variable_10'
p297
ag8
ag75
ag8
ag42
aS'Slot'
p298
ag125
ag126
ag127
ag8
aS'Message'
p299
ag125
ag126
ag127
ag8
aS'First'
p300
aS'transmission'
p301
aS'of'
p302
aS'an'
p303
aS'SMSCB'
p304
aS'within'
p305
aS'the'
p306
aS'Schedule'
p307
aS'Period'
p308
ag42
ag8
aS'++'
p309
aS'variable_26'
p310
ag8
aS'variable_23'
p311
ag13
ag22
aS'variable_10'
p312
aS'+='
p313
ag75
ag22
aS'if'
p314
ag4
ag4
aS'variable_18'
p315
ag58
aS'0xC0'
p316
ag13
aS'=='
p317
ag26
ag13
aS'if'
p318
ag4
aS'variable_18'
p319
ag76
aS'variable_26'
p320
ag13
aS'variable_13'
p321
ag19
aS'variable_26'
p322
ag21
ag25
aS'variable_13'
p323
ag19
aS'variable_18'
p324
ag147
ag69
ag21
ag22
aS'func_21'
p325
ag4
aS'variable_24'
p326
ag8
aS'variable_1'
p327
ag8
aS'variable_10'
p328
aS'++'
p329
ag8
ag69
ag8
ag42
aS'Slot'
p330
ag125
ag126
ag127
ag8
aS'Message'
p331
aS'ID'
p332
ag125
ag126
ag127
ag8
aS'Repeat'
p333
aS'of'
p334
aS'Slot'
p335
ag126
ag127
ag42
ag8
aS'++'
p336
aS'variable_26'
p337
ag8
aS'variable_13'
p338
ag19
aS'variable_18'
p339
ag147
ag69
ag21
ag8
aS'variable_18'
p340
ag13
ag22
aS'func_22'
p341
ag4
aS'variable_24'
p342
ag8
aS'variable_1'
p343
ag8
aS'variable_10'
p344
aS'++'
p345
ag8
ag69
ag8
ag42
aS'Slot'
p346
ag125
ag126
ag127
ag8
aS'Apparent'
p347
aS'forward'
p348
aS'reference'
p349
aS'to'
p350
aS'slot'
p351
ag126
ag127
ag42
ag8
aS'++'
p352
aS'variable_26'
p353
ag8
aS'variable_18'
p354
ag13
ag22
aS'if'
p355
ag4
aS'variable_18'
p356
aS'=='
p357
aS'0x40'
p358
ag13
aS'func_23'
p359
ag4
aS'variable_24'
p360
ag8
aS'variable_1'
p361
ag8
aS'variable_10'
p362
aS'++'
p363
ag8
ag69
ag8
ag42
aS'Slot'
p364
ag125
ag126
ag127
aS'Free'
p365
aS'Message'
p366
aS'Slot'
p367
ag8
aS'optional'
p368
aS'reading'
p369
ag42
ag8
aS'++'
p370
aS'variable_26'
p371
ag13
ag22
aS'if'
p372
ag4
aS'variable_18'
p373
aS'=='
p374
aS'0x41'
p375
ag13
aS'func_24'
p376
ag4
aS'variable_24'
p377
ag8
aS'variable_1'
p378
ag8
aS'variable_10'
p379
aS'++'
p380
ag8
ag69
ag8
ag42
aS'Slot'
p381
ag125
ag126
ag127
aS'Free'
p382
aS'Message'
p383
aS'Slot'
p384
ag8
aS'reading'
p385
aS'advised'
p386
ag42
ag8
aS'++'
p387
aS'variable_26'
p388
ag13
ag22
aS'func_25'
p389
ag4
aS'variable_24'
p390
ag8
aS'variable_1'
p391
ag8
aS'variable_10'
p392
ag8
ag69
ag8
ag42
aS'Slot'
p393
ag125
ag126
ag127
aS'reserved'
p394
aS'MDT'
p395
ag125
ag126
ag233
ag42
ag8
aS'++'
p396
aS'variable_26'
p397
ag8
aS'variable_18'
p398
ag13
ag22
aS'func_26'
p399
ag4
aS'variable_27'
p400
ag8
aS'variable_1'
p401
ag8
aS'variable_10'
p402
ag13
ag22
aS'func_27'
p403
ag4
aS'variable_16'
p404
ag8
aS'variable_1'
p405
ag8
aS'variable_10'
p406
ag8
ag147
ag69
ag8
ag42
aS'Padding'
p407
ag42
ag13
ag22
aa(lp408
S'func_0'
p409
ag4
aS'variable_0'
p410
ag6
aS'variable_1'
p411
ag8
aS'variable_2'
p412
ag6
aS'variable_3'
p413
ag8
aS'variable_4'
p414
ag6
aS'variable_5'
p415
ag13
aS'guint8'
p416
aS'variable_6'
p417
ag8
aS'variable_7'
p418
ag8
aS'variable_8'
p419
ag8
aS'variable_9'
p420
ag19
aS'48'
p421
ag21
ag22
aS'guint8'
p422
aS'variable_10'
p423
ag25
ag26
ag22
aS'gboolean'
p424
aS'variable_11'
p425
ag25
aS'variable_12'
p426
ag22
aS'variable_6'
p427
ag25
aS'func_1'
p428
ag4
aS'variable_1'
p429
ag13
ag22
aS'variable_13'
p430
ag25
aS'func_2'
p431
ag4
aS'variable_5'
p432
ag8
aS'variable_14'
p433
ag8
aS'variable_1'
p434
ag8
ag26
ag8
aS'variable_6'
p435
ag8
ag42
aS'GSM'
p436
aS'CBCH'
p437
aS'Schedule'
p438
aS'Message'
p439
ag42
ag13
ag22
aS'variable_15'
p440
ag25
aS'func_3'
p441
ag4
aS'variable_13'
p442
ag8
aS'variable_16'
p443
ag13
ag22
aS'variable_17'
p444
ag25
aS'func_4'
p445
ag4
aS'variable_1'
p446
ag8
aS'variable_10'
p447
ag13
ag22
aS'if'
p448
ag4
ag26
aS'=='
p449
ag4
aS'variable_17'
p450
ag58
aS'0xC0'
p451
ag13
ag13
aS'variable_7'
p452
ag25
aS'variable_17'
p453
ag58
aS'0x3F'
p454
ag22
aS'func_5'
p455
ag4
aS'variable_15'
p456
ag8
aS'variable_18'
p457
ag8
aS'variable_1'
p458
ag8
aS'variable_10'
p459
aS'++'
p460
ag8
ag69
ag8
aS'variable_19'
p461
ag13
ag22
aS'if'
p462
ag4
ag69
aS'=='
p463
aS'variable_7'
p464
ag13
aS'if'
p465
ag4
ag4
ag75
ag76
ag25
aS'variable_7'
p466
ag13
aS'&&'
p467
ag4
aS'48'
p468
ag80
ag25
aS'variable_7'
p469
ag13
ag13
aS'variable_11'
p470
ag25
aS'variable_20'
p471
ag22
aS'variable_8'
p472
ag25
aS'func_6'
p473
ag4
aS'variable_1'
p474
ag8
aS'variable_10'
p475
ag13
ag22
aS'if'
p476
ag4
aS'variable_8'
p477
ag76
aS'variable_7'
p478
ag13
aS'variable_11'
p479
ag25
aS'variable_20'
p480
ag22
aS'if'
p481
ag4
aS'variable_11'
p482
ag13
aS'memset'
p483
ag4
ag58
aS'variable_9'
p484
ag8
aS'0xFF'
p485
ag8
aS'sizeof'
p486
ag4
aS'variable_9'
p487
ag13
ag13
ag22
aS'variable_9'
p488
ag19
aS'variable_21'
p489
aS'++'
p490
ag21
ag25
ag4
aS'variable_22'
p491
aS'<<'
p492
aS'3'
p493
ag13
ag113
aS'variable_23'
p494
ag113
ag69
ag22
aS'variable_24'
p495
ag25
aS'func_7'
p496
ag4
aS'variable_15'
p497
ag8
aS'variable_1'
p498
ag8
aS'variable_10'
p499
ag147
aS'6'
p500
ag8
ag500
ag8
ag42
aS'This'
p501
aS'schedule'
p502
aS'contains'
p503
ag126
ag127
aS'slots'
p504
aS'with'
p505
aS'new'
p506
aS'messages'
p507
ag42
ag8
aS'variable_21'
p508
ag13
ag22
aS'variable_25'
p509
ag25
aS'func_8'
p510
ag4
aS'variable_24'
p511
ag8
aS'variable_26'
p512
ag13
ag22
aS'for'
p513
ag4
aS'variable_22'
p514
ag25
ag26
ag22
aS'variable_22'
p515
ag76
aS'variable_21'
p516
ag22
aS'variable_22'
p517
aS'++'
p518
ag13
aS'func_9'
p519
ag4
aS'variable_9'
p520
ag19
aS'variable_22'
p521
ag21
ag76
aS'48'
p522
ag13
ag22
aS'variable_17'
p523
ag25
aS'func_10'
p524
ag4
aS'variable_1'
p525
ag8
aS'variable_10'
p526
ag13
ag22
aS'if'
p527
ag4
ag4
aS'variable_17'
p528
ag58
aS'0x80'
p529
ag13
aS'=='
p530
aS'0x80'
p531
ag13
aS'variable_27'
p532
ag25
aS'func_11'
p533
ag4
aS'variable_1'
p534
ag8
aS'variable_10'
p535
ag113
ag69
ag13
ag22
aS'variable_28'
p536
ag25
ag4
ag4
aS'variable_17'
p537
ag58
aS'0x7F'
p538
ag13
aS'<<'
p539
ag118
ag13
ag113
aS'variable_27'
p540
ag22
aS'func_12'
p541
ag4
aS'variable_25'
p542
ag8
aS'variable_1'
p543
ag8
aS'variable_10'
p544
ag8
ag75
ag8
ag42
aS'Slot'
p545
ag125
ag126
ag127
ag8
aS'Message'
p546
aS'ID'
p547
ag125
ag126
ag127
ag8
aS'First'
p548
aS'transmission'
p549
aS'of'
p550
aS'an'
p551
aS'SMSCB'
p552
aS'within'
p553
aS'the'
p554
aS'Schedule'
p555
aS'Period'
p556
ag42
ag8
aS'variable_9'
p557
ag19
aS'variable_22'
p558
ag21
ag8
aS'variable_28'
p559
ag13
ag22
aS'variable_10'
p560
aS'+='
p561
ag75
ag22
aS'variable_29'
p562
ag19
aS'variable_9'
p563
ag19
aS'variable_22'
p564
ag21
ag147
ag69
ag21
ag25
aS'variable_28'
p565
ag22
aS'if'
p566
ag4
ag4
aS'variable_17'
p567
ag58
aS'0xC0'
p568
ag13
aS'=='
p569
ag26
ag13
aS'if'
p570
ag4
aS'variable_17'
p571
ag76
aS'variable_9'
p572
ag19
aS'variable_22'
p573
ag21
ag13
aS'func_13'
p574
ag4
aS'variable_25'
p575
ag8
aS'variable_1'
p576
ag8
aS'variable_10'
p577
aS'++'
p578
ag8
ag69
ag8
ag42
aS'Slot'
p579
ag125
ag126
ag127
ag8
aS'Message'
p580
aS'ID'
p581
ag125
ag126
ag127
ag8
aS'Repeat'
p582
aS'of'
p583
aS'Slot'
p584
ag126
ag127
ag42
ag8
aS'variable_9'
p585
ag19
aS'variable_22'
p586
ag21
ag8
aS'variable_29'
p587
ag19
aS'variable_17'
p588
ag147
ag69
ag21
ag8
aS'variable_17'
p589
ag13
ag22
aS'variable_29'
p590
ag19
aS'variable_9'
p591
ag19
aS'variable_22'
p592
ag21
ag147
ag69
ag21
ag25
aS'variable_29'
p593
ag19
aS'variable_17'
p594
ag147
ag69
ag21
ag22
aS'func_14'
p595
ag4
aS'variable_25'
p596
ag8
aS'variable_1'
p597
ag8
aS'variable_10'
p598
aS'++'
p599
ag8
ag69
ag8
ag42
aS'Slot'
p600
ag125
ag126
ag127
ag8
aS'Apparent'
p601
aS'forward'
p602
aS'reference'
p603
aS'to'
p604
aS'slot'
p605
ag126
ag127
ag42
ag8
aS'variable_9'
p606
ag19
aS'variable_22'
p607
ag21
ag8
aS'variable_17'
p608
ag13
ag22
aS'if'
p609
ag4
aS'variable_17'
p610
aS'=='
p611
aS'0x40'
p612
ag13
aS'func_15'
p613
ag4
aS'variable_25'
p614
ag8
aS'variable_1'
p615
ag8
aS'variable_10'
p616
aS'++'
p617
ag8
ag69
ag8
ag42
aS'Slot'
p618
ag125
ag126
ag127
aS'Free'
p619
aS'Message'
p620
aS'Slot'
p621
ag8
aS'optional'
p622
aS'reading'
p623
ag42
ag8
aS'variable_9'
p624
ag19
aS'variable_21'
p625
ag21
ag13
ag22
aS'variable_29'
p626
ag19
aS'variable_9'
p627
ag19
aS'variable_22'
p628
ag21
ag147
ag69
ag21
ag25
aS'0xFFFE'
p629
ag22
aS'if'
p630
ag4
aS'variable_17'
p631
aS'=='
p632
aS'0x41'
p633
ag13
aS'func_16'
p634
ag4
aS'variable_25'
p635
ag8
aS'variable_1'
p636
ag8
aS'variable_10'
p637
aS'++'
p638
ag8
ag69
ag8
ag42
aS'Slot'
p639
ag125
ag126
ag127
aS'Free'
p640
aS'Message'
p641
aS'Slot'
p642
ag8
aS'reading'
p643
aS'advised'
p644
ag42
ag8
aS'variable_9'
p645
ag19
aS'variable_21'
p646
ag21
ag13
ag22
aS'variable_29'
p647
ag19
aS'variable_9'
p648
ag19
aS'variable_22'
p649
ag21
ag147
ag69
ag21
ag25
aS'0xFFFE'
p650
ag22
aS'func_17'
p651
ag4
aS'variable_25'
p652
ag8
aS'variable_1'
p653
ag8
aS'variable_10'
p654
ag8
ag69
ag8
ag42
aS'Slot'
p655
ag125
ag126
ag127
aS'reserved'
p656
aS'MDT'
p657
ag125
ag126
ag233
ag42
ag8
aS'variable_9'
p658
ag19
aS'variable_21'
p659
ag21
ag8
aS'variable_17'
p660
ag13
ag22
aS'variable_29'
p661
ag19
aS'variable_9'
p662
ag19
aS'variable_22'
p663
ag21
ag147
ag69
ag21
ag25
aS'0xFFFE'
p664
ag22
aS'func_18'
p665
ag4
aS'variable_24'
p666
ag8
aS'variable_1'
p667
ag8
aS'variable_10'
p668
ag13
ag22
aS'variable_24'
p669
ag25
aS'func_19'
p670
ag4
aS'variable_15'
p671
ag8
aS'variable_1'
p672
ag8
aS'variable_10'
p673
ag8
ag26
ag8
ag42
aS'Other'
p674
aS'message'
p675
aS'slots'
p676
aS'in'
p677
aS'this'
p678
aS'schedule'
p679
ag42
ag13
ag22
aS'variable_25'
p680
ag25
aS'func_20'
p681
ag4
aS'variable_24'
p682
ag8
aS'variable_26'
p683
ag13
ag22
aS'for'
p684
ag4
aS'variable_21'
p685
ag25
ag26
ag22
aS'variable_10'
p686
ag76
aS'variable_6'
p687
ag22
aS'variable_23'
p688
aS'++'
p689
ag13
aS'while'
p690
ag4
ag4
aS'variable_29'
p691
ag19
aS'variable_21'
p692
ag21
aS'!='
p693
aS'0xFFFF'
p694
ag13
aS'&&'
p695
ag4
aS'variable_21'
p696
ag76
aS'variable_8'
p697
ag13
ag13
aS'variable_21'
p698
aS'++'
p699
ag22
aS'if'
p700
ag4
aS'variable_21'
p701
ag80
ag25
aS'variable_8'
p702
ag13
aS'variable_17'
p703
ag25
aS'func_21'
p704
ag4
aS'variable_1'
p705
ag8
aS'variable_10'
p706
ag13
ag22
aS'if'
p707
ag4
ag4
aS'variable_17'
p708
ag58
aS'0x80'
p709
ag13
aS'=='
p710
aS'0x80'
p711
ag13
aS'if'
p712
ag4
ag4
aS'variable_10'
p713
ag113
ag69
ag13
ag76
aS'variable_6'
p714
ag13
aS'variable_27'
p715
ag25
aS'func_22'
p716
ag4
aS'variable_1'
p717
ag8
aS'variable_10'
p718
ag113
ag69
ag13
ag22
aS'variable_28'
p719
ag25
ag4
ag4
aS'variable_17'
p720
ag58
aS'0x7F'
p721
ag13
aS'<<'
p722
ag118
ag13
ag113
aS'variable_27'
p723
ag22
aS'variable_29'
p724
ag19
aS'variable_21'
p725
ag21
ag25
aS'variable_28'
p726
ag22
aS'func_23'
p727
ag4
aS'variable_25'
p728
ag8
aS'variable_1'
p729
ag8
aS'variable_10'
p730
ag8
ag75
ag8
ag42
aS'Slot'
p731
ag125
ag126
ag127
ag8
aS'Message'
p732
ag125
ag126
ag127
ag8
aS'First'
p733
aS'transmission'
p734
aS'of'
p735
aS'an'
p736
aS'SMSCB'
p737
aS'within'
p738
aS'the'
p739
aS'Schedule'
p740
aS'Period'
p741
ag42
ag8
aS'++'
p742
aS'variable_21'
p743
ag8
aS'variable_28'
p744
ag13
ag22
aS'variable_10'
p745
aS'+='
p746
ag75
ag22
aS'if'
p747
ag4
ag4
aS'variable_17'
p748
ag58
aS'0xC0'
p749
ag13
aS'=='
p750
ag26
ag13
aS'if'
p751
ag4
aS'variable_17'
p752
ag76
aS'variable_21'
p753
ag13
aS'variable_29'
p754
ag19
aS'variable_21'
p755
ag21
ag25
aS'variable_29'
p756
ag19
aS'variable_17'
p757
ag147
ag69
ag21
ag22
aS'func_24'
p758
ag4
aS'variable_25'
p759
ag8
aS'variable_1'
p760
ag8
aS'variable_10'
p761
aS'++'
p762
ag8
ag69
ag8
ag42
aS'Slot'
p763
ag125
ag126
ag127
ag8
aS'Message'
p764
aS'ID'
p765
ag125
ag126
ag127
ag8
aS'Repeat'
p766
aS'of'
p767
aS'Slot'
p768
ag126
ag127
ag42
ag8
aS'++'
p769
aS'variable_21'
p770
ag8
aS'variable_29'
p771
ag19
aS'variable_17'
p772
ag147
ag69
ag21
ag8
aS'variable_17'
p773
ag13
ag22
aS'func_25'
p774
ag4
aS'variable_25'
p775
ag8
aS'variable_1'
p776
ag8
aS'variable_10'
p777
aS'++'
p778
ag8
ag69
ag8
ag42
aS'Slot'
p779
ag125
ag126
ag127
ag8
aS'Apparent'
p780
aS'forward'
p781
aS'reference'
p782
aS'to'
p783
aS'slot'
p784
ag126
ag127
ag42
ag8
aS'++'
p785
aS'variable_21'
p786
ag8
aS'variable_17'
p787
ag13
ag22
aS'if'
p788
ag4
aS'variable_17'
p789
aS'=='
p790
aS'0x40'
p791
ag13
aS'func_26'
p792
ag4
aS'variable_25'
p793
ag8
aS'variable_1'
p794
ag8
aS'variable_10'
p795
aS'++'
p796
ag8
ag69
ag8
ag42
aS'Slot'
p797
ag125
ag126
ag127
aS'Free'
p798
aS'Message'
p799
aS'Slot'
p800
ag8
aS'optional'
p801
aS'reading'
p802
ag42
ag8
aS'++'
p803
aS'variable_21'
p804
ag13
ag22
aS'if'
p805
ag4
aS'variable_17'
p806
aS'=='
p807
aS'0x41'
p808
ag13
aS'func_27'
p809
ag4
aS'variable_25'
p810
ag8
aS'variable_1'
p811
ag8
aS'variable_10'
p812
aS'++'
p813
ag8
ag69
ag8
ag42
aS'Slot'
p814
ag125
ag126
ag127
aS'Free'
p815
aS'Message'
p816
aS'Slot'
p817
ag8
aS'reading'
p818
aS'advised'
p819
ag42
ag8
aS'++'
p820
aS'variable_21'
p821
ag13
ag22
aS'func_28'
p822
ag4
aS'variable_25'
p823
ag8
aS'variable_1'
p824
ag8
aS'variable_10'
p825
ag8
ag69
ag8
ag42
aS'Slot'
p826
ag125
ag126
ag127
aS'reserved'
p827
aS'MDT'
p828
ag125
ag126
ag233
ag42
ag8
aS'++'
p829
aS'variable_21'
p830
ag8
aS'variable_17'
p831
ag13
ag22
aS'func_29'
p832
ag4
aS'variable_24'
p833
ag8
aS'variable_1'
p834
ag8
aS'variable_10'
p835
ag13
ag22
aS'func_30'
p836
ag4
aS'variable_15'
p837
ag8
aS'variable_1'
p838
ag8
aS'variable_10'
p839
ag8
ag147
ag69
ag8
ag42
aS'Padding'
p840
ag42
ag13
ag22
aaa(lp841
I1
aI1
aa(lp842
I168
aI162
aa(lp843
(lp844
S'main'
p845
aa(lp846
g845
aaa(lp847
S'107 /home/SySeVR/data/CVE_2013_4079_VULN_dissect_schedule_message.c memset 53'
p848
aS'108 /home/SySeVR/data/CVE_2013_4079_VULN_dissect_schedule_message.c memset 52'
p849
aa.