(lp0
(lp1
(lp2
S'long'
p3
aS'func_0'
p4
aS'('
p5
aS'struct'
p6
aS'variable_0'
p7
aS'*'
p8
aS'variable_1'
p9
aS','
p10
aS'struct'
p11
aS'variable_2'
p12
ag8
aS'variable_3'
p13
ag10
aS'struct'
p14
aS'variable_4'
p15
ag8
aS'variable_5'
p16
ag10
aS'int'
p17
aS'variable_6'
p18
aS')'
p19
aS'int'
p20
aS'variable_7'
p21
ag10
aS'variable_8'
p22
aS';'
p23
aS'long'
p24
aS'variable_9'
p25
ag23
aS'if'
p26
ag5
aS'variable_1'
p27
aS'->'
p28
aS'variable_10'
p29
ag19
aS'if'
p30
ag5
aS'variable_6'
p31
aS'=='
p32
aS'variable_11'
p33
ag19
aS'variable_9'
p34
aS'='
p35
aS'func_1'
p36
ag5
aS'variable_1'
p37
aS'->'
p38
aS'variable_12'
p39
ag10
aS'variable_1'
p40
aS'->'
p41
aS'variable_10'
p42
ag10
aS'variable_5'
p43
ag19
ag23
aS'if'
p44
ag5
aS'variable_9'
p45
aS'<'
p46
aS'0'
p47
ag19
aS'variable_1'
p48
aS'->'
p49
aS'variable_12'
p50
ag35
aS'variable_5'
p51
ag23
aS'variable_1'
p52
aS'->'
p53
aS'variable_12'
p54
ag35
aS'NULL'
p55
ag23
aS'variable_7'
p56
ag35
aS'variable_1'
p57
aS'->'
p58
aS'variable_13'
p59
ag8
aS'sizeof'
p60
ag5
aS'struct'
p61
aS'variable_2'
p62
ag19
ag23
aS'if'
p63
ag5
aS'func_2'
p64
ag5
aS'variable_3'
p65
ag10
aS'variable_1'
p66
aS'->'
p67
aS'variable_14'
p68
ag10
aS'variable_7'
p69
ag19
ag19
aaa(lp70
I0
aa(lp71
I84
aa(lp72
(lp73
S'main'
p74
aaa(lp75
S'159 /home/SySeVR/data/CVE_2010_3859_VULN_verify_iovec.c size = m -> msg_iovlen * sizeof ( struct iovec ) 18'
p76
aa.