(lp0
(lp1
(lp2
S'func_0'
p3
aS'('
p4
aS'variable_0'
p5
aS'*'
p6
aS'variable_1'
p7
aS')'
p8
aS'variable_2'
p9
ag6
aS'variable_3'
p10
aS';'
p11
aS'int'
p12
aS'variable_4'
p13
aS','
p14
aS'variable_5'
p15
ag14
aS'variable_6'
p16
ag11
aS'FT_Long'
p17
aS'variable_7'
p18
ag11
aS'FT_Long'
p19
aS'variable_8'
p20
ag14
aS'variable_9'
p21
ag14
aS'variable_10'
p22
ag11
aS'FT_Long'
p23
aS'variable_11'
p24
ag14
aS'variable_12'
p25
ag11
aS'if'
p26
ag4
aS'variable_13'
p27
aS'=='
p28
aS'-'
p29
aS'1'
p30
ag8
aS'variable_13'
p31
aS'='
p32
aS'0'
p33
ag11
aS'if'
p34
ag4
aS'variable_13'
p35
aS'!='
p36
ag33
ag8
aS'variable_8'
p37
ag32
ag33
ag11
aS'for'
p38
ag4
aS'variable_4'
p39
ag32
ag33
ag11
aS'variable_4'
p40
aS'<'
p41
aS'variable_14'
p42
ag11
aS'++'
p43
aS'variable_4'
p44
ag8
aS'variable_15'
p45
ag32
aS'func_1'
p46
ag4
aS'variable_16'
p47
ag14
aS'variable_17'
p48
aS'['
p49
aS'variable_4'
p50
aS']'
p51
ag8
ag11
aS'if'
p52
ag4
aS'variable_15'
p53
ag8
aS'if'
p54
ag4
aS'func_2'
p55
ag4
aS'variable_12'
p56
ag8
ag8
aS'variable_8'
p57
aS'+='
p58
aS'variable_12'
p59
aS'+'
p60
aS'6'
p61
ag11
aS'if'
p62
ag4
aS'func_3'
p63
ag4
aS'variable_3'
p64
ag14
ag4
aS'variable_18'
p65
ag8
aS'variable_8'
p66
ag60
aS'2'
p67
ag8
ag8
aS'variable_9'
p68
ag32
ag61
ag11
aS'variable_10'
p69
ag32
ag67
ag11
aS'variable_7'
p70
ag32
ag33
ag11
aS'variable_5'
p71
ag32
ag30
ag11
aS'for'
p72
ag4
aS'variable_4'
p73
ag32
ag33
ag11
aS'variable_4'
p74
ag41
aS'variable_14'
p75
ag11
aS'++'
p76
aS'variable_4'
p77
ag8
aS'variable_15'
p78
ag32
aS'func_4'
p79
ag4
aS'variable_16'
p80
ag14
aS'variable_17'
p81
ag49
aS'variable_4'
p82
ag51
ag8
ag11
aS'if'
p83
ag4
aS'variable_15'
p84
ag8
aS'if'
p85
ag4
aS'func_5'
p86
ag4
aS'variable_11'
p87
ag8
ag8
aS'if'
p88
ag4
aS'func_6'
p89
ag4
aS'variable_6'
p90
ag8
ag8
aS'variable_11'
p91
aS'-='
p92
ag67
ag11
aS'if'
p93
ag4
ag4
aS'variable_6'
p94
aS'>>'
p95
aS'8'
p96
ag8
aS'=='
p97
aS'variable_5'
p98
ag8
aS'variable_7'
p99
aS'+='
p100
aS'variable_11'
p101
ag11
aS'variable_3'
p102
ag49
aS'variable_10'
p103
ag51
ag32
ag4
aS'variable_2'
p104
ag8
ag4
aS'variable_7'
p105
ag8
ag11
aS'variable_3'
p106
ag49
aS'variable_10'
p107
ag60
ag30
ag51
ag32
ag4
aS'variable_2'
p108
ag8
ag4
aS'variable_7'
p109
aS'>>'
p110
ag96
ag8
ag11
aS'variable_3'
p111
ag49
aS'variable_10'
p112
ag60
ag67
ag51
ag32
ag4
aS'variable_2'
p113
ag8
ag4
aS'variable_7'
p114
aS'>>'
p115
aS'16'
p116
ag8
ag11
aS'variable_3'
p117
ag49
aS'variable_10'
p118
ag60
aS'3'
p119
ag51
ag32
ag4
aS'variable_2'
p120
ag8
ag4
aS'variable_7'
p121
aS'>>'
p122
aS'24'
p123
ag8
ag11
aS'if'
p124
ag4
ag4
aS'variable_6'
p125
aS'>>'
p126
ag96
ag8
aS'=='
p127
aS'5'
p128
ag8
aS'variable_3'
p129
ag49
aS'variable_9'
p130
aS'++'
p131
ag51
ag32
aS'0x80'
p132
ag11
aS'variable_5'
p133
ag32
aS'variable_6'
p134
aS'>>'
p135
ag96
ag11
aS'variable_7'
p136
ag32
aS'variable_11'
p137
ag11
aS'variable_3'
p138
ag49
aS'variable_9'
p139
aS'++'
p140
ag51
ag32
ag4
aS'variable_2'
p141
ag8
aS'variable_5'
p142
ag11
aS'variable_10'
p143
ag32
aS'variable_9'
p144
ag11
aS'variable_3'
p145
ag49
aS'variable_9'
p146
aS'++'
p147
ag51
ag32
ag33
ag11
aS'variable_3'
p148
ag49
aS'variable_9'
p149
aS'++'
p150
ag51
ag32
ag33
ag11
aS'variable_3'
p151
ag49
aS'variable_9'
p152
aS'++'
p153
ag51
ag32
ag33
ag11
aS'variable_3'
p154
ag49
aS'variable_9'
p155
aS'++'
p156
ag51
ag32
ag33
ag11
aS'variable_15'
p157
ag32
aS'func_7'
p158
ag4
aS'variable_16'
p159
ag14
ag4
aS'FT_Byte'
p160
ag6
ag8
aS'variable_3'
p161
ag60
aS'variable_9'
p162
ag14
aS'variable_11'
p163
ag8
ag11
aS'variable_9'
p164
aS'+='
p165
aS'variable_11'
p166
ag11
aS'return'
p167
aS'variable_15'
p168
ag11
aaa(lp169
I0
aa(lp170
I330
aa(lp171
(lp172
S'main'
p173
aaa(lp174
S'124 /home/SySeVR/data/CVE_2010_2519_VULN_Mac_Read_POST_Resource.c error = FT_Stream_Read ( stream , ( FT_Byte * ) pfb_data + pfb_pos , rlen ) 86'
p175
aa.