(lp0
(lp1
(lp2
S'static'
p3
aS'int'
p4
aS'func_0'
p5
aS'('
p6
aS'variable_0'
p7
aS'*'
p8
aS'variable_1'
p9
aS','
p10
aS'int'
p11
aS'variable_2'
p12
ag10
aS'variable_3'
p13
ag8
aS'variable_4'
p14
aS')'
p15
aS'variable_3'
p16
ag8
aS'variable_5'
p17
aS';'
p18
aS'int'
p19
aS'variable_6'
p20
ag18
aS'if'
p21
ag6
aS'variable_2'
p22
aS'=='
p23
aS'-'
p24
aS'1'
p25
ag15
aS'variable_6'
p26
aS'='
p27
aS'variable_7'
p28
ag18
aS'variable_6'
p29
ag27
aS'variable_2'
p30
ag18
aS'variable_4'
p31
aS'->'
p32
aS'variable_8'
p33
ag27
aS'0'
p34
ag18
aS'if'
p35
ag6
aS'variable_6'
p36
aS'<'
p37
ag34
aS'||'
p38
aS'variable_6'
p39
aS'>'
p40
ag27
aS'variable_9'
p41
ag15
aS'variable_5'
p42
ag27
aS'&'
p43
aS'variable_10'
p44
aS'['
p45
aS'variable_6'
p46
aS']'
p47
ag18
aS'if'
p48
ag6
aS'variable_5'
p49
aS'->'
p50
aS'variable_8'
p51
aS'!='
p52
ag34
ag15
aS'memcpy'
p53
ag6
aS'variable_4'
p54
ag10
aS'variable_5'
p55
ag10
aS'sizeof'
p56
ag6
aS'variable_3'
p57
ag15
ag15
ag18
aaa(lp58
I0
aa(lp59
I69
aa(lp60
(lp61
S'main'
p62
aaa(lp63
S'436 /home/SySeVR/data/CVE_2009_3080_PATCHED_gdth_read_event.c memcpy 27'
p64
aa.