(lp0
(lp1
(lp2
S'static'
p3
aS'int'
p4
aS'func_0'
p5
aS'('
p6
aS'struct'
p7
aS'variable_0'
p8
aS'*'
p9
aS'variable_1'
p10
aS','
p11
aS'struct'
p12
aS'variable_2'
p13
ag9
aS'variable_3'
p14
aS')'
p15
aS'variable_4'
p16
aS'='
p17
aS'variable_1'
p18
aS'->'
p19
aS'variable_5'
p20
aS'.'
p21
aS'variable_6'
p22
aS'-'
p23
aS'variable_1'
p24
aS'->'
p25
aS'variable_7'
p26
aS';'
p27
aS'variable_8'
p28
ag17
aS'func_1'
p29
ag6
aS'variable_1'
p30
ag11
aS'variable_4'
p31
ag11
aS'sizeof'
p32
ag6
aS'variable_9'
p33
ag15
ag11
aS'&'
p34
aS'variable_9'
p35
ag15
ag27
aS'if'
p36
ag6
aS'variable_8'
p37
aS'=='
p38
aS'NULL'
p39
ag15
aS'func_2'
p40
ag6
ag34
aS'variable_3'
p41
aS'->'
p42
aS'variable_10'
p43
ag21
aS'variable_11'
p44
ag21
aS'variable_12'
p45
ag21
aS'variable_13'
p46
ag11
ag34
aS'variable_8'
p47
aS'->'
p48
aS'variable_13'
p49
ag15
ag27
aS'func_3'
p50
ag6
ag34
aS'variable_3'
p51
aS'->'
p52
aS'variable_10'
p53
ag21
aS'variable_11'
p54
ag21
aS'variable_12'
p55
ag21
aS'variable_14'
p56
ag11
ag34
aS'variable_8'
p57
aS'->'
p58
aS'variable_14'
p59
ag15
ag27
aS'variable_15'
p60
ag17
aS'variable_8'
p61
aS'->'
p62
aS'variable_15'
p63
ag27
aS'variable_4'
p64
aS'+='
p65
aS'sizeof'
p66
ag6
aS'variable_9'
p67
ag15
ag27
aS'variable_4'
p68
ag17
aS'func_4'
p69
ag6
aS'variable_1'
p70
ag11
aS'variable_4'
p71
ag11
ag34
aS'variable_15'
p72
ag15
ag27
aS'if'
p73
ag6
aS'variable_4'
p74
aS'<'
p75
aS'0'
p76
ag15
aS'switch'
p77
ag6
aS'variable_15'
p78
ag15
aS'variable_16'
p79
ag17
aS'func_5'
p80
ag6
aS'variable_1'
p81
ag11
aS'variable_4'
p82
ag11
aS'sizeof'
p83
ag6
aS'variable_17'
p84
ag15
ag11
ag34
aS'variable_17'
p85
ag15
ag27
aS'if'
p86
ag6
aS'variable_16'
p87
aS'=='
p88
aS'NULL'
p89
ag15
aS'variable_3'
p90
aS'->'
p91
aS'variable_10'
p92
ag21
aS'variable_11'
p93
ag21
aS'variable_18'
p94
ag17
aS'variable_16'
p95
aS'->'
p96
aS'variable_19'
p97
ag27
aS'variable_3'
p98
aS'->'
p99
aS'variable_10'
p100
ag21
aS'variable_11'
p101
ag21
aS'variable_20'
p102
ag17
aS'variable_16'
p103
aS'->'
p104
aS'variable_21'
p105
ag27
aS'variable_22'
p106
ag17
aS'func_6'
p107
ag6
aS'variable_1'
p108
ag11
aS'variable_4'
p109
ag11
aS'sizeof'
p110
ag6
aS'variable_23'
p111
ag15
ag11
ag34
aS'variable_23'
p112
ag15
ag27
aS'if'
p113
ag6
aS'variable_22'
p114
aS'=='
p115
aS'NULL'
p116
ag15
aS'variable_3'
p117
aS'->'
p118
aS'variable_10'
p119
ag21
aS'variable_11'
p120
ag21
aS'variable_18'
p121
ag17
aS'variable_22'
p122
aS'->'
p123
aS'variable_19'
p124
ag27
aS'variable_3'
p125
aS'->'
p126
aS'variable_10'
p127
ag21
aS'variable_11'
p128
ag21
aS'variable_20'
p129
ag17
aS'variable_22'
p130
aS'->'
p131
aS'variable_21'
p132
ag27
aaa(lp133
I0
aa(lp134
I24
aa(lp135
(lp136
S'main'
p137
aaa(lp138
S'22 /home/SySeVR/data/CVE_2005_4886_PATCHED_selinux_parse_skb_ipv6.c offset = skb -> nh . raw - skb -> data 7'
p139
aa.