(lp0
(lp1
(lp2
S'static'
p3
aS'int'
p4
aS'func_0'
p5
aS'('
p6
aS'struct'
p7
aS'variable_0'
p8
aS'*'
p9
aS'variable_0'
p10
aS','
p11
aS'struct'
p12
aS'variable_1'
p13
ag9
aS'variable_2'
p14
ag11
aS'u_int8_t'
p15
aS'variable_3'
p16
ag11
aS'unsigned'
p17
aS'int'
p18
aS'variable_4'
p19
aS')'
p20
aS'unsigned'
p21
aS'int'
p22
aS'variable_5'
p23
aS'='
p24
aS'variable_2'
p25
aS'->'
p26
aS'variable_6'
p27
aS'-'
p28
aS'variable_7'
p29
aS';'
p30
aS'if'
p31
ag6
aS'variable_8'
p32
aS'->'
p33
aS'variable_9'
p34
ag9
aS'4'
p35
aS'<'
p36
aS'sizeof'
p37
ag6
aS'struct'
p38
aS'variable_10'
p39
ag20
aS'||'
p40
aS'variable_8'
p41
aS'->'
p42
aS'variable_9'
p43
ag9
ag35
aS'>'
p44
aS'variable_5'
p45
ag20
aS'variable_11'
p46
ag24
aS'variable_5'
p47
ag30
aS'if'
p48
ag6
aS'variable_11'
p49
ag44
aS'variable_5'
p50
ag20
aS'if'
p51
ag6
aS'variable_0'
p52
aS'->'
p53
aS'variable_12'
p54
aS'.'
p55
aS'variable_13'
p56
aS'&&'
p57
aS'variable_4'
p58
aS'=='
p59
aS'variable_14'
p60
aS'&&'
p61
aS'func_1'
p62
ag6
aS'variable_2'
p63
ag11
aS'variable_4'
p64
ag11
aS'variable_7'
p65
ag11
aS'variable_11'
p66
ag11
aS'variable_15'
p67
ag11
aS'variable_3'
p68
ag20
ag20
aaa(lp69
I0
aa(lp70
I33
aa(lp71
(lp72
S'main'
p73
aaa(lp74
S'893 /home/SySeVR/data/CVE_2014_2523_VULN_dccp_error.c unsigned int dccp_len = skb -> len - dataoff ; 7'
p75
aa.