(lp0
(lp1
(lp2
S'func_0'
p3
aS'('
p4
aS'variable_0'
p5
aS'*'
p6
aS'variable_1'
p7
aS','
p8
aS'int'
p9
aS'variable_2'
p10
ag8
aS'int'
p11
aS'variable_3'
p12
ag8
aS'long'
p13
aS'variable_4'
p14
ag8
aS'int'
p15
ag6
aS'variable_5'
p16
aS')'
p17
aS'unsigned'
p18
aS'char'
p19
aS'variable_6'
p20
aS'['
p21
aS'variable_7'
p22
aS']'
p23
aS';'
p24
aS'unsigned'
p25
aS'long'
p26
aS'variable_8'
p27
ag8
aS'variable_9'
p28
ag8
aS'variable_10'
p29
ag24
aS'int'
p30
aS'variable_11'
p31
ag8
aS'variable_12'
p32
ag24
aS'struct'
p33
aS'hm_header_st'
p34
aS'variable_13'
p35
ag24
aS'if'
p36
ag4
ag4
aS'variable_10'
p37
aS'='
p38
aS'func_1'
p39
ag4
aS'variable_1'
p40
ag8
aS'variable_4'
p41
ag8
aS'variable_5'
p42
ag17
ag17
aS'||'
p43
ag6
aS'variable_5'
p44
ag17
aS'if'
p45
ag4
ag6
aS'variable_5'
p46
ag17
aS'variable_1'
p47
aS'->'
p48
aS'variable_14'
p49
ag38
aS'variable_10'
p50
ag24
aS'variable_11'
p51
ag38
aS'variable_1'
p52
aS'->'
p53
aS'variable_15'
p54
aS'->'
p55
aS'func_2'
p56
ag4
aS'variable_1'
p57
ag8
aS'variable_16'
p58
ag8
aS'variable_6'
p59
ag8
aS'variable_7'
p60
ag8
aS'0'
p61
ag17
ag24
aS'if'
p62
ag4
aS'variable_11'
p63
aS'<'
p64
ag38
ag61
ag17
aS'variable_1'
p65
aS'->'
p66
aS'variable_17'
p67
ag38
aS'variable_18'
p68
ag24
aS'if'
p69
ag4
aS'variable_11'
p70
aS'!='
p71
aS'variable_7'
p72
ag17
aS'if'
p73
ag4
aS'variable_13'
p74
aS'.'
p75
aS'variable_19'
p76
aS'!='
p77
aS'variable_1'
p78
aS'->'
p79
aS'variable_20'
p80
aS'->'
p81
aS'variable_21'
p82
aS'&&'
p83
aS'!'
p84
ag4
aS'variable_1'
p85
aS'->'
p86
aS'variable_20'
p87
aS'->'
p88
aS'variable_22'
p89
aS'&&'
p90
aS'variable_13'
p91
ag75
aS'variable_19'
p92
aS'=='
p93
aS'1'
p94
ag17
ag17
aS'variable_8'
p95
ag38
aS'variable_13'
p96
ag75
aS'variable_23'
p97
ag24
aS'variable_10'
p98
ag38
aS'variable_13'
p99
ag75
aS'variable_10'
p100
ag24
aS'if'
p101
ag4
aS'variable_10'
p102
aS'&&'
p103
aS'variable_10'
p104
ag64
aS'variable_8'
p105
ag17
aS'if'
p106
ag4
ag84
aS'variable_1'
p107
aS'->'
p108
aS'variable_24'
p109
aS'&&'
p110
aS'variable_1'
p111
aS'->'
p112
aS'variable_20'
p113
aS'->'
p114
aS'variable_25'
p115
ag75
aS'variable_9'
p116
aS'=='
p117
ag61
aS'&&'
p118
aS'variable_6'
p119
ag21
ag61
ag23
aS'=='
p120
aS'variable_26'
p121
ag17
aS'if'
p122
ag4
aS'variable_6'
p123
ag21
ag94
ag23
aS'=='
p124
ag61
aS'&&'
p125
aS'variable_6'
p126
ag21
aS'2'
p127
ag23
aS'=='
p128
ag61
aS'&&'
p129
aS'variable_6'
p130
ag21
aS'3'
p131
ag23
aS'=='
p132
ag61
ag17
aS'variable_1'
p133
aS'->'
p134
aS'variable_14'
p135
ag38
ag61
ag24
aS'if'
p136
ag4
aS'variable_12'
p137
ag38
aS'func_3'
p138
ag4
aS'variable_1'
p139
ag8
aS'&'
p140
aS'variable_13'
p141
ag8
aS'variable_4'
p142
ag17
ag17
aS'variable_1'
p143
aS'->'
p144
aS'variable_27'
p145
ag38
aS'variable_3'
p146
ag24
aS'if'
p147
ag4
aS'variable_10'
p148
aS'>'
p149
ag61
ag17
aS'unsigned'
p150
aS'char'
p151
ag6
aS'variable_28'
p152
ag38
ag4
aS'unsigned'
p153
aS'char'
p154
ag6
ag17
aS'variable_1'
p155
aS'->'
p156
aS'variable_29'
p157
aS'->'
p158
aS'variable_30'
p159
aS'+'
p160
aS'variable_7'
p161
ag24
aS'variable_11'
p162
ag38
aS'variable_1'
p163
aS'->'
p164
aS'variable_15'
p165
aS'->'
p166
aS'func_4'
p167
ag4
aS'variable_1'
p168
ag8
aS'variable_16'
p169
ag8
ag140
aS'variable_28'
p170
ag21
aS'variable_9'
p171
ag23
ag8
aS'variable_10'
p172
ag8
ag61
ag17
ag24
aS'if'
p173
ag4
aS'variable_11'
p174
ag64
ag38
ag61
ag17
aS'return'
p175
aS'variable_11'
p176
ag24
aS'if'
p177
ag4
aS'variable_11'
p178
aS'!='
p179
ag4
aS'int'
p180
ag17
aS'variable_10'
p181
ag17
aaa(lp182
I0
aa(lp183
I252
aa(lp184
(lp185
S'main'
p186
aaa(lp187
S'883 /home/SySeVR/data/CVE_2014_0221_PATCHED_dtls1_get_message_fragment.c unsigned char * p = ( unsigned char * ) s -> init_buf -> data + DTLS1_HM_HEADER_LENGTH ; 86'
p188
aa.