(lp0
(lp1
(lp2
S'func_0'
p3
aS'('
p4
aS'variable_0'
p5
aS'*'
p6
aS'variable_1'
p7
aS','
p8
aS'int'
p9
aS'variable_2'
p10
ag8
aS'int'
p11
aS'variable_3'
p12
ag8
aS'long'
p13
aS'variable_4'
p14
ag8
aS'int'
p15
ag6
aS'variable_5'
p16
aS')'
p17
aS'unsigned'
p18
aS'char'
p19
aS'variable_6'
p20
aS'['
p21
aS'variable_7'
p22
aS']'
p23
aS';'
p24
aS'unsigned'
p25
aS'long'
p26
aS'variable_8'
p27
ag8
aS'variable_9'
p28
ag8
aS'variable_10'
p29
ag24
aS'int'
p30
aS'variable_11'
p31
ag8
aS'variable_12'
p32
ag24
aS'struct'
p33
aS'hm_header_st'
p34
aS'variable_13'
p35
ag24
aS'if'
p36
ag4
ag4
aS'variable_10'
p37
aS'='
p38
aS'func_1'
p39
ag4
aS'variable_1'
p40
ag8
aS'variable_4'
p41
ag8
aS'variable_5'
p42
ag17
ag17
aS'||'
p43
ag6
aS'variable_5'
p44
ag17
aS'variable_11'
p45
ag38
aS'variable_1'
p46
aS'->'
p47
aS'variable_14'
p48
aS'->'
p49
aS'func_2'
p50
ag4
aS'variable_1'
p51
ag8
aS'variable_15'
p52
ag8
aS'variable_6'
p53
ag8
aS'variable_7'
p54
ag8
aS'0'
p55
ag17
ag24
aS'if'
p56
ag4
aS'variable_11'
p57
aS'<'
p58
ag38
ag55
ag17
aS'if'
p59
ag4
aS'variable_11'
p60
aS'!='
p61
aS'variable_7'
p62
ag17
aS'if'
p63
ag4
aS'variable_13'
p64
aS'.'
p65
aS'variable_16'
p66
aS'!='
p67
aS'variable_1'
p68
aS'->'
p69
aS'variable_17'
p70
aS'->'
p71
aS'variable_18'
p72
aS'&&'
p73
aS'!'
p74
ag4
aS'variable_1'
p75
aS'->'
p76
aS'variable_17'
p77
aS'->'
p78
aS'variable_19'
p79
aS'&&'
p80
aS'variable_13'
p81
ag65
aS'variable_16'
p82
aS'=='
p83
aS'1'
p84
ag17
ag17
aS'variable_8'
p85
ag38
aS'variable_13'
p86
ag65
aS'variable_20'
p87
ag24
aS'variable_10'
p88
ag38
aS'variable_13'
p89
ag65
aS'variable_10'
p90
ag24
aS'if'
p91
ag4
aS'variable_10'
p92
aS'&&'
p93
aS'variable_10'
p94
ag58
aS'variable_8'
p95
ag17
aS'if'
p96
ag4
ag74
aS'variable_1'
p97
aS'->'
p98
aS'variable_21'
p99
aS'&&'
p100
aS'variable_1'
p101
aS'->'
p102
aS'variable_17'
p103
aS'->'
p104
aS'variable_22'
p105
ag65
aS'variable_9'
p106
aS'=='
p107
ag55
aS'&&'
p108
aS'variable_6'
p109
ag21
ag55
ag23
aS'=='
p110
aS'variable_23'
p111
ag17
aS'if'
p112
ag4
aS'variable_6'
p113
ag21
ag84
ag23
aS'=='
p114
ag55
aS'&&'
p115
aS'variable_6'
p116
ag21
aS'2'
p117
ag23
aS'=='
p118
ag55
aS'&&'
p119
aS'variable_6'
p120
ag21
aS'3'
p121
ag23
aS'=='
p122
ag55
ag17
aS'return'
p123
aS'func_3'
p124
ag4
aS'variable_1'
p125
ag8
aS'variable_2'
p126
ag8
aS'variable_3'
p127
ag8
aS'variable_4'
p128
ag8
aS'variable_5'
p129
ag17
ag24
aS'func_4'
p130
ag4
aS'variable_0'
p131
ag6
aS'variable_1'
p132
ag8
aS'int'
p133
aS'variable_2'
p134
ag8
aS'int'
p135
aS'variable_3'
p136
ag8
aS'long'
p137
aS'variable_4'
p138
ag8
aS'int'
p139
ag6
aS'variable_5'
p140
ag17
aS'unsigned'
p141
aS'char'
p142
aS'variable_6'
p143
ag21
aS'variable_7'
p144
ag23
ag24
aS'unsigned'
p145
aS'long'
p146
aS'variable_8'
p147
ag8
aS'variable_9'
p148
ag8
aS'variable_10'
p149
ag24
aS'int'
p150
aS'variable_11'
p151
ag8
aS'variable_12'
p152
ag24
aS'struct'
p153
aS'hm_header_st'
p154
aS'variable_13'
p155
ag24
aS'if'
p156
ag4
ag4
aS'variable_10'
p157
ag38
aS'func_5'
p158
ag4
aS'variable_1'
p159
ag8
aS'variable_4'
p160
ag8
aS'variable_5'
p161
ag17
ag17
aS'||'
p162
ag6
aS'variable_5'
p163
ag17
aS'variable_11'
p164
ag38
aS'variable_1'
p165
aS'->'
p166
aS'variable_14'
p167
aS'->'
p168
aS'func_6'
p169
ag4
aS'variable_1'
p170
ag8
aS'variable_15'
p171
ag8
aS'variable_6'
p172
ag8
aS'variable_7'
p173
ag8
ag55
ag17
ag24
aS'if'
p174
ag4
aS'variable_11'
p175
ag58
ag38
ag55
ag17
aS'if'
p176
ag4
aS'variable_11'
p177
aS'!='
p178
aS'variable_7'
p179
ag17
aS'if'
p180
ag4
aS'variable_13'
p181
ag65
aS'variable_16'
p182
aS'!='
p183
aS'variable_1'
p184
aS'->'
p185
aS'variable_17'
p186
aS'->'
p187
aS'variable_18'
p188
aS'&&'
p189
ag74
ag4
aS'variable_1'
p190
aS'->'
p191
aS'variable_17'
p192
aS'->'
p193
aS'variable_19'
p194
aS'&&'
p195
aS'variable_13'
p196
ag65
aS'variable_16'
p197
aS'=='
p198
ag84
ag17
ag17
aS'variable_8'
p199
ag38
aS'variable_13'
p200
ag65
aS'variable_20'
p201
ag24
aS'variable_10'
p202
ag38
aS'variable_13'
p203
ag65
aS'variable_10'
p204
ag24
aS'if'
p205
ag4
aS'variable_10'
p206
aS'&&'
p207
aS'variable_10'
p208
ag58
aS'variable_8'
p209
ag17
aS'if'
p210
ag4
ag74
aS'variable_1'
p211
aS'->'
p212
aS'variable_21'
p213
aS'&&'
p214
aS'variable_1'
p215
aS'->'
p216
aS'variable_17'
p217
aS'->'
p218
aS'variable_22'
p219
ag65
aS'variable_9'
p220
aS'=='
p221
ag55
aS'&&'
p222
aS'variable_6'
p223
ag21
ag55
ag23
aS'=='
p224
aS'variable_23'
p225
ag17
aS'if'
p226
ag4
aS'variable_6'
p227
ag21
ag84
ag23
aS'=='
p228
ag55
aS'&&'
p229
aS'variable_6'
p230
ag21
ag117
ag23
aS'=='
p231
ag55
aS'&&'
p232
aS'variable_6'
p233
ag21
ag121
ag23
aS'=='
p234
ag55
ag17
aS'return'
p235
aS'func_7'
p236
ag4
aS'variable_1'
p237
ag8
aS'variable_2'
p238
ag8
aS'variable_3'
p239
ag8
aS'variable_4'
p240
ag8
aS'variable_5'
p241
ag17
ag24
aS'func_8'
p242
ag4
aS'variable_0'
p243
ag6
aS'variable_1'
p244
ag8
aS'int'
p245
aS'variable_2'
p246
ag8
aS'int'
p247
aS'variable_3'
p248
ag8
aS'long'
p249
aS'variable_4'
p250
ag8
aS'int'
p251
ag6
aS'variable_5'
p252
ag17
aS'unsigned'
p253
aS'char'
p254
aS'variable_6'
p255
ag21
aS'variable_7'
p256
ag23
ag24
aS'unsigned'
p257
aS'long'
p258
aS'variable_8'
p259
ag8
aS'variable_9'
p260
ag8
aS'variable_10'
p261
ag24
aS'int'
p262
aS'variable_11'
p263
ag8
aS'variable_12'
p264
ag24
aS'struct'
p265
aS'hm_header_st'
p266
aS'variable_13'
p267
ag24
aS'if'
p268
ag4
ag4
aS'variable_10'
p269
ag38
aS'func_9'
p270
ag4
aS'variable_1'
p271
ag8
aS'variable_4'
p272
ag8
aS'variable_5'
p273
ag17
ag17
aS'||'
p274
ag6
aS'variable_5'
p275
ag17
aS'variable_11'
p276
ag38
aS'variable_1'
p277
aS'->'
p278
aS'variable_14'
p279
aS'->'
p280
aS'func_10'
p281
ag4
aS'variable_1'
p282
ag8
aS'variable_15'
p283
ag8
aS'variable_6'
p284
ag8
aS'variable_7'
p285
ag8
ag55
ag17
ag24
aS'if'
p286
ag4
aS'variable_11'
p287
ag58
ag38
ag55
ag17
aS'if'
p288
ag4
aS'variable_11'
p289
aS'!='
p290
aS'variable_7'
p291
ag17
aS'if'
p292
ag4
aS'variable_13'
p293
ag65
aS'variable_16'
p294
aS'!='
p295
aS'variable_1'
p296
aS'->'
p297
aS'variable_17'
p298
aS'->'
p299
aS'variable_18'
p300
aS'&&'
p301
ag74
ag4
aS'variable_1'
p302
aS'->'
p303
aS'variable_17'
p304
aS'->'
p305
aS'variable_19'
p306
aS'&&'
p307
aS'variable_13'
p308
ag65
aS'variable_16'
p309
aS'=='
p310
ag84
ag17
ag17
aS'variable_8'
p311
ag38
aS'variable_13'
p312
ag65
aS'variable_20'
p313
ag24
aS'variable_10'
p314
ag38
aS'variable_13'
p315
ag65
aS'variable_10'
p316
ag24
aS'if'
p317
ag4
aS'variable_10'
p318
aS'&&'
p319
aS'variable_10'
p320
ag58
aS'variable_8'
p321
ag17
aS'if'
p322
ag4
ag74
aS'variable_1'
p323
aS'->'
p324
aS'variable_21'
p325
aS'&&'
p326
aS'variable_1'
p327
aS'->'
p328
aS'variable_17'
p329
aS'->'
p330
aS'variable_22'
p331
ag65
aS'variable_9'
p332
aS'=='
p333
ag55
aS'&&'
p334
aS'variable_6'
p335
ag21
ag55
ag23
aS'=='
p336
aS'variable_23'
p337
ag17
aS'if'
p338
ag4
aS'variable_6'
p339
ag21
ag84
ag23
aS'=='
p340
ag55
aS'&&'
p341
aS'variable_6'
p342
ag21
ag117
ag23
aS'=='
p343
ag55
aS'&&'
p344
aS'variable_6'
p345
ag21
ag121
ag23
aS'=='
p346
ag55
ag17
aS'return'
p347
aS'func_11'
p348
ag4
aS'variable_1'
p349
ag8
aS'variable_2'
p350
ag8
aS'variable_3'
p351
ag8
aS'variable_4'
p352
ag8
aS'variable_5'
p353
ag17
ag24
aS'func_12'
p354
ag4
aS'variable_0'
p355
ag6
aS'variable_1'
p356
ag8
aS'int'
p357
aS'variable_2'
p358
ag8
aS'int'
p359
aS'variable_3'
p360
ag8
aS'long'
p361
aS'variable_4'
p362
ag8
aS'int'
p363
ag6
aS'variable_5'
p364
ag17
aS'unsigned'
p365
aS'char'
p366
aS'variable_6'
p367
ag21
aS'variable_7'
p368
ag23
ag24
aS'unsigned'
p369
aS'long'
p370
aS'variable_8'
p371
ag8
aS'variable_9'
p372
ag8
aS'variable_10'
p373
ag24
aS'int'
p374
aS'variable_11'
p375
ag8
aS'variable_12'
p376
ag24
aS'struct'
p377
aS'hm_header_st'
p378
aS'variable_13'
p379
ag24
aS'if'
p380
ag4
ag4
aS'variable_10'
p381
ag38
aS'func_13'
p382
ag4
aS'variable_1'
p383
ag8
aS'variable_4'
p384
ag8
aS'variable_5'
p385
ag17
ag17
aS'||'
p386
ag6
aS'variable_5'
p387
ag17
aS'variable_11'
p388
ag38
aS'variable_1'
p389
aS'->'
p390
aS'variable_14'
p391
aS'->'
p392
aS'func_14'
p393
ag4
aS'variable_1'
p394
ag8
aS'variable_15'
p395
ag8
aS'variable_6'
p396
ag8
aS'variable_7'
p397
ag8
ag55
ag17
ag24
aS'if'
p398
ag4
aS'variable_11'
p399
ag58
ag38
ag55
ag17
aS'if'
p400
ag4
aS'variable_11'
p401
aS'!='
p402
aS'variable_7'
p403
ag17
aS'if'
p404
ag4
aS'variable_13'
p405
ag65
aS'variable_16'
p406
aS'!='
p407
aS'variable_1'
p408
aS'->'
p409
aS'variable_17'
p410
aS'->'
p411
aS'variable_18'
p412
aS'&&'
p413
ag74
ag4
aS'variable_1'
p414
aS'->'
p415
aS'variable_17'
p416
aS'->'
p417
aS'variable_19'
p418
aS'&&'
p419
aS'variable_13'
p420
ag65
aS'variable_16'
p421
aS'=='
p422
ag84
ag17
ag17
aS'variable_8'
p423
ag38
aS'variable_13'
p424
ag65
aS'variable_20'
p425
ag24
aS'variable_10'
p426
ag38
aS'variable_13'
p427
ag65
aS'variable_10'
p428
ag24
aS'if'
p429
ag4
aS'variable_10'
p430
aS'&&'
p431
aS'variable_10'
p432
ag58
aS'variable_8'
p433
ag17
aS'if'
p434
ag4
ag74
aS'variable_1'
p435
aS'->'
p436
aS'variable_21'
p437
aS'&&'
p438
aS'variable_1'
p439
aS'->'
p440
aS'variable_17'
p441
aS'->'
p442
aS'variable_22'
p443
ag65
aS'variable_9'
p444
aS'=='
p445
ag55
aS'&&'
p446
aS'variable_6'
p447
ag21
ag55
ag23
aS'=='
p448
aS'variable_23'
p449
ag17
aS'if'
p450
ag4
aS'variable_12'
p451
ag38
aS'func_15'
p452
ag4
aS'variable_1'
p453
ag8
aS'&'
p454
aS'variable_13'
p455
ag8
aS'variable_4'
p456
ag17
ag17
aS'variable_1'
p457
aS'->'
p458
aS'variable_24'
p459
ag38
aS'variable_3'
p460
ag24
aS'if'
p461
ag4
aS'variable_10'
p462
aS'>'
p463
ag55
ag17
aS'unsigned'
p464
aS'char'
p465
ag6
aS'variable_25'
p466
ag38
ag4
aS'unsigned'
p467
aS'char'
p468
ag6
ag17
aS'variable_1'
p469
aS'->'
p470
aS'variable_26'
p471
aS'->'
p472
aS'variable_27'
p473
aS'+'
p474
aS'variable_7'
p475
ag24
aS'variable_11'
p476
ag38
aS'variable_1'
p477
aS'->'
p478
aS'variable_14'
p479
aS'->'
p480
aS'func_16'
p481
ag4
aS'variable_1'
p482
ag8
aS'variable_15'
p483
ag8
ag454
aS'variable_25'
p484
ag21
aS'variable_9'
p485
ag23
ag8
aS'variable_10'
p486
ag8
ag55
ag17
ag24
aS'if'
p487
ag4
aS'variable_11'
p488
ag58
ag38
ag55
ag17
aS'return'
p489
aS'variable_11'
p490
ag24
aS'if'
p491
ag4
aS'variable_11'
p492
aS'!='
p493
ag4
aS'int'
p494
ag17
aS'variable_10'
p495
ag17
aaa(lp496
I0
aa(lp497
I806
aa(lp498
(lp499
S'main'
p500
aaa(lp501
S'884 /home/SySeVR/data/CVE_2014_0221_VULN_dtls1_get_message_fragment.c unsigned char * p = ( unsigned char * ) s -> init_buf -> data + DTLS1_HM_HEADER_LENGTH ; 86'
p502
aa.