(lp0
(lp1
(lp2
S'func_0'
p3
aS'('
p4
aS'char'
p5
aS'*'
p6
aS'variable_0'
p7
aS')'
p8
aS'char'
p9
ag6
aS'variable_1'
p10
aS';'
p11
aS'if'
p12
ag4
aS'variable_0'
p13
aS'=='
p14
aS'variable_2'
p15
ag8
aS'while'
p16
ag4
aS'isspace'
p17
ag4
aS'variable_0'
p18
aS'['
p19
aS'0'
p20
aS']'
p21
ag8
ag8
aS'variable_0'
p22
aS'++'
p23
ag11
aS'variable_1'
p24
aS'='
p25
aS'strchr'
p26
ag4
aS'variable_0'
p27
aS','
p28
aS"'"
p29
aS'\\'
p30
ag20
ag29
ag8
ag11
aS'if'
p31
ag4
aS'variable_1'
p32
aS'=='
p33
aS'variable_2'
p34
ag8
aS'if'
p35
ag4
aS'strcmp'
p36
ag4
aS'variable_0'
p37
ag28
aS'"'
p38
aS'rsa'
p39
aS'-'
p40
aS'ex'
p41
ag38
ag8
aS'=='
p42
ag20
ag8
aS'if'
p43
ag4
aS'strcmp'
p44
ag4
aS'variable_0'
p45
ag28
ag38
aS'rsa'
p46
ag40
aS'dual'
p47
ag40
aS'use'
p48
ag38
ag8
aS'=='
p49
ag20
ag8
aS'if'
p50
ag4
aS'strcmp'
p51
ag4
aS'variable_0'
p52
ag28
ag38
aS'rsa'
p53
ag40
aS'sign'
p54
ag38
ag8
aS'=='
p55
ag20
ag8
aS'if'
p56
ag4
aS'strcmp'
p57
ag4
aS'variable_0'
p58
ag28
ag38
aS'rsa'
p59
ag40
aS'sign'
p60
ag40
aS'nonrepudiation'
p61
ag38
ag8
aS'=='
p62
ag20
ag8
aS'if'
p63
ag4
aS'strcmp'
p64
ag4
aS'variable_0'
p65
ag28
ag38
aS'rsa'
p66
ag40
aS'nonrepudiation'
p67
ag38
ag8
aS'=='
p68
ag20
ag8
aS'if'
p69
ag4
aS'strcmp'
p70
ag4
aS'variable_0'
p71
ag28
ag38
aS'ec'
p72
ag40
aS'ex'
p73
ag38
ag8
aS'=='
p74
ag20
ag8
aS'if'
p75
ag4
aS'strcmp'
p76
ag4
aS'variable_0'
p77
ag28
ag38
aS'ec'
p78
ag40
aS'dual'
p79
ag40
aS'use'
p80
ag38
ag8
aS'=='
p81
ag20
ag8
aS'if'
p82
ag4
aS'strcmp'
p83
ag4
aS'variable_0'
p84
ag28
ag38
aS'ec'
p85
ag40
aS'sign'
p86
ag38
ag8
aS'=='
p87
ag20
ag8
aS'if'
p88
ag4
aS'strcmp'
p89
ag4
aS'variable_0'
p90
ag28
ag38
aS'ec'
p91
ag40
aS'sign'
p92
ag40
aS'nonrepudiation'
p93
ag38
ag8
aS'=='
p94
ag20
ag8
aS'if'
p95
ag4
aS'strcmp'
p96
ag4
aS'variable_0'
p97
ag28
ag38
aS'ec'
p98
ag40
aS'nonrepudiation'
p99
ag38
ag8
aS'=='
p100
ag20
ag8
aS'if'
p101
ag4
aS'strcmp'
p102
ag4
aS'variable_0'
p103
ag28
ag38
aS'dsa'
p104
ag40
aS'sign'
p105
ag40
aS'nonrepudiation'
p106
ag38
ag8
aS'=='
p107
ag20
ag8
aS'if'
p108
ag4
aS'strcmp'
p109
ag4
aS'variable_0'
p110
ag28
ag38
aS'dsa'
p111
ag40
aS'sign'
p112
ag38
ag8
aS'=='
p113
ag20
ag8
aS'if'
p114
ag4
aS'strcmp'
p115
ag4
aS'variable_0'
p116
ag28
ag38
aS'dsa'
p117
ag40
aS'nonrepudiation'
p118
ag38
ag8
aS'=='
p119
ag20
ag8
aS'if'
p120
ag4
aS'strcmp'
p121
ag4
aS'variable_0'
p122
ag28
ag38
aS'dh'
p123
ag40
aS'ex'
p124
ag38
ag8
aS'=='
p125
ag20
ag8
aa(lp126
S'func_0'
p127
ag4
aS'char'
p128
ag6
aS'variable_0'
p129
ag8
aS'char'
p130
ag6
aS'variable_1'
p131
ag11
aS'if'
p132
ag4
aS'variable_0'
p133
aS'=='
p134
aS'variable_2'
p135
ag8
aS'while'
p136
ag4
aS'isspace'
p137
ag4
aS'variable_0'
p138
ag19
ag20
ag21
ag8
ag8
aS'variable_0'
p139
aS'++'
p140
ag11
aS'variable_1'
p141
ag25
aS'strchr'
p142
ag4
aS'variable_0'
p143
ag28
ag29
ag30
ag20
ag29
ag8
ag11
aS'if'
p144
ag4
aS'variable_1'
p145
aS'=='
p146
aS'variable_2'
p147
ag8
aS'if'
p148
ag4
aS'strcmp'
p149
ag4
aS'variable_0'
p150
ag28
ag38
aS'rsa'
p151
ag40
aS'ex'
p152
ag38
ag8
aS'=='
p153
ag20
ag8
aS'if'
p154
ag4
aS'strcmp'
p155
ag4
aS'variable_0'
p156
ag28
ag38
aS'rsa'
p157
ag40
aS'dual'
p158
ag40
aS'use'
p159
ag38
ag8
aS'=='
p160
ag20
ag8
aS'if'
p161
ag4
aS'strcmp'
p162
ag4
aS'variable_0'
p163
ag28
ag38
aS'rsa'
p164
ag40
aS'sign'
p165
ag38
ag8
aS'=='
p166
ag20
ag8
aS'if'
p167
ag4
aS'strcmp'
p168
ag4
aS'variable_0'
p169
ag28
ag38
aS'rsa'
p170
ag40
aS'sign'
p171
ag40
aS'nonrepudiation'
p172
ag38
ag8
aS'=='
p173
ag20
ag8
aS'if'
p174
ag4
aS'strcmp'
p175
ag4
aS'variable_0'
p176
ag28
ag38
aS'rsa'
p177
ag40
aS'nonrepudiation'
p178
ag38
ag8
aS'=='
p179
ag20
ag8
aS'if'
p180
ag4
aS'strcmp'
p181
ag4
aS'variable_0'
p182
ag28
ag38
aS'ec'
p183
ag40
aS'ex'
p184
ag38
ag8
aS'=='
p185
ag20
ag8
aS'if'
p186
ag4
aS'strcmp'
p187
ag4
aS'variable_0'
p188
ag28
ag38
aS'ec'
p189
ag40
aS'dual'
p190
ag40
aS'use'
p191
ag38
ag8
aS'=='
p192
ag20
ag8
aS'if'
p193
ag4
aS'strcmp'
p194
ag4
aS'variable_0'
p195
ag28
ag38
aS'ec'
p196
ag40
aS'sign'
p197
ag38
ag8
aS'=='
p198
ag20
ag8
aS'if'
p199
ag4
aS'strcmp'
p200
ag4
aS'variable_0'
p201
ag28
ag38
aS'ec'
p202
ag40
aS'sign'
p203
ag40
aS'nonrepudiation'
p204
ag38
ag8
aS'=='
p205
ag20
ag8
aS'if'
p206
ag4
aS'strcmp'
p207
ag4
aS'variable_0'
p208
ag28
ag38
aS'ec'
p209
ag40
aS'nonrepudiation'
p210
ag38
ag8
aS'=='
p211
ag20
ag8
aS'if'
p212
ag4
aS'strcmp'
p213
ag4
aS'variable_0'
p214
ag28
ag38
aS'dsa'
p215
ag40
aS'sign'
p216
ag40
aS'nonrepudiation'
p217
ag38
ag8
aS'=='
p218
ag20
ag8
aS'if'
p219
ag4
aS'strcmp'
p220
ag4
aS'variable_0'
p221
ag28
ag38
aS'dsa'
p222
ag40
aS'sign'
p223
ag38
ag8
aS'=='
p224
ag20
ag8
aS'if'
p225
ag4
aS'strcmp'
p226
ag4
aS'variable_0'
p227
ag28
ag38
aS'dsa'
p228
ag40
aS'nonrepudiation'
p229
ag38
ag8
aS'=='
p230
ag20
ag8
aa(lp231
S'func_0'
p232
ag4
aS'char'
p233
ag6
aS'variable_0'
p234
ag8
aS'char'
p235
ag6
aS'variable_1'
p236
ag11
aS'if'
p237
ag4
aS'variable_0'
p238
aS'=='
p239
aS'variable_2'
p240
ag8
aS'while'
p241
ag4
aS'isspace'
p242
ag4
aS'variable_0'
p243
ag19
ag20
ag21
ag8
ag8
aS'variable_0'
p244
aS'++'
p245
ag11
aS'variable_1'
p246
ag25
aS'strchr'
p247
ag4
aS'variable_0'
p248
ag28
ag29
ag30
ag20
ag29
ag8
ag11
aS'if'
p249
ag4
aS'variable_1'
p250
aS'=='
p251
aS'variable_2'
p252
ag8
aS'if'
p253
ag4
aS'strcmp'
p254
ag4
aS'variable_0'
p255
ag28
ag38
aS'rsa'
p256
ag40
aS'ex'
p257
ag38
ag8
aS'=='
p258
ag20
ag8
aS'if'
p259
ag4
aS'strcmp'
p260
ag4
aS'variable_0'
p261
ag28
ag38
aS'rsa'
p262
ag40
aS'dual'
p263
ag40
aS'use'
p264
ag38
ag8
aS'=='
p265
ag20
ag8
aS'if'
p266
ag4
aS'strcmp'
p267
ag4
aS'variable_0'
p268
ag28
ag38
aS'rsa'
p269
ag40
aS'sign'
p270
ag38
ag8
aS'=='
p271
ag20
ag8
aS'if'
p272
ag4
aS'strcmp'
p273
ag4
aS'variable_0'
p274
ag28
ag38
aS'rsa'
p275
ag40
aS'sign'
p276
ag40
aS'nonrepudiation'
p277
ag38
ag8
aS'=='
p278
ag20
ag8
aS'if'
p279
ag4
aS'strcmp'
p280
ag4
aS'variable_0'
p281
ag28
ag38
aS'rsa'
p282
ag40
aS'nonrepudiation'
p283
ag38
ag8
aS'=='
p284
ag20
ag8
aS'if'
p285
ag4
aS'strcmp'
p286
ag4
aS'variable_0'
p287
ag28
ag38
aS'ec'
p288
ag40
aS'ex'
p289
ag38
ag8
aS'=='
p290
ag20
ag8
aS'if'
p291
ag4
aS'strcmp'
p292
ag4
aS'variable_0'
p293
ag28
ag38
aS'ec'
p294
ag40
aS'dual'
p295
ag40
aS'use'
p296
ag38
ag8
aS'=='
p297
ag20
ag8
aS'if'
p298
ag4
aS'strcmp'
p299
ag4
aS'variable_0'
p300
ag28
ag38
aS'ec'
p301
ag40
aS'sign'
p302
ag38
ag8
aS'=='
p303
ag20
ag8
aS'if'
p304
ag4
aS'strcmp'
p305
ag4
aS'variable_0'
p306
ag28
ag38
aS'ec'
p307
ag40
aS'sign'
p308
ag40
aS'nonrepudiation'
p309
ag38
ag8
aS'=='
p310
ag20
ag8
aS'if'
p311
ag4
aS'strcmp'
p312
ag4
aS'variable_0'
p313
ag28
ag38
aS'ec'
p314
ag40
aS'nonrepudiation'
p315
ag38
ag8
aS'=='
p316
ag20
ag8
aS'if'
p317
ag4
aS'strcmp'
p318
ag4
aS'variable_0'
p319
ag28
ag38
aS'dsa'
p320
ag40
aS'sign'
p321
ag40
aS'nonrepudiation'
p322
ag38
ag8
aS'=='
p323
ag20
ag8
aS'if'
p324
ag4
aS'strcmp'
p325
ag4
aS'variable_0'
p326
ag28
ag38
aS'dsa'
p327
ag40
aS'sign'
p328
ag38
ag8
aS'=='
p329
ag20
ag8
aa(lp330
S'func_0'
p331
ag4
aS'char'
p332
ag6
aS'variable_0'
p333
ag8
aS'char'
p334
ag6
aS'variable_1'
p335
ag11
aS'if'
p336
ag4
aS'variable_0'
p337
aS'=='
p338
aS'variable_2'
p339
ag8
aS'while'
p340
ag4
aS'isspace'
p341
ag4
aS'variable_0'
p342
ag19
ag20
ag21
ag8
ag8
aS'variable_0'
p343
aS'++'
p344
ag11
aS'variable_1'
p345
ag25
aS'strchr'
p346
ag4
aS'variable_0'
p347
ag28
ag29
ag30
ag20
ag29
ag8
ag11
aS'if'
p348
ag4
aS'variable_1'
p349
aS'=='
p350
aS'variable_2'
p351
ag8
aS'if'
p352
ag4
aS'strcmp'
p353
ag4
aS'variable_0'
p354
ag28
ag38
aS'rsa'
p355
ag40
aS'ex'
p356
ag38
ag8
aS'=='
p357
ag20
ag8
aS'if'
p358
ag4
aS'strcmp'
p359
ag4
aS'variable_0'
p360
ag28
ag38
aS'rsa'
p361
ag40
aS'dual'
p362
ag40
aS'use'
p363
ag38
ag8
aS'=='
p364
ag20
ag8
aS'if'
p365
ag4
aS'strcmp'
p366
ag4
aS'variable_0'
p367
ag28
ag38
aS'rsa'
p368
ag40
aS'sign'
p369
ag38
ag8
aS'=='
p370
ag20
ag8
aS'if'
p371
ag4
aS'strcmp'
p372
ag4
aS'variable_0'
p373
ag28
ag38
aS'rsa'
p374
ag40
aS'sign'
p375
ag40
aS'nonrepudiation'
p376
ag38
ag8
aS'=='
p377
ag20
ag8
aS'if'
p378
ag4
aS'strcmp'
p379
ag4
aS'variable_0'
p380
ag28
ag38
aS'rsa'
p381
ag40
aS'nonrepudiation'
p382
ag38
ag8
aS'=='
p383
ag20
ag8
aS'if'
p384
ag4
aS'strcmp'
p385
ag4
aS'variable_0'
p386
ag28
ag38
aS'ec'
p387
ag40
aS'ex'
p388
ag38
ag8
aS'=='
p389
ag20
ag8
aS'if'
p390
ag4
aS'strcmp'
p391
ag4
aS'variable_0'
p392
ag28
ag38
aS'ec'
p393
ag40
aS'dual'
p394
ag40
aS'use'
p395
ag38
ag8
aS'=='
p396
ag20
ag8
aS'if'
p397
ag4
aS'strcmp'
p398
ag4
aS'variable_0'
p399
ag28
ag38
aS'ec'
p400
ag40
aS'sign'
p401
ag38
ag8
aS'=='
p402
ag20
ag8
aS'if'
p403
ag4
aS'strcmp'
p404
ag4
aS'variable_0'
p405
ag28
ag38
aS'ec'
p406
ag40
aS'sign'
p407
ag40
aS'nonrepudiation'
p408
ag38
ag8
aS'=='
p409
ag20
ag8
aS'if'
p410
ag4
aS'strcmp'
p411
ag4
aS'variable_0'
p412
ag28
ag38
aS'ec'
p413
ag40
aS'nonrepudiation'
p414
ag38
ag8
aS'=='
p415
ag20
ag8
aS'if'
p416
ag4
aS'strcmp'
p417
ag4
aS'variable_0'
p418
ag28
ag38
aS'dsa'
p419
ag40
aS'sign'
p420
ag40
aS'nonrepudiation'
p421
ag38
ag8
aS'=='
p422
ag20
ag8
aa(lp423
S'func_0'
p424
ag4
aS'char'
p425
ag6
aS'variable_0'
p426
ag8
aS'char'
p427
ag6
aS'variable_1'
p428
ag11
aS'if'
p429
ag4
aS'variable_0'
p430
aS'=='
p431
aS'variable_2'
p432
ag8
aS'while'
p433
ag4
aS'isspace'
p434
ag4
aS'variable_0'
p435
ag19
ag20
ag21
ag8
ag8
aS'variable_0'
p436
aS'++'
p437
ag11
aS'variable_1'
p438
ag25
aS'strchr'
p439
ag4
aS'variable_0'
p440
ag28
ag29
ag30
ag20
ag29
ag8
ag11
aS'if'
p441
ag4
aS'variable_1'
p442
aS'=='
p443
aS'variable_2'
p444
ag8
aS'if'
p445
ag4
aS'strcmp'
p446
ag4
aS'variable_0'
p447
ag28
ag38
aS'rsa'
p448
ag40
aS'ex'
p449
ag38
ag8
aS'=='
p450
ag20
ag8
aS'if'
p451
ag4
aS'strcmp'
p452
ag4
aS'variable_0'
p453
ag28
ag38
aS'rsa'
p454
ag40
aS'dual'
p455
ag40
aS'use'
p456
ag38
ag8
aS'=='
p457
ag20
ag8
aS'if'
p458
ag4
aS'strcmp'
p459
ag4
aS'variable_0'
p460
ag28
ag38
aS'rsa'
p461
ag40
aS'sign'
p462
ag38
ag8
aS'=='
p463
ag20
ag8
aS'if'
p464
ag4
aS'strcmp'
p465
ag4
aS'variable_0'
p466
ag28
ag38
aS'rsa'
p467
ag40
aS'sign'
p468
ag40
aS'nonrepudiation'
p469
ag38
ag8
aS'=='
p470
ag20
ag8
aS'if'
p471
ag4
aS'strcmp'
p472
ag4
aS'variable_0'
p473
ag28
ag38
aS'rsa'
p474
ag40
aS'nonrepudiation'
p475
ag38
ag8
aS'=='
p476
ag20
ag8
aS'if'
p477
ag4
aS'strcmp'
p478
ag4
aS'variable_0'
p479
ag28
ag38
aS'ec'
p480
ag40
aS'ex'
p481
ag38
ag8
aS'=='
p482
ag20
ag8
aS'if'
p483
ag4
aS'strcmp'
p484
ag4
aS'variable_0'
p485
ag28
ag38
aS'ec'
p486
ag40
aS'dual'
p487
ag40
aS'use'
p488
ag38
ag8
aS'=='
p489
ag20
ag8
aS'if'
p490
ag4
aS'strcmp'
p491
ag4
aS'variable_0'
p492
ag28
ag38
aS'ec'
p493
ag40
aS'sign'
p494
ag38
ag8
aS'=='
p495
ag20
ag8
aS'if'
p496
ag4
aS'strcmp'
p497
ag4
aS'variable_0'
p498
ag28
ag38
aS'ec'
p499
ag40
aS'sign'
p500
ag40
aS'nonrepudiation'
p501
ag38
ag8
aS'=='
p502
ag20
ag8
aS'if'
p503
ag4
aS'strcmp'
p504
ag4
aS'variable_0'
p505
ag28
ag38
aS'ec'
p506
ag40
aS'nonrepudiation'
p507
ag38
ag8
aS'=='
p508
ag20
ag8
aa(lp509
S'func_0'
p510
ag4
aS'char'
p511
ag6
aS'variable_0'
p512
ag8
aS'char'
p513
ag6
aS'variable_1'
p514
ag11
aS'if'
p515
ag4
aS'variable_0'
p516
aS'=='
p517
aS'variable_2'
p518
ag8
aS'while'
p519
ag4
aS'isspace'
p520
ag4
aS'variable_0'
p521
ag19
ag20
ag21
ag8
ag8
aS'variable_0'
p522
aS'++'
p523
ag11
aS'variable_1'
p524
ag25
aS'strchr'
p525
ag4
aS'variable_0'
p526
ag28
ag29
ag30
ag20
ag29
ag8
ag11
aS'if'
p527
ag4
aS'variable_1'
p528
aS'=='
p529
aS'variable_2'
p530
ag8
aS'if'
p531
ag4
aS'strcmp'
p532
ag4
aS'variable_0'
p533
ag28
ag38
aS'rsa'
p534
ag40
aS'ex'
p535
ag38
ag8
aS'=='
p536
ag20
ag8
aS'if'
p537
ag4
aS'strcmp'
p538
ag4
aS'variable_0'
p539
ag28
ag38
aS'rsa'
p540
ag40
aS'dual'
p541
ag40
aS'use'
p542
ag38
ag8
aS'=='
p543
ag20
ag8
aS'if'
p544
ag4
aS'strcmp'
p545
ag4
aS'variable_0'
p546
ag28
ag38
aS'rsa'
p547
ag40
aS'sign'
p548
ag38
ag8
aS'=='
p549
ag20
ag8
aS'if'
p550
ag4
aS'strcmp'
p551
ag4
aS'variable_0'
p552
ag28
ag38
aS'rsa'
p553
ag40
aS'sign'
p554
ag40
aS'nonrepudiation'
p555
ag38
ag8
aS'=='
p556
ag20
ag8
aS'if'
p557
ag4
aS'strcmp'
p558
ag4
aS'variable_0'
p559
ag28
ag38
aS'rsa'
p560
ag40
aS'nonrepudiation'
p561
ag38
ag8
aS'=='
p562
ag20
ag8
aS'if'
p563
ag4
aS'strcmp'
p564
ag4
aS'variable_0'
p565
ag28
ag38
aS'ec'
p566
ag40
aS'ex'
p567
ag38
ag8
aS'=='
p568
ag20
ag8
aS'if'
p569
ag4
aS'strcmp'
p570
ag4
aS'variable_0'
p571
ag28
ag38
aS'ec'
p572
ag40
aS'dual'
p573
ag40
aS'use'
p574
ag38
ag8
aS'=='
p575
ag20
ag8
aS'if'
p576
ag4
aS'strcmp'
p577
ag4
aS'variable_0'
p578
ag28
ag38
aS'ec'
p579
ag40
aS'sign'
p580
ag38
ag8
aS'=='
p581
ag20
ag8
aS'if'
p582
ag4
aS'strcmp'
p583
ag4
aS'variable_0'
p584
ag28
ag38
aS'ec'
p585
ag40
aS'sign'
p586
ag40
aS'nonrepudiation'
p587
ag38
ag8
aS'=='
p588
ag20
ag8
aa(lp589
S'func_0'
p590
ag4
aS'char'
p591
ag6
aS'variable_0'
p592
ag8
aS'char'
p593
ag6
aS'variable_1'
p594
ag11
aS'if'
p595
ag4
aS'variable_0'
p596
aS'=='
p597
aS'variable_2'
p598
ag8
aS'while'
p599
ag4
aS'isspace'
p600
ag4
aS'variable_0'
p601
ag19
ag20
ag21
ag8
ag8
aS'variable_0'
p602
aS'++'
p603
ag11
aS'variable_1'
p604
ag25
aS'strchr'
p605
ag4
aS'variable_0'
p606
ag28
ag29
ag30
ag20
ag29
ag8
ag11
aS'if'
p607
ag4
aS'variable_1'
p608
aS'=='
p609
aS'variable_2'
p610
ag8
aS'if'
p611
ag4
aS'strcmp'
p612
ag4
aS'variable_0'
p613
ag28
ag38
aS'rsa'
p614
ag40
aS'ex'
p615
ag38
ag8
aS'=='
p616
ag20
ag8
aS'if'
p617
ag4
aS'strcmp'
p618
ag4
aS'variable_0'
p619
ag28
ag38
aS'rsa'
p620
ag40
aS'dual'
p621
ag40
aS'use'
p622
ag38
ag8
aS'=='
p623
ag20
ag8
aS'if'
p624
ag4
aS'strcmp'
p625
ag4
aS'variable_0'
p626
ag28
ag38
aS'rsa'
p627
ag40
aS'sign'
p628
ag38
ag8
aS'=='
p629
ag20
ag8
aS'if'
p630
ag4
aS'strcmp'
p631
ag4
aS'variable_0'
p632
ag28
ag38
aS'rsa'
p633
ag40
aS'sign'
p634
ag40
aS'nonrepudiation'
p635
ag38
ag8
aS'=='
p636
ag20
ag8
aS'if'
p637
ag4
aS'strcmp'
p638
ag4
aS'variable_0'
p639
ag28
ag38
aS'rsa'
p640
ag40
aS'nonrepudiation'
p641
ag38
ag8
aS'=='
p642
ag20
ag8
aS'if'
p643
ag4
aS'strcmp'
p644
ag4
aS'variable_0'
p645
ag28
ag38
aS'ec'
p646
ag40
aS'ex'
p647
ag38
ag8
aS'=='
p648
ag20
ag8
aS'if'
p649
ag4
aS'strcmp'
p650
ag4
aS'variable_0'
p651
ag28
ag38
aS'ec'
p652
ag40
aS'dual'
p653
ag40
aS'use'
p654
ag38
ag8
aS'=='
p655
ag20
ag8
aS'if'
p656
ag4
aS'strcmp'
p657
ag4
aS'variable_0'
p658
ag28
ag38
aS'ec'
p659
ag40
aS'sign'
p660
ag38
ag8
aS'=='
p661
ag20
ag8
aa(lp662
S'func_0'
p663
ag4
aS'char'
p664
ag6
aS'variable_0'
p665
ag8
aS'char'
p666
ag6
aS'variable_1'
p667
ag11
aS'if'
p668
ag4
aS'variable_0'
p669
aS'=='
p670
aS'variable_2'
p671
ag8
aS'while'
p672
ag4
aS'isspace'
p673
ag4
aS'variable_0'
p674
ag19
ag20
ag21
ag8
ag8
aS'variable_0'
p675
aS'++'
p676
ag11
aS'variable_1'
p677
ag25
aS'strchr'
p678
ag4
aS'variable_0'
p679
ag28
ag29
ag30
ag20
ag29
ag8
ag11
aS'if'
p680
ag4
aS'variable_1'
p681
aS'=='
p682
aS'variable_2'
p683
ag8
aS'if'
p684
ag4
aS'strcmp'
p685
ag4
aS'variable_0'
p686
ag28
ag38
aS'rsa'
p687
ag40
aS'ex'
p688
ag38
ag8
aS'=='
p689
ag20
ag8
aS'if'
p690
ag4
aS'strcmp'
p691
ag4
aS'variable_0'
p692
ag28
ag38
aS'rsa'
p693
ag40
aS'dual'
p694
ag40
aS'use'
p695
ag38
ag8
aS'=='
p696
ag20
ag8
aS'if'
p697
ag4
aS'strcmp'
p698
ag4
aS'variable_0'
p699
ag28
ag38
aS'rsa'
p700
ag40
aS'sign'
p701
ag38
ag8
aS'=='
p702
ag20
ag8
aS'if'
p703
ag4
aS'strcmp'
p704
ag4
aS'variable_0'
p705
ag28
ag38
aS'rsa'
p706
ag40
aS'sign'
p707
ag40
aS'nonrepudiation'
p708
ag38
ag8
aS'=='
p709
ag20
ag8
aS'if'
p710
ag4
aS'strcmp'
p711
ag4
aS'variable_0'
p712
ag28
ag38
aS'rsa'
p713
ag40
aS'nonrepudiation'
p714
ag38
ag8
aS'=='
p715
ag20
ag8
aS'if'
p716
ag4
aS'strcmp'
p717
ag4
aS'variable_0'
p718
ag28
ag38
aS'ec'
p719
ag40
aS'ex'
p720
ag38
ag8
aS'=='
p721
ag20
ag8
aS'if'
p722
ag4
aS'strcmp'
p723
ag4
aS'variable_0'
p724
ag28
ag38
aS'ec'
p725
ag40
aS'dual'
p726
ag40
aS'use'
p727
ag38
ag8
aS'=='
p728
ag20
ag8
aa(lp729
S'func_0'
p730
ag4
aS'char'
p731
ag6
aS'variable_0'
p732
ag8
aS'char'
p733
ag6
aS'variable_1'
p734
ag11
aS'if'
p735
ag4
aS'variable_0'
p736
aS'=='
p737
aS'variable_2'
p738
ag8
aS'while'
p739
ag4
aS'isspace'
p740
ag4
aS'variable_0'
p741
ag19
ag20
ag21
ag8
ag8
aS'variable_0'
p742
aS'++'
p743
ag11
aS'variable_1'
p744
ag25
aS'strchr'
p745
ag4
aS'variable_0'
p746
ag28
ag29
ag30
ag20
ag29
ag8
ag11
aS'if'
p747
ag4
aS'variable_1'
p748
aS'=='
p749
aS'variable_2'
p750
ag8
aS'if'
p751
ag4
aS'strcmp'
p752
ag4
aS'variable_0'
p753
ag28
ag38
aS'rsa'
p754
ag40
aS'ex'
p755
ag38
ag8
aS'=='
p756
ag20
ag8
aS'if'
p757
ag4
aS'strcmp'
p758
ag4
aS'variable_0'
p759
ag28
ag38
aS'rsa'
p760
ag40
aS'dual'
p761
ag40
aS'use'
p762
ag38
ag8
aS'=='
p763
ag20
ag8
aS'if'
p764
ag4
aS'strcmp'
p765
ag4
aS'variable_0'
p766
ag28
ag38
aS'rsa'
p767
ag40
aS'sign'
p768
ag38
ag8
aS'=='
p769
ag20
ag8
aS'if'
p770
ag4
aS'strcmp'
p771
ag4
aS'variable_0'
p772
ag28
ag38
aS'rsa'
p773
ag40
aS'sign'
p774
ag40
aS'nonrepudiation'
p775
ag38
ag8
aS'=='
p776
ag20
ag8
aS'if'
p777
ag4
aS'strcmp'
p778
ag4
aS'variable_0'
p779
ag28
ag38
aS'rsa'
p780
ag40
aS'nonrepudiation'
p781
ag38
ag8
aS'=='
p782
ag20
ag8
aS'if'
p783
ag4
aS'strcmp'
p784
ag4
aS'variable_0'
p785
ag28
ag38
aS'ec'
p786
ag40
aS'ex'
p787
ag38
ag8
aS'=='
p788
ag20
ag8
aa(lp789
S'func_0'
p790
ag4
aS'char'
p791
ag6
aS'variable_0'
p792
ag8
aS'char'
p793
ag6
aS'variable_1'
p794
ag11
aS'if'
p795
ag4
aS'variable_0'
p796
aS'=='
p797
aS'variable_2'
p798
ag8
aS'while'
p799
ag4
aS'isspace'
p800
ag4
aS'variable_0'
p801
ag19
ag20
ag21
ag8
ag8
aS'variable_0'
p802
aS'++'
p803
ag11
aS'variable_1'
p804
ag25
aS'strchr'
p805
ag4
aS'variable_0'
p806
ag28
ag29
ag30
ag20
ag29
ag8
ag11
aS'if'
p807
ag4
aS'variable_1'
p808
aS'=='
p809
aS'variable_2'
p810
ag8
aS'if'
p811
ag4
aS'strcmp'
p812
ag4
aS'variable_0'
p813
ag28
ag38
aS'rsa'
p814
ag40
aS'ex'
p815
ag38
ag8
aS'=='
p816
ag20
ag8
aS'if'
p817
ag4
aS'strcmp'
p818
ag4
aS'variable_0'
p819
ag28
ag38
aS'rsa'
p820
ag40
aS'dual'
p821
ag40
aS'use'
p822
ag38
ag8
aS'=='
p823
ag20
ag8
aS'if'
p824
ag4
aS'strcmp'
p825
ag4
aS'variable_0'
p826
ag28
ag38
aS'rsa'
p827
ag40
aS'sign'
p828
ag38
ag8
aS'=='
p829
ag20
ag8
aS'if'
p830
ag4
aS'strcmp'
p831
ag4
aS'variable_0'
p832
ag28
ag38
aS'rsa'
p833
ag40
aS'sign'
p834
ag40
aS'nonrepudiation'
p835
ag38
ag8
aS'=='
p836
ag20
ag8
aS'if'
p837
ag4
aS'strcmp'
p838
ag4
aS'variable_0'
p839
ag28
ag38
aS'rsa'
p840
ag40
aS'nonrepudiation'
p841
ag38
ag8
aS'=='
p842
ag20
ag8
aa(lp843
S'func_0'
p844
ag4
aS'char'
p845
ag6
aS'variable_0'
p846
ag8
aS'char'
p847
ag6
aS'variable_1'
p848
ag11
aS'if'
p849
ag4
aS'variable_0'
p850
aS'=='
p851
aS'variable_2'
p852
ag8
aS'while'
p853
ag4
aS'isspace'
p854
ag4
aS'variable_0'
p855
ag19
ag20
ag21
ag8
ag8
aS'variable_0'
p856
aS'++'
p857
ag11
aS'variable_1'
p858
ag25
aS'strchr'
p859
ag4
aS'variable_0'
p860
ag28
ag29
ag30
ag20
ag29
ag8
ag11
aS'if'
p861
ag4
aS'variable_1'
p862
aS'=='
p863
aS'variable_2'
p864
ag8
aS'if'
p865
ag4
aS'strcmp'
p866
ag4
aS'variable_0'
p867
ag28
ag38
aS'rsa'
p868
ag40
aS'ex'
p869
ag38
ag8
aS'=='
p870
ag20
ag8
aS'if'
p871
ag4
aS'strcmp'
p872
ag4
aS'variable_0'
p873
ag28
ag38
aS'rsa'
p874
ag40
aS'dual'
p875
ag40
aS'use'
p876
ag38
ag8
aS'=='
p877
ag20
ag8
aS'if'
p878
ag4
aS'strcmp'
p879
ag4
aS'variable_0'
p880
ag28
ag38
aS'rsa'
p881
ag40
aS'sign'
p882
ag38
ag8
aS'=='
p883
ag20
ag8
aS'if'
p884
ag4
aS'strcmp'
p885
ag4
aS'variable_0'
p886
ag28
ag38
aS'rsa'
p887
ag40
aS'sign'
p888
ag40
aS'nonrepudiation'
p889
ag38
ag8
aS'=='
p890
ag20
ag8
aa(lp891
S'func_0'
p892
ag4
aS'char'
p893
ag6
aS'variable_0'
p894
ag8
aS'char'
p895
ag6
aS'variable_1'
p896
ag11
aS'if'
p897
ag4
aS'variable_0'
p898
aS'=='
p899
aS'variable_2'
p900
ag8
aS'while'
p901
ag4
aS'isspace'
p902
ag4
aS'variable_0'
p903
ag19
ag20
ag21
ag8
ag8
aS'variable_0'
p904
aS'++'
p905
ag11
aS'variable_1'
p906
ag25
aS'strchr'
p907
ag4
aS'variable_0'
p908
ag28
ag29
ag30
ag20
ag29
ag8
ag11
aS'if'
p909
ag4
aS'variable_1'
p910
aS'=='
p911
aS'variable_2'
p912
ag8
aS'if'
p913
ag4
aS'strcmp'
p914
ag4
aS'variable_0'
p915
ag28
ag38
aS'rsa'
p916
ag40
aS'ex'
p917
ag38
ag8
aS'=='
p918
ag20
ag8
aS'if'
p919
ag4
aS'strcmp'
p920
ag4
aS'variable_0'
p921
ag28
ag38
aS'rsa'
p922
ag40
aS'dual'
p923
ag40
aS'use'
p924
ag38
ag8
aS'=='
p925
ag20
ag8
aS'if'
p926
ag4
aS'strcmp'
p927
ag4
aS'variable_0'
p928
ag28
ag38
aS'rsa'
p929
ag40
aS'sign'
p930
ag38
ag8
aS'=='
p931
ag20
ag8
aa(lp932
S'func_0'
p933
ag4
aS'char'
p934
ag6
aS'variable_0'
p935
ag8
aS'char'
p936
ag6
aS'variable_1'
p937
ag11
aS'if'
p938
ag4
aS'variable_0'
p939
aS'=='
p940
aS'variable_2'
p941
ag8
aS'while'
p942
ag4
aS'isspace'
p943
ag4
aS'variable_0'
p944
ag19
ag20
ag21
ag8
ag8
aS'variable_0'
p945
aS'++'
p946
ag11
aS'variable_1'
p947
ag25
aS'strchr'
p948
ag4
aS'variable_0'
p949
ag28
ag29
ag30
ag20
ag29
ag8
ag11
aS'if'
p950
ag4
aS'variable_1'
p951
aS'=='
p952
aS'variable_2'
p953
ag8
aS'if'
p954
ag4
aS'strcmp'
p955
ag4
aS'variable_0'
p956
ag28
ag38
aS'rsa'
p957
ag40
aS'ex'
p958
ag38
ag8
aS'=='
p959
ag20
ag8
aS'if'
p960
ag4
aS'strcmp'
p961
ag4
aS'variable_0'
p962
ag28
ag38
aS'rsa'
p963
ag40
aS'dual'
p964
ag40
aS'use'
p965
ag38
ag8
aS'=='
p966
ag20
ag8
aa(lp967
S'func_0'
p968
ag4
aS'char'
p969
ag6
aS'variable_0'
p970
ag8
aS'char'
p971
ag6
aS'variable_1'
p972
ag11
aS'if'
p973
ag4
aS'variable_0'
p974
aS'=='
p975
aS'variable_2'
p976
ag8
aS'while'
p977
ag4
aS'isspace'
p978
ag4
aS'variable_0'
p979
ag19
ag20
ag21
ag8
ag8
aS'variable_0'
p980
aS'++'
p981
ag11
aS'variable_1'
p982
ag25
aS'strchr'
p983
ag4
aS'variable_0'
p984
ag28
ag29
ag30
ag20
ag29
ag8
ag11
aS'if'
p985
ag4
aS'variable_1'
p986
aS'=='
p987
aS'variable_2'
p988
ag8
aS'if'
p989
ag4
aS'strcmp'
p990
ag4
aS'variable_0'
p991
ag28
ag38
aS'rsa'
p992
ag40
aS'ex'
p993
ag38
ag8
aS'=='
p994
ag20
ag8
aaa(lp995
I1
aI1
aI1
aI1
aI1
aI1
aI1
aI1
aI1
aI1
aI1
aI1
aI1
aI1
aa(lp996
I254
aI239
aI224
aI207
aI192
aI175
aI160
aI143
aI128
aI113
aI96
aI81
aI64
aI49
aa(lp997
(lp998
S'main'
p999
aa(lp1000
g999
aa(lp1001
g999
aa(lp1002
g999
aa(lp1003
g999
aa(lp1004
g999
aa(lp1005
g999
aa(lp1006
g999
aa(lp1007
g999
aa(lp1008
g999
aa(lp1009
g999
aa(lp1010
g999
aa(lp1011
g999
aa(lp1012
g999
aaa(lp1013
S'748 /home/SySeVR/data/CVE_2013_1705_VULN_cryptojs_interpret_key_gen_type.c strcmp 43'
p1014
aS'749 /home/SySeVR/data/CVE_2013_1705_VULN_cryptojs_interpret_key_gen_type.c strcmp 41'
p1015
aS'750 /home/SySeVR/data/CVE_2013_1705_VULN_cryptojs_interpret_key_gen_type.c strcmp 39'
p1016
aS'751 /home/SySeVR/data/CVE_2013_1705_VULN_cryptojs_interpret_key_gen_type.c strcmp 37'
p1017
aS'752 /home/SySeVR/data/CVE_2013_1705_VULN_cryptojs_interpret_key_gen_type.c strcmp 35'
p1018
aS'753 /home/SySeVR/data/CVE_2013_1705_VULN_cryptojs_interpret_key_gen_type.c strcmp 33'
p1019
aS'754 /home/SySeVR/data/CVE_2013_1705_VULN_cryptojs_interpret_key_gen_type.c strcmp 31'
p1020
aS'755 /home/SySeVR/data/CVE_2013_1705_VULN_cryptojs_interpret_key_gen_type.c strcmp 29'
p1021
aS'756 /home/SySeVR/data/CVE_2013_1705_VULN_cryptojs_interpret_key_gen_type.c strcmp 27'
p1022
aS'757 /home/SySeVR/data/CVE_2013_1705_VULN_cryptojs_interpret_key_gen_type.c strcmp 25'
p1023
aS'758 /home/SySeVR/data/CVE_2013_1705_VULN_cryptojs_interpret_key_gen_type.c strcmp 23'
p1024
aS'759 /home/SySeVR/data/CVE_2013_1705_VULN_cryptojs_interpret_key_gen_type.c strcmp 21'
p1025
aS'760 /home/SySeVR/data/CVE_2013_1705_VULN_cryptojs_interpret_key_gen_type.c strcmp 19'
p1026
aS'761 /home/SySeVR/data/CVE_2013_1705_VULN_cryptojs_interpret_key_gen_type.c strcmp 17'
p1027
aa.