(lp0
(lp1
(lp2
S'static'
p3
aS'int'
p4
aS'func_0'
p5
aS'('
p6
aS'variable_0'
p7
aS'*'
p8
aS'variable_1'
p9
aS','
p10
aS'const'
p11
aS'uint8_t'
p12
ag8
aS'variable_2'
p13
ag10
aS'int'
p14
aS'variable_3'
p15
aS')'
p16
aS'int'
p17
aS'variable_4'
p18
ag10
aS'variable_5'
p19
aS';'
p20
aS'int'
p21
aS'variable_6'
p22
ag10
aS'variable_7'
p23
ag20
aS'variable_5'
p24
aS'='
p25
ag6
aS'variable_2'
p26
aS'['
p27
aS'2'
p28
aS']'
p29
aS'&'
p30
aS'0x1f'
p31
ag16
ag8
aS'12'
p32
ag20
aS'variable_4'
p33
ag25
ag6
aS'variable_2'
p34
ag27
aS'3'
p35
ag29
ag30
aS'0x3f'
p36
ag16
ag8
aS'6'
p37
ag20
aS'for'
p38
ag6
aS'variable_7'
p39
ag25
aS'0'
p40
ag20
aS'variable_7'
p41
aS'<'
p42
aS'12'
p43
ag20
aS'variable_7'
p44
aS'++'
p45
ag16
aS'for'
p46
ag6
aS'variable_6'
p47
ag25
ag40
ag20
aS'variable_6'
p48
ag42
ag37
ag20
aS'variable_6'
p49
aS'++'
p50
ag16
aS'variable_8'
p51
ag8
aS'variable_9'
p52
ag25
ag30
aS'variable_1'
p53
aS'->'
p54
aS'variable_10'
p55
ag27
ag6
aS'variable_5'
p56
aS'+'
p57
aS'variable_7'
p58
ag16
ag8
aS'variable_11'
p59
ag57
ag6
aS'variable_4'
p60
ag57
aS'variable_6'
p61
ag16
ag29
ag20
ag8
aS'variable_9'
p62
aS'^'
p63
ag25
aS'variable_12'
p64
ag27
aS'variable_13'
p65
ag29
ag20
ag8
aS'variable_9'
p66
ag25
aS'variable_12'
p67
ag27
aS'variable_13'
p68
ag29
ag20
aaa(lp69
I0
aa(lp70
I101
aa(lp71
(lp72
S'main'
p73
aaa(lp74
S'761 /home/SySeVR/data/CVE_2011_0021_VULN_DecodeTileBlock.c uint8_t * p = & p_cdg -> p_screen [ ( sy + y ) * CDG_SCREEN_PITCH + ( sx + x ) ] ; 18'
p75
aa.