(lp0
(lp1
(lp2
S'static'
p3
aS'void'
p4
aS'func_0'
p5
aS'('
p6
aS'struct'
p7
aS'variable_0'
p8
aS'*'
p9
aS'variable_1'
p10
aS','
p11
aS'struct'
p12
aS'variable_2'
p13
ag9
aS'variable_3'
p14
ag11
aS'size_t'
p15
aS'variable_4'
p16
aS')'
p17
aS'struct'
p18
aS'variable_5'
p19
ag9
aS'variable_6'
p20
aS'='
p21
aS'func_1'
p22
ag6
aS'variable_1'
p23
ag17
aS';'
p24
aS'unsigned'
p25
aS'char'
p26
aS'variable_7'
p27
ag21
aS'func_2'
p28
ag6
aS'variable_6'
p29
aS'->'
p30
aS'variable_8'
p31
ag17
aS'&'
p32
aS'0xff'
p33
ag24
aS'struct'
p34
aS'variable_9'
p35
ag9
aS'variable_10'
p36
ag21
aS'func_3'
p37
ag6
aS'variable_1'
p38
ag17
ag24
aS'struct'
p39
aS'variable_11'
p40
ag9
aS'variable_12'
p41
ag21
aS'NULL'
p42
ag24
aS'struct'
p43
aS'variable_0'
p44
ag9
aS'variable_13'
p45
ag24
aS'if'
p46
ag6
aS'variable_10'
p47
ag17
aS'variable_12'
p48
ag21
aS'variable_10'
p49
aS'->'
p50
aS'variable_14'
p51
aS'->'
p52
aS'variable_15'
p53
ag24
aS'if'
p54
ag6
aS'!'
p55
aS'variable_12'
p56
ag17
aS'if'
p57
ag6
ag6
aS'variable_16'
p58
ag21
aS'func_4'
p59
ag6
aS'variable_3'
p60
aS'->'
p61
aS'variable_17'
p62
ag11
aS'variable_7'
p63
ag11
aS'variable_12'
p64
aS'->'
p65
aS'variable_18'
p66
ag17
ag17
aS'=='
p67
aS'NULL'
p68
ag17
aS'variable_13'
p69
ag21
aS'func_5'
p70
ag6
ag6
aS'variable_4'
p71
aS'-'
p72
aS'sizeof'
p73
ag6
aS'struct'
p74
aS'variable_2'
p75
ag17
aS'+'
p76
aS'15'
p77
ag17
ag32
aS'~'
p78
aS'15'
p79
ag11
aS'variable_19'
p80
ag17
ag24
aS'if'
p81
ag6
aS'variable_13'
p82
aS'=='
p83
aS'NULL'
p84
ag17
aS'memcpy'
p85
ag6
aS'func_6'
p86
ag6
aS'variable_13'
p87
ag11
aS'variable_4'
p88
ag72
aS'sizeof'
p89
ag6
aS'struct'
p90
aS'variable_2'
p91
ag17
ag17
ag11
ag6
aS'void'
p92
ag9
ag17
ag6
aS'variable_3'
p93
ag76
aS'1'
p94
ag17
ag11
aS'variable_4'
p95
ag72
aS'sizeof'
p96
ag6
aS'struct'
p97
aS'variable_2'
p98
ag17
ag17
ag24
aaa(lp99
I0
aa(lp100
I128
aa(lp101
(lp102
S'main'
p103
aaa(lp104
S'450 /home/SySeVR/data/CVE_2010_4342_PATCHED_aun_incoming.c memcpy 28'
p105
aa.