(lp0
(lp1
(lp2
S'func_0'
p3
aS'('
p4
aS'variable_0'
p5
aS'*'
p6
aS'variable_1'
p7
aS','
p8
aS'const'
p9
aS'char'
p10
ag6
aS'variable_2'
p11
ag8
aS'size_t'
p12
aS'variable_3'
p13
ag8
aS'gboolean'
p14
aS'variable_4'
p15
aS')'
p16
aS'variable_0'
p17
ag6
aS'variable_5'
p18
aS';'
p19
aS'variable_0'
p20
ag6
aS'variable_6'
p21
ag19
aS'variable_0'
p22
ag6
aS'variable_7'
p23
aS'='
p24
aS'NULL'
p25
ag19
aS'char'
p26
aS'variable_8'
p27
aS'['
p28
aS'256'
p29
aS']'
p30
ag24
aS'"'
p31
aS'\\'
p32
aS'0'
p33
ag31
ag19
aS'gboolean'
p34
aS'variable_9'
p35
ag24
aS'variable_10'
p36
ag19
aS'variable_6'
p37
ag24
aS'variable_1'
p38
aS'->'
p39
aS'variable_11'
p40
ag19
aS'for'
p41
ag4
aS'variable_5'
p42
ag24
aS'variable_6'
p43
ag19
aS'variable_5'
p44
aS'!='
p45
aS'NULL'
p46
ag19
aS'variable_5'
p47
ag24
aS'variable_5'
p48
aS'->'
p49
aS'variable_12'
p50
ag16
aS'if'
p51
ag4
aS'variable_5'
p52
aS'->'
p53
aS'variable_11'
p54
aS'&&'
p55
aS'!'
p56
aS'variable_9'
p57
aS'&&'
p58
aS'variable_4'
p59
ag16
aS'variable_7'
p60
ag24
aS'variable_5'
p61
ag19
aS'variable_5'
p62
ag24
aS'variable_5'
p63
aS'->'
p64
aS'variable_11'
p65
ag19
aS'variable_9'
p66
ag24
aS'variable_13'
p67
ag19
aS'if'
p68
ag4
aS'strcmp'
p69
ag4
aS'func_1'
p70
ag4
aS'variable_5'
p71
ag16
aS'->'
p72
aS'variable_14'
p73
aS'->'
p74
aS'variable_15'
p75
ag8
aS'variable_2'
p76
ag16
aS'=='
p77
ag33
ag16
aS'switch'
p78
ag4
aS'func_2'
p79
ag4
aS'variable_5'
p80
ag16
aS'->'
p81
aS'variable_14'
p82
aS'->'
p83
aS'variable_16'
p84
ag16
aS'if'
p85
ag4
aS'variable_17'
p86
aS'>'
p87
ag33
ag16
aS'if'
p88
ag4
aS'strlen'
p89
ag4
aS'variable_8'
p90
ag16
aS'+'
p91
aS'strlen'
p92
ag4
aS'variable_18'
p93
ag16
aS'<'
p94
aS'250'
p95
ag16
aS'variable_17'
p96
aS'--'
p97
ag19
aS'if'
p98
ag4
aS'variable_17'
p99
aS'=='
p100
ag33
ag16
aS'if'
p101
ag4
aS'variable_5'
p102
aS'->'
p103
aS'variable_12'
p104
aS'=='
p105
aS'NULL'
p106
aS'&&'
p107
aS'variable_9'
p108
aS'&&'
p109
aS'variable_4'
p110
ag16
aS'variable_5'
p111
ag24
aS'variable_7'
p112
ag19
aS'variable_9'
p113
ag24
aS'variable_10'
p114
ag19
aS'if'
p115
ag4
aS'strlen'
p116
ag4
aS'variable_18'
p117
ag16
aS'=='
p118
ag33
ag16
aa(lp119
S'func_0'
p120
ag4
aS'variable_0'
p121
ag6
aS'variable_1'
p122
ag8
aS'const'
p123
aS'char'
p124
ag6
aS'variable_2'
p125
ag8
aS'size_t'
p126
aS'variable_3'
p127
ag8
aS'gboolean'
p128
aS'variable_4'
p129
ag16
aS'variable_0'
p130
ag6
aS'variable_5'
p131
ag19
aS'variable_0'
p132
ag6
aS'variable_6'
p133
ag19
aS'variable_0'
p134
ag6
aS'variable_7'
p135
ag24
aS'NULL'
p136
ag19
aS'char'
p137
aS'variable_8'
p138
ag28
aS'256'
p139
ag30
ag24
ag31
ag32
ag33
ag31
ag19
aS'gboolean'
p140
aS'variable_9'
p141
ag24
aS'variable_10'
p142
ag19
aS'variable_6'
p143
ag24
aS'variable_1'
p144
aS'->'
p145
aS'variable_11'
p146
ag19
aS'for'
p147
ag4
aS'variable_5'
p148
ag24
aS'variable_6'
p149
ag19
aS'variable_5'
p150
aS'!='
p151
aS'NULL'
p152
ag19
aS'variable_5'
p153
ag24
aS'variable_5'
p154
aS'->'
p155
aS'variable_12'
p156
ag16
aS'if'
p157
ag4
aS'variable_5'
p158
aS'->'
p159
aS'variable_11'
p160
aS'&&'
p161
ag56
aS'variable_9'
p162
aS'&&'
p163
aS'variable_4'
p164
ag16
aS'variable_7'
p165
ag24
aS'variable_5'
p166
ag19
aS'variable_5'
p167
ag24
aS'variable_5'
p168
aS'->'
p169
aS'variable_11'
p170
ag19
aS'variable_9'
p171
ag24
aS'variable_13'
p172
ag19
aS'if'
p173
ag4
aS'strcmp'
p174
ag4
aS'func_1'
p175
ag4
aS'variable_5'
p176
ag16
aS'->'
p177
aS'variable_14'
p178
aS'->'
p179
aS'variable_15'
p180
ag8
aS'variable_2'
p181
ag16
aS'=='
p182
ag33
ag16
aS'switch'
p183
ag4
aS'func_2'
p184
ag4
aS'variable_5'
p185
ag16
aS'->'
p186
aS'variable_14'
p187
aS'->'
p188
aS'variable_16'
p189
ag16
aS'if'
p190
ag4
aS'variable_17'
p191
ag87
ag33
ag16
aS'if'
p192
ag4
aS'strlen'
p193
ag4
aS'variable_8'
p194
ag16
ag91
aS'strlen'
p195
ag4
aS'variable_18'
p196
ag16
ag94
aS'250'
p197
ag16
aS'variable_17'
p198
aS'--'
p199
ag19
aS'if'
p200
ag4
aS'variable_17'
p201
aS'=='
p202
ag33
ag16
aS'if'
p203
ag4
aS'variable_5'
p204
aS'->'
p205
aS'variable_12'
p206
aS'=='
p207
aS'NULL'
p208
aS'&&'
p209
aS'variable_9'
p210
aS'&&'
p211
aS'variable_4'
p212
ag16
aS'variable_5'
p213
ag24
aS'variable_7'
p214
ag19
aS'variable_9'
p215
ag24
aS'variable_10'
p216
ag19
aaa(lp217
I0
aI0
aa(lp218
I174
aI131
aa(lp219
(lp220
S'main'
p221
aa(lp222
g221
aaa(lp223
S'300 /home/SySeVR/data/CVE_2014_8713_VULN_build_expert_data.c strlen 79'
p224
aS'301 /home/SySeVR/data/CVE_2014_8713_VULN_build_expert_data.c strlen 40'
p225
aa.