(lp0
(lp1
(lp2
S'static'
p3
aS'int'
p4
aS'func_0'
p5
aS'('
p6
aS'struct'
p7
aS'variable_0'
p8
aS'*'
p9
aS'variable_1'
p10
aS','
p11
aS'struct'
p12
aS'variable_2'
p13
ag9
aS'variable_2'
p14
ag11
aS'struct'
p15
aS'variable_3'
p16
ag9
aS'variable_4'
p17
ag11
aS'int'
p18
aS'variable_5'
p19
aS')'
p20
aS'unsigned'
p21
aS'long'
p22
aS'long'
p23
aS'variable_6'
p24
aS';'
p25
aS'variable_6'
p26
aS'='
p27
ag6
aS'unsigned'
p28
aS'long'
p29
aS'long'
p30
ag20
aS'variable_4'
p31
aS'->'
p32
aS'variable_7'
p33
aS'.'
p34
aS'variable_8'
p35
ag9
aS'variable_9'
p36
aS'+'
p37
aS'variable_4'
p38
aS'->'
p39
aS'variable_7'
p40
ag34
aS'variable_10'
p41
ag25
aS'variable_6'
p42
ag27
aS'func_1'
p43
ag6
aS'variable_6'
p44
ag20
ag25
aS'func_2'
p45
ag6
aS'variable_1'
p46
ag11
aS'"'
p47
aS'%'
p48
aS'd'
p49
ag6
ag48
aS's'
p50
ag20
ag48
aS'c'
p51
ag48
ag49
ag48
ag49
ag48
ag49
ag48
ag49
ag48
ag49
ag48
aS'u'
p52
ag48
aS'lu'
p53
aS'\\'
p54
ag54
aS'n'
p55
ag48
aS'lu'
p56
ag48
aS'lu'
p57
ag48
aS'lu'
p58
ag48
aS'lu'
p59
ag48
aS'lu'
p60
ag48
aS'ld'
p61
ag48
aS'ld'
p62
ag48
aS'ld'
p63
ag48
aS'ld'
p64
ag48
ag49
aS'0'
p65
ag48
aS'llu'
p66
ag48
aS'lu'
p67
ag48
aS'ld'
p68
ag48
aS'lu'
p69
ag48
aS'lu'
p70
ag48
aS'lu'
p71
ag48
aS'lu'
p72
ag48
aS'lu'
p73
ag54
ag54
ag55
ag48
aS'lu'
p74
ag48
aS'lu'
p75
ag48
aS'lu'
p76
ag48
aS'lu'
p77
ag48
aS'lu'
p78
ag48
aS'lu'
p79
ag48
aS'lu'
p80
ag48
aS'lu'
p81
ag48
ag49
ag48
ag49
ag48
ag52
ag48
ag52
ag48
aS'llu'
p82
ag48
aS'lu'
p83
ag48
aS'ld'
p84
ag54
ag55
ag47
ag11
aS'func_3'
p85
ag6
aS'variable_2'
p86
ag11
aS'variable_11'
p87
ag20
ag11
aS'variable_12'
p88
ag11
aS'variable_13'
p89
ag11
aS'variable_14'
p90
ag11
aS'variable_15'
p91
ag11
aS'variable_16'
p92
ag11
aS'variable_17'
p93
ag11
aS'variable_18'
p94
ag11
aS'variable_4'
p95
aS'->'
p96
aS'variable_19'
p97
ag11
aS'variable_20'
p98
ag11
aS'variable_21'
p99
ag11
aS'variable_22'
p100
ag11
aS'variable_23'
p101
ag11
aS'func_4'
p102
ag6
aS'variable_24'
p103
ag20
ag11
aS'func_5'
p104
ag6
aS'variable_25'
p105
ag20
ag11
aS'func_6'
p106
ag6
aS'variable_26'
p107
ag20
ag11
aS'func_7'
p108
ag6
aS'variable_27'
p109
ag20
ag11
aS'variable_28'
p110
ag11
aS'variable_29'
p111
ag11
aS'variable_30'
p112
ag11
aS'variable_6'
p113
ag11
aS'variable_31'
p114
ag11
aS'variable_32'
p115
aS'?'
p116
aS'func_8'
p117
ag6
aS'variable_32'
p118
ag20
aS':'
p119
ag65
ag11
aS'variable_33'
p120
ag11
aS'variable_32'
p121
ag116
ag6
aS'variable_34'
p122
ag116
aS'variable_32'
p123
aS'->'
p124
aS'variable_35'
p125
ag119
aS'1'
p126
ag20
ag119
ag65
ag11
aS'variable_32'
p127
ag116
ag6
aS'variable_34'
p128
ag116
aS'variable_32'
p129
aS'->'
p130
aS'variable_36'
p131
ag119
ag126
ag20
ag119
ag65
ag11
ag6
aS'variable_34'
p132
aS'&&'
p133
aS'variable_32'
p134
ag20
ag116
aS'variable_32'
p135
aS'->'
p136
aS'variable_37'
p137
ag119
ag65
ag11
aS'variable_38'
p138
ag11
aS'variable_39'
p139
ag11
aS'variable_4'
p140
aS'->'
p141
aS'variable_40'
p142
ag34
aS'variable_41'
p143
ag34
aS'variable_42'
p144
aS'['
p145
ag65
aS']'
p146
aS'&'
p147
aS'0x7fffffffUL'
p148
ag11
aS'variable_4'
p149
aS'->'
p150
aS'variable_43'
p151
ag34
aS'variable_42'
p152
ag145
ag65
ag146
ag147
aS'0x7fffffffUL'
p153
ag11
aS'variable_44'
p154
ag34
aS'variable_42'
p155
ag145
ag65
ag146
ag147
aS'0x7fffffffUL'
p156
ag11
aS'variable_45'
p157
ag34
aS'variable_42'
p158
ag145
ag65
ag146
ag147
aS'0x7fffffffUL'
p159
ag11
aS'variable_46'
p160
ag11
aS'0UL'
p161
ag11
aS'0UL'
p162
ag11
aS'variable_4'
p163
aS'->'
p164
aS'variable_47'
p165
ag11
aS'func_9'
p166
ag6
aS'variable_4'
p167
ag20
ag11
aS'variable_4'
p168
aS'->'
p169
aS'variable_48'
p170
ag11
aS'variable_4'
p171
aS'->'
p172
aS'variable_49'
p173
ag11
ag6
aS'unsigned'
p174
aS'long'
p175
aS'long'
p176
ag20
aS'func_10'
p177
ag6
aS'variable_4'
p178
ag20
ag11
aS'func_11'
p179
ag6
aS'variable_50'
p180
ag20
ag11
aS'func_12'
p181
ag6
aS'variable_51'
p182
ag20
ag20
ag25
aaa(lp183
I0
aa(lp184
I47
aa(lp185
(lp186
S'main'
p187
aaa(lp188
S'181 /home/SySeVR/data/CVE_2011_0726_PATCHED_do_task_stat.c start_time = ( unsigned long long ) task -> real_start_time . tv_sec * NSEC_PER_SEC + task -> real_start_time . tv_nsec 100'
p189
aa.