(lp0
(lp1
(lp2
S'func_0'
p3
aS'('
p4
aS'variable_0'
p5
aS'*'
p6
aS'variable_1'
p7
aS','
p8
aS'variable_2'
p9
ag6
aS'variable_3'
p10
ag8
aS'variable_4'
p11
ag6
aS'variable_5'
p12
aS')'
p13
aS'guint'
p14
aS'variable_6'
p15
ag8
aS'variable_7'
p16
aS';'
p17
aS'guint'
p18
aS'variable_8'
p19
ag17
aS'guint8'
p20
aS'variable_9'
p21
ag17
aS'guint8'
p22
aS'variable_10'
p23
ag17
aS'variable_11'
p24
ag6
aS'variable_12'
p25
ag17
aS'variable_8'
p26
aS'='
p27
aS'func_1'
p28
ag4
aS'variable_1'
p29
ag13
ag17
aS'variable_9'
p30
ag27
aS'func_2'
p31
ag4
aS'variable_1'
p32
ag8
aS'0'
p33
ag13
aS'>>'
p34
aS'4'
p35
ag17
aS'variable_10'
p36
ag27
aS'func_3'
p37
ag4
aS'variable_1'
p38
ag8
aS'9'
p39
ag13
ag17
aS'variable_6'
p40
ag27
ag4
aS'func_4'
p41
ag4
aS'variable_1'
p42
ag8
ag33
ag13
aS'&'
p43
aS'0x0f'
p44
ag13
ag6
ag35
ag17
aS'if'
p45
ag4
aS'variable_9'
p46
aS'!='
p47
ag35
ag13
aS'if'
p48
ag4
aS'variable_10'
p49
aS'!='
p50
aS'variable_13'
p51
ag13
aS'variable_12'
p52
ag27
aS'func_5'
p53
ag4
aS'variable_1'
p54
ag8
ag33
ag8
aS'variable_8'
p55
ag13
ag17
aS'variable_12'
p56
aS'['
p57
aS'2'
p58
aS']'
p59
ag27
aS'variable_8'
p60
aS'>>'
p61
aS'8'
p62
ag17
aS'variable_12'
p63
ag57
aS'3'
p64
ag59
ag27
aS'variable_8'
p65
ag17
aS'variable_12'
p66
ag57
aS'variable_6'
p67
aS'+'
p68
ag35
ag59
ag27
ag4
aS'variable_8'
p69
aS'-'
p70
aS'variable_6'
p71
ag13
aS'>>'
p72
ag62
ag17
aS'variable_12'
p73
ag57
aS'variable_6'
p74
ag68
aS'5'
p75
ag59
ag27
ag4
aS'variable_8'
p76
ag70
aS'variable_6'
p77
ag13
ag17
aS'variable_14'
p78
ag27
aS'func_6'
p79
ag4
aS'variable_1'
p80
ag8
aS'variable_12'
p81
ag8
aS'variable_8'
p82
ag8
aS'variable_8'
p83
ag13
ag17
aS'func_7'
p84
ag4
aS'variable_3'
p85
ag8
aS'variable_14'
p86
ag8
aS'"'
p87
aS'Decompressed'
p88
aS'Data'
p89
ag87
ag13
ag17
aS'func_8'
p90
ag4
aS'variable_14'
p91
ag8
aS'variable_15'
p92
ag13
ag17
aS'if'
p93
ag4
aS'!'
p94
aS'func_9'
p95
ag4
aS'variable_16'
p96
ag8
aS'variable_17'
p97
ag8
aS'variable_14'
p98
ag8
aS'variable_3'
p99
ag8
aS'variable_18'
p100
ag13
ag13
aS'func_10'
p101
ag4
aS'variable_19'
p102
ag8
aS'variable_14'
p103
ag8
aS'variable_3'
p104
ag8
aS'variable_18'
p105
ag13
ag17
aaa(lp106
I0
aa(lp107
I139
aa(lp108
(lp109
S'main'
p110
aaa(lp111
S'508 /home/SySeVR/data/CVE_2013_4076_PATCHED_dissect_iphc_crtp_fh.c ip_packet [ ip_hdr_len + 5 ] = ( length - ip_hdr_len ) 99'
p112
aa.