(lp0
(lp1
(lp2
S'variable_0'
p3
aS'*'
p4
aS'variable_1'
p5
aS')'
p6
aS'ipp_tag_t'
p7
aS'variable_2'
p8
aS';'
p9
aS'variable_3'
p10
ag4
aS'variable_4'
p11
ag9
aS'variable_3'
p12
ag4
aS'variable_5'
p13
ag9
aS'variable_3'
p14
ag4
aS'variable_6'
p15
ag9
aS'variable_3'
p16
ag4
aS'variable_7'
p17
ag9
aS'variable_1'
p18
aS'->'
p19
aS'variable_8'
p20
aS'='
p21
aS'func_0'
p22
aS'('
p23
ag6
ag9
aS'variable_1'
p24
aS'->'
p25
aS'variable_8'
p26
aS'->'
p27
aS'variable_9'
p28
aS'.'
p29
aS'variable_10'
p30
ag29
aS'variable_11'
p31
aS'['
p32
aS'0'
p33
aS']'
p34
ag21
aS'variable_1'
p35
aS'->'
p36
aS'variable_9'
p37
aS'->'
p38
aS'variable_9'
p39
ag29
aS'variable_12'
p40
ag29
aS'variable_11'
p41
ag32
ag33
ag34
ag9
aS'variable_1'
p42
aS'->'
p43
aS'variable_8'
p44
aS'->'
p45
aS'variable_9'
p46
ag29
aS'variable_10'
p47
ag29
aS'variable_11'
p48
ag32
aS'1'
p49
ag34
ag21
aS'variable_1'
p50
aS'->'
p51
aS'variable_9'
p52
aS'->'
p53
aS'variable_9'
p54
ag29
aS'variable_12'
p55
ag29
aS'variable_11'
p56
ag32
ag49
ag34
ag9
aS'variable_1'
p57
aS'->'
p58
aS'variable_8'
p59
aS'->'
p60
aS'variable_9'
p61
ag29
aS'variable_10'
p62
ag29
aS'variable_13'
p63
ag21
aS'variable_1'
p64
aS'->'
p65
aS'variable_9'
p66
aS'->'
p67
aS'variable_9'
p68
ag29
aS'variable_12'
p69
ag29
aS'variable_13'
p70
ag9
aS'if'
p71
ag23
aS'variable_1'
p72
aS'->'
p73
aS'variable_9'
p74
aS'->'
p75
aS'variable_9'
p76
ag29
aS'variable_14'
p77
ag29
aS'variable_11'
p78
ag32
ag33
ag34
aS'!='
p79
ag49
aS'&&'
p80
aS'variable_1'
p81
aS'->'
p82
aS'variable_9'
p83
aS'->'
p84
aS'variable_9'
p85
ag29
aS'variable_14'
p86
ag29
aS'variable_11'
p87
ag32
ag33
ag34
aS'!='
p88
aS'2'
p89
ag6
aS'if'
p90
ag23
aS'variable_1'
p91
aS'->'
p92
aS'variable_9'
p93
aS'->'
p94
aS'variable_9'
p95
ag29
aS'variable_14'
p96
ag29
aS'variable_13'
p97
aS'<'
p98
ag49
ag6
aS'if'
p99
ag23
aS'!'
p100
aS'variable_1'
p101
aS'->'
p102
aS'variable_9'
p103
aS'->'
p104
aS'variable_15'
p105
ag6
aS'for'
p106
ag23
aS'variable_4'
p107
ag21
aS'variable_1'
p108
aS'->'
p109
aS'variable_9'
p110
aS'->'
p111
aS'variable_15'
p112
aS','
p113
aS'variable_2'
p114
ag21
aS'variable_4'
p115
ag21
aS'variable_4'
p116
aS'->'
p117
aS'variable_16'
p118
ag6
aS'if'
p119
ag23
aS'variable_4'
p120
aS'->'
p121
aS'variable_17'
p122
ag98
aS'variable_2'
p123
aS'&&'
p124
aS'variable_4'
p125
aS'->'
p126
aS'variable_17'
p127
aS'!='
p128
aS'variable_18'
p129
ag6
aS'variable_2'
p130
ag21
aS'variable_4'
p131
aS'->'
p132
aS'variable_17'
p133
ag9
aS'if'
p134
ag23
ag100
aS'variable_4'
p135
ag6
aS'variable_4'
p136
ag21
aS'variable_1'
p137
aS'->'
p138
aS'variable_9'
p139
aS'->'
p140
aS'variable_15'
p141
ag9
aS'if'
p142
ag23
aS'variable_4'
p143
aS'&&'
p144
aS'variable_4'
p145
aS'->'
p146
aS'variable_19'
p147
aS'&&'
p148
ag100
aS'strcmp'
p149
ag23
aS'variable_4'
p150
aS'->'
p151
aS'variable_19'
p152
ag113
aS'"'
p153
aS'attributes'
p154
aS'-'
p155
aS'charset'
p156
ag153
ag6
aS'&&'
p157
ag23
aS'variable_4'
p158
aS'->'
p159
aS'variable_20'
p160
aS'&'
p161
aS'variable_21'
p162
ag6
aS'=='
p163
aS'variable_22'
p164
ag6
aS'variable_5'
p165
ag21
aS'variable_4'
p166
ag9
aS'variable_5'
p167
ag21
aS'NULL'
p168
ag9
aS'if'
p169
ag23
aS'variable_4'
p170
ag6
aS'variable_4'
p171
ag21
aS'variable_4'
p172
aS'->'
p173
aS'variable_16'
p174
ag9
aS'if'
p175
ag23
aS'variable_4'
p176
aS'&&'
p177
aS'variable_4'
p178
aS'->'
p179
aS'variable_19'
p180
aS'&&'
p181
ag100
aS'strcmp'
p182
ag23
aS'variable_4'
p183
aS'->'
p184
aS'variable_19'
p185
ag113
ag153
aS'attributes'
p186
ag155
aS'natural'
p187
ag155
aS'language'
p188
ag153
ag6
aS'&&'
p189
ag23
aS'variable_4'
p190
aS'->'
p191
aS'variable_20'
p192
ag161
aS'variable_21'
p193
ag6
aS'=='
p194
aS'variable_23'
p195
ag6
aS'variable_6'
p196
ag21
aS'variable_4'
p197
ag9
aS'if'
p198
ag23
ag100
aS'variable_1'
p199
aS'->'
p200
aS'variable_6'
p201
aS'||'
p202
aS'strcmp'
p203
ag23
aS'variable_4'
p204
aS'->'
p205
aS'variable_24'
p206
ag32
ag33
ag34
ag29
aS'variable_25'
p207
ag29
aS'variable_26'
p208
ag113
aS'variable_1'
p209
aS'->'
p210
aS'variable_6'
p211
aS'->'
p212
aS'variable_6'
p213
ag6
ag6
aS'variable_1'
p214
aS'->'
p215
aS'variable_6'
p216
ag21
aS'func_1'
p217
ag23
aS'variable_4'
p218
aS'->'
p219
aS'variable_24'
p220
ag32
ag33
ag34
ag29
aS'variable_25'
p221
ag29
aS'variable_26'
p222
ag6
ag9
aS'variable_6'
p223
ag21
aS'NULL'
p224
ag9
aS'if'
p225
ag23
ag23
aS'variable_4'
p226
ag21
aS'func_2'
p227
ag23
aS'variable_1'
p228
aS'->'
p229
aS'variable_9'
p230
ag113
ag153
aS'printer'
p231
ag155
aS'uri'
p232
ag153
ag113
aS'variable_27'
p233
ag6
ag6
aS'!='
p234
aS'NULL'
p235
ag6
aS'variable_28'
p236
ag21
aS'variable_4'
p237
ag9
aS'if'
p238
ag23
ag23
aS'variable_4'
p239
ag21
aS'func_3'
p240
ag23
aS'variable_1'
p241
aS'->'
p242
aS'variable_9'
p243
ag113
ag153
aS'job'
p244
ag155
aS'uri'
p245
ag153
ag113
aS'variable_27'
p246
ag6
ag6
aS'!='
p247
aS'NULL'
p248
ag6
aS'variable_28'
p249
ag21
aS'variable_4'
p250
ag9
aS'if'
p251
ag23
aS'variable_1'
p252
aS'->'
p253
aS'variable_9'
p254
aS'->'
p255
aS'variable_9'
p256
ag29
aS'variable_12'
p257
ag29
aS'variable_29'
p258
aS'=='
p259
aS'variable_30'
p260
ag6
aS'variable_28'
p261
ag21
aS'func_4'
p262
ag23
aS'variable_1'
p263
aS'->'
p264
aS'variable_9'
p265
ag113
ag153
aS'ppd'
p266
ag155
aS'name'
p267
ag153
ag113
aS'variable_31'
p268
ag6
ag9
aS'variable_28'
p269
ag21
aS'NULL'
p270
ag9
aS'if'
p271
ag23
aS'variable_5'
p272
aS'&&'
p273
aS'func_5'
p274
ag23
aS'variable_5'
p275
aS'->'
p276
aS'variable_24'
p277
ag32
ag33
ag34
ag29
aS'variable_25'
p278
ag29
aS'variable_26'
p279
ag113
ag153
aS'us'
p280
ag155
aS'ascii'
p281
ag153
ag6
aS'&&'
p282
aS'func_6'
p283
ag23
aS'variable_5'
p284
aS'->'
p285
aS'variable_24'
p286
ag32
ag33
ag34
ag29
aS'variable_25'
p287
ag29
aS'variable_26'
p288
ag113
ag153
aS'utf'
p289
ag155
aS'8'
p290
ag153
ag6
ag6
aS'if'
p291
ag23
ag100
aS'variable_5'
p292
aS'||'
p293
ag100
aS'variable_6'
p294
aS'||'
p295
ag23
ag100
aS'variable_28'
p296
aS'&&'
p297
aS'variable_1'
p298
aS'->'
p299
aS'variable_9'
p300
aS'->'
p301
aS'variable_9'
p302
ag29
aS'variable_12'
p303
ag29
aS'variable_29'
p304
aS'!='
p305
aS'variable_32'
p306
aS'&&'
p307
aS'variable_1'
p308
aS'->'
p309
aS'variable_9'
p310
aS'->'
p311
aS'variable_9'
p312
ag29
aS'variable_12'
p313
ag29
aS'variable_29'
p314
aS'!='
p315
aS'variable_33'
p316
aS'&&'
p317
aS'variable_1'
p318
aS'->'
p319
aS'variable_9'
p320
aS'->'
p321
aS'variable_9'
p322
ag29
aS'variable_12'
p323
ag29
aS'variable_29'
p324
aS'!='
p325
aS'variable_34'
p326
aS'&&'
p327
aS'variable_1'
p328
aS'->'
p329
aS'variable_9'
p330
aS'->'
p331
aS'variable_9'
p332
ag29
aS'variable_12'
p333
ag29
aS'variable_29'
p334
aS'!='
p335
aS'variable_35'
p336
aS'&&'
p337
aS'variable_1'
p338
aS'->'
p339
aS'variable_9'
p340
aS'->'
p341
aS'variable_9'
p342
ag29
aS'variable_12'
p343
ag29
aS'variable_29'
p344
aS'!='
p345
aS'variable_36'
p346
ag6
ag6
aS'if'
p347
ag23
ag23
aS'variable_7'
p348
ag21
aS'func_7'
p349
ag23
aS'variable_1'
p350
aS'->'
p351
aS'variable_9'
p352
ag113
ag153
aS'requesting'
p353
ag155
aS'user'
p354
ag155
aS'name'
p355
ag153
ag113
aS'variable_31'
p356
ag6
ag6
aS'!='
p357
aS'NULL'
p358
ag6
aS'if'
p359
ag23
ag100
aS'strcmp'
p360
ag23
aS'variable_7'
p361
aS'->'
p362
aS'variable_24'
p363
ag32
ag33
ag34
ag29
aS'variable_25'
p364
ag29
aS'variable_26'
p365
ag113
ag153
aS'root'
p366
ag153
ag6
aS'&&'
p367
aS'func_8'
p368
ag23
aS'variable_1'
p369
aS'->'
p370
aS'variable_37'
p371
aS'->'
p372
aS'variable_38'
p373
ag113
ag153
aS'localhost'
p374
ag153
ag6
aS'&&'
p375
aS'strcmp'
p376
ag23
aS'variable_1'
p377
aS'->'
p378
aS'variable_7'
p379
ag113
ag153
aS'root'
p380
ag153
ag6
ag6
aa(lp381
S'variable_0'
p382
ag4
aS'variable_1'
p383
ag6
aS'ipp_tag_t'
p384
aS'variable_2'
p385
ag9
aS'variable_3'
p386
ag4
aS'variable_4'
p387
ag9
aS'variable_1'
p388
aS'->'
p389
aS'variable_5'
p390
ag21
aS'func_0'
p391
ag23
ag6
ag9
aS'variable_1'
p392
aS'->'
p393
aS'variable_5'
p394
aS'->'
p395
aS'variable_6'
p396
ag29
aS'variable_7'
p397
ag29
aS'variable_8'
p398
ag32
ag33
ag34
ag21
aS'variable_1'
p399
aS'->'
p400
aS'variable_6'
p401
aS'->'
p402
aS'variable_6'
p403
ag29
aS'variable_9'
p404
ag29
aS'variable_8'
p405
ag32
ag33
ag34
ag9
aS'variable_1'
p406
aS'->'
p407
aS'variable_5'
p408
aS'->'
p409
aS'variable_6'
p410
ag29
aS'variable_7'
p411
ag29
aS'variable_8'
p412
ag32
ag49
ag34
ag21
aS'variable_1'
p413
aS'->'
p414
aS'variable_6'
p415
aS'->'
p416
aS'variable_6'
p417
ag29
aS'variable_9'
p418
ag29
aS'variable_8'
p419
ag32
ag49
ag34
ag9
aS'variable_1'
p420
aS'->'
p421
aS'variable_5'
p422
aS'->'
p423
aS'variable_6'
p424
ag29
aS'variable_7'
p425
ag29
aS'variable_10'
p426
ag21
aS'variable_1'
p427
aS'->'
p428
aS'variable_6'
p429
aS'->'
p430
aS'variable_6'
p431
ag29
aS'variable_9'
p432
ag29
aS'variable_10'
p433
ag9
aS'if'
p434
ag23
aS'variable_1'
p435
aS'->'
p436
aS'variable_6'
p437
aS'->'
p438
aS'variable_6'
p439
ag29
aS'variable_11'
p440
ag29
aS'variable_8'
p441
ag32
ag33
ag34
aS'!='
p442
ag49
aS'&&'
p443
aS'variable_1'
p444
aS'->'
p445
aS'variable_6'
p446
aS'->'
p447
aS'variable_6'
p448
ag29
aS'variable_11'
p449
ag29
aS'variable_8'
p450
ag32
ag33
ag34
aS'!='
p451
ag89
ag6
aS'if'
p452
ag23
aS'variable_1'
p453
aS'->'
p454
aS'variable_6'
p455
aS'->'
p456
aS'variable_6'
p457
ag29
aS'variable_11'
p458
ag29
aS'variable_10'
p459
ag98
ag49
ag6
aS'if'
p460
ag23
ag100
aS'variable_1'
p461
aS'->'
p462
aS'variable_6'
p463
aS'->'
p464
aS'variable_12'
p465
ag6
aS'for'
p466
ag23
aS'variable_4'
p467
ag21
aS'variable_1'
p468
aS'->'
p469
aS'variable_6'
p470
aS'->'
p471
aS'variable_12'
p472
ag113
aS'variable_2'
p473
ag21
aS'variable_4'
p474
ag21
aS'variable_4'
p475
aS'->'
p476
aS'variable_13'
p477
ag6
aS'if'
p478
ag23
aS'variable_4'
p479
aS'->'
p480
aS'variable_14'
p481
ag98
aS'variable_2'
p482
aS'&&'
p483
aS'variable_4'
p484
aS'->'
p485
aS'variable_14'
p486
aS'!='
p487
aS'variable_15'
p488
ag6
aS'variable_2'
p489
ag21
aS'variable_4'
p490
aS'->'
p491
aS'variable_14'
p492
ag9
aS'if'
p493
ag23
ag100
aS'variable_4'
p494
ag6
aS'variable_4'
p495
ag21
aS'variable_1'
p496
aS'->'
p497
aS'variable_6'
p498
aS'->'
p499
aS'variable_12'
p500
ag9
aS'if'
p501
ag23
aS'variable_4'
p502
ag6
aS'variable_4'
p503
ag21
aS'variable_4'
p504
aS'->'
p505
aS'variable_13'
p506
ag9
aS'if'
p507
ag23
aS'variable_4'
p508
aS'&&'
p509
aS'variable_4'
p510
aS'->'
p511
aS'variable_16'
p512
aS'&&'
p513
ag100
aS'strcmp'
p514
ag23
aS'variable_4'
p515
aS'->'
p516
aS'variable_16'
p517
ag113
ag153
aS'attributes'
p518
ag155
aS'natural'
p519
ag155
aS'language'
p520
ag153
ag6
aS'&&'
p521
ag23
aS'variable_4'
p522
aS'->'
p523
aS'variable_17'
p524
ag161
aS'variable_18'
p525
ag6
aS'=='
p526
aS'variable_19'
p527
ag6
aS'if'
p528
ag23
ag100
aS'variable_1'
p529
aS'->'
p530
aS'variable_20'
p531
aS'||'
p532
aS'strcmp'
p533
ag23
aS'variable_4'
p534
aS'->'
p535
aS'variable_21'
p536
ag32
ag33
ag34
ag29
aS'variable_22'
p537
ag29
aS'variable_23'
p538
ag113
aS'variable_1'
p539
aS'->'
p540
aS'variable_20'
p541
aS'->'
p542
aS'variable_20'
p543
ag6
ag6
aa(lp544
S'variable_0'
p545
ag4
aS'variable_1'
p546
ag6
aS'ipp_tag_t'
p547
aS'variable_2'
p548
ag9
aS'variable_3'
p549
ag4
aS'variable_4'
p550
ag9
aS'variable_1'
p551
aS'->'
p552
aS'variable_5'
p553
ag21
aS'func_0'
p554
ag23
ag6
ag9
aS'variable_1'
p555
aS'->'
p556
aS'variable_5'
p557
aS'->'
p558
aS'variable_6'
p559
ag29
aS'variable_7'
p560
ag29
aS'variable_8'
p561
ag32
ag33
ag34
ag21
aS'variable_1'
p562
aS'->'
p563
aS'variable_6'
p564
aS'->'
p565
aS'variable_6'
p566
ag29
aS'variable_9'
p567
ag29
aS'variable_8'
p568
ag32
ag33
ag34
ag9
aS'variable_1'
p569
aS'->'
p570
aS'variable_5'
p571
aS'->'
p572
aS'variable_6'
p573
ag29
aS'variable_7'
p574
ag29
aS'variable_8'
p575
ag32
ag49
ag34
ag21
aS'variable_1'
p576
aS'->'
p577
aS'variable_6'
p578
aS'->'
p579
aS'variable_6'
p580
ag29
aS'variable_9'
p581
ag29
aS'variable_8'
p582
ag32
ag49
ag34
ag9
aS'variable_1'
p583
aS'->'
p584
aS'variable_5'
p585
aS'->'
p586
aS'variable_6'
p587
ag29
aS'variable_7'
p588
ag29
aS'variable_10'
p589
ag21
aS'variable_1'
p590
aS'->'
p591
aS'variable_6'
p592
aS'->'
p593
aS'variable_6'
p594
ag29
aS'variable_9'
p595
ag29
aS'variable_10'
p596
ag9
aS'if'
p597
ag23
aS'variable_1'
p598
aS'->'
p599
aS'variable_6'
p600
aS'->'
p601
aS'variable_6'
p602
ag29
aS'variable_11'
p603
ag29
aS'variable_8'
p604
ag32
ag33
ag34
aS'!='
p605
ag49
aS'&&'
p606
aS'variable_1'
p607
aS'->'
p608
aS'variable_6'
p609
aS'->'
p610
aS'variable_6'
p611
ag29
aS'variable_11'
p612
ag29
aS'variable_8'
p613
ag32
ag33
ag34
aS'!='
p614
ag89
ag6
aS'if'
p615
ag23
aS'variable_1'
p616
aS'->'
p617
aS'variable_6'
p618
aS'->'
p619
aS'variable_6'
p620
ag29
aS'variable_11'
p621
ag29
aS'variable_10'
p622
ag98
ag49
ag6
aS'if'
p623
ag23
ag100
aS'variable_1'
p624
aS'->'
p625
aS'variable_6'
p626
aS'->'
p627
aS'variable_12'
p628
ag6
aS'for'
p629
ag23
aS'variable_4'
p630
ag21
aS'variable_1'
p631
aS'->'
p632
aS'variable_6'
p633
aS'->'
p634
aS'variable_12'
p635
ag113
aS'variable_2'
p636
ag21
aS'variable_4'
p637
ag21
aS'variable_4'
p638
aS'->'
p639
aS'variable_13'
p640
ag6
aS'if'
p641
ag23
aS'variable_4'
p642
aS'->'
p643
aS'variable_14'
p644
ag98
aS'variable_2'
p645
aS'&&'
p646
aS'variable_4'
p647
aS'->'
p648
aS'variable_14'
p649
aS'!='
p650
aS'variable_15'
p651
ag6
aS'variable_2'
p652
ag21
aS'variable_4'
p653
aS'->'
p654
aS'variable_14'
p655
ag9
aS'if'
p656
ag23
ag100
aS'variable_4'
p657
ag6
aS'variable_4'
p658
ag21
aS'variable_1'
p659
aS'->'
p660
aS'variable_6'
p661
aS'->'
p662
aS'variable_12'
p663
ag9
aS'if'
p664
ag23
aS'variable_4'
p665
ag6
aS'variable_4'
p666
ag21
aS'variable_4'
p667
aS'->'
p668
aS'variable_13'
p669
ag9
aS'if'
p670
ag23
aS'variable_4'
p671
aS'&&'
p672
aS'variable_4'
p673
aS'->'
p674
aS'variable_16'
p675
aS'&&'
p676
ag100
aS'strcmp'
p677
ag23
aS'variable_4'
p678
aS'->'
p679
aS'variable_16'
p680
ag113
ag153
aS'attributes'
p681
ag155
aS'natural'
p682
ag155
aS'language'
p683
ag153
ag6
aS'&&'
p684
ag23
aS'variable_4'
p685
aS'->'
p686
aS'variable_17'
p687
ag161
aS'variable_18'
p688
ag6
aS'=='
p689
aS'variable_19'
p690
ag6
aa(lp691
S'variable_0'
p692
ag4
aS'variable_1'
p693
ag6
aS'ipp_tag_t'
p694
aS'variable_2'
p695
ag9
aS'variable_3'
p696
ag4
aS'variable_4'
p697
ag9
aS'variable_1'
p698
aS'->'
p699
aS'variable_5'
p700
ag21
aS'func_0'
p701
ag23
ag6
ag9
aS'variable_1'
p702
aS'->'
p703
aS'variable_5'
p704
aS'->'
p705
aS'variable_6'
p706
ag29
aS'variable_7'
p707
ag29
aS'variable_8'
p708
ag32
ag33
ag34
ag21
aS'variable_1'
p709
aS'->'
p710
aS'variable_6'
p711
aS'->'
p712
aS'variable_6'
p713
ag29
aS'variable_9'
p714
ag29
aS'variable_8'
p715
ag32
ag33
ag34
ag9
aS'variable_1'
p716
aS'->'
p717
aS'variable_5'
p718
aS'->'
p719
aS'variable_6'
p720
ag29
aS'variable_7'
p721
ag29
aS'variable_8'
p722
ag32
ag49
ag34
ag21
aS'variable_1'
p723
aS'->'
p724
aS'variable_6'
p725
aS'->'
p726
aS'variable_6'
p727
ag29
aS'variable_9'
p728
ag29
aS'variable_8'
p729
ag32
ag49
ag34
ag9
aS'variable_1'
p730
aS'->'
p731
aS'variable_5'
p732
aS'->'
p733
aS'variable_6'
p734
ag29
aS'variable_7'
p735
ag29
aS'variable_10'
p736
ag21
aS'variable_1'
p737
aS'->'
p738
aS'variable_6'
p739
aS'->'
p740
aS'variable_6'
p741
ag29
aS'variable_9'
p742
ag29
aS'variable_10'
p743
ag9
aS'if'
p744
ag23
aS'variable_1'
p745
aS'->'
p746
aS'variable_6'
p747
aS'->'
p748
aS'variable_6'
p749
ag29
aS'variable_11'
p750
ag29
aS'variable_8'
p751
ag32
ag33
ag34
aS'!='
p752
ag49
aS'&&'
p753
aS'variable_1'
p754
aS'->'
p755
aS'variable_6'
p756
aS'->'
p757
aS'variable_6'
p758
ag29
aS'variable_11'
p759
ag29
aS'variable_8'
p760
ag32
ag33
ag34
aS'!='
p761
ag89
ag6
aS'if'
p762
ag23
aS'variable_1'
p763
aS'->'
p764
aS'variable_6'
p765
aS'->'
p766
aS'variable_6'
p767
ag29
aS'variable_11'
p768
ag29
aS'variable_10'
p769
ag98
ag49
ag6
aS'if'
p770
ag23
ag100
aS'variable_1'
p771
aS'->'
p772
aS'variable_6'
p773
aS'->'
p774
aS'variable_12'
p775
ag6
aS'for'
p776
ag23
aS'variable_4'
p777
ag21
aS'variable_1'
p778
aS'->'
p779
aS'variable_6'
p780
aS'->'
p781
aS'variable_12'
p782
ag113
aS'variable_2'
p783
ag21
aS'variable_4'
p784
ag21
aS'variable_4'
p785
aS'->'
p786
aS'variable_13'
p787
ag6
aS'if'
p788
ag23
aS'variable_4'
p789
aS'->'
p790
aS'variable_14'
p791
ag98
aS'variable_2'
p792
aS'&&'
p793
aS'variable_4'
p794
aS'->'
p795
aS'variable_14'
p796
aS'!='
p797
aS'variable_15'
p798
ag6
aS'variable_2'
p799
ag21
aS'variable_4'
p800
aS'->'
p801
aS'variable_14'
p802
ag9
aS'if'
p803
ag23
ag100
aS'variable_4'
p804
ag6
aS'variable_4'
p805
ag21
aS'variable_1'
p806
aS'->'
p807
aS'variable_6'
p808
aS'->'
p809
aS'variable_12'
p810
ag9
aS'if'
p811
ag23
aS'variable_4'
p812
aS'&&'
p813
aS'variable_4'
p814
aS'->'
p815
aS'variable_16'
p816
aS'&&'
p817
ag100
aS'strcmp'
p818
ag23
aS'variable_4'
p819
aS'->'
p820
aS'variable_16'
p821
ag113
ag153
aS'attributes'
p822
ag155
aS'charset'
p823
ag153
ag6
aS'&&'
p824
ag23
aS'variable_4'
p825
aS'->'
p826
aS'variable_17'
p827
ag161
aS'variable_18'
p828
ag6
aS'=='
p829
aS'variable_19'
p830
ag6
aaa(lp831
I0
aI0
aI0
aI0
aa(lp832
I580
aI248
aI216
aI206
aa(lp833
(lp834
S'main'
p835
aa(lp836
g835
aa(lp837
g835
aa(lp838
g835
aaa(lp839
S'799 /home/SySeVR/data/CVE_2015_1158_VULN_cupsdProcessIPPRequest.c strcmp 263'
p840
aS'801 /home/SySeVR/data/CVE_2015_1158_VULN_cupsdProcessIPPRequest.c strcmp 136'
p841
aS'802 /home/SySeVR/data/CVE_2015_1158_VULN_cupsdProcessIPPRequest.c strcmp 126'
p842
aS'803 /home/SySeVR/data/CVE_2015_1158_VULN_cupsdProcessIPPRequest.c strcmp 116'
p843
aa.