(lp0
(lp1
(lp2
S'int'
p3
aS'func_0'
p4
aS'('
p5
aS'struct'
p6
aS'iovec'
p7
aS'const'
p8
aS'*'
p9
aS'variable_0'
p10
aS','
p11
aS'int'
p12
aS'variable_1'
p13
ag11
aS'int'
p14
aS'variable_2'
p15
ag11
aS'struct'
p16
aS'variable_3'
p17
ag9
ag9
aS'variable_4'
p18
aS')'
p19
aS'int'
p20
aS'variable_5'
p21
ag11
aS'variable_6'
p22
ag11
aS'variable_7'
p23
ag11
aS'variable_8'
p24
ag11
aS'variable_9'
p25
ag11
aS'variable_10'
p26
aS';'
p27
aS'variable_5'
p28
aS'='
p29
aS'func_1'
p30
ag5
aS'variable_0'
p31
ag11
aS'variable_11'
p32
ag19
ag27
aS'if'
p33
ag5
aS'func_2'
p34
ag5
aS'variable_5'
p35
aS'>'
p36
aS'variable_12'
p37
ag19
ag19
aS'variable_8'
p38
ag29
aS'variable_7'
p39
ag29
aS'func_3'
p40
ag5
aS'variable_13'
p41
ag19
ag27
aS'variable_6'
p42
ag29
aS'variable_7'
p43
aS'+'
p44
aS'variable_5'
p45
ag27
aS'if'
p46
ag5
aS'func_4'
p47
ag5
aS'variable_6'
p48
ag36
aS'variable_1'
p49
ag19
ag19
ag9
aS'variable_4'
p50
ag29
aS'func_5'
p51
ag5
aS'variable_6'
p52
ag19
ag27
aS'if'
p53
ag5
aS'!'
p54
ag5
ag9
aS'variable_4'
p55
ag19
ag19
aS'for'
p56
ag5
aS'variable_9'
p57
ag29
aS'1'
p58
ag11
aS'variable_10'
p59
ag29
aS'0'
p60
ag27
aS'variable_9'
p61
aS'&&'
p62
ag5
aS'variable_10'
p63
aS'<'
p64
aS'variable_11'
p65
ag19
ag27
aS'variable_10'
p66
aS'++'
p67
ag19
aS'if'
p68
ag5
aS'func_6'
p69
ag5
aS'variable_2'
p70
ag19
ag19
aS'variable_9'
p71
ag29
ag54
aS'func_7'
p72
ag5
ag5
ag9
aS'variable_4'
p73
ag19
aS'->'
p74
aS'variable_14'
p75
ag44
aS'variable_8'
p76
ag11
aS'variable_0'
p77
aS'['
p78
aS'variable_10'
p79
aS']'
p80
aS'.'
p81
aS'variable_15'
p82
ag11
aS'variable_0'
p83
ag78
aS'variable_10'
p84
ag80
ag81
aS'variable_16'
p85
ag19
ag27
aS'variable_8'
p86
aS'+='
p87
aS'variable_0'
p88
ag78
aS'variable_10'
p89
ag80
ag81
aS'variable_16'
p90
ag27
aS'if'
p91
ag5
aS'func_8'
p92
ag5
aS'variable_9'
p93
ag19
ag19
aa(lp94
S'int'
p95
aS'func_0'
p96
ag5
aS'struct'
p97
aS'iovec'
p98
aS'const'
p99
ag9
aS'variable_0'
p100
ag11
aS'int'
p101
aS'variable_1'
p102
ag11
aS'int'
p103
aS'variable_2'
p104
ag11
aS'struct'
p105
aS'variable_3'
p106
ag9
ag9
aS'variable_4'
p107
ag19
aS'int'
p108
aS'variable_5'
p109
ag11
aS'variable_6'
p110
ag11
aS'variable_7'
p111
ag11
aS'variable_8'
p112
ag11
aS'variable_9'
p113
ag11
aS'variable_10'
p114
ag27
aS'variable_5'
p115
ag29
aS'func_1'
p116
ag5
aS'variable_0'
p117
ag11
aS'variable_11'
p118
ag19
ag27
aS'if'
p119
ag5
aS'func_2'
p120
ag5
aS'variable_5'
p121
ag36
aS'variable_12'
p122
ag19
ag19
aS'variable_8'
p123
ag29
aS'variable_7'
p124
ag29
aS'func_3'
p125
ag5
aS'variable_13'
p126
ag19
ag27
aS'variable_6'
p127
ag29
aS'variable_7'
p128
ag44
aS'variable_5'
p129
ag27
aS'func_4'
p130
ag5
aS'variable_13'
p131
ag11
aS'variable_6'
p132
ag19
ag27
aS'if'
p133
ag5
aS'func_5'
p134
ag5
aS'variable_6'
p135
ag36
aS'variable_1'
p136
ag19
ag19
ag9
aS'variable_4'
p137
ag29
aS'func_6'
p138
ag5
aS'variable_6'
p139
ag19
ag27
aS'if'
p140
ag5
ag54
ag5
ag9
aS'variable_4'
p141
ag19
ag19
aS'func_7'
p142
ag5
ag9
aS'variable_4'
p143
ag11
aS'variable_13'
p144
ag11
aS'variable_7'
p145
ag19
ag27
aS'for'
p146
ag5
aS'variable_9'
p147
ag29
ag58
ag11
aS'variable_10'
p148
ag29
ag60
ag27
aS'variable_9'
p149
aS'&&'
p150
ag5
aS'variable_10'
p151
ag64
aS'variable_11'
p152
ag19
ag27
aS'variable_10'
p153
aS'++'
p154
ag19
aS'variable_9'
p155
ag29
ag54
aS'func_8'
p156
ag5
ag5
ag9
aS'variable_4'
p157
ag19
aS'->'
p158
aS'variable_14'
p159
ag44
aS'variable_8'
p160
ag11
aS'variable_0'
p161
ag78
aS'variable_10'
p162
ag80
ag81
aS'variable_15'
p163
ag11
aS'variable_0'
p164
ag78
aS'variable_10'
p165
ag80
ag81
aS'variable_16'
p166
ag19
ag27
aS'func_9'
p167
ag5
ag9
aS'variable_4'
p168
ag11
aS'variable_8'
p169
ag11
aS'variable_0'
p170
ag78
aS'variable_10'
p171
ag80
ag81
aS'variable_15'
p172
ag11
aS'variable_0'
p173
ag78
aS'variable_10'
p174
ag80
ag81
aS'variable_16'
p175
ag19
ag27
aS'if'
p176
ag5
aS'func_10'
p177
ag5
aS'variable_9'
p178
ag19
ag19
aS'func_11'
p179
ag5
ag9
aS'variable_4'
p180
ag19
ag27
ag9
aS'variable_4'
p181
ag29
aS'NULL'
p182
ag27
aaa(lp183
I0
aI0
aa(lp184
I129
aI66
aa(lp185
(lp186
S'main'
p187
aa(lp188
g187
aaa(lp189
S'157 /home/SySeVR/data/CVE_2010_3859_VULN_tipc_msg_build.c res = ! copy_from_user ( ( * buf ) -> data + pos , msg_sect [ cnt ] . iov_base , msg_sect [ cnt ] . iov_len ) 27'
p190
aS'158 /home/SySeVR/data/CVE_2010_3859_VULN_tipc_msg_build.c sz = hsz + dsz 14'
p191
aa.