(lp0
(lp1
(lp2
S'func_0'
p3
aS'('
p4
aS'variable_0'
p5
aS'*'
p6
aS'variable_1'
p7
aS','
p8
aS'unsigned'
p9
aS'char'
p10
ag6
aS'variable_2'
p11
ag8
aS'unsigned'
p12
aS'variable_3'
p13
aS')'
p14
aS'int'
p15
aS'variable_4'
p16
aS';'
p17
aS'unsigned'
p18
aS'variable_5'
p19
ag17
aS'unsigned'
p20
aS'variable_6'
p21
ag17
aS'unsigned'
p22
aS'char'
p23
ag6
aS'variable_7'
p24
ag8
aS'variable_8'
p25
ag8
ag6
aS'variable_9'
p26
ag17
aS'int'
p27
aS'variable_10'
p28
ag17
aS'if'
p29
ag4
aS'variable_1'
p30
aS'=='
p31
aS'NULL'
p32
aS'||'
p33
aS'variable_1'
p34
aS'->'
p35
aS'variable_11'
p36
aS'!='
p37
aS'variable_12'
p38
aS'||'
p39
aS'variable_1'
p40
aS'->'
p41
aS'variable_6'
p42
aS'=='
p43
aS'0'
p44
ag14
aS'if'
p45
ag4
aS'!'
p46
aS'variable_1'
p47
aS'->'
p48
aS'variable_13'
p49
ag14
aS'variable_6'
p50
aS'='
p51
aS'variable_3'
p52
ag17
aS'variable_5'
p53
ag51
aS'variable_1'
p54
aS'->'
p55
aS'variable_14'
p56
aS'.'
p57
aS'variable_5'
p58
ag17
aS'while'
p59
ag4
aS'variable_6'
p60
aS'>'
p61
ag44
aS'&&'
p62
aS'variable_1'
p63
aS'->'
p64
aS'variable_6'
p65
ag61
ag44
ag14
aS'if'
p66
ag4
aS'variable_1'
p67
aS'->'
p68
aS'variable_10'
p69
aS'=='
p70
ag44
ag14
aS'if'
p71
ag4
aS'variable_6'
p72
aS'=='
p73
aS'variable_5'
p74
ag14
aS'variable_7'
p75
ag51
aS'variable_2'
p76
ag17
aS'variable_7'
p77
ag51
aS'variable_1'
p78
aS'->'
p79
aS'variable_15'
p80
ag17
aS'if'
p81
ag4
ag46
aS'func_1'
p82
ag4
aS'variable_1'
p83
ag8
aS'&'
p84
aS'variable_8'
p85
ag8
aS'1'
p86
ag14
ag14
aS'variable_1'
p87
aS'->'
p88
aS'variable_10'
p89
ag51
aS'variable_8'
p90
aS'+'
p91
ag86
ag17
aS'if'
p92
ag4
aS'variable_1'
p93
aS'->'
p94
aS'variable_10'
p95
ag61
ag86
ag14
aS'variable_7'
p96
ag51
aS'variable_1'
p97
aS'->'
p98
aS'variable_15'
p99
ag17
aS'variable_9'
p100
ag51
aS'variable_7'
p101
ag17
aS'variable_4'
p102
ag51
aS'variable_5'
p103
ag17
aS'while'
p104
ag4
aS'variable_4'
p105
ag61
ag44
ag14
aS'if'
p106
ag4
ag46
aS'func_2'
p107
ag4
aS'variable_1'
p108
ag8
ag84
aS'variable_8'
p109
ag8
ag86
ag14
ag14
aS'if'
p110
ag4
aS'variable_8'
p111
ag84
aS'128'
p112
ag14
aS'variable_10'
p113
ag51
ag4
aS'257'
p114
aS'-'
p115
aS'variable_8'
p116
ag14
ag6
aS'variable_1'
p117
aS'->'
p118
aS'variable_16'
p119
ag17
aS'if'
p120
ag4
aS'variable_10'
p121
ag61
aS'variable_4'
p122
ag14
aS'variable_10'
p123
ag51
aS'variable_4'
p124
ag17
aS'if'
p125
ag4
ag46
aS'func_3'
p126
ag4
aS'variable_1'
p127
ag8
aS'variable_9'
p128
ag8
aS'variable_10'
p129
ag14
ag14
aS'variable_9'
p130
aS'+='
p131
aS'variable_10'
p132
ag17
aS'variable_4'
p133
aS'-='
p134
aS'variable_10'
p135
ag17
aS'variable_10'
p136
ag51
ag4
aS'variable_8'
p137
ag91
ag86
ag14
ag6
aS'variable_1'
p138
aS'->'
p139
aS'variable_16'
p140
ag17
aS'if'
p141
ag4
aS'variable_10'
p142
ag61
aS'variable_4'
p143
ag14
aS'variable_10'
p144
ag51
aS'variable_4'
p145
ag17
aS'if'
p146
ag4
aS'variable_10'
p147
aS'<'
p148
aS'variable_1'
p149
aS'->'
p150
aS'variable_16'
p151
ag14
aS'variable_4'
p152
aS'-='
p153
aS'variable_10'
p154
ag17
aS'if'
p155
ag4
ag46
aS'func_4'
p156
ag4
aS'variable_1'
p157
ag8
aS'variable_9'
p158
ag8
aS'variable_1'
p159
aS'->'
p160
aS'variable_16'
p161
ag14
ag14
aS'variable_9'
p162
aS'+='
p163
aS'variable_1'
p164
aS'->'
p165
aS'variable_16'
p166
ag17
aS'variable_10'
p167
aS'-='
p168
aS'variable_1'
p169
aS'->'
p170
aS'variable_16'
p171
ag17
aS'while'
p172
ag4
aS'variable_10'
p173
ag61
ag44
ag14
ag6
aS'variable_9'
p174
ag51
ag6
ag4
aS'variable_9'
p175
ag115
aS'variable_1'
p176
aS'->'
p177
aS'variable_16'
p178
ag14
ag17
aS'variable_9'
p179
aS'+='
p180
ag86
ag17
aS'variable_10'
p181
aS'-='
p182
ag86
ag17
aS'func_5'
p183
ag4
aS'variable_7'
p184
ag8
aS'variable_4'
p185
ag14
ag17
aS'if'
p186
ag4
aS'variable_6'
p187
ag61
ag51
aS'variable_5'
p188
ag14
aS'variable_4'
p189
ag51
aS'variable_5'
p190
ag17
aS'variable_1'
p191
aS'->'
p192
aS'variable_17'
p193
ag51
aS'variable_1'
p194
aS'->'
p195
aS'variable_15'
p196
ag17
aS'variable_1'
p197
aS'->'
p198
aS'variable_10'
p199
aS'--'
p200
ag17
aS'variable_1'
p201
aS'->'
p202
aS'variable_6'
p203
aS'--'
p204
ag17
aS'variable_4'
p205
ag51
aS'variable_6'
p206
ag17
aS'variable_1'
p207
aS'->'
p208
aS'variable_17'
p209
ag51
aS'variable_1'
p210
aS'->'
p211
aS'variable_15'
p212
ag91
aS'variable_4'
p213
ag17
aS'if'
p214
ag4
aS'variable_7'
p215
aS'!='
p216
aS'variable_2'
p217
ag14
aS'memcpy'
p218
ag4
aS'variable_2'
p219
ag8
aS'variable_7'
p220
ag8
aS'variable_4'
p221
ag14
ag17
aS'if'
p222
ag4
ag4
aS'variable_4'
p223
ag51
aS'variable_1'
p224
aS'->'
p225
aS'variable_18'
p226
ag115
aS'variable_1'
p227
aS'->'
p228
aS'variable_17'
p229
ag14
ag61
aS'variable_6'
p230
ag14
aS'variable_4'
p231
ag51
aS'variable_6'
p232
ag17
aS'memcpy'
p233
ag4
aS'variable_2'
p234
ag8
aS'variable_1'
p235
aS'->'
p236
aS'variable_17'
p237
ag8
aS'variable_4'
p238
ag14
ag17
aS'variable_1'
p239
aS'->'
p240
aS'variable_17'
p241
aS'+='
p242
aS'variable_4'
p243
ag17
aS'if'
p244
ag4
aS'variable_1'
p245
aS'->'
p246
aS'variable_17'
p247
ag61
ag51
aS'variable_1'
p248
aS'->'
p249
aS'variable_18'
p250
ag14
aS'variable_1'
p251
aS'->'
p252
aS'variable_17'
p253
ag51
aS'variable_1'
p254
aS'->'
p255
aS'variable_15'
p256
ag17
aS'variable_1'
p257
aS'->'
p258
aS'variable_10'
p259
aS'--'
p260
ag17
aS'variable_1'
p261
aS'->'
p262
aS'variable_6'
p263
aS'--'
p264
ag17
aS'variable_6'
p265
aS'-='
p266
aS'variable_4'
p267
ag17
aS'variable_2'
p268
aS'+='
p269
aS'variable_4'
p270
ag17
aa(lp271
S'func_0'
p272
ag4
aS'variable_0'
p273
ag6
aS'variable_1'
p274
ag8
aS'unsigned'
p275
aS'char'
p276
ag6
aS'variable_2'
p277
ag8
aS'unsigned'
p278
aS'variable_3'
p279
ag14
aS'int'
p280
aS'variable_4'
p281
ag17
aS'unsigned'
p282
aS'variable_5'
p283
ag17
aS'unsigned'
p284
aS'variable_6'
p285
ag17
aS'unsigned'
p286
aS'char'
p287
ag6
aS'variable_7'
p288
ag8
aS'variable_8'
p289
ag8
ag6
aS'variable_9'
p290
ag17
aS'int'
p291
aS'variable_10'
p292
ag17
aS'if'
p293
ag4
aS'variable_1'
p294
aS'=='
p295
aS'NULL'
p296
aS'||'
p297
aS'variable_1'
p298
aS'->'
p299
aS'variable_11'
p300
aS'!='
p301
aS'variable_12'
p302
aS'||'
p303
aS'variable_1'
p304
aS'->'
p305
aS'variable_6'
p306
aS'=='
p307
ag44
ag14
aS'if'
p308
ag4
ag46
aS'variable_1'
p309
aS'->'
p310
aS'variable_13'
p311
ag14
aS'variable_6'
p312
ag51
aS'variable_3'
p313
ag17
aS'variable_5'
p314
ag51
aS'variable_1'
p315
aS'->'
p316
aS'variable_14'
p317
ag57
aS'variable_5'
p318
ag17
aS'while'
p319
ag4
aS'variable_6'
p320
ag61
ag44
aS'&&'
p321
aS'variable_1'
p322
aS'->'
p323
aS'variable_6'
p324
ag61
ag44
ag14
aS'if'
p325
ag4
aS'variable_1'
p326
aS'->'
p327
aS'variable_10'
p328
aS'=='
p329
ag44
ag14
aS'if'
p330
ag4
aS'variable_6'
p331
aS'=='
p332
aS'variable_5'
p333
ag14
aS'variable_7'
p334
ag51
aS'variable_2'
p335
ag17
aS'variable_7'
p336
ag51
aS'variable_1'
p337
aS'->'
p338
aS'variable_15'
p339
ag17
aS'if'
p340
ag4
ag46
aS'func_1'
p341
ag4
aS'variable_1'
p342
ag8
ag84
aS'variable_8'
p343
ag8
ag86
ag14
ag14
aS'variable_1'
p344
aS'->'
p345
aS'variable_10'
p346
ag51
aS'variable_8'
p347
ag91
ag86
ag17
aS'if'
p348
ag4
aS'variable_1'
p349
aS'->'
p350
aS'variable_10'
p351
ag61
ag86
ag14
aS'variable_7'
p352
ag51
aS'variable_1'
p353
aS'->'
p354
aS'variable_15'
p355
ag17
aS'variable_9'
p356
ag51
aS'variable_7'
p357
ag17
aS'variable_4'
p358
ag51
aS'variable_5'
p359
ag17
aS'while'
p360
ag4
aS'variable_4'
p361
ag61
ag44
ag14
aS'if'
p362
ag4
ag46
aS'func_2'
p363
ag4
aS'variable_1'
p364
ag8
ag84
aS'variable_8'
p365
ag8
ag86
ag14
ag14
aS'if'
p366
ag4
aS'variable_8'
p367
ag84
aS'128'
p368
ag14
aS'variable_10'
p369
ag51
ag4
aS'257'
p370
ag115
aS'variable_8'
p371
ag14
ag6
aS'variable_1'
p372
aS'->'
p373
aS'variable_16'
p374
ag17
aS'if'
p375
ag4
aS'variable_10'
p376
ag61
aS'variable_4'
p377
ag14
aS'variable_10'
p378
ag51
aS'variable_4'
p379
ag17
aS'if'
p380
ag4
ag46
aS'func_3'
p381
ag4
aS'variable_1'
p382
ag8
aS'variable_9'
p383
ag8
aS'variable_10'
p384
ag14
ag14
aS'variable_9'
p385
aS'+='
p386
aS'variable_10'
p387
ag17
aS'variable_4'
p388
aS'-='
p389
aS'variable_10'
p390
ag17
aS'variable_10'
p391
ag51
ag4
aS'variable_8'
p392
ag91
ag86
ag14
ag6
aS'variable_1'
p393
aS'->'
p394
aS'variable_16'
p395
ag17
aS'if'
p396
ag4
aS'variable_10'
p397
ag61
aS'variable_4'
p398
ag14
aS'variable_10'
p399
ag51
aS'variable_4'
p400
ag17
aS'if'
p401
ag4
aS'variable_10'
p402
ag148
aS'variable_1'
p403
aS'->'
p404
aS'variable_16'
p405
ag14
aS'variable_4'
p406
aS'-='
p407
aS'variable_10'
p408
ag17
aS'if'
p409
ag4
ag46
aS'func_4'
p410
ag4
aS'variable_1'
p411
ag8
aS'variable_9'
p412
ag8
aS'variable_1'
p413
aS'->'
p414
aS'variable_16'
p415
ag14
ag14
aS'variable_9'
p416
aS'+='
p417
aS'variable_1'
p418
aS'->'
p419
aS'variable_16'
p420
ag17
aS'variable_10'
p421
aS'-='
p422
aS'variable_1'
p423
aS'->'
p424
aS'variable_16'
p425
ag17
aS'while'
p426
ag4
aS'variable_10'
p427
ag61
ag44
ag14
ag6
aS'variable_9'
p428
ag51
ag6
ag4
aS'variable_9'
p429
ag115
aS'variable_1'
p430
aS'->'
p431
aS'variable_16'
p432
ag14
ag17
aS'variable_9'
p433
aS'+='
p434
ag86
ag17
aS'variable_10'
p435
aS'-='
p436
ag86
ag17
aS'if'
p437
ag4
aS'variable_6'
p438
ag61
ag51
aS'variable_5'
p439
ag14
aS'variable_4'
p440
ag51
aS'variable_5'
p441
ag17
aS'variable_1'
p442
aS'->'
p443
aS'variable_17'
p444
ag51
aS'variable_1'
p445
aS'->'
p446
aS'variable_15'
p447
ag17
aS'variable_1'
p448
aS'->'
p449
aS'variable_10'
p450
aS'--'
p451
ag17
aS'variable_1'
p452
aS'->'
p453
aS'variable_6'
p454
aS'--'
p455
ag17
aS'variable_4'
p456
ag51
aS'variable_6'
p457
ag17
aS'variable_1'
p458
aS'->'
p459
aS'variable_17'
p460
ag51
aS'variable_1'
p461
aS'->'
p462
aS'variable_15'
p463
ag91
aS'variable_4'
p464
ag17
aS'if'
p465
ag4
ag4
aS'variable_4'
p466
ag51
aS'variable_1'
p467
aS'->'
p468
aS'variable_18'
p469
ag115
aS'variable_1'
p470
aS'->'
p471
aS'variable_17'
p472
ag14
ag61
aS'variable_6'
p473
ag14
aS'variable_4'
p474
ag51
aS'variable_6'
p475
ag17
aS'memcpy'
p476
ag4
aS'variable_2'
p477
ag8
aS'variable_1'
p478
aS'->'
p479
aS'variable_17'
p480
ag8
aS'variable_4'
p481
ag14
ag17
aS'variable_1'
p482
aS'->'
p483
aS'variable_17'
p484
aS'+='
p485
aS'variable_4'
p486
ag17
aS'if'
p487
ag4
aS'variable_1'
p488
aS'->'
p489
aS'variable_17'
p490
ag61
ag51
aS'variable_1'
p491
aS'->'
p492
aS'variable_18'
p493
ag14
aS'variable_1'
p494
aS'->'
p495
aS'variable_17'
p496
ag51
aS'variable_1'
p497
aS'->'
p498
aS'variable_15'
p499
ag17
aS'variable_1'
p500
aS'->'
p501
aS'variable_10'
p502
aS'--'
p503
ag17
aS'variable_1'
p504
aS'->'
p505
aS'variable_6'
p506
aS'--'
p507
ag17
aS'variable_6'
p508
aS'-='
p509
aS'variable_4'
p510
ag17
aS'variable_2'
p511
aS'+='
p512
aS'variable_4'
p513
ag17
aa(lp514
S'func_0'
p515
ag4
aS'variable_0'
p516
ag6
aS'variable_1'
p517
ag8
aS'unsigned'
p518
aS'char'
p519
ag6
aS'variable_2'
p520
ag8
aS'unsigned'
p521
aS'variable_3'
p522
ag14
aS'if'
p523
ag4
aS'variable_1'
p524
aS'=='
p525
aS'NULL'
p526
aS'||'
p527
aS'variable_1'
p528
aS'->'
p529
aS'variable_4'
p530
aS'!='
p531
aS'variable_5'
p532
aS'||'
p533
aS'variable_1'
p534
aS'->'
p535
aS'variable_6'
p536
aS'=='
p537
ag44
ag14
aS'if'
p538
ag4
ag46
aS'variable_1'
p539
aS'->'
p540
aS'variable_7'
p541
ag14
aS'variable_1'
p542
aS'->'
p543
aS'variable_6'
p544
aS'-='
p545
aS'variable_3'
p546
aS'/'
p547
aS'variable_1'
p548
aS'->'
p549
aS'variable_8'
p550
ag57
aS'variable_9'
p551
ag17
aS'if'
p552
ag4
ag46
aS'func_1'
p553
ag4
aS'variable_1'
p554
aS'->'
p555
aS'variable_10'
p556
ag8
aS'variable_2'
p557
ag8
aS'variable_3'
p558
ag14
ag14
aS'if'
p559
ag4
ag4
aS'variable_1'
p560
aS'->'
p561
aS'variable_8'
p562
ag57
aS'variable_11'
p563
aS'=='
p564
aS'16'
p565
aS'||'
p566
aS'variable_1'
p567
aS'->'
p568
aS'variable_8'
p569
ag57
aS'variable_12'
p570
aS'=='
p571
aS'12'
p572
aS'||'
p573
aS'variable_1'
p574
aS'->'
p575
aS'variable_8'
p576
ag57
aS'variable_12'
p577
aS'=='
p578
aS'16'
p579
ag14
aS'&&'
p580
aS'variable_1'
p581
aS'->'
p582
aS'variable_13'
p583
ag14
aaa(lp584
I0
aI0
aI0
aa(lp585
I352
aI295
aI49
aa(lp586
(lp587
S'main'
p588
aa(lp589
g588
aa(lp590
g588
aaa(lp591
S'661 /home/SySeVR/data/CVE_2014_9679_PATCHED_cupsRasterReadPixels.c r -> pcurrent = r -> pixels + bytes 163'
p592
aS'662 /home/SySeVR/data/CVE_2014_9679_PATCHED_cupsRasterReadPixels.c * temp = * ( temp - r -> bpp ) 132'
p593
aS'663 /home/SySeVR/data/CVE_2014_9679_PATCHED_cupsRasterReadPixels.c r -> remaining -= len / r -> header . cupsBytesPerLine 26'
p594
aa.