(lp0
(lp1
(lp2
S'static'
p3
aS'int'
p4
aS'func_0'
p5
aS'('
p6
aS'variable_0'
p7
aS'*'
p8
aS'variable_1'
p9
aS','
p10
aS'int'
p11
aS'variable_2'
p12
ag10
aS'variable_3'
p13
ag8
aS'variable_4'
p14
ag10
aS'variable_5'
p15
ag8
aS'variable_6'
p16
aS')'
p17
aS'int'
p18
aS'variable_7'
p19
aS'='
p20
aS'variable_2'
p21
aS';'
p22
aS'variable_8'
p23
ag20
ag6
aS'int'
p24
ag17
aS'func_1'
p25
ag6
aS'variable_1'
p26
ag10
aS'variable_7'
p27
aS'+'
p28
aS'variable_9'
p29
ag17
ag22
aS'variable_10'
p30
ag20
aS'func_2'
p31
ag6
aS'variable_1'
p32
ag10
aS'variable_7'
p33
ag28
aS'variable_11'
p34
ag17
ag22
aS'variable_7'
p35
aS'+='
p36
aS'variable_8'
p37
ag22
aS'if'
p38
ag6
ag6
aS'variable_10'
p39
aS'&'
p40
aS'variable_12'
p41
ag17
aS'!='
p42
aS'0'
p43
ag17
aS'variable_13'
p44
ag20
aS'func_3'
p45
ag6
aS'variable_1'
p46
ag10
aS'variable_7'
p47
ag28
aS'variable_14'
p48
ag17
ag22
aS'variable_7'
p49
aS'+='
p50
aS'variable_15'
p51
ag22
aS'variable_13'
p52
aS'-='
p53
aS'variable_15'
p54
ag22
aS'while'
p55
ag6
aS'variable_13'
p56
aS'>'
p57
ag43
ag17
aS'guint8'
p58
aS'variable_16'
p59
ag20
aS'func_4'
p60
ag6
aS'variable_1'
p61
ag10
aS'variable_7'
p62
ag28
aS'variable_17'
p63
ag17
ag22
aS'guint8'
p64
aS'variable_18'
p65
ag20
aS'func_5'
p66
ag6
aS'variable_1'
p67
ag10
aS'variable_19'
p68
ag17
ag22
aS'switch'
p69
ag6
aS'variable_16'
p70
ag17
aS'variable_7'
p71
aS'+='
p72
aS'variable_20'
p73
ag22
aS'variable_13'
p74
aS'-='
p75
aS'variable_20'
p76
ag22
aS'variable_7'
p77
aS'+='
p78
aS'variable_18'
p79
ag22
aS'variable_13'
p80
aS'-='
p81
aS'variable_18'
p82
ag22
aS'func_6'
p83
ag6
aS'variable_4'
p84
ag10
aS'NULL'
p85
ag10
ag40
aS'variable_21'
p86
ag10
aS'"'
p87
aS'Unknown'
p88
aS'LBMR'
p89
aS'PSER'
p90
aS'option'
p91
aS'0x'
p92
aS'%'
p93
aS'02x'
p94
ag87
ag10
aS'variable_16'
p95
ag17
ag22
aaa(lp96
I0
aa(lp97
I99
aa(lp98
(lp99
S'main'
p100
aaa(lp101
S'939 /home/SySeVR/data/CVE_2015_3808_VULN_dissect_lbmr_pser.c guint8 opt_type = tvb_get_guint8 ( tvb , curr_offset + O_LBMR_PSER_OPT_HDR_T_TYPE ) ; 51'
p102
aa.