(lp0
(lp1
(lp2
S'static'
p3
aS'int'
p4
aS'func_0'
p5
aS'('
p6
aS'struct'
p7
aS'variable_0'
p8
aS'*'
p9
aS'variable_0'
p10
aS','
p11
aS'unsigned'
p12
aS'variable_1'
p13
ag11
aS'unsigned'
p14
aS'variable_2'
p15
ag11
aS'variable_3'
p16
ag9
aS'variable_4'
p17
aS')'
p18
aS'unsigned'
p19
aS'variable_5'
p20
ag11
aS'variable_6'
p21
aS';'
p22
aS'sector_t'
p23
aS'variable_7'
p24
ag22
aS'int'
p25
aS'variable_8'
p26
aS'='
p27
aS'0'
p28
ag22
aS'unsigned'
p29
aS'variable_9'
p30
ag11
aS'variable_10'
p31
ag22
aS'struct'
p32
aS'variable_11'
p33
ag9
aS'variable_12'
p34
ag11
ag9
aS'variable_13'
p35
ag11
ag9
aS'variable_14'
p36
aS'['
p37
aS'2'
p38
aS']'
p39
ag11
ag9
ag9
aS'variable_15'
p40
ag27
aS'variable_14'
p41
ag22
aS'variable_9'
p42
ag27
aS'1'
p43
aS'<<'
p44
aS'variable_0'
p45
aS'->'
p46
aS'variable_16'
p47
ag22
aS'variable_13'
p48
ag27
aS'func_1'
p49
ag6
aS'variable_17'
p50
ag18
ag22
aS'variable_10'
p51
ag27
aS'variable_0'
p52
aS'->'
p53
aS'variable_16'
p54
ag22
aS'variable_7'
p55
ag27
ag6
aS'variable_18'
p56
ag18
aS'variable_17'
p57
aS'->'
p58
aS'variable_19'
p59
aS'<<'
p60
ag6
aS'variable_20'
p61
aS'-'
p62
aS'variable_10'
p63
ag18
ag22
aS'for'
p64
ag6
aS'variable_12'
p65
ag27
aS'variable_13'
p66
ag11
aS'variable_5'
p67
ag27
ag28
ag22
aS'variable_12'
p68
aS'!='
p69
aS'variable_13'
p70
aS'||'
p71
aS'variable_7'
p72
aS'++'
p73
ag11
aS'variable_5'
p74
ag27
aS'variable_6'
p75
ag11
aS'variable_12'
p76
ag27
aS'variable_12'
p77
aS'->'
p78
aS'variable_21'
p79
ag18
aS'variable_6'
p80
ag27
aS'variable_5'
p81
aS'+'
p82
aS'variable_9'
p83
ag22
aS'if'
p84
ag6
aS'variable_6'
p85
aS'<'
p86
ag27
aS'variable_1'
p87
aS'||'
p88
aS'variable_5'
p89
aS'>'
p90
ag27
aS'variable_2'
p91
ag18
aS'if'
p92
ag6
aS'!'
p93
aS'func_2'
p94
ag6
aS'variable_12'
p95
ag18
ag18
aS'variable_8'
p96
ag27
aS'func_3'
p97
ag6
aS'variable_0'
p98
ag11
aS'variable_7'
p99
ag11
aS'variable_12'
p100
ag11
ag43
ag18
ag22
aS'if'
p101
ag6
aS'variable_8'
p102
ag18
aS'if'
p103
ag6
aS'func_4'
p104
ag6
aS'variable_12'
p105
ag18
ag18
aS'if'
p106
ag6
aS'func_5'
p107
ag6
aS'variable_17'
p108
ag18
ag18
aS'if'
p109
ag6
aS'variable_6'
p110
ag90
aS'variable_2'
p111
aS'||'
p112
aS'variable_5'
p113
ag86
aS'variable_1'
p114
ag18
aS'void'
p115
ag9
aS'variable_22'
p116
ag22
aS'variable_22'
p117
ag27
aS'func_6'
p118
ag6
aS'variable_17'
p119
ag11
aS'variable_23'
p120
ag18
ag22
aS'if'
p121
ag6
aS'variable_6'
p122
ag90
aS'variable_2'
p123
ag18
aS'memset'
p124
ag6
aS'variable_22'
p125
ag82
aS'variable_2'
p126
ag11
ag28
ag11
aS'variable_6'
p127
ag62
aS'variable_2'
p128
ag18
ag22
aS'if'
p129
ag6
aS'variable_5'
p130
ag86
aS'variable_1'
p131
ag18
aS'memset'
p132
ag6
aS'variable_22'
p133
ag82
aS'variable_5'
p134
ag11
ag28
ag11
aS'variable_1'
p135
ag62
aS'variable_5'
p136
ag18
ag22
aS'if'
p137
ag6
aS'func_7'
p138
ag6
aS'variable_17'
p139
ag18
ag18
aS'if'
p140
ag6
ag93
aS'func_8'
p141
ag6
aS'variable_12'
p142
ag18
aS'&&'
p143
ag93
aS'func_9'
p144
ag6
aS'variable_12'
p145
ag18
aS'&&'
p146
ag6
aS'variable_5'
p147
ag86
aS'variable_1'
p148
aS'||'
p149
aS'variable_6'
p150
ag90
aS'variable_2'
p151
ag18
ag18
ag9
aS'variable_15'
p152
aS'++'
p153
ag27
aS'variable_12'
p154
ag22
aS'while'
p155
ag6
aS'variable_15'
p156
ag90
aS'variable_14'
p157
ag18
aS'if'
p158
ag6
ag93
aS'func_10'
p159
ag6
ag9
aS'variable_15'
p160
ag18
ag18
aS'variable_8'
p161
ag27
ag62
aS'variable_24'
p162
ag22
aS'if'
p163
ag6
ag93
aS'variable_8'
p164
ag18
aS'variable_12'
p165
ag27
aS'variable_13'
p166
ag22
aS'variable_5'
p167
ag27
ag28
ag22
aS'variable_6'
p168
ag27
aS'variable_5'
p169
ag82
aS'variable_9'
p170
ag22
aS'if'
p171
ag6
aS'variable_6'
p172
ag86
ag27
aS'variable_1'
p173
ag18
aS'if'
p174
ag6
aS'variable_5'
p175
ag90
ag27
aS'variable_2'
p176
ag18
aS'if'
p177
ag6
aS'func_11'
p178
ag6
aS'variable_12'
p179
ag18
ag18
aS'void'
p180
ag9
aS'variable_22'
p181
ag22
aS'variable_22'
p182
ag27
aS'func_12'
p183
ag6
aS'variable_17'
p184
ag11
aS'variable_23'
p185
ag18
ag22
aS'memset'
p186
ag6
aS'variable_22'
p187
ag82
aS'variable_5'
p188
ag11
ag28
ag11
aS'variable_12'
p189
aS'->'
p190
aS'variable_25'
p191
ag18
ag22
aS'func_13'
p192
ag6
aS'variable_22'
p193
ag11
aS'variable_23'
p194
ag18
ag22
aS'variable_5'
p195
ag27
aS'variable_6'
p196
ag22
aS'variable_12'
p197
ag27
aS'variable_12'
p198
aS'->'
p199
aS'variable_21'
p200
ag22
aS'while'
p201
ag6
aS'variable_12'
p202
aS'!='
p203
aS'variable_13'
p204
ag18
aa(lp205
S'static'
p206
aS'int'
p207
aS'func_0'
p208
ag6
aS'struct'
p209
aS'variable_0'
p210
ag9
aS'variable_0'
p211
ag11
aS'unsigned'
p212
aS'variable_1'
p213
ag11
aS'unsigned'
p214
aS'variable_2'
p215
ag11
aS'variable_3'
p216
ag9
aS'variable_4'
p217
ag18
aS'unsigned'
p218
aS'variable_5'
p219
ag11
aS'variable_6'
p220
ag22
aS'sector_t'
p221
aS'variable_7'
p222
ag22
aS'unsigned'
p223
aS'variable_8'
p224
ag11
aS'variable_9'
p225
ag22
aS'variable_8'
p226
ag27
ag43
aS'<<'
p227
aS'variable_0'
p228
aS'->'
p229
aS'variable_10'
p230
ag22
aS'variable_11'
p231
ag27
aS'func_1'
p232
ag6
aS'variable_12'
p233
ag18
ag22
aS'variable_9'
p234
ag27
aS'variable_0'
p235
aS'->'
p236
aS'variable_10'
p237
ag22
aS'variable_7'
p238
ag27
ag6
aS'variable_13'
p239
ag18
aS'variable_12'
p240
aS'->'
p241
aS'variable_14'
p242
aS'<<'
p243
ag6
aS'variable_15'
p244
ag62
aS'variable_9'
p245
ag18
ag22
aS'for'
p246
ag6
aS'variable_16'
p247
ag27
aS'variable_11'
p248
ag11
aS'variable_5'
p249
ag27
ag28
ag22
aS'variable_16'
p250
aS'!='
p251
aS'variable_11'
p252
aS'||'
p253
aS'variable_7'
p254
aS'++'
p255
ag11
aS'variable_5'
p256
ag27
aS'variable_6'
p257
ag11
aS'variable_16'
p258
ag27
aS'variable_16'
p259
aS'->'
p260
aS'variable_17'
p261
ag18
aS'variable_6'
p262
ag27
aS'variable_5'
p263
ag82
aS'variable_8'
p264
ag22
aS'if'
p265
ag6
aS'variable_6'
p266
ag86
ag27
aS'variable_1'
p267
aS'||'
p268
aS'variable_5'
p269
ag90
ag27
aS'variable_2'
p270
ag18
aS'if'
p271
ag6
ag93
aS'func_2'
p272
ag6
aS'variable_16'
p273
ag18
ag18
aS'variable_18'
p274
ag27
aS'func_3'
p275
ag6
aS'variable_0'
p276
ag11
aS'variable_7'
p277
ag11
aS'variable_16'
p278
ag11
ag43
ag18
ag22
aS'if'
p279
ag6
aS'variable_18'
p280
ag18
aS'if'
p281
ag6
aS'func_4'
p282
ag6
aS'variable_16'
p283
ag18
ag18
aS'if'
p284
ag6
aS'func_5'
p285
ag6
aS'variable_12'
p286
ag18
ag18
aS'if'
p287
ag6
aS'variable_6'
p288
ag90
aS'variable_2'
p289
aS'||'
p290
aS'variable_5'
p291
ag86
aS'variable_1'
p292
ag18
aS'void'
p293
ag9
aS'variable_19'
p294
ag22
aS'variable_19'
p295
ag27
aS'func_6'
p296
ag6
aS'variable_12'
p297
ag11
aS'variable_20'
p298
ag18
ag22
aS'if'
p299
ag6
aS'variable_6'
p300
ag90
aS'variable_2'
p301
ag18
aS'memset'
p302
ag6
aS'variable_19'
p303
ag82
aS'variable_2'
p304
ag11
ag28
ag11
aS'variable_6'
p305
ag62
aS'variable_2'
p306
ag18
ag22
aS'if'
p307
ag6
aS'variable_5'
p308
ag86
aS'variable_1'
p309
ag18
aS'memset'
p310
ag6
aS'variable_19'
p311
ag82
aS'variable_5'
p312
ag11
ag28
ag11
aS'variable_1'
p313
ag62
aS'variable_5'
p314
ag18
ag22
aS'func_7'
p315
ag6
aS'variable_19'
p316
ag11
aS'variable_20'
p317
ag18
ag22
aS'if'
p318
ag6
aS'func_8'
p319
ag6
aS'variable_12'
p320
ag18
ag18
aS'memset'
p321
ag6
aS'variable_19'
p322
ag82
aS'variable_5'
p323
ag11
ag28
ag11
aS'variable_16'
p324
aS'->'
p325
aS'variable_21'
p326
ag18
ag22
aS'func_9'
p327
ag6
aS'variable_19'
p328
ag11
aS'variable_20'
p329
ag18
ag22
aa(lp330
S'static'
p331
aS'int'
p332
aS'func_0'
p333
ag6
aS'struct'
p334
aS'variable_0'
p335
ag9
aS'variable_0'
p336
ag11
aS'unsigned'
p337
aS'variable_1'
p338
ag11
aS'unsigned'
p339
aS'variable_2'
p340
ag11
aS'variable_3'
p341
ag9
aS'variable_4'
p342
ag18
aS'unsigned'
p343
aS'variable_5'
p344
ag11
aS'variable_6'
p345
ag22
aS'sector_t'
p346
aS'variable_7'
p347
ag22
aS'unsigned'
p348
aS'variable_8'
p349
ag11
aS'variable_9'
p350
ag22
aS'variable_8'
p351
ag27
ag43
aS'<<'
p352
aS'variable_0'
p353
aS'->'
p354
aS'variable_10'
p355
ag22
aS'variable_11'
p356
ag27
aS'func_1'
p357
ag6
aS'variable_12'
p358
ag18
ag22
aS'variable_9'
p359
ag27
aS'variable_0'
p360
aS'->'
p361
aS'variable_10'
p362
ag22
aS'variable_7'
p363
ag27
ag6
aS'variable_13'
p364
ag18
aS'variable_12'
p365
aS'->'
p366
aS'variable_14'
p367
aS'<<'
p368
ag6
aS'variable_15'
p369
ag62
aS'variable_9'
p370
ag18
ag22
aS'for'
p371
ag6
aS'variable_16'
p372
ag27
aS'variable_11'
p373
ag11
aS'variable_5'
p374
ag27
ag28
ag22
aS'variable_16'
p375
aS'!='
p376
aS'variable_11'
p377
aS'||'
p378
aS'variable_7'
p379
aS'++'
p380
ag11
aS'variable_5'
p381
ag27
aS'variable_6'
p382
ag11
aS'variable_16'
p383
ag27
aS'variable_16'
p384
aS'->'
p385
aS'variable_17'
p386
ag18
aS'variable_6'
p387
ag27
aS'variable_5'
p388
ag82
aS'variable_8'
p389
ag22
aS'if'
p390
ag6
aS'variable_6'
p391
ag86
ag27
aS'variable_1'
p392
aS'||'
p393
aS'variable_5'
p394
ag90
ag27
aS'variable_2'
p395
ag18
aS'if'
p396
ag6
ag93
aS'func_2'
p397
ag6
aS'variable_16'
p398
ag18
ag18
aS'variable_18'
p399
ag27
aS'func_3'
p400
ag6
aS'variable_0'
p401
ag11
aS'variable_7'
p402
ag11
aS'variable_16'
p403
ag11
ag43
ag18
ag22
aS'if'
p404
ag6
aS'variable_18'
p405
ag18
aS'if'
p406
ag6
aS'func_4'
p407
ag6
aS'variable_16'
p408
ag18
ag18
aS'if'
p409
ag6
aS'func_5'
p410
ag6
aS'variable_12'
p411
ag18
ag18
aS'if'
p412
ag6
aS'variable_6'
p413
ag90
aS'variable_2'
p414
aS'||'
p415
aS'variable_5'
p416
ag86
aS'variable_1'
p417
ag18
aS'void'
p418
ag9
aS'variable_19'
p419
ag22
aS'variable_19'
p420
ag27
aS'func_6'
p421
ag6
aS'variable_12'
p422
ag11
aS'variable_20'
p423
ag18
ag22
aS'if'
p424
ag6
aS'variable_6'
p425
ag90
aS'variable_2'
p426
ag18
aS'memset'
p427
ag6
aS'variable_19'
p428
ag82
aS'variable_2'
p429
ag11
ag28
ag11
aS'variable_6'
p430
ag62
aS'variable_2'
p431
ag18
ag22
aS'memset'
p432
ag6
aS'variable_19'
p433
ag82
aS'variable_5'
p434
ag11
ag28
ag11
aS'variable_1'
p435
ag62
aS'variable_5'
p436
ag18
ag22
aS'func_7'
p437
ag6
aS'variable_19'
p438
ag11
aS'variable_20'
p439
ag18
ag22
aS'if'
p440
ag6
aS'func_8'
p441
ag6
aS'variable_12'
p442
ag18
ag18
aS'memset'
p443
ag6
aS'variable_19'
p444
ag82
aS'variable_5'
p445
ag11
ag28
ag11
aS'variable_16'
p446
aS'->'
p447
aS'variable_21'
p448
ag18
ag22
aS'func_9'
p449
ag6
aS'variable_19'
p450
ag11
aS'variable_20'
p451
ag18
ag22
aaa(lp452
I0
aI0
aI0
aa(lp453
I345
aI199
aI180
aa(lp454
(lp455
S'main'
p456
aa(lp457
g456
aa(lp458
g456
aaa(lp459
S'36 /home/SySeVR/data/CVE_2006_4813_PATCHED___block_prepare_write.c memset 108'
p460
aS'37 /home/SySeVR/data/CVE_2006_4813_PATCHED___block_prepare_write.c memset 54'
p461
aS'38 /home/SySeVR/data/CVE_2006_4813_PATCHED___block_prepare_write.c memset 51'
p462
aa.