(lp0
(lp1
(lp2
S'static'
p3
aS'int'
p4
aS'func_0'
p5
aS'('
p6
aS'struct'
p7
aS'variable_0'
p8
aS'*'
p9
aS'variable_0'
p10
aS','
p11
aS'unsigned'
p12
aS'variable_1'
p13
ag11
aS'unsigned'
p14
aS'variable_2'
p15
ag11
aS'variable_3'
p16
ag9
aS'variable_4'
p17
aS')'
p18
aS'unsigned'
p19
aS'variable_5'
p20
ag11
aS'variable_6'
p21
aS';'
p22
aS'sector_t'
p23
aS'variable_7'
p24
ag22
aS'int'
p25
aS'variable_8'
p26
aS'='
p27
aS'0'
p28
ag22
aS'unsigned'
p29
aS'variable_9'
p30
ag11
aS'variable_10'
p31
ag22
aS'struct'
p32
aS'variable_11'
p33
ag9
aS'variable_12'
p34
ag11
ag9
aS'variable_13'
p35
ag11
ag9
aS'variable_14'
p36
aS'['
p37
aS'2'
p38
aS']'
p39
ag11
ag9
ag9
aS'variable_15'
p40
ag27
aS'variable_14'
p41
ag22
aS'variable_9'
p42
ag27
aS'1'
p43
aS'<<'
p44
aS'variable_0'
p45
aS'->'
p46
aS'variable_16'
p47
ag22
aS'variable_13'
p48
ag27
aS'func_1'
p49
ag6
aS'variable_17'
p50
ag18
ag22
aS'variable_10'
p51
ag27
aS'variable_0'
p52
aS'->'
p53
aS'variable_16'
p54
ag22
aS'variable_7'
p55
ag27
ag6
aS'variable_18'
p56
ag18
aS'variable_17'
p57
aS'->'
p58
aS'variable_19'
p59
aS'<<'
p60
ag6
aS'variable_20'
p61
aS'-'
p62
aS'variable_10'
p63
ag18
ag22
aS'for'
p64
ag6
aS'variable_12'
p65
ag27
aS'variable_13'
p66
ag11
aS'variable_5'
p67
ag27
ag28
ag22
aS'variable_12'
p68
aS'!='
p69
aS'variable_13'
p70
aS'||'
p71
aS'variable_7'
p72
aS'++'
p73
ag11
aS'variable_5'
p74
ag27
aS'variable_6'
p75
ag11
aS'variable_12'
p76
ag27
aS'variable_12'
p77
aS'->'
p78
aS'variable_21'
p79
ag18
aS'variable_6'
p80
ag27
aS'variable_5'
p81
aS'+'
p82
aS'variable_9'
p83
ag22
aS'if'
p84
ag6
aS'variable_6'
p85
aS'<'
p86
ag27
aS'variable_1'
p87
aS'||'
p88
aS'variable_5'
p89
aS'>'
p90
ag27
aS'variable_2'
p91
ag18
aS'if'
p92
ag6
aS'!'
p93
aS'func_2'
p94
ag6
aS'variable_12'
p95
ag18
ag18
aS'variable_8'
p96
ag27
aS'func_3'
p97
ag6
aS'variable_0'
p98
ag11
aS'variable_7'
p99
ag11
aS'variable_12'
p100
ag11
ag43
ag18
ag22
aS'if'
p101
ag6
aS'variable_8'
p102
ag18
aS'if'
p103
ag6
aS'func_4'
p104
ag6
aS'variable_12'
p105
ag18
ag18
aS'if'
p106
ag6
aS'func_5'
p107
ag6
aS'variable_17'
p108
ag18
ag18
aS'if'
p109
ag6
ag93
aS'func_6'
p110
ag6
aS'variable_12'
p111
ag18
aS'&&'
p112
ag93
aS'func_7'
p113
ag6
aS'variable_12'
p114
ag18
aS'&&'
p115
ag6
aS'variable_5'
p116
ag86
aS'variable_1'
p117
aS'||'
p118
aS'variable_6'
p119
ag90
aS'variable_2'
p120
ag18
ag18
ag9
aS'variable_15'
p121
aS'++'
p122
ag27
aS'variable_12'
p123
ag22
aS'while'
p124
ag6
aS'variable_15'
p125
ag90
aS'variable_14'
p126
ag18
aS'if'
p127
ag6
ag93
aS'func_8'
p128
ag6
ag9
aS'variable_15'
p129
ag18
ag18
aS'variable_8'
p130
ag27
ag62
aS'variable_22'
p131
ag22
aS'if'
p132
ag6
ag93
aS'variable_8'
p133
ag18
aS'variable_12'
p134
ag27
aS'variable_13'
p135
ag22
aS'variable_5'
p136
ag27
ag28
ag22
aS'variable_6'
p137
ag27
aS'variable_5'
p138
ag82
aS'variable_9'
p139
ag22
aS'if'
p140
ag6
aS'variable_6'
p141
ag86
ag27
aS'variable_1'
p142
ag18
aS'if'
p143
ag6
aS'variable_5'
p144
ag90
ag27
aS'variable_2'
p145
ag18
aS'memset'
p146
ag6
aS'variable_23'
p147
ag82
aS'variable_5'
p148
ag11
ag28
ag11
aS'variable_12'
p149
aS'->'
p150
aS'variable_24'
p151
ag18
ag22
aS'func_9'
p152
ag6
aS'variable_23'
p153
ag11
aS'variable_25'
p154
ag18
ag22
aS'variable_5'
p155
ag27
aS'variable_6'
p156
ag22
aS'variable_12'
p157
ag27
aS'variable_12'
p158
aS'->'
p159
aS'variable_21'
p160
ag22
aS'while'
p161
ag6
aS'variable_12'
p162
aS'!='
p163
aS'variable_13'
p164
ag18
aa(lp165
S'static'
p166
aS'int'
p167
aS'func_0'
p168
ag6
aS'struct'
p169
aS'variable_0'
p170
ag9
aS'variable_0'
p171
ag11
aS'unsigned'
p172
aS'variable_1'
p173
ag11
aS'unsigned'
p174
aS'variable_2'
p175
ag11
aS'variable_3'
p176
ag9
aS'variable_4'
p177
ag18
aS'unsigned'
p178
aS'variable_5'
p179
ag11
aS'variable_6'
p180
ag22
aS'sector_t'
p181
aS'variable_7'
p182
ag22
aS'unsigned'
p183
aS'variable_8'
p184
ag11
aS'variable_9'
p185
ag22
aS'variable_8'
p186
ag27
ag43
aS'<<'
p187
aS'variable_0'
p188
aS'->'
p189
aS'variable_10'
p190
ag22
aS'variable_11'
p191
ag27
aS'func_1'
p192
ag6
aS'variable_12'
p193
ag18
ag22
aS'variable_9'
p194
ag27
aS'variable_0'
p195
aS'->'
p196
aS'variable_10'
p197
ag22
aS'variable_7'
p198
ag27
ag6
aS'variable_13'
p199
ag18
aS'variable_12'
p200
aS'->'
p201
aS'variable_14'
p202
aS'<<'
p203
ag6
aS'variable_15'
p204
ag62
aS'variable_9'
p205
ag18
ag22
aS'for'
p206
ag6
aS'variable_16'
p207
ag27
aS'variable_11'
p208
ag11
aS'variable_5'
p209
ag27
ag28
ag22
aS'variable_16'
p210
aS'!='
p211
aS'variable_11'
p212
aS'||'
p213
aS'variable_7'
p214
aS'++'
p215
ag11
aS'variable_5'
p216
ag27
aS'variable_6'
p217
ag11
aS'variable_16'
p218
ag27
aS'variable_16'
p219
aS'->'
p220
aS'variable_17'
p221
ag18
aS'variable_6'
p222
ag27
aS'variable_5'
p223
ag82
aS'variable_8'
p224
ag22
aS'if'
p225
ag6
aS'variable_6'
p226
ag86
ag27
aS'variable_1'
p227
aS'||'
p228
aS'variable_5'
p229
ag90
ag27
aS'variable_2'
p230
ag18
aS'if'
p231
ag6
ag93
aS'func_2'
p232
ag6
aS'variable_16'
p233
ag18
ag18
aS'func_3'
p234
ag6
aS'variable_16'
p235
ag18
ag22
aS'if'
p236
ag6
aS'func_4'
p237
ag6
aS'variable_16'
p238
ag18
ag18
aS'func_5'
p239
ag6
aS'variable_16'
p240
ag18
ag22
aS'if'
p241
ag6
ag93
aS'func_6'
p242
ag6
aS'variable_16'
p243
ag18
ag18
aS'variable_18'
p244
ag27
aS'func_7'
p245
ag6
aS'variable_0'
p246
ag11
aS'variable_7'
p247
ag11
aS'variable_16'
p248
ag11
ag43
ag18
ag22
aS'if'
p249
ag6
aS'variable_18'
p250
ag18
aS'if'
p251
ag6
aS'func_8'
p252
ag6
aS'variable_16'
p253
ag18
ag18
aS'func_9'
p254
ag6
aS'variable_16'
p255
aS'->'
p256
aS'variable_19'
p257
ag11
aS'variable_16'
p258
aS'->'
p259
aS'variable_20'
p260
ag18
ag22
aS'func_10'
p261
ag6
aS'variable_16'
p262
ag18
ag22
aS'if'
p263
ag6
aS'variable_6'
p264
ag90
aS'variable_2'
p265
aS'||'
p266
aS'variable_5'
p267
ag86
aS'variable_1'
p268
ag18
aS'if'
p269
ag6
aS'variable_6'
p270
ag90
aS'variable_2'
p271
ag18
aS'memset'
p272
ag6
aS'variable_21'
p273
ag82
aS'variable_2'
p274
ag11
ag28
ag11
aS'variable_6'
p275
ag62
aS'variable_2'
p276
ag18
ag22
aS'if'
p277
ag6
aS'variable_5'
p278
ag86
aS'variable_1'
p279
ag18
aS'memset'
p280
ag6
aS'variable_21'
p281
ag82
aS'variable_5'
p282
ag11
ag28
ag11
aS'variable_1'
p283
ag62
aS'variable_5'
p284
ag18
ag22
aS'func_11'
p285
ag6
aS'variable_21'
p286
ag11
aS'variable_22'
p287
ag18
ag22
aS'if'
p288
ag6
aS'func_12'
p289
ag6
aS'variable_12'
p290
ag18
ag18
aS'if'
p291
ag6
ag93
aS'func_13'
p292
ag6
aS'variable_16'
p293
ag18
ag18
aS'func_14'
p294
ag6
aS'variable_16'
p295
ag18
ag22
aS'if'
p296
ag6
ag93
aS'func_15'
p297
ag6
aS'variable_16'
p298
ag18
aS'&&'
p299
ag93
aS'func_16'
p300
ag6
aS'variable_16'
p301
ag18
aS'&&'
p302
ag6
aS'variable_5'
p303
ag86
aS'variable_1'
p304
aS'||'
p305
aS'variable_6'
p306
ag90
aS'variable_2'
p307
ag18
ag18
aS'func_17'
p308
ag6
aS'variable_23'
p309
ag11
ag43
ag11
aS'&'
p310
aS'variable_16'
p311
ag18
ag22
ag9
aS'variable_24'
p312
aS'++'
p313
ag27
aS'variable_16'
p314
ag22
aS'while'
p315
ag6
aS'variable_24'
p316
ag90
aS'variable_25'
p317
ag18
aS'func_18'
p318
ag6
ag9
aS'--'
p319
aS'variable_24'
p320
ag18
ag22
aS'if'
p321
ag6
ag93
aS'func_19'
p322
ag6
ag9
aS'variable_24'
p323
ag18
ag18
aS'if'
p324
ag6
ag93
aS'variable_18'
p325
ag18
aS'if'
p326
ag6
aS'func_20'
p327
ag6
aS'variable_16'
p328
ag18
ag18
aS'func_21'
p329
ag6
aS'variable_16'
p330
ag18
ag22
aS'while'
p331
ag6
ag6
aS'variable_16'
p332
ag27
aS'variable_16'
p333
aS'->'
p334
aS'variable_17'
p335
ag18
aS'!='
p336
aS'variable_11'
p337
ag18
aS'variable_6'
p338
ag27
aS'variable_5'
p339
ag82
aS'variable_8'
p340
ag22
aS'if'
p341
ag6
aS'variable_6'
p342
ag86
ag27
aS'variable_1'
p343
ag18
aS'if'
p344
ag6
aS'variable_5'
p345
ag90
ag27
aS'variable_2'
p346
ag18
aS'memset'
p347
ag6
aS'variable_21'
p348
ag82
aS'variable_5'
p349
ag11
ag28
ag11
aS'variable_16'
p350
aS'->'
p351
aS'variable_26'
p352
ag18
ag22
aS'func_22'
p353
ag6
aS'variable_21'
p354
ag11
aS'variable_22'
p355
ag18
ag22
aS'variable_5'
p356
ag27
aS'variable_6'
p357
ag22
aS'return'
p358
aS'variable_18'
p359
ag22
aa(lp360
S'static'
p361
aS'int'
p362
aS'func_0'
p363
ag6
aS'struct'
p364
aS'variable_0'
p365
ag9
aS'variable_0'
p366
ag11
aS'unsigned'
p367
aS'variable_1'
p368
ag11
aS'unsigned'
p369
aS'variable_2'
p370
ag11
aS'variable_3'
p371
ag9
aS'variable_4'
p372
ag18
aS'sector_t'
p373
aS'variable_5'
p374
ag22
aS'unsigned'
p375
aS'variable_6'
p376
ag11
aS'variable_7'
p377
ag22
aS'variable_7'
p378
ag27
aS'variable_0'
p379
aS'->'
p380
aS'variable_8'
p381
ag22
aS'variable_5'
p382
ag27
ag6
aS'variable_9'
p383
ag18
aS'variable_10'
p384
aS'->'
p385
aS'variable_11'
p386
aS'<<'
p387
ag6
aS'variable_12'
p388
ag62
aS'variable_7'
p389
ag18
ag22
aS'for'
p390
ag6
aS'variable_13'
p391
ag27
aS'variable_14'
p392
ag11
aS'variable_15'
p393
ag27
ag28
ag22
aS'variable_13'
p394
aS'!='
p395
aS'variable_14'
p396
aS'||'
p397
aS'variable_5'
p398
aS'++'
p399
ag11
aS'variable_15'
p400
ag27
aS'variable_16'
p401
ag11
aS'variable_13'
p402
ag27
aS'variable_13'
p403
aS'->'
p404
aS'variable_17'
p405
ag18
aS'variable_16'
p406
ag27
aS'variable_15'
p407
ag82
aS'variable_6'
p408
ag22
aS'if'
p409
ag6
aS'variable_16'
p410
ag86
ag27
aS'variable_1'
p411
aS'||'
p412
aS'variable_15'
p413
ag90
ag27
aS'variable_2'
p414
ag18
aS'if'
p415
ag6
ag93
aS'func_1'
p416
ag6
aS'variable_13'
p417
ag18
ag18
aS'func_2'
p418
ag6
aS'variable_13'
p419
ag18
ag22
aS'if'
p420
ag6
aS'func_3'
p421
ag6
aS'variable_13'
p422
ag18
ag18
aS'func_4'
p423
ag6
aS'variable_13'
p424
ag18
ag22
aS'if'
p425
ag6
ag93
aS'func_5'
p426
ag6
aS'variable_13'
p427
ag18
ag18
aS'variable_18'
p428
ag27
aS'func_6'
p429
ag6
aS'variable_0'
p430
ag11
aS'variable_5'
p431
ag11
aS'variable_13'
p432
ag11
ag43
ag18
ag22
aS'if'
p433
ag6
aS'variable_18'
p434
ag18
aS'if'
p435
ag6
aS'func_7'
p436
ag6
aS'variable_13'
p437
ag18
ag18
aS'func_8'
p438
ag6
aS'variable_13'
p439
aS'->'
p440
aS'variable_19'
p441
ag11
aS'variable_13'
p442
aS'->'
p443
aS'variable_20'
p444
ag18
ag22
aS'func_9'
p445
ag6
aS'variable_13'
p446
ag18
ag22
aS'if'
p447
ag6
aS'variable_16'
p448
ag90
aS'variable_2'
p449
aS'||'
p450
aS'variable_15'
p451
ag86
aS'variable_1'
p452
ag18
aS'if'
p453
ag6
aS'variable_16'
p454
ag90
aS'variable_2'
p455
ag18
aS'memset'
p456
ag6
aS'variable_21'
p457
ag82
aS'variable_2'
p458
ag11
ag28
ag11
aS'variable_16'
p459
ag62
aS'variable_2'
p460
ag18
ag22
aS'if'
p461
ag6
aS'variable_15'
p462
ag86
aS'variable_1'
p463
ag18
aS'memset'
p464
ag6
aS'variable_21'
p465
ag82
aS'variable_15'
p466
ag11
ag28
ag11
aS'variable_1'
p467
ag62
aS'variable_15'
p468
ag18
ag22
aS'func_10'
p469
ag6
aS'variable_21'
p470
ag11
aS'variable_22'
p471
ag18
ag22
aS'if'
p472
ag6
ag93
aS'func_11'
p473
ag6
aS'variable_13'
p474
ag18
ag18
aS'func_12'
p475
ag6
aS'variable_13'
p476
ag18
ag22
aS'if'
p477
ag6
ag93
aS'func_13'
p478
ag6
aS'variable_13'
p479
ag18
aS'&&'
p480
ag93
aS'func_14'
p481
ag6
aS'variable_13'
p482
ag18
aS'&&'
p483
ag6
aS'variable_15'
p484
ag86
aS'variable_1'
p485
aS'||'
p486
aS'variable_16'
p487
ag90
aS'variable_2'
p488
ag18
ag18
aS'func_15'
p489
ag6
aS'variable_23'
p490
ag11
ag43
ag11
ag310
aS'variable_13'
p491
ag18
ag22
ag9
aS'variable_24'
p492
aS'++'
p493
ag27
aS'variable_13'
p494
ag22
aS'while'
p495
ag6
aS'variable_24'
p496
ag90
aS'variable_25'
p497
ag18
aS'func_16'
p498
ag6
ag9
aS'--'
p499
aS'variable_24'
p500
ag18
ag22
aS'if'
p501
ag6
ag93
aS'func_17'
p502
ag6
ag9
aS'variable_24'
p503
ag18
ag18
aS'if'
p504
ag6
ag93
aS'variable_18'
p505
ag18
aS'if'
p506
ag6
aS'func_18'
p507
ag6
aS'variable_13'
p508
ag18
ag18
aS'func_19'
p509
ag6
aS'variable_13'
p510
ag18
ag22
aS'while'
p511
ag6
ag6
aS'variable_13'
p512
ag27
aS'variable_13'
p513
aS'->'
p514
aS'variable_17'
p515
ag18
aS'!='
p516
aS'variable_14'
p517
ag18
aS'variable_16'
p518
ag27
aS'variable_15'
p519
ag82
aS'variable_6'
p520
ag22
aS'if'
p521
ag6
aS'variable_16'
p522
ag86
ag27
aS'variable_1'
p523
ag18
aS'if'
p524
ag6
aS'variable_15'
p525
ag90
ag27
aS'variable_2'
p526
ag18
aS'memset'
p527
ag6
aS'variable_21'
p528
ag82
aS'variable_15'
p529
ag11
ag28
ag11
aS'variable_13'
p530
aS'->'
p531
aS'variable_26'
p532
ag18
ag22
aS'func_20'
p533
ag6
aS'variable_21'
p534
ag11
aS'variable_22'
p535
ag18
ag22
aS'variable_15'
p536
ag27
aS'variable_16'
p537
ag22
aS'return'
p538
aS'variable_18'
p539
ag22
aaa(lp540
I0
aI0
aI0
aa(lp541
I243
aI100
aI38
aa(lp542
(lp543
S'main'
p544
aa(lp545
g544
aa(lp546
g544
aaa(lp547
S'25 /home/SySeVR/data/CVE_2006_4813_PATCHED___block_prepare_write.c block_end = block_start + blocksize 98'
p548
aS'26 /home/SySeVR/data/CVE_2006_4813_PATCHED___block_prepare_write.c block_end = block_start + blocksize 25'
p549
aS'27 /home/SySeVR/data/CVE_2006_4813_PATCHED___block_prepare_write.c block = ( sector_t ) page -> index << ( PAGE_CACHE_SHIFT - bbits ) 21'
p550
aa.