(lp0
(lp1
(lp2
S'int'
p3
aS'func_0'
p4
aS'('
p5
aS'variable_0'
p6
aS'*'
p7
aS'variable_1'
p8
aS','
p9
aS'unsigned'
p10
aS'char'
p11
ag7
ag7
aS'variable_2'
p12
ag9
aS'unsigned'
p13
aS'char'
p14
ag7
aS'variable_3'
p15
ag9
aS'int'
p16
aS'variable_4'
p17
ag9
aS'int'
p18
ag7
aS'variable_5'
p19
aS')'
p20
aS'unsigned'
p21
aS'short'
p22
aS'variable_6'
p23
aS';'
p24
aS'unsigned'
p25
aS'short'
p26
aS'variable_7'
p27
ag24
aS'unsigned'
p28
aS'short'
p29
aS'variable_8'
p30
ag24
aS'unsigned'
p31
aS'char'
p32
ag7
aS'variable_9'
p33
aS'='
p34
ag7
aS'variable_2'
p35
ag24
aS'variable_1'
p36
aS'->'
p37
aS'variable_10'
p38
ag34
aS'0'
p39
ag24
aS'variable_1'
p40
aS'->'
p41
aS'variable_11'
p42
ag34
aS'-'
p43
aS'1'
p44
ag24
aS'if'
p45
ag5
aS'variable_9'
p46
aS'>'
p47
ag34
ag5
aS'variable_3'
p48
aS'+'
p49
aS'variable_4'
p50
ag43
aS'2'
p51
ag20
ag20
aS'if'
p52
ag5
aS'variable_9'
p53
ag47
ag5
aS'variable_3'
p54
ag49
aS'variable_4'
p55
ag43
aS'variable_8'
p56
ag20
ag20
aS'while'
p57
ag5
aS'variable_9'
p58
aS'<'
p59
ag34
ag5
aS'variable_3'
p60
ag49
aS'variable_4'
p61
ag43
aS'4'
p62
ag20
ag20
aS'if'
p63
ag5
aS'variable_9'
p64
ag49
aS'variable_7'
p65
ag47
ag5
aS'variable_3'
p66
ag49
aS'variable_4'
p67
ag20
ag20
aS'if'
p68
ag5
aS'variable_6'
p69
aS'=='
p70
aS'variable_12'
p71
ag20
aS'unsigned'
p72
aS'char'
p73
ag7
aS'variable_13'
p74
ag24
aS'int'
p75
aS'variable_14'
p76
ag24
aS'int'
p77
aS'variable_15'
p78
ag24
aS'if'
p79
ag5
aS'variable_7'
p80
ag59
ag51
ag20
aS'variable_7'
p81
aS'-='
p82
ag51
ag24
aS'if'
p83
ag5
aS'variable_15'
p84
ag47
aS'variable_7'
p85
ag20
aS'variable_13'
p86
ag34
aS'variable_9'
p87
ag24
aS'while'
p88
ag5
aS'variable_15'
p89
ag47
aS'3'
p90
ag20
aS'variable_14'
p91
ag34
ag7
ag5
aS'variable_13'
p92
aS'++'
p93
ag20
ag24
aS'variable_15'
p94
aS'-='
p95
ag90
ag24
aS'if'
p96
ag5
aS'variable_8'
p97
ag47
aS'variable_15'
p98
ag20
aS'if'
p99
ag5
aS'variable_1'
p100
aS'->'
p101
aS'variable_10'
p102
aS'=='
p103
ag39
ag20
aS'switch'
p104
ag5
aS'variable_14'
p105
ag20
aS'if'
p106
ag5
aS'variable_1'
p107
aS'->'
p108
aS'variable_16'
p109
aS'->'
p110
aS'variable_17'
p111
aS'=='
p112
aS'NULL'
p113
ag20
aS'if'
p114
ag5
aS'variable_8'
p115
ag47
aS'variable_18'
p116
aS'||'
p117
ag5
ag5
aS'variable_1'
p118
aS'->'
p119
aS'variable_16'
p120
aS'->'
p121
aS'variable_17'
p122
ag34
aS'func_1'
p123
ag5
aS'variable_8'
p124
ag49
ag44
ag20
ag20
aS'=='
p125
aS'NULL'
p126
ag20
ag20
aS'memcpy'
p127
ag5
aS'variable_1'
p128
aS'->'
p129
aS'variable_16'
p130
aS'->'
p131
aS'variable_17'
p132
ag9
aS'variable_13'
p133
ag9
aS'variable_8'
p134
ag20
ag24
aS'variable_1'
p135
aS'->'
p136
aS'variable_16'
p137
aS'->'
p138
aS'variable_17'
p139
aS'['
p140
aS'variable_8'
p141
aS']'
p142
ag34
aS"'"
p143
aS'\\'
p144
ag39
ag143
ag24
aS'if'
p145
ag5
aS'strlen'
p146
ag5
aS'variable_1'
p147
aS'->'
p148
aS'variable_16'
p149
aS'->'
p150
aS'variable_17'
p151
ag20
aS'!='
p152
aS'variable_8'
p153
ag20
aS'variable_1'
p154
aS'->'
p155
aS'variable_10'
p156
ag34
ag44
ag24
aS'variable_1'
p157
aS'->'
p158
aS'variable_10'
p159
ag34
aS'strlen'
p160
ag5
aS'variable_1'
p161
aS'->'
p162
aS'variable_16'
p163
aS'->'
p164
aS'variable_17'
p165
ag20
aS'=='
p166
aS'variable_8'
p167
aS'&&'
p168
aS'strncmp'
p169
ag5
aS'variable_1'
p170
aS'->'
p171
aS'variable_16'
p172
aS'->'
p173
aS'variable_17'
p174
ag9
ag5
aS'char'
p175
ag7
ag20
aS'variable_13'
p176
ag9
aS'variable_8'
p177
ag20
aS'=='
p178
ag39
ag24
aS'variable_15'
p179
aS'-='
p180
aS'variable_8'
p181
ag24
aS'if'
p182
ag5
aS'variable_15'
p183
aS'!='
p184
ag39
ag20
aS'if'
p185
ag5
aS'variable_6'
p186
aS'=='
p187
aS'variable_19'
p188
aS'&&'
p189
aS'variable_1'
p190
aS'->'
p191
aS'variable_20'
p192
aS'!='
p193
aS'variable_21'
p194
ag20
aS'unsigned'
p195
aS'char'
p196
ag7
aS'variable_13'
p197
ag34
aS'variable_9'
p198
ag24
aS'int'
p199
aS'variable_22'
p200
ag34
ag7
ag5
aS'variable_13'
p201
aS'++'
p202
ag20
ag24
aS'if'
p203
ag5
aS'variable_22'
p204
aS'!='
p205
aS'variable_7'
p206
ag43
ag44
ag20
aS'variable_1'
p207
aS'->'
p208
aS'variable_16'
p209
aS'->'
p210
aS'variable_23'
p211
ag34
ag39
ag24
aS'if'
p212
ag5
ag5
aS'variable_1'
p213
aS'->'
p214
aS'variable_16'
p215
aS'->'
p216
aS'variable_24'
p217
ag34
aS'func_2'
p218
ag5
aS'variable_22'
p219
ag20
ag20
aS'=='
p220
aS'NULL'
p221
ag20
aS'variable_1'
p222
aS'->'
p223
aS'variable_16'
p224
aS'->'
p225
aS'variable_23'
p226
ag34
aS'variable_22'
p227
ag24
aS'if'
p228
ag5
aS'variable_6'
p229
aS'=='
p230
aS'variable_25'
p231
aS'&&'
p232
aS'variable_1'
p233
aS'->'
p234
aS'variable_20'
p235
aS'!='
p236
aS'variable_21'
p237
ag20
aS'unsigned'
p238
aS'char'
p239
ag7
aS'variable_13'
p240
ag34
aS'variable_9'
p241
ag24
aS'int'
p242
aS'variable_26'
p243
ag34
ag5
ag7
ag5
aS'variable_13'
p244
aS'++'
p245
ag20
aS'<<'
p246
aS'8'
p247
ag20
ag24
aS'variable_26'
p248
aS'+='
p249
ag5
ag7
ag5
aS'variable_13'
p250
aS'++'
p251
ag20
ag20
ag24
aS'if'
p252
ag5
aS'variable_26'
p253
aS'!='
p254
aS'variable_7'
p255
ag43
ag51
ag20
aS'variable_1'
p256
aS'->'
p257
aS'variable_16'
p258
aS'->'
p259
aS'variable_27'
p260
ag34
ag39
ag24
aS'if'
p261
ag5
ag5
aS'variable_1'
p262
aS'->'
p263
aS'variable_16'
p264
aS'->'
p265
aS'variable_28'
p266
ag34
aS'func_3'
p267
ag5
aS'variable_26'
p268
ag20
ag20
aS'=='
p269
aS'NULL'
p270
ag20
aS'variable_1'
p271
aS'->'
p272
aS'variable_16'
p273
aS'->'
p274
aS'variable_27'
p275
ag34
aS'variable_26'
p276
ag24
aS'memcpy'
p277
ag5
aS'variable_1'
p278
aS'->'
p279
aS'variable_16'
p280
aS'->'
p281
aS'variable_28'
p282
ag9
aS'variable_13'
p283
ag9
aS'variable_26'
p284
ag20
ag24
aS'fprintf'
p285
ag5
aS'variable_29'
p286
ag9
aS'"'
p287
aS'CVE_2010_3864_VULN_ssl_parse_clienthello_tlsext'
p288
aS's'
p289
aS'->'
p290
aS'session'
p291
aS'->'
p292
aS'tlsext_ellipticcurvelist'
p293
ag5
aS'length'
p294
ag34
aS'%'
p295
aS'i'
p296
ag20
ag287
ag9
aS'variable_1'
p297
aS'->'
p298
aS'variable_16'
p299
aS'->'
p300
aS'variable_27'
p301
ag20
ag24
aS'variable_13'
p302
ag34
aS'variable_1'
p303
aS'->'
p304
aS'variable_16'
p305
aS'->'
p306
aS'variable_28'
p307
ag24
aS'for'
p308
ag5
aS'variable_30'
p309
ag34
ag39
ag24
aS'variable_30'
p310
ag59
aS'variable_1'
p311
aS'->'
p312
aS'variable_16'
p313
aS'->'
p314
aS'variable_27'
p315
ag24
aS'variable_30'
p316
aS'++'
p317
ag20
aS'fprintf'
p318
ag5
aS'variable_29'
p319
ag9
ag287
ag295
ag296
ag287
ag9
ag7
ag5
aS'variable_13'
p320
aS'++'
p321
ag20
ag20
ag24
aS'fprintf'
p322
ag5
aS'variable_29'
p323
ag9
ag287
ag144
aS'n'
p324
ag287
ag20
ag24
aS'if'
p325
ag5
aS'variable_6'
p326
aS'=='
p327
aS'variable_31'
p328
aS'&&'
p329
aS'variable_1'
p330
aS'->'
p331
aS'variable_20'
p332
aS'!='
p333
aS'variable_21'
p334
ag20
aS'unsigned'
p335
aS'char'
p336
ag7
aS'variable_13'
p337
ag34
aS'variable_9'
p338
ag24
aS'if'
p339
ag5
aS'variable_7'
p340
ag59
ag51
ag20
aS'if'
p341
ag5
aS'variable_1'
p342
aS'->'
p343
aS'variable_32'
p344
aS'->'
p345
aS'variable_33'
p346
aS'!='
p347
aS'variable_7'
p348
ag43
ag51
ag20
aS'if'
p349
ag5
aS'variable_1'
p350
aS'->'
p351
aS'variable_32'
p352
aS'->'
p353
aS'variable_33'
p354
aS'=='
p355
ag39
ag20
aS'variable_1'
p356
aS'->'
p357
aS'variable_32'
p358
aS'->'
p359
aS'variable_34'
p360
ag34
aS'func_4'
p361
ag5
ag44
ag20
ag24
aS'variable_1'
p362
aS'->'
p363
aS'variable_32'
p364
aS'->'
p365
aS'variable_34'
p366
ag34
aS'func_5'
p367
ag5
aS'variable_13'
p368
ag9
aS'variable_1'
p369
aS'->'
p370
aS'variable_32'
p371
aS'->'
p372
aS'variable_33'
p373
ag20
ag24
aS'if'
p374
ag5
aS'variable_1'
p375
aS'->'
p376
aS'variable_32'
p377
aS'->'
p378
aS'variable_34'
p379
aS'=='
p380
aS'NULL'
p381
ag20
aS'if'
p382
ag5
aS'variable_6'
p383
aS'=='
p384
aS'variable_35'
p385
ag20
aS'if'
p386
ag5
aS'variable_1'
p387
aS'->'
p388
aS'variable_36'
p389
aS'&&'
p390
aS'!'
p391
aS'variable_1'
p392
aS'->'
p393
aS'func_6'
p394
ag5
aS'variable_1'
p395
ag9
aS'variable_9'
p396
ag9
aS'variable_7'
p397
ag9
aS'variable_1'
p398
aS'->'
p399
aS'variable_37'
p400
ag20
ag20
aS'if'
p401
ag5
aS'variable_6'
p402
aS'=='
p403
aS'variable_38'
p404
ag20
aS'if'
p405
ag5
ag391
aS'func_7'
p406
ag5
aS'variable_1'
p407
ag9
aS'variable_9'
p408
ag9
aS'variable_7'
p409
ag9
aS'variable_5'
p410
ag20
ag20
aS'if'
p411
ag5
aS'variable_6'
p412
aS'=='
p413
aS'variable_39'
p414
aS'&&'
p415
aS'variable_1'
p416
aS'->'
p417
aS'variable_20'
p418
aS'!='
p419
aS'variable_21'
p420
aS'&&'
p421
aS'variable_1'
p422
aS'->'
p423
aS'variable_40'
p424
aS'->'
p425
aS'variable_41'
p426
ag20
aS'if'
p427
ag5
aS'variable_7'
p428
ag59
aS'5'
p429
ag20
aS'variable_1'
p430
aS'->'
p431
aS'variable_11'
p432
ag34
ag7
aS'variable_9'
p433
aS'++'
p434
ag24
aS'variable_7'
p435
aS'--'
p436
ag24
aS'if'
p437
ag5
aS'variable_1'
p438
aS'->'
p439
aS'variable_11'
p440
aS'=='
p441
aS'variable_42'
p442
ag20
aS'const'
p443
aS'unsigned'
p444
aS'char'
p445
ag7
aS'variable_13'
p446
ag24
aS'int'
p447
aS'variable_15'
p448
ag24
aS'variable_7'
p449
aS'-='
p450
ag51
ag24
aS'if'
p451
ag5
aS'variable_15'
p452
ag47
aS'variable_7'
p453
ag20
aS'while'
p454
ag5
aS'variable_15'
p455
ag47
ag39
ag20
aS'variable_43'
p456
ag7
aS'variable_44'
p457
ag24
aS'int'
p458
aS'variable_45'
p459
ag24
aS'if'
p460
ag5
aS'variable_15'
p461
ag59
ag62
ag20
aS'variable_15'
p462
aS'-='
p463
ag51
ag49
aS'variable_45'
p464
ag24
aS'if'
p465
ag5
aS'variable_15'
p466
ag59
ag39
ag20
aS'variable_13'
p467
ag34
aS'variable_9'
p468
ag24
aS'variable_9'
p469
aS'+='
p470
aS'variable_45'
p471
ag24
aS'variable_44'
p472
ag34
aS'func_8'
p473
ag5
aS'NULL'
p474
ag9
aS'&'
p475
aS'variable_13'
p476
ag9
aS'variable_45'
p477
ag20
ag24
aS'if'
p478
ag5
ag391
aS'variable_44'
p479
ag20
aS'if'
p480
ag5
aS'variable_9'
p481
aS'!='
p482
aS'variable_13'
p483
ag20
aS'if'
p484
ag5
ag391
aS'variable_1'
p485
aS'->'
p486
aS'variable_46'
p487
aS'&&'
p488
ag391
ag5
aS'variable_1'
p489
aS'->'
p490
aS'variable_46'
p491
ag34
aS'func_9'
p492
ag5
ag20
ag20
ag20
aS'if'
p493
ag5
ag391
aS'func_10'
p494
ag5
aS'variable_1'
p495
aS'->'
p496
aS'variable_46'
p497
ag9
aS'variable_44'
p498
ag20
ag20
aS'variable_7'
p499
aS'-='
p500
ag51
ag24
aS'if'
p501
ag5
aS'variable_15'
p502
ag47
aS'variable_7'
p503
ag20
aS'variable_13'
p504
ag34
aS'variable_9'
p505
ag24
aS'if'
p506
ag5
aS'variable_15'
p507
ag47
ag39
ag20
aS'variable_1'
p508
aS'->'
p509
aS'variable_47'
p510
ag34
aS'func_11'
p511
ag5
aS'NULL'
p512
ag9
ag475
aS'variable_13'
p513
ag9
aS'variable_15'
p514
ag20
ag24
aS'if'
p515
ag5
ag391
aS'variable_1'
p516
aS'->'
p517
aS'variable_47'
p518
aS'||'
p519
ag5
aS'variable_9'
p520
ag49
aS'variable_15'
p521
aS'!='
p522
aS'variable_13'
p523
ag20
ag20
aS'variable_1'
p524
aS'->'
p525
aS'variable_11'
p526
ag34
ag43
ag44
ag24
aS'variable_9'
p527
aS'+='
p528
aS'variable_7'
p529
ag24
aa(lp530
S'int'
p531
aS'func_0'
p532
ag5
aS'variable_0'
p533
ag7
aS'variable_1'
p534
ag9
aS'unsigned'
p535
aS'char'
p536
ag7
ag7
aS'variable_2'
p537
ag9
aS'unsigned'
p538
aS'char'
p539
ag7
aS'variable_3'
p540
ag9
aS'int'
p541
aS'variable_4'
p542
ag9
aS'int'
p543
ag7
aS'variable_5'
p544
ag20
aS'unsigned'
p545
aS'short'
p546
aS'variable_6'
p547
ag24
aS'unsigned'
p548
aS'short'
p549
aS'variable_7'
p550
ag24
aS'unsigned'
p551
aS'short'
p552
aS'variable_8'
p553
ag24
aS'unsigned'
p554
aS'char'
p555
ag7
aS'variable_9'
p556
ag34
ag7
aS'variable_2'
p557
ag24
aS'variable_1'
p558
aS'->'
p559
aS'variable_10'
p560
ag34
ag39
ag24
aS'variable_1'
p561
aS'->'
p562
aS'variable_11'
p563
ag34
ag43
ag44
ag24
aS'if'
p564
ag5
aS'variable_9'
p565
ag47
ag34
ag5
aS'variable_3'
p566
ag49
aS'variable_4'
p567
ag43
ag51
ag20
ag20
aS'if'
p568
ag5
aS'variable_9'
p569
ag47
ag5
aS'variable_3'
p570
ag49
aS'variable_4'
p571
ag43
aS'variable_8'
p572
ag20
ag20
aS'while'
p573
ag5
aS'variable_9'
p574
ag59
ag34
ag5
aS'variable_3'
p575
ag49
aS'variable_4'
p576
ag43
ag62
ag20
ag20
aS'if'
p577
ag5
aS'variable_9'
p578
ag49
aS'variable_7'
p579
ag47
ag5
aS'variable_3'
p580
ag49
aS'variable_4'
p581
ag20
ag20
aS'if'
p582
ag5
aS'variable_6'
p583
aS'=='
p584
aS'variable_12'
p585
ag20
aS'unsigned'
p586
aS'char'
p587
ag7
aS'variable_13'
p588
ag24
aS'int'
p589
aS'variable_14'
p590
ag24
aS'int'
p591
aS'variable_15'
p592
ag24
aS'if'
p593
ag5
aS'variable_7'
p594
ag59
ag51
ag20
aS'variable_7'
p595
aS'-='
p596
ag51
ag24
aS'if'
p597
ag5
aS'variable_15'
p598
ag47
aS'variable_7'
p599
ag20
aS'variable_13'
p600
ag34
aS'variable_9'
p601
ag24
aS'while'
p602
ag5
aS'variable_15'
p603
ag47
ag90
ag20
aS'variable_14'
p604
ag34
ag7
ag5
aS'variable_13'
p605
aS'++'
p606
ag20
ag24
aS'variable_15'
p607
aS'-='
p608
ag90
ag24
aS'if'
p609
ag5
aS'variable_8'
p610
ag47
aS'variable_15'
p611
ag20
aS'if'
p612
ag5
aS'variable_1'
p613
aS'->'
p614
aS'variable_10'
p615
aS'=='
p616
ag39
ag20
aS'switch'
p617
ag5
aS'variable_14'
p618
ag20
aS'if'
p619
ag5
aS'variable_1'
p620
aS'->'
p621
aS'variable_16'
p622
aS'->'
p623
aS'variable_17'
p624
aS'=='
p625
aS'NULL'
p626
ag20
aS'if'
p627
ag5
aS'variable_8'
p628
ag47
aS'variable_18'
p629
aS'||'
p630
ag5
ag5
aS'variable_1'
p631
aS'->'
p632
aS'variable_16'
p633
aS'->'
p634
aS'variable_17'
p635
ag34
aS'func_1'
p636
ag5
aS'variable_8'
p637
ag49
ag44
ag20
ag20
aS'=='
p638
aS'NULL'
p639
ag20
ag20
aS'memcpy'
p640
ag5
aS'variable_1'
p641
aS'->'
p642
aS'variable_16'
p643
aS'->'
p644
aS'variable_17'
p645
ag9
aS'variable_13'
p646
ag9
aS'variable_8'
p647
ag20
ag24
aS'variable_1'
p648
aS'->'
p649
aS'variable_16'
p650
aS'->'
p651
aS'variable_17'
p652
ag140
aS'variable_8'
p653
ag142
ag34
ag143
ag144
ag39
ag143
ag24
aS'if'
p654
ag5
aS'strlen'
p655
ag5
aS'variable_1'
p656
aS'->'
p657
aS'variable_16'
p658
aS'->'
p659
aS'variable_17'
p660
ag20
aS'!='
p661
aS'variable_8'
p662
ag20
aS'variable_1'
p663
aS'->'
p664
aS'variable_10'
p665
ag34
ag44
ag24
aS'variable_1'
p666
aS'->'
p667
aS'variable_10'
p668
ag34
aS'strlen'
p669
ag5
aS'variable_1'
p670
aS'->'
p671
aS'variable_16'
p672
aS'->'
p673
aS'variable_17'
p674
ag20
aS'=='
p675
aS'variable_8'
p676
aS'&&'
p677
aS'strncmp'
p678
ag5
aS'variable_1'
p679
aS'->'
p680
aS'variable_16'
p681
aS'->'
p682
aS'variable_17'
p683
ag9
ag5
aS'char'
p684
ag7
ag20
aS'variable_13'
p685
ag9
aS'variable_8'
p686
ag20
aS'=='
p687
ag39
ag24
aS'variable_15'
p688
aS'-='
p689
aS'variable_8'
p690
ag24
aS'if'
p691
ag5
aS'variable_15'
p692
aS'!='
p693
ag39
ag20
aS'if'
p694
ag5
aS'variable_6'
p695
aS'=='
p696
aS'variable_19'
p697
aS'&&'
p698
aS'variable_1'
p699
aS'->'
p700
aS'variable_20'
p701
aS'!='
p702
aS'variable_21'
p703
ag20
aS'unsigned'
p704
aS'char'
p705
ag7
aS'variable_13'
p706
ag34
aS'variable_9'
p707
ag24
aS'int'
p708
aS'variable_22'
p709
ag34
ag7
ag5
aS'variable_13'
p710
aS'++'
p711
ag20
ag24
aS'if'
p712
ag5
aS'variable_22'
p713
aS'!='
p714
aS'variable_7'
p715
ag43
ag44
ag20
aS'variable_1'
p716
aS'->'
p717
aS'variable_16'
p718
aS'->'
p719
aS'variable_23'
p720
ag34
ag39
ag24
aS'if'
p721
ag5
ag5
aS'variable_1'
p722
aS'->'
p723
aS'variable_16'
p724
aS'->'
p725
aS'variable_24'
p726
ag34
aS'func_2'
p727
ag5
aS'variable_22'
p728
ag20
ag20
aS'=='
p729
aS'NULL'
p730
ag20
aS'variable_1'
p731
aS'->'
p732
aS'variable_16'
p733
aS'->'
p734
aS'variable_23'
p735
ag34
aS'variable_22'
p736
ag24
aS'memcpy'
p737
ag5
aS'variable_1'
p738
aS'->'
p739
aS'variable_16'
p740
aS'->'
p741
aS'variable_24'
p742
ag9
aS'variable_13'
p743
ag9
aS'variable_22'
p744
ag20
ag24
aS'fprintf'
p745
ag5
aS'variable_25'
p746
ag9
ag287
aS'CVE_2010_3864_VULN_ssl_parse_clienthello_tlsext'
p747
ag289
aS'->'
p748
aS'session'
p749
aS'->'
p750
aS'tlsext_ecpointformatlist'
p751
ag5
aS'length'
p752
ag34
ag295
ag296
ag20
ag287
ag9
aS'variable_1'
p753
aS'->'
p754
aS'variable_16'
p755
aS'->'
p756
aS'variable_23'
p757
ag20
ag24
aS'variable_13'
p758
ag34
aS'variable_1'
p759
aS'->'
p760
aS'variable_16'
p761
aS'->'
p762
aS'variable_24'
p763
ag24
aS'for'
p764
ag5
aS'variable_26'
p765
ag34
ag39
ag24
aS'variable_26'
p766
ag59
aS'variable_1'
p767
aS'->'
p768
aS'variable_16'
p769
aS'->'
p770
aS'variable_23'
p771
ag24
aS'variable_26'
p772
aS'++'
p773
ag20
aS'fprintf'
p774
ag5
aS'variable_25'
p775
ag9
ag287
ag295
ag296
ag287
ag9
ag7
ag5
aS'variable_13'
p776
aS'++'
p777
ag20
ag20
ag24
aS'fprintf'
p778
ag5
aS'variable_25'
p779
ag9
ag287
ag144
ag324
ag287
ag20
ag24
aS'if'
p780
ag5
aS'variable_6'
p781
aS'=='
p782
aS'variable_27'
p783
aS'&&'
p784
aS'variable_1'
p785
aS'->'
p786
aS'variable_20'
p787
aS'!='
p788
aS'variable_21'
p789
ag20
aS'unsigned'
p790
aS'char'
p791
ag7
aS'variable_13'
p792
ag34
aS'variable_9'
p793
ag24
aS'int'
p794
aS'variable_28'
p795
ag34
ag5
ag7
ag5
aS'variable_13'
p796
aS'++'
p797
ag20
aS'<<'
p798
ag247
ag20
ag24
aS'variable_28'
p799
aS'+='
p800
ag5
ag7
ag5
aS'variable_13'
p801
aS'++'
p802
ag20
ag20
ag24
aS'if'
p803
ag5
aS'variable_28'
p804
aS'!='
p805
aS'variable_7'
p806
ag43
ag51
ag20
aS'variable_1'
p807
aS'->'
p808
aS'variable_16'
p809
aS'->'
p810
aS'variable_29'
p811
ag34
ag39
ag24
aS'if'
p812
ag5
ag5
aS'variable_1'
p813
aS'->'
p814
aS'variable_16'
p815
aS'->'
p816
aS'variable_30'
p817
ag34
aS'func_3'
p818
ag5
aS'variable_28'
p819
ag20
ag20
aS'=='
p820
aS'NULL'
p821
ag20
aS'variable_1'
p822
aS'->'
p823
aS'variable_16'
p824
aS'->'
p825
aS'variable_29'
p826
ag34
aS'variable_28'
p827
ag24
aS'if'
p828
ag5
aS'variable_6'
p829
aS'=='
p830
aS'variable_31'
p831
aS'&&'
p832
aS'variable_1'
p833
aS'->'
p834
aS'variable_20'
p835
aS'!='
p836
aS'variable_21'
p837
ag20
aS'unsigned'
p838
aS'char'
p839
ag7
aS'variable_13'
p840
ag34
aS'variable_9'
p841
ag24
aS'if'
p842
ag5
aS'variable_7'
p843
ag59
ag51
ag20
aS'if'
p844
ag5
aS'variable_1'
p845
aS'->'
p846
aS'variable_32'
p847
aS'->'
p848
aS'variable_33'
p849
aS'!='
p850
aS'variable_7'
p851
ag43
ag51
ag20
aS'if'
p852
ag5
aS'variable_1'
p853
aS'->'
p854
aS'variable_32'
p855
aS'->'
p856
aS'variable_33'
p857
aS'=='
p858
ag39
ag20
aS'variable_1'
p859
aS'->'
p860
aS'variable_32'
p861
aS'->'
p862
aS'variable_34'
p863
ag34
aS'func_4'
p864
ag5
ag44
ag20
ag24
aS'variable_1'
p865
aS'->'
p866
aS'variable_32'
p867
aS'->'
p868
aS'variable_34'
p869
ag34
aS'func_5'
p870
ag5
aS'variable_13'
p871
ag9
aS'variable_1'
p872
aS'->'
p873
aS'variable_32'
p874
aS'->'
p875
aS'variable_33'
p876
ag20
ag24
aS'if'
p877
ag5
aS'variable_1'
p878
aS'->'
p879
aS'variable_32'
p880
aS'->'
p881
aS'variable_34'
p882
aS'=='
p883
aS'NULL'
p884
ag20
aS'if'
p885
ag5
aS'variable_6'
p886
aS'=='
p887
aS'variable_35'
p888
ag20
aS'if'
p889
ag5
aS'variable_1'
p890
aS'->'
p891
aS'variable_36'
p892
aS'&&'
p893
ag391
aS'variable_1'
p894
aS'->'
p895
aS'func_6'
p896
ag5
aS'variable_1'
p897
ag9
aS'variable_9'
p898
ag9
aS'variable_7'
p899
ag9
aS'variable_1'
p900
aS'->'
p901
aS'variable_37'
p902
ag20
ag20
aS'if'
p903
ag5
aS'variable_6'
p904
aS'=='
p905
aS'variable_38'
p906
ag20
aS'if'
p907
ag5
ag391
aS'func_7'
p908
ag5
aS'variable_1'
p909
ag9
aS'variable_9'
p910
ag9
aS'variable_7'
p911
ag9
aS'variable_5'
p912
ag20
ag20
aS'if'
p913
ag5
aS'variable_6'
p914
aS'=='
p915
aS'variable_39'
p916
aS'&&'
p917
aS'variable_1'
p918
aS'->'
p919
aS'variable_20'
p920
aS'!='
p921
aS'variable_21'
p922
aS'&&'
p923
aS'variable_1'
p924
aS'->'
p925
aS'variable_40'
p926
aS'->'
p927
aS'variable_41'
p928
ag20
aS'if'
p929
ag5
aS'variable_7'
p930
ag59
ag429
ag20
aS'variable_1'
p931
aS'->'
p932
aS'variable_11'
p933
ag34
ag7
aS'variable_9'
p934
aS'++'
p935
ag24
aS'variable_7'
p936
aS'--'
p937
ag24
aS'if'
p938
ag5
aS'variable_1'
p939
aS'->'
p940
aS'variable_11'
p941
aS'=='
p942
aS'variable_42'
p943
ag20
aS'const'
p944
aS'unsigned'
p945
aS'char'
p946
ag7
aS'variable_13'
p947
ag24
aS'int'
p948
aS'variable_15'
p949
ag24
aS'variable_7'
p950
aS'-='
p951
ag51
ag24
aS'if'
p952
ag5
aS'variable_15'
p953
ag47
aS'variable_7'
p954
ag20
aS'while'
p955
ag5
aS'variable_15'
p956
ag47
ag39
ag20
aS'variable_43'
p957
ag7
aS'variable_44'
p958
ag24
aS'int'
p959
aS'variable_45'
p960
ag24
aS'if'
p961
ag5
aS'variable_15'
p962
ag59
ag62
ag20
aS'variable_15'
p963
aS'-='
p964
ag51
ag49
aS'variable_45'
p965
ag24
aS'if'
p966
ag5
aS'variable_15'
p967
ag59
ag39
ag20
aS'variable_13'
p968
ag34
aS'variable_9'
p969
ag24
aS'variable_9'
p970
aS'+='
p971
aS'variable_45'
p972
ag24
aS'variable_44'
p973
ag34
aS'func_8'
p974
ag5
aS'NULL'
p975
ag9
ag475
aS'variable_13'
p976
ag9
aS'variable_45'
p977
ag20
ag24
aS'if'
p978
ag5
ag391
aS'variable_44'
p979
ag20
aS'if'
p980
ag5
aS'variable_9'
p981
aS'!='
p982
aS'variable_13'
p983
ag20
aS'if'
p984
ag5
ag391
aS'variable_1'
p985
aS'->'
p986
aS'variable_46'
p987
aS'&&'
p988
ag391
ag5
aS'variable_1'
p989
aS'->'
p990
aS'variable_46'
p991
ag34
aS'func_9'
p992
ag5
ag20
ag20
ag20
aS'if'
p993
ag5
ag391
aS'func_10'
p994
ag5
aS'variable_1'
p995
aS'->'
p996
aS'variable_46'
p997
ag9
aS'variable_44'
p998
ag20
ag20
aS'variable_7'
p999
aS'-='
p1000
ag51
ag24
aS'if'
p1001
ag5
aS'variable_15'
p1002
ag47
aS'variable_7'
p1003
ag20
aS'variable_13'
p1004
ag34
aS'variable_9'
p1005
ag24
aS'if'
p1006
ag5
aS'variable_15'
p1007
ag47
ag39
ag20
aS'variable_1'
p1008
aS'->'
p1009
aS'variable_47'
p1010
ag34
aS'func_11'
p1011
ag5
aS'NULL'
p1012
ag9
ag475
aS'variable_13'
p1013
ag9
aS'variable_15'
p1014
ag20
ag24
aS'if'
p1015
ag5
ag391
aS'variable_1'
p1016
aS'->'
p1017
aS'variable_47'
p1018
aS'||'
p1019
ag5
aS'variable_9'
p1020
ag49
aS'variable_15'
p1021
aS'!='
p1022
aS'variable_13'
p1023
ag20
ag20
aS'variable_1'
p1024
aS'->'
p1025
aS'variable_11'
p1026
ag34
ag43
ag44
ag24
aS'variable_9'
p1027
aS'+='
p1028
aS'variable_7'
p1029
ag24
aa(lp1030
S'int'
p1031
aS'func_0'
p1032
ag5
aS'variable_0'
p1033
ag7
aS'variable_1'
p1034
ag9
aS'unsigned'
p1035
aS'char'
p1036
ag7
ag7
aS'variable_2'
p1037
ag9
aS'unsigned'
p1038
aS'char'
p1039
ag7
aS'variable_3'
p1040
ag9
aS'int'
p1041
aS'variable_4'
p1042
ag9
aS'int'
p1043
ag7
aS'variable_5'
p1044
ag20
aS'unsigned'
p1045
aS'short'
p1046
aS'variable_6'
p1047
ag24
aS'unsigned'
p1048
aS'short'
p1049
aS'variable_7'
p1050
ag24
aS'unsigned'
p1051
aS'short'
p1052
aS'variable_8'
p1053
ag24
aS'unsigned'
p1054
aS'char'
p1055
ag7
aS'variable_9'
p1056
ag34
ag7
aS'variable_2'
p1057
ag24
aS'variable_1'
p1058
aS'->'
p1059
aS'variable_10'
p1060
ag34
ag39
ag24
aS'variable_1'
p1061
aS'->'
p1062
aS'variable_11'
p1063
ag34
ag43
ag44
ag24
aS'if'
p1064
ag5
aS'variable_9'
p1065
ag47
ag34
ag5
aS'variable_3'
p1066
ag49
aS'variable_4'
p1067
ag43
ag51
ag20
ag20
aS'if'
p1068
ag5
aS'variable_9'
p1069
ag47
ag5
aS'variable_3'
p1070
ag49
aS'variable_4'
p1071
ag43
aS'variable_8'
p1072
ag20
ag20
aS'while'
p1073
ag5
aS'variable_9'
p1074
ag59
ag34
ag5
aS'variable_3'
p1075
ag49
aS'variable_4'
p1076
ag43
ag62
ag20
ag20
aS'if'
p1077
ag5
aS'variable_9'
p1078
ag49
aS'variable_7'
p1079
ag47
ag5
aS'variable_3'
p1080
ag49
aS'variable_4'
p1081
ag20
ag20
aS'if'
p1082
ag5
aS'variable_6'
p1083
aS'=='
p1084
aS'variable_12'
p1085
ag20
aS'unsigned'
p1086
aS'char'
p1087
ag7
aS'variable_13'
p1088
ag24
aS'int'
p1089
aS'variable_14'
p1090
ag24
aS'int'
p1091
aS'variable_15'
p1092
ag24
aS'if'
p1093
ag5
aS'variable_7'
p1094
ag59
ag51
ag20
aS'variable_7'
p1095
aS'-='
p1096
ag51
ag24
aS'if'
p1097
ag5
aS'variable_15'
p1098
ag47
aS'variable_7'
p1099
ag20
aS'variable_13'
p1100
ag34
aS'variable_9'
p1101
ag24
aS'while'
p1102
ag5
aS'variable_15'
p1103
ag47
ag90
ag20
aS'variable_14'
p1104
ag34
ag7
ag5
aS'variable_13'
p1105
aS'++'
p1106
ag20
ag24
aS'variable_15'
p1107
aS'-='
p1108
ag90
ag24
aS'if'
p1109
ag5
aS'variable_8'
p1110
ag47
aS'variable_15'
p1111
ag20
aS'if'
p1112
ag5
aS'variable_1'
p1113
aS'->'
p1114
aS'variable_10'
p1115
aS'=='
p1116
ag39
ag20
aS'switch'
p1117
ag5
aS'variable_14'
p1118
ag20
aS'if'
p1119
ag5
aS'variable_1'
p1120
aS'->'
p1121
aS'variable_16'
p1122
aS'->'
p1123
aS'variable_17'
p1124
aS'=='
p1125
aS'NULL'
p1126
ag20
aS'if'
p1127
ag5
aS'variable_8'
p1128
ag47
aS'variable_18'
p1129
aS'||'
p1130
ag5
ag5
aS'variable_1'
p1131
aS'->'
p1132
aS'variable_16'
p1133
aS'->'
p1134
aS'variable_17'
p1135
ag34
aS'func_1'
p1136
ag5
aS'variable_8'
p1137
ag49
ag44
ag20
ag20
aS'=='
p1138
aS'NULL'
p1139
ag20
ag20
aS'memcpy'
p1140
ag5
aS'variable_1'
p1141
aS'->'
p1142
aS'variable_16'
p1143
aS'->'
p1144
aS'variable_17'
p1145
ag9
aS'variable_13'
p1146
ag9
aS'variable_8'
p1147
ag20
ag24
aS'variable_1'
p1148
aS'->'
p1149
aS'variable_16'
p1150
aS'->'
p1151
aS'variable_17'
p1152
ag140
aS'variable_8'
p1153
ag142
ag34
ag143
ag144
ag39
ag143
ag24
aS'if'
p1154
ag5
aS'strlen'
p1155
ag5
aS'variable_1'
p1156
aS'->'
p1157
aS'variable_16'
p1158
aS'->'
p1159
aS'variable_17'
p1160
ag20
aS'!='
p1161
aS'variable_8'
p1162
ag20
aS'func_2'
p1163
ag5
aS'variable_1'
p1164
aS'->'
p1165
aS'variable_16'
p1166
aS'->'
p1167
aS'variable_17'
p1168
ag20
ag24
aS'variable_1'
p1169
aS'->'
p1170
aS'variable_16'
p1171
aS'->'
p1172
aS'variable_17'
p1173
ag34
aS'NULL'
p1174
ag24
aS'variable_1'
p1175
aS'->'
p1176
aS'variable_10'
p1177
ag34
ag44
ag24
aS'variable_1'
p1178
aS'->'
p1179
aS'variable_10'
p1180
ag34
aS'strlen'
p1181
ag5
aS'variable_1'
p1182
aS'->'
p1183
aS'variable_16'
p1184
aS'->'
p1185
aS'variable_17'
p1186
ag20
aS'=='
p1187
aS'variable_8'
p1188
aS'&&'
p1189
aS'strncmp'
p1190
ag5
aS'variable_1'
p1191
aS'->'
p1192
aS'variable_16'
p1193
aS'->'
p1194
aS'variable_17'
p1195
ag9
ag5
aS'char'
p1196
ag7
ag20
aS'variable_13'
p1197
ag9
aS'variable_8'
p1198
ag20
aS'=='
p1199
ag39
ag24
aS'variable_15'
p1200
aS'-='
p1201
aS'variable_8'
p1202
ag24
aS'if'
p1203
ag5
aS'variable_15'
p1204
aS'!='
p1205
ag39
ag20
aS'if'
p1206
ag5
aS'variable_6'
p1207
aS'=='
p1208
aS'variable_19'
p1209
aS'&&'
p1210
aS'variable_1'
p1211
aS'->'
p1212
aS'variable_20'
p1213
aS'!='
p1214
aS'variable_21'
p1215
ag20
aS'unsigned'
p1216
aS'char'
p1217
ag7
aS'variable_13'
p1218
ag34
aS'variable_9'
p1219
ag24
aS'int'
p1220
aS'variable_22'
p1221
ag34
ag7
ag5
aS'variable_13'
p1222
aS'++'
p1223
ag20
ag24
aS'if'
p1224
ag5
aS'variable_22'
p1225
aS'!='
p1226
aS'variable_7'
p1227
ag43
ag44
ag20
aS'variable_1'
p1228
aS'->'
p1229
aS'variable_16'
p1230
aS'->'
p1231
aS'variable_23'
p1232
ag34
ag39
ag24
aS'if'
p1233
ag5
ag5
aS'variable_1'
p1234
aS'->'
p1235
aS'variable_16'
p1236
aS'->'
p1237
aS'variable_24'
p1238
ag34
aS'func_3'
p1239
ag5
aS'variable_22'
p1240
ag20
ag20
aS'=='
p1241
aS'NULL'
p1242
ag20
aS'variable_1'
p1243
aS'->'
p1244
aS'variable_16'
p1245
aS'->'
p1246
aS'variable_23'
p1247
ag34
aS'variable_22'
p1248
ag24
aS'if'
p1249
ag5
aS'variable_6'
p1250
aS'=='
p1251
aS'variable_25'
p1252
aS'&&'
p1253
aS'variable_1'
p1254
aS'->'
p1255
aS'variable_20'
p1256
aS'!='
p1257
aS'variable_21'
p1258
ag20
aS'unsigned'
p1259
aS'char'
p1260
ag7
aS'variable_13'
p1261
ag34
aS'variable_9'
p1262
ag24
aS'int'
p1263
aS'variable_26'
p1264
ag34
ag5
ag7
ag5
aS'variable_13'
p1265
aS'++'
p1266
ag20
aS'<<'
p1267
ag247
ag20
ag24
aS'variable_26'
p1268
aS'+='
p1269
ag5
ag7
ag5
aS'variable_13'
p1270
aS'++'
p1271
ag20
ag20
ag24
aS'if'
p1272
ag5
aS'variable_26'
p1273
aS'!='
p1274
aS'variable_7'
p1275
ag43
ag51
ag20
aS'variable_1'
p1276
aS'->'
p1277
aS'variable_16'
p1278
aS'->'
p1279
aS'variable_27'
p1280
ag34
ag39
ag24
aS'if'
p1281
ag5
ag5
aS'variable_1'
p1282
aS'->'
p1283
aS'variable_16'
p1284
aS'->'
p1285
aS'variable_28'
p1286
ag34
aS'func_4'
p1287
ag5
aS'variable_26'
p1288
ag20
ag20
aS'=='
p1289
aS'NULL'
p1290
ag20
aS'variable_1'
p1291
aS'->'
p1292
aS'variable_16'
p1293
aS'->'
p1294
aS'variable_27'
p1295
ag34
aS'variable_26'
p1296
ag24
aS'if'
p1297
ag5
aS'variable_6'
p1298
aS'=='
p1299
aS'variable_29'
p1300
aS'&&'
p1301
aS'variable_1'
p1302
aS'->'
p1303
aS'variable_20'
p1304
aS'!='
p1305
aS'variable_21'
p1306
ag20
aS'unsigned'
p1307
aS'char'
p1308
ag7
aS'variable_13'
p1309
ag34
aS'variable_9'
p1310
ag24
aS'if'
p1311
ag5
aS'variable_7'
p1312
ag59
ag51
ag20
aS'if'
p1313
ag5
aS'variable_1'
p1314
aS'->'
p1315
aS'variable_30'
p1316
aS'->'
p1317
aS'variable_31'
p1318
aS'!='
p1319
aS'variable_7'
p1320
ag43
ag51
ag20
aS'if'
p1321
ag5
aS'variable_1'
p1322
aS'->'
p1323
aS'variable_30'
p1324
aS'->'
p1325
aS'variable_31'
p1326
aS'=='
p1327
ag39
ag20
aS'variable_1'
p1328
aS'->'
p1329
aS'variable_30'
p1330
aS'->'
p1331
aS'variable_32'
p1332
ag34
aS'func_5'
p1333
ag5
ag44
ag20
ag24
aS'variable_1'
p1334
aS'->'
p1335
aS'variable_30'
p1336
aS'->'
p1337
aS'variable_32'
p1338
ag34
aS'func_6'
p1339
ag5
aS'variable_13'
p1340
ag9
aS'variable_1'
p1341
aS'->'
p1342
aS'variable_30'
p1343
aS'->'
p1344
aS'variable_31'
p1345
ag20
ag24
aS'if'
p1346
ag5
aS'variable_1'
p1347
aS'->'
p1348
aS'variable_30'
p1349
aS'->'
p1350
aS'variable_32'
p1351
aS'=='
p1352
aS'NULL'
p1353
ag20
aS'if'
p1354
ag5
aS'variable_6'
p1355
aS'=='
p1356
aS'variable_33'
p1357
ag20
aS'if'
p1358
ag5
aS'variable_1'
p1359
aS'->'
p1360
aS'variable_34'
p1361
aS'&&'
p1362
ag391
aS'variable_1'
p1363
aS'->'
p1364
aS'func_7'
p1365
ag5
aS'variable_1'
p1366
ag9
aS'variable_9'
p1367
ag9
aS'variable_7'
p1368
ag9
aS'variable_1'
p1369
aS'->'
p1370
aS'variable_35'
p1371
ag20
ag20
aS'if'
p1372
ag5
aS'variable_6'
p1373
aS'=='
p1374
aS'variable_36'
p1375
ag20
aS'if'
p1376
ag5
ag391
aS'func_8'
p1377
ag5
aS'variable_1'
p1378
ag9
aS'variable_9'
p1379
ag9
aS'variable_7'
p1380
ag9
aS'variable_5'
p1381
ag20
ag20
aS'if'
p1382
ag5
aS'variable_6'
p1383
aS'=='
p1384
aS'variable_37'
p1385
aS'&&'
p1386
aS'variable_1'
p1387
aS'->'
p1388
aS'variable_20'
p1389
aS'!='
p1390
aS'variable_21'
p1391
aS'&&'
p1392
aS'variable_1'
p1393
aS'->'
p1394
aS'variable_38'
p1395
aS'->'
p1396
aS'variable_39'
p1397
ag20
aS'if'
p1398
ag5
aS'variable_7'
p1399
ag59
ag429
ag20
aS'variable_1'
p1400
aS'->'
p1401
aS'variable_11'
p1402
ag34
ag7
aS'variable_9'
p1403
aS'++'
p1404
ag24
aS'variable_7'
p1405
aS'--'
p1406
ag24
aS'if'
p1407
ag5
aS'variable_1'
p1408
aS'->'
p1409
aS'variable_11'
p1410
aS'=='
p1411
aS'variable_40'
p1412
ag20
aS'const'
p1413
aS'unsigned'
p1414
aS'char'
p1415
ag7
aS'variable_13'
p1416
ag24
aS'int'
p1417
aS'variable_15'
p1418
ag24
aS'variable_7'
p1419
aS'-='
p1420
ag51
ag24
aS'if'
p1421
ag5
aS'variable_15'
p1422
ag47
aS'variable_7'
p1423
ag20
aS'while'
p1424
ag5
aS'variable_15'
p1425
ag47
ag39
ag20
aS'variable_41'
p1426
ag7
aS'variable_42'
p1427
ag24
aS'int'
p1428
aS'variable_43'
p1429
ag24
aS'if'
p1430
ag5
aS'variable_15'
p1431
ag59
ag62
ag20
aS'variable_15'
p1432
aS'-='
p1433
ag51
ag49
aS'variable_43'
p1434
ag24
aS'if'
p1435
ag5
aS'variable_15'
p1436
ag59
ag39
ag20
aS'variable_13'
p1437
ag34
aS'variable_9'
p1438
ag24
aS'variable_9'
p1439
aS'+='
p1440
aS'variable_43'
p1441
ag24
aS'variable_42'
p1442
ag34
aS'func_9'
p1443
ag5
aS'NULL'
p1444
ag9
ag475
aS'variable_13'
p1445
ag9
aS'variable_43'
p1446
ag20
ag24
aS'if'
p1447
ag5
ag391
aS'variable_42'
p1448
ag20
aS'if'
p1449
ag5
aS'variable_9'
p1450
aS'!='
p1451
aS'variable_13'
p1452
ag20
aS'if'
p1453
ag5
ag391
aS'variable_1'
p1454
aS'->'
p1455
aS'variable_44'
p1456
aS'&&'
p1457
ag391
ag5
aS'variable_1'
p1458
aS'->'
p1459
aS'variable_44'
p1460
ag34
aS'func_10'
p1461
ag5
ag20
ag20
ag20
aS'if'
p1462
ag5
ag391
aS'func_11'
p1463
ag5
aS'variable_1'
p1464
aS'->'
p1465
aS'variable_44'
p1466
ag9
aS'variable_42'
p1467
ag20
ag20
aS'variable_7'
p1468
aS'-='
p1469
ag51
ag24
aS'if'
p1470
ag5
aS'variable_15'
p1471
ag47
aS'variable_7'
p1472
ag20
aS'variable_13'
p1473
ag34
aS'variable_9'
p1474
ag24
aS'if'
p1475
ag5
aS'variable_15'
p1476
ag47
ag39
ag20
aS'variable_1'
p1477
aS'->'
p1478
aS'variable_45'
p1479
ag34
aS'func_12'
p1480
ag5
aS'NULL'
p1481
ag9
ag475
aS'variable_13'
p1482
ag9
aS'variable_15'
p1483
ag20
ag24
aS'if'
p1484
ag5
ag391
aS'variable_1'
p1485
aS'->'
p1486
aS'variable_45'
p1487
aS'||'
p1488
ag5
aS'variable_9'
p1489
ag49
aS'variable_15'
p1490
aS'!='
p1491
aS'variable_13'
p1492
ag20
ag20
aS'variable_1'
p1493
aS'->'
p1494
aS'variable_11'
p1495
ag34
ag43
ag44
ag24
aS'variable_9'
p1496
aS'+='
p1497
aS'variable_7'
p1498
ag24
aaa(lp1499
I0
aI0
aI0
aa(lp1500
I456
aI373
aI214
aa(lp1501
(lp1502
S'main'
p1503
aa(lp1504
g1503
aa(lp1505
g1503
aaa(lp1506
S'444 /home/SySeVR/data/CVE_2010_3864_VULN_ssl_parse_clienthello_tlsext.c memcpy 178'
p1507
aS'445 /home/SySeVR/data/CVE_2010_3864_VULN_ssl_parse_clienthello_tlsext.c memcpy 149'
p1508
aS'446 /home/SySeVR/data/CVE_2010_3864_VULN_ssl_parse_clienthello_tlsext.c memcpy 98'
p1509
aa.