(lp0
(lp1
(lp2
S'static'
p3
aS'int'
p4
aS'func_0'
p5
aS'('
p6
aS'variable_0'
p7
aS'*'
p8
ag8
aS'variable_1'
p9
aS','
p10
aS'int'
p11
ag8
aS'variable_2'
p12
aS')'
p13
aS'struct'
p14
aS'variable_3'
p15
ag8
aS'variable_4'
p16
aS';'
p17
aS'variable_0'
p18
ag8
aS'variable_5'
p19
ag10
ag8
aS'variable_6'
p20
ag10
ag8
aS'variable_7'
p21
ag17
aS'uint16_t'
p22
aS'variable_8'
p23
aS'='
p24
aS'0'
p25
ag17
aS'if'
p26
ag6
ag8
aS'variable_2'
p27
aS'>'
p28
ag24
aS'sizeof'
p29
ag6
aS'variable_8'
p30
ag13
ag13
aS'variable_8'
p31
ag24
aS'func_1'
p32
ag6
ag8
aS'variable_1'
p33
ag13
ag17
ag8
aS'variable_2'
p34
aS'-='
p35
aS'sizeof'
p36
ag6
aS'variable_8'
p37
ag13
ag17
ag8
aS'variable_1'
p38
aS'+='
p39
aS'sizeof'
p40
ag6
aS'variable_8'
p41
ag13
ag17
aS'if'
p42
ag6
aS'variable_8'
p43
aS'=='
p44
ag25
aS'||'
p45
aS'variable_8'
p46
ag28
ag8
aS'variable_2'
p47
ag13
aS'variable_5'
p48
ag24
ag8
aS'variable_1'
p49
ag17
aS'variable_6'
p50
ag24
aS'variable_5'
p51
aS'+'
p52
aS'variable_8'
p53
ag17
aS'variable_5'
p54
aS'+='
p55
aS'variable_9'
p56
ag17
aS'if'
p57
ag6
ag6
aS'variable_6'
p58
aS'-'
p59
aS'variable_5'
p60
ag13
aS'<'
p61
aS'12'
p62
ag13
aS'variable_5'
p63
aS'++'
p64
ag17
aS'variable_5'
p65
aS'+='
p66
aS'8'
p67
ag17
aS'variable_5'
p68
aS'+='
p69
aS'2'
p70
ag17
aS'variable_5'
p71
aS'+='
p72
ag70
ag17
aS'while'
p73
ag6
aS'variable_5'
p74
ag61
ag24
aS'variable_6'
p75
ag59
ag70
ag13
aS'struct'
p76
aS'variable_10'
p77
ag8
aS'variable_11'
p78
ag24
ag6
aS'void'
p79
ag8
ag13
aS'variable_5'
p80
ag17
aS'if'
p81
ag6
aS'variable_5'
p82
ag52
aS'variable_11'
p83
aS'->'
p84
aS'variable_12'
p85
ag28
aS'variable_6'
p86
ag13
aS'switch'
p87
ag6
aS'variable_11'
p88
aS'->'
p89
aS'variable_13'
p90
ag13
aS'variable_4'
p91
ag24
ag6
aS'struct'
p92
aS'ieeetypes_countryinfoset'
p93
ag8
ag13
aS'variable_5'
p94
ag17
aS'if'
p95
ag6
aS'variable_4'
p96
aS'->'
p97
aS'variable_12'
p98
ag61
aS'sizeof'
p99
ag6
aS'variable_4'
p100
aS'->'
p101
aS'variable_14'
p102
ag13
aS'||'
p103
aS'variable_4'
p104
aS'->'
p105
aS'variable_12'
p106
ag28
aS'254'
p107
ag13
aS'if'
p108
ag6
aS'variable_11'
p109
aS'->'
p110
aS'variable_12'
p111
ag28
ag24
aS'4'
p112
aS'&&'
p113
aS'variable_11'
p114
aS'->'
p115
aS'variable_15'
p116
aS'['
p117
ag25
aS']'
p118
aS'=='
p119
aS'0x00'
p120
aS'&&'
p121
aS'variable_11'
p122
aS'->'
p123
aS'variable_15'
p124
ag117
aS'1'
p125
ag118
aS'=='
p126
aS'0x50'
p127
aS'&&'
p128
aS'variable_11'
p129
aS'->'
p130
aS'variable_15'
p131
ag117
ag70
ag118
aS'=='
p132
aS'0xf2'
p133
aS'&&'
p134
aS'variable_11'
p135
aS'->'
p136
aS'variable_15'
p137
ag117
aS'3'
p138
ag118
aS'=='
p139
aS'0x01'
p140
ag13
aS'variable_16'
p141
aS'->'
p142
aS'variable_17'
p143
ag24
aS'min'
p144
ag6
aS'variable_11'
p145
aS'->'
p146
aS'variable_12'
p147
ag52
ag70
ag10
aS'variable_18'
p148
ag13
ag17
aS'memcpy'
p149
ag6
aS'variable_16'
p150
aS'->'
p151
aS'variable_19'
p152
ag10
aS'variable_11'
p153
ag10
aS'variable_16'
p154
aS'->'
p155
aS'variable_17'
p156
ag13
ag17
aS'func_2'
p157
ag6
aS'variable_20'
p158
ag10
aS'"'
p159
aS'WPA'
p160
aS'IE'
p161
ag159
ag10
aS'variable_16'
p162
aS'->'
p163
aS'variable_19'
p164
ag10
aS'variable_11'
p165
aS'->'
p166
aS'variable_12'
p167
ag13
ag17
aS'variable_5'
p168
aS'+='
p169
aS'variable_11'
p170
aS'->'
p171
aS'variable_12'
p172
ag52
ag70
ag17
aa(lp173
S'static'
p174
aS'int'
p175
aS'func_0'
p176
ag6
aS'variable_0'
p177
ag8
ag8
aS'variable_1'
p178
ag10
aS'int'
p179
ag8
aS'variable_2'
p180
ag13
aS'struct'
p181
aS'variable_3'
p182
ag8
aS'variable_4'
p183
ag17
aS'struct'
p184
aS'variable_5'
p185
ag8
aS'variable_6'
p186
ag17
aS'struct'
p187
aS'variable_7'
p188
ag8
aS'variable_8'
p189
ag17
aS'variable_0'
p190
ag8
aS'variable_9'
p191
ag10
ag8
aS'variable_10'
p192
ag10
ag8
aS'variable_11'
p193
ag17
aS'uint8_t'
p194
aS'variable_12'
p195
ag24
ag25
ag10
aS'variable_13'
p196
ag24
ag25
ag10
aS'variable_14'
p197
ag24
ag25
ag17
aS'uint16_t'
p198
aS'variable_15'
p199
ag24
ag25
ag17
aS'if'
p200
ag6
ag8
aS'variable_2'
p201
ag28
ag24
aS'sizeof'
p202
ag6
aS'variable_15'
p203
ag13
ag13
aS'variable_15'
p204
ag24
aS'func_1'
p205
ag6
ag8
aS'variable_1'
p206
ag13
ag17
ag8
aS'variable_2'
p207
aS'-='
p208
aS'sizeof'
p209
ag6
aS'variable_15'
p210
ag13
ag17
ag8
aS'variable_1'
p211
aS'+='
p212
aS'sizeof'
p213
ag6
aS'variable_15'
p214
ag13
ag17
aS'if'
p215
ag6
aS'variable_15'
p216
aS'=='
p217
ag25
aS'||'
p218
aS'variable_15'
p219
ag28
ag8
aS'variable_2'
p220
ag13
aS'variable_9'
p221
ag24
ag8
aS'variable_1'
p222
ag17
aS'variable_10'
p223
ag24
aS'variable_9'
p224
ag52
aS'variable_15'
p225
ag17
aS'memcpy'
p226
ag6
aS'variable_16'
p227
aS'->'
p228
aS'variable_17'
p229
ag10
aS'variable_9'
p230
ag10
aS'variable_18'
p231
ag13
ag17
aS'variable_9'
p232
aS'+='
p233
aS'variable_18'
p234
ag17
aS'if'
p235
ag6
ag6
aS'variable_10'
p236
ag59
aS'variable_9'
p237
ag13
ag61
aS'12'
p238
ag13
aS'variable_16'
p239
aS'->'
p240
aS'variable_19'
p241
ag24
ag8
aS'variable_9'
p242
ag17
aS'variable_9'
p243
aS'++'
p244
ag17
aS'variable_9'
p245
aS'+='
p246
ag67
ag17
aS'variable_16'
p247
aS'->'
p248
aS'variable_20'
p249
ag24
aS'func_2'
p250
ag6
aS'variable_9'
p251
ag13
ag17
aS'variable_9'
p252
aS'+='
p253
ag70
ag17
aS'variable_16'
p254
aS'->'
p255
aS'variable_21'
p256
ag24
aS'func_3'
p257
ag6
aS'variable_9'
p258
ag13
ag17
aS'variable_9'
p259
aS'+='
p260
ag70
ag17
aS'if'
p261
ag6
aS'variable_16'
p262
aS'->'
p263
aS'variable_21'
p264
aS'&'
p265
aS'variable_22'
p266
ag13
aS'variable_16'
p267
aS'->'
p268
aS'variable_23'
p269
ag24
aS'variable_24'
p270
ag17
aS'variable_16'
p271
aS'->'
p272
aS'variable_23'
p273
ag24
aS'variable_25'
p274
ag17
aS'while'
p275
ag6
aS'variable_9'
p276
ag61
ag24
aS'variable_10'
p277
ag59
ag70
ag13
aS'struct'
p278
aS'variable_26'
p279
ag8
aS'variable_27'
p280
ag24
ag6
aS'void'
p281
ag8
ag13
aS'variable_9'
p282
ag17
aS'if'
p283
ag6
aS'variable_9'
p284
ag52
aS'variable_27'
p285
aS'->'
p286
aS'variable_28'
p287
ag28
aS'variable_10'
p288
ag13
aS'switch'
p289
ag6
aS'variable_27'
p290
aS'->'
p291
aS'variable_29'
p292
ag13
aS'variable_16'
p293
aS'->'
p294
aS'variable_30'
p295
ag24
aS'variable_27'
p296
aS'->'
p297
aS'variable_28'
p298
ag17
aS'memcpy'
p299
ag6
aS'variable_16'
p300
aS'->'
p301
aS'variable_31'
p302
ag10
aS'variable_27'
p303
aS'->'
p304
aS'variable_32'
p305
ag10
aS'variable_27'
p306
aS'->'
p307
aS'variable_28'
p308
ag13
ag17
aS'variable_14'
p309
ag24
aS'func_4'
p310
ag6
aS'variable_0'
p311
ag10
aS'variable_33'
p312
ag10
aS'variable_27'
p313
aS'->'
p314
aS'variable_28'
p315
ag13
ag17
aS'memcpy'
p316
ag6
aS'variable_16'
p317
aS'->'
p318
aS'variable_34'
p319
ag10
aS'variable_27'
p320
aS'->'
p321
aS'variable_32'
p322
ag10
aS'variable_14'
p323
ag13
ag17
aS'variable_13'
p324
ag24
ag125
ag17
aS'variable_4'
p325
ag24
ag6
aS'struct'
p326
aS'ieeetypes_dsparamset'
p327
ag8
ag13
aS'variable_9'
p328
ag17
aS'variable_16'
p329
aS'->'
p330
aS'variable_35'
p331
ag24
aS'variable_4'
p332
aS'->'
p333
aS'variable_36'
p334
ag17
aS'variable_6'
p335
ag24
ag6
aS'struct'
p336
aS'ieeetypes_ibssparamset'
p337
ag8
ag13
aS'variable_9'
p338
ag17
aS'variable_16'
p339
aS'->'
p340
aS'variable_37'
p341
ag24
aS'func_5'
p342
ag6
aS'variable_6'
p343
aS'->'
p344
aS'variable_37'
p345
ag13
ag17
aS'variable_8'
p346
ag24
ag6
aS'struct'
p347
aS'ieeetypes_countryinfoset'
p348
ag8
ag13
aS'variable_9'
p349
ag17
aS'if'
p350
ag6
aS'variable_8'
p351
aS'->'
p352
aS'variable_28'
p353
ag61
aS'sizeof'
p354
ag6
aS'variable_8'
p355
aS'->'
p356
aS'variable_38'
p357
ag13
aS'||'
p358
aS'variable_8'
p359
aS'->'
p360
aS'variable_28'
p361
ag28
aS'254'
p362
ag13
aS'if'
p363
ag6
aS'!'
p364
aS'variable_13'
p365
ag13
aS'variable_12'
p366
ag24
aS'variable_27'
p367
aS'->'
p368
aS'variable_28'
p369
ag17
aS'if'
p370
ag6
aS'variable_14'
p371
ag52
aS'variable_12'
p372
ag28
aS'variable_33'
p373
ag13
aS'variable_12'
p374
ag24
aS'variable_33'
p375
ag59
aS'variable_14'
p376
ag17
aS'variable_11'
p377
ag24
aS'variable_16'
p378
aS'->'
p379
aS'variable_34'
p380
ag52
aS'variable_14'
p381
ag17
aS'memcpy'
p382
ag6
aS'variable_11'
p383
ag10
aS'variable_27'
p384
aS'->'
p385
aS'variable_32'
p386
ag10
aS'variable_12'
p387
ag13
ag17
aS'if'
p388
ag6
aS'variable_27'
p389
aS'->'
p390
aS'variable_28'
p391
ag28
ag24
ag112
aS'&&'
p392
aS'variable_27'
p393
aS'->'
p394
aS'variable_32'
p395
ag117
ag25
ag118
aS'=='
p396
aS'0x00'
p397
aS'&&'
p398
aS'variable_27'
p399
aS'->'
p400
aS'variable_32'
p401
ag117
ag125
ag118
aS'=='
p402
aS'0x50'
p403
aS'&&'
p404
aS'variable_27'
p405
aS'->'
p406
aS'variable_32'
p407
ag117
ag70
ag118
aS'=='
p408
aS'0xf2'
p409
aS'&&'
p410
aS'variable_27'
p411
aS'->'
p412
aS'variable_32'
p413
ag117
ag138
ag118
aS'=='
p414
aS'0x01'
p415
ag13
aS'variable_16'
p416
aS'->'
p417
aS'variable_39'
p418
ag24
aS'min'
p419
ag6
aS'variable_27'
p420
aS'->'
p421
aS'variable_28'
p422
ag52
ag70
ag10
aS'variable_40'
p423
ag13
ag17
aS'if'
p424
ag6
aS'variable_27'
p425
aS'->'
p426
aS'variable_28'
p427
ag28
ag24
aS'variable_41'
p428
aS'&&'
p429
aS'variable_27'
p430
aS'->'
p431
aS'variable_32'
p432
ag117
ag25
ag118
aS'=='
p433
aS'0x00'
p434
aS'&&'
p435
aS'variable_27'
p436
aS'->'
p437
aS'variable_32'
p438
ag117
ag125
ag118
aS'=='
p439
aS'0x50'
p440
aS'&&'
p441
aS'variable_27'
p442
aS'->'
p443
aS'variable_32'
p444
ag117
ag70
ag118
aS'=='
p445
aS'0x43'
p446
aS'&&'
p447
aS'variable_27'
p448
aS'->'
p449
aS'variable_32'
p450
ag117
ag138
ag118
aS'=='
p451
aS'0x04'
p452
ag13
aS'variable_16'
p453
aS'->'
p454
aS'variable_42'
p455
ag24
ag125
ag17
aS'variable_16'
p456
aS'->'
p457
aS'variable_43'
p458
ag24
aS'min'
p459
ag6
aS'variable_27'
p460
aS'->'
p461
aS'variable_28'
p462
ag52
ag70
ag10
aS'variable_40'
p463
ag13
ag17
aS'variable_9'
p464
aS'+='
p465
aS'variable_27'
p466
aS'->'
p467
aS'variable_28'
p468
ag52
ag70
ag17
aa(lp469
S'static'
p470
aS'int'
p471
aS'func_0'
p472
ag6
aS'variable_0'
p473
ag8
ag8
aS'variable_1'
p474
ag10
aS'int'
p475
ag8
aS'variable_2'
p476
ag13
aS'struct'
p477
aS'variable_3'
p478
ag8
aS'variable_4'
p479
ag17
aS'struct'
p480
aS'variable_5'
p481
ag8
aS'variable_6'
p482
ag17
aS'struct'
p483
aS'variable_7'
p484
ag8
aS'variable_8'
p485
ag17
aS'variable_0'
p486
ag8
aS'variable_9'
p487
ag10
ag8
aS'variable_10'
p488
ag10
ag8
aS'variable_11'
p489
ag17
aS'uint16_t'
p490
aS'variable_12'
p491
ag24
ag25
ag17
aS'if'
p492
ag6
ag8
aS'variable_2'
p493
ag28
ag24
aS'sizeof'
p494
ag6
aS'variable_12'
p495
ag13
ag13
aS'variable_12'
p496
ag24
aS'func_1'
p497
ag6
ag8
aS'variable_1'
p498
ag13
ag17
ag8
aS'variable_2'
p499
aS'-='
p500
aS'sizeof'
p501
ag6
aS'variable_12'
p502
ag13
ag17
ag8
aS'variable_1'
p503
aS'+='
p504
aS'sizeof'
p505
ag6
aS'variable_12'
p506
ag13
ag17
aS'if'
p507
ag6
aS'variable_12'
p508
aS'=='
p509
ag25
aS'||'
p510
aS'variable_12'
p511
ag28
ag8
aS'variable_2'
p512
ag13
aS'variable_9'
p513
ag24
ag8
aS'variable_1'
p514
ag17
aS'variable_10'
p515
ag24
aS'variable_9'
p516
ag52
aS'variable_12'
p517
ag17
aS'memcpy'
p518
ag6
aS'variable_13'
p519
aS'->'
p520
aS'variable_14'
p521
ag10
aS'variable_9'
p522
ag10
aS'variable_15'
p523
ag13
ag17
aS'variable_9'
p524
aS'+='
p525
aS'variable_15'
p526
ag17
aS'if'
p527
ag6
ag6
aS'variable_10'
p528
ag59
aS'variable_9'
p529
ag13
ag61
aS'12'
p530
ag13
aS'variable_13'
p531
aS'->'
p532
aS'variable_16'
p533
ag24
ag8
aS'variable_9'
p534
ag17
aS'variable_9'
p535
aS'++'
p536
ag17
aS'variable_9'
p537
aS'+='
p538
ag67
ag17
aS'variable_13'
p539
aS'->'
p540
aS'variable_17'
p541
ag24
aS'func_2'
p542
ag6
aS'variable_9'
p543
ag13
ag17
aS'variable_9'
p544
aS'+='
p545
ag70
ag17
aS'variable_13'
p546
aS'->'
p547
aS'variable_18'
p548
ag24
aS'func_3'
p549
ag6
aS'variable_9'
p550
ag13
ag17
aS'variable_9'
p551
aS'+='
p552
ag70
ag17
aS'if'
p553
ag6
aS'variable_13'
p554
aS'->'
p555
aS'variable_18'
p556
ag265
aS'variable_19'
p557
ag13
aS'variable_13'
p558
aS'->'
p559
aS'variable_20'
p560
ag24
aS'variable_21'
p561
ag17
aS'variable_13'
p562
aS'->'
p563
aS'variable_20'
p564
ag24
aS'variable_22'
p565
ag17
aS'while'
p566
ag6
aS'variable_9'
p567
ag61
ag24
aS'variable_10'
p568
ag59
ag70
ag13
aS'struct'
p569
aS'variable_23'
p570
ag8
aS'variable_24'
p571
ag24
ag6
aS'void'
p572
ag8
ag13
aS'variable_9'
p573
ag17
aS'if'
p574
ag6
aS'variable_9'
p575
ag52
aS'variable_24'
p576
aS'->'
p577
aS'variable_25'
p578
ag28
aS'variable_10'
p579
ag13
aS'switch'
p580
ag6
aS'variable_24'
p581
aS'->'
p582
aS'variable_26'
p583
ag13
aS'variable_13'
p584
aS'->'
p585
aS'variable_27'
p586
ag24
aS'variable_24'
p587
aS'->'
p588
aS'variable_25'
p589
ag17
aS'memcpy'
p590
ag6
aS'variable_13'
p591
aS'->'
p592
aS'variable_28'
p593
ag10
aS'variable_24'
p594
aS'->'
p595
aS'variable_29'
p596
ag10
aS'variable_24'
p597
aS'->'
p598
aS'variable_25'
p599
ag13
ag17
aS'variable_30'
p600
ag24
aS'func_4'
p601
ag6
aS'variable_0'
p602
ag10
aS'variable_31'
p603
ag10
aS'variable_24'
p604
aS'->'
p605
aS'variable_25'
p606
ag13
ag17
aS'memcpy'
p607
ag6
aS'variable_13'
p608
aS'->'
p609
aS'variable_32'
p610
ag10
aS'variable_24'
p611
aS'->'
p612
aS'variable_29'
p613
ag10
aS'variable_30'
p614
ag13
ag17
aS'variable_4'
p615
ag24
ag6
aS'struct'
p616
aS'ieeetypes_dsparamset'
p617
ag8
ag13
aS'variable_9'
p618
ag17
aS'variable_13'
p619
aS'->'
p620
aS'variable_33'
p621
ag24
aS'variable_4'
p622
aS'->'
p623
aS'variable_34'
p624
ag17
aS'variable_6'
p625
ag24
ag6
aS'struct'
p626
aS'ieeetypes_ibssparamset'
p627
ag8
ag13
aS'variable_9'
p628
ag17
aS'variable_13'
p629
aS'->'
p630
aS'variable_35'
p631
ag24
aS'func_5'
p632
ag6
aS'variable_6'
p633
aS'->'
p634
aS'variable_35'
p635
ag13
ag17
aS'variable_8'
p636
ag24
ag6
aS'struct'
p637
aS'ieeetypes_countryinfoset'
p638
ag8
ag13
aS'variable_9'
p639
ag17
aS'if'
p640
ag6
aS'variable_8'
p641
aS'->'
p642
aS'variable_25'
p643
ag61
aS'sizeof'
p644
ag6
aS'variable_8'
p645
aS'->'
p646
aS'variable_36'
p647
ag13
aS'||'
p648
aS'variable_8'
p649
aS'->'
p650
aS'variable_25'
p651
ag28
aS'254'
p652
ag13
aS'memcpy'
p653
ag6
ag265
aS'variable_13'
p654
aS'->'
p655
aS'variable_37'
p656
ag10
aS'variable_8'
p657
ag10
aS'variable_8'
p658
aS'->'
p659
aS'variable_25'
p660
ag52
ag70
ag13
ag17
aS'if'
p661
ag6
aS'variable_24'
p662
aS'->'
p663
aS'variable_25'
p664
ag28
ag24
ag112
aS'&&'
p665
aS'variable_24'
p666
aS'->'
p667
aS'variable_29'
p668
ag117
ag25
ag118
aS'=='
p669
aS'0x00'
p670
aS'&&'
p671
aS'variable_24'
p672
aS'->'
p673
aS'variable_29'
p674
ag117
ag125
ag118
aS'=='
p675
aS'0x50'
p676
aS'&&'
p677
aS'variable_24'
p678
aS'->'
p679
aS'variable_29'
p680
ag117
ag70
ag118
aS'=='
p681
aS'0xf2'
p682
aS'&&'
p683
aS'variable_24'
p684
aS'->'
p685
aS'variable_29'
p686
ag117
ag138
ag118
aS'=='
p687
aS'0x01'
p688
ag13
aS'variable_13'
p689
aS'->'
p690
aS'variable_38'
p691
ag24
aS'min'
p692
ag6
aS'variable_24'
p693
aS'->'
p694
aS'variable_25'
p695
ag52
ag70
ag10
aS'variable_39'
p696
ag13
ag17
aS'if'
p697
ag6
aS'variable_24'
p698
aS'->'
p699
aS'variable_25'
p700
ag28
ag24
aS'variable_40'
p701
aS'&&'
p702
aS'variable_24'
p703
aS'->'
p704
aS'variable_29'
p705
ag117
ag25
ag118
aS'=='
p706
aS'0x00'
p707
aS'&&'
p708
aS'variable_24'
p709
aS'->'
p710
aS'variable_29'
p711
ag117
ag125
ag118
aS'=='
p712
aS'0x50'
p713
aS'&&'
p714
aS'variable_24'
p715
aS'->'
p716
aS'variable_29'
p717
ag117
ag70
ag118
aS'=='
p718
aS'0x43'
p719
aS'&&'
p720
aS'variable_24'
p721
aS'->'
p722
aS'variable_29'
p723
ag117
ag138
ag118
aS'=='
p724
aS'0x04'
p725
ag13
aS'variable_13'
p726
aS'->'
p727
aS'variable_41'
p728
ag24
ag125
ag17
aS'variable_13'
p729
aS'->'
p730
aS'variable_42'
p731
ag24
aS'min'
p732
ag6
aS'variable_24'
p733
aS'->'
p734
aS'variable_25'
p735
ag52
ag70
ag10
aS'variable_39'
p736
ag13
ag17
aS'variable_9'
p737
aS'+='
p738
aS'variable_24'
p739
aS'->'
p740
aS'variable_25'
p741
ag52
ag70
ag17
aa(lp742
S'static'
p743
aS'int'
p744
aS'func_0'
p745
ag6
aS'variable_0'
p746
ag8
ag8
aS'variable_1'
p747
ag10
aS'int'
p748
ag8
aS'variable_2'
p749
ag13
aS'struct'
p750
aS'variable_3'
p751
ag8
aS'variable_4'
p752
ag17
aS'struct'
p753
aS'variable_5'
p754
ag8
aS'variable_6'
p755
ag17
aS'struct'
p756
aS'variable_7'
p757
ag8
aS'variable_8'
p758
ag17
aS'struct'
p759
aS'variable_9'
p760
ag8
aS'variable_10'
p761
ag17
aS'variable_0'
p762
ag8
aS'variable_11'
p763
ag10
ag8
aS'variable_12'
p764
ag10
ag8
aS'variable_13'
p765
ag17
aS'uint16_t'
p766
aS'variable_14'
p767
ag24
ag25
ag17
aS'if'
p768
ag6
ag8
aS'variable_2'
p769
ag28
ag24
aS'sizeof'
p770
ag6
aS'variable_14'
p771
ag13
ag13
aS'variable_14'
p772
ag24
aS'func_1'
p773
ag6
ag8
aS'variable_1'
p774
ag13
ag17
ag8
aS'variable_2'
p775
aS'-='
p776
aS'sizeof'
p777
ag6
aS'variable_14'
p778
ag13
ag17
ag8
aS'variable_1'
p779
aS'+='
p780
aS'sizeof'
p781
ag6
aS'variable_14'
p782
ag13
ag17
aS'if'
p783
ag6
aS'variable_14'
p784
aS'=='
p785
ag25
aS'||'
p786
aS'variable_14'
p787
ag28
ag8
aS'variable_2'
p788
ag13
aS'variable_11'
p789
ag24
ag8
aS'variable_1'
p790
ag17
aS'variable_12'
p791
ag24
aS'variable_11'
p792
ag52
aS'variable_14'
p793
ag17
aS'memcpy'
p794
ag6
aS'variable_15'
p795
aS'->'
p796
aS'variable_16'
p797
ag10
aS'variable_11'
p798
ag10
aS'variable_17'
p799
ag13
ag17
aS'variable_11'
p800
aS'+='
p801
aS'variable_17'
p802
ag17
aS'if'
p803
ag6
ag6
aS'variable_12'
p804
ag59
aS'variable_11'
p805
ag13
ag61
aS'12'
p806
ag13
aS'variable_15'
p807
aS'->'
p808
aS'variable_18'
p809
ag24
ag8
aS'variable_11'
p810
ag17
aS'variable_11'
p811
aS'++'
p812
ag17
aS'variable_11'
p813
aS'+='
p814
ag67
ag17
aS'variable_15'
p815
aS'->'
p816
aS'variable_19'
p817
ag24
aS'func_2'
p818
ag6
aS'variable_11'
p819
ag13
ag17
aS'variable_11'
p820
aS'+='
p821
ag70
ag17
aS'variable_15'
p822
aS'->'
p823
aS'variable_20'
p824
ag24
aS'func_3'
p825
ag6
aS'variable_11'
p826
ag13
ag17
aS'variable_11'
p827
aS'+='
p828
ag70
ag17
aS'if'
p829
ag6
aS'variable_15'
p830
aS'->'
p831
aS'variable_20'
p832
ag265
aS'variable_21'
p833
ag13
aS'variable_15'
p834
aS'->'
p835
aS'variable_22'
p836
ag24
aS'variable_23'
p837
ag17
aS'variable_15'
p838
aS'->'
p839
aS'variable_22'
p840
ag24
aS'variable_24'
p841
ag17
aS'while'
p842
ag6
aS'variable_11'
p843
ag61
ag24
aS'variable_12'
p844
ag59
ag70
ag13
aS'struct'
p845
aS'variable_25'
p846
ag8
aS'variable_26'
p847
ag24
ag6
aS'void'
p848
ag8
ag13
aS'variable_11'
p849
ag17
aS'if'
p850
ag6
aS'variable_11'
p851
ag52
aS'variable_26'
p852
aS'->'
p853
aS'variable_27'
p854
ag28
aS'variable_12'
p855
ag13
aS'switch'
p856
ag6
aS'variable_26'
p857
aS'->'
p858
aS'variable_28'
p859
ag13
aS'variable_15'
p860
aS'->'
p861
aS'variable_29'
p862
ag24
aS'variable_26'
p863
aS'->'
p864
aS'variable_27'
p865
ag17
aS'memcpy'
p866
ag6
aS'variable_15'
p867
aS'->'
p868
aS'variable_30'
p869
ag10
aS'variable_26'
p870
aS'->'
p871
aS'variable_31'
p872
ag10
aS'variable_26'
p873
aS'->'
p874
aS'variable_27'
p875
ag13
ag17
aS'variable_32'
p876
ag24
aS'func_4'
p877
ag6
aS'variable_0'
p878
ag10
aS'variable_33'
p879
ag10
aS'variable_26'
p880
aS'->'
p881
aS'variable_27'
p882
ag13
ag17
aS'memcpy'
p883
ag6
aS'variable_15'
p884
aS'->'
p885
aS'variable_34'
p886
ag10
aS'variable_26'
p887
aS'->'
p888
aS'variable_31'
p889
ag10
aS'variable_32'
p890
ag13
ag17
aS'variable_4'
p891
ag24
ag6
aS'struct'
p892
aS'ieeetypes_dsparamset'
p893
ag8
ag13
aS'variable_11'
p894
ag17
aS'variable_15'
p895
aS'->'
p896
aS'variable_35'
p897
ag24
aS'variable_4'
p898
aS'->'
p899
aS'variable_36'
p900
ag17
aS'variable_6'
p901
ag24
ag6
aS'struct'
p902
aS'ieeetypes_cfparamset'
p903
ag8
ag13
aS'variable_11'
p904
ag17
aS'memcpy'
p905
ag6
ag265
aS'variable_15'
p906
aS'->'
p907
aS'variable_37'
p908
aS'.'
p909
aS'variable_38'
p910
ag10
aS'variable_6'
p911
ag10
aS'sizeof'
p912
ag6
aS'struct'
p913
aS'variable_5'
p914
ag13
ag13
ag17
aS'variable_8'
p915
ag24
ag6
aS'struct'
p916
aS'ieeetypes_ibssparamset'
p917
ag8
ag13
aS'variable_11'
p918
ag17
aS'variable_15'
p919
aS'->'
p920
aS'variable_39'
p921
ag24
aS'func_5'
p922
ag6
aS'variable_8'
p923
aS'->'
p924
aS'variable_39'
p925
ag13
ag17
aS'memmove'
p926
ag6
ag265
aS'variable_15'
p927
aS'->'
p928
aS'variable_37'
p929
ag909
aS'variable_40'
p930
ag10
aS'variable_8'
p931
ag10
aS'sizeof'
p932
ag6
aS'struct'
p933
aS'variable_7'
p934
ag13
ag13
ag17
aS'variable_10'
p935
ag24
ag6
aS'struct'
p936
aS'ieeetypes_countryinfoset'
p937
ag8
ag13
aS'variable_11'
p938
ag17
aS'if'
p939
ag6
aS'variable_10'
p940
aS'->'
p941
aS'variable_27'
p942
ag61
aS'sizeof'
p943
ag6
aS'variable_10'
p944
aS'->'
p945
aS'variable_41'
p946
ag13
aS'||'
p947
aS'variable_10'
p948
aS'->'
p949
aS'variable_27'
p950
ag28
aS'254'
p951
ag13
aS'if'
p952
ag6
aS'variable_26'
p953
aS'->'
p954
aS'variable_27'
p955
ag28
ag24
ag112
aS'&&'
p956
aS'variable_26'
p957
aS'->'
p958
aS'variable_31'
p959
ag117
ag25
ag118
aS'=='
p960
aS'0x00'
p961
aS'&&'
p962
aS'variable_26'
p963
aS'->'
p964
aS'variable_31'
p965
ag117
ag125
ag118
aS'=='
p966
aS'0x50'
p967
aS'&&'
p968
aS'variable_26'
p969
aS'->'
p970
aS'variable_31'
p971
ag117
ag70
ag118
aS'=='
p972
aS'0xf2'
p973
aS'&&'
p974
aS'variable_26'
p975
aS'->'
p976
aS'variable_31'
p977
ag117
ag138
ag118
aS'=='
p978
aS'0x01'
p979
ag13
aS'variable_15'
p980
aS'->'
p981
aS'variable_42'
p982
ag24
aS'min'
p983
ag6
aS'variable_26'
p984
aS'->'
p985
aS'variable_27'
p986
ag52
ag70
ag10
aS'variable_43'
p987
ag13
ag17
aS'if'
p988
ag6
aS'variable_26'
p989
aS'->'
p990
aS'variable_27'
p991
ag28
ag24
aS'variable_44'
p992
aS'&&'
p993
aS'variable_26'
p994
aS'->'
p995
aS'variable_31'
p996
ag117
ag25
ag118
aS'=='
p997
aS'0x00'
p998
aS'&&'
p999
aS'variable_26'
p1000
aS'->'
p1001
aS'variable_31'
p1002
ag117
ag125
ag118
aS'=='
p1003
aS'0x50'
p1004
aS'&&'
p1005
aS'variable_26'
p1006
aS'->'
p1007
aS'variable_31'
p1008
ag117
ag70
ag118
aS'=='
p1009
aS'0x43'
p1010
aS'&&'
p1011
aS'variable_26'
p1012
aS'->'
p1013
aS'variable_31'
p1014
ag117
ag138
ag118
aS'=='
p1015
aS'0x04'
p1016
ag13
aS'variable_15'
p1017
aS'->'
p1018
aS'variable_45'
p1019
ag24
ag125
ag17
aS'variable_15'
p1020
aS'->'
p1021
aS'variable_46'
p1022
ag24
aS'min'
p1023
ag6
aS'variable_26'
p1024
aS'->'
p1025
aS'variable_27'
p1026
ag52
ag70
ag10
aS'variable_43'
p1027
ag13
ag17
aS'variable_11'
p1028
aS'+='
p1029
aS'variable_26'
p1030
aS'->'
p1031
aS'variable_27'
p1032
ag52
ag70
ag17
aa(lp1033
S'static'
p1034
aS'int'
p1035
aS'func_0'
p1036
ag6
aS'variable_0'
p1037
ag8
ag8
aS'variable_1'
p1038
ag10
aS'int'
p1039
ag8
aS'variable_2'
p1040
ag13
aS'struct'
p1041
aS'variable_3'
p1042
ag8
aS'variable_4'
p1043
ag17
aS'struct'
p1044
aS'variable_5'
p1045
ag8
aS'variable_6'
p1046
ag17
aS'struct'
p1047
aS'variable_7'
p1048
ag8
aS'variable_8'
p1049
ag17
aS'struct'
p1050
aS'variable_9'
p1051
ag8
aS'variable_10'
p1052
ag17
aS'variable_0'
p1053
ag8
aS'variable_11'
p1054
ag10
ag8
aS'variable_12'
p1055
ag10
ag8
aS'variable_13'
p1056
ag17
aS'uint16_t'
p1057
aS'variable_14'
p1058
ag24
ag25
ag17
aS'if'
p1059
ag6
ag8
aS'variable_2'
p1060
ag28
ag24
aS'sizeof'
p1061
ag6
aS'variable_14'
p1062
ag13
ag13
aS'variable_14'
p1063
ag24
aS'func_1'
p1064
ag6
ag8
aS'variable_1'
p1065
ag13
ag17
ag8
aS'variable_2'
p1066
aS'-='
p1067
aS'sizeof'
p1068
ag6
aS'variable_14'
p1069
ag13
ag17
ag8
aS'variable_1'
p1070
aS'+='
p1071
aS'sizeof'
p1072
ag6
aS'variable_14'
p1073
ag13
ag17
aS'if'
p1074
ag6
aS'variable_14'
p1075
aS'=='
p1076
ag25
aS'||'
p1077
aS'variable_14'
p1078
ag28
ag8
aS'variable_2'
p1079
ag13
aS'variable_11'
p1080
ag24
ag8
aS'variable_1'
p1081
ag17
aS'variable_12'
p1082
ag24
aS'variable_11'
p1083
ag52
aS'variable_14'
p1084
ag17
aS'memcpy'
p1085
ag6
aS'variable_15'
p1086
aS'->'
p1087
aS'variable_16'
p1088
ag10
aS'variable_11'
p1089
ag10
aS'variable_17'
p1090
ag13
ag17
aS'variable_11'
p1091
aS'+='
p1092
aS'variable_17'
p1093
ag17
aS'if'
p1094
ag6
ag6
aS'variable_12'
p1095
ag59
aS'variable_11'
p1096
ag13
ag61
aS'12'
p1097
ag13
aS'variable_15'
p1098
aS'->'
p1099
aS'variable_18'
p1100
ag24
ag8
aS'variable_11'
p1101
ag17
aS'variable_11'
p1102
aS'++'
p1103
ag17
aS'variable_11'
p1104
aS'+='
p1105
ag67
ag17
aS'variable_15'
p1106
aS'->'
p1107
aS'variable_19'
p1108
ag24
aS'func_2'
p1109
ag6
aS'variable_11'
p1110
ag13
ag17
aS'variable_11'
p1111
aS'+='
p1112
ag70
ag17
aS'variable_15'
p1113
aS'->'
p1114
aS'variable_20'
p1115
ag24
aS'func_3'
p1116
ag6
aS'variable_11'
p1117
ag13
ag17
aS'variable_11'
p1118
aS'+='
p1119
ag70
ag17
aS'if'
p1120
ag6
aS'variable_15'
p1121
aS'->'
p1122
aS'variable_20'
p1123
ag265
aS'variable_21'
p1124
ag13
aS'variable_15'
p1125
aS'->'
p1126
aS'variable_22'
p1127
ag24
aS'variable_23'
p1128
ag17
aS'variable_15'
p1129
aS'->'
p1130
aS'variable_22'
p1131
ag24
aS'variable_24'
p1132
ag17
aS'while'
p1133
ag6
aS'variable_11'
p1134
ag61
ag24
aS'variable_12'
p1135
ag59
ag70
ag13
aS'struct'
p1136
aS'variable_25'
p1137
ag8
aS'variable_26'
p1138
ag24
ag6
aS'void'
p1139
ag8
ag13
aS'variable_11'
p1140
ag17
aS'if'
p1141
ag6
aS'variable_11'
p1142
ag52
aS'variable_26'
p1143
aS'->'
p1144
aS'variable_27'
p1145
ag28
aS'variable_12'
p1146
ag13
aS'switch'
p1147
ag6
aS'variable_26'
p1148
aS'->'
p1149
aS'variable_28'
p1150
ag13
aS'variable_15'
p1151
aS'->'
p1152
aS'variable_29'
p1153
ag24
aS'variable_26'
p1154
aS'->'
p1155
aS'variable_27'
p1156
ag17
aS'memcpy'
p1157
ag6
aS'variable_15'
p1158
aS'->'
p1159
aS'variable_30'
p1160
ag10
aS'variable_26'
p1161
aS'->'
p1162
aS'variable_31'
p1163
ag10
aS'variable_26'
p1164
aS'->'
p1165
aS'variable_27'
p1166
ag13
ag17
aS'variable_32'
p1167
ag24
aS'func_4'
p1168
ag6
aS'variable_0'
p1169
ag10
aS'variable_33'
p1170
ag10
aS'variable_26'
p1171
aS'->'
p1172
aS'variable_27'
p1173
ag13
ag17
aS'memcpy'
p1174
ag6
aS'variable_15'
p1175
aS'->'
p1176
aS'variable_34'
p1177
ag10
aS'variable_26'
p1178
aS'->'
p1179
aS'variable_31'
p1180
ag10
aS'variable_32'
p1181
ag13
ag17
aS'variable_4'
p1182
ag24
ag6
aS'struct'
p1183
aS'ieeetypes_fhparamset'
p1184
ag8
ag13
aS'variable_11'
p1185
ag17
aS'memmove'
p1186
ag6
ag265
aS'variable_15'
p1187
aS'->'
p1188
aS'variable_35'
p1189
ag909
aS'variable_36'
p1190
ag10
aS'variable_4'
p1191
ag10
aS'sizeof'
p1192
ag6
aS'struct'
p1193
aS'variable_3'
p1194
ag13
ag13
ag17
aS'variable_6'
p1195
ag24
ag6
aS'struct'
p1196
aS'ieeetypes_dsparamset'
p1197
ag8
ag13
aS'variable_11'
p1198
ag17
aS'variable_15'
p1199
aS'->'
p1200
aS'variable_37'
p1201
ag24
aS'variable_6'
p1202
aS'->'
p1203
aS'variable_38'
p1204
ag17
aS'memcpy'
p1205
ag6
ag265
aS'variable_15'
p1206
aS'->'
p1207
aS'variable_35'
p1208
ag909
aS'variable_39'
p1209
ag10
aS'variable_6'
p1210
ag10
aS'sizeof'
p1211
ag6
aS'struct'
p1212
aS'variable_5'
p1213
ag13
ag13
ag17
aS'variable_8'
p1214
ag24
ag6
aS'struct'
p1215
aS'ieeetypes_ibssparamset'
p1216
ag8
ag13
aS'variable_11'
p1217
ag17
aS'variable_15'
p1218
aS'->'
p1219
aS'variable_40'
p1220
ag24
aS'func_5'
p1221
ag6
aS'variable_8'
p1222
aS'->'
p1223
aS'variable_40'
p1224
ag13
ag17
aS'variable_10'
p1225
ag24
ag6
aS'struct'
p1226
aS'ieeetypes_countryinfoset'
p1227
ag8
ag13
aS'variable_11'
p1228
ag17
aS'if'
p1229
ag6
aS'variable_10'
p1230
aS'->'
p1231
aS'variable_27'
p1232
ag61
aS'sizeof'
p1233
ag6
aS'variable_10'
p1234
aS'->'
p1235
aS'variable_41'
p1236
ag13
aS'||'
p1237
aS'variable_10'
p1238
aS'->'
p1239
aS'variable_27'
p1240
ag28
aS'254'
p1241
ag13
aS'if'
p1242
ag6
aS'variable_26'
p1243
aS'->'
p1244
aS'variable_27'
p1245
ag28
ag24
ag112
aS'&&'
p1246
aS'variable_26'
p1247
aS'->'
p1248
aS'variable_31'
p1249
ag117
ag25
ag118
aS'=='
p1250
aS'0x00'
p1251
aS'&&'
p1252
aS'variable_26'
p1253
aS'->'
p1254
aS'variable_31'
p1255
ag117
ag125
ag118
aS'=='
p1256
aS'0x50'
p1257
aS'&&'
p1258
aS'variable_26'
p1259
aS'->'
p1260
aS'variable_31'
p1261
ag117
ag70
ag118
aS'=='
p1262
aS'0xf2'
p1263
aS'&&'
p1264
aS'variable_26'
p1265
aS'->'
p1266
aS'variable_31'
p1267
ag117
ag138
ag118
aS'=='
p1268
aS'0x01'
p1269
ag13
aS'variable_15'
p1270
aS'->'
p1271
aS'variable_42'
p1272
ag24
aS'min'
p1273
ag6
aS'variable_26'
p1274
aS'->'
p1275
aS'variable_27'
p1276
ag52
ag70
ag10
aS'variable_43'
p1277
ag13
ag17
aS'if'
p1278
ag6
aS'variable_26'
p1279
aS'->'
p1280
aS'variable_27'
p1281
ag28
ag24
aS'variable_44'
p1282
aS'&&'
p1283
aS'variable_26'
p1284
aS'->'
p1285
aS'variable_31'
p1286
ag117
ag25
ag118
aS'=='
p1287
aS'0x00'
p1288
aS'&&'
p1289
aS'variable_26'
p1290
aS'->'
p1291
aS'variable_31'
p1292
ag117
ag125
ag118
aS'=='
p1293
aS'0x50'
p1294
aS'&&'
p1295
aS'variable_26'
p1296
aS'->'
p1297
aS'variable_31'
p1298
ag117
ag70
ag118
aS'=='
p1299
aS'0x43'
p1300
aS'&&'
p1301
aS'variable_26'
p1302
aS'->'
p1303
aS'variable_31'
p1304
ag117
ag138
ag118
aS'=='
p1305
aS'0x04'
p1306
ag13
aS'variable_15'
p1307
aS'->'
p1308
aS'variable_45'
p1309
ag24
ag125
ag17
aS'variable_15'
p1310
aS'->'
p1311
aS'variable_46'
p1312
ag24
aS'min'
p1313
ag6
aS'variable_26'
p1314
aS'->'
p1315
aS'variable_27'
p1316
ag52
ag70
ag10
aS'variable_43'
p1317
ag13
ag17
aS'variable_11'
p1318
aS'+='
p1319
aS'variable_26'
p1320
aS'->'
p1321
aS'variable_27'
p1322
ag52
ag70
ag17
aa(lp1323
S'static'
p1324
aS'int'
p1325
aS'func_0'
p1326
ag6
aS'variable_0'
p1327
ag8
ag8
aS'variable_1'
p1328
ag10
aS'int'
p1329
ag8
aS'variable_2'
p1330
ag13
aS'struct'
p1331
aS'variable_3'
p1332
ag8
aS'variable_4'
p1333
ag17
aS'struct'
p1334
aS'variable_5'
p1335
ag8
aS'variable_6'
p1336
ag17
aS'struct'
p1337
aS'variable_7'
p1338
ag8
aS'variable_8'
p1339
ag17
aS'variable_0'
p1340
ag8
aS'variable_9'
p1341
ag10
ag8
aS'variable_10'
p1342
ag10
ag8
aS'variable_11'
p1343
ag17
aS'uint16_t'
p1344
aS'variable_12'
p1345
ag24
ag25
ag17
aS'if'
p1346
ag6
ag8
aS'variable_2'
p1347
ag28
ag24
aS'sizeof'
p1348
ag6
aS'variable_12'
p1349
ag13
ag13
aS'variable_12'
p1350
ag24
aS'func_1'
p1351
ag6
ag8
aS'variable_1'
p1352
ag13
ag17
ag8
aS'variable_2'
p1353
aS'-='
p1354
aS'sizeof'
p1355
ag6
aS'variable_12'
p1356
ag13
ag17
ag8
aS'variable_1'
p1357
aS'+='
p1358
aS'sizeof'
p1359
ag6
aS'variable_12'
p1360
ag13
ag17
aS'if'
p1361
ag6
aS'variable_12'
p1362
aS'=='
p1363
ag25
aS'||'
p1364
aS'variable_12'
p1365
ag28
ag8
aS'variable_2'
p1366
ag13
aS'variable_9'
p1367
ag24
ag8
aS'variable_1'
p1368
ag17
aS'variable_10'
p1369
ag24
aS'variable_9'
p1370
ag52
aS'variable_12'
p1371
ag17
aS'memcpy'
p1372
ag6
aS'variable_13'
p1373
aS'->'
p1374
aS'variable_14'
p1375
ag10
aS'variable_9'
p1376
ag10
aS'variable_15'
p1377
ag13
ag17
aS'variable_9'
p1378
aS'+='
p1379
aS'variable_15'
p1380
ag17
aS'if'
p1381
ag6
ag6
aS'variable_10'
p1382
ag59
aS'variable_9'
p1383
ag13
ag61
aS'12'
p1384
ag13
aS'variable_13'
p1385
aS'->'
p1386
aS'variable_16'
p1387
ag24
ag8
aS'variable_9'
p1388
ag17
aS'variable_9'
p1389
aS'++'
p1390
ag17
aS'variable_9'
p1391
aS'+='
p1392
ag67
ag17
aS'variable_13'
p1393
aS'->'
p1394
aS'variable_17'
p1395
ag24
aS'func_2'
p1396
ag6
aS'variable_9'
p1397
ag13
ag17
aS'variable_9'
p1398
aS'+='
p1399
ag70
ag17
aS'variable_13'
p1400
aS'->'
p1401
aS'variable_18'
p1402
ag24
aS'func_3'
p1403
ag6
aS'variable_9'
p1404
ag13
ag17
aS'variable_9'
p1405
aS'+='
p1406
ag70
ag17
aS'if'
p1407
ag6
aS'variable_13'
p1408
aS'->'
p1409
aS'variable_18'
p1410
ag265
aS'variable_19'
p1411
ag13
aS'variable_13'
p1412
aS'->'
p1413
aS'variable_20'
p1414
ag24
aS'variable_21'
p1415
ag17
aS'variable_13'
p1416
aS'->'
p1417
aS'variable_20'
p1418
ag24
aS'variable_22'
p1419
ag17
aS'while'
p1420
ag6
aS'variable_9'
p1421
ag61
ag24
aS'variable_10'
p1422
ag59
ag70
ag13
aS'struct'
p1423
aS'variable_23'
p1424
ag8
aS'variable_24'
p1425
ag24
ag6
aS'void'
p1426
ag8
ag13
aS'variable_9'
p1427
ag17
aS'if'
p1428
ag6
aS'variable_9'
p1429
ag52
aS'variable_24'
p1430
aS'->'
p1431
aS'variable_25'
p1432
ag28
aS'variable_10'
p1433
ag13
aS'switch'
p1434
ag6
aS'variable_24'
p1435
aS'->'
p1436
aS'variable_26'
p1437
ag13
aS'variable_13'
p1438
aS'->'
p1439
aS'variable_27'
p1440
ag24
aS'variable_24'
p1441
aS'->'
p1442
aS'variable_25'
p1443
ag17
aS'memcpy'
p1444
ag6
aS'variable_13'
p1445
aS'->'
p1446
aS'variable_28'
p1447
ag10
aS'variable_24'
p1448
aS'->'
p1449
aS'variable_29'
p1450
ag10
aS'variable_24'
p1451
aS'->'
p1452
aS'variable_25'
p1453
ag13
ag17
aS'variable_30'
p1454
ag24
aS'func_4'
p1455
ag6
aS'variable_0'
p1456
ag10
aS'variable_31'
p1457
ag10
aS'variable_24'
p1458
aS'->'
p1459
aS'variable_25'
p1460
ag13
ag17
aS'memcpy'
p1461
ag6
aS'variable_13'
p1462
aS'->'
p1463
aS'variable_32'
p1464
ag10
aS'variable_24'
p1465
aS'->'
p1466
aS'variable_29'
p1467
ag10
aS'variable_30'
p1468
ag13
ag17
aS'memmove'
p1469
ag6
ag265
aS'variable_13'
p1470
aS'->'
p1471
aS'variable_33'
p1472
ag909
aS'variable_34'
p1473
ag10
aS'variable_35'
p1474
ag10
aS'sizeof'
p1475
ag6
aS'struct'
p1476
aS'variable_36'
p1477
ag13
ag13
ag17
aS'variable_4'
p1478
ag24
ag6
aS'struct'
p1479
aS'ieeetypes_dsparamset'
p1480
ag8
ag13
aS'variable_9'
p1481
ag17
aS'variable_13'
p1482
aS'->'
p1483
aS'variable_37'
p1484
ag24
aS'variable_4'
p1485
aS'->'
p1486
aS'variable_38'
p1487
ag17
aS'memcpy'
p1488
ag6
ag265
aS'variable_13'
p1489
aS'->'
p1490
aS'variable_33'
p1491
ag909
aS'variable_39'
p1492
ag10
aS'variable_4'
p1493
ag10
aS'sizeof'
p1494
ag6
aS'struct'
p1495
aS'variable_3'
p1496
ag13
ag13
ag17
aS'func_5'
p1497
ag6
ag159
aS'got'
p1498
aS'DS'
p1499
aS'IE'
p1500
ag10
aS'channel'
p1501
aS'%'
p1502
aS'd'
p1503
aS'\\'
p1504
aS'n'
p1505
ag159
ag10
aS'variable_13'
p1506
aS'->'
p1507
aS'variable_37'
p1508
ag13
ag17
aS'memcpy'
p1509
ag6
ag265
aS'variable_13'
p1510
aS'->'
p1511
aS'variable_40'
p1512
ag909
aS'variable_41'
p1513
ag10
aS'variable_42'
p1514
ag10
aS'sizeof'
p1515
ag6
aS'struct'
p1516
aS'variable_43'
p1517
ag13
ag13
ag17
aS'variable_6'
p1518
ag24
ag6
aS'struct'
p1519
aS'ieeetypes_ibssparamset'
p1520
ag8
ag13
aS'variable_9'
p1521
ag17
aS'variable_13'
p1522
aS'->'
p1523
aS'variable_44'
p1524
ag24
aS'func_6'
p1525
ag6
aS'variable_6'
p1526
aS'->'
p1527
aS'variable_44'
p1528
ag13
ag17
aS'memmove'
p1529
ag6
ag265
aS'variable_13'
p1530
aS'->'
p1531
aS'variable_40'
p1532
ag909
aS'variable_45'
p1533
ag10
aS'variable_6'
p1534
ag10
aS'sizeof'
p1535
ag6
aS'struct'
p1536
aS'variable_5'
p1537
ag13
ag13
ag17
aS'variable_8'
p1538
ag24
ag6
aS'struct'
p1539
aS'ieeetypes_countryinfoset'
p1540
ag8
ag13
aS'variable_9'
p1541
ag17
aS'if'
p1542
ag6
aS'variable_8'
p1543
aS'->'
p1544
aS'variable_25'
p1545
ag61
aS'sizeof'
p1546
ag6
aS'variable_8'
p1547
aS'->'
p1548
aS'variable_46'
p1549
ag13
aS'||'
p1550
aS'variable_8'
p1551
aS'->'
p1552
aS'variable_25'
p1553
ag28
aS'254'
p1554
ag13
aS'memcpy'
p1555
ag6
ag265
aS'variable_13'
p1556
aS'->'
p1557
aS'variable_47'
p1558
ag10
aS'variable_8'
p1559
ag10
aS'variable_8'
p1560
aS'->'
p1561
aS'variable_25'
p1562
ag52
ag70
ag13
ag17
aS'variable_11'
p1563
ag24
aS'variable_13'
p1564
aS'->'
p1565
aS'variable_32'
p1566
ag52
aS'variable_30'
p1567
ag17
aS'memcpy'
p1568
ag6
aS'variable_11'
p1569
ag10
aS'variable_24'
p1570
aS'->'
p1571
aS'variable_29'
p1572
ag10
aS'variable_48'
p1573
ag13
ag17
aS'if'
p1574
ag6
aS'variable_24'
p1575
aS'->'
p1576
aS'variable_25'
p1577
ag28
ag24
ag112
aS'&&'
p1578
aS'variable_24'
p1579
aS'->'
p1580
aS'variable_29'
p1581
ag117
ag25
ag118
aS'=='
p1582
aS'0x00'
p1583
aS'&&'
p1584
aS'variable_24'
p1585
aS'->'
p1586
aS'variable_29'
p1587
ag117
ag125
ag118
aS'=='
p1588
aS'0x50'
p1589
aS'&&'
p1590
aS'variable_24'
p1591
aS'->'
p1592
aS'variable_29'
p1593
ag117
ag70
ag118
aS'=='
p1594
aS'0xf2'
p1595
aS'&&'
p1596
aS'variable_24'
p1597
aS'->'
p1598
aS'variable_29'
p1599
ag117
ag138
ag118
aS'=='
p1600
aS'0x01'
p1601
ag13
aS'variable_13'
p1602
aS'->'
p1603
aS'variable_49'
p1604
ag24
aS'min'
p1605
ag6
aS'variable_24'
p1606
aS'->'
p1607
aS'variable_25'
p1608
ag52
ag70
ag10
aS'variable_50'
p1609
ag13
ag17
aS'if'
p1610
ag6
aS'variable_24'
p1611
aS'->'
p1612
aS'variable_25'
p1613
ag28
ag24
aS'variable_51'
p1614
aS'&&'
p1615
aS'variable_24'
p1616
aS'->'
p1617
aS'variable_29'
p1618
ag117
ag25
ag118
aS'=='
p1619
aS'0x00'
p1620
aS'&&'
p1621
aS'variable_24'
p1622
aS'->'
p1623
aS'variable_29'
p1624
ag117
ag125
ag118
aS'=='
p1625
aS'0x50'
p1626
aS'&&'
p1627
aS'variable_24'
p1628
aS'->'
p1629
aS'variable_29'
p1630
ag117
ag70
ag118
aS'=='
p1631
aS'0x43'
p1632
aS'&&'
p1633
aS'variable_24'
p1634
aS'->'
p1635
aS'variable_29'
p1636
ag117
ag138
ag118
aS'=='
p1637
aS'0x04'
p1638
ag13
aS'variable_13'
p1639
aS'->'
p1640
aS'variable_52'
p1641
ag24
ag125
ag17
aS'variable_13'
p1642
aS'->'
p1643
aS'variable_53'
p1644
ag24
aS'min'
p1645
ag6
aS'variable_24'
p1646
aS'->'
p1647
aS'variable_25'
p1648
ag52
ag70
ag10
aS'variable_50'
p1649
ag13
ag17
aS'variable_9'
p1650
aS'+='
p1651
aS'variable_24'
p1652
aS'->'
p1653
aS'variable_25'
p1654
ag52
ag70
ag17
aa(lp1655
S'static'
p1656
aS'int'
p1657
aS'func_0'
p1658
ag6
aS'variable_0'
p1659
ag8
ag8
aS'variable_1'
p1660
ag10
aS'int'
p1661
ag8
aS'variable_2'
p1662
ag13
aS'struct'
p1663
aS'variable_3'
p1664
ag8
aS'variable_4'
p1665
ag17
aS'variable_0'
p1666
ag8
aS'variable_5'
p1667
ag10
ag8
aS'variable_6'
p1668
ag10
ag8
aS'variable_7'
p1669
ag17
aS'uint16_t'
p1670
aS'variable_8'
p1671
ag24
ag25
ag17
aS'if'
p1672
ag6
ag8
aS'variable_2'
p1673
ag28
ag24
aS'sizeof'
p1674
ag6
aS'variable_8'
p1675
ag13
ag13
aS'variable_8'
p1676
ag24
aS'func_1'
p1677
ag6
ag8
aS'variable_1'
p1678
ag13
ag17
ag8
aS'variable_2'
p1679
aS'-='
p1680
aS'sizeof'
p1681
ag6
aS'variable_8'
p1682
ag13
ag17
ag8
aS'variable_1'
p1683
aS'+='
p1684
aS'sizeof'
p1685
ag6
aS'variable_8'
p1686
ag13
ag17
aS'if'
p1687
ag6
aS'variable_8'
p1688
aS'=='
p1689
ag25
aS'||'
p1690
aS'variable_8'
p1691
ag28
ag8
aS'variable_2'
p1692
ag13
aS'variable_5'
p1693
ag24
ag8
aS'variable_1'
p1694
ag17
aS'variable_6'
p1695
ag24
aS'variable_5'
p1696
ag52
aS'variable_8'
p1697
ag17
aS'memcpy'
p1698
ag6
aS'variable_9'
p1699
aS'->'
p1700
aS'variable_10'
p1701
ag10
aS'variable_5'
p1702
ag10
aS'variable_11'
p1703
ag13
ag17
aS'variable_5'
p1704
aS'+='
p1705
aS'variable_11'
p1706
ag17
aS'if'
p1707
ag6
ag6
aS'variable_6'
p1708
ag59
aS'variable_5'
p1709
ag13
ag61
aS'12'
p1710
ag13
aS'variable_9'
p1711
aS'->'
p1712
aS'variable_12'
p1713
ag24
ag8
aS'variable_5'
p1714
ag17
aS'variable_5'
p1715
aS'++'
p1716
ag17
aS'variable_5'
p1717
aS'+='
p1718
ag67
ag17
aS'variable_9'
p1719
aS'->'
p1720
aS'variable_13'
p1721
ag24
aS'func_2'
p1722
ag6
aS'variable_5'
p1723
ag13
ag17
aS'variable_5'
p1724
aS'+='
p1725
ag70
ag17
aS'variable_9'
p1726
aS'->'
p1727
aS'variable_14'
p1728
ag24
aS'func_3'
p1729
ag6
aS'variable_5'
p1730
ag13
ag17
aS'variable_5'
p1731
aS'+='
p1732
ag70
ag17
aS'if'
p1733
ag6
aS'variable_9'
p1734
aS'->'
p1735
aS'variable_14'
p1736
ag265
aS'variable_15'
p1737
ag13
aS'variable_9'
p1738
aS'->'
p1739
aS'variable_16'
p1740
ag24
aS'variable_17'
p1741
ag17
aS'while'
p1742
ag6
aS'variable_5'
p1743
ag61
ag24
aS'variable_6'
p1744
ag59
ag70
ag13
aS'struct'
p1745
aS'variable_18'
p1746
ag8
aS'variable_19'
p1747
ag24
ag6
aS'void'
p1748
ag8
ag13
aS'variable_5'
p1749
ag17
aS'if'
p1750
ag6
aS'variable_5'
p1751
ag52
aS'variable_19'
p1752
aS'->'
p1753
aS'variable_20'
p1754
ag28
aS'variable_6'
p1755
ag13
aS'switch'
p1756
ag6
aS'variable_19'
p1757
aS'->'
p1758
aS'variable_21'
p1759
ag13
aS'variable_9'
p1760
aS'->'
p1761
aS'variable_22'
p1762
ag24
aS'variable_19'
p1763
aS'->'
p1764
aS'variable_20'
p1765
ag17
aS'memcpy'
p1766
ag6
aS'variable_9'
p1767
aS'->'
p1768
aS'variable_23'
p1769
ag10
aS'variable_19'
p1770
aS'->'
p1771
aS'variable_24'
p1772
ag10
aS'variable_19'
p1773
aS'->'
p1774
aS'variable_20'
p1775
ag13
ag17
aS'func_4'
p1776
ag6
ag159
aS'got'
p1777
aS'SSID'
p1778
aS'IE'
p1779
aS':'
p1780
aS"'"
p1781
ag1502
aS's'
p1782
ag1781
ag10
aS'len'
p1783
ag1502
aS'u'
p1784
ag1504
ag1505
ag159
ag10
aS'func_5'
p1785
ag6
aS'variable_9'
p1786
aS'->'
p1787
aS'variable_23'
p1788
ag10
aS'variable_9'
p1789
aS'->'
p1790
aS'variable_22'
p1791
ag13
ag10
aS'variable_9'
p1792
aS'->'
p1793
aS'variable_22'
p1794
ag13
ag17
aS'memcpy'
p1795
ag6
aS'variable_9'
p1796
aS'->'
p1797
aS'variable_25'
p1798
ag10
aS'variable_19'
p1799
aS'->'
p1800
aS'variable_24'
p1801
ag10
aS'variable_26'
p1802
ag13
ag17
aS'memmove'
p1803
ag6
ag265
aS'variable_9'
p1804
aS'->'
p1805
aS'variable_27'
p1806
ag909
aS'variable_28'
p1807
ag10
aS'variable_29'
p1808
ag10
aS'sizeof'
p1809
ag6
aS'struct'
p1810
aS'variable_30'
p1811
ag13
ag13
ag17
aS'variable_9'
p1812
aS'->'
p1813
aS'variable_31'
p1814
ag24
aS'variable_32'
p1815
aS'->'
p1816
aS'variable_33'
p1817
ag17
aS'memcpy'
p1818
ag6
ag265
aS'variable_9'
p1819
aS'->'
p1820
aS'variable_27'
p1821
ag909
aS'variable_34'
p1822
ag10
aS'variable_32'
p1823
ag10
aS'sizeof'
p1824
ag6
aS'struct'
p1825
aS'variable_35'
p1826
ag13
ag13
ag17
aS'func_6'
p1827
ag6
ag159
aS'got'
p1828
aS'DS'
p1829
aS'IE'
p1830
ag10
aS'channel'
p1831
ag1502
ag1503
ag1504
ag1505
ag159
ag10
aS'variable_9'
p1832
aS'->'
p1833
aS'variable_31'
p1834
ag13
ag17
aS'memcpy'
p1835
ag6
ag265
aS'variable_9'
p1836
aS'->'
p1837
aS'variable_36'
p1838
ag909
aS'variable_37'
p1839
ag10
aS'variable_38'
p1840
ag10
aS'sizeof'
p1841
ag6
aS'struct'
p1842
aS'variable_39'
p1843
ag13
ag13
ag17
aS'variable_9'
p1844
aS'->'
p1845
aS'variable_40'
p1846
ag24
aS'func_7'
p1847
ag6
aS'variable_41'
p1848
aS'->'
p1849
aS'variable_40'
p1850
ag13
ag17
aS'memmove'
p1851
ag6
ag265
aS'variable_9'
p1852
aS'->'
p1853
aS'variable_36'
p1854
ag909
aS'variable_42'
p1855
ag10
aS'variable_41'
p1856
ag10
aS'sizeof'
p1857
ag6
aS'struct'
p1858
aS'variable_43'
p1859
ag13
ag13
ag17
aS'variable_4'
p1860
ag24
ag6
aS'struct'
p1861
aS'ieeetypes_countryinfoset'
p1862
ag8
ag13
aS'variable_5'
p1863
ag17
aS'if'
p1864
ag6
aS'variable_4'
p1865
aS'->'
p1866
aS'variable_20'
p1867
ag61
aS'sizeof'
p1868
ag6
aS'variable_4'
p1869
aS'->'
p1870
aS'variable_44'
p1871
ag13
aS'||'
p1872
aS'variable_4'
p1873
aS'->'
p1874
aS'variable_20'
p1875
ag28
aS'254'
p1876
ag13
aS'memcpy'
p1877
ag6
ag265
aS'variable_9'
p1878
aS'->'
p1879
aS'variable_45'
p1880
ag10
aS'variable_4'
p1881
ag10
aS'variable_4'
p1882
aS'->'
p1883
aS'variable_20'
p1884
ag52
ag70
ag13
ag17
aS'variable_7'
p1885
ag24
aS'variable_9'
p1886
aS'->'
p1887
aS'variable_25'
p1888
ag52
aS'variable_26'
p1889
ag17
aS'memcpy'
p1890
ag6
aS'variable_7'
p1891
ag10
aS'variable_19'
p1892
aS'->'
p1893
aS'variable_24'
p1894
ag10
aS'variable_46'
p1895
ag13
ag17
aS'variable_5'
p1896
aS'+='
p1897
aS'variable_19'
p1898
aS'->'
p1899
aS'variable_20'
p1900
ag52
ag70
ag17
aa(lp1901
S'static'
p1902
aS'int'
p1903
aS'func_0'
p1904
ag6
aS'variable_0'
p1905
ag8
ag8
aS'variable_1'
p1906
ag10
aS'int'
p1907
ag8
aS'variable_2'
p1908
ag13
aS'variable_0'
p1909
ag8
aS'variable_3'
p1910
ag10
ag8
aS'variable_4'
p1911
ag10
ag8
aS'variable_5'
p1912
ag17
aS'uint16_t'
p1913
aS'variable_6'
p1914
ag24
ag25
ag17
aS'if'
p1915
ag6
ag8
aS'variable_2'
p1916
ag28
ag24
aS'sizeof'
p1917
ag6
aS'variable_6'
p1918
ag13
ag13
aS'variable_6'
p1919
ag24
aS'func_1'
p1920
ag6
ag8
aS'variable_1'
p1921
ag13
ag17
ag8
aS'variable_2'
p1922
aS'-='
p1923
aS'sizeof'
p1924
ag6
aS'variable_6'
p1925
ag13
ag17
ag8
aS'variable_1'
p1926
aS'+='
p1927
aS'sizeof'
p1928
ag6
aS'variable_6'
p1929
ag13
ag17
aS'if'
p1930
ag6
aS'variable_6'
p1931
aS'=='
p1932
ag25
aS'||'
p1933
aS'variable_6'
p1934
ag28
ag8
aS'variable_2'
p1935
ag13
aS'variable_3'
p1936
ag24
ag8
aS'variable_1'
p1937
ag17
aS'memcpy'
p1938
ag6
aS'variable_7'
p1939
aS'->'
p1940
aS'variable_8'
p1941
ag10
aS'variable_3'
p1942
ag10
aS'variable_9'
p1943
ag13
ag17
aS'func_2'
p1944
ag6
ag159
aS'process_bss'
p1945
ag1780
aS'BSSID'
p1946
ag1502
ag1782
ag1504
ag1505
ag159
ag10
aS'func_3'
p1947
ag6
aS'variable_10'
p1948
ag10
aS'variable_7'
p1949
aS'->'
p1950
aS'variable_8'
p1951
ag13
ag13
ag17
aS'variable_7'
p1952
aS'->'
p1953
aS'variable_11'
p1954
ag24
ag8
aS'variable_3'
p1955
ag17
aS'variable_7'
p1956
aS'->'
p1957
aS'variable_12'
p1958
ag24
aS'func_4'
p1959
ag6
aS'variable_3'
p1960
ag13
ag17
aS'variable_7'
p1961
aS'->'
p1962
aS'variable_13'
p1963
ag24
aS'func_5'
p1964
ag6
aS'variable_3'
p1965
ag13
ag17
aS'func_6'
p1966
ag6
ag159
aS'process_bss'
p1967
ag1780
aS'capabilities'
p1968
aS'0x'
p1969
ag1502
aS'04x'
p1970
ag1504
ag1505
ag159
ag10
aS'variable_7'
p1971
aS'->'
p1972
aS'variable_13'
p1973
ag13
ag17
aS'if'
p1974
ag6
aS'variable_7'
p1975
aS'->'
p1976
aS'variable_13'
p1977
ag265
aS'variable_14'
p1978
ag13
aS'if'
p1979
ag6
aS'variable_7'
p1980
aS'->'
p1981
aS'variable_13'
p1982
ag265
aS'variable_15'
p1983
ag13
aS'variable_7'
p1984
aS'->'
p1985
aS'variable_16'
p1986
ag24
aS'variable_17'
p1987
ag17
aS'memcpy'
p1988
ag6
aS'variable_7'
p1989
aS'->'
p1990
aS'variable_18'
p1991
ag10
aS'variable_19'
p1992
aS'->'
p1993
aS'variable_20'
p1994
ag10
aS'variable_21'
p1995
ag13
ag17
aS'memmove'
p1996
ag6
ag265
aS'variable_7'
p1997
aS'->'
p1998
aS'variable_22'
p1999
ag909
aS'variable_23'
p2000
ag10
aS'variable_24'
p2001
ag10
aS'sizeof'
p2002
ag6
aS'struct'
p2003
aS'variable_25'
p2004
ag13
ag13
ag17
aS'variable_7'
p2005
aS'->'
p2006
aS'variable_26'
p2007
ag24
aS'variable_27'
p2008
aS'->'
p2009
aS'variable_28'
p2010
ag17
aS'memcpy'
p2011
ag6
ag265
aS'variable_7'
p2012
aS'->'
p2013
aS'variable_22'
p2014
ag909
aS'variable_29'
p2015
ag10
aS'variable_27'
p2016
ag10
aS'sizeof'
p2017
ag6
aS'struct'
p2018
aS'variable_30'
p2019
ag13
ag13
ag17
aS'func_7'
p2020
ag6
ag159
aS'got'
p2021
aS'DS'
p2022
aS'IE'
p2023
ag10
aS'channel'
p2024
ag1502
ag1503
ag1504
ag1505
ag159
ag10
aS'variable_7'
p2025
aS'->'
p2026
aS'variable_26'
p2027
ag13
ag17
aS'memcpy'
p2028
ag6
ag265
aS'variable_7'
p2029
aS'->'
p2030
aS'variable_31'
p2031
ag909
aS'variable_32'
p2032
ag10
aS'variable_33'
p2033
ag10
aS'sizeof'
p2034
ag6
aS'struct'
p2035
aS'variable_34'
p2036
ag13
ag13
ag17
aS'variable_7'
p2037
aS'->'
p2038
aS'variable_35'
p2039
ag24
aS'func_8'
p2040
ag6
aS'variable_36'
p2041
aS'->'
p2042
aS'variable_35'
p2043
ag13
ag17
aS'memmove'
p2044
ag6
ag265
aS'variable_7'
p2045
aS'->'
p2046
aS'variable_31'
p2047
ag909
aS'variable_37'
p2048
ag10
aS'variable_36'
p2049
ag10
aS'sizeof'
p2050
ag6
aS'struct'
p2051
aS'variable_38'
p2052
ag13
ag13
ag17
aS'memcpy'
p2053
ag6
ag265
aS'variable_7'
p2054
aS'->'
p2055
aS'variable_39'
p2056
ag10
aS'variable_40'
p2057
ag10
aS'variable_40'
p2058
aS'->'
p2059
aS'variable_41'
p2060
ag52
ag70
ag13
ag17
aS'variable_5'
p2061
ag24
aS'variable_7'
p2062
aS'->'
p2063
aS'variable_18'
p2064
ag52
aS'variable_21'
p2065
ag17
aS'memcpy'
p2066
ag6
aS'variable_5'
p2067
ag10
aS'variable_19'
p2068
aS'->'
p2069
aS'variable_20'
p2070
ag10
aS'variable_42'
p2071
ag13
ag17
aaa(lp2072
I0
aI1
aI1
aI1
aI1
aI1
aI1
aI0
aa(lp2073
I241
aI384
aI334
aI300
aI318
aI256
aI212
aI79
aa(lp2074
(lp2075
S'main'
p2076
aa(lp2077
g2076
aa(lp2078
g2076
aa(lp2079
g2076
aa(lp2080
g2076
aa(lp2081
g2076
aa(lp2082
g2076
aa(lp2083
g2076
aaa(lp2084
S'426 /home/SySeVR/data/CVE_2008_5134_VULN_lbs_process_bss.c memcpy 179'
p2085
aS'427 /home/SySeVR/data/CVE_2008_5134_VULN_lbs_process_bss.c memcpy 171'
p2086
aS'428 /home/SySeVR/data/CVE_2008_5134_VULN_lbs_process_bss.c memcpy 149'
p2087
aS'429 /home/SySeVR/data/CVE_2008_5134_VULN_lbs_process_bss.c memcpy 125'
p2088
aS'430 /home/SySeVR/data/CVE_2008_5134_VULN_lbs_process_bss.c memcpy 118'
p2089
aS'431 /home/SySeVR/data/CVE_2008_5134_VULN_lbs_process_bss.c memcpy 103'
p2090
aS'432 /home/SySeVR/data/CVE_2008_5134_VULN_lbs_process_bss.c memcpy 95'
p2091
aS'433 /home/SySeVR/data/CVE_2008_5134_VULN_lbs_process_bss.c memcpy 39'
p2092
aa.