(lp0
(lp1
(lp2
S'static'
p3
aS'int'
p4
aS'func_0'
p5
aS'('
p6
aS'variable_0'
p7
aS'*'
p8
ag8
aS'variable_1'
p9
aS','
p10
aS'int'
p11
ag8
aS'variable_2'
p12
aS')'
p13
aS'struct'
p14
aS'variable_3'
p15
ag8
aS'variable_4'
p16
aS';'
p17
aS'struct'
p18
aS'variable_5'
p19
ag8
aS'variable_6'
p20
ag17
aS'struct'
p21
aS'variable_7'
p22
ag8
aS'variable_8'
p23
ag17
aS'variable_0'
p24
ag8
aS'variable_9'
p25
ag10
ag8
aS'variable_10'
p26
ag10
ag8
aS'variable_11'
p27
ag17
aS'uint8_t'
p28
aS'variable_12'
p29
aS'='
p30
aS'0'
p31
ag10
aS'variable_13'
p32
ag30
ag31
ag10
aS'variable_14'
p33
ag30
ag31
ag17
aS'uint16_t'
p34
aS'variable_15'
p35
ag30
ag31
ag17
aS'if'
p36
ag6
ag8
aS'variable_2'
p37
aS'>'
p38
ag30
aS'sizeof'
p39
ag6
aS'variable_15'
p40
ag13
ag13
aS'variable_15'
p41
ag30
aS'func_1'
p42
ag6
ag8
aS'variable_1'
p43
ag13
ag17
ag8
aS'variable_2'
p44
aS'-='
p45
aS'sizeof'
p46
ag6
aS'variable_15'
p47
ag13
ag17
ag8
aS'variable_1'
p48
aS'+='
p49
aS'sizeof'
p50
ag6
aS'variable_15'
p51
ag13
ag17
aS'if'
p52
ag6
aS'variable_15'
p53
aS'=='
p54
ag31
aS'||'
p55
aS'variable_15'
p56
ag38
ag8
aS'variable_2'
p57
ag13
aS'variable_9'
p58
ag30
ag8
aS'variable_1'
p59
ag17
aS'variable_10'
p60
ag30
aS'variable_9'
p61
aS'+'
p62
aS'variable_15'
p63
ag17
aS'memcpy'
p64
ag6
aS'variable_16'
p65
aS'->'
p66
aS'variable_17'
p67
ag10
aS'variable_9'
p68
ag10
aS'variable_18'
p69
ag13
ag17
aS'variable_9'
p70
aS'+='
p71
aS'variable_18'
p72
ag17
aS'if'
p73
ag6
ag6
aS'variable_10'
p74
aS'-'
p75
aS'variable_9'
p76
ag13
aS'<'
p77
aS'12'
p78
ag13
aS'variable_16'
p79
aS'->'
p80
aS'variable_19'
p81
ag30
ag8
aS'variable_9'
p82
ag17
aS'variable_9'
p83
aS'++'
p84
ag17
aS'variable_9'
p85
aS'+='
p86
aS'8'
p87
ag17
aS'variable_16'
p88
aS'->'
p89
aS'variable_20'
p90
ag30
aS'func_2'
p91
ag6
aS'variable_9'
p92
ag13
ag17
aS'variable_9'
p93
aS'+='
p94
aS'2'
p95
ag17
aS'variable_16'
p96
aS'->'
p97
aS'variable_21'
p98
ag30
aS'func_3'
p99
ag6
aS'variable_9'
p100
ag13
ag17
aS'variable_9'
p101
aS'+='
p102
ag95
ag17
aS'if'
p103
ag6
aS'variable_16'
p104
aS'->'
p105
aS'variable_21'
p106
aS'&'
p107
aS'variable_22'
p108
ag13
aS'variable_16'
p109
aS'->'
p110
aS'variable_23'
p111
ag30
aS'variable_24'
p112
ag17
aS'variable_16'
p113
aS'->'
p114
aS'variable_23'
p115
ag30
aS'variable_25'
p116
ag17
aS'while'
p117
ag6
aS'variable_9'
p118
ag77
ag30
aS'variable_10'
p119
ag75
ag95
ag13
aS'struct'
p120
aS'variable_26'
p121
ag8
aS'variable_27'
p122
ag30
ag6
aS'void'
p123
ag8
ag13
aS'variable_9'
p124
ag17
aS'if'
p125
ag6
aS'variable_9'
p126
ag62
aS'variable_27'
p127
aS'->'
p128
aS'variable_28'
p129
ag38
aS'variable_10'
p130
ag13
aS'switch'
p131
ag6
aS'variable_27'
p132
aS'->'
p133
aS'variable_29'
p134
ag13
aS'variable_16'
p135
aS'->'
p136
aS'variable_30'
p137
ag30
aS'variable_27'
p138
aS'->'
p139
aS'variable_28'
p140
ag17
aS'memcpy'
p141
ag6
aS'variable_16'
p142
aS'->'
p143
aS'variable_31'
p144
ag10
aS'variable_27'
p145
aS'->'
p146
aS'variable_32'
p147
ag10
aS'variable_27'
p148
aS'->'
p149
aS'variable_28'
p150
ag13
ag17
aS'variable_14'
p151
ag30
aS'func_4'
p152
ag6
aS'variable_0'
p153
ag10
aS'variable_33'
p154
ag10
aS'variable_27'
p155
aS'->'
p156
aS'variable_28'
p157
ag13
ag17
aS'memcpy'
p158
ag6
aS'variable_16'
p159
aS'->'
p160
aS'variable_34'
p161
ag10
aS'variable_27'
p162
aS'->'
p163
aS'variable_32'
p164
ag10
aS'variable_14'
p165
ag13
ag17
aS'variable_13'
p166
ag30
aS'1'
p167
ag17
aS'variable_4'
p168
ag30
ag6
aS'struct'
p169
aS'ieeetypes_dsparamset'
p170
ag8
ag13
aS'variable_9'
p171
ag17
aS'variable_16'
p172
aS'->'
p173
aS'variable_35'
p174
ag30
aS'variable_4'
p175
aS'->'
p176
aS'variable_36'
p177
ag17
aS'variable_6'
p178
ag30
ag6
aS'struct'
p179
aS'ieeetypes_ibssparamset'
p180
ag8
ag13
aS'variable_9'
p181
ag17
aS'variable_16'
p182
aS'->'
p183
aS'variable_37'
p184
ag30
aS'func_5'
p185
ag6
aS'variable_6'
p186
aS'->'
p187
aS'variable_37'
p188
ag13
ag17
aS'variable_8'
p189
ag30
ag6
aS'struct'
p190
aS'ieeetypes_countryinfoset'
p191
ag8
ag13
aS'variable_9'
p192
ag17
aS'if'
p193
ag6
aS'variable_8'
p194
aS'->'
p195
aS'variable_28'
p196
ag77
aS'sizeof'
p197
ag6
aS'variable_8'
p198
aS'->'
p199
aS'variable_38'
p200
ag13
aS'||'
p201
aS'variable_8'
p202
aS'->'
p203
aS'variable_28'
p204
ag38
aS'254'
p205
ag13
aS'if'
p206
ag6
aS'!'
p207
aS'variable_13'
p208
ag13
aS'variable_11'
p209
ag30
aS'variable_16'
p210
aS'->'
p211
aS'variable_34'
p212
ag62
aS'variable_14'
p213
ag17
aS'memcpy'
p214
ag6
aS'variable_11'
p215
ag10
aS'variable_27'
p216
aS'->'
p217
aS'variable_32'
p218
ag10
aS'variable_12'
p219
ag13
ag17
aS'if'
p220
ag6
aS'variable_27'
p221
aS'->'
p222
aS'variable_28'
p223
ag38
ag30
aS'4'
p224
aS'&&'
p225
aS'variable_27'
p226
aS'->'
p227
aS'variable_32'
p228
aS'['
p229
ag31
aS']'
p230
aS'=='
p231
aS'0x00'
p232
aS'&&'
p233
aS'variable_27'
p234
aS'->'
p235
aS'variable_32'
p236
ag229
ag167
ag230
aS'=='
p237
aS'0x50'
p238
aS'&&'
p239
aS'variable_27'
p240
aS'->'
p241
aS'variable_32'
p242
ag229
ag95
ag230
aS'=='
p243
aS'0xf2'
p244
aS'&&'
p245
aS'variable_27'
p246
aS'->'
p247
aS'variable_32'
p248
ag229
aS'3'
p249
ag230
aS'=='
p250
aS'0x01'
p251
ag13
aS'variable_16'
p252
aS'->'
p253
aS'variable_39'
p254
ag30
aS'min'
p255
ag6
aS'variable_27'
p256
aS'->'
p257
aS'variable_28'
p258
ag62
ag95
ag10
aS'variable_40'
p259
ag13
ag17
aS'if'
p260
ag6
aS'variable_27'
p261
aS'->'
p262
aS'variable_28'
p263
ag38
ag30
aS'variable_41'
p264
aS'&&'
p265
aS'variable_27'
p266
aS'->'
p267
aS'variable_32'
p268
ag229
ag31
ag230
aS'=='
p269
aS'0x00'
p270
aS'&&'
p271
aS'variable_27'
p272
aS'->'
p273
aS'variable_32'
p274
ag229
ag167
ag230
aS'=='
p275
aS'0x50'
p276
aS'&&'
p277
aS'variable_27'
p278
aS'->'
p279
aS'variable_32'
p280
ag229
ag95
ag230
aS'=='
p281
aS'0x43'
p282
aS'&&'
p283
aS'variable_27'
p284
aS'->'
p285
aS'variable_32'
p286
ag229
ag249
ag230
aS'=='
p287
aS'0x04'
p288
ag13
aS'variable_16'
p289
aS'->'
p290
aS'variable_42'
p291
ag30
ag167
ag17
aS'variable_16'
p292
aS'->'
p293
aS'variable_43'
p294
ag30
aS'min'
p295
ag6
aS'variable_27'
p296
aS'->'
p297
aS'variable_28'
p298
ag62
ag95
ag10
aS'variable_40'
p299
ag13
ag17
aS'variable_9'
p300
aS'+='
p301
aS'variable_27'
p302
aS'->'
p303
aS'variable_28'
p304
ag62
ag95
ag17
aaa(lp305
I1
aa(lp306
I362
aa(lp307
(lp308
S'main'
p309
aaa(lp310
S'58 /home/SySeVR/data/CVE_2008_5134_VULN_lbs_process_bss.c p = bss -> rates + n_basic_rates 170'
p311
aa.