(lp0
(lp1
(lp2
S'int'
p3
aS'func_0'
p4
aS'('
p5
aS'struct'
p6
aS'variable_0'
p7
aS'*'
p8
aS'variable_1'
p9
aS')'
p10
aS'variable_2'
p11
aS'->'
p12
aS'variable_3'
p13
aS'.'
p14
aS'variable_4'
p15
aS'='
p16
aS'variable_1'
p17
aS'->'
p18
aS'variable_4'
p19
aS';'
p20
aS'variable_2'
p21
aS'->'
p22
aS'variable_3'
p23
ag14
aS'variable_5'
p24
ag16
aS'variable_1'
p25
aS'->'
p26
aS'variable_5'
p27
ag20
aS'variable_2'
p28
aS'->'
p29
aS'variable_3'
p30
ag14
aS'variable_6'
p31
ag16
aS'variable_1'
p32
aS'->'
p33
aS'variable_6'
p34
ag20
aS'if'
p35
ag5
aS'!'
p36
aS'func_1'
p37
ag5
aS'variable_2'
p38
aS'->'
p39
aS'variable_7'
p40
ag10
ag10
aS'memcpy'
p41
ag5
aS'variable_2'
p42
aS'->'
p43
aS'variable_3'
p44
ag14
aS'variable_8'
p45
aS','
p46
aS'variable_1'
p47
aS'->'
p48
aS'variable_9'
p49
ag46
aS'sizeof'
p50
aS'variable_2'
p51
aS'->'
p52
aS'variable_3'
p53
ag14
aS'variable_8'
p54
ag10
ag20
aS'variable_2'
p55
aS'->'
p56
aS'variable_3'
p57
ag14
aS'variable_10'
p58
ag16
aS'0'
p59
ag20
aS'for'
p60
ag5
aS'variable_11'
p61
ag16
ag59
ag20
aS'variable_11'
p62
aS'<'
p63
aS'func_2'
p64
ag5
aS'variable_2'
p65
aS'->'
p66
aS'variable_3'
p67
ag14
aS'variable_8'
p68
ag10
ag20
aS'++'
p69
aS'variable_11'
p70
ag10
aS'if'
p71
ag5
aS'variable_2'
p72
aS'->'
p73
aS'variable_3'
p74
ag14
aS'variable_8'
p75
aS'['
p76
aS'variable_11'
p77
aS']'
p78
ag10
aS'func_3'
p79
ag5
aS'variable_11'
p80
ag46
aS'&'
p81
aS'variable_2'
p82
aS'->'
p83
aS'variable_3'
p84
ag14
aS'variable_10'
p85
ag10
ag20
aS'func_4'
p86
ag5
aS'variable_2'
p87
ag46
ag81
aS'variable_1'
p88
aS'->'
p89
aS'variable_12'
p90
ag46
aS'variable_13'
p91
ag10
ag20
aS'func_5'
p92
ag5
aS'variable_2'
p93
ag46
ag81
aS'variable_1'
p94
aS'->'
p95
aS'variable_14'
p96
ag46
aS'variable_15'
p97
ag10
ag20
aS'func_6'
p98
ag5
aS'variable_2'
p99
ag46
ag81
aS'variable_1'
p100
aS'->'
p101
aS'variable_16'
p102
ag46
aS'variable_17'
p103
ag10
ag20
aS'func_7'
p104
ag5
aS'variable_2'
p105
ag46
ag81
aS'variable_1'
p106
aS'->'
p107
aS'variable_18'
p108
ag46
aS'variable_19'
p109
ag10
ag20
aS'func_8'
p110
ag5
aS'variable_2'
p111
ag46
ag81
aS'variable_1'
p112
aS'->'
p113
aS'variable_20'
p114
ag46
aS'variable_21'
p115
ag10
ag20
aS'func_9'
p116
ag5
aS'variable_2'
p117
ag46
ag81
aS'variable_1'
p118
aS'->'
p119
aS'variable_22'
p120
ag46
aS'variable_23'
p121
ag10
ag20
aS'func_10'
p122
ag5
aS'variable_2'
p123
ag46
ag81
aS'variable_1'
p124
aS'->'
p125
aS'variable_24'
p126
ag46
aS'variable_25'
p127
ag10
ag20
aS'func_11'
p128
ag5
aS'variable_2'
p129
ag46
ag81
aS'variable_1'
p130
aS'->'
p131
aS'variable_26'
p132
ag46
aS'variable_27'
p133
ag10
ag20
aS'if'
p134
ag5
aS'variable_2'
p135
aS'->'
p136
aS'variable_28'
p137
aS'=='
p138
ag59
aS'&&'
p139
aS'func_12'
p140
ag5
aS'variable_2'
p141
ag10
aS'=='
p142
aS'0xfff0'
p143
aS'&&'
p144
aS'variable_1'
p145
aS'->'
p146
aS'variable_12'
p147
ag14
aS'variable_29'
p148
aS'=='
p149
aS'0xf000'
p150
aS'&&'
p151
aS'variable_1'
p152
aS'->'
p153
aS'variable_12'
p154
ag14
aS'variable_30'
p155
aS'=='
p156
aS'0xffff0000'
p157
aS'&&'
p158
ag36
ag5
aS'variable_2'
p159
aS'->'
p160
aS'variable_3'
p161
ag14
aS'variable_6'
p162
ag81
aS'variable_31'
p163
ag10
ag10
aS'variable_2'
p164
aS'->'
p165
aS'variable_3'
p166
ag14
aS'variable_32'
p167
ag16
aS'variable_33'
p168
ag20
aS'func_13'
p169
ag5
aS'variable_2'
p170
ag10
ag20
aaa(lp171
I1
aa(lp172
I49
aa(lp173
(lp174
S'main'
p175
aaa(lp176
S'435 /home/SySeVR/data/CVE_2009_2287_VULN_kvm_arch_vcpu_ioctl_set_sregs.c memcpy 42'
p177
aa.